ARM GAS  C:\Users\Matthew\AppData\Local\Temp\ccEzCCR1.s 			page 1


   1              		.syntax unified
   2              		.cpu cortex-m3
   3              		.fpu softvfp
   4              		.eabi_attribute 20, 1
   5              		.eabi_attribute 21, 1
   6              		.eabi_attribute 23, 3
   7              		.eabi_attribute 24, 1
   8              		.eabi_attribute 25, 1
   9              		.eabi_attribute 26, 1
  10              		.eabi_attribute 30, 6
  11              		.eabi_attribute 34, 1
  12              		.eabi_attribute 18, 4
  13              		.thumb
  14              		.file	"isr_byte_ultrasonic_rx.c"
  15              		.text
  16              	.Ltext0:
  17              		.cfi_sections	.debug_frame
  18              		.section	.text.isr_byte_ultrasonic_rx_Start,"ax",%progbits
  19              		.align	2
  20              		.global	isr_byte_ultrasonic_rx_Start
  21              		.thumb
  22              		.thumb_func
  23              		.type	isr_byte_ultrasonic_rx_Start, %function
  24              	isr_byte_ultrasonic_rx_Start:
  25              	.LFB0:
  26              		.file 1 ".\\Generated_Source\\PSoC5\\isr_byte_ultrasonic_rx.c"
   1:.\Generated_Source\PSoC5/isr_byte_ultrasonic_rx.c **** /*******************************************************************************
   2:.\Generated_Source\PSoC5/isr_byte_ultrasonic_rx.c **** * File Name: isr_byte_ultrasonic_rx.c  
   3:.\Generated_Source\PSoC5/isr_byte_ultrasonic_rx.c **** * Version 1.70
   4:.\Generated_Source\PSoC5/isr_byte_ultrasonic_rx.c **** *
   5:.\Generated_Source\PSoC5/isr_byte_ultrasonic_rx.c **** *  Description:
   6:.\Generated_Source\PSoC5/isr_byte_ultrasonic_rx.c **** *   API for controlling the state of an interrupt.
   7:.\Generated_Source\PSoC5/isr_byte_ultrasonic_rx.c **** *
   8:.\Generated_Source\PSoC5/isr_byte_ultrasonic_rx.c **** *
   9:.\Generated_Source\PSoC5/isr_byte_ultrasonic_rx.c **** *  Note:
  10:.\Generated_Source\PSoC5/isr_byte_ultrasonic_rx.c **** *
  11:.\Generated_Source\PSoC5/isr_byte_ultrasonic_rx.c **** ********************************************************************************
  12:.\Generated_Source\PSoC5/isr_byte_ultrasonic_rx.c **** * Copyright 2008-2015, Cypress Semiconductor Corporation.  All rights reserved.
  13:.\Generated_Source\PSoC5/isr_byte_ultrasonic_rx.c **** * You may use this file only in accordance with the license, terms, conditions, 
  14:.\Generated_Source\PSoC5/isr_byte_ultrasonic_rx.c **** * disclaimers, and limitations in the end user license agreement accompanying 
  15:.\Generated_Source\PSoC5/isr_byte_ultrasonic_rx.c **** * the software package with which this file was provided.
  16:.\Generated_Source\PSoC5/isr_byte_ultrasonic_rx.c **** *******************************************************************************/
  17:.\Generated_Source\PSoC5/isr_byte_ultrasonic_rx.c **** 
  18:.\Generated_Source\PSoC5/isr_byte_ultrasonic_rx.c **** 
  19:.\Generated_Source\PSoC5/isr_byte_ultrasonic_rx.c **** #include <cydevice_trm.h>
  20:.\Generated_Source\PSoC5/isr_byte_ultrasonic_rx.c **** #include <CyLib.h>
  21:.\Generated_Source\PSoC5/isr_byte_ultrasonic_rx.c **** #include <isr_byte_ultrasonic_rx.h>
  22:.\Generated_Source\PSoC5/isr_byte_ultrasonic_rx.c **** 
  23:.\Generated_Source\PSoC5/isr_byte_ultrasonic_rx.c **** #if !defined(isr_byte_ultrasonic_rx__REMOVED) /* Check for removal by optimization */
  24:.\Generated_Source\PSoC5/isr_byte_ultrasonic_rx.c **** 
  25:.\Generated_Source\PSoC5/isr_byte_ultrasonic_rx.c **** /*******************************************************************************
  26:.\Generated_Source\PSoC5/isr_byte_ultrasonic_rx.c **** *  Place your includes, defines and code here 
  27:.\Generated_Source\PSoC5/isr_byte_ultrasonic_rx.c **** ********************************************************************************/
  28:.\Generated_Source\PSoC5/isr_byte_ultrasonic_rx.c **** /* `#START isr_byte_ultrasonic_rx_intc` */
  29:.\Generated_Source\PSoC5/isr_byte_ultrasonic_rx.c **** 
  30:.\Generated_Source\PSoC5/isr_byte_ultrasonic_rx.c **** /* `#END` */
  31:.\Generated_Source\PSoC5/isr_byte_ultrasonic_rx.c **** 
ARM GAS  C:\Users\Matthew\AppData\Local\Temp\ccEzCCR1.s 			page 2


  32:.\Generated_Source\PSoC5/isr_byte_ultrasonic_rx.c **** #ifndef CYINT_IRQ_BASE
  33:.\Generated_Source\PSoC5/isr_byte_ultrasonic_rx.c **** #define CYINT_IRQ_BASE      16
  34:.\Generated_Source\PSoC5/isr_byte_ultrasonic_rx.c **** #endif /* CYINT_IRQ_BASE */
  35:.\Generated_Source\PSoC5/isr_byte_ultrasonic_rx.c **** #ifndef CYINT_VECT_TABLE
  36:.\Generated_Source\PSoC5/isr_byte_ultrasonic_rx.c **** #define CYINT_VECT_TABLE    ((cyisraddress **) CYREG_NVIC_VECT_OFFSET)
  37:.\Generated_Source\PSoC5/isr_byte_ultrasonic_rx.c **** #endif /* CYINT_VECT_TABLE */
  38:.\Generated_Source\PSoC5/isr_byte_ultrasonic_rx.c **** 
  39:.\Generated_Source\PSoC5/isr_byte_ultrasonic_rx.c **** /* Declared in startup, used to set unused interrupts to. */
  40:.\Generated_Source\PSoC5/isr_byte_ultrasonic_rx.c **** CY_ISR_PROTO(IntDefaultHandler);
  41:.\Generated_Source\PSoC5/isr_byte_ultrasonic_rx.c **** 
  42:.\Generated_Source\PSoC5/isr_byte_ultrasonic_rx.c **** 
  43:.\Generated_Source\PSoC5/isr_byte_ultrasonic_rx.c **** /*******************************************************************************
  44:.\Generated_Source\PSoC5/isr_byte_ultrasonic_rx.c **** * Function Name: isr_byte_ultrasonic_rx_Start
  45:.\Generated_Source\PSoC5/isr_byte_ultrasonic_rx.c **** ********************************************************************************
  46:.\Generated_Source\PSoC5/isr_byte_ultrasonic_rx.c **** *
  47:.\Generated_Source\PSoC5/isr_byte_ultrasonic_rx.c **** * Summary:
  48:.\Generated_Source\PSoC5/isr_byte_ultrasonic_rx.c **** *  Set up the interrupt and enable it. This function disables the interrupt, 
  49:.\Generated_Source\PSoC5/isr_byte_ultrasonic_rx.c **** *  sets the default interrupt vector, sets the priority from the value in the
  50:.\Generated_Source\PSoC5/isr_byte_ultrasonic_rx.c **** *  Design Wide Resources Interrupt Editor, then enables the interrupt to the 
  51:.\Generated_Source\PSoC5/isr_byte_ultrasonic_rx.c **** *  interrupt controller.
  52:.\Generated_Source\PSoC5/isr_byte_ultrasonic_rx.c **** *
  53:.\Generated_Source\PSoC5/isr_byte_ultrasonic_rx.c **** * Parameters:  
  54:.\Generated_Source\PSoC5/isr_byte_ultrasonic_rx.c **** *   None
  55:.\Generated_Source\PSoC5/isr_byte_ultrasonic_rx.c **** *
  56:.\Generated_Source\PSoC5/isr_byte_ultrasonic_rx.c **** * Return:
  57:.\Generated_Source\PSoC5/isr_byte_ultrasonic_rx.c **** *   None
  58:.\Generated_Source\PSoC5/isr_byte_ultrasonic_rx.c **** *
  59:.\Generated_Source\PSoC5/isr_byte_ultrasonic_rx.c **** *******************************************************************************/
  60:.\Generated_Source\PSoC5/isr_byte_ultrasonic_rx.c **** void isr_byte_ultrasonic_rx_Start(void)
  61:.\Generated_Source\PSoC5/isr_byte_ultrasonic_rx.c **** {
  27              		.loc 1 61 0
  28              		.cfi_startproc
  29              		@ args = 0, pretend = 0, frame = 0
  30              		@ frame_needed = 1, uses_anonymous_args = 0
  31 0000 80B5     		push	{r7, lr}
  32              		.cfi_def_cfa_offset 8
  33              		.cfi_offset 7, -8
  34              		.cfi_offset 14, -4
  35 0002 00AF     		add	r7, sp, #0
  36              		.cfi_def_cfa_register 7
  62:.\Generated_Source\PSoC5/isr_byte_ultrasonic_rx.c ****     /* For all we know the interrupt is active. */
  63:.\Generated_Source\PSoC5/isr_byte_ultrasonic_rx.c ****     isr_byte_ultrasonic_rx_Disable();
  37              		.loc 1 63 0
  38 0004 FFF7FEFF 		bl	isr_byte_ultrasonic_rx_Disable
  64:.\Generated_Source\PSoC5/isr_byte_ultrasonic_rx.c **** 
  65:.\Generated_Source\PSoC5/isr_byte_ultrasonic_rx.c ****     /* Set the ISR to point to the isr_byte_ultrasonic_rx Interrupt. */
  66:.\Generated_Source\PSoC5/isr_byte_ultrasonic_rx.c ****     isr_byte_ultrasonic_rx_SetVector(&isr_byte_ultrasonic_rx_Interrupt);
  39              		.loc 1 66 0
  40 0008 0448     		ldr	r0, .L2
  41 000a FFF7FEFF 		bl	isr_byte_ultrasonic_rx_SetVector
  67:.\Generated_Source\PSoC5/isr_byte_ultrasonic_rx.c **** 
  68:.\Generated_Source\PSoC5/isr_byte_ultrasonic_rx.c ****     /* Set the priority. */
  69:.\Generated_Source\PSoC5/isr_byte_ultrasonic_rx.c ****     isr_byte_ultrasonic_rx_SetPriority((uint8)isr_byte_ultrasonic_rx_INTC_PRIOR_NUMBER);
  42              		.loc 1 69 0
  43 000e 0720     		movs	r0, #7
  44 0010 FFF7FEFF 		bl	isr_byte_ultrasonic_rx_SetPriority
  70:.\Generated_Source\PSoC5/isr_byte_ultrasonic_rx.c **** 
ARM GAS  C:\Users\Matthew\AppData\Local\Temp\ccEzCCR1.s 			page 3


  71:.\Generated_Source\PSoC5/isr_byte_ultrasonic_rx.c ****     /* Enable it. */
  72:.\Generated_Source\PSoC5/isr_byte_ultrasonic_rx.c ****     isr_byte_ultrasonic_rx_Enable();
  45              		.loc 1 72 0
  46 0014 FFF7FEFF 		bl	isr_byte_ultrasonic_rx_Enable
  73:.\Generated_Source\PSoC5/isr_byte_ultrasonic_rx.c **** }
  47              		.loc 1 73 0
  48 0018 80BD     		pop	{r7, pc}
  49              	.L3:
  50 001a 00BF     		.align	2
  51              	.L2:
  52 001c 00000000 		.word	isr_byte_ultrasonic_rx_Interrupt
  53              		.cfi_endproc
  54              	.LFE0:
  55              		.size	isr_byte_ultrasonic_rx_Start, .-isr_byte_ultrasonic_rx_Start
  56              		.section	.text.isr_byte_ultrasonic_rx_StartEx,"ax",%progbits
  57              		.align	2
  58              		.global	isr_byte_ultrasonic_rx_StartEx
  59              		.thumb
  60              		.thumb_func
  61              		.type	isr_byte_ultrasonic_rx_StartEx, %function
  62              	isr_byte_ultrasonic_rx_StartEx:
  63              	.LFB1:
  74:.\Generated_Source\PSoC5/isr_byte_ultrasonic_rx.c **** 
  75:.\Generated_Source\PSoC5/isr_byte_ultrasonic_rx.c **** 
  76:.\Generated_Source\PSoC5/isr_byte_ultrasonic_rx.c **** /*******************************************************************************
  77:.\Generated_Source\PSoC5/isr_byte_ultrasonic_rx.c **** * Function Name: isr_byte_ultrasonic_rx_StartEx
  78:.\Generated_Source\PSoC5/isr_byte_ultrasonic_rx.c **** ********************************************************************************
  79:.\Generated_Source\PSoC5/isr_byte_ultrasonic_rx.c **** *
  80:.\Generated_Source\PSoC5/isr_byte_ultrasonic_rx.c **** * Summary:
  81:.\Generated_Source\PSoC5/isr_byte_ultrasonic_rx.c **** *  Sets up the interrupt and enables it. This function disables the interrupt,
  82:.\Generated_Source\PSoC5/isr_byte_ultrasonic_rx.c **** *  sets the interrupt vector based on the address passed in, sets the priority 
  83:.\Generated_Source\PSoC5/isr_byte_ultrasonic_rx.c **** *  from the value in the Design Wide Resources Interrupt Editor, then enables 
  84:.\Generated_Source\PSoC5/isr_byte_ultrasonic_rx.c **** *  the interrupt to the interrupt controller.
  85:.\Generated_Source\PSoC5/isr_byte_ultrasonic_rx.c **** *  
  86:.\Generated_Source\PSoC5/isr_byte_ultrasonic_rx.c **** *  When defining ISR functions, the CY_ISR and CY_ISR_PROTO macros should be 
  87:.\Generated_Source\PSoC5/isr_byte_ultrasonic_rx.c **** *  used to provide consistent definition across compilers:
  88:.\Generated_Source\PSoC5/isr_byte_ultrasonic_rx.c **** *  
  89:.\Generated_Source\PSoC5/isr_byte_ultrasonic_rx.c **** *  Function definition example:
  90:.\Generated_Source\PSoC5/isr_byte_ultrasonic_rx.c **** *   CY_ISR(MyISR)
  91:.\Generated_Source\PSoC5/isr_byte_ultrasonic_rx.c **** *   {
  92:.\Generated_Source\PSoC5/isr_byte_ultrasonic_rx.c **** *   }
  93:.\Generated_Source\PSoC5/isr_byte_ultrasonic_rx.c **** *   Function prototype example:
  94:.\Generated_Source\PSoC5/isr_byte_ultrasonic_rx.c **** *   CY_ISR_PROTO(MyISR);
  95:.\Generated_Source\PSoC5/isr_byte_ultrasonic_rx.c **** *
  96:.\Generated_Source\PSoC5/isr_byte_ultrasonic_rx.c **** * Parameters:  
  97:.\Generated_Source\PSoC5/isr_byte_ultrasonic_rx.c **** *   address: Address of the ISR to set in the interrupt vector table.
  98:.\Generated_Source\PSoC5/isr_byte_ultrasonic_rx.c **** *
  99:.\Generated_Source\PSoC5/isr_byte_ultrasonic_rx.c **** * Return:
 100:.\Generated_Source\PSoC5/isr_byte_ultrasonic_rx.c **** *   None
 101:.\Generated_Source\PSoC5/isr_byte_ultrasonic_rx.c **** *
 102:.\Generated_Source\PSoC5/isr_byte_ultrasonic_rx.c **** *******************************************************************************/
 103:.\Generated_Source\PSoC5/isr_byte_ultrasonic_rx.c **** void isr_byte_ultrasonic_rx_StartEx(cyisraddress address)
 104:.\Generated_Source\PSoC5/isr_byte_ultrasonic_rx.c **** {
  64              		.loc 1 104 0
  65              		.cfi_startproc
  66              		@ args = 0, pretend = 0, frame = 8
  67              		@ frame_needed = 1, uses_anonymous_args = 0
ARM GAS  C:\Users\Matthew\AppData\Local\Temp\ccEzCCR1.s 			page 4


  68 0000 80B5     		push	{r7, lr}
  69              		.cfi_def_cfa_offset 8
  70              		.cfi_offset 7, -8
  71              		.cfi_offset 14, -4
  72 0002 82B0     		sub	sp, sp, #8
  73              		.cfi_def_cfa_offset 16
  74 0004 00AF     		add	r7, sp, #0
  75              		.cfi_def_cfa_register 7
  76 0006 7860     		str	r0, [r7, #4]
 105:.\Generated_Source\PSoC5/isr_byte_ultrasonic_rx.c ****     /* For all we know the interrupt is active. */
 106:.\Generated_Source\PSoC5/isr_byte_ultrasonic_rx.c ****     isr_byte_ultrasonic_rx_Disable();
  77              		.loc 1 106 0
  78 0008 FFF7FEFF 		bl	isr_byte_ultrasonic_rx_Disable
 107:.\Generated_Source\PSoC5/isr_byte_ultrasonic_rx.c **** 
 108:.\Generated_Source\PSoC5/isr_byte_ultrasonic_rx.c ****     /* Set the ISR to point to the isr_byte_ultrasonic_rx Interrupt. */
 109:.\Generated_Source\PSoC5/isr_byte_ultrasonic_rx.c ****     isr_byte_ultrasonic_rx_SetVector(address);
  79              		.loc 1 109 0
  80 000c 7868     		ldr	r0, [r7, #4]
  81 000e FFF7FEFF 		bl	isr_byte_ultrasonic_rx_SetVector
 110:.\Generated_Source\PSoC5/isr_byte_ultrasonic_rx.c **** 
 111:.\Generated_Source\PSoC5/isr_byte_ultrasonic_rx.c ****     /* Set the priority. */
 112:.\Generated_Source\PSoC5/isr_byte_ultrasonic_rx.c ****     isr_byte_ultrasonic_rx_SetPriority((uint8)isr_byte_ultrasonic_rx_INTC_PRIOR_NUMBER);
  82              		.loc 1 112 0
  83 0012 0720     		movs	r0, #7
  84 0014 FFF7FEFF 		bl	isr_byte_ultrasonic_rx_SetPriority
 113:.\Generated_Source\PSoC5/isr_byte_ultrasonic_rx.c **** 
 114:.\Generated_Source\PSoC5/isr_byte_ultrasonic_rx.c ****     /* Enable it. */
 115:.\Generated_Source\PSoC5/isr_byte_ultrasonic_rx.c ****     isr_byte_ultrasonic_rx_Enable();
  85              		.loc 1 115 0
  86 0018 FFF7FEFF 		bl	isr_byte_ultrasonic_rx_Enable
 116:.\Generated_Source\PSoC5/isr_byte_ultrasonic_rx.c **** }
  87              		.loc 1 116 0
  88 001c 0837     		adds	r7, r7, #8
  89 001e BD46     		mov	sp, r7
  90              		@ sp needed
  91 0020 80BD     		pop	{r7, pc}
  92              		.cfi_endproc
  93              	.LFE1:
  94              		.size	isr_byte_ultrasonic_rx_StartEx, .-isr_byte_ultrasonic_rx_StartEx
  95 0022 00BF     		.section	.text.isr_byte_ultrasonic_rx_Stop,"ax",%progbits
  96              		.align	2
  97              		.global	isr_byte_ultrasonic_rx_Stop
  98              		.thumb
  99              		.thumb_func
 100              		.type	isr_byte_ultrasonic_rx_Stop, %function
 101              	isr_byte_ultrasonic_rx_Stop:
 102              	.LFB2:
 117:.\Generated_Source\PSoC5/isr_byte_ultrasonic_rx.c **** 
 118:.\Generated_Source\PSoC5/isr_byte_ultrasonic_rx.c **** 
 119:.\Generated_Source\PSoC5/isr_byte_ultrasonic_rx.c **** /*******************************************************************************
 120:.\Generated_Source\PSoC5/isr_byte_ultrasonic_rx.c **** * Function Name: isr_byte_ultrasonic_rx_Stop
 121:.\Generated_Source\PSoC5/isr_byte_ultrasonic_rx.c **** ********************************************************************************
 122:.\Generated_Source\PSoC5/isr_byte_ultrasonic_rx.c **** *
 123:.\Generated_Source\PSoC5/isr_byte_ultrasonic_rx.c **** * Summary:
 124:.\Generated_Source\PSoC5/isr_byte_ultrasonic_rx.c **** *   Disables and removes the interrupt.
 125:.\Generated_Source\PSoC5/isr_byte_ultrasonic_rx.c **** *
 126:.\Generated_Source\PSoC5/isr_byte_ultrasonic_rx.c **** * Parameters:  
ARM GAS  C:\Users\Matthew\AppData\Local\Temp\ccEzCCR1.s 			page 5


 127:.\Generated_Source\PSoC5/isr_byte_ultrasonic_rx.c **** *   None
 128:.\Generated_Source\PSoC5/isr_byte_ultrasonic_rx.c **** *
 129:.\Generated_Source\PSoC5/isr_byte_ultrasonic_rx.c **** * Return:
 130:.\Generated_Source\PSoC5/isr_byte_ultrasonic_rx.c **** *   None
 131:.\Generated_Source\PSoC5/isr_byte_ultrasonic_rx.c **** *
 132:.\Generated_Source\PSoC5/isr_byte_ultrasonic_rx.c **** *******************************************************************************/
 133:.\Generated_Source\PSoC5/isr_byte_ultrasonic_rx.c **** void isr_byte_ultrasonic_rx_Stop(void)
 134:.\Generated_Source\PSoC5/isr_byte_ultrasonic_rx.c **** {
 103              		.loc 1 134 0
 104              		.cfi_startproc
 105              		@ args = 0, pretend = 0, frame = 0
 106              		@ frame_needed = 1, uses_anonymous_args = 0
 107 0000 80B5     		push	{r7, lr}
 108              		.cfi_def_cfa_offset 8
 109              		.cfi_offset 7, -8
 110              		.cfi_offset 14, -4
 111 0002 00AF     		add	r7, sp, #0
 112              		.cfi_def_cfa_register 7
 135:.\Generated_Source\PSoC5/isr_byte_ultrasonic_rx.c ****     /* Disable this interrupt. */
 136:.\Generated_Source\PSoC5/isr_byte_ultrasonic_rx.c ****     isr_byte_ultrasonic_rx_Disable();
 113              		.loc 1 136 0
 114 0004 FFF7FEFF 		bl	isr_byte_ultrasonic_rx_Disable
 137:.\Generated_Source\PSoC5/isr_byte_ultrasonic_rx.c **** 
 138:.\Generated_Source\PSoC5/isr_byte_ultrasonic_rx.c ****     /* Set the ISR to point to the passive one. */
 139:.\Generated_Source\PSoC5/isr_byte_ultrasonic_rx.c ****     isr_byte_ultrasonic_rx_SetVector(&IntDefaultHandler);
 115              		.loc 1 139 0
 116 0008 0148     		ldr	r0, .L6
 117 000a FFF7FEFF 		bl	isr_byte_ultrasonic_rx_SetVector
 140:.\Generated_Source\PSoC5/isr_byte_ultrasonic_rx.c **** }
 118              		.loc 1 140 0
 119 000e 80BD     		pop	{r7, pc}
 120              	.L7:
 121              		.align	2
 122              	.L6:
 123 0010 00000000 		.word	IntDefaultHandler
 124              		.cfi_endproc
 125              	.LFE2:
 126              		.size	isr_byte_ultrasonic_rx_Stop, .-isr_byte_ultrasonic_rx_Stop
 127              		.section	.text.isr_byte_ultrasonic_rx_Interrupt,"ax",%progbits
 128              		.align	2
 129              		.global	isr_byte_ultrasonic_rx_Interrupt
 130              		.thumb
 131              		.thumb_func
 132              		.type	isr_byte_ultrasonic_rx_Interrupt, %function
 133              	isr_byte_ultrasonic_rx_Interrupt:
 134              	.LFB3:
 141:.\Generated_Source\PSoC5/isr_byte_ultrasonic_rx.c **** 
 142:.\Generated_Source\PSoC5/isr_byte_ultrasonic_rx.c **** 
 143:.\Generated_Source\PSoC5/isr_byte_ultrasonic_rx.c **** /*******************************************************************************
 144:.\Generated_Source\PSoC5/isr_byte_ultrasonic_rx.c **** * Function Name: isr_byte_ultrasonic_rx_Interrupt
 145:.\Generated_Source\PSoC5/isr_byte_ultrasonic_rx.c **** ********************************************************************************
 146:.\Generated_Source\PSoC5/isr_byte_ultrasonic_rx.c **** *
 147:.\Generated_Source\PSoC5/isr_byte_ultrasonic_rx.c **** * Summary:
 148:.\Generated_Source\PSoC5/isr_byte_ultrasonic_rx.c **** *   The default Interrupt Service Routine for isr_byte_ultrasonic_rx.
 149:.\Generated_Source\PSoC5/isr_byte_ultrasonic_rx.c **** *
 150:.\Generated_Source\PSoC5/isr_byte_ultrasonic_rx.c **** *   Add custom code between the coments to keep the next version of this file
 151:.\Generated_Source\PSoC5/isr_byte_ultrasonic_rx.c **** *   from over writting your code.
ARM GAS  C:\Users\Matthew\AppData\Local\Temp\ccEzCCR1.s 			page 6


 152:.\Generated_Source\PSoC5/isr_byte_ultrasonic_rx.c **** *
 153:.\Generated_Source\PSoC5/isr_byte_ultrasonic_rx.c **** * Parameters:  
 154:.\Generated_Source\PSoC5/isr_byte_ultrasonic_rx.c **** *
 155:.\Generated_Source\PSoC5/isr_byte_ultrasonic_rx.c **** * Return:
 156:.\Generated_Source\PSoC5/isr_byte_ultrasonic_rx.c **** *   None
 157:.\Generated_Source\PSoC5/isr_byte_ultrasonic_rx.c **** *
 158:.\Generated_Source\PSoC5/isr_byte_ultrasonic_rx.c **** *******************************************************************************/
 159:.\Generated_Source\PSoC5/isr_byte_ultrasonic_rx.c **** CY_ISR(isr_byte_ultrasonic_rx_Interrupt)
 160:.\Generated_Source\PSoC5/isr_byte_ultrasonic_rx.c **** {
 135              		.loc 1 160 0
 136              		.cfi_startproc
 137              		@ args = 0, pretend = 0, frame = 0
 138              		@ frame_needed = 1, uses_anonymous_args = 0
 139              		@ link register save eliminated.
 140 0000 80B4     		push	{r7}
 141              		.cfi_def_cfa_offset 4
 142              		.cfi_offset 7, -4
 143 0002 00AF     		add	r7, sp, #0
 144              		.cfi_def_cfa_register 7
 161:.\Generated_Source\PSoC5/isr_byte_ultrasonic_rx.c ****     /*  Place your Interrupt code here. */
 162:.\Generated_Source\PSoC5/isr_byte_ultrasonic_rx.c ****     /* `#START isr_byte_ultrasonic_rx_Interrupt` */
 163:.\Generated_Source\PSoC5/isr_byte_ultrasonic_rx.c **** 
 164:.\Generated_Source\PSoC5/isr_byte_ultrasonic_rx.c ****     /* `#END` */
 165:.\Generated_Source\PSoC5/isr_byte_ultrasonic_rx.c **** }
 145              		.loc 1 165 0
 146 0004 BD46     		mov	sp, r7
 147              		@ sp needed
 148 0006 5DF8047B 		ldr	r7, [sp], #4
 149 000a 7047     		bx	lr
 150              		.cfi_endproc
 151              	.LFE3:
 152              		.size	isr_byte_ultrasonic_rx_Interrupt, .-isr_byte_ultrasonic_rx_Interrupt
 153              		.section	.text.isr_byte_ultrasonic_rx_SetVector,"ax",%progbits
 154              		.align	2
 155              		.global	isr_byte_ultrasonic_rx_SetVector
 156              		.thumb
 157              		.thumb_func
 158              		.type	isr_byte_ultrasonic_rx_SetVector, %function
 159              	isr_byte_ultrasonic_rx_SetVector:
 160              	.LFB4:
 166:.\Generated_Source\PSoC5/isr_byte_ultrasonic_rx.c **** 
 167:.\Generated_Source\PSoC5/isr_byte_ultrasonic_rx.c **** 
 168:.\Generated_Source\PSoC5/isr_byte_ultrasonic_rx.c **** /*******************************************************************************
 169:.\Generated_Source\PSoC5/isr_byte_ultrasonic_rx.c **** * Function Name: isr_byte_ultrasonic_rx_SetVector
 170:.\Generated_Source\PSoC5/isr_byte_ultrasonic_rx.c **** ********************************************************************************
 171:.\Generated_Source\PSoC5/isr_byte_ultrasonic_rx.c **** *
 172:.\Generated_Source\PSoC5/isr_byte_ultrasonic_rx.c **** * Summary:
 173:.\Generated_Source\PSoC5/isr_byte_ultrasonic_rx.c **** *   Change the ISR vector for the Interrupt. Note calling isr_byte_ultrasonic_rx_Start
 174:.\Generated_Source\PSoC5/isr_byte_ultrasonic_rx.c **** *   will override any effect this method would have had. To set the vector 
 175:.\Generated_Source\PSoC5/isr_byte_ultrasonic_rx.c **** *   before the component has been started use isr_byte_ultrasonic_rx_StartEx instead.
 176:.\Generated_Source\PSoC5/isr_byte_ultrasonic_rx.c **** * 
 177:.\Generated_Source\PSoC5/isr_byte_ultrasonic_rx.c **** *   When defining ISR functions, the CY_ISR and CY_ISR_PROTO macros should be 
 178:.\Generated_Source\PSoC5/isr_byte_ultrasonic_rx.c **** *   used to provide consistent definition across compilers:
 179:.\Generated_Source\PSoC5/isr_byte_ultrasonic_rx.c **** *
 180:.\Generated_Source\PSoC5/isr_byte_ultrasonic_rx.c **** *   Function definition example:
 181:.\Generated_Source\PSoC5/isr_byte_ultrasonic_rx.c **** *   CY_ISR(MyISR)
 182:.\Generated_Source\PSoC5/isr_byte_ultrasonic_rx.c **** *   {
ARM GAS  C:\Users\Matthew\AppData\Local\Temp\ccEzCCR1.s 			page 7


 183:.\Generated_Source\PSoC5/isr_byte_ultrasonic_rx.c **** *   }
 184:.\Generated_Source\PSoC5/isr_byte_ultrasonic_rx.c **** *
 185:.\Generated_Source\PSoC5/isr_byte_ultrasonic_rx.c **** *   Function prototype example:
 186:.\Generated_Source\PSoC5/isr_byte_ultrasonic_rx.c **** *     CY_ISR_PROTO(MyISR);
 187:.\Generated_Source\PSoC5/isr_byte_ultrasonic_rx.c **** *
 188:.\Generated_Source\PSoC5/isr_byte_ultrasonic_rx.c **** * Parameters:
 189:.\Generated_Source\PSoC5/isr_byte_ultrasonic_rx.c **** *   address: Address of the ISR to set in the interrupt vector table.
 190:.\Generated_Source\PSoC5/isr_byte_ultrasonic_rx.c **** *
 191:.\Generated_Source\PSoC5/isr_byte_ultrasonic_rx.c **** * Return:
 192:.\Generated_Source\PSoC5/isr_byte_ultrasonic_rx.c **** *   None
 193:.\Generated_Source\PSoC5/isr_byte_ultrasonic_rx.c **** *
 194:.\Generated_Source\PSoC5/isr_byte_ultrasonic_rx.c **** *******************************************************************************/
 195:.\Generated_Source\PSoC5/isr_byte_ultrasonic_rx.c **** void isr_byte_ultrasonic_rx_SetVector(cyisraddress address)
 196:.\Generated_Source\PSoC5/isr_byte_ultrasonic_rx.c **** {
 161              		.loc 1 196 0
 162              		.cfi_startproc
 163              		@ args = 0, pretend = 0, frame = 16
 164              		@ frame_needed = 1, uses_anonymous_args = 0
 165              		@ link register save eliminated.
 166 0000 80B4     		push	{r7}
 167              		.cfi_def_cfa_offset 4
 168              		.cfi_offset 7, -4
 169 0002 85B0     		sub	sp, sp, #20
 170              		.cfi_def_cfa_offset 24
 171 0004 00AF     		add	r7, sp, #0
 172              		.cfi_def_cfa_register 7
 173 0006 7860     		str	r0, [r7, #4]
 197:.\Generated_Source\PSoC5/isr_byte_ultrasonic_rx.c ****     cyisraddress * ramVectorTable;
 198:.\Generated_Source\PSoC5/isr_byte_ultrasonic_rx.c **** 
 199:.\Generated_Source\PSoC5/isr_byte_ultrasonic_rx.c ****     ramVectorTable = (cyisraddress *) *CYINT_VECT_TABLE;
 174              		.loc 1 199 0
 175 0008 054B     		ldr	r3, .L10
 176 000a 1B68     		ldr	r3, [r3]
 177 000c FB60     		str	r3, [r7, #12]
 200:.\Generated_Source\PSoC5/isr_byte_ultrasonic_rx.c **** 
 201:.\Generated_Source\PSoC5/isr_byte_ultrasonic_rx.c ****     ramVectorTable[CYINT_IRQ_BASE + (uint32)isr_byte_ultrasonic_rx__INTC_NUMBER] = address;
 178              		.loc 1 201 0
 179 000e FB68     		ldr	r3, [r7, #12]
 180 0010 4433     		adds	r3, r3, #68
 181 0012 7A68     		ldr	r2, [r7, #4]
 182 0014 1A60     		str	r2, [r3]
 202:.\Generated_Source\PSoC5/isr_byte_ultrasonic_rx.c **** }
 183              		.loc 1 202 0
 184 0016 1437     		adds	r7, r7, #20
 185 0018 BD46     		mov	sp, r7
 186              		@ sp needed
 187 001a 5DF8047B 		ldr	r7, [sp], #4
 188 001e 7047     		bx	lr
 189              	.L11:
 190              		.align	2
 191              	.L10:
 192 0020 08ED00E0 		.word	-536810232
 193              		.cfi_endproc
 194              	.LFE4:
 195              		.size	isr_byte_ultrasonic_rx_SetVector, .-isr_byte_ultrasonic_rx_SetVector
 196              		.section	.text.isr_byte_ultrasonic_rx_GetVector,"ax",%progbits
 197              		.align	2
ARM GAS  C:\Users\Matthew\AppData\Local\Temp\ccEzCCR1.s 			page 8


 198              		.global	isr_byte_ultrasonic_rx_GetVector
 199              		.thumb
 200              		.thumb_func
 201              		.type	isr_byte_ultrasonic_rx_GetVector, %function
 202              	isr_byte_ultrasonic_rx_GetVector:
 203              	.LFB5:
 203:.\Generated_Source\PSoC5/isr_byte_ultrasonic_rx.c **** 
 204:.\Generated_Source\PSoC5/isr_byte_ultrasonic_rx.c **** 
 205:.\Generated_Source\PSoC5/isr_byte_ultrasonic_rx.c **** /*******************************************************************************
 206:.\Generated_Source\PSoC5/isr_byte_ultrasonic_rx.c **** * Function Name: isr_byte_ultrasonic_rx_GetVector
 207:.\Generated_Source\PSoC5/isr_byte_ultrasonic_rx.c **** ********************************************************************************
 208:.\Generated_Source\PSoC5/isr_byte_ultrasonic_rx.c **** *
 209:.\Generated_Source\PSoC5/isr_byte_ultrasonic_rx.c **** * Summary:
 210:.\Generated_Source\PSoC5/isr_byte_ultrasonic_rx.c **** *   Gets the "address" of the current ISR vector for the Interrupt.
 211:.\Generated_Source\PSoC5/isr_byte_ultrasonic_rx.c **** *
 212:.\Generated_Source\PSoC5/isr_byte_ultrasonic_rx.c **** * Parameters:
 213:.\Generated_Source\PSoC5/isr_byte_ultrasonic_rx.c **** *   None
 214:.\Generated_Source\PSoC5/isr_byte_ultrasonic_rx.c **** *
 215:.\Generated_Source\PSoC5/isr_byte_ultrasonic_rx.c **** * Return:
 216:.\Generated_Source\PSoC5/isr_byte_ultrasonic_rx.c **** *   Address of the ISR in the interrupt vector table.
 217:.\Generated_Source\PSoC5/isr_byte_ultrasonic_rx.c **** *
 218:.\Generated_Source\PSoC5/isr_byte_ultrasonic_rx.c **** *******************************************************************************/
 219:.\Generated_Source\PSoC5/isr_byte_ultrasonic_rx.c **** cyisraddress isr_byte_ultrasonic_rx_GetVector(void)
 220:.\Generated_Source\PSoC5/isr_byte_ultrasonic_rx.c **** {
 204              		.loc 1 220 0
 205              		.cfi_startproc
 206              		@ args = 0, pretend = 0, frame = 8
 207              		@ frame_needed = 1, uses_anonymous_args = 0
 208              		@ link register save eliminated.
 209 0000 80B4     		push	{r7}
 210              		.cfi_def_cfa_offset 4
 211              		.cfi_offset 7, -4
 212 0002 83B0     		sub	sp, sp, #12
 213              		.cfi_def_cfa_offset 16
 214 0004 00AF     		add	r7, sp, #0
 215              		.cfi_def_cfa_register 7
 221:.\Generated_Source\PSoC5/isr_byte_ultrasonic_rx.c ****     cyisraddress * ramVectorTable;
 222:.\Generated_Source\PSoC5/isr_byte_ultrasonic_rx.c **** 
 223:.\Generated_Source\PSoC5/isr_byte_ultrasonic_rx.c ****     ramVectorTable = (cyisraddress *) *CYINT_VECT_TABLE;
 216              		.loc 1 223 0
 217 0006 054B     		ldr	r3, .L14
 218 0008 1B68     		ldr	r3, [r3]
 219 000a 7B60     		str	r3, [r7, #4]
 224:.\Generated_Source\PSoC5/isr_byte_ultrasonic_rx.c **** 
 225:.\Generated_Source\PSoC5/isr_byte_ultrasonic_rx.c ****     return ramVectorTable[CYINT_IRQ_BASE + (uint32)isr_byte_ultrasonic_rx__INTC_NUMBER];
 220              		.loc 1 225 0
 221 000c 7B68     		ldr	r3, [r7, #4]
 222 000e 5B6C     		ldr	r3, [r3, #68]
 226:.\Generated_Source\PSoC5/isr_byte_ultrasonic_rx.c **** }
 223              		.loc 1 226 0
 224 0010 1846     		mov	r0, r3
 225 0012 0C37     		adds	r7, r7, #12
 226 0014 BD46     		mov	sp, r7
 227              		@ sp needed
 228 0016 5DF8047B 		ldr	r7, [sp], #4
 229 001a 7047     		bx	lr
 230              	.L15:
ARM GAS  C:\Users\Matthew\AppData\Local\Temp\ccEzCCR1.s 			page 9


 231              		.align	2
 232              	.L14:
 233 001c 08ED00E0 		.word	-536810232
 234              		.cfi_endproc
 235              	.LFE5:
 236              		.size	isr_byte_ultrasonic_rx_GetVector, .-isr_byte_ultrasonic_rx_GetVector
 237              		.section	.text.isr_byte_ultrasonic_rx_SetPriority,"ax",%progbits
 238              		.align	2
 239              		.global	isr_byte_ultrasonic_rx_SetPriority
 240              		.thumb
 241              		.thumb_func
 242              		.type	isr_byte_ultrasonic_rx_SetPriority, %function
 243              	isr_byte_ultrasonic_rx_SetPriority:
 244              	.LFB6:
 227:.\Generated_Source\PSoC5/isr_byte_ultrasonic_rx.c **** 
 228:.\Generated_Source\PSoC5/isr_byte_ultrasonic_rx.c **** 
 229:.\Generated_Source\PSoC5/isr_byte_ultrasonic_rx.c **** /*******************************************************************************
 230:.\Generated_Source\PSoC5/isr_byte_ultrasonic_rx.c **** * Function Name: isr_byte_ultrasonic_rx_SetPriority
 231:.\Generated_Source\PSoC5/isr_byte_ultrasonic_rx.c **** ********************************************************************************
 232:.\Generated_Source\PSoC5/isr_byte_ultrasonic_rx.c **** *
 233:.\Generated_Source\PSoC5/isr_byte_ultrasonic_rx.c **** * Summary:
 234:.\Generated_Source\PSoC5/isr_byte_ultrasonic_rx.c **** *   Sets the Priority of the Interrupt. 
 235:.\Generated_Source\PSoC5/isr_byte_ultrasonic_rx.c **** *
 236:.\Generated_Source\PSoC5/isr_byte_ultrasonic_rx.c **** *   Note calling isr_byte_ultrasonic_rx_Start or isr_byte_ultrasonic_rx_StartEx will 
 237:.\Generated_Source\PSoC5/isr_byte_ultrasonic_rx.c **** *   override any effect this API would have had. This API should only be called
 238:.\Generated_Source\PSoC5/isr_byte_ultrasonic_rx.c **** *   after isr_byte_ultrasonic_rx_Start or isr_byte_ultrasonic_rx_StartEx has been called. 
 239:.\Generated_Source\PSoC5/isr_byte_ultrasonic_rx.c **** *   To set the initial priority for the component, use the Design-Wide Resources
 240:.\Generated_Source\PSoC5/isr_byte_ultrasonic_rx.c **** *   Interrupt Editor.
 241:.\Generated_Source\PSoC5/isr_byte_ultrasonic_rx.c **** *
 242:.\Generated_Source\PSoC5/isr_byte_ultrasonic_rx.c **** *   Note This API has no effect on Non-maskable interrupt NMI).
 243:.\Generated_Source\PSoC5/isr_byte_ultrasonic_rx.c **** *
 244:.\Generated_Source\PSoC5/isr_byte_ultrasonic_rx.c **** * Parameters:
 245:.\Generated_Source\PSoC5/isr_byte_ultrasonic_rx.c **** *   priority: Priority of the interrupt, 0 being the highest priority
 246:.\Generated_Source\PSoC5/isr_byte_ultrasonic_rx.c **** *             PSoC 3 and PSoC 5LP: Priority is from 0 to 7.
 247:.\Generated_Source\PSoC5/isr_byte_ultrasonic_rx.c **** *             PSoC 4: Priority is from 0 to 3.
 248:.\Generated_Source\PSoC5/isr_byte_ultrasonic_rx.c **** *
 249:.\Generated_Source\PSoC5/isr_byte_ultrasonic_rx.c **** * Return:
 250:.\Generated_Source\PSoC5/isr_byte_ultrasonic_rx.c **** *   None
 251:.\Generated_Source\PSoC5/isr_byte_ultrasonic_rx.c **** *
 252:.\Generated_Source\PSoC5/isr_byte_ultrasonic_rx.c **** *******************************************************************************/
 253:.\Generated_Source\PSoC5/isr_byte_ultrasonic_rx.c **** void isr_byte_ultrasonic_rx_SetPriority(uint8 priority)
 254:.\Generated_Source\PSoC5/isr_byte_ultrasonic_rx.c **** {
 245              		.loc 1 254 0
 246              		.cfi_startproc
 247              		@ args = 0, pretend = 0, frame = 8
 248              		@ frame_needed = 1, uses_anonymous_args = 0
 249              		@ link register save eliminated.
 250 0000 80B4     		push	{r7}
 251              		.cfi_def_cfa_offset 4
 252              		.cfi_offset 7, -4
 253 0002 83B0     		sub	sp, sp, #12
 254              		.cfi_def_cfa_offset 16
 255 0004 00AF     		add	r7, sp, #0
 256              		.cfi_def_cfa_register 7
 257 0006 0346     		mov	r3, r0
 258 0008 FB71     		strb	r3, [r7, #7]
 255:.\Generated_Source\PSoC5/isr_byte_ultrasonic_rx.c ****     *isr_byte_ultrasonic_rx_INTC_PRIOR = priority << 5;
ARM GAS  C:\Users\Matthew\AppData\Local\Temp\ccEzCCR1.s 			page 10


 259              		.loc 1 255 0
 260 000a 054B     		ldr	r3, .L17
 261 000c FA79     		ldrb	r2, [r7, #7]
 262 000e 5201     		lsls	r2, r2, #5
 263 0010 D2B2     		uxtb	r2, r2
 264 0012 1A70     		strb	r2, [r3]
 256:.\Generated_Source\PSoC5/isr_byte_ultrasonic_rx.c **** }
 265              		.loc 1 256 0
 266 0014 0C37     		adds	r7, r7, #12
 267 0016 BD46     		mov	sp, r7
 268              		@ sp needed
 269 0018 5DF8047B 		ldr	r7, [sp], #4
 270 001c 7047     		bx	lr
 271              	.L18:
 272 001e 00BF     		.align	2
 273              	.L17:
 274 0020 01E400E0 		.word	-536812543
 275              		.cfi_endproc
 276              	.LFE6:
 277              		.size	isr_byte_ultrasonic_rx_SetPriority, .-isr_byte_ultrasonic_rx_SetPriority
 278              		.section	.text.isr_byte_ultrasonic_rx_GetPriority,"ax",%progbits
 279              		.align	2
 280              		.global	isr_byte_ultrasonic_rx_GetPriority
 281              		.thumb
 282              		.thumb_func
 283              		.type	isr_byte_ultrasonic_rx_GetPriority, %function
 284              	isr_byte_ultrasonic_rx_GetPriority:
 285              	.LFB7:
 257:.\Generated_Source\PSoC5/isr_byte_ultrasonic_rx.c **** 
 258:.\Generated_Source\PSoC5/isr_byte_ultrasonic_rx.c **** 
 259:.\Generated_Source\PSoC5/isr_byte_ultrasonic_rx.c **** /*******************************************************************************
 260:.\Generated_Source\PSoC5/isr_byte_ultrasonic_rx.c **** * Function Name: isr_byte_ultrasonic_rx_GetPriority
 261:.\Generated_Source\PSoC5/isr_byte_ultrasonic_rx.c **** ********************************************************************************
 262:.\Generated_Source\PSoC5/isr_byte_ultrasonic_rx.c **** *
 263:.\Generated_Source\PSoC5/isr_byte_ultrasonic_rx.c **** * Summary:
 264:.\Generated_Source\PSoC5/isr_byte_ultrasonic_rx.c **** *   Gets the Priority of the Interrupt.
 265:.\Generated_Source\PSoC5/isr_byte_ultrasonic_rx.c **** *
 266:.\Generated_Source\PSoC5/isr_byte_ultrasonic_rx.c **** * Parameters:
 267:.\Generated_Source\PSoC5/isr_byte_ultrasonic_rx.c **** *   None
 268:.\Generated_Source\PSoC5/isr_byte_ultrasonic_rx.c **** *
 269:.\Generated_Source\PSoC5/isr_byte_ultrasonic_rx.c **** * Return:
 270:.\Generated_Source\PSoC5/isr_byte_ultrasonic_rx.c **** *   Priority of the interrupt, 0 being the highest priority
 271:.\Generated_Source\PSoC5/isr_byte_ultrasonic_rx.c **** *    PSoC 3 and PSoC 5LP: Priority is from 0 to 7.
 272:.\Generated_Source\PSoC5/isr_byte_ultrasonic_rx.c **** *    PSoC 4: Priority is from 0 to 3.
 273:.\Generated_Source\PSoC5/isr_byte_ultrasonic_rx.c **** *
 274:.\Generated_Source\PSoC5/isr_byte_ultrasonic_rx.c **** *******************************************************************************/
 275:.\Generated_Source\PSoC5/isr_byte_ultrasonic_rx.c **** uint8 isr_byte_ultrasonic_rx_GetPriority(void)
 276:.\Generated_Source\PSoC5/isr_byte_ultrasonic_rx.c **** {
 286              		.loc 1 276 0
 287              		.cfi_startproc
 288              		@ args = 0, pretend = 0, frame = 8
 289              		@ frame_needed = 1, uses_anonymous_args = 0
 290              		@ link register save eliminated.
 291 0000 80B4     		push	{r7}
 292              		.cfi_def_cfa_offset 4
 293              		.cfi_offset 7, -4
 294 0002 83B0     		sub	sp, sp, #12
ARM GAS  C:\Users\Matthew\AppData\Local\Temp\ccEzCCR1.s 			page 11


 295              		.cfi_def_cfa_offset 16
 296 0004 00AF     		add	r7, sp, #0
 297              		.cfi_def_cfa_register 7
 277:.\Generated_Source\PSoC5/isr_byte_ultrasonic_rx.c ****     uint8 priority;
 278:.\Generated_Source\PSoC5/isr_byte_ultrasonic_rx.c **** 
 279:.\Generated_Source\PSoC5/isr_byte_ultrasonic_rx.c **** 
 280:.\Generated_Source\PSoC5/isr_byte_ultrasonic_rx.c ****     priority = *isr_byte_ultrasonic_rx_INTC_PRIOR >> 5;
 298              		.loc 1 280 0
 299 0006 064B     		ldr	r3, .L21
 300 0008 1B78     		ldrb	r3, [r3]
 301 000a DBB2     		uxtb	r3, r3
 302 000c 5B09     		lsrs	r3, r3, #5
 303 000e FB71     		strb	r3, [r7, #7]
 281:.\Generated_Source\PSoC5/isr_byte_ultrasonic_rx.c **** 
 282:.\Generated_Source\PSoC5/isr_byte_ultrasonic_rx.c ****     return priority;
 304              		.loc 1 282 0
 305 0010 FB79     		ldrb	r3, [r7, #7]	@ zero_extendqisi2
 283:.\Generated_Source\PSoC5/isr_byte_ultrasonic_rx.c **** }
 306              		.loc 1 283 0
 307 0012 1846     		mov	r0, r3
 308 0014 0C37     		adds	r7, r7, #12
 309 0016 BD46     		mov	sp, r7
 310              		@ sp needed
 311 0018 5DF8047B 		ldr	r7, [sp], #4
 312 001c 7047     		bx	lr
 313              	.L22:
 314 001e 00BF     		.align	2
 315              	.L21:
 316 0020 01E400E0 		.word	-536812543
 317              		.cfi_endproc
 318              	.LFE7:
 319              		.size	isr_byte_ultrasonic_rx_GetPriority, .-isr_byte_ultrasonic_rx_GetPriority
 320              		.section	.text.isr_byte_ultrasonic_rx_Enable,"ax",%progbits
 321              		.align	2
 322              		.global	isr_byte_ultrasonic_rx_Enable
 323              		.thumb
 324              		.thumb_func
 325              		.type	isr_byte_ultrasonic_rx_Enable, %function
 326              	isr_byte_ultrasonic_rx_Enable:
 327              	.LFB8:
 284:.\Generated_Source\PSoC5/isr_byte_ultrasonic_rx.c **** 
 285:.\Generated_Source\PSoC5/isr_byte_ultrasonic_rx.c **** 
 286:.\Generated_Source\PSoC5/isr_byte_ultrasonic_rx.c **** /*******************************************************************************
 287:.\Generated_Source\PSoC5/isr_byte_ultrasonic_rx.c **** * Function Name: isr_byte_ultrasonic_rx_Enable
 288:.\Generated_Source\PSoC5/isr_byte_ultrasonic_rx.c **** ********************************************************************************
 289:.\Generated_Source\PSoC5/isr_byte_ultrasonic_rx.c **** *
 290:.\Generated_Source\PSoC5/isr_byte_ultrasonic_rx.c **** * Summary:
 291:.\Generated_Source\PSoC5/isr_byte_ultrasonic_rx.c **** *   Enables the interrupt to the interrupt controller. Do not call this function
 292:.\Generated_Source\PSoC5/isr_byte_ultrasonic_rx.c **** *   unless ISR_Start() has been called or the functionality of the ISR_Start() 
 293:.\Generated_Source\PSoC5/isr_byte_ultrasonic_rx.c **** *   function, which sets the vector and the priority, has been called.
 294:.\Generated_Source\PSoC5/isr_byte_ultrasonic_rx.c **** *
 295:.\Generated_Source\PSoC5/isr_byte_ultrasonic_rx.c **** * Parameters:
 296:.\Generated_Source\PSoC5/isr_byte_ultrasonic_rx.c **** *   None
 297:.\Generated_Source\PSoC5/isr_byte_ultrasonic_rx.c **** *
 298:.\Generated_Source\PSoC5/isr_byte_ultrasonic_rx.c **** * Return:
 299:.\Generated_Source\PSoC5/isr_byte_ultrasonic_rx.c **** *   None
 300:.\Generated_Source\PSoC5/isr_byte_ultrasonic_rx.c **** *
ARM GAS  C:\Users\Matthew\AppData\Local\Temp\ccEzCCR1.s 			page 12


 301:.\Generated_Source\PSoC5/isr_byte_ultrasonic_rx.c **** *******************************************************************************/
 302:.\Generated_Source\PSoC5/isr_byte_ultrasonic_rx.c **** void isr_byte_ultrasonic_rx_Enable(void)
 303:.\Generated_Source\PSoC5/isr_byte_ultrasonic_rx.c **** {
 328              		.loc 1 303 0
 329              		.cfi_startproc
 330              		@ args = 0, pretend = 0, frame = 0
 331              		@ frame_needed = 1, uses_anonymous_args = 0
 332              		@ link register save eliminated.
 333 0000 80B4     		push	{r7}
 334              		.cfi_def_cfa_offset 4
 335              		.cfi_offset 7, -4
 336 0002 00AF     		add	r7, sp, #0
 337              		.cfi_def_cfa_register 7
 304:.\Generated_Source\PSoC5/isr_byte_ultrasonic_rx.c ****     /* Enable the general interrupt. */
 305:.\Generated_Source\PSoC5/isr_byte_ultrasonic_rx.c ****     *isr_byte_ultrasonic_rx_INTC_SET_EN = isr_byte_ultrasonic_rx__INTC_MASK;
 338              		.loc 1 305 0
 339 0004 034B     		ldr	r3, .L24
 340 0006 0222     		movs	r2, #2
 341 0008 1A60     		str	r2, [r3]
 306:.\Generated_Source\PSoC5/isr_byte_ultrasonic_rx.c **** }
 342              		.loc 1 306 0
 343 000a BD46     		mov	sp, r7
 344              		@ sp needed
 345 000c 5DF8047B 		ldr	r7, [sp], #4
 346 0010 7047     		bx	lr
 347              	.L25:
 348 0012 00BF     		.align	2
 349              	.L24:
 350 0014 00E100E0 		.word	-536813312
 351              		.cfi_endproc
 352              	.LFE8:
 353              		.size	isr_byte_ultrasonic_rx_Enable, .-isr_byte_ultrasonic_rx_Enable
 354              		.section	.text.isr_byte_ultrasonic_rx_GetState,"ax",%progbits
 355              		.align	2
 356              		.global	isr_byte_ultrasonic_rx_GetState
 357              		.thumb
 358              		.thumb_func
 359              		.type	isr_byte_ultrasonic_rx_GetState, %function
 360              	isr_byte_ultrasonic_rx_GetState:
 361              	.LFB9:
 307:.\Generated_Source\PSoC5/isr_byte_ultrasonic_rx.c **** 
 308:.\Generated_Source\PSoC5/isr_byte_ultrasonic_rx.c **** 
 309:.\Generated_Source\PSoC5/isr_byte_ultrasonic_rx.c **** /*******************************************************************************
 310:.\Generated_Source\PSoC5/isr_byte_ultrasonic_rx.c **** * Function Name: isr_byte_ultrasonic_rx_GetState
 311:.\Generated_Source\PSoC5/isr_byte_ultrasonic_rx.c **** ********************************************************************************
 312:.\Generated_Source\PSoC5/isr_byte_ultrasonic_rx.c **** *
 313:.\Generated_Source\PSoC5/isr_byte_ultrasonic_rx.c **** * Summary:
 314:.\Generated_Source\PSoC5/isr_byte_ultrasonic_rx.c **** *   Gets the state (enabled, disabled) of the Interrupt.
 315:.\Generated_Source\PSoC5/isr_byte_ultrasonic_rx.c **** *
 316:.\Generated_Source\PSoC5/isr_byte_ultrasonic_rx.c **** * Parameters:
 317:.\Generated_Source\PSoC5/isr_byte_ultrasonic_rx.c **** *   None
 318:.\Generated_Source\PSoC5/isr_byte_ultrasonic_rx.c **** *
 319:.\Generated_Source\PSoC5/isr_byte_ultrasonic_rx.c **** * Return:
 320:.\Generated_Source\PSoC5/isr_byte_ultrasonic_rx.c **** *   1 if enabled, 0 if disabled.
 321:.\Generated_Source\PSoC5/isr_byte_ultrasonic_rx.c **** *
 322:.\Generated_Source\PSoC5/isr_byte_ultrasonic_rx.c **** *******************************************************************************/
 323:.\Generated_Source\PSoC5/isr_byte_ultrasonic_rx.c **** uint8 isr_byte_ultrasonic_rx_GetState(void)
ARM GAS  C:\Users\Matthew\AppData\Local\Temp\ccEzCCR1.s 			page 13


 324:.\Generated_Source\PSoC5/isr_byte_ultrasonic_rx.c **** {
 362              		.loc 1 324 0
 363              		.cfi_startproc
 364              		@ args = 0, pretend = 0, frame = 0
 365              		@ frame_needed = 1, uses_anonymous_args = 0
 366              		@ link register save eliminated.
 367 0000 80B4     		push	{r7}
 368              		.cfi_def_cfa_offset 4
 369              		.cfi_offset 7, -4
 370 0002 00AF     		add	r7, sp, #0
 371              		.cfi_def_cfa_register 7
 325:.\Generated_Source\PSoC5/isr_byte_ultrasonic_rx.c ****     /* Get the state of the general interrupt. */
 326:.\Generated_Source\PSoC5/isr_byte_ultrasonic_rx.c ****     return ((*isr_byte_ultrasonic_rx_INTC_SET_EN & (uint32)isr_byte_ultrasonic_rx__INTC_MASK) != 0u
 372              		.loc 1 326 0
 373 0004 064B     		ldr	r3, .L30
 374 0006 1B68     		ldr	r3, [r3]
 375 0008 03F00203 		and	r3, r3, #2
 376 000c 002B     		cmp	r3, #0
 377 000e 01D0     		beq	.L27
 378              		.loc 1 326 0 is_stmt 0 discriminator 1
 379 0010 0123     		movs	r3, #1
 380 0012 00E0     		b	.L28
 381              	.L27:
 382              		.loc 1 326 0 discriminator 2
 383 0014 0023     		movs	r3, #0
 384              	.L28:
 327:.\Generated_Source\PSoC5/isr_byte_ultrasonic_rx.c **** }
 385              		.loc 1 327 0 is_stmt 1 discriminator 3
 386 0016 1846     		mov	r0, r3
 387 0018 BD46     		mov	sp, r7
 388              		@ sp needed
 389 001a 5DF8047B 		ldr	r7, [sp], #4
 390 001e 7047     		bx	lr
 391              	.L31:
 392              		.align	2
 393              	.L30:
 394 0020 00E100E0 		.word	-536813312
 395              		.cfi_endproc
 396              	.LFE9:
 397              		.size	isr_byte_ultrasonic_rx_GetState, .-isr_byte_ultrasonic_rx_GetState
 398              		.section	.text.isr_byte_ultrasonic_rx_Disable,"ax",%progbits
 399              		.align	2
 400              		.global	isr_byte_ultrasonic_rx_Disable
 401              		.thumb
 402              		.thumb_func
 403              		.type	isr_byte_ultrasonic_rx_Disable, %function
 404              	isr_byte_ultrasonic_rx_Disable:
 405              	.LFB10:
 328:.\Generated_Source\PSoC5/isr_byte_ultrasonic_rx.c **** 
 329:.\Generated_Source\PSoC5/isr_byte_ultrasonic_rx.c **** 
 330:.\Generated_Source\PSoC5/isr_byte_ultrasonic_rx.c **** /*******************************************************************************
 331:.\Generated_Source\PSoC5/isr_byte_ultrasonic_rx.c **** * Function Name: isr_byte_ultrasonic_rx_Disable
 332:.\Generated_Source\PSoC5/isr_byte_ultrasonic_rx.c **** ********************************************************************************
 333:.\Generated_Source\PSoC5/isr_byte_ultrasonic_rx.c **** *
 334:.\Generated_Source\PSoC5/isr_byte_ultrasonic_rx.c **** * Summary:
 335:.\Generated_Source\PSoC5/isr_byte_ultrasonic_rx.c **** *   Disables the Interrupt in the interrupt controller.
 336:.\Generated_Source\PSoC5/isr_byte_ultrasonic_rx.c **** *
ARM GAS  C:\Users\Matthew\AppData\Local\Temp\ccEzCCR1.s 			page 14


 337:.\Generated_Source\PSoC5/isr_byte_ultrasonic_rx.c **** * Parameters:
 338:.\Generated_Source\PSoC5/isr_byte_ultrasonic_rx.c **** *   None
 339:.\Generated_Source\PSoC5/isr_byte_ultrasonic_rx.c **** *
 340:.\Generated_Source\PSoC5/isr_byte_ultrasonic_rx.c **** * Return:
 341:.\Generated_Source\PSoC5/isr_byte_ultrasonic_rx.c **** *   None
 342:.\Generated_Source\PSoC5/isr_byte_ultrasonic_rx.c **** *
 343:.\Generated_Source\PSoC5/isr_byte_ultrasonic_rx.c **** *******************************************************************************/
 344:.\Generated_Source\PSoC5/isr_byte_ultrasonic_rx.c **** void isr_byte_ultrasonic_rx_Disable(void)
 345:.\Generated_Source\PSoC5/isr_byte_ultrasonic_rx.c **** {
 406              		.loc 1 345 0
 407              		.cfi_startproc
 408              		@ args = 0, pretend = 0, frame = 0
 409              		@ frame_needed = 1, uses_anonymous_args = 0
 410              		@ link register save eliminated.
 411 0000 80B4     		push	{r7}
 412              		.cfi_def_cfa_offset 4
 413              		.cfi_offset 7, -4
 414 0002 00AF     		add	r7, sp, #0
 415              		.cfi_def_cfa_register 7
 346:.\Generated_Source\PSoC5/isr_byte_ultrasonic_rx.c ****     /* Disable the general interrupt. */
 347:.\Generated_Source\PSoC5/isr_byte_ultrasonic_rx.c ****     *isr_byte_ultrasonic_rx_INTC_CLR_EN = isr_byte_ultrasonic_rx__INTC_MASK;
 416              		.loc 1 347 0
 417 0004 034B     		ldr	r3, .L33
 418 0006 0222     		movs	r2, #2
 419 0008 1A60     		str	r2, [r3]
 348:.\Generated_Source\PSoC5/isr_byte_ultrasonic_rx.c **** }
 420              		.loc 1 348 0
 421 000a BD46     		mov	sp, r7
 422              		@ sp needed
 423 000c 5DF8047B 		ldr	r7, [sp], #4
 424 0010 7047     		bx	lr
 425              	.L34:
 426 0012 00BF     		.align	2
 427              	.L33:
 428 0014 80E100E0 		.word	-536813184
 429              		.cfi_endproc
 430              	.LFE10:
 431              		.size	isr_byte_ultrasonic_rx_Disable, .-isr_byte_ultrasonic_rx_Disable
 432              		.section	.text.isr_byte_ultrasonic_rx_SetPending,"ax",%progbits
 433              		.align	2
 434              		.global	isr_byte_ultrasonic_rx_SetPending
 435              		.thumb
 436              		.thumb_func
 437              		.type	isr_byte_ultrasonic_rx_SetPending, %function
 438              	isr_byte_ultrasonic_rx_SetPending:
 439              	.LFB11:
 349:.\Generated_Source\PSoC5/isr_byte_ultrasonic_rx.c **** 
 350:.\Generated_Source\PSoC5/isr_byte_ultrasonic_rx.c **** 
 351:.\Generated_Source\PSoC5/isr_byte_ultrasonic_rx.c **** /*******************************************************************************
 352:.\Generated_Source\PSoC5/isr_byte_ultrasonic_rx.c **** * Function Name: isr_byte_ultrasonic_rx_SetPending
 353:.\Generated_Source\PSoC5/isr_byte_ultrasonic_rx.c **** ********************************************************************************
 354:.\Generated_Source\PSoC5/isr_byte_ultrasonic_rx.c **** *
 355:.\Generated_Source\PSoC5/isr_byte_ultrasonic_rx.c **** * Summary:
 356:.\Generated_Source\PSoC5/isr_byte_ultrasonic_rx.c **** *   Causes the Interrupt to enter the pending state, a software method of
 357:.\Generated_Source\PSoC5/isr_byte_ultrasonic_rx.c **** *   generating the interrupt.
 358:.\Generated_Source\PSoC5/isr_byte_ultrasonic_rx.c **** *
 359:.\Generated_Source\PSoC5/isr_byte_ultrasonic_rx.c **** * Parameters:
ARM GAS  C:\Users\Matthew\AppData\Local\Temp\ccEzCCR1.s 			page 15


 360:.\Generated_Source\PSoC5/isr_byte_ultrasonic_rx.c **** *   None
 361:.\Generated_Source\PSoC5/isr_byte_ultrasonic_rx.c **** *
 362:.\Generated_Source\PSoC5/isr_byte_ultrasonic_rx.c **** * Return:
 363:.\Generated_Source\PSoC5/isr_byte_ultrasonic_rx.c **** *   None
 364:.\Generated_Source\PSoC5/isr_byte_ultrasonic_rx.c **** *
 365:.\Generated_Source\PSoC5/isr_byte_ultrasonic_rx.c **** * Side Effects:
 366:.\Generated_Source\PSoC5/isr_byte_ultrasonic_rx.c **** *   If interrupts are enabled and the interrupt is set up properly, the ISR is
 367:.\Generated_Source\PSoC5/isr_byte_ultrasonic_rx.c **** *   entered (depending on the priority of this interrupt and other pending 
 368:.\Generated_Source\PSoC5/isr_byte_ultrasonic_rx.c **** *   interrupts).
 369:.\Generated_Source\PSoC5/isr_byte_ultrasonic_rx.c **** *
 370:.\Generated_Source\PSoC5/isr_byte_ultrasonic_rx.c **** *******************************************************************************/
 371:.\Generated_Source\PSoC5/isr_byte_ultrasonic_rx.c **** void isr_byte_ultrasonic_rx_SetPending(void)
 372:.\Generated_Source\PSoC5/isr_byte_ultrasonic_rx.c **** {
 440              		.loc 1 372 0
 441              		.cfi_startproc
 442              		@ args = 0, pretend = 0, frame = 0
 443              		@ frame_needed = 1, uses_anonymous_args = 0
 444              		@ link register save eliminated.
 445 0000 80B4     		push	{r7}
 446              		.cfi_def_cfa_offset 4
 447              		.cfi_offset 7, -4
 448 0002 00AF     		add	r7, sp, #0
 449              		.cfi_def_cfa_register 7
 373:.\Generated_Source\PSoC5/isr_byte_ultrasonic_rx.c ****     *isr_byte_ultrasonic_rx_INTC_SET_PD = isr_byte_ultrasonic_rx__INTC_MASK;
 450              		.loc 1 373 0
 451 0004 034B     		ldr	r3, .L36
 452 0006 0222     		movs	r2, #2
 453 0008 1A60     		str	r2, [r3]
 374:.\Generated_Source\PSoC5/isr_byte_ultrasonic_rx.c **** }
 454              		.loc 1 374 0
 455 000a BD46     		mov	sp, r7
 456              		@ sp needed
 457 000c 5DF8047B 		ldr	r7, [sp], #4
 458 0010 7047     		bx	lr
 459              	.L37:
 460 0012 00BF     		.align	2
 461              	.L36:
 462 0014 00E200E0 		.word	-536813056
 463              		.cfi_endproc
 464              	.LFE11:
 465              		.size	isr_byte_ultrasonic_rx_SetPending, .-isr_byte_ultrasonic_rx_SetPending
 466              		.section	.text.isr_byte_ultrasonic_rx_ClearPending,"ax",%progbits
 467              		.align	2
 468              		.global	isr_byte_ultrasonic_rx_ClearPending
 469              		.thumb
 470              		.thumb_func
 471              		.type	isr_byte_ultrasonic_rx_ClearPending, %function
 472              	isr_byte_ultrasonic_rx_ClearPending:
 473              	.LFB12:
 375:.\Generated_Source\PSoC5/isr_byte_ultrasonic_rx.c **** 
 376:.\Generated_Source\PSoC5/isr_byte_ultrasonic_rx.c **** 
 377:.\Generated_Source\PSoC5/isr_byte_ultrasonic_rx.c **** /*******************************************************************************
 378:.\Generated_Source\PSoC5/isr_byte_ultrasonic_rx.c **** * Function Name: isr_byte_ultrasonic_rx_ClearPending
 379:.\Generated_Source\PSoC5/isr_byte_ultrasonic_rx.c **** ********************************************************************************
 380:.\Generated_Source\PSoC5/isr_byte_ultrasonic_rx.c **** *
 381:.\Generated_Source\PSoC5/isr_byte_ultrasonic_rx.c **** * Summary:
 382:.\Generated_Source\PSoC5/isr_byte_ultrasonic_rx.c **** *   Clears a pending interrupt in the interrupt controller.
ARM GAS  C:\Users\Matthew\AppData\Local\Temp\ccEzCCR1.s 			page 16


 383:.\Generated_Source\PSoC5/isr_byte_ultrasonic_rx.c **** *
 384:.\Generated_Source\PSoC5/isr_byte_ultrasonic_rx.c **** *   Note Some interrupt sources are clear-on-read and require the block 
 385:.\Generated_Source\PSoC5/isr_byte_ultrasonic_rx.c **** *   interrupt/status register to be read/cleared with the appropriate block API 
 386:.\Generated_Source\PSoC5/isr_byte_ultrasonic_rx.c **** *   (GPIO, UART, and so on). Otherwise the ISR will continue to remain in 
 387:.\Generated_Source\PSoC5/isr_byte_ultrasonic_rx.c **** *   pending state even though the interrupt itself is cleared using this API.
 388:.\Generated_Source\PSoC5/isr_byte_ultrasonic_rx.c **** *
 389:.\Generated_Source\PSoC5/isr_byte_ultrasonic_rx.c **** * Parameters:
 390:.\Generated_Source\PSoC5/isr_byte_ultrasonic_rx.c **** *   None
 391:.\Generated_Source\PSoC5/isr_byte_ultrasonic_rx.c **** *
 392:.\Generated_Source\PSoC5/isr_byte_ultrasonic_rx.c **** * Return:
 393:.\Generated_Source\PSoC5/isr_byte_ultrasonic_rx.c **** *   None
 394:.\Generated_Source\PSoC5/isr_byte_ultrasonic_rx.c **** *
 395:.\Generated_Source\PSoC5/isr_byte_ultrasonic_rx.c **** *******************************************************************************/
 396:.\Generated_Source\PSoC5/isr_byte_ultrasonic_rx.c **** void isr_byte_ultrasonic_rx_ClearPending(void)
 397:.\Generated_Source\PSoC5/isr_byte_ultrasonic_rx.c **** {
 474              		.loc 1 397 0
 475              		.cfi_startproc
 476              		@ args = 0, pretend = 0, frame = 0
 477              		@ frame_needed = 1, uses_anonymous_args = 0
 478              		@ link register save eliminated.
 479 0000 80B4     		push	{r7}
 480              		.cfi_def_cfa_offset 4
 481              		.cfi_offset 7, -4
 482 0002 00AF     		add	r7, sp, #0
 483              		.cfi_def_cfa_register 7
 398:.\Generated_Source\PSoC5/isr_byte_ultrasonic_rx.c ****     *isr_byte_ultrasonic_rx_INTC_CLR_PD = isr_byte_ultrasonic_rx__INTC_MASK;
 484              		.loc 1 398 0
 485 0004 034B     		ldr	r3, .L39
 486 0006 0222     		movs	r2, #2
 487 0008 1A60     		str	r2, [r3]
 399:.\Generated_Source\PSoC5/isr_byte_ultrasonic_rx.c **** }
 488              		.loc 1 399 0
 489 000a BD46     		mov	sp, r7
 490              		@ sp needed
 491 000c 5DF8047B 		ldr	r7, [sp], #4
 492 0010 7047     		bx	lr
 493              	.L40:
 494 0012 00BF     		.align	2
 495              	.L39:
 496 0014 80E200E0 		.word	-536812928
 497              		.cfi_endproc
 498              	.LFE12:
 499              		.size	isr_byte_ultrasonic_rx_ClearPending, .-isr_byte_ultrasonic_rx_ClearPending
 500              		.text
 501              	.Letext0:
 502              		.file 2 "Generated_Source\\PSoC5/cytypes.h"