ARM GAS  C:\Users\BRANKO~1\AppData\Local\Temp\cceJddxz.s 			page 1


   1              		.syntax unified
   2              		.cpu cortex-m3
   3              		.fpu softvfp
   4              		.eabi_attribute 20, 1
   5              		.eabi_attribute 21, 1
   6              		.eabi_attribute 23, 3
   7              		.eabi_attribute 24, 1
   8              		.eabi_attribute 25, 1
   9              		.eabi_attribute 26, 1
  10              		.eabi_attribute 30, 6
  11              		.eabi_attribute 34, 1
  12              		.eabi_attribute 18, 4
  13              		.thumb
  14              		.file	"main_old.c"
  15              		.text
  16              	.Ltext0:
  17              		.cfi_sections	.debug_frame
  18              		.global	API_KEY
  19              		.section	.rodata
  20              		.align	2
  21              	.LC0:
  22 0000 76717538 		.ascii	"vqu8tl0XYVRnzZPMcFezcf8jpYL5mH9ZjI9V96e8FNP7g50U\000"
  22      746C3058 
  22      5956526E 
  22      7A5A504D 
  22      6346657A 
  23              		.data
  24              		.align	2
  25              		.type	API_KEY, %object
  26              		.size	API_KEY, 4
  27              	API_KEY:
  28 0000 00000000 		.word	.LC0
  29              		.global	data_packet
  30              		.bss
  31              		.align	2
  32              		.type	data_packet, %object
  33              		.size	data_packet, 1000
  34              	data_packet:
  35 0000 00000000 		.space	1000
  35      00000000 
  35      00000000 
  35      00000000 
  35      00000000 
  36              		.global	test_csv
  37              		.align	2
  38              		.type	test_csv, %object
  39              		.size	test_csv, 100
  40              	test_csv:
  41 03e8 00000000 		.space	100
  41      00000000 
  41      00000000 
  41      00000000 
  41      00000000 
  42              		.comm	iter,4,4
  43              		.comm	sign,4,4
  44              		.comm	ready,1,1
  45              		.comm	loops,1,1
ARM GAS  C:\Users\BRANKO~1\AppData\Local\Temp\cceJddxz.s 			page 2


  46              		.comm	lock,1,1
  47              		.comm	packet_ready,1,1
  48              		.comm	packet_len,2,2
  49              		.comm	wakeup_interval_counter,4,4
  50              		.global	ultrasonic_reading
  51              		.align	2
  52              		.type	ultrasonic_reading, %object
  53              		.size	ultrasonic_reading, 12
  54              	ultrasonic_reading:
  55 044c 00000000 		.space	12
  55      00000000 
  55      00000000 
  56              		.comm	v_out,4,4
  57              		.section	.text.Wakeup_ISR,"ax",%progbits
  58              		.align	2
  59              		.global	Wakeup_ISR
  60              		.thumb
  61              		.thumb_func
  62              		.type	Wakeup_ISR, %function
  63              	Wakeup_ISR:
  64              	.LFB56:
  65              		.file 1 ".\\main_old.c"
   1:.\main_old.c  **** /* ========================================
   2:.\main_old.c  ****  *
   3:.\main_old.c  ****  * Copyright YOUR COMPANY, THE YEAR
   4:.\main_old.c  ****  * All Rights Reserved
   5:.\main_old.c  ****  * UNPUBLISHED, LICENSED SOFTWARE.
   6:.\main_old.c  ****  *
   7:.\main_old.c  ****  * CONFIDENTIAL AND PROPRIETARY INFORMATION
   8:.\main_old.c  ****  * WHICH IS THE PROPERTY OF your company.
   9:.\main_old.c  ****  *
  10:.\main_old.c  ****  * ========================================
  11:.\main_old.c  **** */
  12:.\main_old.c  **** #include <device.h>
  13:.\main_old.c  **** #include <project.h>
  14:.\main_old.c  **** #include "modem.h"
  15:.\main_old.c  **** #include "packet.h"
  16:.\main_old.c  **** #include "ultrasonic.h"
  17:.\main_old.c  **** 
  18:.\main_old.c  **** // define global variables
  19:.\main_old.c  **** #define SLEEPTIMER_INTERVAL_COUNTER (7650u) // Number of wakeups before turn LED on 7650 @ 16ms ~2 
  20:.\main_old.c  **** #define WRITE_DEBUG 1
  21:.\main_old.c  **** #define FEED_ID 1531021687
  22:.\main_old.c  **** 
  23:.\main_old.c  **** const char *API_KEY = "vqu8tl0XYVRnzZPMcFezcf8jpYL5mH9ZjI9V96e8FNP7g50U";
  24:.\main_old.c  **** char   data_packet[MAX_PACKET_LENGTH] = {0}, test_csv[100] = {0};
  25:.\main_old.c  **** int    iter, sign;
  26:.\main_old.c  **** uint8  ready, loops, lock, packet_ready;
  27:.\main_old.c  **** uint16 packet_len;
  28:.\main_old.c  **** uint32 wakeup_interval_counter;
  29:.\main_old.c  **** UltrasonicReading ultrasonic_reading    = {.valid = 0};     // Initialize UltrasonicReading.valid t
  30:.\main_old.c  **** 
  31:.\main_old.c  **** /* autosampler variables
  32:.\main_old.c  **** uint8 t_sample, trigger_sampler, bottle_count, tmp;
  33:.\main_old.c  **** */
  34:.\main_old.c  **** CY_ISR_PROTO(Wakeup_ISR);
  35:.\main_old.c  **** uint8   blink_LED(uint8 n_blinks);
ARM GAS  C:\Users\BRANKO~1\AppData\Local\Temp\cceJddxz.s 			page 3


  36:.\main_old.c  **** uint8	modem_setup();
  37:.\main_old.c  **** uint8   modem_get_time();
  38:.\main_old.c  **** uint8   modem_check_network();
  39:.\main_old.c  **** uint8   modem_get_signal_quality();
  40:.\main_old.c  **** uint8   modem_get_serial_number();
  41:.\main_old.c  **** uint8   modem_get_google();
  42:.\main_old.c  **** uint8   modem_get_profile();
  43:.\main_old.c  **** uint8   modem_set_flow_control(uint8 param);
  44:.\main_old.c  **** uint8 	modem_set_error_reports(uint8 param);
  45:.\main_old.c  **** uint8   modem_get_sw_version();
  46:.\main_old.c  **** uint8 	modem_enable_CDMA_data(uint8 param);
  47:.\main_old.c  **** uint8	modem_test_CDMA_data();
  48:.\main_old.c  **** uint8	modem_set_user(char* user);
  49:.\main_old.c  **** uint8	modem_set_password(char* pass);
  50:.\main_old.c  **** uint8 	at_write_command(char* uart_string, char* expected_response, uint32 uart_timeout);
  51:.\main_old.c  **** 
  52:.\main_old.c  **** float   v_out;
  53:.\main_old.c  **** 
  54:.\main_old.c  **** CY_ISR(Wakeup_ISR)
  55:.\main_old.c  **** {
  66              		.loc 1 55 0
  67              		.cfi_startproc
  68              		@ args = 0, pretend = 0, frame = 0
  69              		@ frame_needed = 1, uses_anonymous_args = 0
  70 0000 80B5     		push	{r7, lr}
  71              		.cfi_def_cfa_offset 8
  72              		.cfi_offset 7, -8
  73              		.cfi_offset 14, -4
  74 0002 00AF     		add	r7, sp, #0
  75              		.cfi_def_cfa_register 7
  56:.\main_old.c  ****     /***************************************************************************
  57:.\main_old.c  ****     * This function must always be called (when the Sleep Timer's interrupt
  58:.\main_old.c  ****     * is disabled or enabled) after wake up to clear the ctw_int status bit.
  59:.\main_old.c  ****     * It is required to call SleepTimer_GetStatus() within 1 ms (1 clock cycle
  60:.\main_old.c  ****     * of the ILO) after CTW event occurred.
  61:.\main_old.c  ****     ***************************************************************************/
  62:.\main_old.c  ****     SleepTimer_GetStatus();
  76              		.loc 1 62 0
  77 0004 FFF7FEFF 		bl	SleepTimer_GetStatus
  63:.\main_old.c  **** }
  78              		.loc 1 63 0
  79 0008 80BD     		pop	{r7, pc}
  80              		.cfi_endproc
  81              	.LFE56:
  82              		.size	Wakeup_ISR, .-Wakeup_ISR
  83              		.global	__aeabi_f2uiz
  84 000a 00BF     		.section	.rodata
  85 0031 000000   		.align	2
  86              	.LC1:
  87 0034 25732573 		.ascii	"%s%s, %d\015\012\000"
  87      2C202564 
  87      0D0A00
  88 003f 00       		.align	2
  89              	.LC2:
  90 0040 64657074 		.ascii	"depth_sonic\000"
  90      685F736F 
  90      6E696300 
ARM GAS  C:\Users\BRANKO~1\AppData\Local\Temp\cceJddxz.s 			page 4


  91              		.align	2
  92              	.LC3:
  93 004c 25732573 		.ascii	"%s%s, %u\015\012\000"
  93      2C202575 
  93      0D0A00
  94 0057 00       		.align	2
  95              	.LC4:
  96 0058 746D7000 		.ascii	"tmp\000"
  97              		.align	2
  98              	.LC5:
  99 005c 6C6F636B 		.ascii	"lock,tmp\000"
  99      2C746D70 
  99      00
 100 0065 000000   		.align	2
 101              	.LC6:
 102 0068 6C6F636B 		.ascii	"lock\000"
 102      00
 103 006d 000000   		.section	.text.main,"ax",%progbits
 104              		.align	2
 105              		.global	main
 106              		.thumb
 107              		.thumb_func
 108              		.type	main, %function
 109              	main:
 110              	.LFB57:
  64:.\main_old.c  **** 
  65:.\main_old.c  **** void main()
  66:.\main_old.c  **** {
 111              		.loc 1 66 0
 112              		.cfi_startproc
 113              		@ args = 0, pretend = 0, frame = 0
 114              		@ frame_needed = 1, uses_anonymous_args = 0
 115 0000 80B5     		push	{r7, lr}
 116              		.cfi_def_cfa_offset 8
 117              		.cfi_offset 7, -8
 118              		.cfi_offset 14, -4
 119 0002 82B0     		sub	sp, sp, #8
 120              		.cfi_def_cfa_offset 16
 121 0004 02AF     		add	r7, sp, #8
 122              		.cfi_def_cfa 7, 8
  67:.\main_old.c  ****     /* Place your initialization/startup code here (e.g. MyInst_Start()) */
  68:.\main_old.c  ****     CyGlobalIntEnable; /* Uncomment this line to enable global interrupts. */
 123              		.loc 1 68 0
 124              	@ 68 ".\main_old.c" 1
 125 0006 62B6     		CPSIE   i
 126              	@ 0 "" 2
  69:.\main_old.c  **** 	
  70:.\main_old.c  **** 	CyDelay(5u);  // Short delay to make sure device is ready for low power entry
 127              		.loc 1 70 0
 128              		.thumb
 129 0008 0520     		movs	r0, #5
 130 000a FFF7FEFF 		bl	CyDelay
  71:.\main_old.c  **** 	
  72:.\main_old.c  **** 	sleep_isr_StartEx(Wakeup_ISR); // Start Sleep ISR
 131              		.loc 1 72 0
 132 000e B448     		ldr	r0, .L17
 133 0010 FFF7FEFF 		bl	sleep_isr_StartEx
ARM GAS  C:\Users\BRANKO~1\AppData\Local\Temp\cceJddxz.s 			page 5


  73:.\main_old.c  **** 	SleepTimer_Start();			   // Start SleepTimer Compnent	
 134              		.loc 1 73 0
 135 0014 FFF7FEFF 		bl	SleepTimer_Start
  74:.\main_old.c  ****     
  75:.\main_old.c  ****     modem_set_api_feed(FEED_ID, API_KEY);
 136              		.loc 1 75 0
 137 0018 B24B     		ldr	r3, .L17+4
 138 001a 1B68     		ldr	r3, [r3]
 139 001c B248     		ldr	r0, .L17+8
 140 001e 1946     		mov	r1, r3
 141 0020 FFF7FEFF 		bl	modem_set_api_feed
  76:.\main_old.c  ****     
  77:.\main_old.c  ****     //ADC_SAR_1_Start();
  78:.\main_old.c  ****     //modem_start();
  79:.\main_old.c  ****     //modem_power_on();    
  80:.\main_old.c  ****     //modem_get_serial_number();
  81:.\main_old.c  ****     
  82:.\main_old.c  ****     // Check/set flow control: Changed from 3 (default - bidirectional) to 0 (no flow control) --> 
  83:.\main_old.c  ****     /*
  84:.\main_old.c  **** 	modem_set_flow_control(0u); 
  85:.\main_old.c  ****     modem_get_profile(); //
  86:.\main_old.c  ****     modem_get_sw_version();
  87:.\main_old.c  **** 	modem_set_error_reports(2u);
  88:.\main_old.c  **** 	*/
  89:.\main_old.c  **** 	
  90:.\main_old.c  **** 	// Init and enable CDMA
  91:.\main_old.c  **** 	/*
  92:.\main_old.c  **** 	modem_set_user("");
  93:.\main_old.c  **** 	modem_set_password("");	
  94:.\main_old.c  **** 	modem_test_CDMA_data();
  95:.\main_old.c  **** 	modem_enable_CDMA_data(1u);
  96:.\main_old.c  **** 	modem_test_CDMA_data();
  97:.\main_old.c  **** 	*/
  98:.\main_old.c  **** 
  99:.\main_old.c  ****     /* OLD MODEM CODE
 100:.\main_old.c  ****     Telit_PWR_Write(0u); // 0u Enables power to cell module
 101:.\main_old.c  ****     
 102:.\main_old.c  ****     Telit_ON_Write(1u); 
 103:.\main_old.c  ****     CyDelay(2000u);
 104:.\main_old.c  ****     Telit_ON_Write(0u); 
 105:.\main_old.c  ****     */    
 106:.\main_old.c  ****     
 107:.\main_old.c  ****     // Initialize variables
 108:.\main_old.c  ****     ready			= 1u;
 142              		.loc 1 108 0
 143 0024 B14B     		ldr	r3, .L17+12
 144 0026 0122     		movs	r2, #1
 145 0028 1A70     		strb	r2, [r3]
 109:.\main_old.c  **** 	loops			= 0u;
 146              		.loc 1 109 0
 147 002a B14B     		ldr	r3, .L17+16
 148 002c 0022     		movs	r2, #0
 149 002e 1A70     		strb	r2, [r3]
 110:.\main_old.c  **** 	lock			= 0u;
 150              		.loc 1 110 0
 151 0030 B04B     		ldr	r3, .L17+20
 152 0032 0022     		movs	r2, #0
ARM GAS  C:\Users\BRANKO~1\AppData\Local\Temp\cceJddxz.s 			page 6


 153 0034 1A70     		strb	r2, [r3]
 111:.\main_old.c  **** 	packet_ready	= 0u;
 154              		.loc 1 111 0
 155 0036 B04B     		ldr	r3, .L17+24
 156 0038 0022     		movs	r2, #0
 157 003a 1A70     		strb	r2, [r3]
 112:.\main_old.c  **** 	iter            = 0;
 158              		.loc 1 112 0
 159 003c AF4B     		ldr	r3, .L17+28
 160 003e 0022     		movs	r2, #0
 161 0040 1A60     		str	r2, [r3]
 113:.\main_old.c  ****     sign            = 1;
 162              		.loc 1 113 0
 163 0042 AF4B     		ldr	r3, .L17+32
 164 0044 0122     		movs	r2, #1
 165 0046 1A60     		str	r2, [r3]
 114:.\main_old.c  ****     packet_len      = 0u;
 166              		.loc 1 114 0
 167 0048 AE4B     		ldr	r3, .L17+36
 168 004a 0022     		movs	r2, #0
 169 004c 1A80     		strh	r2, [r3]	@ movhi
 115:.\main_old.c  **** 	wakeup_interval_counter = 0u;	
 170              		.loc 1 115 0
 171 004e AE4B     		ldr	r3, .L17+40
 172 0050 0022     		movs	r2, #0
 173 0052 1A60     		str	r2, [r3]
 116:.\main_old.c  ****     v_out           = 0.0;
 174              		.loc 1 116 0
 175 0054 AD4B     		ldr	r3, .L17+44
 176 0056 4FF00002 		mov	r2, #0
 177 005a 1A60     		str	r2, [r3]	@ float
 117:.\main_old.c  **** 
 118:.\main_old.c  ****     
 119:.\main_old.c  ****     VBAT_READ_EN_Write(0u);
 178              		.loc 1 119 0
 179 005c 0020     		movs	r0, #0
 180 005e FFF7FEFF 		bl	VBAT_READ_EN_Write
 120:.\main_old.c  **** 	Pin2_Write(0u);
 181              		.loc 1 120 0
 182 0062 0020     		movs	r0, #0
 183 0064 FFF7FEFF 		bl	Pin2_Write
 121:.\main_old.c  **** 	Pin17_Write(0u);
 184              		.loc 1 121 0
 185 0068 0020     		movs	r0, #0
 186 006a FFF7FEFF 		bl	Pin17_Write
 122:.\main_old.c  **** 	Pin18_Write(0u);
 187              		.loc 1 122 0
 188 006e 0020     		movs	r0, #0
 189 0070 FFF7FEFF 		bl	Pin18_Write
 123:.\main_old.c  ****     Pin37_Write(0u);
 190              		.loc 1 123 0
 191 0074 0020     		movs	r0, #0
 192 0076 FFF7FEFF 		bl	Pin37_Write
 124:.\main_old.c  ****     Pin38_Write(0u);
 193              		.loc 1 124 0
 194 007a 0020     		movs	r0, #0
 195 007c FFF7FEFF 		bl	Pin38_Write
ARM GAS  C:\Users\BRANKO~1\AppData\Local\Temp\cceJddxz.s 			page 7


 125:.\main_old.c  ****     Pin39_Write(0u);
 196              		.loc 1 125 0
 197 0080 0020     		movs	r0, #0
 198 0082 FFF7FEFF 		bl	Pin39_Write
 199              	.L16:
 126:.\main_old.c  ****     //Pin34_Write(0u);
 127:.\main_old.c  ****     //Pin35_Write(0u);
 128:.\main_old.c  ****     
 129:.\main_old.c  **** //    WaveDAC8_1_Start(); /* Start WaveDAC8  */
 130:.\main_old.c  **** 
 131:.\main_old.c  **** 
 132:.\main_old.c  ****     for(;;)
 133:.\main_old.c  **** 	{
 134:.\main_old.c  **** 	/*	
 135:.\main_old.c  **** 		modem_start();
 136:.\main_old.c  **** 	    modem_power_on();    
 137:.\main_old.c  **** 	    modem_get_serial_number();
 138:.\main_old.c  **** 	
 139:.\main_old.c  **** 	uint8 k = 0;		
 140:.\main_old.c  **** 	for(k = 0; k < 5; k++)
 141:.\main_old.c  ****     {	
 142:.\main_old.c  **** 	*/
 143:.\main_old.c  **** 		if ( ready == 1u ){
 200              		.loc 1 143 0
 201 0086 994B     		ldr	r3, .L17+12
 202 0088 1B78     		ldrb	r3, [r3]	@ zero_extendqisi2
 203 008a 012B     		cmp	r3, #1
 204 008c 40F00481 		bne	.L3
 144:.\main_old.c  **** 			iter = 0;
 205              		.loc 1 144 0
 206 0090 9A4B     		ldr	r3, .L17+28
 207 0092 0022     		movs	r2, #0
 208 0094 1A60     		str	r2, [r3]
 145:.\main_old.c  **** 			if (clear_packet(data_packet)) {
 209              		.loc 1 145 0
 210 0096 9E48     		ldr	r0, .L17+48
 211 0098 FFF7FEFF 		bl	clear_packet
 212 009c 0346     		mov	r3, r0
 213 009e 002B     		cmp	r3, #0
 214 00a0 05D0     		beq	.L4
 146:.\main_old.c  ****                 packet_len = 0u;
 215              		.loc 1 146 0
 216 00a2 984B     		ldr	r3, .L17+36
 217 00a4 0022     		movs	r2, #0
 218 00a6 1A80     		strh	r2, [r3]	@ movhi
 147:.\main_old.c  ****                 packet_ready = 0u;
 219              		.loc 1 147 0
 220 00a8 934B     		ldr	r3, .L17+24
 221 00aa 0022     		movs	r2, #0
 222 00ac 1A70     		strb	r2, [r3]
 223              	.L4:
 148:.\main_old.c  ****             }
 149:.\main_old.c  **** 			
 150:.\main_old.c  **** 			LED_Write(1u);
 224              		.loc 1 150 0
 225 00ae 0120     		movs	r0, #1
 226 00b0 FFF7FEFF 		bl	LED_Write
ARM GAS  C:\Users\BRANKO~1\AppData\Local\Temp\cceJddxz.s 			page 8


 151:.\main_old.c  **** 			
 152:.\main_old.c  **** 			blink_LED(3u);
 227              		.loc 1 152 0
 228 00b4 0320     		movs	r0, #3
 229 00b6 FFF7FEFF 		bl	blink_LED
 153:.\main_old.c  **** 			ultrasonic_start();
 230              		.loc 1 153 0
 231 00ba FFF7FEFF 		bl	ultrasonic_start
 154:.\main_old.c  **** 			CyDelay(1000u);
 232              		.loc 1 154 0
 233 00be 4FF47A70 		mov	r0, #1000
 234 00c2 FFF7FEFF 		bl	CyDelay
 155:.\main_old.c  **** 			
 156:.\main_old.c  ****             if (ultrasonic_get_reading(&ultrasonic_reading)){
 235              		.loc 1 156 0
 236 00c6 9348     		ldr	r0, .L17+52
 237 00c8 FFF7FEFF 		bl	ultrasonic_get_reading
 238 00cc 0346     		mov	r3, r0
 239 00ce 002B     		cmp	r3, #0
 240 00d0 0DD0     		beq	.L5
 157:.\main_old.c  ****                 sprintf(data_packet,"%s%s, %d\r\n", data_packet,
 158:.\main_old.c  ****                     "depth_sonic", (uint16) (ultrasonic_reading.depth));              
 241              		.loc 1 158 0
 242 00d2 904B     		ldr	r3, .L17+52
 243 00d4 5B68     		ldr	r3, [r3, #4]	@ float
 244 00d6 1846     		mov	r0, r3
 245 00d8 FFF7FEFF 		bl	__aeabi_f2uiz
 246 00dc 0346     		mov	r3, r0
 247 00de 9BB2     		uxth	r3, r3
 157:.\main_old.c  ****                 sprintf(data_packet,"%s%s, %d\r\n", data_packet,
 248              		.loc 1 157 0
 249 00e0 0093     		str	r3, [sp]
 250 00e2 8B48     		ldr	r0, .L17+48
 251 00e4 8C49     		ldr	r1, .L17+56
 252 00e6 8A4A     		ldr	r2, .L17+48
 253 00e8 8C4B     		ldr	r3, .L17+60
 254 00ea FFF7FEFF 		bl	sprintf
 255              	.L5:
 159:.\main_old.c  ****             }
 160:.\main_old.c  **** 			ultrasonic_stop();
 256              		.loc 1 160 0
 257 00ee FFF7FEFF 		bl	ultrasonic_stop
 161:.\main_old.c  **** 			blink_LED(3u);
 258              		.loc 1 161 0
 259 00f2 0320     		movs	r0, #3
 260 00f4 FFF7FEFF 		bl	blink_LED
 162:.\main_old.c  **** 			
 163:.\main_old.c  **** 			
 164:.\main_old.c  **** 			// Set up the modem and connect to network					
 165:.\main_old.c  **** 			LED_Write(!LED_Read());
 261              		.loc 1 165 0
 262 00f8 FFF7FEFF 		bl	LED_Read
 263 00fc 0346     		mov	r3, r0
 264 00fe 002B     		cmp	r3, #0
 265 0100 14BF     		ite	ne
 266 0102 0023     		movne	r3, #0
 267 0104 0123     		moveq	r3, #1
ARM GAS  C:\Users\BRANKO~1\AppData\Local\Temp\cceJddxz.s 			page 9


 268 0106 DBB2     		uxtb	r3, r3
 269 0108 1846     		mov	r0, r3
 270 010a FFF7FEFF 		bl	LED_Write
 166:.\main_old.c  **** 			//modem_get_serial_number();
 167:.\main_old.c  **** 			modem_start();
 271              		.loc 1 167 0
 272 010e FFF7FEFF 		bl	modem_start
 168:.\main_old.c  **** 			
 169:.\main_old.c  **** 			while( iter < MAX_CONN_ATTEMPTS) {
 273              		.loc 1 169 0
 274 0112 B7E0     		b	.L6
 275              	.L11:
 170:.\main_old.c  **** 				iter++;
 276              		.loc 1 170 0
 277 0114 794B     		ldr	r3, .L17+28
 278 0116 1B68     		ldr	r3, [r3]
 279 0118 5A1C     		adds	r2, r3, #1
 280 011a 784B     		ldr	r3, .L17+28
 281 011c 1A60     		str	r2, [r3]
 171:.\main_old.c  **** 	
 172:.\main_old.c  **** 				// Set up the modem
 173:.\main_old.c  **** 				LED_Write(!LED_Read());
 282              		.loc 1 173 0
 283 011e FFF7FEFF 		bl	LED_Read
 284 0122 0346     		mov	r3, r0
 285 0124 002B     		cmp	r3, #0
 286 0126 14BF     		ite	ne
 287 0128 0023     		movne	r3, #0
 288 012a 0123     		moveq	r3, #1
 289 012c DBB2     		uxtb	r3, r3
 290 012e 1846     		mov	r0, r3
 291 0130 FFF7FEFF 		bl	LED_Write
 174:.\main_old.c  **** 				ready = modem_power_on();
 292              		.loc 1 174 0
 293 0134 FFF7FEFF 		bl	modem_power_on
 294 0138 0346     		mov	r3, r0
 295 013a 1A46     		mov	r2, r3
 296 013c 6B4B     		ldr	r3, .L17+12
 297 013e 1A70     		strb	r2, [r3]
 175:.\main_old.c  **** 				//LED_Write(!LED_Read());
 176:.\main_old.c  ****     			//ready = at_write_command("AT\r","OK",1000u);      
 177:.\main_old.c  **** 				modem_set_flow_control(0u);	
 298              		.loc 1 177 0
 299 0140 0020     		movs	r0, #0
 300 0142 FFF7FEFF 		bl	modem_set_flow_control
 178:.\main_old.c  **** 				modem_setup();
 301              		.loc 1 178 0
 302 0146 FFF7FEFF 		bl	modem_setup
 179:.\main_old.c  **** 				
 180:.\main_old.c  **** 				if ( ready == 1u ) {
 303              		.loc 1 180 0
 304 014a 684B     		ldr	r3, .L17+12
 305 014c 1B78     		ldrb	r3, [r3]	@ zero_extendqisi2
 306 014e 012B     		cmp	r3, #1
 307 0150 40F09680 		bne	.L7
 181:.\main_old.c  **** 					// Connect modem to network
 182:.\main_old.c  **** 					// (modem_connect already accounts for retries)
ARM GAS  C:\Users\BRANKO~1\AppData\Local\Temp\cceJddxz.s 			page 10


 183:.\main_old.c  **** 					LED_Write(!LED_Read());
 308              		.loc 1 183 0
 309 0154 FFF7FEFF 		bl	LED_Read
 310 0158 0346     		mov	r3, r0
 311 015a 002B     		cmp	r3, #0
 312 015c 14BF     		ite	ne
 313 015e 0023     		movne	r3, #0
 314 0160 0123     		moveq	r3, #1
 315 0162 DBB2     		uxtb	r3, r3
 316 0164 1846     		mov	r0, r3
 317 0166 FFF7FEFF 		bl	LED_Write
 184:.\main_old.c  **** 					ready = modem_connect();
 318              		.loc 1 184 0
 319 016a FFF7FEFF 		bl	modem_connect
 320 016e 0346     		mov	r3, r0
 321 0170 1A46     		mov	r2, r3
 322 0172 5E4B     		ldr	r3, .L17+12
 323 0174 1A70     		strb	r2, [r3]
 185:.\main_old.c  **** 					
 186:.\main_old.c  **** 					if( ready == 3u ) {
 324              		.loc 1 186 0
 325 0176 5D4B     		ldr	r3, .L17+12
 326 0178 1B78     		ldrb	r3, [r3]	@ zero_extendqisi2
 327 017a 032B     		cmp	r3, #3
 328 017c 40F08280 		bne	.L6
 187:.\main_old.c  **** 						
 188:.\main_old.c  **** 						LED_Write(!LED_Read());	
 329              		.loc 1 188 0
 330 0180 FFF7FEFF 		bl	LED_Read
 331 0184 0346     		mov	r3, r0
 332 0186 002B     		cmp	r3, #0
 333 0188 14BF     		ite	ne
 334 018a 0023     		movne	r3, #0
 335 018c 0123     		moveq	r3, #1
 336 018e DBB2     		uxtb	r3, r3
 337 0190 1846     		mov	r0, r3
 338 0192 FFF7FEFF 		bl	LED_Write
 189:.\main_old.c  **** 						sprintf(data_packet,"%s%s, %u\r\n", data_packet,
 339              		.loc 1 189 0
 340 0196 564B     		ldr	r3, .L17+16
 341 0198 1B78     		ldrb	r3, [r3]	@ zero_extendqisi2
 342 019a 0093     		str	r3, [sp]
 343 019c 5C48     		ldr	r0, .L17+48
 344 019e 6049     		ldr	r1, .L17+64
 345 01a0 5B4A     		ldr	r2, .L17+48
 346 01a2 604B     		ldr	r3, .L17+68
 347 01a4 FFF7FEFF 		bl	sprintf
 190:.\main_old.c  ****                     		"tmp", loops);  
 191:.\main_old.c  **** 						ready = modem_send_packet(data_packet);
 348              		.loc 1 191 0
 349 01a8 5948     		ldr	r0, .L17+48
 350 01aa FFF7FEFF 		bl	modem_send_packet
 351 01ae 0346     		mov	r3, r0
 352 01b0 1A46     		mov	r2, r3
 353 01b2 4E4B     		ldr	r3, .L17+12
 354 01b4 1A70     		strb	r2, [r3]
 192:.\main_old.c  **** 						CyDelay(5000u);
ARM GAS  C:\Users\BRANKO~1\AppData\Local\Temp\cceJddxz.s 			page 11


 355              		.loc 1 192 0
 356 01b6 41F28830 		movw	r0, #5000
 357 01ba FFF7FEFF 		bl	CyDelay
 193:.\main_old.c  **** 						
 194:.\main_old.c  **** 						if (clear_packet(data_packet)) {
 358              		.loc 1 194 0
 359 01be 5448     		ldr	r0, .L17+48
 360 01c0 FFF7FEFF 		bl	clear_packet
 361 01c4 0346     		mov	r3, r0
 362 01c6 002B     		cmp	r3, #0
 363 01c8 05D0     		beq	.L9
 195:.\main_old.c  **** 			                packet_len = 0u;
 364              		.loc 1 195 0
 365 01ca 4E4B     		ldr	r3, .L17+36
 366 01cc 0022     		movs	r2, #0
 367 01ce 1A80     		strh	r2, [r3]	@ movhi
 196:.\main_old.c  **** 			                packet_ready = 0u;
 368              		.loc 1 196 0
 369 01d0 494B     		ldr	r3, .L17+24
 370 01d2 0022     		movs	r2, #0
 371 01d4 1A70     		strb	r2, [r3]
 372              	.L9:
 197:.\main_old.c  **** 			            }
 198:.\main_old.c  **** 						
 199:.\main_old.c  **** 						LED_Write(!LED_Read());	
 373              		.loc 1 199 0
 374 01d6 FFF7FEFF 		bl	LED_Read
 375 01da 0346     		mov	r3, r0
 376 01dc 002B     		cmp	r3, #0
 377 01de 14BF     		ite	ne
 378 01e0 0023     		movne	r3, #0
 379 01e2 0123     		moveq	r3, #1
 380 01e4 DBB2     		uxtb	r3, r3
 381 01e6 1846     		mov	r0, r3
 382 01e8 FFF7FEFF 		bl	LED_Write
 200:.\main_old.c  **** 						if( modem_get_packet(data_packet,"lock,tmp") ){
 383              		.loc 1 200 0
 384 01ec 4848     		ldr	r0, .L17+48
 385 01ee 4E49     		ldr	r1, .L17+72
 386 01f0 FFF7FEFF 		bl	modem_get_packet
 387 01f4 0346     		mov	r3, r0
 388 01f6 002B     		cmp	r3, #0
 389 01f8 31D0     		beq	.L10
 201:.\main_old.c  **** 						
 202:.\main_old.c  **** 							/* Testing code to move the actuator */
 203:.\main_old.c  **** 							
 204:.\main_old.c  **** 							if(packet_get_uint8(data_packet,"lock",&lock)){
 390              		.loc 1 204 0
 391 01fa 4548     		ldr	r0, .L17+48
 392 01fc 4B49     		ldr	r1, .L17+76
 393 01fe 3D4A     		ldr	r2, .L17+20
 394 0200 FFF7FEFF 		bl	packet_get_uint8
 395 0204 0346     		mov	r3, r0
 396 0206 002B     		cmp	r3, #0
 397 0208 29D0     		beq	.L10
 205:.\main_old.c  **** 								if(lock == 1u){	
 398              		.loc 1 205 0
ARM GAS  C:\Users\BRANKO~1\AppData\Local\Temp\cceJddxz.s 			page 12


 399 020a 3A4B     		ldr	r3, .L17+20
 400 020c 1B78     		ldrb	r3, [r3]	@ zero_extendqisi2
 401 020e 012B     		cmp	r3, #1
 402 0210 25D1     		bne	.L10
 206:.\main_old.c  **** 									// Supply power to breakout board
 207:.\main_old.c  **** 									// This powers the Reed Switch
 208:.\main_old.c  **** 									Pin2_Write(1u);
 403              		.loc 1 208 0
 404 0212 0120     		movs	r0, #1
 405 0214 FFF7FEFF 		bl	Pin2_Write
 209:.\main_old.c  **** 									CyDelay(1000u);
 406              		.loc 1 209 0
 407 0218 4FF47A70 		mov	r0, #1000
 408 021c FFF7FEFF 		bl	CyDelay
 210:.\main_old.c  **** 									
 211:.\main_old.c  **** 									// Move the actuator out
 212:.\main_old.c  **** 									Pin17_Write(1u);
 409              		.loc 1 212 0
 410 0220 0120     		movs	r0, #1
 411 0222 FFF7FEFF 		bl	Pin17_Write
 213:.\main_old.c  **** 									CyDelay(3000u);
 412              		.loc 1 213 0
 413 0226 40F6B830 		movw	r0, #3000
 414 022a FFF7FEFF 		bl	CyDelay
 214:.\main_old.c  **** 									Pin17_Write(0u);
 415              		.loc 1 214 0
 416 022e 0020     		movs	r0, #0
 417 0230 FFF7FEFF 		bl	Pin17_Write
 215:.\main_old.c  **** 									
 216:.\main_old.c  **** 									CyDelay(2000u);
 418              		.loc 1 216 0
 419 0234 4FF4FA60 		mov	r0, #2000
 420 0238 FFF7FEFF 		bl	CyDelay
 217:.\main_old.c  **** 									
 218:.\main_old.c  **** 									// Move the actuator in
 219:.\main_old.c  **** 									Pin18_Write(1u);
 421              		.loc 1 219 0
 422 023c 0120     		movs	r0, #1
 423 023e FFF7FEFF 		bl	Pin18_Write
 220:.\main_old.c  **** 									CyDelay(3000u);
 424              		.loc 1 220 0
 425 0242 40F6B830 		movw	r0, #3000
 426 0246 FFF7FEFF 		bl	CyDelay
 221:.\main_old.c  **** 									Pin18_Write(0u);
 427              		.loc 1 221 0
 428 024a 0020     		movs	r0, #0
 429 024c FFF7FEFF 		bl	Pin18_Write
 222:.\main_old.c  **** 									
 223:.\main_old.c  **** 									// Cut power to breakout board
 224:.\main_old.c  **** 									CyDelay(1000u);
 430              		.loc 1 224 0
 431 0250 4FF47A70 		mov	r0, #1000
 432 0254 FFF7FEFF 		bl	CyDelay
 225:.\main_old.c  **** 									Pin2_Write(0u);
 433              		.loc 1 225 0
 434 0258 0020     		movs	r0, #0
 435 025a FFF7FEFF 		bl	Pin2_Write
ARM GAS  C:\Users\BRANKO~1\AppData\Local\Temp\cceJddxz.s 			page 13


 436              	.L10:
 226:.\main_old.c  **** 								}
 227:.\main_old.c  **** 							}	
 228:.\main_old.c  **** 						}
 229:.\main_old.c  **** 						
 230:.\main_old.c  **** 						loops += 10;
 437              		.loc 1 230 0
 438 025e 244B     		ldr	r3, .L17+16
 439 0260 1B78     		ldrb	r3, [r3]	@ zero_extendqisi2
 440 0262 0A33     		adds	r3, r3, #10
 441 0264 DAB2     		uxtb	r2, r3
 442 0266 224B     		ldr	r3, .L17+16
 443 0268 1A70     		strb	r2, [r3]
 231:.\main_old.c  **** 						CyDelay(5000u);	
 444              		.loc 1 231 0
 445 026a 41F28830 		movw	r0, #5000
 446 026e FFF7FEFF 		bl	CyDelay
 232:.\main_old.c  **** 						
 233:.\main_old.c  **** 						ready = 0u;
 447              		.loc 1 233 0
 448 0272 1E4B     		ldr	r3, .L17+12
 449 0274 0022     		movs	r2, #0
 450 0276 1A70     		strb	r2, [r3]
 234:.\main_old.c  **** 						iter = MAX_CONN_ATTEMPTS;//break;					
 451              		.loc 1 234 0
 452 0278 204B     		ldr	r3, .L17+28
 453 027a 0522     		movs	r2, #5
 454 027c 1A60     		str	r2, [r3]
 455 027e 01E0     		b	.L6
 456              	.L7:
 235:.\main_old.c  **** 					}
 236:.\main_old.c  **** 				}
 237:.\main_old.c  **** 				else {
 238:.\main_old.c  **** 					modem_reset();
 457              		.loc 1 238 0
 458 0280 FFF7FEFF 		bl	modem_reset
 459              	.L6:
 169:.\main_old.c  **** 			while( iter < MAX_CONN_ATTEMPTS) {
 460              		.loc 1 169 0 discriminator 1
 461 0284 1D4B     		ldr	r3, .L17+28
 462 0286 1B68     		ldr	r3, [r3]
 463 0288 042B     		cmp	r3, #4
 464 028a 7FF743AF 		ble	.L11
 239:.\main_old.c  **** 				}
 240:.\main_old.c  **** 			}
 241:.\main_old.c  **** 			modem_power_off();
 465              		.loc 1 241 0
 466 028e FFF7FEFF 		bl	modem_power_off
 242:.\main_old.c  **** 			modem_stop();
 467              		.loc 1 242 0
 468 0292 FFF7FEFF 		bl	modem_stop
 243:.\main_old.c  **** 		}
 244:.\main_old.c  **** 		/* If not ready, update the counter for the sleep timer */
 245:.\main_old.c  **** 		else {
 246:.\main_old.c  **** 			/* Blink the LED to indicate sleeping */
 247:.\main_old.c  **** 			blink_LED(5u);
 248:.\main_old.c  **** 			
ARM GAS  C:\Users\BRANKO~1\AppData\Local\Temp\cceJddxz.s 			page 14


 249:.\main_old.c  **** 			/* Prepares system clocks for the Sleep mode */
 250:.\main_old.c  **** 	        CyPmSaveClocks();
 251:.\main_old.c  **** 
 252:.\main_old.c  **** 	        do
 253:.\main_old.c  **** 	        {
 254:.\main_old.c  **** 	            /*******************************************************************
 255:.\main_old.c  **** 	            * Switch to the Sleep Mode for the other devices:
 256:.\main_old.c  **** 	            *  - PM_SLEEP_TIME_NONE: wakeup time is defined by Sleep Timer
 257:.\main_old.c  **** 	            *  - PM_SLEEP_SRC_CTW :  wakeup on CTW sources is allowed
 258:.\main_old.c  **** 	            *******************************************************************/
 259:.\main_old.c  **** 	            CyPmSleep(PM_SLEEP_TIME_NONE, PM_SLEEP_SRC_CTW);
 260:.\main_old.c  **** 
 261:.\main_old.c  **** 
 262:.\main_old.c  **** 	            /***********************************************************************
 263:.\main_old.c  **** 	            * After the device is woken up the Sleep Timer's ISR is executed.
 264:.\main_old.c  **** 	            * Afterwards the CyPmSleep() execution is finished the clock
 265:.\main_old.c  **** 	            * configuration is restored.
 266:.\main_old.c  **** 	            ***********************************************************************/
 267:.\main_old.c  **** 	            if(SLEEPTIMER_INTERVAL_COUNTER == wakeup_interval_counter)
 268:.\main_old.c  **** 	            {
 269:.\main_old.c  **** 	                /* Blink with LED */
 270:.\main_old.c  **** 	                //(0u == LED_P1_2_Read()) ? LED_P1_2_Write(1u) : LED_P1_2_Write(0u);
 271:.\main_old.c  **** 	                wakeup_interval_counter = 0u;
 272:.\main_old.c  **** 					ready = 1u;
 273:.\main_old.c  **** 	            }
 274:.\main_old.c  **** 	            else
 275:.\main_old.c  **** 	            {
 276:.\main_old.c  **** 	                wakeup_interval_counter++;
 277:.\main_old.c  **** 	            }
 278:.\main_old.c  **** 	                
 279:.\main_old.c  **** 	        } while (wakeup_interval_counter != 0u);
 280:.\main_old.c  **** 	        
 281:.\main_old.c  **** 
 282:.\main_old.c  **** 	        /* Restore clock configuration */
 283:.\main_old.c  **** 	        CyPmRestoreClocks();
 284:.\main_old.c  **** 		}
 285:.\main_old.c  **** 		
 286:.\main_old.c  **** 		/*
 287:.\main_old.c  ****         // Place your application code here.
 288:.\main_old.c  ****         Pin37_Write(!Pin37_Read());
 289:.\main_old.c  ****         
 290:.\main_old.c  ****         clear_packet(data_packet);
 291:.\main_old.c  ****         sprintf(data_packet,"%s, %u\r\n", "tmp", iter);
 292:.\main_old.c  ****         
 293:.\main_old.c  ****         modem_connect();
 294:.\main_old.c  ****         LED_Write(!LED_Read());
 295:.\main_old.c  ****         
 296:.\main_old.c  ****         // modem_state should now be IDLE or READY
 297:.\main_old.c  ****         //modem_send_packet(data_packet);        
 298:.\main_old.c  ****         modem_get_google(); //Can't get to work
 299:.\main_old.c  ****                
 300:.\main_old.c  ****         if (tmp > 10) {
 301:.\main_old.c  ****             sign = -1;
 302:.\main_old.c  ****         } else if (tmp < -10) {
 303:.\main_old.c  ****             sign = 1;
 304:.\main_old.c  ****         }
 305:.\main_old.c  ****         tmp = tmp + sign;        
ARM GAS  C:\Users\BRANKO~1\AppData\Local\Temp\cceJddxz.s 			page 15


 306:.\main_old.c  ****         
 307:.\main_old.c  ****         
 308:.\main_old.c  ****         Pin37_Write(!Pin37_Read());
 309:.\main_old.c  ****         LED_Write(!LED_Read());
 310:.\main_old.c  ****         CyDelay(100u);  
 311:.\main_old.c  ****         
 312:.\main_old.c  ****         modem_get_time();
 313:.\main_old.c  ****         Pin38_Write(!Pin38_Read());
 314:.\main_old.c  ****         LED_Write(!LED_Read());
 315:.\main_old.c  ****         CyDelay(100u);      
 316:.\main_old.c  ****         
 317:.\main_old.c  ****         modem_get_signal_quality();
 318:.\main_old.c  ****         Pin39_Write(!Pin39_Read());
 319:.\main_old.c  ****         LED_Write(!LED_Read());
 320:.\main_old.c  ****         CyDelay(100u);  
 321:.\main_old.c  ****         
 322:.\main_old.c  ****         modem_check_network();
 323:.\main_old.c  ****         //Pin34_Write(!Pin34_Read());
 324:.\main_old.c  ****         LED_Write(!LED_Read());
 325:.\main_old.c  ****         CyDelay(100u);  
 326:.\main_old.c  ****         
 327:.\main_old.c  ****         modem_get_serial_number();
 328:.\main_old.c  ****         //modem_disconnect();
 329:.\main_old.c  ****         //Pin35_Write(!Pin35_Read());
 330:.\main_old.c  ****         LED_Write(!LED_Read());
 331:.\main_old.c  ****         CyDelay(100u);   
 332:.\main_old.c  ****         
 333:.\main_old.c  ****         ADC_SAR_1_StartConvert();
 334:.\main_old.c  ****         ADC_SAR_1_IsEndConversion(ADC_SAR_1_WAIT_FOR_RESULT);
 335:.\main_old.c  ****         v_out = ADC_SAR_1_CountsTo_Volts(ADC_SAR_1_GetResult16());        
 336:.\main_old.c  ****         //v_out = Pin30_Read();
 337:.\main_old.c  ****         Pin25_Write(v_out);
 338:.\main_old.c  **** 		*/
 339:.\main_old.c  ****     }
 469              		.loc 1 339 0
 470 0296 F6E6     		b	.L16
 471              	.L3:
 247:.\main_old.c  **** 			blink_LED(5u);
 472              		.loc 1 247 0
 473 0298 0520     		movs	r0, #5
 474 029a FFF7FEFF 		bl	blink_LED
 250:.\main_old.c  **** 	        CyPmSaveClocks();
 475              		.loc 1 250 0
 476 029e FFF7FEFF 		bl	CyPmSaveClocks
 477              	.L15:
 259:.\main_old.c  **** 	            CyPmSleep(PM_SLEEP_TIME_NONE, PM_SLEEP_SRC_CTW);
 478              		.loc 1 259 0
 479 02a2 0020     		movs	r0, #0
 480 02a4 4FF40061 		mov	r1, #2048
 481 02a8 FFF7FEFF 		bl	CyPmSleep
 267:.\main_old.c  **** 	            if(SLEEPTIMER_INTERVAL_COUNTER == wakeup_interval_counter)
 482              		.loc 1 267 0
 483 02ac 164B     		ldr	r3, .L17+40
 484 02ae 1A68     		ldr	r2, [r3]
 485 02b0 41F6E253 		movw	r3, #7650
 486 02b4 9A42     		cmp	r2, r3
 487 02b6 06D1     		bne	.L13
ARM GAS  C:\Users\BRANKO~1\AppData\Local\Temp\cceJddxz.s 			page 16


 271:.\main_old.c  **** 	                wakeup_interval_counter = 0u;
 488              		.loc 1 271 0
 489 02b8 134B     		ldr	r3, .L17+40
 490 02ba 0022     		movs	r2, #0
 491 02bc 1A60     		str	r2, [r3]
 272:.\main_old.c  **** 					ready = 1u;
 492              		.loc 1 272 0
 493 02be 0B4B     		ldr	r3, .L17+12
 494 02c0 0122     		movs	r2, #1
 495 02c2 1A70     		strb	r2, [r3]
 496 02c4 04E0     		b	.L14
 497              	.L13:
 276:.\main_old.c  **** 	                wakeup_interval_counter++;
 498              		.loc 1 276 0
 499 02c6 104B     		ldr	r3, .L17+40
 500 02c8 1B68     		ldr	r3, [r3]
 501 02ca 5A1C     		adds	r2, r3, #1
 502 02cc 0E4B     		ldr	r3, .L17+40
 503 02ce 1A60     		str	r2, [r3]
 504              	.L14:
 279:.\main_old.c  **** 	        } while (wakeup_interval_counter != 0u);
 505              		.loc 1 279 0
 506 02d0 0D4B     		ldr	r3, .L17+40
 507 02d2 1B68     		ldr	r3, [r3]
 508 02d4 002B     		cmp	r3, #0
 509 02d6 E4D1     		bne	.L15
 283:.\main_old.c  **** 	        CyPmRestoreClocks();
 510              		.loc 1 283 0
 511 02d8 FFF7FEFF 		bl	CyPmRestoreClocks
 512              		.loc 1 339 0
 513 02dc D3E6     		b	.L16
 514              	.L18:
 515 02de 00BF     		.align	2
 516              	.L17:
 517 02e0 00000000 		.word	Wakeup_ISR
 518 02e4 00000000 		.word	API_KEY
 519 02e8 7789415B 		.word	1531021687
 520 02ec 00000000 		.word	ready
 521 02f0 00000000 		.word	loops
 522 02f4 00000000 		.word	lock
 523 02f8 00000000 		.word	packet_ready
 524 02fc 00000000 		.word	iter
 525 0300 00000000 		.word	sign
 526 0304 00000000 		.word	packet_len
 527 0308 00000000 		.word	wakeup_interval_counter
 528 030c 00000000 		.word	v_out
 529 0310 00000000 		.word	data_packet
 530 0314 00000000 		.word	ultrasonic_reading
 531 0318 34000000 		.word	.LC1
 532 031c 40000000 		.word	.LC2
 533 0320 4C000000 		.word	.LC3
 534 0324 58000000 		.word	.LC4
 535 0328 5C000000 		.word	.LC5
 536 032c 68000000 		.word	.LC6
 537              		.cfi_endproc
 538              	.LFE57:
 539              		.size	main, .-main
ARM GAS  C:\Users\BRANKO~1\AppData\Local\Temp\cceJddxz.s 			page 17


 540              		.section	.text.blink_LED,"ax",%progbits
 541              		.align	2
 542              		.global	blink_LED
 543              		.thumb
 544              		.thumb_func
 545              		.type	blink_LED, %function
 546              	blink_LED:
 547              	.LFB58:
 340:.\main_old.c  **** 	
 341:.\main_old.c  **** 	/*
 342:.\main_old.c  **** 	modem_power_off();  
 343:.\main_old.c  **** 	modem_stop();
 344:.\main_old.c  **** 	
 345:.\main_old.c  **** 	LED_Write(1u);
 346:.\main_old.c  **** 	CyDelay(200u);
 347:.\main_old.c  **** 	LED_Write(0u);
 348:.\main_old.c  **** 	CyDelay(200u);
 349:.\main_old.c  **** 	LED_Write(1u);
 350:.\main_old.c  **** 	CyDelay(200u);
 351:.\main_old.c  **** 	LED_Write(0u);
 352:.\main_old.c  **** 	CyDelay(200u);
 353:.\main_old.c  **** 	LED_Write(1u);
 354:.\main_old.c  **** 	CyDelay(200u);
 355:.\main_old.c  **** 	LED_Write(0u);
 356:.\main_old.c  **** 	CyDelay(200u);		
 357:.\main_old.c  **** 	CyPmSaveClocks();
 358:.\main_old.c  **** 	CyPmHibernate();
 359:.\main_old.c  **** 	*/
 360:.\main_old.c  **** }
 361:.\main_old.c  **** 
 362:.\main_old.c  **** uint8 blink_LED(uint8 n_blinks) {
 548              		.loc 1 362 0
 549              		.cfi_startproc
 550              		@ args = 0, pretend = 0, frame = 16
 551              		@ frame_needed = 1, uses_anonymous_args = 0
 552 0000 80B5     		push	{r7, lr}
 553              		.cfi_def_cfa_offset 8
 554              		.cfi_offset 7, -8
 555              		.cfi_offset 14, -4
 556 0002 84B0     		sub	sp, sp, #16
 557              		.cfi_def_cfa_offset 24
 558 0004 00AF     		add	r7, sp, #0
 559              		.cfi_def_cfa_register 7
 560 0006 0346     		mov	r3, r0
 561 0008 FB71     		strb	r3, [r7, #7]
 363:.\main_old.c  **** 	uint8 k;
 364:.\main_old.c  **** 	for (k = 0; k < n_blinks; k++) {
 562              		.loc 1 364 0
 563 000a 0023     		movs	r3, #0
 564 000c FB73     		strb	r3, [r7, #15]
 565 000e 0EE0     		b	.L20
 566              	.L21:
 365:.\main_old.c  **** 		LED_Write(1u);
 567              		.loc 1 365 0 discriminator 2
 568 0010 0120     		movs	r0, #1
 569 0012 FFF7FEFF 		bl	LED_Write
 366:.\main_old.c  **** 		CyDelay(200u);
ARM GAS  C:\Users\BRANKO~1\AppData\Local\Temp\cceJddxz.s 			page 18


 570              		.loc 1 366 0 discriminator 2
 571 0016 C820     		movs	r0, #200
 572 0018 FFF7FEFF 		bl	CyDelay
 367:.\main_old.c  **** 		LED_Write(0u);
 573              		.loc 1 367 0 discriminator 2
 574 001c 0020     		movs	r0, #0
 575 001e FFF7FEFF 		bl	LED_Write
 368:.\main_old.c  **** 		CyDelay(200u);
 576              		.loc 1 368 0 discriminator 2
 577 0022 C820     		movs	r0, #200
 578 0024 FFF7FEFF 		bl	CyDelay
 364:.\main_old.c  **** 	for (k = 0; k < n_blinks; k++) {
 579              		.loc 1 364 0 discriminator 2
 580 0028 FB7B     		ldrb	r3, [r7, #15]	@ zero_extendqisi2
 581 002a 0133     		adds	r3, r3, #1
 582 002c FB73     		strb	r3, [r7, #15]
 583              	.L20:
 364:.\main_old.c  **** 	for (k = 0; k < n_blinks; k++) {
 584              		.loc 1 364 0 is_stmt 0 discriminator 1
 585 002e FA7B     		ldrb	r2, [r7, #15]	@ zero_extendqisi2
 586 0030 FB79     		ldrb	r3, [r7, #7]	@ zero_extendqisi2
 587 0032 9A42     		cmp	r2, r3
 588 0034 ECD3     		bcc	.L21
 369:.\main_old.c  **** 	}	
 370:.\main_old.c  **** }
 589              		.loc 1 370 0 is_stmt 1
 590 0036 1846     		mov	r0, r3
 591 0038 1037     		adds	r7, r7, #16
 592 003a BD46     		mov	sp, r7
 593              		@ sp needed
 594 003c 80BD     		pop	{r7, pc}
 595              		.cfi_endproc
 596              	.LFE58:
 597              		.size	blink_LED, .-blink_LED
 598 003e 00BF     		.text
 599              	.Letext0:
 600              		.file 2 "c:\\program files (x86)\\cypress\\psoc creator\\3.1\\psoc creator\\import\\gnu_cs\\arm\\4
 601              		.file 3 "c:\\program files (x86)\\cypress\\psoc creator\\3.1\\psoc creator\\import\\gnu_cs\\arm\\4
 602              		.file 4 ".\\Generated_Source\\PSoC5/cytypes.h"
 603              		.file 5 ".\\ultrasonic.h"
 604              		.file 6 ".\\Generated_Source\\PSoC5/core_cm3.h"