ARM GAS  C:\Users\Matthew\AppData\Local\Temp\ccSwhuqO.s 			page 1


   1              		.syntax unified
   2              		.cpu cortex-m3
   3              		.fpu softvfp
   4              		.eabi_attribute 20, 1
   5              		.eabi_attribute 21, 1
   6              		.eabi_attribute 23, 3
   7              		.eabi_attribute 24, 1
   8              		.eabi_attribute 25, 1
   9              		.eabi_attribute 26, 1
  10              		.eabi_attribute 30, 6
  11              		.eabi_attribute 34, 1
  12              		.eabi_attribute 18, 4
  13              		.thumb
  14              		.file	"main.c"
  15              		.text
  16              	.Ltext0:
  17              		.cfi_sections	.debug_frame
  18              		.global	API_KEY
  19              		.section	.rodata
  20              		.align	2
  21              	.LC0:
  22 0000 33766F75 		.ascii	"3vouwxRpF9JQfVNwHMMvi08V4JbFbrfdD6FuUcXeAmiOU4hO\000"
  22      77785270 
  22      46394A51 
  22      66564E77 
  22      484D4D76 
  23              		.data
  24              		.align	2
  25              		.type	API_KEY, %object
  26              		.size	API_KEY, 4
  27              	API_KEY:
  28 0000 00000000 		.word	.LC0
  29              		.global	data_packet
  30              		.bss
  31              		.align	2
  32              		.type	data_packet, %object
  33              		.size	data_packet, 1000
  34              	data_packet:
  35 0000 00000000 		.space	1000
  35      00000000 
  35      00000000 
  35      00000000 
  35      00000000 
  36              		.global	test_csv
  37              		.align	2
  38              		.type	test_csv, %object
  39              		.size	test_csv, 100
  40              	test_csv:
  41 03e8 00000000 		.space	100
  41      00000000 
  41      00000000 
  41      00000000 
  41      00000000 
  42              		.comm	iter,4,4
  43              		.comm	sign,4,4
  44              		.comm	ready,1,1
  45              		.comm	loops,1,1
ARM GAS  C:\Users\Matthew\AppData\Local\Temp\ccSwhuqO.s 			page 2


  46              		.comm	lock,1,1
  47              		.comm	packet_ready,1,1
  48              		.comm	packet_len,2,2
  49              		.comm	wakeup_interval_counter,4,4
  50              		.global	ultrasonic_reading
  51              		.align	2
  52              		.type	ultrasonic_reading, %object
  53              		.size	ultrasonic_reading, 12
  54              	ultrasonic_reading:
  55 044c 00000000 		.space	12
  55      00000000 
  55      00000000 
  56              		.comm	v_out,4,4
  57              		.section	.text.Wakeup_ISR,"ax",%progbits
  58              		.align	2
  59              		.global	Wakeup_ISR
  60              		.thumb
  61              		.thumb_func
  62              		.type	Wakeup_ISR, %function
  63              	Wakeup_ISR:
  64              	.LFB56:
  65              		.file 1 ".\\main.c"
   1:.\main.c      **** /* ========================================
   2:.\main.c      ****  *
   3:.\main.c      ****  * Copyright YOUR COMPANY, THE YEAR
   4:.\main.c      ****  * All Rights Reserved
   5:.\main.c      ****  * UNPUBLISHED, LICENSED SOFTWARE.
   6:.\main.c      ****  *
   7:.\main.c      ****  * CONFIDENTIAL AND PROPRIETARY INFORMATION
   8:.\main.c      ****  * WHICH IS THE PROPERTY OF your company.
   9:.\main.c      ****  *
  10:.\main.c      ****  * ========================================
  11:.\main.c      **** */
  12:.\main.c      **** #include <device.h>
  13:.\main.c      **** #include <project.h>
  14:.\main.c      **** #include "modem.h"
  15:.\main.c      **** #include "packet.h"
  16:.\main.c      **** #include "ultrasonic.h"
  17:.\main.c      **** 
  18:.\main.c      **** // define global variables
  19:.\main.c      **** #define SLEEPTIMER_INTERVAL_COUNTER (470u) // Number of wakeups before turn LED on 470 @ 256ms ~2 m
  20:.\main.c      **** #define WRITE_DEBUG 1
  21:.\main.c      **** #define FEED_ID 1738356304
  22:.\main.c      **** 
  23:.\main.c      **** const char *API_KEY = "3vouwxRpF9JQfVNwHMMvi08V4JbFbrfdD6FuUcXeAmiOU4hO";
  24:.\main.c      **** char   data_packet[MAX_PACKET_LENGTH] = {0}, test_csv[100] = {0};
  25:.\main.c      **** int    iter, sign;
  26:.\main.c      **** uint8  ready, loops, lock, packet_ready;
  27:.\main.c      **** uint16 packet_len;
  28:.\main.c      **** uint32 wakeup_interval_counter;
  29:.\main.c      **** UltrasonicReading ultrasonic_reading    = {.valid = 0};     // Initialize UltrasonicReading.valid t
  30:.\main.c      **** 
  31:.\main.c      **** /* autosampler variables
  32:.\main.c      **** uint8 t_sample, trigger_sampler, bottle_count, tmp;
  33:.\main.c      **** */
  34:.\main.c      **** CY_ISR_PROTO(Wakeup_ISR);
  35:.\main.c      **** uint8   blink_LED(uint8 n_blinks);
ARM GAS  C:\Users\Matthew\AppData\Local\Temp\ccSwhuqO.s 			page 3


  36:.\main.c      **** uint8	modem_setup();
  37:.\main.c      **** uint8   modem_get_time();
  38:.\main.c      **** uint8   modem_check_network();
  39:.\main.c      **** uint8   modem_get_signal_quality();
  40:.\main.c      **** uint8   modem_get_serial_number();
  41:.\main.c      **** uint8   modem_get_google();
  42:.\main.c      **** uint8   modem_get_profile();
  43:.\main.c      **** uint8   modem_set_flow_control(uint8 param);
  44:.\main.c      **** uint8 	modem_set_error_reports(uint8 param);
  45:.\main.c      **** uint8   modem_get_sw_version();
  46:.\main.c      **** uint8 	modem_enable_CDMA_data(uint8 param);
  47:.\main.c      **** uint8	modem_test_CDMA_data();
  48:.\main.c      **** uint8	modem_set_user(char* user);
  49:.\main.c      **** uint8	modem_set_password(char* pass);
  50:.\main.c      **** uint8 	at_write_command(char* uart_string, char* expected_response, uint32 uart_timeout);
  51:.\main.c      **** 
  52:.\main.c      **** float   v_out;
  53:.\main.c      **** 
  54:.\main.c      **** CY_ISR(Wakeup_ISR)
  55:.\main.c      **** {
  66              		.loc 1 55 0
  67              		.cfi_startproc
  68              		@ args = 0, pretend = 0, frame = 0
  69              		@ frame_needed = 1, uses_anonymous_args = 0
  70 0000 80B5     		push	{r7, lr}
  71              		.cfi_def_cfa_offset 8
  72              		.cfi_offset 7, -8
  73              		.cfi_offset 14, -4
  74 0002 00AF     		add	r7, sp, #0
  75              		.cfi_def_cfa_register 7
  56:.\main.c      ****     /***************************************************************************
  57:.\main.c      ****     * This function must always be called (when the Sleep Timer's interrupt
  58:.\main.c      ****     * is disabled or enabled) after wake up to clear the ctw_int status bit.
  59:.\main.c      ****     * It is required to call SleepTimer_GetStatus() within 1 ms (1 clock cycle
  60:.\main.c      ****     * of the ILO) after CTW event occurred.
  61:.\main.c      ****     ***************************************************************************/
  62:.\main.c      ****     SleepTimer_GetStatus();
  76              		.loc 1 62 0
  77 0004 FFF7FEFF 		bl	SleepTimer_GetStatus
  63:.\main.c      **** }
  78              		.loc 1 63 0
  79 0008 80BD     		pop	{r7, pc}
  80              		.cfi_endproc
  81              	.LFE56:
  82              		.size	Wakeup_ISR, .-Wakeup_ISR
  83              		.global	__aeabi_f2uiz
  84 000a 00BF     		.section	.rodata
  85 0031 000000   		.align	2
  86              	.LC1:
  87 0034 25732573 		.ascii	"%s%s, %d\015\012\000"
  87      2C202564 
  87      0D0A00
  88 003f 00       		.align	2
  89              	.LC2:
  90 0040 64657074 		.ascii	"depth_sonic\000"
  90      685F736F 
  90      6E696300 
ARM GAS  C:\Users\Matthew\AppData\Local\Temp\ccSwhuqO.s 			page 4


  91              		.align	2
  92              	.LC3:
  93 004c 25732573 		.ascii	"%s%s, %u\015\012\000"
  93      2C202575 
  93      0D0A00
  94 0057 00       		.align	2
  95              	.LC4:
  96 0058 746D7000 		.ascii	"tmp\000"
  97              		.align	2
  98              	.LC5:
  99 005c 6C6F636B 		.ascii	"lock,tmp\000"
  99      2C746D70 
  99      00
 100 0065 000000   		.align	2
 101              	.LC6:
 102 0068 6C6F636B 		.ascii	"lock\000"
 102      00
 103 006d 000000   		.section	.text.main,"ax",%progbits
 104              		.align	2
 105              		.global	main
 106              		.thumb
 107              		.thumb_func
 108              		.type	main, %function
 109              	main:
 110              	.LFB57:
  64:.\main.c      **** 
  65:.\main.c      **** void main()
  66:.\main.c      **** {
 111              		.loc 1 66 0
 112              		.cfi_startproc
 113              		@ args = 0, pretend = 0, frame = 0
 114              		@ frame_needed = 1, uses_anonymous_args = 0
 115 0000 80B5     		push	{r7, lr}
 116              		.cfi_def_cfa_offset 8
 117              		.cfi_offset 7, -8
 118              		.cfi_offset 14, -4
 119 0002 82B0     		sub	sp, sp, #8
 120              		.cfi_def_cfa_offset 16
 121 0004 02AF     		add	r7, sp, #8
 122              		.cfi_def_cfa 7, 8
  67:.\main.c      ****     /* Place your initialization/startup code here (e.g. MyInst_Start()) */
  68:.\main.c      ****     CyGlobalIntEnable; /* Uncomment this line to enable global interrupts. */
 123              		.loc 1 68 0
 124              	@ 68 ".\main.c" 1
 125 0006 62B6     		CPSIE   i
 126              	@ 0 "" 2
  69:.\main.c      **** 	
  70:.\main.c      **** 	CyDelay(5u);  // Short delay to make sure device is ready for low power entry
 127              		.loc 1 70 0
 128              		.thumb
 129 0008 0520     		movs	r0, #5
 130 000a FFF7FEFF 		bl	CyDelay
  71:.\main.c      **** 	
  72:.\main.c      **** 	sleep_isr_StartEx(Wakeup_ISR); // Start Sleep ISR
 131              		.loc 1 72 0
 132 000e 8B48     		ldr	r0, .L13
 133 0010 FFF7FEFF 		bl	sleep_isr_StartEx
ARM GAS  C:\Users\Matthew\AppData\Local\Temp\ccSwhuqO.s 			page 5


  73:.\main.c      **** 	SleepTimer_Start();			   // Start SleepTimer Compnent	
 134              		.loc 1 73 0
 135 0014 FFF7FEFF 		bl	SleepTimer_Start
  74:.\main.c      ****     
  75:.\main.c      ****     modem_set_api_feed(FEED_ID, API_KEY);
 136              		.loc 1 75 0
 137 0018 894B     		ldr	r3, .L13+4
 138 001a 1B68     		ldr	r3, [r3]
 139 001c 8948     		ldr	r0, .L13+8
 140 001e 1946     		mov	r1, r3
 141 0020 FFF7FEFF 		bl	modem_set_api_feed
  76:.\main.c      ****     
  77:.\main.c      ****     //ADC_SAR_1_Start();
  78:.\main.c      ****     //modem_start();
  79:.\main.c      ****     //modem_power_on();    
  80:.\main.c      ****     //modem_get_serial_number();
  81:.\main.c      ****     
  82:.\main.c      ****     // Check/set flow control: Change from 3 (default - bidirectional) to 0 (no flow control) --> D
  83:.\main.c      ****     /*
  84:.\main.c      **** 	modem_set_flow_control(0u); 
  85:.\main.c      ****     modem_get_profile(); //
  86:.\main.c      ****     modem_get_sw_version();
  87:.\main.c      **** 	modem_set_error_reports(2u);
  88:.\main.c      **** 	*/
  89:.\main.c      **** 	
  90:.\main.c      **** 	// Init and enable CDMA
  91:.\main.c      **** 	/*
  92:.\main.c      **** 	modem_set_user("");
  93:.\main.c      **** 	modem_set_password("");	
  94:.\main.c      **** 	modem_test_CDMA_data();
  95:.\main.c      **** 	modem_enable_CDMA_data(1u);
  96:.\main.c      **** 	modem_test_CDMA_data();
  97:.\main.c      **** 	*/
  98:.\main.c      **** 
  99:.\main.c      ****     // Initialize variables
 100:.\main.c      ****     ready			= 1u;
 142              		.loc 1 100 0
 143 0024 884B     		ldr	r3, .L13+12
 144 0026 0122     		movs	r2, #1
 145 0028 1A70     		strb	r2, [r3]
 101:.\main.c      **** 	loops			= 0u;
 146              		.loc 1 101 0
 147 002a 884B     		ldr	r3, .L13+16
 148 002c 0022     		movs	r2, #0
 149 002e 1A70     		strb	r2, [r3]
 102:.\main.c      **** 	lock			= 0u;
 150              		.loc 1 102 0
 151 0030 874B     		ldr	r3, .L13+20
 152 0032 0022     		movs	r2, #0
 153 0034 1A70     		strb	r2, [r3]
 103:.\main.c      **** 	packet_ready	= 0u;
 154              		.loc 1 103 0
 155 0036 874B     		ldr	r3, .L13+24
 156 0038 0022     		movs	r2, #0
 157 003a 1A70     		strb	r2, [r3]
 104:.\main.c      **** 	iter            = 0;
 158              		.loc 1 104 0
ARM GAS  C:\Users\Matthew\AppData\Local\Temp\ccSwhuqO.s 			page 6


 159 003c 864B     		ldr	r3, .L13+28
 160 003e 0022     		movs	r2, #0
 161 0040 1A60     		str	r2, [r3]
 105:.\main.c      ****     sign            = 1;
 162              		.loc 1 105 0
 163 0042 864B     		ldr	r3, .L13+32
 164 0044 0122     		movs	r2, #1
 165 0046 1A60     		str	r2, [r3]
 106:.\main.c      ****     packet_len      = 0u;
 166              		.loc 1 106 0
 167 0048 854B     		ldr	r3, .L13+36
 168 004a 0022     		movs	r2, #0
 169 004c 1A80     		strh	r2, [r3]	@ movhi
 107:.\main.c      **** 	wakeup_interval_counter = 0u;	
 170              		.loc 1 107 0
 171 004e 854B     		ldr	r3, .L13+40
 172 0050 0022     		movs	r2, #0
 173 0052 1A60     		str	r2, [r3]
 108:.\main.c      ****     v_out           = 0.0;
 174              		.loc 1 108 0
 175 0054 844B     		ldr	r3, .L13+44
 176 0056 4FF00002 		mov	r2, #0
 177 005a 1A60     		str	r2, [r3]	@ float
 109:.\main.c      **** 
 110:.\main.c      ****     
 111:.\main.c      ****     VBAT_READ_EN_Write(0u);
 178              		.loc 1 111 0
 179 005c 0020     		movs	r0, #0
 180 005e FFF7FEFF 		bl	VBAT_READ_EN_Write
 112:.\main.c      **** 	Pin2_Write(0u);
 181              		.loc 1 112 0
 182 0062 0020     		movs	r0, #0
 183 0064 FFF7FEFF 		bl	Pin2_Write
 113:.\main.c      **** 	Pin17_Write(0u);
 184              		.loc 1 113 0
 185 0068 0020     		movs	r0, #0
 186 006a FFF7FEFF 		bl	Pin17_Write
 114:.\main.c      **** 	Pin18_Write(0u);
 187              		.loc 1 114 0
 188 006e 0020     		movs	r0, #0
 189 0070 FFF7FEFF 		bl	Pin18_Write
 115:.\main.c      ****     Pin37_Write(0u);
 190              		.loc 1 115 0
 191 0074 0020     		movs	r0, #0
 192 0076 FFF7FEFF 		bl	Pin37_Write
 116:.\main.c      ****     Pin38_Write(0u);
 193              		.loc 1 116 0
 194 007a 0020     		movs	r0, #0
 195 007c FFF7FEFF 		bl	Pin38_Write
 117:.\main.c      ****     Pin39_Write(0u);
 196              		.loc 1 117 0
 197 0080 0020     		movs	r0, #0
 198 0082 FFF7FEFF 		bl	Pin39_Write
 199              	.L12:
 118:.\main.c      ****     //Pin34_Write(0u);
 119:.\main.c      ****     //Pin35_Write(0u);
 120:.\main.c      ****     
ARM GAS  C:\Users\Matthew\AppData\Local\Temp\ccSwhuqO.s 			page 7


 121:.\main.c      **** //    WaveDAC8_1_Start(); /* Start WaveDAC8  */
 122:.\main.c      **** 
 123:.\main.c      **** 
 124:.\main.c      ****     for(;;)
 125:.\main.c      **** 	{
 126:.\main.c      **** 		if ( ready == 1u ){
 200              		.loc 1 126 0
 201 0086 704B     		ldr	r3, .L13+12
 202 0088 1B78     		ldrb	r3, [r3]	@ zero_extendqisi2
 203 008a 012B     		cmp	r3, #1
 204 008c 40F0B480 		bne	.L3
 127:.\main.c      **** 			iter = 0;
 205              		.loc 1 127 0
 206 0090 714B     		ldr	r3, .L13+28
 207 0092 0022     		movs	r2, #0
 208 0094 1A60     		str	r2, [r3]
 128:.\main.c      **** 			if (clear_packet(data_packet)) {
 209              		.loc 1 128 0
 210 0096 7548     		ldr	r0, .L13+48
 211 0098 FFF7FEFF 		bl	clear_packet
 212 009c 0346     		mov	r3, r0
 213 009e 002B     		cmp	r3, #0
 214 00a0 05D0     		beq	.L4
 129:.\main.c      ****                 packet_len = 0u;
 215              		.loc 1 129 0
 216 00a2 6F4B     		ldr	r3, .L13+36
 217 00a4 0022     		movs	r2, #0
 218 00a6 1A80     		strh	r2, [r3]	@ movhi
 130:.\main.c      ****                 packet_ready = 0u;
 219              		.loc 1 130 0
 220 00a8 6A4B     		ldr	r3, .L13+24
 221 00aa 0022     		movs	r2, #0
 222 00ac 1A70     		strb	r2, [r3]
 223              	.L4:
 131:.\main.c      ****             }
 132:.\main.c      **** 			
 133:.\main.c      **** 			blink_LED(3u);
 224              		.loc 1 133 0
 225 00ae 0320     		movs	r0, #3
 226 00b0 FFF7FEFF 		bl	blink_LED
 134:.\main.c      **** 			
 135:.\main.c      ****             if (ultrasonic_get_reading(&ultrasonic_reading)){
 227              		.loc 1 135 0
 228 00b4 6E48     		ldr	r0, .L13+52
 229 00b6 FFF7FEFF 		bl	ultrasonic_get_reading
 230 00ba 0346     		mov	r3, r0
 231 00bc 002B     		cmp	r3, #0
 232 00be 0DD0     		beq	.L5
 136:.\main.c      ****                 sprintf(data_packet,"%s%s, %d\r\n", data_packet,
 137:.\main.c      ****                     "depth_sonic", (uint16) (ultrasonic_reading.depth));              
 233              		.loc 1 137 0
 234 00c0 6B4B     		ldr	r3, .L13+52
 235 00c2 5B68     		ldr	r3, [r3, #4]	@ float
 236 00c4 1846     		mov	r0, r3
 237 00c6 FFF7FEFF 		bl	__aeabi_f2uiz
 238 00ca 0346     		mov	r3, r0
 239 00cc 9BB2     		uxth	r3, r3
ARM GAS  C:\Users\Matthew\AppData\Local\Temp\ccSwhuqO.s 			page 8


 136:.\main.c      ****                 sprintf(data_packet,"%s%s, %d\r\n", data_packet,
 240              		.loc 1 136 0
 241 00ce 0093     		str	r3, [sp]
 242 00d0 6648     		ldr	r0, .L13+48
 243 00d2 6849     		ldr	r1, .L13+56
 244 00d4 654A     		ldr	r2, .L13+48
 245 00d6 684B     		ldr	r3, .L13+60
 246 00d8 FFF7FEFF 		bl	sprintf
 247              	.L5:
 138:.\main.c      ****             }
 139:.\main.c      **** 			
 140:.\main.c      **** 			blink_LED(3u);
 248              		.loc 1 140 0
 249 00dc 0320     		movs	r0, #3
 250 00de FFF7FEFF 		bl	blink_LED
 141:.\main.c      **** 			
 142:.\main.c      **** 			// Set up the modem and connect to network					
 143:.\main.c      **** 			LED_Write(!LED_Read());
 251              		.loc 1 143 0
 252 00e2 FFF7FEFF 		bl	LED_Read
 253 00e6 0346     		mov	r3, r0
 254 00e8 002B     		cmp	r3, #0
 255 00ea 14BF     		ite	ne
 256 00ec 0023     		movne	r3, #0
 257 00ee 0123     		moveq	r3, #1
 258 00f0 DBB2     		uxtb	r3, r3
 259 00f2 1846     		mov	r0, r3
 260 00f4 FFF7FEFF 		bl	LED_Write
 144:.\main.c      **** 			if (modem_startup()) {
 261              		.loc 1 144 0
 262 00f8 FFF7FEFF 		bl	modem_startup
 263 00fc 0346     		mov	r3, r0
 264 00fe 002B     		cmp	r3, #0
 265 0100 6ED0     		beq	.L6
 145:.\main.c      **** 				//modem_get_serial_number();
 146:.\main.c      **** 
 147:.\main.c      **** 				
 148:.\main.c      **** 				// Send a packet
 149:.\main.c      **** 				LED_Write(!LED_Read());	
 266              		.loc 1 149 0
 267 0102 FFF7FEFF 		bl	LED_Read
 268 0106 0346     		mov	r3, r0
 269 0108 002B     		cmp	r3, #0
 270 010a 14BF     		ite	ne
 271 010c 0023     		movne	r3, #0
 272 010e 0123     		moveq	r3, #1
 273 0110 DBB2     		uxtb	r3, r3
 274 0112 1846     		mov	r0, r3
 275 0114 FFF7FEFF 		bl	LED_Write
 150:.\main.c      **** 				sprintf(data_packet,"%s%s, %u\r\n", data_packet,
 276              		.loc 1 150 0
 277 0118 4C4B     		ldr	r3, .L13+16
 278 011a 1B78     		ldrb	r3, [r3]	@ zero_extendqisi2
 279 011c 0093     		str	r3, [sp]
 280 011e 5348     		ldr	r0, .L13+48
 281 0120 5649     		ldr	r1, .L13+64
 282 0122 524A     		ldr	r2, .L13+48
ARM GAS  C:\Users\Matthew\AppData\Local\Temp\ccSwhuqO.s 			page 9


 283 0124 564B     		ldr	r3, .L13+68
 284 0126 FFF7FEFF 		bl	sprintf
 151:.\main.c      **** 	        		"tmp", loops);  
 152:.\main.c      **** 				ready = modem_send_packet(data_packet);
 285              		.loc 1 152 0
 286 012a 5048     		ldr	r0, .L13+48
 287 012c FFF7FEFF 		bl	modem_send_packet
 288 0130 0346     		mov	r3, r0
 289 0132 1A46     		mov	r2, r3
 290 0134 444B     		ldr	r3, .L13+12
 291 0136 1A70     		strb	r2, [r3]
 153:.\main.c      **** 				CyDelay(5000u);
 292              		.loc 1 153 0
 293 0138 41F28830 		movw	r0, #5000
 294 013c FFF7FEFF 		bl	CyDelay
 154:.\main.c      **** 				
 155:.\main.c      **** 				if (clear_packet(data_packet)) {
 295              		.loc 1 155 0
 296 0140 4A48     		ldr	r0, .L13+48
 297 0142 FFF7FEFF 		bl	clear_packet
 298 0146 0346     		mov	r3, r0
 299 0148 002B     		cmp	r3, #0
 300 014a 05D0     		beq	.L7
 156:.\main.c      **** 	                packet_len = 0u;
 301              		.loc 1 156 0
 302 014c 444B     		ldr	r3, .L13+36
 303 014e 0022     		movs	r2, #0
 304 0150 1A80     		strh	r2, [r3]	@ movhi
 157:.\main.c      **** 	                packet_ready = 0u;
 305              		.loc 1 157 0
 306 0152 404B     		ldr	r3, .L13+24
 307 0154 0022     		movs	r2, #0
 308 0156 1A70     		strb	r2, [r3]
 309              	.L7:
 158:.\main.c      **** 	            }
 159:.\main.c      **** 				
 160:.\main.c      **** 				// Request a packet
 161:.\main.c      **** 				LED_Write(!LED_Read());	
 310              		.loc 1 161 0
 311 0158 FFF7FEFF 		bl	LED_Read
 312 015c 0346     		mov	r3, r0
 313 015e 002B     		cmp	r3, #0
 314 0160 14BF     		ite	ne
 315 0162 0023     		movne	r3, #0
 316 0164 0123     		moveq	r3, #1
 317 0166 DBB2     		uxtb	r3, r3
 318 0168 1846     		mov	r0, r3
 319 016a FFF7FEFF 		bl	LED_Write
 162:.\main.c      **** 				if( modem_get_packet(data_packet,"lock,tmp") ){
 320              		.loc 1 162 0
 321 016e 3F48     		ldr	r0, .L13+48
 322 0170 4449     		ldr	r1, .L13+72
 323 0172 FFF7FEFF 		bl	modem_get_packet
 324 0176 0346     		mov	r3, r0
 325 0178 002B     		cmp	r3, #0
 326 017a 31D0     		beq	.L6
 163:.\main.c      **** 				
ARM GAS  C:\Users\Matthew\AppData\Local\Temp\ccSwhuqO.s 			page 10


 164:.\main.c      **** 					// Code to test moving the actuator 					
 165:.\main.c      **** 					if(packet_get_uint8(data_packet,"lock",&lock)){
 327              		.loc 1 165 0
 328 017c 3B48     		ldr	r0, .L13+48
 329 017e 4249     		ldr	r1, .L13+76
 330 0180 334A     		ldr	r2, .L13+20
 331 0182 FFF7FEFF 		bl	packet_get_uint8
 332 0186 0346     		mov	r3, r0
 333 0188 002B     		cmp	r3, #0
 334 018a 29D0     		beq	.L6
 166:.\main.c      **** 						if(lock == 1u){	
 335              		.loc 1 166 0
 336 018c 304B     		ldr	r3, .L13+20
 337 018e 1B78     		ldrb	r3, [r3]	@ zero_extendqisi2
 338 0190 012B     		cmp	r3, #1
 339 0192 25D1     		bne	.L6
 167:.\main.c      **** 							// Supply power to breakout board
 168:.\main.c      **** 							// This powers the Reed Switch
 169:.\main.c      **** 							Pin2_Write(1u);
 340              		.loc 1 169 0
 341 0194 0120     		movs	r0, #1
 342 0196 FFF7FEFF 		bl	Pin2_Write
 170:.\main.c      **** 							CyDelay(1000u);
 343              		.loc 1 170 0
 344 019a 4FF47A70 		mov	r0, #1000
 345 019e FFF7FEFF 		bl	CyDelay
 171:.\main.c      **** 							
 172:.\main.c      **** 							// Move the actuator out
 173:.\main.c      **** 							Pin17_Write(1u);
 346              		.loc 1 173 0
 347 01a2 0120     		movs	r0, #1
 348 01a4 FFF7FEFF 		bl	Pin17_Write
 174:.\main.c      **** 							CyDelay(3000u);
 349              		.loc 1 174 0
 350 01a8 40F6B830 		movw	r0, #3000
 351 01ac FFF7FEFF 		bl	CyDelay
 175:.\main.c      **** 							Pin17_Write(0u);
 352              		.loc 1 175 0
 353 01b0 0020     		movs	r0, #0
 354 01b2 FFF7FEFF 		bl	Pin17_Write
 176:.\main.c      **** 							
 177:.\main.c      **** 							CyDelay(2000u);
 355              		.loc 1 177 0
 356 01b6 4FF4FA60 		mov	r0, #2000
 357 01ba FFF7FEFF 		bl	CyDelay
 178:.\main.c      **** 							
 179:.\main.c      **** 							// Move the actuator in
 180:.\main.c      **** 							Pin18_Write(1u);
 358              		.loc 1 180 0
 359 01be 0120     		movs	r0, #1
 360 01c0 FFF7FEFF 		bl	Pin18_Write
 181:.\main.c      **** 							CyDelay(3000u);
 361              		.loc 1 181 0
 362 01c4 40F6B830 		movw	r0, #3000
 363 01c8 FFF7FEFF 		bl	CyDelay
 182:.\main.c      **** 							Pin18_Write(0u);
 364              		.loc 1 182 0
ARM GAS  C:\Users\Matthew\AppData\Local\Temp\ccSwhuqO.s 			page 11


 365 01cc 0020     		movs	r0, #0
 366 01ce FFF7FEFF 		bl	Pin18_Write
 183:.\main.c      **** 							
 184:.\main.c      **** 							// Cut power to breakout board
 185:.\main.c      **** 							CyDelay(1000u);
 367              		.loc 1 185 0
 368 01d2 4FF47A70 		mov	r0, #1000
 369 01d6 FFF7FEFF 		bl	CyDelay
 186:.\main.c      **** 							Pin2_Write(0u);
 370              		.loc 1 186 0
 371 01da 0020     		movs	r0, #0
 372 01dc FFF7FEFF 		bl	Pin2_Write
 373              	.L6:
 187:.\main.c      **** 						}
 188:.\main.c      **** 					}	
 189:.\main.c      **** 				}								
 190:.\main.c      **** 				
 191:.\main.c      **** 				/* 
 192:.\main.c      **** 				modem_power_off();
 193:.\main.c      **** 				modem_stop();
 194:.\main.c      **** 				*/
 195:.\main.c      **** 			}
 196:.\main.c      **** 			modem_shutdown();
 374              		.loc 1 196 0
 375 01e0 FFF7FEFF 		bl	modem_shutdown
 197:.\main.c      **** 			
 198:.\main.c      **** 			loops += 10;
 376              		.loc 1 198 0
 377 01e4 194B     		ldr	r3, .L13+16
 378 01e6 1B78     		ldrb	r3, [r3]	@ zero_extendqisi2
 379 01e8 0A33     		adds	r3, r3, #10
 380 01ea DAB2     		uxtb	r2, r3
 381 01ec 174B     		ldr	r3, .L13+16
 382 01ee 1A70     		strb	r2, [r3]
 199:.\main.c      **** 			ready = 0u;
 383              		.loc 1 199 0
 384 01f0 154B     		ldr	r3, .L13+12
 385 01f2 0022     		movs	r2, #0
 386 01f4 1A70     		strb	r2, [r3]
 200:.\main.c      **** 		}
 201:.\main.c      **** 		/* If not ready, update the counter for the sleep timer */
 202:.\main.c      **** 		else {
 203:.\main.c      **** 			/* Blink the LED to indicate sleeping */
 204:.\main.c      **** 			blink_LED(5u);
 205:.\main.c      **** 			
 206:.\main.c      **** 			/* Prepares system clocks for the Sleep mode */
 207:.\main.c      **** 	        CyPmSaveClocks();
 208:.\main.c      **** 
 209:.\main.c      **** 	        do
 210:.\main.c      **** 	        {
 211:.\main.c      **** 	            /*******************************************************************
 212:.\main.c      **** 	            * Switch to the Sleep Mode for the other devices:
 213:.\main.c      **** 	            *  - PM_SLEEP_TIME_NONE: wakeup time is defined by Sleep Timer
 214:.\main.c      **** 	            *  - PM_SLEEP_SRC_CTW :  wakeup on CTW sources is allowed
 215:.\main.c      **** 	            *******************************************************************/
 216:.\main.c      **** 	            CyPmSleep(PM_SLEEP_TIME_NONE, PM_SLEEP_SRC_CTW);
 217:.\main.c      **** 
ARM GAS  C:\Users\Matthew\AppData\Local\Temp\ccSwhuqO.s 			page 12


 218:.\main.c      **** 
 219:.\main.c      **** 	            /***********************************************************************
 220:.\main.c      **** 	            * After the device is woken up the Sleep Timer's ISR is executed.
 221:.\main.c      **** 	            * Afterwards the CyPmSleep() execution is finished the clock
 222:.\main.c      **** 	            * configuration is restored.
 223:.\main.c      **** 	            ***********************************************************************/
 224:.\main.c      **** 	            if(SLEEPTIMER_INTERVAL_COUNTER == wakeup_interval_counter)
 225:.\main.c      **** 	            {
 226:.\main.c      **** 	                /* Blink with LED */
 227:.\main.c      **** 	                //(0u == LED_P1_2_Read()) ? LED_P1_2_Write(1u) : LED_P1_2_Write(0u);
 228:.\main.c      **** 	                wakeup_interval_counter = 0u;
 229:.\main.c      **** 					ready = 1u;
 230:.\main.c      **** 	            }
 231:.\main.c      **** 	            else
 232:.\main.c      **** 	            {
 233:.\main.c      **** 	                wakeup_interval_counter++;
 234:.\main.c      **** 	            }
 235:.\main.c      **** 	                
 236:.\main.c      **** 	        } while (wakeup_interval_counter != 0u);
 237:.\main.c      **** 	        
 238:.\main.c      **** 
 239:.\main.c      **** 	        /* Restore clock configuration */
 240:.\main.c      **** 	        CyPmRestoreClocks();
 241:.\main.c      **** 		}
 242:.\main.c      **** 		
 243:.\main.c      **** 		/*
 244:.\main.c      ****         // Place your application code here.
 245:.\main.c      ****         Pin37_Write(!Pin37_Read());
 246:.\main.c      ****         
 247:.\main.c      ****         clear_packet(data_packet);
 248:.\main.c      ****         sprintf(data_packet,"%s, %u\r\n", "tmp", iter);
 249:.\main.c      ****         
 250:.\main.c      ****         modem_connect();
 251:.\main.c      ****         LED_Write(!LED_Read());
 252:.\main.c      ****         
 253:.\main.c      ****         // modem_state should now be IDLE or READY
 254:.\main.c      ****         //modem_send_packet(data_packet);        
 255:.\main.c      ****         modem_get_google(); //Can't get to work
 256:.\main.c      ****                
 257:.\main.c      ****         if (tmp > 10) {
 258:.\main.c      ****             sign = -1;
 259:.\main.c      ****         } else if (tmp < -10) {
 260:.\main.c      ****             sign = 1;
 261:.\main.c      ****         }
 262:.\main.c      ****         tmp = tmp + sign;        
 263:.\main.c      ****         
 264:.\main.c      ****         
 265:.\main.c      ****         Pin37_Write(!Pin37_Read());
 266:.\main.c      ****         LED_Write(!LED_Read());
 267:.\main.c      ****         CyDelay(100u);  
 268:.\main.c      ****         
 269:.\main.c      ****         modem_get_time();
 270:.\main.c      ****         Pin38_Write(!Pin38_Read());
 271:.\main.c      ****         LED_Write(!LED_Read());
 272:.\main.c      ****         CyDelay(100u);      
 273:.\main.c      ****         
 274:.\main.c      ****         modem_get_signal_quality();
ARM GAS  C:\Users\Matthew\AppData\Local\Temp\ccSwhuqO.s 			page 13


 275:.\main.c      ****         Pin39_Write(!Pin39_Read());
 276:.\main.c      ****         LED_Write(!LED_Read());
 277:.\main.c      ****         CyDelay(100u);  
 278:.\main.c      ****         
 279:.\main.c      ****         modem_check_network();
 280:.\main.c      ****         //Pin34_Write(!Pin34_Read());
 281:.\main.c      ****         LED_Write(!LED_Read());
 282:.\main.c      ****         CyDelay(100u);  
 283:.\main.c      ****         
 284:.\main.c      ****         modem_get_serial_number();
 285:.\main.c      ****         //modem_disconnect();
 286:.\main.c      ****         //Pin35_Write(!Pin35_Read());
 287:.\main.c      ****         LED_Write(!LED_Read());
 288:.\main.c      ****         CyDelay(100u);   
 289:.\main.c      ****         
 290:.\main.c      ****         ADC_SAR_1_StartConvert();
 291:.\main.c      ****         ADC_SAR_1_IsEndConversion(ADC_SAR_1_WAIT_FOR_RESULT);
 292:.\main.c      ****         v_out = ADC_SAR_1_CountsTo_Volts(ADC_SAR_1_GetResult16());        
 293:.\main.c      ****         //v_out = Pin30_Read();
 294:.\main.c      ****         Pin25_Write(v_out);
 295:.\main.c      **** 		*/
 296:.\main.c      ****     }
 387              		.loc 1 296 0
 388 01f6 46E7     		b	.L12
 389              	.L3:
 204:.\main.c      **** 			blink_LED(5u);
 390              		.loc 1 204 0
 391 01f8 0520     		movs	r0, #5
 392 01fa FFF7FEFF 		bl	blink_LED
 207:.\main.c      **** 	        CyPmSaveClocks();
 393              		.loc 1 207 0
 394 01fe FFF7FEFF 		bl	CyPmSaveClocks
 395              	.L11:
 216:.\main.c      **** 	            CyPmSleep(PM_SLEEP_TIME_NONE, PM_SLEEP_SRC_CTW);
 396              		.loc 1 216 0
 397 0202 0020     		movs	r0, #0
 398 0204 4FF40061 		mov	r1, #2048
 399 0208 FFF7FEFF 		bl	CyPmSleep
 224:.\main.c      **** 	            if(SLEEPTIMER_INTERVAL_COUNTER == wakeup_interval_counter)
 400              		.loc 1 224 0
 401 020c 154B     		ldr	r3, .L13+40
 402 020e 1B68     		ldr	r3, [r3]
 403 0210 B3F5EB7F 		cmp	r3, #470
 404 0214 06D1     		bne	.L9
 228:.\main.c      **** 	                wakeup_interval_counter = 0u;
 405              		.loc 1 228 0
 406 0216 134B     		ldr	r3, .L13+40
 407 0218 0022     		movs	r2, #0
 408 021a 1A60     		str	r2, [r3]
 229:.\main.c      **** 					ready = 1u;
 409              		.loc 1 229 0
 410 021c 0A4B     		ldr	r3, .L13+12
 411 021e 0122     		movs	r2, #1
 412 0220 1A70     		strb	r2, [r3]
 413 0222 04E0     		b	.L10
 414              	.L9:
 233:.\main.c      **** 	                wakeup_interval_counter++;
ARM GAS  C:\Users\Matthew\AppData\Local\Temp\ccSwhuqO.s 			page 14


 415              		.loc 1 233 0
 416 0224 0F4B     		ldr	r3, .L13+40
 417 0226 1B68     		ldr	r3, [r3]
 418 0228 5A1C     		adds	r2, r3, #1
 419 022a 0E4B     		ldr	r3, .L13+40
 420 022c 1A60     		str	r2, [r3]
 421              	.L10:
 236:.\main.c      **** 	        } while (wakeup_interval_counter != 0u);
 422              		.loc 1 236 0
 423 022e 0D4B     		ldr	r3, .L13+40
 424 0230 1B68     		ldr	r3, [r3]
 425 0232 002B     		cmp	r3, #0
 426 0234 E5D1     		bne	.L11
 240:.\main.c      **** 	        CyPmRestoreClocks();
 427              		.loc 1 240 0
 428 0236 FFF7FEFF 		bl	CyPmRestoreClocks
 429              		.loc 1 296 0
 430 023a 24E7     		b	.L12
 431              	.L14:
 432              		.align	2
 433              	.L13:
 434 023c 00000000 		.word	Wakeup_ISR
 435 0240 00000000 		.word	API_KEY
 436 0244 50369D67 		.word	1738356304
 437 0248 00000000 		.word	ready
 438 024c 00000000 		.word	loops
 439 0250 00000000 		.word	lock
 440 0254 00000000 		.word	packet_ready
 441 0258 00000000 		.word	iter
 442 025c 00000000 		.word	sign
 443 0260 00000000 		.word	packet_len
 444 0264 00000000 		.word	wakeup_interval_counter
 445 0268 00000000 		.word	v_out
 446 026c 00000000 		.word	data_packet
 447 0270 00000000 		.word	ultrasonic_reading
 448 0274 34000000 		.word	.LC1
 449 0278 40000000 		.word	.LC2
 450 027c 4C000000 		.word	.LC3
 451 0280 58000000 		.word	.LC4
 452 0284 5C000000 		.word	.LC5
 453 0288 68000000 		.word	.LC6
 454              		.cfi_endproc
 455              	.LFE57:
 456              		.size	main, .-main
 457              		.section	.text.blink_LED,"ax",%progbits
 458              		.align	2
 459              		.global	blink_LED
 460              		.thumb
 461              		.thumb_func
 462              		.type	blink_LED, %function
 463              	blink_LED:
 464              	.LFB58:
 297:.\main.c      **** 	
 298:.\main.c      **** 	/*
 299:.\main.c      **** 	modem_power_off();  
 300:.\main.c      **** 	modem_stop();
 301:.\main.c      **** 	
ARM GAS  C:\Users\Matthew\AppData\Local\Temp\ccSwhuqO.s 			page 15


 302:.\main.c      **** 	blink_LED(3u);		
 303:.\main.c      **** 	CyPmSaveClocks();
 304:.\main.c      **** 	CyPmHibernate();
 305:.\main.c      **** 	*/
 306:.\main.c      **** }
 307:.\main.c      **** 
 308:.\main.c      **** uint8 blink_LED(uint8 n_blinks) {
 465              		.loc 1 308 0
 466              		.cfi_startproc
 467              		@ args = 0, pretend = 0, frame = 16
 468              		@ frame_needed = 1, uses_anonymous_args = 0
 469 0000 80B5     		push	{r7, lr}
 470              		.cfi_def_cfa_offset 8
 471              		.cfi_offset 7, -8
 472              		.cfi_offset 14, -4
 473 0002 84B0     		sub	sp, sp, #16
 474              		.cfi_def_cfa_offset 24
 475 0004 00AF     		add	r7, sp, #0
 476              		.cfi_def_cfa_register 7
 477 0006 0346     		mov	r3, r0
 478 0008 FB71     		strb	r3, [r7, #7]
 309:.\main.c      **** 	uint8 k;
 310:.\main.c      **** 	for (k = 0; k < n_blinks; k++) {
 479              		.loc 1 310 0
 480 000a 0023     		movs	r3, #0
 481 000c FB73     		strb	r3, [r7, #15]
 482 000e 0EE0     		b	.L16
 483              	.L17:
 311:.\main.c      **** 		LED_Write(1u);
 484              		.loc 1 311 0 discriminator 2
 485 0010 0120     		movs	r0, #1
 486 0012 FFF7FEFF 		bl	LED_Write
 312:.\main.c      **** 		CyDelay(200u);
 487              		.loc 1 312 0 discriminator 2
 488 0016 C820     		movs	r0, #200
 489 0018 FFF7FEFF 		bl	CyDelay
 313:.\main.c      **** 		LED_Write(0u);
 490              		.loc 1 313 0 discriminator 2
 491 001c 0020     		movs	r0, #0
 492 001e FFF7FEFF 		bl	LED_Write
 314:.\main.c      **** 		CyDelay(200u);
 493              		.loc 1 314 0 discriminator 2
 494 0022 C820     		movs	r0, #200
 495 0024 FFF7FEFF 		bl	CyDelay
 310:.\main.c      **** 	for (k = 0; k < n_blinks; k++) {
 496              		.loc 1 310 0 discriminator 2
 497 0028 FB7B     		ldrb	r3, [r7, #15]	@ zero_extendqisi2
 498 002a 0133     		adds	r3, r3, #1
 499 002c FB73     		strb	r3, [r7, #15]
 500              	.L16:
 310:.\main.c      **** 	for (k = 0; k < n_blinks; k++) {
 501              		.loc 1 310 0 is_stmt 0 discriminator 1
 502 002e FA7B     		ldrb	r2, [r7, #15]	@ zero_extendqisi2
 503 0030 FB79     		ldrb	r3, [r7, #7]	@ zero_extendqisi2
 504 0032 9A42     		cmp	r2, r3
 505 0034 ECD3     		bcc	.L17
 315:.\main.c      **** 	}	
ARM GAS  C:\Users\Matthew\AppData\Local\Temp\ccSwhuqO.s 			page 16


 316:.\main.c      **** }
 506              		.loc 1 316 0 is_stmt 1
 507 0036 1846     		mov	r0, r3
 508 0038 1037     		adds	r7, r7, #16
 509 003a BD46     		mov	sp, r7
 510              		@ sp needed
 511 003c 80BD     		pop	{r7, pc}
 512              		.cfi_endproc
 513              	.LFE58:
 514              		.size	blink_LED, .-blink_LED
 515 003e 00BF     		.text
 516              	.Letext0:
 517              		.file 2 "c:\\program files (x86)\\cypress\\psoc creator\\3.2\\psoc creator\\import\\gnu\\arm\\4.8.
 518              		.file 3 "c:\\program files (x86)\\cypress\\psoc creator\\3.2\\psoc creator\\import\\gnu\\arm\\4.8.
 519              		.file 4 "Generated_Source\\PSoC5/cytypes.h"
 520              		.file 5 ".\\ultrasonic.h"
 521              		.file 6 "Generated_Source\\PSoC5/core_cm3.h"
 522              		.section	.debug_info,"",%progbits
 523              	.Ldebug_info0:
 524 0000 66020000 		.4byte	0x266
 525 0004 0400     		.2byte	0x4
 526 0006 00000000 		.4byte	.Ldebug_abbrev0
 527 000a 04       		.byte	0x4
 528 000b 01       		.uleb128 0x1
 529 000c 4C010000 		.4byte	.LASF36
 530 0010 01       		.byte	0x1
 531 0011 AF000000 		.4byte	.LASF37
 532 0015 55000000 		.4byte	.LASF38
 533 0019 00000000 		.4byte	.Ldebug_ranges0+0
 534 001d 00000000 		.4byte	0
 535 0021 00000000 		.4byte	.Ldebug_line0
 536 0025 02       		.uleb128 0x2
 537 0026 01       		.byte	0x1
 538 0027 06       		.byte	0x6
 539 0028 22020000 		.4byte	.LASF0
 540 002c 02       		.uleb128 0x2
 541 002d 01       		.byte	0x1
 542 002e 08       		.byte	0x8
 543 002f A1000000 		.4byte	.LASF1
 544 0033 02       		.uleb128 0x2
 545 0034 02       		.byte	0x2
 546 0035 05       		.byte	0x5
 547 0036 03020000 		.4byte	.LASF2
 548 003a 02       		.uleb128 0x2
 549 003b 02       		.byte	0x2
 550 003c 07       		.byte	0x7
 551 003d 27000000 		.4byte	.LASF3
 552 0041 03       		.uleb128 0x3
 553 0042 18000000 		.4byte	.LASF9
 554 0046 02       		.byte	0x2
 555 0047 37       		.byte	0x37
 556 0048 4C000000 		.4byte	0x4c
 557 004c 02       		.uleb128 0x2
 558 004d 04       		.byte	0x4
 559 004e 05       		.byte	0x5
 560 004f 19020000 		.4byte	.LASF4
 561 0053 02       		.uleb128 0x2
ARM GAS  C:\Users\Matthew\AppData\Local\Temp\ccSwhuqO.s 			page 17


 562 0054 04       		.byte	0x4
 563 0055 07       		.byte	0x7
 564 0056 EB000000 		.4byte	.LASF5
 565 005a 02       		.uleb128 0x2
 566 005b 08       		.byte	0x8
 567 005c 05       		.byte	0x5
 568 005d D9010000 		.4byte	.LASF6
 569 0061 02       		.uleb128 0x2
 570 0062 08       		.byte	0x8
 571 0063 07       		.byte	0x7
 572 0064 23010000 		.4byte	.LASF7
 573 0068 04       		.uleb128 0x4
 574 0069 04       		.byte	0x4
 575 006a 05       		.byte	0x5
 576 006b 696E7400 		.ascii	"int\000"
 577 006f 02       		.uleb128 0x2
 578 0070 04       		.byte	0x4
 579 0071 07       		.byte	0x7
 580 0072 10010000 		.4byte	.LASF8
 581 0076 03       		.uleb128 0x3
 582 0077 C8010000 		.4byte	.LASF10
 583 007b 03       		.byte	0x3
 584 007c 41       		.byte	0x41
 585 007d 41000000 		.4byte	0x41
 586 0081 03       		.uleb128 0x3
 587 0082 0D020000 		.4byte	.LASF11
 588 0086 04       		.byte	0x4
 589 0087 A1       		.byte	0xa1
 590 0088 2C000000 		.4byte	0x2c
 591 008c 03       		.uleb128 0x3
 592 008d 02010000 		.4byte	.LASF12
 593 0091 04       		.byte	0x4
 594 0092 A2       		.byte	0xa2
 595 0093 3A000000 		.4byte	0x3a
 596 0097 03       		.uleb128 0x3
 597 0098 09010000 		.4byte	.LASF13
 598 009c 04       		.byte	0x4
 599 009d A3       		.byte	0xa3
 600 009e 53000000 		.4byte	0x53
 601 00a2 02       		.uleb128 0x2
 602 00a3 04       		.byte	0x4
 603 00a4 04       		.byte	0x4
 604 00a5 92000000 		.4byte	.LASF14
 605 00a9 02       		.uleb128 0x2
 606 00aa 08       		.byte	0x8
 607 00ab 04       		.byte	0x4
 608 00ac 45000000 		.4byte	.LASF15
 609 00b0 02       		.uleb128 0x2
 610 00b1 01       		.byte	0x1
 611 00b2 08       		.byte	0x8
 612 00b3 ED010000 		.4byte	.LASF16
 613 00b7 02       		.uleb128 0x2
 614 00b8 04       		.byte	0x4
 615 00b9 07       		.byte	0x7
 616 00ba D0010000 		.4byte	.LASF17
 617 00be 05       		.uleb128 0x5
 618 00bf 04       		.byte	0x4
ARM GAS  C:\Users\Matthew\AppData\Local\Temp\ccSwhuqO.s 			page 18


 619 00c0 C4000000 		.4byte	0xc4
 620 00c4 06       		.uleb128 0x6
 621 00c5 B0000000 		.4byte	0xb0
 622 00c9 07       		.uleb128 0x7
 623 00ca 0C       		.byte	0xc
 624 00cb 05       		.byte	0x5
 625 00cc 15       		.byte	0x15
 626 00cd F6000000 		.4byte	0xf6
 627 00d1 08       		.uleb128 0x8
 628 00d2 00000000 		.4byte	.LASF18
 629 00d6 05       		.byte	0x5
 630 00d7 16       		.byte	0x16
 631 00d8 A2000000 		.4byte	0xa2
 632 00dc 00       		.byte	0
 633 00dd 08       		.uleb128 0x8
 634 00de E7010000 		.4byte	.LASF19
 635 00e2 05       		.byte	0x5
 636 00e3 17       		.byte	0x17
 637 00e4 A2000000 		.4byte	0xa2
 638 00e8 04       		.byte	0x4
 639 00e9 08       		.uleb128 0x8
 640 00ea F2010000 		.4byte	.LASF20
 641 00ee 05       		.byte	0x5
 642 00ef 18       		.byte	0x18
 643 00f0 81000000 		.4byte	0x81
 644 00f4 08       		.byte	0x8
 645 00f5 00       		.byte	0
 646 00f6 03       		.uleb128 0x3
 647 00f7 3A010000 		.4byte	.LASF21
 648 00fb 05       		.byte	0x5
 649 00fc 19       		.byte	0x19
 650 00fd C9000000 		.4byte	0xc9
 651 0101 09       		.uleb128 0x9
 652 0102 F8010000 		.4byte	.LASF39
 653 0106 01       		.byte	0x1
 654 0107 36       		.byte	0x36
 655 0108 00000000 		.4byte	.LFB56
 656 010c 0A000000 		.4byte	.LFE56-.LFB56
 657 0110 01       		.uleb128 0x1
 658 0111 9C       		.byte	0x9c
 659 0112 0A       		.uleb128 0xa
 660 0113 FD000000 		.4byte	.LASF40
 661 0117 01       		.byte	0x1
 662 0118 41       		.byte	0x41
 663 0119 00000000 		.4byte	.LFB57
 664 011d 8C020000 		.4byte	.LFE57-.LFB57
 665 0121 01       		.uleb128 0x1
 666 0122 9C       		.byte	0x9c
 667 0123 0B       		.uleb128 0xb
 668 0124 33020000 		.4byte	.LASF41
 669 0128 01       		.byte	0x1
 670 0129 3401     		.2byte	0x134
 671 012b 81000000 		.4byte	0x81
 672 012f 00000000 		.4byte	.LFB58
 673 0133 3E000000 		.4byte	.LFE58-.LFB58
 674 0137 01       		.uleb128 0x1
 675 0138 9C       		.byte	0x9c
ARM GAS  C:\Users\Matthew\AppData\Local\Temp\ccSwhuqO.s 			page 19


 676 0139 5A010000 		.4byte	0x15a
 677 013d 0C       		.uleb128 0xc
 678 013e 98000000 		.4byte	.LASF42
 679 0142 01       		.byte	0x1
 680 0143 3401     		.2byte	0x134
 681 0145 81000000 		.4byte	0x81
 682 0149 02       		.uleb128 0x2
 683 014a 91       		.byte	0x91
 684 014b 6F       		.sleb128 -17
 685 014c 0D       		.uleb128 0xd
 686 014d 6B00     		.ascii	"k\000"
 687 014f 01       		.byte	0x1
 688 0150 3501     		.2byte	0x135
 689 0152 81000000 		.4byte	0x81
 690 0156 02       		.uleb128 0x2
 691 0157 91       		.byte	0x91
 692 0158 77       		.sleb128 -9
 693 0159 00       		.byte	0
 694 015a 0E       		.uleb128 0xe
 695 015b DE000000 		.4byte	.LASF22
 696 015f 06       		.byte	0x6
 697 0160 1606     		.2byte	0x616
 698 0162 66010000 		.4byte	0x166
 699 0166 0F       		.uleb128 0xf
 700 0167 76000000 		.4byte	0x76
 701 016b 10       		.uleb128 0x10
 702 016c D6000000 		.4byte	.LASF23
 703 0170 01       		.byte	0x1
 704 0171 17       		.byte	0x17
 705 0172 BE000000 		.4byte	0xbe
 706 0176 05       		.uleb128 0x5
 707 0177 03       		.byte	0x3
 708 0178 00000000 		.4byte	API_KEY
 709 017c 11       		.uleb128 0x11
 710 017d B0000000 		.4byte	0xb0
 711 0181 8D010000 		.4byte	0x18d
 712 0185 12       		.uleb128 0x12
 713 0186 B7000000 		.4byte	0xb7
 714 018a E703     		.2byte	0x3e7
 715 018c 00       		.byte	0
 716 018d 10       		.uleb128 0x10
 717 018e BD000000 		.4byte	.LASF24
 718 0192 01       		.byte	0x1
 719 0193 18       		.byte	0x18
 720 0194 7C010000 		.4byte	0x17c
 721 0198 05       		.uleb128 0x5
 722 0199 03       		.byte	0x3
 723 019a 00000000 		.4byte	data_packet
 724 019e 11       		.uleb128 0x11
 725 019f B0000000 		.4byte	0xb0
 726 01a3 AE010000 		.4byte	0x1ae
 727 01a7 13       		.uleb128 0x13
 728 01a8 B7000000 		.4byte	0xb7
 729 01ac 63       		.byte	0x63
 730 01ad 00       		.byte	0
 731 01ae 10       		.uleb128 0x10
 732 01af 4C000000 		.4byte	.LASF25
ARM GAS  C:\Users\Matthew\AppData\Local\Temp\ccSwhuqO.s 			page 20


 733 01b3 01       		.byte	0x1
 734 01b4 18       		.byte	0x18
 735 01b5 9E010000 		.4byte	0x19e
 736 01b9 05       		.uleb128 0x5
 737 01ba 03       		.byte	0x3
 738 01bb 00000000 		.4byte	test_csv
 739 01bf 10       		.uleb128 0x10
 740 01c0 22000000 		.4byte	.LASF26
 741 01c4 01       		.byte	0x1
 742 01c5 19       		.byte	0x19
 743 01c6 68000000 		.4byte	0x68
 744 01ca 05       		.uleb128 0x5
 745 01cb 03       		.byte	0x3
 746 01cc 00000000 		.4byte	iter
 747 01d0 10       		.uleb128 0x10
 748 01d1 B8000000 		.4byte	.LASF27
 749 01d5 01       		.byte	0x1
 750 01d6 19       		.byte	0x19
 751 01d7 68000000 		.4byte	0x68
 752 01db 05       		.uleb128 0x5
 753 01dc 03       		.byte	0x3
 754 01dd 00000000 		.4byte	sign
 755 01e1 10       		.uleb128 0x10
 756 01e2 1D010000 		.4byte	.LASF28
 757 01e6 01       		.byte	0x1
 758 01e7 1A       		.byte	0x1a
 759 01e8 81000000 		.4byte	0x81
 760 01ec 05       		.uleb128 0x5
 761 01ed 03       		.byte	0x3
 762 01ee 00000000 		.4byte	ready
 763 01f2 10       		.uleb128 0x10
 764 01f3 8C000000 		.4byte	.LASF29
 765 01f7 01       		.byte	0x1
 766 01f8 1A       		.byte	0x1a
 767 01f9 81000000 		.4byte	0x81
 768 01fd 05       		.uleb128 0x5
 769 01fe 03       		.byte	0x3
 770 01ff 00000000 		.4byte	loops
 771 0203 10       		.uleb128 0x10
 772 0204 2E020000 		.4byte	.LASF30
 773 0208 01       		.byte	0x1
 774 0209 1A       		.byte	0x1a
 775 020a 81000000 		.4byte	0x81
 776 020e 05       		.uleb128 0x5
 777 020f 03       		.byte	0x3
 778 0210 00000000 		.4byte	lock
 779 0214 10       		.uleb128 0x10
 780 0215 C9000000 		.4byte	.LASF31
 781 0219 01       		.byte	0x1
 782 021a 1A       		.byte	0x1a
 783 021b 81000000 		.4byte	0x81
 784 021f 05       		.uleb128 0x5
 785 0220 03       		.byte	0x3
 786 0221 00000000 		.4byte	packet_ready
 787 0225 10       		.uleb128 0x10
 788 0226 3A000000 		.4byte	.LASF32
 789 022a 01       		.byte	0x1
ARM GAS  C:\Users\Matthew\AppData\Local\Temp\ccSwhuqO.s 			page 21


 790 022b 1B       		.byte	0x1b
 791 022c 8C000000 		.4byte	0x8c
 792 0230 05       		.uleb128 0x5
 793 0231 03       		.byte	0x3
 794 0232 00000000 		.4byte	packet_len
 795 0236 10       		.uleb128 0x10
 796 0237 3D020000 		.4byte	.LASF33
 797 023b 01       		.byte	0x1
 798 023c 1C       		.byte	0x1c
 799 023d 97000000 		.4byte	0x97
 800 0241 05       		.uleb128 0x5
 801 0242 03       		.byte	0x3
 802 0243 00000000 		.4byte	wakeup_interval_counter
 803 0247 10       		.uleb128 0x10
 804 0248 05000000 		.4byte	.LASF34
 805 024c 01       		.byte	0x1
 806 024d 1D       		.byte	0x1d
 807 024e F6000000 		.4byte	0xf6
 808 0252 05       		.uleb128 0x5
 809 0253 03       		.byte	0x3
 810 0254 00000000 		.4byte	ultrasonic_reading
 811 0258 10       		.uleb128 0x10
 812 0259 13020000 		.4byte	.LASF35
 813 025d 01       		.byte	0x1
 814 025e 34       		.byte	0x34
 815 025f A2000000 		.4byte	0xa2
 816 0263 05       		.uleb128 0x5
 817 0264 03       		.byte	0x3
 818 0265 00000000 		.4byte	v_out
 819 0269 00       		.byte	0
 820              		.section	.debug_abbrev,"",%progbits
 821              	.Ldebug_abbrev0:
 822 0000 01       		.uleb128 0x1
 823 0001 11       		.uleb128 0x11
 824 0002 01       		.byte	0x1
 825 0003 25       		.uleb128 0x25
 826 0004 0E       		.uleb128 0xe
 827 0005 13       		.uleb128 0x13
 828 0006 0B       		.uleb128 0xb
 829 0007 03       		.uleb128 0x3
 830 0008 0E       		.uleb128 0xe
 831 0009 1B       		.uleb128 0x1b
 832 000a 0E       		.uleb128 0xe
 833 000b 55       		.uleb128 0x55
 834 000c 17       		.uleb128 0x17
 835 000d 11       		.uleb128 0x11
 836 000e 01       		.uleb128 0x1
 837 000f 10       		.uleb128 0x10
 838 0010 17       		.uleb128 0x17
 839 0011 00       		.byte	0
 840 0012 00       		.byte	0
 841 0013 02       		.uleb128 0x2
 842 0014 24       		.uleb128 0x24
 843 0015 00       		.byte	0
 844 0016 0B       		.uleb128 0xb
 845 0017 0B       		.uleb128 0xb
 846 0018 3E       		.uleb128 0x3e
ARM GAS  C:\Users\Matthew\AppData\Local\Temp\ccSwhuqO.s 			page 22


 847 0019 0B       		.uleb128 0xb
 848 001a 03       		.uleb128 0x3
 849 001b 0E       		.uleb128 0xe
 850 001c 00       		.byte	0
 851 001d 00       		.byte	0
 852 001e 03       		.uleb128 0x3
 853 001f 16       		.uleb128 0x16
 854 0020 00       		.byte	0
 855 0021 03       		.uleb128 0x3
 856 0022 0E       		.uleb128 0xe
 857 0023 3A       		.uleb128 0x3a
 858 0024 0B       		.uleb128 0xb
 859 0025 3B       		.uleb128 0x3b
 860 0026 0B       		.uleb128 0xb
 861 0027 49       		.uleb128 0x49
 862 0028 13       		.uleb128 0x13
 863 0029 00       		.byte	0
 864 002a 00       		.byte	0
 865 002b 04       		.uleb128 0x4
 866 002c 24       		.uleb128 0x24
 867 002d 00       		.byte	0
 868 002e 0B       		.uleb128 0xb
 869 002f 0B       		.uleb128 0xb
 870 0030 3E       		.uleb128 0x3e
 871 0031 0B       		.uleb128 0xb
 872 0032 03       		.uleb128 0x3
 873 0033 08       		.uleb128 0x8
 874 0034 00       		.byte	0
 875 0035 00       		.byte	0
 876 0036 05       		.uleb128 0x5
 877 0037 0F       		.uleb128 0xf
 878 0038 00       		.byte	0
 879 0039 0B       		.uleb128 0xb
 880 003a 0B       		.uleb128 0xb
 881 003b 49       		.uleb128 0x49
 882 003c 13       		.uleb128 0x13
 883 003d 00       		.byte	0
 884 003e 00       		.byte	0
 885 003f 06       		.uleb128 0x6
 886 0040 26       		.uleb128 0x26
 887 0041 00       		.byte	0
 888 0042 49       		.uleb128 0x49
 889 0043 13       		.uleb128 0x13
 890 0044 00       		.byte	0
 891 0045 00       		.byte	0
 892 0046 07       		.uleb128 0x7
 893 0047 13       		.uleb128 0x13
 894 0048 01       		.byte	0x1
 895 0049 0B       		.uleb128 0xb
 896 004a 0B       		.uleb128 0xb
 897 004b 3A       		.uleb128 0x3a
 898 004c 0B       		.uleb128 0xb
 899 004d 3B       		.uleb128 0x3b
 900 004e 0B       		.uleb128 0xb
 901 004f 01       		.uleb128 0x1
 902 0050 13       		.uleb128 0x13
 903 0051 00       		.byte	0
ARM GAS  C:\Users\Matthew\AppData\Local\Temp\ccSwhuqO.s 			page 23


 904 0052 00       		.byte	0
 905 0053 08       		.uleb128 0x8
 906 0054 0D       		.uleb128 0xd
 907 0055 00       		.byte	0
 908 0056 03       		.uleb128 0x3
 909 0057 0E       		.uleb128 0xe
 910 0058 3A       		.uleb128 0x3a
 911 0059 0B       		.uleb128 0xb
 912 005a 3B       		.uleb128 0x3b
 913 005b 0B       		.uleb128 0xb
 914 005c 49       		.uleb128 0x49
 915 005d 13       		.uleb128 0x13
 916 005e 38       		.uleb128 0x38
 917 005f 0B       		.uleb128 0xb
 918 0060 00       		.byte	0
 919 0061 00       		.byte	0
 920 0062 09       		.uleb128 0x9
 921 0063 2E       		.uleb128 0x2e
 922 0064 00       		.byte	0
 923 0065 3F       		.uleb128 0x3f
 924 0066 19       		.uleb128 0x19
 925 0067 03       		.uleb128 0x3
 926 0068 0E       		.uleb128 0xe
 927 0069 3A       		.uleb128 0x3a
 928 006a 0B       		.uleb128 0xb
 929 006b 3B       		.uleb128 0x3b
 930 006c 0B       		.uleb128 0xb
 931 006d 27       		.uleb128 0x27
 932 006e 19       		.uleb128 0x19
 933 006f 11       		.uleb128 0x11
 934 0070 01       		.uleb128 0x1
 935 0071 12       		.uleb128 0x12
 936 0072 06       		.uleb128 0x6
 937 0073 40       		.uleb128 0x40
 938 0074 18       		.uleb128 0x18
 939 0075 9642     		.uleb128 0x2116
 940 0077 19       		.uleb128 0x19
 941 0078 00       		.byte	0
 942 0079 00       		.byte	0
 943 007a 0A       		.uleb128 0xa
 944 007b 2E       		.uleb128 0x2e
 945 007c 00       		.byte	0
 946 007d 3F       		.uleb128 0x3f
 947 007e 19       		.uleb128 0x19
 948 007f 03       		.uleb128 0x3
 949 0080 0E       		.uleb128 0xe
 950 0081 3A       		.uleb128 0x3a
 951 0082 0B       		.uleb128 0xb
 952 0083 3B       		.uleb128 0x3b
 953 0084 0B       		.uleb128 0xb
 954 0085 11       		.uleb128 0x11
 955 0086 01       		.uleb128 0x1
 956 0087 12       		.uleb128 0x12
 957 0088 06       		.uleb128 0x6
 958 0089 40       		.uleb128 0x40
 959 008a 18       		.uleb128 0x18
 960 008b 9642     		.uleb128 0x2116
ARM GAS  C:\Users\Matthew\AppData\Local\Temp\ccSwhuqO.s 			page 24


 961 008d 19       		.uleb128 0x19
 962 008e 00       		.byte	0
 963 008f 00       		.byte	0
 964 0090 0B       		.uleb128 0xb
 965 0091 2E       		.uleb128 0x2e
 966 0092 01       		.byte	0x1
 967 0093 3F       		.uleb128 0x3f
 968 0094 19       		.uleb128 0x19
 969 0095 03       		.uleb128 0x3
 970 0096 0E       		.uleb128 0xe
 971 0097 3A       		.uleb128 0x3a
 972 0098 0B       		.uleb128 0xb
 973 0099 3B       		.uleb128 0x3b
 974 009a 05       		.uleb128 0x5
 975 009b 27       		.uleb128 0x27
 976 009c 19       		.uleb128 0x19
 977 009d 49       		.uleb128 0x49
 978 009e 13       		.uleb128 0x13
 979 009f 11       		.uleb128 0x11
 980 00a0 01       		.uleb128 0x1
 981 00a1 12       		.uleb128 0x12
 982 00a2 06       		.uleb128 0x6
 983 00a3 40       		.uleb128 0x40
 984 00a4 18       		.uleb128 0x18
 985 00a5 9642     		.uleb128 0x2116
 986 00a7 19       		.uleb128 0x19
 987 00a8 01       		.uleb128 0x1
 988 00a9 13       		.uleb128 0x13
 989 00aa 00       		.byte	0
 990 00ab 00       		.byte	0
 991 00ac 0C       		.uleb128 0xc
 992 00ad 05       		.uleb128 0x5
 993 00ae 00       		.byte	0
 994 00af 03       		.uleb128 0x3
 995 00b0 0E       		.uleb128 0xe
 996 00b1 3A       		.uleb128 0x3a
 997 00b2 0B       		.uleb128 0xb
 998 00b3 3B       		.uleb128 0x3b
 999 00b4 05       		.uleb128 0x5
 1000 00b5 49       		.uleb128 0x49
 1001 00b6 13       		.uleb128 0x13
 1002 00b7 02       		.uleb128 0x2
 1003 00b8 18       		.uleb128 0x18
 1004 00b9 00       		.byte	0
 1005 00ba 00       		.byte	0
 1006 00bb 0D       		.uleb128 0xd
 1007 00bc 34       		.uleb128 0x34
 1008 00bd 00       		.byte	0
 1009 00be 03       		.uleb128 0x3
 1010 00bf 08       		.uleb128 0x8
 1011 00c0 3A       		.uleb128 0x3a
 1012 00c1 0B       		.uleb128 0xb
 1013 00c2 3B       		.uleb128 0x3b
 1014 00c3 05       		.uleb128 0x5
 1015 00c4 49       		.uleb128 0x49
 1016 00c5 13       		.uleb128 0x13
 1017 00c6 02       		.uleb128 0x2
ARM GAS  C:\Users\Matthew\AppData\Local\Temp\ccSwhuqO.s 			page 25


 1018 00c7 18       		.uleb128 0x18
 1019 00c8 00       		.byte	0
 1020 00c9 00       		.byte	0
 1021 00ca 0E       		.uleb128 0xe
 1022 00cb 34       		.uleb128 0x34
 1023 00cc 00       		.byte	0
 1024 00cd 03       		.uleb128 0x3
 1025 00ce 0E       		.uleb128 0xe
 1026 00cf 3A       		.uleb128 0x3a
 1027 00d0 0B       		.uleb128 0xb
 1028 00d1 3B       		.uleb128 0x3b
 1029 00d2 05       		.uleb128 0x5
 1030 00d3 49       		.uleb128 0x49
 1031 00d4 13       		.uleb128 0x13
 1032 00d5 3F       		.uleb128 0x3f
 1033 00d6 19       		.uleb128 0x19
 1034 00d7 3C       		.uleb128 0x3c
 1035 00d8 19       		.uleb128 0x19
 1036 00d9 00       		.byte	0
 1037 00da 00       		.byte	0
 1038 00db 0F       		.uleb128 0xf
 1039 00dc 35       		.uleb128 0x35
 1040 00dd 00       		.byte	0
 1041 00de 49       		.uleb128 0x49
 1042 00df 13       		.uleb128 0x13
 1043 00e0 00       		.byte	0
 1044 00e1 00       		.byte	0
 1045 00e2 10       		.uleb128 0x10
 1046 00e3 34       		.uleb128 0x34
 1047 00e4 00       		.byte	0
 1048 00e5 03       		.uleb128 0x3
 1049 00e6 0E       		.uleb128 0xe
 1050 00e7 3A       		.uleb128 0x3a
 1051 00e8 0B       		.uleb128 0xb
 1052 00e9 3B       		.uleb128 0x3b
 1053 00ea 0B       		.uleb128 0xb
 1054 00eb 49       		.uleb128 0x49
 1055 00ec 13       		.uleb128 0x13
 1056 00ed 3F       		.uleb128 0x3f
 1057 00ee 19       		.uleb128 0x19
 1058 00ef 02       		.uleb128 0x2
 1059 00f0 18       		.uleb128 0x18
 1060 00f1 00       		.byte	0
 1061 00f2 00       		.byte	0
 1062 00f3 11       		.uleb128 0x11
 1063 00f4 01       		.uleb128 0x1
 1064 00f5 01       		.byte	0x1
 1065 00f6 49       		.uleb128 0x49
 1066 00f7 13       		.uleb128 0x13
 1067 00f8 01       		.uleb128 0x1
 1068 00f9 13       		.uleb128 0x13
 1069 00fa 00       		.byte	0
 1070 00fb 00       		.byte	0
 1071 00fc 12       		.uleb128 0x12
 1072 00fd 21       		.uleb128 0x21
 1073 00fe 00       		.byte	0
 1074 00ff 49       		.uleb128 0x49
ARM GAS  C:\Users\Matthew\AppData\Local\Temp\ccSwhuqO.s 			page 26


 1075 0100 13       		.uleb128 0x13
 1076 0101 2F       		.uleb128 0x2f
 1077 0102 05       		.uleb128 0x5
 1078 0103 00       		.byte	0
 1079 0104 00       		.byte	0
 1080 0105 13       		.uleb128 0x13
 1081 0106 21       		.uleb128 0x21
 1082 0107 00       		.byte	0
 1083 0108 49       		.uleb128 0x49
 1084 0109 13       		.uleb128 0x13
 1085 010a 2F       		.uleb128 0x2f
 1086 010b 0B       		.uleb128 0xb
 1087 010c 00       		.byte	0
 1088 010d 00       		.byte	0
 1089 010e 00       		.byte	0
 1090              		.section	.debug_aranges,"",%progbits
 1091 0000 2C000000 		.4byte	0x2c
 1092 0004 0200     		.2byte	0x2
 1093 0006 00000000 		.4byte	.Ldebug_info0
 1094 000a 04       		.byte	0x4
 1095 000b 00       		.byte	0
 1096 000c 0000     		.2byte	0
 1097 000e 0000     		.2byte	0
 1098 0010 00000000 		.4byte	.LFB56
 1099 0014 0A000000 		.4byte	.LFE56-.LFB56
 1100 0018 00000000 		.4byte	.LFB57
 1101 001c 8C020000 		.4byte	.LFE57-.LFB57
 1102 0020 00000000 		.4byte	.LFB58
 1103 0024 3E000000 		.4byte	.LFE58-.LFB58
 1104 0028 00000000 		.4byte	0
 1105 002c 00000000 		.4byte	0
 1106              		.section	.debug_ranges,"",%progbits
 1107              	.Ldebug_ranges0:
 1108 0000 00000000 		.4byte	.LFB56
 1109 0004 0A000000 		.4byte	.LFE56
 1110 0008 00000000 		.4byte	.LFB57
 1111 000c 8C020000 		.4byte	.LFE57
 1112 0010 00000000 		.4byte	.LFB58
 1113 0014 3E000000 		.4byte	.LFE58
 1114 0018 00000000 		.4byte	0
 1115 001c 00000000 		.4byte	0
 1116              		.section	.debug_line,"",%progbits
 1117              	.Ldebug_line0:
 1118 0000 09020000 		.section	.debug_str,"MS",%progbits,1
 1118      02005B01 
 1118      00000201 
 1118      FB0E0D00 
 1118      01010101 
 1119              	.LASF18:
 1120 0000 74656D70 		.ascii	"temp\000"
 1120      00
 1121              	.LASF34:
 1122 0005 756C7472 		.ascii	"ultrasonic_reading\000"
 1122      61736F6E 
 1122      69635F72 
 1122      65616469 
 1122      6E6700
ARM GAS  C:\Users\Matthew\AppData\Local\Temp\ccSwhuqO.s 			page 27


 1123              	.LASF9:
 1124 0018 5F5F696E 		.ascii	"__int32_t\000"
 1124      7433325F 
 1124      7400
 1125              	.LASF26:
 1126 0022 69746572 		.ascii	"iter\000"
 1126      00
 1127              	.LASF3:
 1128 0027 73686F72 		.ascii	"short unsigned int\000"
 1128      7420756E 
 1128      7369676E 
 1128      65642069 
 1128      6E7400
 1129              	.LASF32:
 1130 003a 7061636B 		.ascii	"packet_len\000"
 1130      65745F6C 
 1130      656E00
 1131              	.LASF15:
 1132 0045 646F7562 		.ascii	"double\000"
 1132      6C6500
 1133              	.LASF25:
 1134 004c 74657374 		.ascii	"test_csv\000"
 1134      5F637376 
 1134      00
 1135              	.LASF38:
 1136 0055 433A5C55 		.ascii	"C:\\Users\\Matthew\\github\\IoT\\CellBoard\\Cell Bo"
 1136      73657273 
 1136      5C4D6174 
 1136      74686577 
 1136      5C676974 
 1137 0082 6172642E 		.ascii	"ard.cydsn\000"
 1137      63796473 
 1137      6E00
 1138              	.LASF29:
 1139 008c 6C6F6F70 		.ascii	"loops\000"
 1139      7300
 1140              	.LASF14:
 1141 0092 666C6F61 		.ascii	"float\000"
 1141      7400
 1142              	.LASF42:
 1143 0098 6E5F626C 		.ascii	"n_blinks\000"
 1143      696E6B73 
 1143      00
 1144              	.LASF1:
 1145 00a1 756E7369 		.ascii	"unsigned char\000"
 1145      676E6564 
 1145      20636861 
 1145      7200
 1146              	.LASF37:
 1147 00af 2E5C6D61 		.ascii	".\\main.c\000"
 1147      696E2E63 
 1147      00
 1148              	.LASF27:
 1149 00b8 7369676E 		.ascii	"sign\000"
 1149      00
 1150              	.LASF24:
 1151 00bd 64617461 		.ascii	"data_packet\000"
ARM GAS  C:\Users\Matthew\AppData\Local\Temp\ccSwhuqO.s 			page 28


 1151      5F706163 
 1151      6B657400 
 1152              	.LASF31:
 1153 00c9 7061636B 		.ascii	"packet_ready\000"
 1153      65745F72 
 1153      65616479 
 1153      00
 1154              	.LASF23:
 1155 00d6 4150495F 		.ascii	"API_KEY\000"
 1155      4B455900 
 1156              	.LASF22:
 1157 00de 49544D5F 		.ascii	"ITM_RxBuffer\000"
 1157      52784275 
 1157      66666572 
 1157      00
 1158              	.LASF5:
 1159 00eb 6C6F6E67 		.ascii	"long unsigned int\000"
 1159      20756E73 
 1159      69676E65 
 1159      6420696E 
 1159      7400
 1160              	.LASF40:
 1161 00fd 6D61696E 		.ascii	"main\000"
 1161      00
 1162              	.LASF12:
 1163 0102 75696E74 		.ascii	"uint16\000"
 1163      313600
 1164              	.LASF13:
 1165 0109 75696E74 		.ascii	"uint32\000"
 1165      333200
 1166              	.LASF8:
 1167 0110 756E7369 		.ascii	"unsigned int\000"
 1167      676E6564 
 1167      20696E74 
 1167      00
 1168              	.LASF28:
 1169 011d 72656164 		.ascii	"ready\000"
 1169      7900
 1170              	.LASF7:
 1171 0123 6C6F6E67 		.ascii	"long long unsigned int\000"
 1171      206C6F6E 
 1171      6720756E 
 1171      7369676E 
 1171      65642069 
 1172              	.LASF21:
 1173 013a 556C7472 		.ascii	"UltrasonicReading\000"
 1173      61736F6E 
 1173      69635265 
 1173      6164696E 
 1173      6700
 1174              	.LASF36:
 1175 014c 474E5520 		.ascii	"GNU C 4.8.4 20140526 (release) [ARM/embedded-4_8-br"
 1175      4320342E 
 1175      382E3420 
 1175      32303134 
 1175      30353236 
 1176 017f 616E6368 		.ascii	"anch revision 211358] -mcpu=cortex-m3 -mthumb -g -O"
ARM GAS  C:\Users\Matthew\AppData\Local\Temp\ccSwhuqO.s 			page 29


 1176      20726576 
 1176      6973696F 
 1176      6E203231 
 1176      31333538 
 1177 01b2 30202D66 		.ascii	"0 -ffunction-sections\000"
 1177      66756E63 
 1177      74696F6E 
 1177      2D736563 
 1177      74696F6E 
 1178              	.LASF10:
 1179 01c8 696E7433 		.ascii	"int32_t\000"
 1179      325F7400 
 1180              	.LASF17:
 1181 01d0 73697A65 		.ascii	"sizetype\000"
 1181      74797065 
 1181      00
 1182              	.LASF6:
 1183 01d9 6C6F6E67 		.ascii	"long long int\000"
 1183      206C6F6E 
 1183      6720696E 
 1183      7400
 1184              	.LASF19:
 1185 01e7 64657074 		.ascii	"depth\000"
 1185      6800
 1186              	.LASF16:
 1187 01ed 63686172 		.ascii	"char\000"
 1187      00
 1188              	.LASF20:
 1189 01f2 76616C69 		.ascii	"valid\000"
 1189      6400
 1190              	.LASF39:
 1191 01f8 57616B65 		.ascii	"Wakeup_ISR\000"
 1191      75705F49 
 1191      535200
 1192              	.LASF2:
 1193 0203 73686F72 		.ascii	"short int\000"
 1193      7420696E 
 1193      7400
 1194              	.LASF11:
 1195 020d 75696E74 		.ascii	"uint8\000"
 1195      3800
 1196              	.LASF35:
 1197 0213 765F6F75 		.ascii	"v_out\000"
 1197      7400
 1198              	.LASF4:
 1199 0219 6C6F6E67 		.ascii	"long int\000"
 1199      20696E74 
 1199      00
 1200              	.LASF0:
 1201 0222 7369676E 		.ascii	"signed char\000"
 1201      65642063 
 1201      68617200 
 1202              	.LASF30:
 1203 022e 6C6F636B 		.ascii	"lock\000"
 1203      00
 1204              	.LASF41:
 1205 0233 626C696E 		.ascii	"blink_LED\000"
ARM GAS  C:\Users\Matthew\AppData\Local\Temp\ccSwhuqO.s 			page 30


 1205      6B5F4C45 
 1205      4400
 1206              	.LASF33:
 1207 023d 77616B65 		.ascii	"wakeup_interval_counter\000"
 1207      75705F69 
 1207      6E746572 
 1207      76616C5F 
 1207      636F756E 
 1208              		.ident	"GCC: (GNU Tools for ARM Embedded Processors) 4.8.4 20140526 (release) [ARM/embedded-4_8-br
