ARM GAS  C:\Users\Matthew\AppData\Local\Temp\ccu6ei5I.s 			page 1


   1              		.syntax unified
   2              		.cpu cortex-m3
   3              		.fpu softvfp
   4              		.eabi_attribute 20, 1
   5              		.eabi_attribute 21, 1
   6              		.eabi_attribute 23, 3
   7              		.eabi_attribute 24, 1
   8              		.eabi_attribute 25, 1
   9              		.eabi_attribute 26, 1
  10              		.eabi_attribute 30, 6
  11              		.eabi_attribute 34, 1
  12              		.eabi_attribute 18, 4
  13              		.thumb
  14              		.file	"modem.c"
  15              		.text
  16              	.Ltext0:
  17              		.cfi_sections	.debug_frame
  18              		.global	iter
  19              		.bss
  20              		.align	2
  21              		.type	iter, %object
  22              		.size	iter, 4
  23              	iter:
  24 0000 00000000 		.space	4
  25              		.comm	modem_state,1,1
  26              		.global	lock_acquired
  27              		.type	lock_acquired, %object
  28              		.size	lock_acquired, 1
  29              	lock_acquired:
  30 0004 00       		.space	1
  31              		.global	ready
  32              		.type	ready, %object
  33              		.size	ready, 1
  34              	ready:
  35 0005 00       		.space	1
  36              		.global	uart_string_index
  37              		.align	1
  38              		.type	uart_string_index, %object
  39              		.size	uart_string_index, 2
  40              	uart_string_index:
  41 0006 0000     		.space	2
  42              		.comm	feed_id,4,4
  43              		.global	uart_received_string
  44              		.align	2
  45              		.type	uart_received_string, %object
  46              		.size	uart_received_string, 1000
  47              	uart_received_string:
  48 0008 00000000 		.space	1000
  48      00000000 
  48      00000000 
  48      00000000 
  48      00000000 
  49              		.comm	api_key,4,4
  50              		.global	modem_apn
  51              		.section	.rodata
  52              		.align	2
  53              	.LC0:
ARM GAS  C:\Users\Matthew\AppData\Local\Temp\ccu6ei5I.s 			page 2


  54 0000 6570632E 		.ascii	"epc.tmobile.com\000"
  54      746D6F62 
  54      696C652E 
  54      636F6D00 
  55              		.data
  56              		.align	2
  57              		.type	modem_apn, %object
  58              		.size	modem_apn, 4
  59              	modem_apn:
  60 0000 00000000 		.word	.LC0
  61              		.section	.text.modem_set_api_feed,"ax",%progbits
  62              		.align	2
  63              		.global	modem_set_api_feed
  64              		.thumb
  65              		.thumb_func
  66              		.type	modem_set_api_feed, %function
  67              	modem_set_api_feed:
  68              	.LFB56:
  69              		.file 1 ".\\modem.c"
   1:.\modem.c     **** ///* ========================================
   2:.\modem.c     **** // *
   3:.\modem.c     **** // * Copyright YOUR COMPANY, THE YEAR
   4:.\modem.c     **** // * All Rights Reserved
   5:.\modem.c     **** // * UNPUBLISHED, LICENSED SOFTWARE.
   6:.\modem.c     **** // *
   7:.\modem.c     **** // * CONFIDENTIAL AND PROPRIETARY INFORMATION
   8:.\modem.c     **** // * WHICH IS THE PROPERTY OF your company.
   9:.\modem.c     **** // *
  10:.\modem.c     **** // * ========================================
  11:.\modem.c     **** //*/
  12:.\modem.c     **** //
  13:.\modem.c     **** 
  14:.\modem.c     **** #include <device.h>
  15:.\modem.c     **** #include <stdio.h>
  16:.\modem.c     **** #include <string.h>
  17:.\modem.c     **** #include "modem.h"
  18:.\modem.c     **** #include "packet.h"
  19:.\modem.c     **** //#include "debug.h" TODO: ACCOUNT FOR THIS
  20:.\modem.c     **** 
  21:.\modem.c     **** // declare varaiables
  22:.\modem.c     **** int	   iter = 0;
  23:.\modem.c     **** uint8  modem_state, lock_acquired = 0u, ready = 0u;
  24:.\modem.c     **** uint16 uart_string_index = 0u;
  25:.\modem.c     **** uint32 feed_id;
  26:.\modem.c     **** char   uart_received_string[1000] = {0}, *api_key;
  27:.\modem.c     **** char*  modem_apn = "epc.tmobile.com";
  28:.\modem.c     **** 
  29:.\modem.c     **** 
  30:.\modem.c     **** 
  31:.\modem.c     **** // prototype modem interrupt
  32:.\modem.c     **** CY_ISR_PROTO(Telit_isr_rx);
  33:.\modem.c     **** void uart_string_reset();
  34:.\modem.c     **** 
  35:.\modem.c     **** uint8 modem_set_api_feed(uint32 id, char* key){
  70              		.loc 1 35 0
  71              		.cfi_startproc
  72              		@ args = 0, pretend = 0, frame = 8
ARM GAS  C:\Users\Matthew\AppData\Local\Temp\ccu6ei5I.s 			page 3


  73              		@ frame_needed = 1, uses_anonymous_args = 0
  74              		@ link register save eliminated.
  75 0000 80B4     		push	{r7}
  76              		.cfi_def_cfa_offset 4
  77              		.cfi_offset 7, -4
  78 0002 83B0     		sub	sp, sp, #12
  79              		.cfi_def_cfa_offset 16
  80 0004 00AF     		add	r7, sp, #0
  81              		.cfi_def_cfa_register 7
  82 0006 7860     		str	r0, [r7, #4]
  83 0008 3960     		str	r1, [r7]
  36:.\modem.c     ****     feed_id = id;
  84              		.loc 1 36 0
  85 000a 064B     		ldr	r3, .L3
  86 000c 7A68     		ldr	r2, [r7, #4]
  87 000e 1A60     		str	r2, [r3]
  37:.\modem.c     ****     api_key = key;
  88              		.loc 1 37 0
  89 0010 054B     		ldr	r3, .L3+4
  90 0012 3A68     		ldr	r2, [r7]
  91 0014 1A60     		str	r2, [r3]
  38:.\modem.c     ****     return 1u;
  92              		.loc 1 38 0
  93 0016 0123     		movs	r3, #1
  39:.\modem.c     **** }
  94              		.loc 1 39 0
  95 0018 1846     		mov	r0, r3
  96 001a 0C37     		adds	r7, r7, #12
  97 001c BD46     		mov	sp, r7
  98              		@ sp needed
  99 001e 5DF8047B 		ldr	r7, [sp], #4
 100 0022 7047     		bx	lr
 101              	.L4:
 102              		.align	2
 103              	.L3:
 104 0024 00000000 		.word	feed_id
 105 0028 00000000 		.word	api_key
 106              		.cfi_endproc
 107              	.LFE56:
 108              		.size	modem_set_api_feed, .-modem_set_api_feed
 109              		.section	.text.modem_startup,"ax",%progbits
 110              		.align	2
 111              		.global	modem_startup
 112              		.thumb
 113              		.thumb_func
 114              		.type	modem_startup, %function
 115              	modem_startup:
 116              	.LFB57:
  40:.\modem.c     **** 
  41:.\modem.c     **** // startup sequence to power on the modem, start modem
  42:.\modem.c     **** // components and prepare for sending/receiving messages
  43:.\modem.c     **** // over the network
  44:.\modem.c     **** uint8	modem_startup() {
 117              		.loc 1 44 0
 118              		.cfi_startproc
 119              		@ args = 0, pretend = 0, frame = 0
 120              		@ frame_needed = 1, uses_anonymous_args = 0
ARM GAS  C:\Users\Matthew\AppData\Local\Temp\ccu6ei5I.s 			page 4


 121 0000 80B5     		push	{r7, lr}
 122              		.cfi_def_cfa_offset 8
 123              		.cfi_offset 7, -8
 124              		.cfi_offset 14, -4
 125 0002 00AF     		add	r7, sp, #0
 126              		.cfi_def_cfa_register 7
  45:.\modem.c     **** 	iter = 0, ready = 0u;
 127              		.loc 1 45 0
 128 0004 1A4B     		ldr	r3, .L10
 129 0006 0022     		movs	r2, #0
 130 0008 1A60     		str	r2, [r3]
 131 000a 1A4B     		ldr	r3, .L10+4
 132 000c 0022     		movs	r2, #0
 133 000e 1A70     		strb	r2, [r3]
  46:.\modem.c     **** 
  47:.\modem.c     **** 	modem_start();
 134              		.loc 1 47 0
 135 0010 FFF7FEFF 		bl	modem_start
  48:.\modem.c     **** 	
  49:.\modem.c     **** 	while( iter < MAX_CONN_ATTEMPTS) {
 136              		.loc 1 49 0
 137 0014 24E0     		b	.L6
 138              	.L9:
  50:.\modem.c     **** 		iter++;
 139              		.loc 1 50 0
 140 0016 164B     		ldr	r3, .L10
 141 0018 1B68     		ldr	r3, [r3]
 142 001a 5A1C     		adds	r2, r3, #1
 143 001c 144B     		ldr	r3, .L10
 144 001e 1A60     		str	r2, [r3]
  51:.\modem.c     **** 
  52:.\modem.c     **** 		/* Set up the modem */
  53:.\modem.c     **** 		//LED_Write(!LED_Read());
  54:.\modem.c     **** 		ready = modem_power_on();
 145              		.loc 1 54 0
 146 0020 FFF7FEFF 		bl	modem_power_on
 147 0024 0346     		mov	r3, r0
 148 0026 1A46     		mov	r2, r3
 149 0028 124B     		ldr	r3, .L10+4
 150 002a 1A70     		strb	r2, [r3]
  55:.\modem.c     **** 		//LED_Write(!LED_Read());
  56:.\modem.c     **** 		//ready = at_write_command("AT\r","OK",1000u);      
  57:.\modem.c     **** 		modem_set_flow_control(0u);	
 151              		.loc 1 57 0
 152 002c 0020     		movs	r0, #0
 153 002e FFF7FEFF 		bl	modem_set_flow_control
  58:.\modem.c     **** 		modem_setup();
 154              		.loc 1 58 0
 155 0032 FFF7FEFF 		bl	modem_setup
  59:.\modem.c     **** 		
  60:.\modem.c     **** 		if ( ready == 1u ) {
 156              		.loc 1 60 0
 157 0036 0F4B     		ldr	r3, .L10+4
 158 0038 1B78     		ldrb	r3, [r3]	@ zero_extendqisi2
 159 003a 012B     		cmp	r3, #1
 160 003c 0ED1     		bne	.L7
  61:.\modem.c     **** 			// Connect modem to network
ARM GAS  C:\Users\Matthew\AppData\Local\Temp\ccu6ei5I.s 			page 5


  62:.\modem.c     **** 			// (modem_connect already accounts for retries)
  63:.\modem.c     **** 			//LED_Write(!LED_Read());
  64:.\modem.c     **** 			ready = modem_connect();
 161              		.loc 1 64 0
 162 003e FFF7FEFF 		bl	modem_connect
 163 0042 0346     		mov	r3, r0
 164 0044 1A46     		mov	r2, r3
 165 0046 0B4B     		ldr	r3, .L10+4
 166 0048 1A70     		strb	r2, [r3]
  65:.\modem.c     **** 			
  66:.\modem.c     **** 			if( ready == 3u ) {
 167              		.loc 1 66 0
 168 004a 0A4B     		ldr	r3, .L10+4
 169 004c 1B78     		ldrb	r3, [r3]	@ zero_extendqisi2
 170 004e 032B     		cmp	r3, #3
 171 0050 06D1     		bne	.L6
  67:.\modem.c     **** 								
  68:.\modem.c     **** 				iter = MAX_CONN_ATTEMPTS;//break;	
 172              		.loc 1 68 0
 173 0052 074B     		ldr	r3, .L10
 174 0054 0522     		movs	r2, #5
 175 0056 1A60     		str	r2, [r3]
  69:.\modem.c     **** 				return 1u;
 176              		.loc 1 69 0
 177 0058 0123     		movs	r3, #1
 178 005a 06E0     		b	.L8
 179              	.L7:
  70:.\modem.c     **** 			}
  71:.\modem.c     **** 		}
  72:.\modem.c     **** 		else {
  73:.\modem.c     **** 			modem_reset();
 180              		.loc 1 73 0
 181 005c FFF7FEFF 		bl	modem_reset
 182              	.L6:
  49:.\modem.c     **** 	while( iter < MAX_CONN_ATTEMPTS) {
 183              		.loc 1 49 0 discriminator 1
 184 0060 034B     		ldr	r3, .L10
 185 0062 1B68     		ldr	r3, [r3]
 186 0064 042B     		cmp	r3, #4
 187 0066 D6DD     		ble	.L9
  74:.\modem.c     **** 		}
  75:.\modem.c     **** 	}
  76:.\modem.c     **** 	
  77:.\modem.c     **** 	// Timed out -- Failed to connect
  78:.\modem.c     **** 	return 0u;
 188              		.loc 1 78 0
 189 0068 0023     		movs	r3, #0
 190              	.L8:
  79:.\modem.c     **** }
 191              		.loc 1 79 0
 192 006a 1846     		mov	r0, r3
 193 006c 80BD     		pop	{r7, pc}
 194              	.L11:
 195 006e 00BF     		.align	2
 196              	.L10:
 197 0070 00000000 		.word	iter
 198 0074 00000000 		.word	ready
ARM GAS  C:\Users\Matthew\AppData\Local\Temp\ccu6ei5I.s 			page 6


 199              		.cfi_endproc
 200              	.LFE57:
 201              		.size	modem_startup, .-modem_startup
 202              		.section	.text.modem_shutdown,"ax",%progbits
 203              		.align	2
 204              		.global	modem_shutdown
 205              		.thumb
 206              		.thumb_func
 207              		.type	modem_shutdown, %function
 208              	modem_shutdown:
 209              	.LFB58:
  80:.\modem.c     **** 
  81:.\modem.c     **** // shutdown sequence to stop modem components
  82:.\modem.c     **** // and power down the modem
  83:.\modem.c     **** uint8 	modem_shutdown() {
 210              		.loc 1 83 0
 211              		.cfi_startproc
 212              		@ args = 0, pretend = 0, frame = 0
 213              		@ frame_needed = 1, uses_anonymous_args = 0
 214 0000 80B5     		push	{r7, lr}
 215              		.cfi_def_cfa_offset 8
 216              		.cfi_offset 7, -8
 217              		.cfi_offset 14, -4
 218 0002 00AF     		add	r7, sp, #0
 219              		.cfi_def_cfa_register 7
  84:.\modem.c     **** 	if (modem_power_off()){
 220              		.loc 1 84 0
 221 0004 FFF7FEFF 		bl	modem_power_off
 222 0008 0346     		mov	r3, r0
 223 000a 002B     		cmp	r3, #0
 224 000c 01D0     		beq	.L13
  85:.\modem.c     **** 		return 1u;	
 225              		.loc 1 85 0
 226 000e 0123     		movs	r3, #1
 227 0010 00E0     		b	.L14
 228              	.L13:
  86:.\modem.c     **** 	}
  87:.\modem.c     **** 	
  88:.\modem.c     **** 	return 0u;
 229              		.loc 1 88 0
 230 0012 0023     		movs	r3, #0
 231              	.L14:
  89:.\modem.c     **** }
 232              		.loc 1 89 0
 233 0014 1846     		mov	r0, r3
 234 0016 80BD     		pop	{r7, pc}
 235              		.cfi_endproc
 236              	.LFE58:
 237              		.size	modem_shutdown, .-modem_shutdown
 238              		.section	.text.modem_start,"ax",%progbits
 239              		.align	2
 240              		.global	modem_start
 241              		.thumb
 242              		.thumb_func
 243              		.type	modem_start, %function
 244              	modem_start:
 245              	.LFB59:
ARM GAS  C:\Users\Matthew\AppData\Local\Temp\ccu6ei5I.s 			page 7


  90:.\modem.c     **** 
  91:.\modem.c     **** // initialize modem
  92:.\modem.c     **** void modem_start(){
 246              		.loc 1 92 0
 247              		.cfi_startproc
 248              		@ args = 0, pretend = 0, frame = 0
 249              		@ frame_needed = 1, uses_anonymous_args = 0
 250 0000 80B5     		push	{r7, lr}
 251              		.cfi_def_cfa_offset 8
 252              		.cfi_offset 7, -8
 253              		.cfi_offset 14, -4
 254 0002 00AF     		add	r7, sp, #0
 255              		.cfi_def_cfa_register 7
  93:.\modem.c     ****     Telit_UART_Start();
 256              		.loc 1 93 0
 257 0004 FFF7FEFF 		bl	Telit_UART_Start
  94:.\modem.c     ****     Telit_ControlReg_Write(0u);
 258              		.loc 1 94 0
 259 0008 0020     		movs	r0, #0
 260 000a FFF7FEFF 		bl	Telit_ControlReg_Write
  95:.\modem.c     ****     //Telit_PWR_Write(0u);        // 0u Enables power to cell module
  96:.\modem.c     **** 	Telit_ON_Write(1u);			// Prep modem for "push button"
 261              		.loc 1 96 0
 262 000e 0120     		movs	r0, #1
 263 0010 FFF7FEFF 		bl	Telit_ON_Write
  97:.\modem.c     **** 	Telit_RST_Write(1u);		// Prep modem for "push button"
 264              		.loc 1 97 0
 265 0014 0120     		movs	r0, #1
 266 0016 FFF7FEFF 		bl	Telit_RST_Write
  98:.\modem.c     ****     Telit_isr_rx_StartEx(Telit_isr_rx);
 267              		.loc 1 98 0
 268 001a 0348     		ldr	r0, .L16
 269 001c FFF7FEFF 		bl	Telit_isr_rx_StartEx
  99:.\modem.c     ****     modem_state = MODEM_STATE_OFF;
 270              		.loc 1 99 0
 271 0020 024B     		ldr	r3, .L16+4
 272 0022 0022     		movs	r2, #0
 273 0024 1A70     		strb	r2, [r3]
 100:.\modem.c     **** }
 274              		.loc 1 100 0
 275 0026 80BD     		pop	{r7, pc}
 276              	.L17:
 277              		.align	2
 278              	.L16:
 279 0028 00000000 		.word	Telit_isr_rx
 280 002c 00000000 		.word	modem_state
 281              		.cfi_endproc
 282              	.LFE59:
 283              		.size	modem_start, .-modem_start
 284              		.section	.text.modem_stop,"ax",%progbits
 285              		.align	2
 286              		.global	modem_stop
 287              		.thumb
 288              		.thumb_func
 289              		.type	modem_stop, %function
 290              	modem_stop:
 291              	.LFB60:
ARM GAS  C:\Users\Matthew\AppData\Local\Temp\ccu6ei5I.s 			page 8


 101:.\modem.c     **** 
 102:.\modem.c     **** // deinitialize modem
 103:.\modem.c     **** void modem_stop(){
 292              		.loc 1 103 0
 293              		.cfi_startproc
 294              		@ args = 0, pretend = 0, frame = 0
 295              		@ frame_needed = 1, uses_anonymous_args = 0
 296 0000 80B5     		push	{r7, lr}
 297              		.cfi_def_cfa_offset 8
 298              		.cfi_offset 7, -8
 299              		.cfi_offset 14, -4
 300 0002 00AF     		add	r7, sp, #0
 301              		.cfi_def_cfa_register 7
 104:.\modem.c     ****     Telit_UART_Stop();
 302              		.loc 1 104 0
 303 0004 FFF7FEFF 		bl	Telit_UART_Stop
 105:.\modem.c     ****     Telit_ControlReg_Write(0u);
 304              		.loc 1 105 0
 305 0008 0020     		movs	r0, #0
 306 000a FFF7FEFF 		bl	Telit_ControlReg_Write
 106:.\modem.c     ****     //Telit_PWR_Write(0u);        // 0u Enables power to cell module
 107:.\modem.c     **** 	Telit_ON_Write(0u);			// Save energy by pulling down "push button"
 307              		.loc 1 107 0
 308 000e 0020     		movs	r0, #0
 309 0010 FFF7FEFF 		bl	Telit_ON_Write
 108:.\modem.c     **** 	Telit_RST_Write(0u);		// Save energy by pulling down "push button"
 310              		.loc 1 108 0
 311 0014 0020     		movs	r0, #0
 312 0016 FFF7FEFF 		bl	Telit_RST_Write
 109:.\modem.c     ****     Telit_isr_rx_Stop();
 313              		.loc 1 109 0
 314 001a FFF7FEFF 		bl	Telit_isr_rx_Stop
 110:.\modem.c     ****     modem_state = MODEM_STATE_OFF;
 315              		.loc 1 110 0
 316 001e 024B     		ldr	r3, .L19
 317 0020 0022     		movs	r2, #0
 318 0022 1A70     		strb	r2, [r3]
 111:.\modem.c     **** }
 319              		.loc 1 111 0
 320 0024 80BD     		pop	{r7, pc}
 321              	.L20:
 322 0026 00BF     		.align	2
 323              	.L19:
 324 0028 00000000 		.word	modem_state
 325              		.cfi_endproc
 326              	.LFE60:
 327              		.size	modem_stop, .-modem_stop
 328              		.section	.text.at_write_command,"ax",%progbits
 329              		.align	2
 330              		.global	at_write_command
 331              		.thumb
 332              		.thumb_func
 333              		.type	at_write_command, %function
 334              	at_write_command:
 335              	.LFB61:
 112:.\modem.c     **** 
 113:.\modem.c     **** // send at-command to modem
ARM GAS  C:\Users\Matthew\AppData\Local\Temp\ccu6ei5I.s 			page 9


 114:.\modem.c     **** uint8 at_write_command(char* uart_string, char* expected_response, uint32 uart_timeout){
 336              		.loc 1 114 0
 337              		.cfi_startproc
 338              		@ args = 0, pretend = 0, frame = 40
 339              		@ frame_needed = 1, uses_anonymous_args = 0
 340 0000 80B5     		push	{r7, lr}
 341              		.cfi_def_cfa_offset 8
 342              		.cfi_offset 7, -8
 343              		.cfi_offset 14, -4
 344 0002 8AB0     		sub	sp, sp, #40
 345              		.cfi_def_cfa_offset 48
 346 0004 00AF     		add	r7, sp, #0
 347              		.cfi_def_cfa_register 7
 348 0006 F860     		str	r0, [r7, #12]
 349 0008 B960     		str	r1, [r7, #8]
 350 000a 7A60     		str	r2, [r7, #4]
 115:.\modem.c     ****     uint8 response = 0u;
 351              		.loc 1 115 0
 352 000c 0023     		movs	r3, #0
 353 000e 87F82730 		strb	r3, [r7, #39]
 116:.\modem.c     ****     uint32 i = 0u, delay = 100u, interval = uart_timeout/delay;
 354              		.loc 1 116 0
 355 0012 0023     		movs	r3, #0
 356 0014 3B62     		str	r3, [r7, #32]
 357 0016 6423     		movs	r3, #100
 358 0018 FB61     		str	r3, [r7, #28]
 359 001a 7A68     		ldr	r2, [r7, #4]
 360 001c FB69     		ldr	r3, [r7, #28]
 361 001e B2FBF3F3 		udiv	r3, r2, r3
 362 0022 BB61     		str	r3, [r7, #24]
 117:.\modem.c     ****     
 118:.\modem.c     ****     uart_string_reset();
 363              		.loc 1 118 0
 364 0024 FFF7FEFF 		bl	uart_string_reset
 119:.\modem.c     ****     Telit_UART_PutString(uart_string);//Telit_UART_PutString("AT\r");
 365              		.loc 1 119 0
 366 0028 F868     		ldr	r0, [r7, #12]
 367 002a FFF7FEFF 		bl	Telit_UART_PutString
 120:.\modem.c     ****     
 121:.\modem.c     ****     if( strcmp(expected_response, "") != 0){
 368              		.loc 1 121 0
 369 002e BB68     		ldr	r3, [r7, #8]
 370 0030 1B78     		ldrb	r3, [r3]	@ zero_extendqisi2
 371 0032 002B     		cmp	r3, #0
 372 0034 18D0     		beq	.L22
 122:.\modem.c     ****         for(i=0;i<interval;i++){
 373              		.loc 1 122 0
 374 0036 0023     		movs	r3, #0
 375 0038 3B62     		str	r3, [r7, #32]
 376 003a 11E0     		b	.L23
 377              	.L25:
 378              	.LBB2:
 123:.\modem.c     ****             char* valid = strstr(uart_received_string, expected_response);
 379              		.loc 1 123 0
 380 003c 0D48     		ldr	r0, .L27
 381 003e B968     		ldr	r1, [r7, #8]
 382 0040 FFF7FEFF 		bl	strstr
ARM GAS  C:\Users\Matthew\AppData\Local\Temp\ccu6ei5I.s 			page 10


 383 0044 7861     		str	r0, [r7, #20]
 124:.\modem.c     ****             if(valid != NULL){
 384              		.loc 1 124 0
 385 0046 7B69     		ldr	r3, [r7, #20]
 386 0048 002B     		cmp	r3, #0
 387 004a 03D0     		beq	.L24
 125:.\modem.c     ****                 response = 1u;
 388              		.loc 1 125 0
 389 004c 0123     		movs	r3, #1
 390 004e 87F82730 		strb	r3, [r7, #39]
 126:.\modem.c     ****                 break;
 391              		.loc 1 126 0
 392 0052 09E0     		b	.L22
 393              	.L24:
 127:.\modem.c     ****             }
 128:.\modem.c     ****             CyDelay(delay);
 394              		.loc 1 128 0
 395 0054 F869     		ldr	r0, [r7, #28]
 396 0056 FFF7FEFF 		bl	CyDelay
 397              	.LBE2:
 122:.\modem.c     ****         for(i=0;i<interval;i++){
 398              		.loc 1 122 0
 399 005a 3B6A     		ldr	r3, [r7, #32]
 400 005c 0133     		adds	r3, r3, #1
 401 005e 3B62     		str	r3, [r7, #32]
 402              	.L23:
 122:.\modem.c     ****         for(i=0;i<interval;i++){
 403              		.loc 1 122 0 is_stmt 0 discriminator 1
 404 0060 3A6A     		ldr	r2, [r7, #32]
 405 0062 BB69     		ldr	r3, [r7, #24]
 406 0064 9A42     		cmp	r2, r3
 407 0066 E9D3     		bcc	.L25
 408              	.L22:
 129:.\modem.c     ****         }
 130:.\modem.c     ****     }
 131:.\modem.c     ****     
 132:.\modem.c     ****     return response;
 409              		.loc 1 132 0 is_stmt 1
 410 0068 97F82730 		ldrb	r3, [r7, #39]	@ zero_extendqisi2
 133:.\modem.c     **** }
 411              		.loc 1 133 0
 412 006c 1846     		mov	r0, r3
 413 006e 2837     		adds	r7, r7, #40
 414 0070 BD46     		mov	sp, r7
 415              		@ sp needed
 416 0072 80BD     		pop	{r7, pc}
 417              	.L28:
 418              		.align	2
 419              	.L27:
 420 0074 00000000 		.word	uart_received_string
 421              		.cfi_endproc
 422              	.LFE61:
 423              		.size	at_write_command, .-at_write_command
 424              		.section	.rodata
 425              		.align	2
 426              	.LC1:
 427 0010 41540D00 		.ascii	"AT\015\000"
ARM GAS  C:\Users\Matthew\AppData\Local\Temp\ccu6ei5I.s 			page 11


 428              		.align	2
 429              	.LC2:
 430 0014 4F4B00   		.ascii	"OK\000"
 431              		.section	.text.modem_power_on,"ax",%progbits
 432              		.align	2
 433              		.global	modem_power_on
 434              		.thumb
 435              		.thumb_func
 436              		.type	modem_power_on, %function
 437              	modem_power_on:
 438              	.LFB62:
 134:.\modem.c     **** 
 135:.\modem.c     **** uint8 modem_power_on(){
 439              		.loc 1 135 0
 440              		.cfi_startproc
 441              		@ args = 0, pretend = 0, frame = 0
 442              		@ frame_needed = 1, uses_anonymous_args = 0
 443 0000 80B5     		push	{r7, lr}
 444              		.cfi_def_cfa_offset 8
 445              		.cfi_offset 7, -8
 446              		.cfi_offset 14, -4
 447 0002 00AF     		add	r7, sp, #0
 448              		.cfi_def_cfa_register 7
 136:.\modem.c     **** 
 137:.\modem.c     ****     if (modem_state != MODEM_STATE_OFF) {
 449              		.loc 1 137 0
 450 0004 174B     		ldr	r3, .L33
 451 0006 1B78     		ldrb	r3, [r3]	@ zero_extendqisi2
 452 0008 002B     		cmp	r3, #0
 453 000a 01D0     		beq	.L30
 138:.\modem.c     ****         // Modem is already on
 139:.\modem.c     ****         return 1u;
 454              		.loc 1 139 0
 455 000c 0123     		movs	r3, #1
 456 000e 26E0     		b	.L31
 457              	.L30:
 140:.\modem.c     ****     }
 141:.\modem.c     ****     
 142:.\modem.c     ****     // Set ON, PWR pins low
 143:.\modem.c     ****     Telit_ON_Write(0u); 
 458              		.loc 1 143 0
 459 0010 0020     		movs	r0, #0
 460 0012 FFF7FEFF 		bl	Telit_ON_Write
 144:.\modem.c     ****     Telit_RST_Write(0u);
 461              		.loc 1 144 0
 462 0016 0020     		movs	r0, #0
 463 0018 FFF7FEFF 		bl	Telit_RST_Write
 145:.\modem.c     ****     
 146:.\modem.c     ****     // Provide power to Telit module
 147:.\modem.c     ****     //Telit_PWR_Write(0u); //provide power to modem
 148:.\modem.c     ****     Telit_ControlReg_Write(1u);
 464              		.loc 1 148 0
 465 001c 0120     		movs	r0, #1
 466 001e FFF7FEFF 		bl	Telit_ControlReg_Write
 149:.\modem.c     ****     
 150:.\modem.c     ****     // "Push" the ON button for 2 seconds
 151:.\modem.c     ****     Telit_ON_Write(1u); 
ARM GAS  C:\Users\Matthew\AppData\Local\Temp\ccu6ei5I.s 			page 12


 467              		.loc 1 151 0
 468 0022 0120     		movs	r0, #1
 469 0024 FFF7FEFF 		bl	Telit_ON_Write
 152:.\modem.c     ****     CyDelay(2000u);     // the pad ON# must be tied low for at least 1 second and then released.
 470              		.loc 1 152 0
 471 0028 4FF4FA60 		mov	r0, #2000
 472 002c FFF7FEFF 		bl	CyDelay
 153:.\modem.c     ****     //CyDelay(1500u);     // At least 3 seconds if VBAT < 3.4 for GC 864
 154:.\modem.c     ****     Telit_ON_Write(0u); 
 473              		.loc 1 154 0
 474 0030 0020     		movs	r0, #0
 475 0032 FFF7FEFF 		bl	Telit_ON_Write
 155:.\modem.c     ****     
 156:.\modem.c     ****     CyDelay(5000u);  
 476              		.loc 1 156 0
 477 0036 41F28830 		movw	r0, #5000
 478 003a FFF7FEFF 		bl	CyDelay
 157:.\modem.c     ****     /* NOTE:
 158:.\modem.c     ****         "To get the desirable stability, 
 159:.\modem.c     ****         CC864-DUAL needs at least 10 seconds 
 160:.\modem.c     ****         after the PWRMON goes HIGH.*/
 161:.\modem.c     **** 	
 162:.\modem.c     **** 	if(at_write_command("AT\r","OK",1000u) == 1){    
 479              		.loc 1 162 0
 480 003e 0A48     		ldr	r0, .L33+4
 481 0040 0A49     		ldr	r1, .L33+8
 482 0042 4FF47A72 		mov	r2, #1000
 483 0046 FFF7FEFF 		bl	at_write_command
 484 004a 0346     		mov	r3, r0
 485 004c 012B     		cmp	r3, #1
 486 004e 05D1     		bne	.L32
 163:.\modem.c     ****         modem_state = MODEM_STATE_IDLE;
 487              		.loc 1 163 0
 488 0050 044B     		ldr	r3, .L33
 489 0052 0122     		movs	r2, #1
 490 0054 1A70     		strb	r2, [r3]
 164:.\modem.c     ****         return modem_state;
 491              		.loc 1 164 0
 492 0056 034B     		ldr	r3, .L33
 493 0058 1B78     		ldrb	r3, [r3]	@ zero_extendqisi2
 494 005a 00E0     		b	.L31
 495              	.L32:
 165:.\modem.c     ****     }	
 166:.\modem.c     **** 	
 167:.\modem.c     **** 	// Failed to turn on
 168:.\modem.c     ****     return 0u;
 496              		.loc 1 168 0
 497 005c 0023     		movs	r3, #0
 498              	.L31:
 169:.\modem.c     **** }
 499              		.loc 1 169 0
 500 005e 1846     		mov	r0, r3
 501 0060 80BD     		pop	{r7, pc}
 502              	.L34:
 503 0062 00BF     		.align	2
 504              	.L33:
 505 0064 00000000 		.word	modem_state
ARM GAS  C:\Users\Matthew\AppData\Local\Temp\ccu6ei5I.s 			page 13


 506 0068 10000000 		.word	.LC1
 507 006c 14000000 		.word	.LC2
 508              		.cfi_endproc
 509              	.LFE62:
 510              		.size	modem_power_on, .-modem_power_on
 511              		.section	.text.modem_power_off,"ax",%progbits
 512              		.align	2
 513              		.global	modem_power_off
 514              		.thumb
 515              		.thumb_func
 516              		.type	modem_power_off, %function
 517              	modem_power_off:
 518              	.LFB63:
 170:.\modem.c     **** 
 171:.\modem.c     **** uint8 modem_power_off(){
 519              		.loc 1 171 0
 520              		.cfi_startproc
 521              		@ args = 0, pretend = 0, frame = 0
 522              		@ frame_needed = 1, uses_anonymous_args = 0
 523 0000 80B5     		push	{r7, lr}
 524              		.cfi_def_cfa_offset 8
 525              		.cfi_offset 7, -8
 526              		.cfi_offset 14, -4
 527 0002 00AF     		add	r7, sp, #0
 528              		.cfi_def_cfa_register 7
 172:.\modem.c     **** 	
 173:.\modem.c     ****     if (modem_state == MODEM_STATE_OFF) {
 529              		.loc 1 173 0
 530 0004 104B     		ldr	r3, .L38
 531 0006 1B78     		ldrb	r3, [r3]	@ zero_extendqisi2
 532 0008 002B     		cmp	r3, #0
 533 000a 01D1     		bne	.L36
 174:.\modem.c     ****         // Modem is already off
 175:.\modem.c     ****         return 1u;
 534              		.loc 1 175 0
 535 000c 0123     		movs	r3, #1
 536 000e 19E0     		b	.L37
 537              	.L36:
 176:.\modem.c     ****     }
 177:.\modem.c     **** 	
 178:.\modem.c     ****     // Try to disconnect the modem.  
 179:.\modem.c     ****     // Continue whether or not disconnect is successful
 180:.\modem.c     ****     modem_disconnect();
 538              		.loc 1 180 0
 539 0010 FFF7FEFF 		bl	modem_disconnect
 181:.\modem.c     ****     
 182:.\modem.c     ****     // "Push" the ON button for 
 183:.\modem.c     ****     Telit_ON_Write(1u);
 540              		.loc 1 183 0
 541 0014 0120     		movs	r0, #1
 542 0016 FFF7FEFF 		bl	Telit_ON_Write
 184:.\modem.c     ****     CyDelay(2500u);  // To turn the CC864-DUAL off, the ON/OFF Pin must be tied low for 2 second an
 543              		.loc 1 184 0
 544 001a 40F6C410 		movw	r0, #2500
 545 001e FFF7FEFF 		bl	CyDelay
 185:.\modem.c     ****     Telit_ON_Write(0u);
 546              		.loc 1 185 0
ARM GAS  C:\Users\Matthew\AppData\Local\Temp\ccu6ei5I.s 			page 14


 547 0022 0020     		movs	r0, #0
 548 0024 FFF7FEFF 		bl	Telit_ON_Write
 186:.\modem.c     ****     
 187:.\modem.c     ****     CyDelay(5000u); 
 549              		.loc 1 187 0
 550 0028 41F28830 		movw	r0, #5000
 551 002c FFF7FEFF 		bl	CyDelay
 188:.\modem.c     ****     /* CyDelay(5000u); // wait for module to turn off
 189:.\modem.c     ****         "Normally it will be above 10 seconds later from releasing
 190:.\modem.c     ****         ON/OFF# and DTE should monitor the status of PWRMON to see the
 191:.\modem.c     ****         actual power off."  */
 192:.\modem.c     ****     
 193:.\modem.c     ****     // Book keeping
 194:.\modem.c     ****     Telit_ControlReg_Write(0u);    
 552              		.loc 1 194 0
 553 0030 0020     		movs	r0, #0
 554 0032 FFF7FEFF 		bl	Telit_ControlReg_Write
 195:.\modem.c     ****     //Telit_PWR_Write(1u); // Cut power to modem; 1u Disables power to the modem
 196:.\modem.c     ****     Telit_RST_Write(0u); // Make sure the RESET "button" is not pressed
 555              		.loc 1 196 0
 556 0036 0020     		movs	r0, #0
 557 0038 FFF7FEFF 		bl	Telit_RST_Write
 197:.\modem.c     ****     
 198:.\modem.c     ****     modem_state = MODEM_STATE_OFF;
 558              		.loc 1 198 0
 559 003c 024B     		ldr	r3, .L38
 560 003e 0022     		movs	r2, #0
 561 0040 1A70     		strb	r2, [r3]
 199:.\modem.c     ****     return 1u;
 562              		.loc 1 199 0
 563 0042 0123     		movs	r3, #1
 564              	.L37:
 200:.\modem.c     **** }
 565              		.loc 1 200 0
 566 0044 1846     		mov	r0, r3
 567 0046 80BD     		pop	{r7, pc}
 568              	.L39:
 569              		.align	2
 570              	.L38:
 571 0048 00000000 		.word	modem_state
 572              		.cfi_endproc
 573              	.LFE63:
 574              		.size	modem_power_off, .-modem_power_off
 575              		.section	.text.modem_reset,"ax",%progbits
 576              		.align	2
 577              		.global	modem_reset
 578              		.thumb
 579              		.thumb_func
 580              		.type	modem_reset, %function
 581              	modem_reset:
 582              	.LFB64:
 201:.\modem.c     **** 
 202:.\modem.c     **** uint8 modem_reset(){
 583              		.loc 1 202 0
 584              		.cfi_startproc
 585              		@ args = 0, pretend = 0, frame = 0
 586              		@ frame_needed = 1, uses_anonymous_args = 0
ARM GAS  C:\Users\Matthew\AppData\Local\Temp\ccu6ei5I.s 			page 15


 587 0000 80B5     		push	{r7, lr}
 588              		.cfi_def_cfa_offset 8
 589              		.cfi_offset 7, -8
 590              		.cfi_offset 14, -4
 591 0002 00AF     		add	r7, sp, #0
 592              		.cfi_def_cfa_register 7
 203:.\modem.c     ****     if (modem_state != MODEM_STATE_OFF) { // The modem is idle/ready (powered on)
 593              		.loc 1 203 0
 594 0004 0C4B     		ldr	r3, .L43
 595 0006 1B78     		ldrb	r3, [r3]	@ zero_extendqisi2
 596 0008 002B     		cmp	r3, #0
 597 000a 10D0     		beq	.L41
 204:.\modem.c     ****         
 205:.\modem.c     ****         Telit_RST_Write(1u);
 598              		.loc 1 205 0
 599 000c 0120     		movs	r0, #1
 600 000e FFF7FEFF 		bl	Telit_RST_Write
 206:.\modem.c     ****         CyDelay(500u);  //   To reset and to reboot the module, 
 601              		.loc 1 206 0
 602 0012 4FF4FA70 		mov	r0, #500
 603 0016 FFF7FEFF 		bl	CyDelay
 207:.\modem.c     ****                         // the RESET pin must be tied low for at least 200 milliseconds and then re
 208:.\modem.c     ****         Telit_RST_Write(0u);
 604              		.loc 1 208 0
 605 001a 0020     		movs	r0, #0
 606 001c FFF7FEFF 		bl	Telit_RST_Write
 209:.\modem.c     ****         
 210:.\modem.c     ****         CyDelay(5000u); //CyDelay(5000u);
 607              		.loc 1 210 0
 608 0020 41F28830 		movw	r0, #5000
 609 0024 FFF7FEFF 		bl	CyDelay
 211:.\modem.c     ****         modem_state = MODEM_STATE_IDLE;
 610              		.loc 1 211 0
 611 0028 034B     		ldr	r3, .L43
 612 002a 0122     		movs	r2, #1
 613 002c 1A70     		strb	r2, [r3]
 614              	.L41:
 212:.\modem.c     ****     }
 213:.\modem.c     ****     return modem_state;
 615              		.loc 1 213 0
 616 002e 024B     		ldr	r3, .L43
 617 0030 1B78     		ldrb	r3, [r3]	@ zero_extendqisi2
 214:.\modem.c     **** }
 618              		.loc 1 214 0
 619 0032 1846     		mov	r0, r3
 620 0034 80BD     		pop	{r7, pc}
 621              	.L44:
 622 0036 00BF     		.align	2
 623              	.L43:
 624 0038 00000000 		.word	modem_state
 625              		.cfi_endproc
 626              	.LFE64:
 627              		.size	modem_reset, .-modem_reset
 628              		.section	.text.modem_setup,"ax",%progbits
 629              		.align	2
 630              		.global	modem_setup
 631              		.thumb
ARM GAS  C:\Users\Matthew\AppData\Local\Temp\ccu6ei5I.s 			page 16


 632              		.thumb_func
 633              		.type	modem_setup, %function
 634              	modem_setup:
 635              	.LFB65:
 215:.\modem.c     **** 
 216:.\modem.c     **** uint8 modem_setup() {
 636              		.loc 1 216 0
 637              		.cfi_startproc
 638              		@ args = 0, pretend = 0, frame = 0
 639              		@ frame_needed = 1, uses_anonymous_args = 0
 640 0000 80B5     		push	{r7, lr}
 641              		.cfi_def_cfa_offset 8
 642              		.cfi_offset 7, -8
 643              		.cfi_offset 14, -4
 644 0002 00AF     		add	r7, sp, #0
 645              		.cfi_def_cfa_register 7
 217:.\modem.c     **** /* Initialize configurations for the modem */
 218:.\modem.c     **** 	// Set Error Reports to verbose mode
 219:.\modem.c     **** 	if (modem_set_error_reports(2u) != 1u) {
 646              		.loc 1 219 0
 647 0004 0220     		movs	r0, #2
 648 0006 FFF7FEFF 		bl	modem_set_error_reports
 649 000a 0346     		mov	r3, r0
 650 000c 012B     		cmp	r3, #1
 651 000e 01D0     		beq	.L46
 220:.\modem.c     **** 		return 0u;
 652              		.loc 1 220 0
 653 0010 0023     		movs	r3, #0
 654 0012 00E0     		b	.L47
 655              	.L46:
 221:.\modem.c     **** 	}
 222:.\modem.c     **** 	
 223:.\modem.c     **** 	/* UNCOMMENT when using GC864 instead of CC864
 224:.\modem.c     **** 	// Set the APN for GC864-Dual-V2
 225:.\modem.c     **** 	if (modem_set_apn() != 1u) {
 226:.\modem.c     **** 		return 0u;
 227:.\modem.c     **** 	}
 228:.\modem.c     **** 		
 229:.\modem.c     **** 	// Select the band for GC864-Dual-V2
 230:.\modem.c     **** 	if (modem_set_band(1u) != 1u) {
 231:.\modem.c     **** 		return 0u;
 232:.\modem.c     **** 	}
 233:.\modem.c     **** 	*/
 234:.\modem.c     **** 	
 235:.\modem.c     **** 	return 1u;
 656              		.loc 1 235 0
 657 0014 0123     		movs	r3, #1
 658              	.L47:
 236:.\modem.c     **** }
 659              		.loc 1 236 0
 660 0016 1846     		mov	r0, r3
 661 0018 80BD     		pop	{r7, pc}
 662              		.cfi_endproc
 663              	.LFE65:
 664              		.size	modem_setup, .-modem_setup
 665 001a 00BF     		.section	.rodata
 666 0017 00       		.align	2
ARM GAS  C:\Users\Matthew\AppData\Local\Temp\ccu6ei5I.s 			page 17


 667              	.LC3:
 668 0018 41542353 		.ascii	"AT#SGACT=1,1\015\000"
 668      47414354 
 668      3D312C31 
 668      0D00
 669              		.section	.text.modem_connect,"ax",%progbits
 670              		.align	2
 671              		.global	modem_connect
 672              		.thumb
 673              		.thumb_func
 674              		.type	modem_connect, %function
 675              	modem_connect:
 676              	.LFB66:
 237:.\modem.c     **** 
 238:.\modem.c     **** uint8 modem_connect(){
 677              		.loc 1 238 0
 678              		.cfi_startproc
 679              		@ args = 0, pretend = 0, frame = 8
 680              		@ frame_needed = 1, uses_anonymous_args = 0
 681 0000 80B5     		push	{r7, lr}
 682              		.cfi_def_cfa_offset 8
 683              		.cfi_offset 7, -8
 684              		.cfi_offset 14, -4
 685 0002 82B0     		sub	sp, sp, #8
 686              		.cfi_def_cfa_offset 16
 687 0004 00AF     		add	r7, sp, #0
 688              		.cfi_def_cfa_register 7
 239:.\modem.c     **** /* Establish modem connection with the network */	
 240:.\modem.c     **** 	uint8 count = 0u, network_status = 0u;
 689              		.loc 1 240 0
 690 0006 0023     		movs	r3, #0
 691 0008 FB71     		strb	r3, [r7, #7]
 692 000a 0023     		movs	r3, #0
 693 000c BB71     		strb	r3, [r7, #6]
 241:.\modem.c     **** 	
 242:.\modem.c     **** 	// Check if modem is registered on home network
 243:.\modem.c     **** 	// Buffer should return +CREG: 0,1
 244:.\modem.c     **** 	// modem_check_network returns 1u if buffer contains ",1"
 245:.\modem.c     **** 	network_status = modem_check_network();
 694              		.loc 1 245 0
 695 000e FFF7FEFF 		bl	modem_check_network
 696 0012 0346     		mov	r3, r0
 697 0014 BB71     		strb	r3, [r7, #6]
 246:.\modem.c     **** 	while(network_status == 0u && count < MAX_CONN_ATTEMPTS) {
 698              		.loc 1 246 0
 699 0016 0AE0     		b	.L49
 700              	.L51:
 247:.\modem.c     **** 
 248:.\modem.c     **** 		network_status = modem_check_network();
 701              		.loc 1 248 0
 702 0018 FFF7FEFF 		bl	modem_check_network
 703 001c 0346     		mov	r3, r0
 704 001e BB71     		strb	r3, [r7, #6]
 249:.\modem.c     **** 		CyDelay(3000u);
 705              		.loc 1 249 0
 706 0020 40F6B830 		movw	r0, #3000
 707 0024 FFF7FEFF 		bl	CyDelay
ARM GAS  C:\Users\Matthew\AppData\Local\Temp\ccu6ei5I.s 			page 18


 250:.\modem.c     **** 		count++;
 708              		.loc 1 250 0
 709 0028 FB79     		ldrb	r3, [r7, #7]	@ zero_extendqisi2
 710 002a 0133     		adds	r3, r3, #1
 711 002c FB71     		strb	r3, [r7, #7]
 712              	.L49:
 246:.\modem.c     **** 	while(network_status == 0u && count < MAX_CONN_ATTEMPTS) {
 713              		.loc 1 246 0 discriminator 1
 714 002e BB79     		ldrb	r3, [r7, #6]	@ zero_extendqisi2
 715 0030 002B     		cmp	r3, #0
 716 0032 02D1     		bne	.L50
 246:.\modem.c     **** 	while(network_status == 0u && count < MAX_CONN_ATTEMPTS) {
 717              		.loc 1 246 0 is_stmt 0 discriminator 2
 718 0034 FB79     		ldrb	r3, [r7, #7]	@ zero_extendqisi2
 719 0036 042B     		cmp	r3, #4
 720 0038 EED9     		bls	.L51
 721              	.L50:
 251:.\modem.c     **** 	}
 252:.\modem.c     **** 	
 253:.\modem.c     **** 	if (network_status == 1u) {		
 722              		.loc 1 253 0 is_stmt 1
 723 003a BB79     		ldrb	r3, [r7, #6]	@ zero_extendqisi2
 724 003c 012B     		cmp	r3, #1
 725 003e 0ED1     		bne	.L52
 254:.\modem.c     **** 		// Try to activate network context
 255:.\modem.c     **** 		// #SGACT1,<0,1> is for multisocket
 256:.\modem.c     **** 		// For now, use #GPRS, which is from Enhanced Easy IP commands
 257:.\modem.c     **** 	    if(at_write_command("AT#SGACT=1,1\r","OK",5000u) == 1){    
 726              		.loc 1 257 0
 727 0040 0A48     		ldr	r0, .L54
 728 0042 0B49     		ldr	r1, .L54+4
 729 0044 41F28832 		movw	r2, #5000
 730 0048 FFF7FEFF 		bl	at_write_command
 731 004c 0346     		mov	r3, r0
 732 004e 012B     		cmp	r3, #1
 733 0050 05D1     		bne	.L52
 258:.\modem.c     **** 		//if(at_write_command("AT#GPRS=1\r","OK",5000u) == 1){    // Used for GSM (ATT, TMobile)
 259:.\modem.c     **** 	        modem_state = MODEM_STATE_READY;
 734              		.loc 1 259 0
 735 0052 084B     		ldr	r3, .L54+8
 736 0054 0322     		movs	r2, #3
 737 0056 1A70     		strb	r2, [r3]
 260:.\modem.c     **** 	        return modem_state;
 738              		.loc 1 260 0
 739 0058 064B     		ldr	r3, .L54+8
 740 005a 1B78     		ldrb	r3, [r3]	@ zero_extendqisi2
 741 005c 01E0     		b	.L53
 742              	.L52:
 261:.\modem.c     **** 	    }		
 262:.\modem.c     **** 	}
 263:.\modem.c     **** 	
 264:.\modem.c     ****     /* Write to SD Card debugger
 265:.\modem.c     ****     else debug_write("(AT#SGACT=1,1) No IP Address Assigned.");
 266:.\modem.c     ****     */
 267:.\modem.c     **** 
 268:.\modem.c     ****     return modem_state;
 743              		.loc 1 268 0
ARM GAS  C:\Users\Matthew\AppData\Local\Temp\ccu6ei5I.s 			page 19


 744 005e 054B     		ldr	r3, .L54+8
 745 0060 1B78     		ldrb	r3, [r3]	@ zero_extendqisi2
 746              	.L53:
 269:.\modem.c     ****     
 270:.\modem.c     **** /*
 271:.\modem.c     ****     if(at_write_command("AT+CREG=1\r","OK",5000u)){
 272:.\modem.c     ****         if(at_write_command("AT+CREG?\r","OK",5000u)){
 273:.\modem.c     ****         //if(!at_write_command("AT#CGPADDR=1\r","\"",5000u)){
 274:.\modem.c     ****             if(at_write_command("AT#SGACT=1,1\r","OK",30000u)){
 275:.\modem.c     ****                 modem_state = MODEM_STATE_READY;
 276:.\modem.c     ****                 //return 1u; // connected to network
 277:.\modem.c     ****             }
 278:.\modem.c     ****             else debug_write("(AT#SGACT=1,1) No IP Address Assigned.");
 279:.\modem.c     ****         }
 280:.\modem.c     ****        else debug_write("(AT#CGPADDR=1) No IP Address Exists.");   Returns IP address.. should be c
 281:.\modem.c     ****     }
 282:.\modem.c     ****     else debug_write("(AT+CREG=1) Could not register to network."); CREG reports registration statu
 283:.\modem.c     ****     
 284:.\modem.c     ****     return 0u;
 285:.\modem.c     **** */
 286:.\modem.c     **** /*
 287:.\modem.c     ****     at_write_command("AT+CSQ\r","OK",5000u); // get signal strength
 288:.\modem.c     ****     
 289:.\modem.c     ****     if (!at_write_command("AT+CREG=1\r","OK",5000u)) { // look for network
 290:.\modem.c     ****         debug_write("(AT+CREG=1) Could not register to network.");
 291:.\modem.c     ****     }
 292:.\modem.c     ****     
 293:.\modem.c     ****     at_write_command("AT#SCFG=1,1,0,0,1200,0\r","OK",5000u); // config parameter
 294:.\modem.c     ****     
 295:.\modem.c     ****     if (at_write_command("AT#CGPADDR=1\r","OK",5000u)) {// check if ip address exists
 296:.\modem.c     ****         debug_write("(AT#CGPADDR=1) No IP Address Exists.");    
 297:.\modem.c     ****     }
 298:.\modem.c     ****     
 299:.\modem.c     ****     at_write_command("AT#SGACT?","OK",30000u);
 300:.\modem.c     ****     
 301:.\modem.c     ****     uint8 success  = at_write_command("AT#SGACT=1,1\r","OK",30000u); // This command should return 
 302:.\modem.c     ****     //success = at_write_command("AT#SD=1,0,50000,\"141.212.136.222\",0,0,1\r","OK",5000u); // conn
 303:.\modem.c     ****     
 304:.\modem.c     ****     if (!success) {
 305:.\modem.c     ****         debug_write("(AT#SGACT=1,1) No IP Address Assigned.");
 306:.\modem.c     ****     }
 307:.\modem.c     ****     
 308:.\modem.c     ****     return success;
 309:.\modem.c     ****     */
 310:.\modem.c     ****     
 311:.\modem.c     **** }
 747              		.loc 1 311 0
 748 0062 1846     		mov	r0, r3
 749 0064 0837     		adds	r7, r7, #8
 750 0066 BD46     		mov	sp, r7
 751              		@ sp needed
 752 0068 80BD     		pop	{r7, pc}
 753              	.L55:
 754 006a 00BF     		.align	2
 755              	.L54:
 756 006c 18000000 		.word	.LC3
 757 0070 14000000 		.word	.LC2
ARM GAS  C:\Users\Matthew\AppData\Local\Temp\ccu6ei5I.s 			page 20


 758 0074 00000000 		.word	modem_state
 759              		.cfi_endproc
 760              	.LFE66:
 761              		.size	modem_connect, .-modem_connect
 762              		.section	.rodata
 763 0026 0000     		.align	2
 764              	.LC4:
 765 0028 41542353 		.ascii	"AT#SGACT=1,0\015\000"
 765      47414354 
 765      3D312C30 
 765      0D00
 766              		.section	.text.modem_disconnect,"ax",%progbits
 767              		.align	2
 768              		.global	modem_disconnect
 769              		.thumb
 770              		.thumb_func
 771              		.type	modem_disconnect, %function
 772              	modem_disconnect:
 773              	.LFB67:
 312:.\modem.c     **** 
 313:.\modem.c     **** uint8 modem_disconnect(){
 774              		.loc 1 313 0
 775              		.cfi_startproc
 776              		@ args = 0, pretend = 0, frame = 0
 777              		@ frame_needed = 1, uses_anonymous_args = 0
 778 0000 80B5     		push	{r7, lr}
 779              		.cfi_def_cfa_offset 8
 780              		.cfi_offset 7, -8
 781              		.cfi_offset 14, -4
 782 0002 00AF     		add	r7, sp, #0
 783              		.cfi_def_cfa_register 7
 314:.\modem.c     **** /* Close modem connection to network */
 315:.\modem.c     **** 	
 316:.\modem.c     ****     // Proceed if modem is not connected to network.  Otherwise, try to disconnect from the network
 317:.\modem.c     ****     if(modem_state != MODEM_STATE_READY) {
 784              		.loc 1 317 0
 785 0004 094B     		ldr	r3, .L59
 786 0006 1B78     		ldrb	r3, [r3]	@ zero_extendqisi2
 787 0008 032B     		cmp	r3, #3
 788 000a 0CD0     		beq	.L57
 318:.\modem.c     ****         /* Can use this statement instead for GSM (ATT, TMobile)
 319:.\modem.c     **** 		return (at_write_command("AT#GPRS=0\r","OK",5000u) == 1u);
 320:.\modem.c     **** 		*/
 321:.\modem.c     **** 		return (at_write_command("AT#SGACT=1,0\r","OK",5000u) == 1u);
 789              		.loc 1 321 0
 790 000c 0848     		ldr	r0, .L59+4
 791 000e 0949     		ldr	r1, .L59+8
 792 0010 41F28832 		movw	r2, #5000
 793 0014 FFF7FEFF 		bl	at_write_command
 794 0018 0346     		mov	r3, r0
 795 001a 012B     		cmp	r3, #1
 796 001c 14BF     		ite	ne
 797 001e 0023     		movne	r3, #0
 798 0020 0123     		moveq	r3, #1
 799 0022 DBB2     		uxtb	r3, r3
 800 0024 00E0     		b	.L58
 801              	.L57:
ARM GAS  C:\Users\Matthew\AppData\Local\Temp\ccu6ei5I.s 			page 21


 322:.\modem.c     **** 			
 323:.\modem.c     **** 		/*
 324:.\modem.c     **** 		if(at_write_command("AT#SH=1","OK",10000u) == 1){
 325:.\modem.c     ****             if(at_write_command("AT#SGACT=1,0","OK",10000u) == 1){
 326:.\modem.c     ****                 modem_state = MODEM_STATE_IDLE;
 327:.\modem.c     ****                 return 1u;
 328:.\modem.c     ****             }
 329:.\modem.c     ****             // Write to SD Card debugger
 330:.\modem.c     ****             else {
 331:.\modem.c     ****                 debug_write("(AT#SGACT=1,0) Could not disconnect.");
 332:.\modem.c     ****             }
 333:.\modem.c     ****             
 334:.\modem.c     ****         }
 335:.\modem.c     ****         Write to SD Card debugger
 336:.\modem.c     ****         else {
 337:.\modem.c     ****             debug_write("(AT#SH=1) Could not close socket.");
 338:.\modem.c     ****         }
 339:.\modem.c     ****         */
 340:.\modem.c     ****     }
 341:.\modem.c     ****     /* Write to SD Card debugger
 342:.\modem.c     ****     else {
 343:.\modem.c     ****         if (modem_state == MODEM_STATE_OFF) {
 344:.\modem.c     ****             debug_write( "(modem_state != MODEM_STATE_READY) modem_state = MODEM_STATE_OFF" );
 345:.\modem.c     ****         }
 346:.\modem.c     ****         else if (modem_state == MODEM_STATE_IDLE) {
 347:.\modem.c     ****             debug_write( "(modem_state != MODEM_STATE_READY) modem_state = MODEM_STATE_IDLE" );
 348:.\modem.c     ****         }
 349:.\modem.c     ****     }
 350:.\modem.c     ****     */
 351:.\modem.c     ****     return 0u; // failed to disconnect
 802              		.loc 1 351 0
 803 0026 0023     		movs	r3, #0
 804              	.L58:
 352:.\modem.c     **** }
 805              		.loc 1 352 0
 806 0028 1846     		mov	r0, r3
 807 002a 80BD     		pop	{r7, pc}
 808              	.L60:
 809              		.align	2
 810              	.L59:
 811 002c 00000000 		.word	modem_state
 812 0030 28000000 		.word	.LC4
 813 0034 14000000 		.word	.LC2
 814              		.cfi_endproc
 815              	.LFE67:
 816              		.size	modem_disconnect, .-modem_disconnect
 817              		.section	.rodata
 818 0036 0000     		.align	2
 819              	.LC5:
 820 0038 41542B43 		.ascii	"AT+CGDCONT=1,\"IP\",\"%s\"\015\000"
 820      4744434F 
 820      4E543D31 
 820      2C224950 
 820      222C2225 
 821              		.section	.text.modem_set_apn,"ax",%progbits
 822              		.align	2
 823              		.global	modem_set_apn
ARM GAS  C:\Users\Matthew\AppData\Local\Temp\ccu6ei5I.s 			page 22


 824              		.thumb
 825              		.thumb_func
 826              		.type	modem_set_apn, %function
 827              	modem_set_apn:
 828              	.LFB68:
 353:.\modem.c     **** 
 354:.\modem.c     **** uint8 modem_set_apn() {
 829              		.loc 1 354 0
 830              		.cfi_startproc
 831              		@ args = 0, pretend = 0, frame = 104
 832              		@ frame_needed = 1, uses_anonymous_args = 0
 833 0000 80B5     		push	{r7, lr}
 834              		.cfi_def_cfa_offset 8
 835              		.cfi_offset 7, -8
 836              		.cfi_offset 14, -4
 837 0002 9AB0     		sub	sp, sp, #104
 838              		.cfi_def_cfa_offset 112
 839 0004 00AF     		add	r7, sp, #0
 840              		.cfi_def_cfa_register 7
 355:.\modem.c     **** /* 
 356:.\modem.c     **** 	Set the access point that the modem connects to.
 357:.\modem.c     **** 	The APN is defined in "modem_apn" at the
 358:.\modem.c     **** 	top of this file 
 359:.\modem.c     **** */
 360:.\modem.c     ****     char cmd[100];
 361:.\modem.c     ****     sprintf(cmd,"AT+CGDCONT=1,\"IP\",\"%s\"\r",modem_apn);
 841              		.loc 1 361 0
 842 0006 0C4B     		ldr	r3, .L65
 843 0008 1B68     		ldr	r3, [r3]
 844 000a 3A1D     		adds	r2, r7, #4
 845 000c 1046     		mov	r0, r2
 846 000e 0B49     		ldr	r1, .L65+4
 847 0010 1A46     		mov	r2, r3
 848 0012 FFF7FEFF 		bl	sprintf
 362:.\modem.c     ****     if(at_write_command(cmd,"OK",2000u) == 1u){      
 849              		.loc 1 362 0
 850 0016 3B1D     		adds	r3, r7, #4
 851 0018 1846     		mov	r0, r3
 852 001a 0949     		ldr	r1, .L65+8
 853 001c 4FF4FA62 		mov	r2, #2000
 854 0020 FFF7FEFF 		bl	at_write_command
 855 0024 0346     		mov	r3, r0
 856 0026 012B     		cmp	r3, #1
 857 0028 01D1     		bne	.L62
 363:.\modem.c     ****         return 1u;
 858              		.loc 1 363 0
 859 002a 0123     		movs	r3, #1
 860 002c 00E0     		b	.L64
 861              	.L62:
 364:.\modem.c     ****     }
 365:.\modem.c     ****     /* Write to SD Card debugger
 366:.\modem.c     ****     else debug_write("(AT#SGACT=1,1) No IP Address Assigned.");
 367:.\modem.c     ****     */
 368:.\modem.c     **** 
 369:.\modem.c     ****     return 0u; 
 862              		.loc 1 369 0
 863 002e 0023     		movs	r3, #0
ARM GAS  C:\Users\Matthew\AppData\Local\Temp\ccu6ei5I.s 			page 23


 864              	.L64:
 370:.\modem.c     **** }
 865              		.loc 1 370 0
 866 0030 1846     		mov	r0, r3
 867 0032 6837     		adds	r7, r7, #104
 868 0034 BD46     		mov	sp, r7
 869              		@ sp needed
 870 0036 80BD     		pop	{r7, pc}
 871              	.L66:
 872              		.align	2
 873              	.L65:
 874 0038 00000000 		.word	modem_apn
 875 003c 38000000 		.word	.LC5
 876 0040 14000000 		.word	.LC2
 877              		.cfi_endproc
 878              	.LFE68:
 879              		.size	modem_set_apn, .-modem_set_apn
 880              		.section	.rodata
 881              		.align	2
 882              	.LC6:
 883 0050 41542342 		.ascii	"AT#BND=%d\015\000"
 883      4E443D25 
 883      640D00
 884              		.section	.text.modem_set_band,"ax",%progbits
 885              		.align	2
 886              		.global	modem_set_band
 887              		.thumb
 888              		.thumb_func
 889              		.type	modem_set_band, %function
 890              	modem_set_band:
 891              	.LFB69:
 371:.\modem.c     **** 
 372:.\modem.c     **** uint8 modem_set_band(uint8 band) {
 892              		.loc 1 372 0
 893              		.cfi_startproc
 894              		@ args = 0, pretend = 0, frame = 112
 895              		@ frame_needed = 1, uses_anonymous_args = 0
 896 0000 80B5     		push	{r7, lr}
 897              		.cfi_def_cfa_offset 8
 898              		.cfi_offset 7, -8
 899              		.cfi_offset 14, -4
 900 0002 9CB0     		sub	sp, sp, #112
 901              		.cfi_def_cfa_offset 120
 902 0004 00AF     		add	r7, sp, #0
 903              		.cfi_def_cfa_register 7
 904 0006 0346     		mov	r3, r0
 905 0008 FB71     		strb	r3, [r7, #7]
 373:.\modem.c     **** /* 
 374:.\modem.c     **** 	Set the band on which the modem should communicate on
 375:.\modem.c     **** 	Band ranges from <0,3>
 376:.\modem.c     **** 	"epc.tmobile.com" uses band 1
 377:.\modem.c     **** */
 378:.\modem.c     ****     char cmd[100];
 379:.\modem.c     ****     sprintf(cmd,"AT#BND=%d\r",band);
 906              		.loc 1 379 0
 907 000a FB79     		ldrb	r3, [r7, #7]	@ zero_extendqisi2
 908 000c 07F10C02 		add	r2, r7, #12
ARM GAS  C:\Users\Matthew\AppData\Local\Temp\ccu6ei5I.s 			page 24


 909 0010 1046     		mov	r0, r2
 910 0012 0B49     		ldr	r1, .L71
 911 0014 1A46     		mov	r2, r3
 912 0016 FFF7FEFF 		bl	sprintf
 380:.\modem.c     ****     if(at_write_command(cmd,"OK",2000u) == 1u){      
 913              		.loc 1 380 0
 914 001a 07F10C03 		add	r3, r7, #12
 915 001e 1846     		mov	r0, r3
 916 0020 0849     		ldr	r1, .L71+4
 917 0022 4FF4FA62 		mov	r2, #2000
 918 0026 FFF7FEFF 		bl	at_write_command
 919 002a 0346     		mov	r3, r0
 920 002c 012B     		cmp	r3, #1
 921 002e 01D1     		bne	.L68
 381:.\modem.c     ****         return 1u;
 922              		.loc 1 381 0
 923 0030 0123     		movs	r3, #1
 924 0032 00E0     		b	.L70
 925              	.L68:
 382:.\modem.c     ****     }
 383:.\modem.c     ****     /* Write to SD Card debugger
 384:.\modem.c     ****     else debug_write("(AT#SGACT=1,1) No IP Address Assigned.");
 385:.\modem.c     ****     */
 386:.\modem.c     **** 
 387:.\modem.c     ****     return 0u; 
 926              		.loc 1 387 0
 927 0034 0023     		movs	r3, #0
 928              	.L70:
 388:.\modem.c     **** }
 929              		.loc 1 388 0
 930 0036 1846     		mov	r0, r3
 931 0038 7037     		adds	r7, r7, #112
 932 003a BD46     		mov	sp, r7
 933              		@ sp needed
 934 003c 80BD     		pop	{r7, pc}
 935              	.L72:
 936 003e 00BF     		.align	2
 937              	.L71:
 938 0040 50000000 		.word	.LC6
 939 0044 14000000 		.word	.LC2
 940              		.cfi_endproc
 941              	.LFE69:
 942              		.size	modem_set_band, .-modem_set_band
 943              		.section	.rodata
 944 005b 00       		.align	2
 945              	.LC7:
 946 005c 41542B43 		.ascii	"AT+CCLK?\015\000"
 946      434C4B3F 
 946      0D00
 947              		.section	.text.modem_get_time,"ax",%progbits
 948              		.align	2
 949              		.global	modem_get_time
 950              		.thumb
 951              		.thumb_func
 952              		.type	modem_get_time, %function
 953              	modem_get_time:
 954              	.LFB70:
ARM GAS  C:\Users\Matthew\AppData\Local\Temp\ccu6ei5I.s 			page 25


 389:.\modem.c     **** 
 390:.\modem.c     **** uint8 modem_get_time(){
 955              		.loc 1 390 0
 956              		.cfi_startproc
 957              		@ args = 0, pretend = 0, frame = 0
 958              		@ frame_needed = 1, uses_anonymous_args = 0
 959 0000 80B5     		push	{r7, lr}
 960              		.cfi_def_cfa_offset 8
 961              		.cfi_offset 7, -8
 962              		.cfi_offset 14, -4
 963 0002 00AF     		add	r7, sp, #0
 964              		.cfi_def_cfa_register 7
 391:.\modem.c     ****     if(at_write_command("AT+CCLK?\r","OK",1000u) == 1u){      
 965              		.loc 1 391 0
 966 0004 0648     		ldr	r0, .L76
 967 0006 0749     		ldr	r1, .L76+4
 968 0008 4FF47A72 		mov	r2, #1000
 969 000c FFF7FEFF 		bl	at_write_command
 970 0010 0346     		mov	r3, r0
 971 0012 012B     		cmp	r3, #1
 972 0014 01D1     		bne	.L74
 392:.\modem.c     ****         return 1u;
 973              		.loc 1 392 0
 974 0016 0123     		movs	r3, #1
 975 0018 00E0     		b	.L75
 976              	.L74:
 393:.\modem.c     ****     }
 394:.\modem.c     ****     /* Write to SD Card debugger
 395:.\modem.c     ****     else debug_write("(AT#SGACT=1,1) No IP Address Assigned.");
 396:.\modem.c     ****     */
 397:.\modem.c     ****     
 398:.\modem.c     ****     /* Parse Time from data packet */
 399:.\modem.c     **** 
 400:.\modem.c     ****     return 0u;  
 977              		.loc 1 400 0
 978 001a 0023     		movs	r3, #0
 979              	.L75:
 401:.\modem.c     **** }
 980              		.loc 1 401 0
 981 001c 1846     		mov	r0, r3
 982 001e 80BD     		pop	{r7, pc}
 983              	.L77:
 984              		.align	2
 985              	.L76:
 986 0020 5C000000 		.word	.LC7
 987 0024 14000000 		.word	.LC2
 988              		.cfi_endproc
 989              	.LFE70:
 990              		.size	modem_get_time, .-modem_get_time
 991              		.section	.rodata
 992 0066 0000     		.align	2
 993              	.LC8:
 994 0068 41542B43 		.ascii	"AT+CREG?\015\000"
 994      5245473F 
 994      0D00
 995 0072 0000     		.align	2
 996              	.LC9:
ARM GAS  C:\Users\Matthew\AppData\Local\Temp\ccu6ei5I.s 			page 26


 997 0074 2C3100   		.ascii	",1\000"
 998              		.section	.text.modem_check_network,"ax",%progbits
 999              		.align	2
 1000              		.global	modem_check_network
 1001              		.thumb
 1002              		.thumb_func
 1003              		.type	modem_check_network, %function
 1004              	modem_check_network:
 1005              	.LFB71:
 402:.\modem.c     **** 
 403:.\modem.c     **** uint8 modem_check_network() {
 1006              		.loc 1 403 0
 1007              		.cfi_startproc
 1008              		@ args = 0, pretend = 0, frame = 0
 1009              		@ frame_needed = 1, uses_anonymous_args = 0
 1010 0000 80B5     		push	{r7, lr}
 1011              		.cfi_def_cfa_offset 8
 1012              		.cfi_offset 7, -8
 1013              		.cfi_offset 14, -4
 1014 0002 00AF     		add	r7, sp, #0
 1015              		.cfi_def_cfa_register 7
 404:.\modem.c     ****     if(at_write_command("AT+CREG?\r",",1",1000u) == 1u){      
 1016              		.loc 1 404 0
 1017 0004 0648     		ldr	r0, .L81
 1018 0006 0749     		ldr	r1, .L81+4
 1019 0008 4FF47A72 		mov	r2, #1000
 1020 000c FFF7FEFF 		bl	at_write_command
 1021 0010 0346     		mov	r3, r0
 1022 0012 012B     		cmp	r3, #1
 1023 0014 01D1     		bne	.L79
 405:.\modem.c     ****         return 1u;
 1024              		.loc 1 405 0
 1025 0016 0123     		movs	r3, #1
 1026 0018 00E0     		b	.L80
 1027              	.L79:
 406:.\modem.c     ****     }
 407:.\modem.c     ****     /* Write to SD Card debugger
 408:.\modem.c     ****     else debug_write("(AT#SGACT=1,1) No IP Address Assigned.");
 409:.\modem.c     ****     */
 410:.\modem.c     ****     
 411:.\modem.c     ****     /* Parse Time from data packet */
 412:.\modem.c     **** 
 413:.\modem.c     ****     return 0u;      
 1028              		.loc 1 413 0
 1029 001a 0023     		movs	r3, #0
 1030              	.L80:
 414:.\modem.c     **** }
 1031              		.loc 1 414 0
 1032 001c 1846     		mov	r0, r3
 1033 001e 80BD     		pop	{r7, pc}
 1034              	.L82:
 1035              		.align	2
 1036              	.L81:
 1037 0020 68000000 		.word	.LC8
 1038 0024 74000000 		.word	.LC9
 1039              		.cfi_endproc
 1040              	.LFE71:
ARM GAS  C:\Users\Matthew\AppData\Local\Temp\ccu6ei5I.s 			page 27


 1041              		.size	modem_check_network, .-modem_check_network
 1042              		.section	.rodata
 1043 0077 00       		.align	2
 1044              	.LC10:
 1045 0078 41542B43 		.ascii	"AT+CSQ\015\000"
 1045      53510D00 
 1046              		.section	.text.modem_get_signal_quality,"ax",%progbits
 1047              		.align	2
 1048              		.global	modem_get_signal_quality
 1049              		.thumb
 1050              		.thumb_func
 1051              		.type	modem_get_signal_quality, %function
 1052              	modem_get_signal_quality:
 1053              	.LFB72:
 415:.\modem.c     **** uint8 modem_get_signal_quality(){
 1054              		.loc 1 415 0
 1055              		.cfi_startproc
 1056              		@ args = 0, pretend = 0, frame = 0
 1057              		@ frame_needed = 1, uses_anonymous_args = 0
 1058 0000 80B5     		push	{r7, lr}
 1059              		.cfi_def_cfa_offset 8
 1060              		.cfi_offset 7, -8
 1061              		.cfi_offset 14, -4
 1062 0002 00AF     		add	r7, sp, #0
 1063              		.cfi_def_cfa_register 7
 416:.\modem.c     ****     if(at_write_command("AT+CSQ\r","OK",1000u) == 1u){      
 1064              		.loc 1 416 0
 1065 0004 0648     		ldr	r0, .L86
 1066 0006 0749     		ldr	r1, .L86+4
 1067 0008 4FF47A72 		mov	r2, #1000
 1068 000c FFF7FEFF 		bl	at_write_command
 1069 0010 0346     		mov	r3, r0
 1070 0012 012B     		cmp	r3, #1
 1071 0014 01D1     		bne	.L84
 417:.\modem.c     ****         return 1u;
 1072              		.loc 1 417 0
 1073 0016 0123     		movs	r3, #1
 1074 0018 00E0     		b	.L85
 1075              	.L84:
 418:.\modem.c     ****     }
 419:.\modem.c     ****     /* Write to SD Card debugger
 420:.\modem.c     ****     else debug_write("(AT#SGACT=1,1) No IP Address Assigned.");
 421:.\modem.c     ****     */
 422:.\modem.c     ****     
 423:.\modem.c     ****     /* Parse Time from data packet */
 424:.\modem.c     **** 
 425:.\modem.c     ****     return 0u;  
 1076              		.loc 1 425 0
 1077 001a 0023     		movs	r3, #0
 1078              	.L85:
 426:.\modem.c     **** }
 1079              		.loc 1 426 0
 1080 001c 1846     		mov	r0, r3
 1081 001e 80BD     		pop	{r7, pc}
 1082              	.L87:
 1083              		.align	2
 1084              	.L86:
ARM GAS  C:\Users\Matthew\AppData\Local\Temp\ccu6ei5I.s 			page 28


 1085 0020 78000000 		.word	.LC10
 1086 0024 14000000 		.word	.LC2
 1087              		.cfi_endproc
 1088              	.LFE72:
 1089              		.size	modem_get_signal_quality, .-modem_get_signal_quality
 1090              		.section	.rodata
 1091              		.align	2
 1092              	.LC11:
 1093 0080 41542B43 		.ascii	"AT+CGSN\015\000"
 1093      47534E0D 
 1093      00
 1094              		.section	.text.modem_get_serial_number,"ax",%progbits
 1095              		.align	2
 1096              		.global	modem_get_serial_number
 1097              		.thumb
 1098              		.thumb_func
 1099              		.type	modem_get_serial_number, %function
 1100              	modem_get_serial_number:
 1101              	.LFB73:
 427:.\modem.c     **** 
 428:.\modem.c     **** uint8 modem_get_serial_number(){
 1102              		.loc 1 428 0
 1103              		.cfi_startproc
 1104              		@ args = 0, pretend = 0, frame = 0
 1105              		@ frame_needed = 1, uses_anonymous_args = 0
 1106 0000 80B5     		push	{r7, lr}
 1107              		.cfi_def_cfa_offset 8
 1108              		.cfi_offset 7, -8
 1109              		.cfi_offset 14, -4
 1110 0002 00AF     		add	r7, sp, #0
 1111              		.cfi_def_cfa_register 7
 429:.\modem.c     ****     if(at_write_command("AT+CGSN\r","OK",1000u) == 1u){      
 1112              		.loc 1 429 0
 1113 0004 0648     		ldr	r0, .L91
 1114 0006 0749     		ldr	r1, .L91+4
 1115 0008 4FF47A72 		mov	r2, #1000
 1116 000c FFF7FEFF 		bl	at_write_command
 1117 0010 0346     		mov	r3, r0
 1118 0012 012B     		cmp	r3, #1
 1119 0014 01D1     		bne	.L89
 430:.\modem.c     ****         return 1u;
 1120              		.loc 1 430 0
 1121 0016 0123     		movs	r3, #1
 1122 0018 00E0     		b	.L90
 1123              	.L89:
 431:.\modem.c     ****     }
 432:.\modem.c     ****     /* Write to SD Card debugger
 433:.\modem.c     ****     else debug_write("(AT#SGACT=1,1) No IP Address Assigned.");
 434:.\modem.c     ****     */
 435:.\modem.c     **** 
 436:.\modem.c     ****     return 0u;  
 1124              		.loc 1 436 0
 1125 001a 0023     		movs	r3, #0
 1126              	.L90:
 437:.\modem.c     **** }
 1127              		.loc 1 437 0
 1128 001c 1846     		mov	r0, r3
ARM GAS  C:\Users\Matthew\AppData\Local\Temp\ccu6ei5I.s 			page 29


 1129 001e 80BD     		pop	{r7, pc}
 1130              	.L92:
 1131              		.align	2
 1132              	.L91:
 1133 0020 80000000 		.word	.LC11
 1134 0024 14000000 		.word	.LC2
 1135              		.cfi_endproc
 1136              	.LFE73:
 1137              		.size	modem_get_serial_number, .-modem_get_serial_number
 1138              		.section	.rodata
 1139 0089 000000   		.align	2
 1140              	.LC12:
 1141 008c 41542656 		.ascii	"AT&V\015\000"
 1141      0D00
 1142              		.section	.text.modem_get_profile,"ax",%progbits
 1143              		.align	2
 1144              		.global	modem_get_profile
 1145              		.thumb
 1146              		.thumb_func
 1147              		.type	modem_get_profile, %function
 1148              	modem_get_profile:
 1149              	.LFB74:
 438:.\modem.c     **** 
 439:.\modem.c     **** 
 440:.\modem.c     **** uint8 modem_get_profile(){
 1150              		.loc 1 440 0
 1151              		.cfi_startproc
 1152              		@ args = 0, pretend = 0, frame = 0
 1153              		@ frame_needed = 1, uses_anonymous_args = 0
 1154 0000 80B5     		push	{r7, lr}
 1155              		.cfi_def_cfa_offset 8
 1156              		.cfi_offset 7, -8
 1157              		.cfi_offset 14, -4
 1158 0002 00AF     		add	r7, sp, #0
 1159              		.cfi_def_cfa_register 7
 441:.\modem.c     ****     if(at_write_command("AT&V\r","OK",1000u) == 1u){      
 1160              		.loc 1 441 0
 1161 0004 0648     		ldr	r0, .L96
 1162 0006 0749     		ldr	r1, .L96+4
 1163 0008 4FF47A72 		mov	r2, #1000
 1164 000c FFF7FEFF 		bl	at_write_command
 1165 0010 0346     		mov	r3, r0
 1166 0012 012B     		cmp	r3, #1
 1167 0014 01D1     		bne	.L94
 442:.\modem.c     ****         return 1u;
 1168              		.loc 1 442 0
 1169 0016 0123     		movs	r3, #1
 1170 0018 00E0     		b	.L95
 1171              	.L94:
 443:.\modem.c     ****     }
 444:.\modem.c     ****     /* Write to SD Card debugger
 445:.\modem.c     ****     else debug_write("(AT#SGACT=1,1) No IP Address Assigned.");
 446:.\modem.c     ****     */
 447:.\modem.c     **** 
 448:.\modem.c     ****     return 0u;  
 1172              		.loc 1 448 0
 1173 001a 0023     		movs	r3, #0
ARM GAS  C:\Users\Matthew\AppData\Local\Temp\ccu6ei5I.s 			page 30


 1174              	.L95:
 449:.\modem.c     **** }
 1175              		.loc 1 449 0
 1176 001c 1846     		mov	r0, r3
 1177 001e 80BD     		pop	{r7, pc}
 1178              	.L97:
 1179              		.align	2
 1180              	.L96:
 1181 0020 8C000000 		.word	.LC12
 1182 0024 14000000 		.word	.LC2
 1183              		.cfi_endproc
 1184              	.LFE74:
 1185              		.size	modem_get_profile, .-modem_get_profile
 1186              		.section	.rodata
 1187 0092 0000     		.align	2
 1188              	.LC13:
 1189 0094 4154264B 		.ascii	"AT&K%u\015\000"
 1189      25750D00 
 1190              		.section	.text.modem_set_flow_control,"ax",%progbits
 1191              		.align	2
 1192              		.global	modem_set_flow_control
 1193              		.thumb
 1194              		.thumb_func
 1195              		.type	modem_set_flow_control, %function
 1196              	modem_set_flow_control:
 1197              	.LFB75:
 450:.\modem.c     **** 
 451:.\modem.c     **** uint8 modem_set_flow_control(uint8 param){
 1198              		.loc 1 451 0
 1199              		.cfi_startproc
 1200              		@ args = 0, pretend = 0, frame = 112
 1201              		@ frame_needed = 1, uses_anonymous_args = 0
 1202 0000 80B5     		push	{r7, lr}
 1203              		.cfi_def_cfa_offset 8
 1204              		.cfi_offset 7, -8
 1205              		.cfi_offset 14, -4
 1206 0002 9CB0     		sub	sp, sp, #112
 1207              		.cfi_def_cfa_offset 120
 1208 0004 00AF     		add	r7, sp, #0
 1209              		.cfi_def_cfa_register 7
 1210 0006 0346     		mov	r3, r0
 1211 0008 FB71     		strb	r3, [r7, #7]
 452:.\modem.c     ****     char cmd[100];
 453:.\modem.c     ****     sprintf(cmd,"AT&K%u\r",param);
 1212              		.loc 1 453 0
 1213 000a FB79     		ldrb	r3, [r7, #7]	@ zero_extendqisi2
 1214 000c 07F10C02 		add	r2, r7, #12
 1215 0010 1046     		mov	r0, r2
 1216 0012 0B49     		ldr	r1, .L102
 1217 0014 1A46     		mov	r2, r3
 1218 0016 FFF7FEFF 		bl	sprintf
 454:.\modem.c     ****     if(at_write_command(cmd,"OK",1000u) == 1u){      
 1219              		.loc 1 454 0
 1220 001a 07F10C03 		add	r3, r7, #12
 1221 001e 1846     		mov	r0, r3
 1222 0020 0849     		ldr	r1, .L102+4
 1223 0022 4FF47A72 		mov	r2, #1000
ARM GAS  C:\Users\Matthew\AppData\Local\Temp\ccu6ei5I.s 			page 31


 1224 0026 FFF7FEFF 		bl	at_write_command
 1225 002a 0346     		mov	r3, r0
 1226 002c 012B     		cmp	r3, #1
 1227 002e 01D1     		bne	.L99
 455:.\modem.c     ****         return 1u;
 1228              		.loc 1 455 0
 1229 0030 0123     		movs	r3, #1
 1230 0032 00E0     		b	.L101
 1231              	.L99:
 456:.\modem.c     ****     }
 457:.\modem.c     ****     /* Write to SD Card debugger
 458:.\modem.c     ****     else debug_write("(AT#SGACT=1,1) No IP Address Assigned.");
 459:.\modem.c     ****     */
 460:.\modem.c     **** 
 461:.\modem.c     ****     return 0u;  
 1232              		.loc 1 461 0
 1233 0034 0023     		movs	r3, #0
 1234              	.L101:
 462:.\modem.c     **** }
 1235              		.loc 1 462 0
 1236 0036 1846     		mov	r0, r3
 1237 0038 7037     		adds	r7, r7, #112
 1238 003a BD46     		mov	sp, r7
 1239              		@ sp needed
 1240 003c 80BD     		pop	{r7, pc}
 1241              	.L103:
 1242 003e 00BF     		.align	2
 1243              	.L102:
 1244 0040 94000000 		.word	.LC13
 1245 0044 14000000 		.word	.LC2
 1246              		.cfi_endproc
 1247              	.LFE75:
 1248              		.size	modem_set_flow_control, .-modem_set_flow_control
 1249              		.section	.rodata
 1250              		.align	2
 1251              	.LC14:
 1252 009c 41542B43 		.ascii	"AT+CMEE=%u\015\000"
 1252      4D45453D 
 1252      25750D00 
 1253              		.section	.text.modem_set_error_reports,"ax",%progbits
 1254              		.align	2
 1255              		.global	modem_set_error_reports
 1256              		.thumb
 1257              		.thumb_func
 1258              		.type	modem_set_error_reports, %function
 1259              	modem_set_error_reports:
 1260              	.LFB76:
 463:.\modem.c     **** 
 464:.\modem.c     **** uint8 modem_set_error_reports(uint8 param){
 1261              		.loc 1 464 0
 1262              		.cfi_startproc
 1263              		@ args = 0, pretend = 0, frame = 112
 1264              		@ frame_needed = 1, uses_anonymous_args = 0
 1265 0000 80B5     		push	{r7, lr}
 1266              		.cfi_def_cfa_offset 8
 1267              		.cfi_offset 7, -8
 1268              		.cfi_offset 14, -4
ARM GAS  C:\Users\Matthew\AppData\Local\Temp\ccu6ei5I.s 			page 32


 1269 0002 9CB0     		sub	sp, sp, #112
 1270              		.cfi_def_cfa_offset 120
 1271 0004 00AF     		add	r7, sp, #0
 1272              		.cfi_def_cfa_register 7
 1273 0006 0346     		mov	r3, r0
 1274 0008 FB71     		strb	r3, [r7, #7]
 465:.\modem.c     **** 	/*
 466:.\modem.c     **** 	2.4. Enable Extended Error Result codes
 467:.\modem.c     **** 	Disable the Error Report in numerical and verbose format:
 468:.\modem.c     **** 	AT+CMEE=0
 469:.\modem.c     **** 	OK
 470:.\modem.c     **** 	Enable the Error Report in numerical format:
 471:.\modem.c     **** 	AT+CMEE=1
 472:.\modem.c     **** 	OK
 473:.\modem.c     **** 	Enable the Error Report in verbose format:
 474:.\modem.c     **** 	AT+CMEE=2
 475:.\modem.c     **** 	OK
 476:.\modem.c     **** 	*/
 477:.\modem.c     **** 	
 478:.\modem.c     ****     char cmd[100];
 479:.\modem.c     ****     sprintf(cmd,"AT+CMEE=%u\r",param);
 1275              		.loc 1 479 0
 1276 000a FB79     		ldrb	r3, [r7, #7]	@ zero_extendqisi2
 1277 000c 07F10C02 		add	r2, r7, #12
 1278 0010 1046     		mov	r0, r2
 1279 0012 0B49     		ldr	r1, .L108
 1280 0014 1A46     		mov	r2, r3
 1281 0016 FFF7FEFF 		bl	sprintf
 480:.\modem.c     ****     if(at_write_command(cmd,"OK",1000u) == 1u){      
 1282              		.loc 1 480 0
 1283 001a 07F10C03 		add	r3, r7, #12
 1284 001e 1846     		mov	r0, r3
 1285 0020 0849     		ldr	r1, .L108+4
 1286 0022 4FF47A72 		mov	r2, #1000
 1287 0026 FFF7FEFF 		bl	at_write_command
 1288 002a 0346     		mov	r3, r0
 1289 002c 012B     		cmp	r3, #1
 1290 002e 01D1     		bne	.L105
 481:.\modem.c     ****         return 1u;
 1291              		.loc 1 481 0
 1292 0030 0123     		movs	r3, #1
 1293 0032 00E0     		b	.L107
 1294              	.L105:
 482:.\modem.c     ****     }
 483:.\modem.c     ****     /* Write to SD Card debugger
 484:.\modem.c     ****     else debug_write("(AT#SGACT=1,1) No IP Address Assigned.");
 485:.\modem.c     ****     */
 486:.\modem.c     **** 
 487:.\modem.c     ****     return 0u;  
 1295              		.loc 1 487 0
 1296 0034 0023     		movs	r3, #0
 1297              	.L107:
 488:.\modem.c     **** }
 1298              		.loc 1 488 0
 1299 0036 1846     		mov	r0, r3
 1300 0038 7037     		adds	r7, r7, #112
 1301 003a BD46     		mov	sp, r7
ARM GAS  C:\Users\Matthew\AppData\Local\Temp\ccu6ei5I.s 			page 33


 1302              		@ sp needed
 1303 003c 80BD     		pop	{r7, pc}
 1304              	.L109:
 1305 003e 00BF     		.align	2
 1306              	.L108:
 1307 0040 9C000000 		.word	.LC14
 1308 0044 14000000 		.word	.LC2
 1309              		.cfi_endproc
 1310              	.LFE76:
 1311              		.size	modem_set_error_reports, .-modem_set_error_reports
 1312              		.section	.rodata
 1313              		.align	2
 1314              	.LC15:
 1315 00a8 41542B43 		.ascii	"AT+CGMR\015\000"
 1315      474D520D 
 1315      00
 1316              		.section	.text.modem_get_sw_version,"ax",%progbits
 1317              		.align	2
 1318              		.global	modem_get_sw_version
 1319              		.thumb
 1320              		.thumb_func
 1321              		.type	modem_get_sw_version, %function
 1322              	modem_get_sw_version:
 1323              	.LFB77:
 489:.\modem.c     **** 
 490:.\modem.c     **** uint8 modem_get_sw_version(){
 1324              		.loc 1 490 0
 1325              		.cfi_startproc
 1326              		@ args = 0, pretend = 0, frame = 0
 1327              		@ frame_needed = 1, uses_anonymous_args = 0
 1328 0000 80B5     		push	{r7, lr}
 1329              		.cfi_def_cfa_offset 8
 1330              		.cfi_offset 7, -8
 1331              		.cfi_offset 14, -4
 1332 0002 00AF     		add	r7, sp, #0
 1333              		.cfi_def_cfa_register 7
 491:.\modem.c     ****     if(at_write_command("AT+CGMR\r","OK",1000u) == 1u){      
 1334              		.loc 1 491 0
 1335 0004 0648     		ldr	r0, .L113
 1336 0006 0749     		ldr	r1, .L113+4
 1337 0008 4FF47A72 		mov	r2, #1000
 1338 000c FFF7FEFF 		bl	at_write_command
 1339 0010 0346     		mov	r3, r0
 1340 0012 012B     		cmp	r3, #1
 1341 0014 01D1     		bne	.L111
 492:.\modem.c     ****         return 1u;
 1342              		.loc 1 492 0
 1343 0016 0123     		movs	r3, #1
 1344 0018 00E0     		b	.L112
 1345              	.L111:
 493:.\modem.c     ****     }
 494:.\modem.c     ****     /* Write to SD Card debugger
 495:.\modem.c     ****     else debug_write("(AT#SGACT=1,1) No IP Address Assigned.");
 496:.\modem.c     ****     */
 497:.\modem.c     **** 
 498:.\modem.c     ****     return 0u;  
 1346              		.loc 1 498 0
ARM GAS  C:\Users\Matthew\AppData\Local\Temp\ccu6ei5I.s 			page 34


 1347 001a 0023     		movs	r3, #0
 1348              	.L112:
 499:.\modem.c     **** }
 1349              		.loc 1 499 0
 1350 001c 1846     		mov	r0, r3
 1351 001e 80BD     		pop	{r7, pc}
 1352              	.L114:
 1353              		.align	2
 1354              	.L113:
 1355 0020 A8000000 		.word	.LC15
 1356 0024 14000000 		.word	.LC2
 1357              		.cfi_endproc
 1358              	.LFE77:
 1359              		.size	modem_get_sw_version, .-modem_get_sw_version
 1360              		.section	.rodata
 1361 00b1 000000   		.align	2
 1362              	.LC16:
 1363 00b4 41542343 		.ascii	"AT#CDMADC=%u\015\000"
 1363      444D4144 
 1363      433D2575 
 1363      0D00
 1364              		.section	.text.modem_enable_CDMA_data,"ax",%progbits
 1365              		.align	2
 1366              		.global	modem_enable_CDMA_data
 1367              		.thumb
 1368              		.thumb_func
 1369              		.type	modem_enable_CDMA_data, %function
 1370              	modem_enable_CDMA_data:
 1371              	.LFB78:
 500:.\modem.c     **** 
 501:.\modem.c     **** uint8 modem_enable_CDMA_data(uint8 param){
 1372              		.loc 1 501 0
 1373              		.cfi_startproc
 1374              		@ args = 0, pretend = 0, frame = 112
 1375              		@ frame_needed = 1, uses_anonymous_args = 0
 1376 0000 80B5     		push	{r7, lr}
 1377              		.cfi_def_cfa_offset 8
 1378              		.cfi_offset 7, -8
 1379              		.cfi_offset 14, -4
 1380 0002 9CB0     		sub	sp, sp, #112
 1381              		.cfi_def_cfa_offset 120
 1382 0004 00AF     		add	r7, sp, #0
 1383              		.cfi_def_cfa_register 7
 1384 0006 0346     		mov	r3, r0
 1385 0008 FB71     		strb	r3, [r7, #7]
 502:.\modem.c     **** 	/*
 503:.\modem.c     **** 	4.2.12 CDMA Data Connection
 504:.\modem.c     **** 	0 - CDMA Data connection deactivation request
 505:.\modem.c     **** 	1 - CDMA Data connection activation request
 506:.\modem.c     **** 	*/
 507:.\modem.c     **** 	
 508:.\modem.c     ****     char cmd[100];
 509:.\modem.c     ****     sprintf(cmd,"AT#CDMADC=%u\r",param);
 1386              		.loc 1 509 0
 1387 000a FB79     		ldrb	r3, [r7, #7]	@ zero_extendqisi2
 1388 000c 07F10C02 		add	r2, r7, #12
 1389 0010 1046     		mov	r0, r2
ARM GAS  C:\Users\Matthew\AppData\Local\Temp\ccu6ei5I.s 			page 35


 1390 0012 0B49     		ldr	r1, .L119
 1391 0014 1A46     		mov	r2, r3
 1392 0016 FFF7FEFF 		bl	sprintf
 510:.\modem.c     ****     if(at_write_command(cmd,"OK",5000u) == 1u){      
 1393              		.loc 1 510 0
 1394 001a 07F10C03 		add	r3, r7, #12
 1395 001e 1846     		mov	r0, r3
 1396 0020 0849     		ldr	r1, .L119+4
 1397 0022 41F28832 		movw	r2, #5000
 1398 0026 FFF7FEFF 		bl	at_write_command
 1399 002a 0346     		mov	r3, r0
 1400 002c 012B     		cmp	r3, #1
 1401 002e 01D1     		bne	.L116
 511:.\modem.c     ****         return 1u;
 1402              		.loc 1 511 0
 1403 0030 0123     		movs	r3, #1
 1404 0032 00E0     		b	.L118
 1405              	.L116:
 512:.\modem.c     ****     }
 513:.\modem.c     ****     /* Write to SD Card debugger
 514:.\modem.c     ****     else debug_write("(AT#SGACT=1,1) No IP Address Assigned.");
 515:.\modem.c     ****     */
 516:.\modem.c     **** 
 517:.\modem.c     ****     return 0u;  
 1406              		.loc 1 517 0
 1407 0034 0023     		movs	r3, #0
 1408              	.L118:
 518:.\modem.c     **** }
 1409              		.loc 1 518 0
 1410 0036 1846     		mov	r0, r3
 1411 0038 7037     		adds	r7, r7, #112
 1412 003a BD46     		mov	sp, r7
 1413              		@ sp needed
 1414 003c 80BD     		pop	{r7, pc}
 1415              	.L120:
 1416 003e 00BF     		.align	2
 1417              	.L119:
 1418 0040 B4000000 		.word	.LC16
 1419 0044 14000000 		.word	.LC2
 1420              		.cfi_endproc
 1421              	.LFE78:
 1422              		.size	modem_enable_CDMA_data, .-modem_enable_CDMA_data
 1423              		.section	.rodata
 1424 00c2 0000     		.align	2
 1425              	.LC17:
 1426 00c4 41542343 		.ascii	"AT#CDMADC?\015\000"
 1426      444D4144 
 1426      433F0D00 
 1427              		.section	.text.modem_test_CDMA_data,"ax",%progbits
 1428              		.align	2
 1429              		.global	modem_test_CDMA_data
 1430              		.thumb
 1431              		.thumb_func
 1432              		.type	modem_test_CDMA_data, %function
 1433              	modem_test_CDMA_data:
 1434              	.LFB79:
 519:.\modem.c     **** 
ARM GAS  C:\Users\Matthew\AppData\Local\Temp\ccu6ei5I.s 			page 36


 520:.\modem.c     **** uint8 modem_test_CDMA_data(){
 1435              		.loc 1 520 0
 1436              		.cfi_startproc
 1437              		@ args = 0, pretend = 0, frame = 0
 1438              		@ frame_needed = 1, uses_anonymous_args = 0
 1439 0000 80B5     		push	{r7, lr}
 1440              		.cfi_def_cfa_offset 8
 1441              		.cfi_offset 7, -8
 1442              		.cfi_offset 14, -4
 1443 0002 00AF     		add	r7, sp, #0
 1444              		.cfi_def_cfa_register 7
 521:.\modem.c     **** 	
 522:.\modem.c     ****     if(at_write_command("AT#CDMADC?\r","OK",1000u) == 1u){      
 1445              		.loc 1 522 0
 1446 0004 0648     		ldr	r0, .L124
 1447 0006 0749     		ldr	r1, .L124+4
 1448 0008 4FF47A72 		mov	r2, #1000
 1449 000c FFF7FEFF 		bl	at_write_command
 1450 0010 0346     		mov	r3, r0
 1451 0012 012B     		cmp	r3, #1
 1452 0014 01D1     		bne	.L122
 523:.\modem.c     ****         return 1u;
 1453              		.loc 1 523 0
 1454 0016 0123     		movs	r3, #1
 1455 0018 00E0     		b	.L123
 1456              	.L122:
 524:.\modem.c     ****     }
 525:.\modem.c     ****     /* Write to SD Card debugger
 526:.\modem.c     ****     else debug_write("(AT#SGACT=1,1) No IP Address Assigned.");
 527:.\modem.c     ****     */
 528:.\modem.c     **** 
 529:.\modem.c     ****     return 0u;	
 1457              		.loc 1 529 0
 1458 001a 0023     		movs	r3, #0
 1459              	.L123:
 530:.\modem.c     **** }
 1460              		.loc 1 530 0
 1461 001c 1846     		mov	r0, r3
 1462 001e 80BD     		pop	{r7, pc}
 1463              	.L125:
 1464              		.align	2
 1465              	.L124:
 1466 0020 C4000000 		.word	.LC17
 1467 0024 14000000 		.word	.LC2
 1468              		.cfi_endproc
 1469              	.LFE79:
 1470              		.size	modem_test_CDMA_data, .-modem_test_CDMA_data
 1471              		.section	.rodata
 1472              		.align	2
 1473              	.LC18:
 1474 00d0 41542355 		.ascii	"AT#USERID=\"%s\"\015\000"
 1474      53455249 
 1474      443D2225 
 1474      73220D00 
 1475              		.section	.text.modem_set_user,"ax",%progbits
 1476              		.align	2
 1477              		.global	modem_set_user
ARM GAS  C:\Users\Matthew\AppData\Local\Temp\ccu6ei5I.s 			page 37


 1478              		.thumb
 1479              		.thumb_func
 1480              		.type	modem_set_user, %function
 1481              	modem_set_user:
 1482              	.LFB80:
 531:.\modem.c     **** 
 532:.\modem.c     **** uint8 modem_set_user(char* user) {
 1483              		.loc 1 532 0
 1484              		.cfi_startproc
 1485              		@ args = 0, pretend = 0, frame = 112
 1486              		@ frame_needed = 1, uses_anonymous_args = 0
 1487 0000 80B5     		push	{r7, lr}
 1488              		.cfi_def_cfa_offset 8
 1489              		.cfi_offset 7, -8
 1490              		.cfi_offset 14, -4
 1491 0002 9CB0     		sub	sp, sp, #112
 1492              		.cfi_def_cfa_offset 120
 1493 0004 00AF     		add	r7, sp, #0
 1494              		.cfi_def_cfa_register 7
 1495 0006 7860     		str	r0, [r7, #4]
 533:.\modem.c     **** 	
 534:.\modem.c     ****     char cmd[100];
 535:.\modem.c     ****     sprintf(cmd,"AT#USERID=\"%s\"\r",user);		
 1496              		.loc 1 535 0
 1497 0008 07F10C03 		add	r3, r7, #12
 1498 000c 1846     		mov	r0, r3
 1499 000e 0B49     		ldr	r1, .L130
 1500 0010 7A68     		ldr	r2, [r7, #4]
 1501 0012 FFF7FEFF 		bl	sprintf
 536:.\modem.c     **** 	
 537:.\modem.c     ****     if(at_write_command(cmd,"OK",1000u) == 1u){      
 1502              		.loc 1 537 0
 1503 0016 07F10C03 		add	r3, r7, #12
 1504 001a 1846     		mov	r0, r3
 1505 001c 0849     		ldr	r1, .L130+4
 1506 001e 4FF47A72 		mov	r2, #1000
 1507 0022 FFF7FEFF 		bl	at_write_command
 1508 0026 0346     		mov	r3, r0
 1509 0028 012B     		cmp	r3, #1
 1510 002a 01D1     		bne	.L127
 538:.\modem.c     ****         return 1u;
 1511              		.loc 1 538 0
 1512 002c 0123     		movs	r3, #1
 1513 002e 00E0     		b	.L129
 1514              	.L127:
 539:.\modem.c     ****     }
 540:.\modem.c     ****     /* Write to SD Card debugger
 541:.\modem.c     ****     else debug_write("(AT#SGACT=1,1) No IP Address Assigned.");
 542:.\modem.c     ****     */
 543:.\modem.c     **** 	
 544:.\modem.c     **** 	return 0u;	
 1515              		.loc 1 544 0
 1516 0030 0023     		movs	r3, #0
 1517              	.L129:
 545:.\modem.c     **** }
 1518              		.loc 1 545 0
 1519 0032 1846     		mov	r0, r3
ARM GAS  C:\Users\Matthew\AppData\Local\Temp\ccu6ei5I.s 			page 38


 1520 0034 7037     		adds	r7, r7, #112
 1521 0036 BD46     		mov	sp, r7
 1522              		@ sp needed
 1523 0038 80BD     		pop	{r7, pc}
 1524              	.L131:
 1525 003a 00BF     		.align	2
 1526              	.L130:
 1527 003c D0000000 		.word	.LC18
 1528 0040 14000000 		.word	.LC2
 1529              		.cfi_endproc
 1530              	.LFE80:
 1531              		.size	modem_set_user, .-modem_set_user
 1532              		.section	.rodata
 1533              		.align	2
 1534              	.LC19:
 1535 00e0 41542350 		.ascii	"AT#PASSW=\"%s\"\015\000"
 1535      41535357 
 1535      3D222573 
 1535      220D00
 1536              		.section	.text.modem_set_password,"ax",%progbits
 1537              		.align	2
 1538              		.global	modem_set_password
 1539              		.thumb
 1540              		.thumb_func
 1541              		.type	modem_set_password, %function
 1542              	modem_set_password:
 1543              	.LFB81:
 546:.\modem.c     **** 
 547:.\modem.c     **** uint8 modem_set_password(char* pass) {
 1544              		.loc 1 547 0
 1545              		.cfi_startproc
 1546              		@ args = 0, pretend = 0, frame = 112
 1547              		@ frame_needed = 1, uses_anonymous_args = 0
 1548 0000 80B5     		push	{r7, lr}
 1549              		.cfi_def_cfa_offset 8
 1550              		.cfi_offset 7, -8
 1551              		.cfi_offset 14, -4
 1552 0002 9CB0     		sub	sp, sp, #112
 1553              		.cfi_def_cfa_offset 120
 1554 0004 00AF     		add	r7, sp, #0
 1555              		.cfi_def_cfa_register 7
 1556 0006 7860     		str	r0, [r7, #4]
 548:.\modem.c     **** 	
 549:.\modem.c     ****     char cmd[100];
 550:.\modem.c     ****     sprintf(cmd,"AT#PASSW=\"%s\"\r",pass);		
 1557              		.loc 1 550 0
 1558 0008 07F10C03 		add	r3, r7, #12
 1559 000c 1846     		mov	r0, r3
 1560 000e 0B49     		ldr	r1, .L136
 1561 0010 7A68     		ldr	r2, [r7, #4]
 1562 0012 FFF7FEFF 		bl	sprintf
 551:.\modem.c     **** 	
 552:.\modem.c     ****     if(at_write_command(cmd,"OK",1000u) == 1u){      
 1563              		.loc 1 552 0
 1564 0016 07F10C03 		add	r3, r7, #12
 1565 001a 1846     		mov	r0, r3
 1566 001c 0849     		ldr	r1, .L136+4
ARM GAS  C:\Users\Matthew\AppData\Local\Temp\ccu6ei5I.s 			page 39


 1567 001e 4FF47A72 		mov	r2, #1000
 1568 0022 FFF7FEFF 		bl	at_write_command
 1569 0026 0346     		mov	r3, r0
 1570 0028 012B     		cmp	r3, #1
 1571 002a 01D1     		bne	.L133
 553:.\modem.c     ****         return 1u;
 1572              		.loc 1 553 0
 1573 002c 0123     		movs	r3, #1
 1574 002e 00E0     		b	.L135
 1575              	.L133:
 554:.\modem.c     ****     }
 555:.\modem.c     ****     /* Write to SD Card debugger
 556:.\modem.c     ****     else debug_write("(AT#SGACT=1,1) No IP Address Assigned.");
 557:.\modem.c     ****     */
 558:.\modem.c     **** 	
 559:.\modem.c     **** 	return 0u;	
 1576              		.loc 1 559 0
 1577 0030 0023     		movs	r3, #0
 1578              	.L135:
 560:.\modem.c     **** }
 1579              		.loc 1 560 0
 1580 0032 1846     		mov	r0, r3
 1581 0034 7037     		adds	r7, r7, #112
 1582 0036 BD46     		mov	sp, r7
 1583              		@ sp needed
 1584 0038 80BD     		pop	{r7, pc}
 1585              	.L137:
 1586 003a 00BF     		.align	2
 1587              	.L136:
 1588 003c E0000000 		.word	.LC19
 1589 0040 14000000 		.word	.LC2
 1590              		.cfi_endproc
 1591              	.LFE81:
 1592              		.size	modem_set_password, .-modem_set_password
 1593              		.section	.rodata
 1594 00ef 00       		.align	2
 1595              	.LC20:
 1596 00f0 41542353 		.ascii	"AT#SKTD=0,80,\"www.google.com\"\015\012\000"
 1596      4B54443D 
 1596      302C3830 
 1596      2C227777 
 1596      772E676F 
 1597              		.align	2
 1598              	.LC21:
 1599 0110 434F4E4E 		.ascii	"CONNECT\000"
 1599      45435400 
 1600              		.align	2
 1601              	.LC22:
 1602 0118 47455420 		.ascii	"GET /get_status/ HTTP/1.0\015\012\000"
 1602      2F676574 
 1602      5F737461 
 1602      7475732F 
 1602      20485454 
 1603              		.align	2
 1604              	.LC23:
 1605 0134 00       		.ascii	"\000"
 1606 0135 000000   		.align	2
ARM GAS  C:\Users\Matthew\AppData\Local\Temp\ccu6ei5I.s 			page 40


 1607              	.LC24:
 1608 0138 0D0A00   		.ascii	"\015\012\000"
 1609              		.section	.text.modem_get_google,"ax",%progbits
 1610              		.align	2
 1611              		.global	modem_get_google
 1612              		.thumb
 1613              		.thumb_func
 1614              		.type	modem_get_google, %function
 1615              	modem_get_google:
 1616              	.LFB82:
 561:.\modem.c     **** uint8 modem_get_google(){
 1617              		.loc 1 561 0
 1618              		.cfi_startproc
 1619              		@ args = 0, pretend = 0, frame = 1000
 1620              		@ frame_needed = 1, uses_anonymous_args = 0
 1621 0000 80B5     		push	{r7, lr}
 1622              		.cfi_def_cfa_offset 8
 1623              		.cfi_offset 7, -8
 1624              		.cfi_offset 14, -4
 1625 0002 ADF57A7D 		sub	sp, sp, #1000
 1626              		.cfi_def_cfa_offset 1008
 1627 0006 00AF     		add	r7, sp, #0
 1628              		.cfi_def_cfa_register 7
 562:.\modem.c     **** 
 563:.\modem.c     ****     // Proceed if modem is already connected.  Otherwise, try to join the network and proceed
 564:.\modem.c     ****     if( modem_state == MODEM_STATE_READY || modem_connect() != 0 ){ 
 1629              		.loc 1 564 0
 1630 0008 1D4B     		ldr	r3, .L142
 1631 000a 1B78     		ldrb	r3, [r3]	@ zero_extendqisi2
 1632 000c 032B     		cmp	r3, #3
 1633 000e 04D0     		beq	.L139
 1634              		.loc 1 564 0 is_stmt 0 discriminator 1
 1635 0010 FFF7FEFF 		bl	modem_connect
 1636 0014 0346     		mov	r3, r0
 1637 0016 002B     		cmp	r3, #0
 1638 0018 2AD0     		beq	.L140
 1639              	.L139:
 565:.\modem.c     ****         
 566:.\modem.c     ****         if(at_write_command("AT#SKTD=0,80,\"www.google.com\"\r\n","CONNECT",10000u) != 0){
 1640              		.loc 1 566 0 is_stmt 1
 1641 001a 1A48     		ldr	r0, .L142+4
 1642 001c 1A49     		ldr	r1, .L142+8
 1643 001e 42F21072 		movw	r2, #10000
 1644 0022 FFF7FEFF 		bl	at_write_command
 1645 0026 0346     		mov	r3, r0
 1646 0028 002B     		cmp	r3, #0
 1647 002a 21D0     		beq	.L140
 1648              	.LBB3:
 567:.\modem.c     ****             
 568:.\modem.c     ****             char get_str[MAX_PACKET_LENGTH], key_str[100];
 569:.\modem.c     ****             
 570:.\modem.c     ****             //sprintf(get_str,"GET / HTTP/1.0\r\n");
 571:.\modem.c     ****             //sprintf(key_str,"Host: www.google.com\r\n");
 572:.\modem.c     ****             //sprintf(get_str,"GET /\r\n");
 573:.\modem.c     ****             //sprintf(get_str,"%s%s",
 574:.\modem.c     ****             //    get_str,
 575:.\modem.c     ****             //    "\r\n");
ARM GAS  C:\Users\Matthew\AppData\Local\Temp\ccu6ei5I.s 			page 41


 576:.\modem.c     ****             
 577:.\modem.c     ****             uart_string_reset();
 1649              		.loc 1 577 0
 1650 002c FFF7FEFF 		bl	uart_string_reset
 578:.\modem.c     ****             
 579:.\modem.c     ****             //at_write_command(get_str,"",15000u);
 580:.\modem.c     **** 			
 581:.\modem.c     **** 			at_write_command("GET /get_status/ HTTP/1.0\r\n","",15000u);
 1651              		.loc 1 581 0
 1652 0030 1648     		ldr	r0, .L142+12
 1653 0032 1749     		ldr	r1, .L142+16
 1654 0034 43F69822 		movw	r2, #15000
 1655 0038 FFF7FEFF 		bl	at_write_command
 582:.\modem.c     **** 			//CyDelay(1000u);
 583:.\modem.c     **** 			//at_write_command("Host: www.google.com\r\n","",15000u);
 584:.\modem.c     **** 			CyDelay(1000u);
 1656              		.loc 1 584 0
 1657 003c 4FF47A70 		mov	r0, #1000
 1658 0040 FFF7FEFF 		bl	CyDelay
 585:.\modem.c     **** 			at_write_command("\r\n","",15000u);
 1659              		.loc 1 585 0
 1660 0044 1348     		ldr	r0, .L142+20
 1661 0046 1249     		ldr	r1, .L142+16
 1662 0048 43F69822 		movw	r2, #15000
 1663 004c FFF7FEFF 		bl	at_write_command
 586:.\modem.c     **** 			CyDelay(1000u);
 1664              		.loc 1 586 0
 1665 0050 4FF47A70 		mov	r0, #1000
 1666 0054 FFF7FEFF 		bl	CyDelay
 587:.\modem.c     **** 			at_write_command("\r\n","",15000u);
 1667              		.loc 1 587 0
 1668 0058 0E48     		ldr	r0, .L142+20
 1669 005a 0D49     		ldr	r1, .L142+16
 1670 005c 43F69822 		movw	r2, #15000
 1671 0060 FFF7FEFF 		bl	at_write_command
 588:.\modem.c     **** 			
 589:.\modem.c     **** 			CyDelay(15000u);
 1672              		.loc 1 589 0
 1673 0064 43F69820 		movw	r0, #15000
 1674 0068 FFF7FEFF 		bl	CyDelay
 590:.\modem.c     ****             
 591:.\modem.c     **** 			// Just return regardless
 592:.\modem.c     **** 			return 1u;
 1675              		.loc 1 592 0
 1676 006c 0123     		movs	r3, #1
 1677 006e 02E0     		b	.L141
 1678              	.L140:
 1679              	.LBE3:
 593:.\modem.c     ****             /*
 594:.\modem.c     ****             if(at_write_command(get_str,"SRING: 1",15000u) != 0){
 595:.\modem.c     ****                 // Read GET response from the buffer
 596:.\modem.c     ****                 uart_string_reset();
 597:.\modem.c     ****                 //CyDelay(5000u);
 598:.\modem.c     ****                 at_write_command("AT#SRECV=1,700\r","OK",15000u);
 599:.\modem.c     ****                 //strcpy(packet, uart_received_string);
 600:.\modem.c     ****                 strcpy(packet, strstr(uart_received_string, "\r\n\r\n")+strlen("\r\n\r\n"));
 601:.\modem.c     ****                 
ARM GAS  C:\Users\Matthew\AppData\Local\Temp\ccu6ei5I.s 			page 42


 602:.\modem.c     ****                 CyDelay(1000u); //debug_write("Packet received successfully.");
 603:.\modem.c     ****                 return 1u;   // return 1 if succesfully sent sms
 604:.\modem.c     **** 
 605:.\modem.c     ****             }
 606:.\modem.c     ****             */
 607:.\modem.c     ****         }
 608:.\modem.c     ****         
 609:.\modem.c     ****     }
 610:.\modem.c     ****     
 611:.\modem.c     ****     //debug_write("MAX_GET_ATTEMPTS Exceeded.");
 612:.\modem.c     ****     modem_disconnect();
 1680              		.loc 1 612 0
 1681 0070 FFF7FEFF 		bl	modem_disconnect
 613:.\modem.c     ****     return 0u;   // return 0 if failure to send sms
 1682              		.loc 1 613 0
 1683 0074 0023     		movs	r3, #0
 1684              	.L141:
 614:.\modem.c     **** }
 1685              		.loc 1 614 0
 1686 0076 1846     		mov	r0, r3
 1687 0078 07F57A77 		add	r7, r7, #1000
 1688 007c BD46     		mov	sp, r7
 1689              		@ sp needed
 1690 007e 80BD     		pop	{r7, pc}
 1691              	.L143:
 1692              		.align	2
 1693              	.L142:
 1694 0080 00000000 		.word	modem_state
 1695 0084 F0000000 		.word	.LC20
 1696 0088 10010000 		.word	.LC21
 1697 008c 18010000 		.word	.LC22
 1698 0090 34010000 		.word	.LC23
 1699 0094 38010000 		.word	.LC24
 1700              		.cfi_endproc
 1701              	.LFE82:
 1702              		.size	modem_get_google, .-modem_get_google
 1703              		.section	.rodata
 1704 013b 00       		.align	2
 1705              	.LC25:
 1706 013c 41542353 		.ascii	"AT#SD=1,0,80,\"storm.chordsrt.com\",0,0,1\015\000"
 1706      443D312C 
 1706      302C3830 
 1706      2C227374 
 1706      6F726D2E 
 1707 0165 000000   		.align	2
 1708              	.LC26:
 1709 0168 47455420 		.ascii	"GET /measurements/url_create?instrument_id=1&depth="
 1709      2F6D6561 
 1709      73757265 
 1709      6D656E74 
 1709      732F7572 
 1710 019b 31303026 		.ascii	"100&batVolt=108&key=wireless&test HTTP/1.0\015\012\000"
 1710      62617456 
 1710      6F6C743D 
 1710      31303826 
 1710      6B65793D 
 1711              		.section	.text.modem_send_packet,"ax",%progbits
ARM GAS  C:\Users\Matthew\AppData\Local\Temp\ccu6ei5I.s 			page 43


 1712              		.align	2
 1713              		.global	modem_send_packet
 1714              		.thumb
 1715              		.thumb_func
 1716              		.type	modem_send_packet, %function
 1717              	modem_send_packet:
 1718              	.LFB83:
 615:.\modem.c     **** 
 616:.\modem.c     **** // send packet to Xively server
 617:.\modem.c     **** uint8 modem_send_packet(char* body){
 1719              		.loc 1 617 0
 1720              		.cfi_startproc
 1721              		@ args = 0, pretend = 0, frame = 16
 1722              		@ frame_needed = 1, uses_anonymous_args = 0
 1723 0000 80B5     		push	{r7, lr}
 1724              		.cfi_def_cfa_offset 8
 1725              		.cfi_offset 7, -8
 1726              		.cfi_offset 14, -4
 1727 0002 84B0     		sub	sp, sp, #16
 1728              		.cfi_def_cfa_offset 24
 1729 0004 00AF     		add	r7, sp, #0
 1730              		.cfi_def_cfa_register 7
 1731 0006 7860     		str	r0, [r7, #4]
 618:.\modem.c     **** 
 619:.\modem.c     **** 	// Handle retries in main()
 620:.\modem.c     ****     //uint8 attempts = 0;
 621:.\modem.c     ****     //for(attempts = 0; attempts < MAX_SEND_ATTEMPTS; attempts++) {
 622:.\modem.c     ****         
 623:.\modem.c     ****     // Proceed if modem is already connected.
 624:.\modem.c     ****     if( modem_state == MODEM_STATE_READY ){ 
 1732              		.loc 1 624 0
 1733 0008 0E4B     		ldr	r3, .L147
 1734 000a 1B78     		ldrb	r3, [r3]	@ zero_extendqisi2
 1735 000c 032B     		cmp	r3, #3
 1736 000e 13D1     		bne	.L145
 625:.\modem.c     **** 		// Reset uart for incoming data from modem
 626:.\modem.c     ****         uart_string_reset();
 1737              		.loc 1 626 0
 1738 0010 FFF7FEFF 		bl	uart_string_reset
 627:.\modem.c     **** 			
 628:.\modem.c     **** 		// Connect to web server
 629:.\modem.c     ****         //if(at_write_command("AT#SKTD=1,80,\"api.xively.com\",0,0\r","CONNECT",5000u) != 0){
 630:.\modem.c     **** 		if(at_write_command("AT#SD=1,0,80,\"storm.chordsrt.com\",0,0,1\r","OK",15000u) != 0){
 1739              		.loc 1 630 0
 1740 0014 0C48     		ldr	r0, .L147+4
 1741 0016 0D49     		ldr	r1, .L147+8
 1742 0018 43F69822 		movw	r2, #15000
 1743 001c FFF7FEFF 		bl	at_write_command
 1744 0020 0346     		mov	r3, r0
 1745 0022 002B     		cmp	r3, #0
 1746 0024 08D0     		beq	.L145
 1747              	.LBB4:
 631:.\modem.c     **** 		//if(at_write_command("AT#SD=1,0,80,\"www.google.com\",0,0\r\n","CONNECT",15000u) != 0){
 632:.\modem.c     **** 		at_write_command("GET /measurements/url_create?instrument_id=1&depth=100&batVolt=108&key=wireless
 1748              		.loc 1 632 0
 1749 0026 0A48     		ldr	r0, .L147+12
 1750 0028 0A49     		ldr	r1, .L147+16
ARM GAS  C:\Users\Matthew\AppData\Local\Temp\ccu6ei5I.s 			page 44


 1751 002a 4FF4FA62 		mov	r2, #2000
 1752 002e FFF7FEFF 		bl	at_write_command
 633:.\modem.c     ****         uint8 i;
 634:.\modem.c     ****         i = i + 1;
 1753              		.loc 1 634 0
 1754 0032 FB7B     		ldrb	r3, [r7, #15]
 1755 0034 0133     		adds	r3, r3, #1
 1756 0036 FB73     		strb	r3, [r7, #15]
 1757              	.L145:
 1758              	.LBE4:
 635:.\modem.c     **** /*			if(at_write_command("AT#SSEND=1\r",">",10000u) != 0){
 636:.\modem.c     **** 			// Write packet information to serial and send
 637:.\modem.c     **** 	            char put_str[MAX_PACKET_LENGTH], key_str[100];
 638:.\modem.c     **** 	            
 639:.\modem.c     **** 	            sprintf(put_str,"GET /measurements/url_create?instrument_id=1&depth=100&batVolt=108&ke
 640:.\modem.c     **** //	            sprintf(key_str,"X-ApiKey: %s\r\n", api_key);
 641:.\modem.c     **** 	            sprintf(put_str,"%s%s%s%s%d%s%s%s",
 642:.\modem.c     **** 	                put_str,
 643:.\modem.c     **** 	                key_str,
 644:.\modem.c     **** //	                "Host: api.xively.com\r\n",
 645:.\modem.c     **** //	                "Content-Length: ", strlen(body),
 646:.\modem.c     **** 	                "\r\n\r\n", body, "\r\n\032");
 647:.\modem.c     **** 	                
 648:.\modem.c     **** 				// Reset uart for incoming data from modem
 649:.\modem.c     **** 	            uart_string_reset();
 650:.\modem.c     **** 
 651:.\modem.c     **** 				if(at_write_command(put_str,"SRING: 1",10000u) != 0){
 652:.\modem.c     ****                     // Read GET response from the buffer
 653:.\modem.c     ****                     uart_string_reset();
 654:.\modem.c     ****                     //CyDelay(5000u);
 655:.\modem.c     ****                     at_write_command("AT#SRECV=1,1000\r","200 OK",10000u);
 656:.\modem.c     **** 					
 657:.\modem.c     ****                     return 1u;   // return 1 if succesfully sent sms
 658:.\modem.c     **** 
 659:.\modem.c     ****                 } */
 660:.\modem.c     **** 				/* GC 864
 661:.\modem.c     **** 	            if(at_write_command(put_str,"200 OK",15000u) != 0){
 662:.\modem.c     **** 	                return 1u;   // return 1 if HTTP request was successful
 663:.\modem.c     **** 	            }
 664:.\modem.c     **** 				*/
 665:.\modem.c     ****             }
 666:.\modem.c     ****             
 667:.\modem.c     ****             /* Write to SD Card debugger
 668:.\modem.c     ****             else {
 669:.\modem.c     ****                 debug_write("(AT#SSEND=1) Could not send data through connected socket.");
 670:.\modem.c     ****             }
 671:.\modem.c     ****             */
 672:.\modem.c     ****         }
 673:.\modem.c     ****         /* Write to SD Card debugger
 674:.\modem.c     ****         else {
 675:.\modem.c     ****             debug_write("(AT#SD=1,0,8081,\"api.xively.com\",0,0,1\r) Could not connect to server.")
 676:.\modem.c     ****         }
 677:.\modem.c     ****         */
 678:.\modem.c     ****             
 679:.\modem.c     ****     //}  
 680:.\modem.c     **** 	//modem_reset();
 681:.\modem.c     ****     return 0u;   // return 0 if failure to send sms
ARM GAS  C:\Users\Matthew\AppData\Local\Temp\ccu6ei5I.s 			page 45


 1759              		.loc 1 681 0
 1760 0038 0023     		movs	r3, #0
 682:.\modem.c     **** }
 1761              		.loc 1 682 0
 1762 003a 1846     		mov	r0, r3
 1763 003c 1037     		adds	r7, r7, #16
 1764 003e BD46     		mov	sp, r7
 1765              		@ sp needed
 1766 0040 80BD     		pop	{r7, pc}
 1767              	.L148:
 1768 0042 00BF     		.align	2
 1769              	.L147:
 1770 0044 00000000 		.word	modem_state
 1771 0048 3C010000 		.word	.LC25
 1772 004c 14000000 		.word	.LC2
 1773 0050 68010000 		.word	.LC26
 1774 0054 34010000 		.word	.LC23
 1775              		.cfi_endproc
 1776              	.LFE83:
 1777              		.size	modem_send_packet, .-modem_send_packet
 1778              		.section	.rodata
 1779              		.align	2
 1780              	.LC27:
 1781 01c8 41542353 		.ascii	"AT#SD=1,0,80,\"api.xively.com\",0,0,1\015\012\000"
 1781      443D312C 
 1781      302C3830 
 1781      2C226170 
 1781      692E7869 
 1782 01ee 0000     		.align	2
 1783              	.LC28:
 1784 01f0 41542353 		.ascii	"AT#SSEND=1\015\000"
 1784      53454E44 
 1784      3D310D00 
 1785              		.align	2
 1786              	.LC29:
 1787 01fc 3E00     		.ascii	">\000"
 1788 01fe 0000     		.align	2
 1789              	.LC30:
 1790 0200 47455420 		.ascii	"GET /v2/feeds/%lu.csv?datastreams=%s HTTP/1.0\015\012"
 1790      2F76322F 
 1790      66656564 
 1790      732F256C 
 1790      752E6373 
 1791 022f 00       		.ascii	"\000"
 1792              		.align	2
 1793              	.LC31:
 1794 0230 582D4170 		.ascii	"X-ApiKey: %s\015\012\000"
 1794      694B6579 
 1794      3A202573 
 1794      0D0A00
 1795 023f 00       		.align	2
 1796              	.LC32:
 1797 0240 25732573 		.ascii	"%s%s%s%s%s\000"
 1797      25732573 
 1797      257300
 1798 024b 00       		.align	2
 1799              	.LC33:
ARM GAS  C:\Users\Matthew\AppData\Local\Temp\ccu6ei5I.s 			page 46


 1800 024c 486F7374 		.ascii	"Host: api.xively.com\015\012\000"
 1800      3A206170 
 1800      692E7869 
 1800      76656C79 
 1800      2E636F6D 
 1801 0263 00       		.align	2
 1802              	.LC34:
 1803 0264 41636365 		.ascii	"Accept: text/csv\015\012\000"
 1803      70743A20 
 1803      74657874 
 1803      2F637376 
 1803      0D0A00
 1804 0277 00       		.align	2
 1805              	.LC35:
 1806 0278 0D0A1A0D 		.ascii	"\015\012\032\015\000"
 1806      00
 1807 027d 000000   		.align	2
 1808              	.LC36:
 1809 0280 5352494E 		.ascii	"SRING: 1\000"
 1809      473A2031 
 1809      00
 1810 0289 000000   		.align	2
 1811              	.LC37:
 1812 028c 41542353 		.ascii	"AT#SRECV=1,1000\015\000"
 1812      52454356 
 1812      3D312C31 
 1812      3030300D 
 1812      00
 1813 029d 000000   		.align	2
 1814              	.LC38:
 1815 02a0 0D0A0D0A 		.ascii	"\015\012\015\012\000"
 1815      00
 1816              		.section	.text.modem_get_packet,"ax",%progbits
 1817              		.align	2
 1818              		.global	modem_get_packet
 1819              		.thumb
 1820              		.thumb_func
 1821              		.type	modem_get_packet, %function
 1822              	modem_get_packet:
 1823              	.LFB84:
 683:.\modem.c     **** 
 684:.\modem.c     **** 
 685:.\modem.c     **** // read packet from Xively server
 686:.\modem.c     **** uint8 modem_get_packet(char* packet, char* csv){    
 1824              		.loc 1 686 0
 1825              		.cfi_startproc
 1826              		@ args = 0, pretend = 0, frame = 1112
 1827              		@ frame_needed = 1, uses_anonymous_args = 0
 1828 0000 80B5     		push	{r7, lr}
 1829              		.cfi_def_cfa_offset 8
 1830              		.cfi_offset 7, -8
 1831              		.cfi_offset 14, -4
 1832 0002 ADF58D6D 		sub	sp, sp, #1128
 1833              		.cfi_def_cfa_offset 1136
 1834 0006 04AF     		add	r7, sp, #16
 1835              		.cfi_def_cfa 7, 1120
 1836 0008 3B1D     		adds	r3, r7, #4
ARM GAS  C:\Users\Matthew\AppData\Local\Temp\ccu6ei5I.s 			page 47


 1837 000a 1860     		str	r0, [r3]
 1838 000c 3B46     		mov	r3, r7
 1839 000e 1960     		str	r1, [r3]
 687:.\modem.c     **** 
 688:.\modem.c     **** 	// Check if request is too long
 689:.\modem.c     ****     if (strlen(csv) > 125) {
 1840              		.loc 1 689 0
 1841 0010 3B46     		mov	r3, r7
 1842 0012 1868     		ldr	r0, [r3]
 1843 0014 FFF7FEFF 		bl	strlen
 1844 0018 0346     		mov	r3, r0
 1845 001a 7D2B     		cmp	r3, #125
 1846 001c 01D9     		bls	.L150
 690:.\modem.c     ****         /* Write to SD Card debugger
 691:.\modem.c     ****         debug_write("modem_get_packet(): csv length > 100");
 692:.\modem.c     ****         */
 693:.\modem.c     ****         return 0u;
 1847              		.loc 1 693 0
 1848 001e 0023     		movs	r3, #0
 1849 0020 5BE0     		b	.L151
 1850              	.L150:
 694:.\modem.c     ****     }
 695:.\modem.c     **** 	
 696:.\modem.c     **** 	// Changed to handle looping in main()
 697:.\modem.c     ****     //uint8 attempts = 0;            
 698:.\modem.c     ****     //for(attempts = 0; attempts < MAX_GET_ATTEMPTS; attempts++) {
 699:.\modem.c     ****         // Proceed if modem is already connected.  Otherwise, try to join the network and proceed
 700:.\modem.c     ****     if( modem_state == MODEM_STATE_READY ){ 
 1851              		.loc 1 700 0
 1852 0022 304B     		ldr	r3, .L154
 1853 0024 1B78     		ldrb	r3, [r3]	@ zero_extendqisi2
 1854 0026 032B     		cmp	r3, #3
 1855 0028 56D1     		bne	.L152
 701:.\modem.c     **** 		// Connect to server
 702:.\modem.c     ****         if(at_write_command("AT#SD=1,0,80,\"api.xively.com\",0,0,1\r\n","OK",20000u) != 0){
 1856              		.loc 1 702 0
 1857 002a 2F48     		ldr	r0, .L154+4
 1858 002c 2F49     		ldr	r1, .L154+8
 1859 002e 44F62062 		movw	r2, #20000
 1860 0032 FFF7FEFF 		bl	at_write_command
 1861 0036 0346     		mov	r3, r0
 1862 0038 002B     		cmp	r3, #0
 1863 003a 4DD0     		beq	.L152
 703:.\modem.c     **** 			
 704:.\modem.c     **** 			if(at_write_command("AT#SSEND=1\r",">",10000u) != 0){
 1864              		.loc 1 704 0
 1865 003c 2C48     		ldr	r0, .L154+12
 1866 003e 2D49     		ldr	r1, .L154+16
 1867 0040 42F21072 		movw	r2, #10000
 1868 0044 FFF7FEFF 		bl	at_write_command
 1869 0048 0346     		mov	r3, r0
 1870 004a 002B     		cmp	r3, #0
 1871 004c 44D0     		beq	.L152
 1872              	.LBB5:
 705:.\modem.c     **** 				// Write packet information to serial and send
 706:.\modem.c     **** 	            char get_str[MAX_PACKET_LENGTH], key_str[100];
 707:.\modem.c     **** 				
ARM GAS  C:\Users\Matthew\AppData\Local\Temp\ccu6ei5I.s 			page 48


 708:.\modem.c     **** 	            sprintf(get_str,"GET /v2/feeds/%lu.csv?datastreams=%s HTTP/1.0\r\n", feed_id, csv);
 1873              		.loc 1 708 0
 1874 004e 2A4B     		ldr	r3, .L154+20
 1875 0050 1A68     		ldr	r2, [r3]
 1876 0052 07F17001 		add	r1, r7, #112
 1877 0056 3B46     		mov	r3, r7
 1878 0058 0846     		mov	r0, r1
 1879 005a 2849     		ldr	r1, .L154+24
 1880 005c 1B68     		ldr	r3, [r3]
 1881 005e FFF7FEFF 		bl	sprintf
 709:.\modem.c     **** 	            sprintf(key_str,"X-ApiKey: %s\r\n", api_key);
 1882              		.loc 1 709 0
 1883 0062 274B     		ldr	r3, .L154+28
 1884 0064 1B68     		ldr	r3, [r3]
 1885 0066 07F10C02 		add	r2, r7, #12
 1886 006a 1046     		mov	r0, r2
 1887 006c 2549     		ldr	r1, .L154+32
 1888 006e 1A46     		mov	r2, r3
 1889 0070 FFF7FEFF 		bl	sprintf
 710:.\modem.c     **** 	            sprintf(get_str,"%s%s%s%s%s",
 1890              		.loc 1 710 0
 1891 0074 07F17001 		add	r1, r7, #112
 1892 0078 07F17002 		add	r2, r7, #112
 1893 007c 07F10C03 		add	r3, r7, #12
 1894 0080 2148     		ldr	r0, .L154+36
 1895 0082 0090     		str	r0, [sp]
 1896 0084 2148     		ldr	r0, .L154+40
 1897 0086 0190     		str	r0, [sp, #4]
 1898 0088 2148     		ldr	r0, .L154+44
 1899 008a 0290     		str	r0, [sp, #8]
 1900 008c 0846     		mov	r0, r1
 1901 008e 2149     		ldr	r1, .L154+48
 1902 0090 FFF7FEFF 		bl	sprintf
 711:.\modem.c     **** 	                get_str,
 712:.\modem.c     **** 	                key_str,
 713:.\modem.c     **** 	                "Host: api.xively.com\r\n",
 714:.\modem.c     **** 	                "Accept: text/csv\r\n",
 715:.\modem.c     **** 	                "\r\n\032\r");
 716:.\modem.c     **** 	            
 717:.\modem.c     **** 				// Reset uart for incoming data from modem
 718:.\modem.c     **** 	            uart_string_reset();
 1903              		.loc 1 718 0
 1904 0094 FFF7FEFF 		bl	uart_string_reset
 719:.\modem.c     **** 				
 720:.\modem.c     **** 			    if(at_write_command(get_str,"SRING: 1",10000u) != 0){
 1905              		.loc 1 720 0
 1906 0098 07F17003 		add	r3, r7, #112
 1907 009c 1846     		mov	r0, r3
 1908 009e 1E49     		ldr	r1, .L154+52
 1909 00a0 42F21072 		movw	r2, #10000
 1910 00a4 FFF7FEFF 		bl	at_write_command
 1911 00a8 0346     		mov	r3, r0
 1912 00aa 002B     		cmp	r3, #0
 1913 00ac 14D0     		beq	.L152
 721:.\modem.c     ****                     // Read GET response from the buffer
 722:.\modem.c     ****                     uart_string_reset();
 1914              		.loc 1 722 0
ARM GAS  C:\Users\Matthew\AppData\Local\Temp\ccu6ei5I.s 			page 49


 1915 00ae FFF7FEFF 		bl	uart_string_reset
 723:.\modem.c     ****                     //CyDelay(5000u);
 724:.\modem.c     ****                     at_write_command("AT#SRECV=1,1000\r","OK",10000u);
 1916              		.loc 1 724 0
 1917 00b2 1A48     		ldr	r0, .L154+56
 1918 00b4 0D49     		ldr	r1, .L154+8
 1919 00b6 42F21072 		movw	r2, #10000
 1920 00ba FFF7FEFF 		bl	at_write_command
 725:.\modem.c     ****                     //strcpy(packet, uart_received_string);
 726:.\modem.c     ****                     strcpy(packet, strstr(uart_received_string, "\r\n\r\n")+strlen("\r\n\r\n"));
 1921              		.loc 1 726 0
 1922 00be 1848     		ldr	r0, .L154+60
 1923 00c0 1849     		ldr	r1, .L154+64
 1924 00c2 FFF7FEFF 		bl	strstr
 1925 00c6 0346     		mov	r3, r0
 1926 00c8 0433     		adds	r3, r3, #4
 1927 00ca 3A1D     		adds	r2, r7, #4
 1928 00cc 1068     		ldr	r0, [r2]
 1929 00ce 1946     		mov	r1, r3
 1930 00d0 FFF7FEFF 		bl	strcpy
 727:.\modem.c     ****                     
 728:.\modem.c     ****                     //debug_write("Packet received successfully.");
 729:.\modem.c     ****                     return 1u;   // return 1 if successful
 1931              		.loc 1 729 0
 1932 00d4 0123     		movs	r3, #1
 1933 00d6 00E0     		b	.L151
 1934              	.L152:
 1935              	.LBE5:
 730:.\modem.c     **** 
 731:.\modem.c     ****                 }
 732:.\modem.c     **** 				
 733:.\modem.c     **** 				/* GC864
 734:.\modem.c     **** 	            if(at_write_command(get_str,"200 OK",15000u) != 0){
 735:.\modem.c     **** 					strcpy(packet, strstr(uart_received_string, "\r\n\r\n")+strlen("\r\n\r\n"));
 736:.\modem.c     **** 	                return 1u;   // return 1 if HTTP request was successful
 737:.\modem.c     **** 	            }
 738:.\modem.c     **** 				*/
 739:.\modem.c     ****             }
 740:.\modem.c     **** 			/* OLD, method used AT#SD=1,0,80,\"api.xively.com\",0,0,1 combined with SSEND
 741:.\modem.c     ****             if(at_write_command(get_str,"SRING: 1",15000u) != 0){
 742:.\modem.c     ****                 // Read GET response from the buffer
 743:.\modem.c     ****                 uart_string_reset();
 744:.\modem.c     ****                 //CyDelay(5000u);
 745:.\modem.c     ****                 at_write_command("AT#SRECV=1,700\r","OK",15000u);
 746:.\modem.c     ****                 //strcpy(packet, uart_received_string);
 747:.\modem.c     ****                 strcpy(packet, strstr(uart_received_string, "\r\n\r\n")+strlen("\r\n\r\n"));
 748:.\modem.c     ****                 
 749:.\modem.c     ****                 CyDelay(1000u); //debug_write("Packet received successfully.");
 750:.\modem.c     ****                 return 1u;   // return 1 if succesfully sent sms
 751:.\modem.c     **** 
 752:.\modem.c     ****             }
 753:.\modem.c     **** 			*/
 754:.\modem.c     **** 			
 755:.\modem.c     ****             /* Write to SD Card debugger
 756:.\modem.c     ****             else {
 757:.\modem.c     ****                 debug_write("(at_write_command(sendBuffer,\"OK\"...) Data sent unsuccessfully.");
 758:.\modem.c     ****             }
ARM GAS  C:\Users\Matthew\AppData\Local\Temp\ccu6ei5I.s 			page 50


 759:.\modem.c     ****             */
 760:.\modem.c     **** 
 761:.\modem.c     ****             //uint8 disconnected = modem_disconnect();
 762:.\modem.c     ****         }
 763:.\modem.c     ****             /* Write to SD Card debugger
 764:.\modem.c     ****             else {
 765:.\modem.c     ****                 debug_write("(AT#SD=1,0,80,\"api.xively.com\",0,0,1) Could not connect to server.")
 766:.\modem.c     ****             }
 767:.\modem.c     ****             */
 768:.\modem.c     ****         /*}
 769:.\modem.c     ****         
 770:.\modem.c     ****         if (attempts < MAX_GET_ATTEMPTS-1) { // Don't reset the modem on the last attempt since it 
 771:.\modem.c     ****             modem_reset();
 772:.\modem.c     ****         }
 773:.\modem.c     ****         */
 774:.\modem.c     ****     }
 775:.\modem.c     ****     //modem_disconnect();
 776:.\modem.c     ****     return 0u;   // return 0 if failure to send sms
 1936              		.loc 1 776 0
 1937 00d8 0023     		movs	r3, #0
 1938              	.L151:
 777:.\modem.c     **** }
 1939              		.loc 1 777 0
 1940 00da 1846     		mov	r0, r3
 1941 00dc 07F58B67 		add	r7, r7, #1112
 1942 00e0 BD46     		mov	sp, r7
 1943              		@ sp needed
 1944 00e2 80BD     		pop	{r7, pc}
 1945              	.L155:
 1946              		.align	2
 1947              	.L154:
 1948 00e4 00000000 		.word	modem_state
 1949 00e8 C8010000 		.word	.LC27
 1950 00ec 14000000 		.word	.LC2
 1951 00f0 F0010000 		.word	.LC28
 1952 00f4 FC010000 		.word	.LC29
 1953 00f8 00000000 		.word	feed_id
 1954 00fc 00020000 		.word	.LC30
 1955 0100 00000000 		.word	api_key
 1956 0104 30020000 		.word	.LC31
 1957 0108 4C020000 		.word	.LC33
 1958 010c 64020000 		.word	.LC34
 1959 0110 78020000 		.word	.LC35
 1960 0114 40020000 		.word	.LC32
 1961 0118 80020000 		.word	.LC36
 1962 011c 8C020000 		.word	.LC37
 1963 0120 00000000 		.word	uart_received_string
 1964 0124 A0020000 		.word	.LC38
 1965              		.cfi_endproc
 1966              	.LFE84:
 1967              		.size	modem_get_packet, .-modem_get_packet
 1968              		.section	.rodata
 1969 02a5 000000   		.align	2
 1970              	.LC39:
 1971 02a8 6C6F636B 		.ascii	"lock\000"
 1971      00
 1972 02ad 000000   		.align	2
ARM GAS  C:\Users\Matthew\AppData\Local\Temp\ccu6ei5I.s 			page 51


 1973              	.LC40:
 1974 02b0 7B226D65 		.ascii	"{\"method\":\"put\",\"resource\":\"/feeds/%lu\",\"h"
 1974      74686F64 
 1974      223A2270 
 1974      7574222C 
 1974      22726573 
 1975 02da 65616465 		.ascii	"eaders\":{\"X-ApiKey\":\"%s\"},\"body\":{\"version\""
 1975      7273223A 
 1975      7B22582D 
 1975      4170694B 
 1975      6579223A 
 1976 0305 3A22312E 		.ascii	":\"1.0.0\",\"datastreams\":[{ \"id\" : \"lock\", \""
 1976      302E3022 
 1976      2C226461 
 1976      74617374 
 1976      7265616D 
 1977 032f 63757272 		.ascii	"current_value\" : \"%u\"}]}}\000"
 1977      656E745F 
 1977      76616C75 
 1977      6522203A 
 1977      20222575 
 1978 0349 000000   		.section	.text.modem_acquire_lock,"ax",%progbits
 1979              		.align	2
 1980              		.global	modem_acquire_lock
 1981              		.thumb
 1982              		.thumb_func
 1983              		.type	modem_acquire_lock, %function
 1984              	modem_acquire_lock:
 1985              	.LFB85:
 778:.\modem.c     **** 
 779:.\modem.c     **** uint8 modem_acquire_lock(){
 1986              		.loc 1 779 0
 1987              		.cfi_startproc
 1988              		@ args = 0, pretend = 0, frame = 320
 1989              		@ frame_needed = 1, uses_anonymous_args = 0
 1990 0000 80B5     		push	{r7, lr}
 1991              		.cfi_def_cfa_offset 8
 1992              		.cfi_offset 7, -8
 1993              		.cfi_offset 14, -4
 1994 0002 D2B0     		sub	sp, sp, #328
 1995              		.cfi_def_cfa_offset 336
 1996 0004 02AF     		add	r7, sp, #8
 1997              		.cfi_def_cfa 7, 328
 780:.\modem.c     ****     
 781:.\modem.c     ****     /*
 782:.\modem.c     ****     if (lock_acquired == 1u) {
 783:.\modem.c     ****         return 1u;
 784:.\modem.c     ****     }
 785:.\modem.c     ****     */
 786:.\modem.c     ****     
 787:.\modem.c     ****     uint8 lock = 0u;
 1998              		.loc 1 787 0
 1999 0006 0023     		movs	r3, #0
 2000 0008 87F83331 		strb	r3, [r7, #307]
 788:.\modem.c     ****     uint32 i = 0u, delay = 100u, lock_attempts = 2u;    
 2001              		.loc 1 788 0
 2002 000c 0023     		movs	r3, #0
ARM GAS  C:\Users\Matthew\AppData\Local\Temp\ccu6ei5I.s 			page 52


 2003 000e C7F83C31 		str	r3, [r7, #316]
 2004 0012 6423     		movs	r3, #100
 2005 0014 C7F83831 		str	r3, [r7, #312]
 2006 0018 0223     		movs	r3, #2
 2007 001a C7F83431 		str	r3, [r7, #308]
 789:.\modem.c     ****     char data_packet[300] = {0};
 2008              		.loc 1 789 0
 2009 001e 3B1D     		adds	r3, r7, #4
 2010 0020 1A46     		mov	r2, r3
 2011 0022 4FF49673 		mov	r3, #300
 2012 0026 1046     		mov	r0, r2
 2013 0028 0021     		movs	r1, #0
 2014 002a 1A46     		mov	r2, r3
 2015 002c FFF7FEFF 		bl	memset
 790:.\modem.c     ****             
 791:.\modem.c     ****     for(i=0u; i < lock_attempts; i++) {
 2016              		.loc 1 791 0
 2017 0030 0023     		movs	r3, #0
 2018 0032 C7F83C31 		str	r3, [r7, #316]
 2019 0036 3DE0     		b	.L157
 2020              	.L160:
 792:.\modem.c     ****         if(modem_get_packet(data_packet,"lock")){
 2021              		.loc 1 792 0
 2022 0038 3B1D     		adds	r3, r7, #4
 2023 003a 1846     		mov	r0, r3
 2024 003c 2349     		ldr	r1, .L162
 2025 003e FFF7FEFF 		bl	modem_get_packet
 2026 0042 0346     		mov	r3, r0
 2027 0044 002B     		cmp	r3, #0
 2028 0046 2CD0     		beq	.L158
 793:.\modem.c     ****             if(packet_get_uint8(data_packet, "lock", &lock) && lock == 0u){
 2029              		.loc 1 793 0
 2030 0048 3A1D     		adds	r2, r7, #4
 2031 004a 07F23313 		addw	r3, r7, #307
 2032 004e 1046     		mov	r0, r2
 2033 0050 1E49     		ldr	r1, .L162
 2034 0052 1A46     		mov	r2, r3
 2035 0054 FFF7FEFF 		bl	packet_get_uint8
 2036 0058 0346     		mov	r3, r0
 2037 005a 002B     		cmp	r3, #0
 2038 005c 21D0     		beq	.L158
 2039              		.loc 1 793 0 is_stmt 0 discriminator 1
 2040 005e 97F83331 		ldrb	r3, [r7, #307]	@ zero_extendqisi2
 2041 0062 002B     		cmp	r3, #0
 2042 0064 1DD1     		bne	.L158
 794:.\modem.c     ****             
 795:.\modem.c     ****                 memset(&data_packet[0],0,sizeof(data_packet));
 2043              		.loc 1 795 0 is_stmt 1
 2044 0066 3B1D     		adds	r3, r7, #4
 2045 0068 1846     		mov	r0, r3
 2046 006a 0021     		movs	r1, #0
 2047 006c 4FF49672 		mov	r2, #300
 2048 0070 FFF7FEFF 		bl	memset
 796:.\modem.c     ****                 sprintf(data_packet, "{"
 2049              		.loc 1 796 0
 2050 0074 164B     		ldr	r3, .L162+4
 2051 0076 1A68     		ldr	r2, [r3]
ARM GAS  C:\Users\Matthew\AppData\Local\Temp\ccu6ei5I.s 			page 53


 2052 0078 164B     		ldr	r3, .L162+8
 2053 007a 1B68     		ldr	r3, [r3]
 2054 007c 391D     		adds	r1, r7, #4
 2055 007e 0120     		movs	r0, #1
 2056 0080 0090     		str	r0, [sp]
 2057 0082 0846     		mov	r0, r1
 2058 0084 1449     		ldr	r1, .L162+12
 2059 0086 FFF7FEFF 		bl	sprintf
 797:.\modem.c     ****                       "\"method\":\"put\","
 798:.\modem.c     ****                       "\"resource\":\"/feeds/%lu\","
 799:.\modem.c     ****                       "\"headers\":{\"X-ApiKey\":\"%s\"},"
 800:.\modem.c     ****                       "\"body\":{\"version\":\"1.0.0\",\"datastreams\":["
 801:.\modem.c     ****                             "{ \"id\" : \"lock\", \"current_value\" : \"%u\"}"
 802:.\modem.c     ****                       "]}}",
 803:.\modem.c     ****                       feed_id,api_key,1u);
 804:.\modem.c     ****                       
 805:.\modem.c     ****                 if(modem_send_packet(data_packet)) {
 2060              		.loc 1 805 0
 2061 008a 3B1D     		adds	r3, r7, #4
 2062 008c 1846     		mov	r0, r3
 2063 008e FFF7FEFF 		bl	modem_send_packet
 2064 0092 0346     		mov	r3, r0
 2065 0094 002B     		cmp	r3, #0
 2066 0096 04D0     		beq	.L158
 806:.\modem.c     ****                     lock_acquired = 1u;
 2067              		.loc 1 806 0
 2068 0098 104B     		ldr	r3, .L162+16
 2069 009a 0122     		movs	r2, #1
 2070 009c 1A70     		strb	r2, [r3]
 807:.\modem.c     ****                     return 1u;
 2071              		.loc 1 807 0
 2072 009e 0123     		movs	r3, #1
 2073 00a0 0FE0     		b	.L161
 2074              	.L158:
 808:.\modem.c     ****                 }
 809:.\modem.c     ****             }  
 810:.\modem.c     ****         }
 811:.\modem.c     ****         CyDelay(delay);
 2075              		.loc 1 811 0
 2076 00a2 D7F83801 		ldr	r0, [r7, #312]
 2077 00a6 FFF7FEFF 		bl	CyDelay
 791:.\modem.c     ****     for(i=0u; i < lock_attempts; i++) {
 2078              		.loc 1 791 0
 2079 00aa D7F83C31 		ldr	r3, [r7, #316]
 2080 00ae 0133     		adds	r3, r3, #1
 2081 00b0 C7F83C31 		str	r3, [r7, #316]
 2082              	.L157:
 791:.\modem.c     ****     for(i=0u; i < lock_attempts; i++) {
 2083              		.loc 1 791 0 is_stmt 0 discriminator 1
 2084 00b4 D7F83C21 		ldr	r2, [r7, #316]
 2085 00b8 D7F83431 		ldr	r3, [r7, #308]
 2086 00bc 9A42     		cmp	r2, r3
 2087 00be BBD3     		bcc	.L160
 812:.\modem.c     ****     }
 813:.\modem.c     ****          
 814:.\modem.c     ****     return 0u;
 2088              		.loc 1 814 0 is_stmt 1
ARM GAS  C:\Users\Matthew\AppData\Local\Temp\ccu6ei5I.s 			page 54


 2089 00c0 0023     		movs	r3, #0
 2090              	.L161:
 815:.\modem.c     **** }
 2091              		.loc 1 815 0
 2092 00c2 1846     		mov	r0, r3
 2093 00c4 07F5A077 		add	r7, r7, #320
 2094 00c8 BD46     		mov	sp, r7
 2095              		@ sp needed
 2096 00ca 80BD     		pop	{r7, pc}
 2097              	.L163:
 2098              		.align	2
 2099              	.L162:
 2100 00cc A8020000 		.word	.LC39
 2101 00d0 00000000 		.word	feed_id
 2102 00d4 00000000 		.word	api_key
 2103 00d8 B0020000 		.word	.LC40
 2104 00dc 00000000 		.word	lock_acquired
 2105              		.cfi_endproc
 2106              	.LFE85:
 2107              		.size	modem_acquire_lock, .-modem_acquire_lock
 2108              		.section	.text.modem_release_lock,"ax",%progbits
 2109              		.align	2
 2110              		.global	modem_release_lock
 2111              		.thumb
 2112              		.thumb_func
 2113              		.type	modem_release_lock, %function
 2114              	modem_release_lock:
 2115              	.LFB86:
 816:.\modem.c     **** 
 817:.\modem.c     **** uint8 modem_release_lock(){
 2116              		.loc 1 817 0
 2117              		.cfi_startproc
 2118              		@ args = 0, pretend = 0, frame = 312
 2119              		@ frame_needed = 1, uses_anonymous_args = 0
 2120 0000 80B5     		push	{r7, lr}
 2121              		.cfi_def_cfa_offset 8
 2122              		.cfi_offset 7, -8
 2123              		.cfi_offset 14, -4
 2124 0002 D0B0     		sub	sp, sp, #320
 2125              		.cfi_def_cfa_offset 328
 2126 0004 02AF     		add	r7, sp, #8
 2127              		.cfi_def_cfa 7, 320
 818:.\modem.c     ****     /*
 819:.\modem.c     ****     if (lock_acquired == 0u) {
 820:.\modem.c     ****         return 1u;
 821:.\modem.c     ****     }
 822:.\modem.c     ****     */
 823:.\modem.c     ****     
 824:.\modem.c     ****     uint32 i = 0u, delay = 100u, lock_attempts = 2u;    
 2128              		.loc 1 824 0
 2129 0006 0023     		movs	r3, #0
 2130 0008 C7F83431 		str	r3, [r7, #308]
 2131 000c 6423     		movs	r3, #100
 2132 000e C7F83031 		str	r3, [r7, #304]
 2133 0012 0223     		movs	r3, #2
 2134 0014 C7F82C31 		str	r3, [r7, #300]
 825:.\modem.c     ****     char data_packet[300] = {0};
ARM GAS  C:\Users\Matthew\AppData\Local\Temp\ccu6ei5I.s 			page 55


 2135              		.loc 1 825 0
 2136 0018 3B46     		mov	r3, r7
 2137 001a 1A46     		mov	r2, r3
 2138 001c 4FF49673 		mov	r3, #300
 2139 0020 1046     		mov	r0, r2
 2140 0022 0021     		movs	r1, #0
 2141 0024 1A46     		mov	r2, r3
 2142 0026 FFF7FEFF 		bl	memset
 826:.\modem.c     ****     
 827:.\modem.c     ****     sprintf(data_packet, "{"
 2143              		.loc 1 827 0
 2144 002a 184B     		ldr	r3, .L170
 2145 002c 1A68     		ldr	r2, [r3]
 2146 002e 184B     		ldr	r3, .L170+4
 2147 0030 1B68     		ldr	r3, [r3]
 2148 0032 3946     		mov	r1, r7
 2149 0034 0020     		movs	r0, #0
 2150 0036 0090     		str	r0, [sp]
 2151 0038 0846     		mov	r0, r1
 2152 003a 1649     		ldr	r1, .L170+8
 2153 003c FFF7FEFF 		bl	sprintf
 828:.\modem.c     ****           "\"method\":\"put\","
 829:.\modem.c     ****           "\"resource\":\"/feeds/%lu\","
 830:.\modem.c     ****           "\"headers\":{\"X-ApiKey\":\"%s\"},"
 831:.\modem.c     ****           "\"body\":{\"version\":\"1.0.0\",\"datastreams\":["
 832:.\modem.c     ****                 "{ \"id\" : \"lock\", \"current_value\" : \"%u\"}"
 833:.\modem.c     ****           "]}}",
 834:.\modem.c     ****           feed_id, api_key, 0u);
 835:.\modem.c     ****         
 836:.\modem.c     ****     for(i=0u; i < lock_attempts; i++) {
 2154              		.loc 1 836 0
 2155 0040 0023     		movs	r3, #0
 2156 0042 C7F83431 		str	r3, [r7, #308]
 2157 0046 14E0     		b	.L165
 2158              	.L168:
 837:.\modem.c     **** 
 838:.\modem.c     ****         if(modem_send_packet(data_packet)) {
 2159              		.loc 1 838 0
 2160 0048 3B46     		mov	r3, r7
 2161 004a 1846     		mov	r0, r3
 2162 004c FFF7FEFF 		bl	modem_send_packet
 2163 0050 0346     		mov	r3, r0
 2164 0052 002B     		cmp	r3, #0
 2165 0054 04D0     		beq	.L166
 839:.\modem.c     ****             lock_acquired = 0u;
 2166              		.loc 1 839 0
 2167 0056 104B     		ldr	r3, .L170+12
 2168 0058 0022     		movs	r2, #0
 2169 005a 1A70     		strb	r2, [r3]
 840:.\modem.c     ****             return 1u;
 2170              		.loc 1 840 0
 2171 005c 0123     		movs	r3, #1
 2172 005e 0FE0     		b	.L169
 2173              	.L166:
 841:.\modem.c     ****         }
 842:.\modem.c     ****         
 843:.\modem.c     ****         CyDelay(delay);
ARM GAS  C:\Users\Matthew\AppData\Local\Temp\ccu6ei5I.s 			page 56


 2174              		.loc 1 843 0
 2175 0060 D7F83001 		ldr	r0, [r7, #304]
 2176 0064 FFF7FEFF 		bl	CyDelay
 836:.\modem.c     ****     for(i=0u; i < lock_attempts; i++) {
 2177              		.loc 1 836 0
 2178 0068 D7F83431 		ldr	r3, [r7, #308]
 2179 006c 0133     		adds	r3, r3, #1
 2180 006e C7F83431 		str	r3, [r7, #308]
 2181              	.L165:
 836:.\modem.c     ****     for(i=0u; i < lock_attempts; i++) {
 2182              		.loc 1 836 0 is_stmt 0 discriminator 1
 2183 0072 D7F83421 		ldr	r2, [r7, #308]
 2184 0076 D7F82C31 		ldr	r3, [r7, #300]
 2185 007a 9A42     		cmp	r2, r3
 2186 007c E4D3     		bcc	.L168
 844:.\modem.c     ****     }
 845:.\modem.c     ****          
 846:.\modem.c     ****     return 0u;
 2187              		.loc 1 846 0 is_stmt 1
 2188 007e 0023     		movs	r3, #0
 2189              	.L169:
 847:.\modem.c     **** }
 2190              		.loc 1 847 0
 2191 0080 1846     		mov	r0, r3
 2192 0082 07F59C77 		add	r7, r7, #312
 2193 0086 BD46     		mov	sp, r7
 2194              		@ sp needed
 2195 0088 80BD     		pop	{r7, pc}
 2196              	.L171:
 2197 008a 00BF     		.align	2
 2198              	.L170:
 2199 008c 00000000 		.word	feed_id
 2200 0090 00000000 		.word	api_key
 2201 0094 B0020000 		.word	.LC40
 2202 0098 00000000 		.word	lock_acquired
 2203              		.cfi_endproc
 2204              	.LFE86:
 2205              		.size	modem_release_lock, .-modem_release_lock
 2206              		.section	.text.uart_string_reset,"ax",%progbits
 2207              		.align	2
 2208              		.global	uart_string_reset
 2209              		.thumb
 2210              		.thumb_func
 2211              		.type	uart_string_reset, %function
 2212              	uart_string_reset:
 2213              	.LFB87:
 848:.\modem.c     **** 
 849:.\modem.c     **** void uart_string_reset(){
 2214              		.loc 1 849 0
 2215              		.cfi_startproc
 2216              		@ args = 0, pretend = 0, frame = 0
 2217              		@ frame_needed = 1, uses_anonymous_args = 0
 2218 0000 80B5     		push	{r7, lr}
 2219              		.cfi_def_cfa_offset 8
 2220              		.cfi_offset 7, -8
 2221              		.cfi_offset 14, -4
 2222 0002 00AF     		add	r7, sp, #0
ARM GAS  C:\Users\Matthew\AppData\Local\Temp\ccu6ei5I.s 			page 57


 2223              		.cfi_def_cfa_register 7
 850:.\modem.c     ****     // reset uart_received_string to zero
 851:.\modem.c     ****     /*
 852:.\modem.c     ****     uint16 i = 0;
 853:.\modem.c     ****     
 854:.\modem.c     ****     for(i = 0; i < 700; i++){
 855:.\modem.c     ****         uart_received_string[i] = 0;
 856:.\modem.c     ****     }
 857:.\modem.c     ****     */
 858:.\modem.c     ****     memset(&uart_received_string[0],0,sizeof(uart_received_string));
 2224              		.loc 1 858 0
 2225 0004 0548     		ldr	r0, .L173
 2226 0006 0021     		movs	r1, #0
 2227 0008 4FF47A72 		mov	r2, #1000
 2228 000c FFF7FEFF 		bl	memset
 859:.\modem.c     ****     uart_string_index = 0;
 2229              		.loc 1 859 0
 2230 0010 034B     		ldr	r3, .L173+4
 2231 0012 0022     		movs	r2, #0
 2232 0014 1A80     		strh	r2, [r3]	@ movhi
 860:.\modem.c     ****     Telit_UART_ClearRxBuffer();
 2233              		.loc 1 860 0
 2234 0016 FFF7FEFF 		bl	Telit_UART_ClearRxBuffer
 861:.\modem.c     **** //    uart_ClearTxBuffer();
 862:.\modem.c     **** }
 2235              		.loc 1 862 0
 2236 001a 80BD     		pop	{r7, pc}
 2237              	.L174:
 2238              		.align	2
 2239              	.L173:
 2240 001c 00000000 		.word	uart_received_string
 2241 0020 00000000 		.word	uart_string_index
 2242              		.cfi_endproc
 2243              	.LFE87:
 2244              		.size	uart_string_reset, .-uart_string_reset
 2245              		.section	.text.Telit_isr_rx,"ax",%progbits
 2246              		.align	2
 2247              		.global	Telit_isr_rx
 2248              		.thumb
 2249              		.thumb_func
 2250              		.type	Telit_isr_rx, %function
 2251              	Telit_isr_rx:
 2252              	.LFB88:
 863:.\modem.c     **** 
 864:.\modem.c     **** // this function fires when uart rx receives bytes (when modem is sending bytes)
 865:.\modem.c     **** CY_ISR(Telit_isr_rx){
 2253              		.loc 1 865 0
 2254              		.cfi_startproc
 2255              		@ args = 0, pretend = 0, frame = 8
 2256              		@ frame_needed = 1, uses_anonymous_args = 0
 2257 0000 80B5     		push	{r7, lr}
 2258              		.cfi_def_cfa_offset 8
 2259              		.cfi_offset 7, -8
 2260              		.cfi_offset 14, -4
 2261 0002 82B0     		sub	sp, sp, #8
 2262              		.cfi_def_cfa_offset 16
 2263 0004 00AF     		add	r7, sp, #0
ARM GAS  C:\Users\Matthew\AppData\Local\Temp\ccu6ei5I.s 			page 58


 2264              		.cfi_def_cfa_register 7
 866:.\modem.c     ****     while (Telit_UART_GetRxBufferSize()){
 2265              		.loc 1 866 0
 2266 0006 11E0     		b	.L176
 2267              	.L177:
 2268              	.LBB6:
 867:.\modem.c     ****         // hold the next char in the rx register as a temporary variable
 868:.\modem.c     ****         char rx_char_hold = Telit_UART_GetChar();
 2269              		.loc 1 868 0
 2270 0008 FFF7FEFF 		bl	Telit_UART_GetChar
 2271 000c 0346     		mov	r3, r0
 2272 000e FB71     		strb	r3, [r7, #7]
 869:.\modem.c     ****         
 870:.\modem.c     ****         // store the char in uart_received_string
 871:.\modem.c     ****         if(rx_char_hold){
 2273              		.loc 1 871 0
 2274 0010 FB79     		ldrb	r3, [r7, #7]	@ zero_extendqisi2
 2275 0012 002B     		cmp	r3, #0
 2276 0014 0AD0     		beq	.L176
 872:.\modem.c     ****             uart_received_string[uart_string_index] = rx_char_hold;
 2277              		.loc 1 872 0
 2278 0016 094B     		ldr	r3, .L178
 2279 0018 1B88     		ldrh	r3, [r3]
 2280 001a 094A     		ldr	r2, .L178+4
 2281 001c F979     		ldrb	r1, [r7, #7]
 2282 001e D154     		strb	r1, [r2, r3]
 873:.\modem.c     ****             uart_string_index++;
 2283              		.loc 1 873 0
 2284 0020 064B     		ldr	r3, .L178
 2285 0022 1B88     		ldrh	r3, [r3]
 2286 0024 0133     		adds	r3, r3, #1
 2287 0026 9AB2     		uxth	r2, r3
 2288 0028 044B     		ldr	r3, .L178
 2289 002a 1A80     		strh	r2, [r3]	@ movhi
 2290              	.L176:
 2291              	.LBE6:
 866:.\modem.c     ****     while (Telit_UART_GetRxBufferSize()){
 2292              		.loc 1 866 0 discriminator 1
 2293 002c FFF7FEFF 		bl	Telit_UART_GetRxBufferSize
 2294 0030 0346     		mov	r3, r0
 2295 0032 002B     		cmp	r3, #0
 2296 0034 E8D1     		bne	.L177
 874:.\modem.c     ****         }
 875:.\modem.c     ****     }
 876:.\modem.c     **** }
 2297              		.loc 1 876 0
 2298 0036 0837     		adds	r7, r7, #8
 2299 0038 BD46     		mov	sp, r7
 2300              		@ sp needed
 2301 003a 80BD     		pop	{r7, pc}
 2302              	.L179:
 2303              		.align	2
 2304              	.L178:
 2305 003c 00000000 		.word	uart_string_index
 2306 0040 00000000 		.word	uart_received_string
 2307              		.cfi_endproc
 2308              	.LFE88:
ARM GAS  C:\Users\Matthew\AppData\Local\Temp\ccu6ei5I.s 			page 59


 2309              		.size	Telit_isr_rx, .-Telit_isr_rx
 2310              		.text
 2311              	.Letext0:
 2312              		.file 2 "c:\\program files (x86)\\cypress\\psoc creator\\3.2\\psoc creator\\import\\gnu\\arm\\4.8.
 2313              		.file 3 "c:\\program files (x86)\\cypress\\psoc creator\\3.2\\psoc creator\\import\\gnu\\arm\\4.8.
 2314              		.file 4 "Generated_Source\\PSoC5/cytypes.h"
 2315              		.file 5 "Generated_Source\\PSoC5/core_cm3.h"