ARM GAS  C:\Users\Matthew\AppData\Local\Temp\cc94QUPD.s 			page 1


   1              		.syntax unified
   2              		.cpu cortex-m3
   3              		.fpu softvfp
   4              		.eabi_attribute 20, 1
   5              		.eabi_attribute 21, 1
   6              		.eabi_attribute 23, 3
   7              		.eabi_attribute 24, 1
   8              		.eabi_attribute 25, 1
   9              		.eabi_attribute 26, 1
  10              		.eabi_attribute 30, 6
  11              		.eabi_attribute 34, 1
  12              		.eabi_attribute 18, 4
  13              		.thumb
  14              		.file	"packet.c"
  15              		.text
  16              	.Ltext0:
  17              		.cfi_sections	.debug_frame
  18              		.comm	error_str,4,4
  19              		.section	.rodata
  20              		.align	2
  21              	.LC0:
  22 0000 2573206E 		.ascii	"%s not found in packet: \012%s\000"
  22      6F742066 
  22      6F756E64 
  22      20696E20 
  22      7061636B 
  23              		.align	2
  24              	.LC1:
  25 001c 5A2C00   		.ascii	"Z,\000"
  26 001f 00       		.align	2
  27              	.LC2:
  28 0020 275A2C27 		.ascii	"'Z,' not found in packet: \012%s\000"
  28      206E6F74 
  28      20666F75 
  28      6E642069 
  28      6E207061 
  29 003e 0000     		.align	2
  30              	.LC3:
  31 0040 270D2720 		.ascii	"'\015' not found in packet: \012%s\000"
  31      6E6F7420 
  31      666F756E 
  31      6420696E 
  31      20706163 
  32 005d 000000   		.section	.text.packet_get_value,"ax",%progbits
  33              		.align	2
  34              		.global	packet_get_value
  35              		.thumb
  36              		.thumb_func
  37              		.type	packet_get_value, %function
  38              	packet_get_value:
  39              	.LFB56:
  40              		.file 1 ".\\packet.c"
   1:.\packet.c    **** /* ========================================
   2:.\packet.c    ****  *
   3:.\packet.c    ****  * Copyright YOUR COMPANY, THE YEAR
   4:.\packet.c    ****  * All Rights Reserved
   5:.\packet.c    ****  * UNPUBLISHED, LICENSED SOFTWARE.
ARM GAS  C:\Users\Matthew\AppData\Local\Temp\cc94QUPD.s 			page 2


   6:.\packet.c    ****  *
   7:.\packet.c    ****  * CONFIDENTIAL AND PROPRIETARY INFORMATION
   8:.\packet.c    ****  * WHICH IS THE PROPERTY OF your company.
   9:.\packet.c    ****  *
  10:.\packet.c    ****  * ========================================
  11:.\packet.c    **** */
  12:.\packet.c    **** #include "packet.h"
  13:.\packet.c    **** //#include "debug.h" TODO: ACCOUNT FOR THIS
  14:.\packet.c    **** 
  15:.\packet.c    **** char* error_str;
  16:.\packet.c    **** 
  17:.\packet.c    **** /*
  18:.\packet.c    **** Searches Xively packet for name and returns the associated value
  19:.\packet.c    **** as a char array.
  20:.\packet.c    **** Returns 1 if successful, and 0 if there was an error.
  21:.\packet.c    **** */
  22:.\packet.c    **** uint8 packet_get_value(char* packet, char* name, char* value) {
  41              		.loc 1 22 0
  42              		.cfi_startproc
  43              		@ args = 0, pretend = 0, frame = 24
  44              		@ frame_needed = 1, uses_anonymous_args = 0
  45 0000 80B5     		push	{r7, lr}
  46              		.cfi_def_cfa_offset 8
  47              		.cfi_offset 7, -8
  48              		.cfi_offset 14, -4
  49 0002 86B0     		sub	sp, sp, #24
  50              		.cfi_def_cfa_offset 32
  51 0004 00AF     		add	r7, sp, #0
  52              		.cfi_def_cfa_register 7
  53 0006 F860     		str	r0, [r7, #12]
  54 0008 B960     		str	r1, [r7, #8]
  55 000a 7A60     		str	r2, [r7, #4]
  23:.\packet.c    ****     char *a, *b;
  24:.\packet.c    ****     
  25:.\packet.c    ****     // Find the first occurence of "name" in "packet"
  26:.\packet.c    ****     a = strstr(packet,name);
  56              		.loc 1 26 0
  57 000c F868     		ldr	r0, [r7, #12]
  58 000e B968     		ldr	r1, [r7, #8]
  59 0010 FFF7FEFF 		bl	strstr
  60 0014 7861     		str	r0, [r7, #20]
  27:.\packet.c    ****     if (a == NULL) {
  61              		.loc 1 27 0
  62 0016 7B69     		ldr	r3, [r7, #20]
  63 0018 002B     		cmp	r3, #0
  64 001a 09D1     		bne	.L2
  28:.\packet.c    ****         sprintf(error_str, "%s not found in packet: \n%s", name, packet);
  65              		.loc 1 28 0
  66 001c 1D4B     		ldr	r3, .L6
  67 001e 1B68     		ldr	r3, [r3]
  68 0020 1846     		mov	r0, r3
  69 0022 1D49     		ldr	r1, .L6+4
  70 0024 BA68     		ldr	r2, [r7, #8]
  71 0026 FB68     		ldr	r3, [r7, #12]
  72 0028 FFF7FEFF 		bl	sprintf
  29:.\packet.c    ****         /* Write to SD Card debugger
  30:.\packet.c    ****         debug_write( error_str );
ARM GAS  C:\Users\Matthew\AppData\Local\Temp\cc94QUPD.s 			page 3


  31:.\packet.c    ****         */
  32:.\packet.c    ****         return 0u;
  73              		.loc 1 32 0
  74 002c 0023     		movs	r3, #0
  75 002e 2CE0     		b	.L3
  76              	.L2:
  33:.\packet.c    ****     }
  34:.\packet.c    ****     
  35:.\packet.c    ****     // Move the pointer to the timestamp after the first occurence of "name"
  36:.\packet.c    ****     // This marks where the value is
  37:.\packet.c    ****     a = strstr(a,"Z,")+strlen("Z,");
  77              		.loc 1 37 0
  78 0030 7869     		ldr	r0, [r7, #20]
  79 0032 1A49     		ldr	r1, .L6+8
  80 0034 FFF7FEFF 		bl	strstr
  81 0038 0346     		mov	r3, r0
  82 003a 0233     		adds	r3, r3, #2
  83 003c 7B61     		str	r3, [r7, #20]
  38:.\packet.c    ****     if (a == NULL) {
  84              		.loc 1 38 0
  85 003e 7B69     		ldr	r3, [r7, #20]
  86 0040 002B     		cmp	r3, #0
  87 0042 08D1     		bne	.L4
  39:.\packet.c    ****         sprintf(error_str, "'Z,' not found in packet: \n%s", packet);
  88              		.loc 1 39 0
  89 0044 134B     		ldr	r3, .L6
  90 0046 1B68     		ldr	r3, [r3]
  91 0048 1846     		mov	r0, r3
  92 004a 1549     		ldr	r1, .L6+12
  93 004c FA68     		ldr	r2, [r7, #12]
  94 004e FFF7FEFF 		bl	sprintf
  40:.\packet.c    ****         /* Write to SD Card debugger
  41:.\packet.c    ****         debug_write( error_str );
  42:.\packet.c    ****         */
  43:.\packet.c    ****         return 0u;
  95              		.loc 1 43 0
  96 0052 0023     		movs	r3, #0
  97 0054 19E0     		b	.L3
  98              	.L4:
  44:.\packet.c    ****     }
  45:.\packet.c    ****     
  46:.\packet.c    ****     // Find the carriage return, marking the end of the value
  47:.\packet.c    ****     b = strstr(a,"\n");
  99              		.loc 1 47 0
 100 0056 7869     		ldr	r0, [r7, #20]
 101 0058 0A21     		movs	r1, #10
 102 005a FFF7FEFF 		bl	strchr
 103 005e 3861     		str	r0, [r7, #16]
  48:.\packet.c    ****     if (b == NULL) {
 104              		.loc 1 48 0
 105 0060 3B69     		ldr	r3, [r7, #16]
 106 0062 002B     		cmp	r3, #0
 107 0064 08D1     		bne	.L5
  49:.\packet.c    ****         sprintf(error_str, "'\r' not found in packet: \n%s", packet);
 108              		.loc 1 49 0
 109 0066 0B4B     		ldr	r3, .L6
 110 0068 1B68     		ldr	r3, [r3]
ARM GAS  C:\Users\Matthew\AppData\Local\Temp\cc94QUPD.s 			page 4


 111 006a 1846     		mov	r0, r3
 112 006c 0D49     		ldr	r1, .L6+16
 113 006e FA68     		ldr	r2, [r7, #12]
 114 0070 FFF7FEFF 		bl	sprintf
  50:.\packet.c    ****         /* Write to SD Card debugger
  51:.\packet.c    ****         debug_write( error_str );
  52:.\packet.c    ****         */
  53:.\packet.c    ****         return 0u;
 115              		.loc 1 53 0
 116 0074 0023     		movs	r3, #0
 117 0076 08E0     		b	.L3
 118              	.L5:
  54:.\packet.c    ****     }
  55:.\packet.c    ****     
  56:.\packet.c    ****     strncpy(value,a,b-a);   
 119              		.loc 1 56 0
 120 0078 3A69     		ldr	r2, [r7, #16]
 121 007a 7B69     		ldr	r3, [r7, #20]
 122 007c D31A     		subs	r3, r2, r3
 123 007e 7868     		ldr	r0, [r7, #4]
 124 0080 7969     		ldr	r1, [r7, #20]
 125 0082 1A46     		mov	r2, r3
 126 0084 FFF7FEFF 		bl	strncpy
  57:.\packet.c    ****     return 1u;
 127              		.loc 1 57 0
 128 0088 0123     		movs	r3, #1
 129              	.L3:
  58:.\packet.c    **** }
 130              		.loc 1 58 0
 131 008a 1846     		mov	r0, r3
 132 008c 1837     		adds	r7, r7, #24
 133 008e BD46     		mov	sp, r7
 134              		@ sp needed
 135 0090 80BD     		pop	{r7, pc}
 136              	.L7:
 137 0092 00BF     		.align	2
 138              	.L6:
 139 0094 00000000 		.word	error_str
 140 0098 00000000 		.word	.LC0
 141 009c 1C000000 		.word	.LC1
 142 00a0 20000000 		.word	.LC2
 143 00a4 40000000 		.word	.LC3
 144              		.cfi_endproc
 145              	.LFE56:
 146              		.size	packet_get_value, .-packet_get_value
 147              		.section	.text.packet_get_uint8,"ax",%progbits
 148              		.align	2
 149              		.global	packet_get_uint8
 150              		.thumb
 151              		.thumb_func
 152              		.type	packet_get_uint8, %function
 153              	packet_get_uint8:
 154              	.LFB57:
  59:.\packet.c    **** 
  60:.\packet.c    **** /*
  61:.\packet.c    **** Searches Xively packet for name and returns the associated value
  62:.\packet.c    **** as uint32.
ARM GAS  C:\Users\Matthew\AppData\Local\Temp\cc94QUPD.s 			page 5


  63:.\packet.c    **** Returns 1 if successful, and 0 if there was an error.
  64:.\packet.c    **** */
  65:.\packet.c    **** uint8 packet_get_uint8(char* packet, char* name, uint8* value) {
 155              		.loc 1 65 0
 156              		.cfi_startproc
 157              		@ args = 0, pretend = 0, frame = 40
 158              		@ frame_needed = 1, uses_anonymous_args = 0
 159 0000 80B5     		push	{r7, lr}
 160              		.cfi_def_cfa_offset 8
 161              		.cfi_offset 7, -8
 162              		.cfi_offset 14, -4
 163 0002 8AB0     		sub	sp, sp, #40
 164              		.cfi_def_cfa_offset 48
 165 0004 00AF     		add	r7, sp, #0
 166              		.cfi_def_cfa_register 7
 167 0006 F860     		str	r0, [r7, #12]
 168 0008 B960     		str	r1, [r7, #8]
 169 000a 7A60     		str	r2, [r7, #4]
  66:.\packet.c    ****     char value_str[20] = {0}; // uint8 is at most 3 digits long
 170              		.loc 1 66 0
 171 000c 07F11403 		add	r3, r7, #20
 172 0010 0022     		movs	r2, #0
 173 0012 1A60     		str	r2, [r3]
 174 0014 0433     		adds	r3, r3, #4
 175 0016 0022     		movs	r2, #0
 176 0018 1A60     		str	r2, [r3]
 177 001a 0433     		adds	r3, r3, #4
 178 001c 0022     		movs	r2, #0
 179 001e 1A60     		str	r2, [r3]
 180 0020 0433     		adds	r3, r3, #4
 181 0022 0022     		movs	r2, #0
 182 0024 1A60     		str	r2, [r3]
 183 0026 0433     		adds	r3, r3, #4
 184 0028 0022     		movs	r2, #0
 185 002a 1A60     		str	r2, [r3]
 186 002c 0433     		adds	r3, r3, #4
  67:.\packet.c    ****     
  68:.\packet.c    ****     if( packet_get_value(packet, name, value_str) ){
 187              		.loc 1 68 0
 188 002e 07F11403 		add	r3, r7, #20
 189 0032 F868     		ldr	r0, [r7, #12]
 190 0034 B968     		ldr	r1, [r7, #8]
 191 0036 1A46     		mov	r2, r3
 192 0038 FFF7FEFF 		bl	packet_get_value
 193 003c 0346     		mov	r3, r0
 194 003e 002B     		cmp	r3, #0
 195 0040 0CD0     		beq	.L9
  69:.\packet.c    ****         *value = (uint8) strtol(value_str,(char **) NULL, 10); // Base 10
 196              		.loc 1 69 0
 197 0042 07F11403 		add	r3, r7, #20
 198 0046 1846     		mov	r0, r3
 199 0048 0021     		movs	r1, #0
 200 004a 0A22     		movs	r2, #10
 201 004c FFF7FEFF 		bl	strtol
 202 0050 0346     		mov	r3, r0
 203 0052 DAB2     		uxtb	r2, r3
 204 0054 7B68     		ldr	r3, [r7, #4]
ARM GAS  C:\Users\Matthew\AppData\Local\Temp\cc94QUPD.s 			page 6


 205 0056 1A70     		strb	r2, [r3]
  70:.\packet.c    ****         // http://www.cplusplus.com/reference/cstdlib/strtol/
  71:.\packet.c    ****         return 1u;
 206              		.loc 1 71 0
 207 0058 0123     		movs	r3, #1
 208 005a 08E0     		b	.L11
 209              	.L9:
  72:.\packet.c    ****     }
  73:.\packet.c    ****         
  74:.\packet.c    ****     sprintf(error_str, "%s not found in packet: \n%s", name, packet);
 210              		.loc 1 74 0
 211 005c 064B     		ldr	r3, .L12
 212 005e 1B68     		ldr	r3, [r3]
 213 0060 1846     		mov	r0, r3
 214 0062 0649     		ldr	r1, .L12+4
 215 0064 BA68     		ldr	r2, [r7, #8]
 216 0066 FB68     		ldr	r3, [r7, #12]
 217 0068 FFF7FEFF 		bl	sprintf
  75:.\packet.c    ****     /* Write to SD Card debugger
  76:.\packet.c    ****     debug_write( error_str );
  77:.\packet.c    ****     */
  78:.\packet.c    ****     return 0u;
 218              		.loc 1 78 0
 219 006c 0023     		movs	r3, #0
 220              	.L11:
  79:.\packet.c    **** }
 221              		.loc 1 79 0
 222 006e 1846     		mov	r0, r3
 223 0070 2837     		adds	r7, r7, #40
 224 0072 BD46     		mov	sp, r7
 225              		@ sp needed
 226 0074 80BD     		pop	{r7, pc}
 227              	.L13:
 228 0076 00BF     		.align	2
 229              	.L12:
 230 0078 00000000 		.word	error_str
 231 007c 00000000 		.word	.LC0
 232              		.cfi_endproc
 233              	.LFE57:
 234              		.size	packet_get_uint8, .-packet_get_uint8
 235              		.section	.text.packet_get_uint32,"ax",%progbits
 236              		.align	2
 237              		.global	packet_get_uint32
 238              		.thumb
 239              		.thumb_func
 240              		.type	packet_get_uint32, %function
 241              	packet_get_uint32:
 242              	.LFB58:
  80:.\packet.c    **** 
  81:.\packet.c    **** /*
  82:.\packet.c    **** Searches Xively packet for name and returns the associated value
  83:.\packet.c    **** as uint32.
  84:.\packet.c    **** Returns 1 if successful, and 0 if there was an error.
  85:.\packet.c    **** */
  86:.\packet.c    **** uint8 packet_get_uint32(char* packet, char* name, uint32* value) {
 243              		.loc 1 86 0
 244              		.cfi_startproc
ARM GAS  C:\Users\Matthew\AppData\Local\Temp\cc94QUPD.s 			page 7


 245              		@ args = 0, pretend = 0, frame = 40
 246              		@ frame_needed = 1, uses_anonymous_args = 0
 247 0000 80B5     		push	{r7, lr}
 248              		.cfi_def_cfa_offset 8
 249              		.cfi_offset 7, -8
 250              		.cfi_offset 14, -4
 251 0002 8AB0     		sub	sp, sp, #40
 252              		.cfi_def_cfa_offset 48
 253 0004 00AF     		add	r7, sp, #0
 254              		.cfi_def_cfa_register 7
 255 0006 F860     		str	r0, [r7, #12]
 256 0008 B960     		str	r1, [r7, #8]
 257 000a 7A60     		str	r2, [r7, #4]
  87:.\packet.c    ****     char value_str[20] = {0}; // uint32 is at most 10 digits long
 258              		.loc 1 87 0
 259 000c 07F11403 		add	r3, r7, #20
 260 0010 0022     		movs	r2, #0
 261 0012 1A60     		str	r2, [r3]
 262 0014 0433     		adds	r3, r3, #4
 263 0016 0022     		movs	r2, #0
 264 0018 1A60     		str	r2, [r3]
 265 001a 0433     		adds	r3, r3, #4
 266 001c 0022     		movs	r2, #0
 267 001e 1A60     		str	r2, [r3]
 268 0020 0433     		adds	r3, r3, #4
 269 0022 0022     		movs	r2, #0
 270 0024 1A60     		str	r2, [r3]
 271 0026 0433     		adds	r3, r3, #4
 272 0028 0022     		movs	r2, #0
 273 002a 1A60     		str	r2, [r3]
 274 002c 0433     		adds	r3, r3, #4
  88:.\packet.c    ****     
  89:.\packet.c    ****     if( packet_get_value(packet, name, value_str) ){
 275              		.loc 1 89 0
 276 002e 07F11403 		add	r3, r7, #20
 277 0032 F868     		ldr	r0, [r7, #12]
 278 0034 B968     		ldr	r1, [r7, #8]
 279 0036 1A46     		mov	r2, r3
 280 0038 FFF7FEFF 		bl	packet_get_value
 281 003c 0346     		mov	r3, r0
 282 003e 002B     		cmp	r3, #0
 283 0040 0CD0     		beq	.L15
  90:.\packet.c    ****         *value = (uint32) strtol(value_str,(char **) NULL, 10); // Base 10
 284              		.loc 1 90 0
 285 0042 07F11403 		add	r3, r7, #20
 286 0046 1846     		mov	r0, r3
 287 0048 0021     		movs	r1, #0
 288 004a 0A22     		movs	r2, #10
 289 004c FFF7FEFF 		bl	strtol
 290 0050 0346     		mov	r3, r0
 291 0052 1A46     		mov	r2, r3
 292 0054 7B68     		ldr	r3, [r7, #4]
 293 0056 1A60     		str	r2, [r3]
  91:.\packet.c    ****         // http://www.cplusplus.com/reference/cstdlib/strtol/
  92:.\packet.c    ****         return 1u;
 294              		.loc 1 92 0
 295 0058 0123     		movs	r3, #1
ARM GAS  C:\Users\Matthew\AppData\Local\Temp\cc94QUPD.s 			page 8


 296 005a 08E0     		b	.L17
 297              	.L15:
  93:.\packet.c    ****     }
  94:.\packet.c    ****         
  95:.\packet.c    ****     sprintf(error_str, "%s not found in packet: \n%s", name, packet);
 298              		.loc 1 95 0
 299 005c 064B     		ldr	r3, .L18
 300 005e 1B68     		ldr	r3, [r3]
 301 0060 1846     		mov	r0, r3
 302 0062 0649     		ldr	r1, .L18+4
 303 0064 BA68     		ldr	r2, [r7, #8]
 304 0066 FB68     		ldr	r3, [r7, #12]
 305 0068 FFF7FEFF 		bl	sprintf
  96:.\packet.c    ****     /* Write to SD Card debugger
  97:.\packet.c    ****     debug_write( error_str );
  98:.\packet.c    ****     */
  99:.\packet.c    ****     return 0u;
 306              		.loc 1 99 0
 307 006c 0023     		movs	r3, #0
 308              	.L17:
 100:.\packet.c    **** }
 309              		.loc 1 100 0
 310 006e 1846     		mov	r0, r3
 311 0070 2837     		adds	r7, r7, #40
 312 0072 BD46     		mov	sp, r7
 313              		@ sp needed
 314 0074 80BD     		pop	{r7, pc}
 315              	.L19:
 316 0076 00BF     		.align	2
 317              	.L18:
 318 0078 00000000 		.word	error_str
 319 007c 00000000 		.word	.LC0
 320              		.cfi_endproc
 321              	.LFE58:
 322              		.size	packet_get_uint32, .-packet_get_uint32
 323              		.section	.text.clear_packet,"ax",%progbits
 324              		.align	2
 325              		.global	clear_packet
 326              		.thumb
 327              		.thumb_func
 328              		.type	clear_packet, %function
 329              	clear_packet:
 330              	.LFB59:
 101:.\packet.c    **** 
 102:.\packet.c    **** 
 103:.\packet.c    **** uint8 clear_packet(char* packet){
 331              		.loc 1 103 0
 332              		.cfi_startproc
 333              		@ args = 0, pretend = 0, frame = 8
 334              		@ frame_needed = 1, uses_anonymous_args = 0
 335 0000 80B5     		push	{r7, lr}
 336              		.cfi_def_cfa_offset 8
 337              		.cfi_offset 7, -8
 338              		.cfi_offset 14, -4
 339 0002 82B0     		sub	sp, sp, #8
 340              		.cfi_def_cfa_offset 16
 341 0004 00AF     		add	r7, sp, #0
ARM GAS  C:\Users\Matthew\AppData\Local\Temp\cc94QUPD.s 			page 9


 342              		.cfi_def_cfa_register 7
 343 0006 7860     		str	r0, [r7, #4]
 104:.\packet.c    **** 
 105:.\packet.c    ****     memset(packet,0,sizeof(packet));
 344              		.loc 1 105 0
 345 0008 7868     		ldr	r0, [r7, #4]
 346 000a 0021     		movs	r1, #0
 347 000c 0422     		movs	r2, #4
 348 000e FFF7FEFF 		bl	memset
 106:.\packet.c    ****     return 1u;
 349              		.loc 1 106 0
 350 0012 0123     		movs	r3, #1
 107:.\packet.c    **** }
 351              		.loc 1 107 0
 352 0014 1846     		mov	r0, r3
 353 0016 0837     		adds	r7, r7, #8
 354 0018 BD46     		mov	sp, r7
 355              		@ sp needed
 356 001a 80BD     		pop	{r7, pc}
 357              		.cfi_endproc
 358              	.LFE59:
 359              		.size	clear_packet, .-clear_packet
 360              		.text
 361              	.Letext0:
 362              		.file 2 "c:\\program files (x86)\\cypress\\psoc creator\\3.2\\psoc creator\\import\\gnu\\arm\\4.8.
 363              		.file 3 "c:\\program files (x86)\\cypress\\psoc creator\\3.2\\psoc creator\\import\\gnu\\arm\\4.8.
 364              		.file 4 "Generated_Source\\PSoC5/cytypes.h"
 365              		.file 5 "Generated_Source\\PSoC5/core_cm3.h"