ARM GAS  C:\Users\BRANKO~1\AppData\Local\Temp\cc5L4W5X.s 			page 1


   1              		.syntax unified
   2              		.cpu cortex-m3
   3              		.fpu softvfp
   4              		.eabi_attribute 20, 1
   5              		.eabi_attribute 21, 1
   6              		.eabi_attribute 23, 3
   7              		.eabi_attribute 24, 1
   8              		.eabi_attribute 25, 1
   9              		.eabi_attribute 26, 1
  10              		.eabi_attribute 30, 6
  11              		.eabi_attribute 34, 1
  12              		.eabi_attribute 18, 4
  13              		.thumb
  14              		.file	"Telit_UART.c"
  15              		.text
  16              	.Ltext0:
  17              		.cfi_sections	.debug_frame
  18              		.global	Telit_UART_initVar
  19              		.bss
  20              		.type	Telit_UART_initVar, %object
  21              		.size	Telit_UART_initVar, 1
  22              	Telit_UART_initVar:
  23 0000 00       		.space	1
  24              		.section	.text.Telit_UART_Start,"ax",%progbits
  25              		.align	2
  26              		.global	Telit_UART_Start
  27              		.thumb
  28              		.thumb_func
  29              		.type	Telit_UART_Start, %function
  30              	Telit_UART_Start:
  31              	.LFB0:
  32              		.file 1 ".\\Generated_Source\\PSoC5\\Telit_UART.c"
   1:.\Generated_Source\PSoC5/Telit_UART.c **** /*******************************************************************************
   2:.\Generated_Source\PSoC5/Telit_UART.c **** * File Name: Telit_UART.c
   3:.\Generated_Source\PSoC5/Telit_UART.c **** * Version 2.30
   4:.\Generated_Source\PSoC5/Telit_UART.c **** *
   5:.\Generated_Source\PSoC5/Telit_UART.c **** * Description:
   6:.\Generated_Source\PSoC5/Telit_UART.c **** *  This file provides all API functionality of the UART component
   7:.\Generated_Source\PSoC5/Telit_UART.c **** *
   8:.\Generated_Source\PSoC5/Telit_UART.c **** * Note:
   9:.\Generated_Source\PSoC5/Telit_UART.c **** *
  10:.\Generated_Source\PSoC5/Telit_UART.c **** ********************************************************************************
  11:.\Generated_Source\PSoC5/Telit_UART.c **** * Copyright 2008-2012, Cypress Semiconductor Corporation.  All rights reserved.
  12:.\Generated_Source\PSoC5/Telit_UART.c **** * You may use this file only in accordance with the license, terms, conditions,
  13:.\Generated_Source\PSoC5/Telit_UART.c **** * disclaimers, and limitations in the end user license agreement accompanying
  14:.\Generated_Source\PSoC5/Telit_UART.c **** * the software package with which this file was provided.
  15:.\Generated_Source\PSoC5/Telit_UART.c **** *******************************************************************************/
  16:.\Generated_Source\PSoC5/Telit_UART.c **** 
  17:.\Generated_Source\PSoC5/Telit_UART.c **** #include "Telit_UART.h"
  18:.\Generated_Source\PSoC5/Telit_UART.c **** #include "CyLib.h"
  19:.\Generated_Source\PSoC5/Telit_UART.c **** #if(Telit_UART_INTERNAL_CLOCK_USED)
  20:.\Generated_Source\PSoC5/Telit_UART.c ****     #include "Telit_UART_IntClock.h"
  21:.\Generated_Source\PSoC5/Telit_UART.c **** #endif /* End Telit_UART_INTERNAL_CLOCK_USED */
  22:.\Generated_Source\PSoC5/Telit_UART.c **** 
  23:.\Generated_Source\PSoC5/Telit_UART.c **** 
  24:.\Generated_Source\PSoC5/Telit_UART.c **** /***************************************
  25:.\Generated_Source\PSoC5/Telit_UART.c **** * Global data allocation
ARM GAS  C:\Users\BRANKO~1\AppData\Local\Temp\cc5L4W5X.s 			page 2


  26:.\Generated_Source\PSoC5/Telit_UART.c **** ***************************************/
  27:.\Generated_Source\PSoC5/Telit_UART.c **** 
  28:.\Generated_Source\PSoC5/Telit_UART.c **** uint8 Telit_UART_initVar = 0u;
  29:.\Generated_Source\PSoC5/Telit_UART.c **** #if( Telit_UART_TX_ENABLED && (Telit_UART_TXBUFFERSIZE > Telit_UART_FIFO_LENGTH))
  30:.\Generated_Source\PSoC5/Telit_UART.c ****     volatile uint8 Telit_UART_txBuffer[Telit_UART_TXBUFFERSIZE];
  31:.\Generated_Source\PSoC5/Telit_UART.c ****     volatile uint8 Telit_UART_txBufferRead = 0u;
  32:.\Generated_Source\PSoC5/Telit_UART.c ****     uint8 Telit_UART_txBufferWrite = 0u;
  33:.\Generated_Source\PSoC5/Telit_UART.c **** #endif /* End Telit_UART_TX_ENABLED */
  34:.\Generated_Source\PSoC5/Telit_UART.c **** #if( ( Telit_UART_RX_ENABLED || Telit_UART_HD_ENABLED ) && \
  35:.\Generated_Source\PSoC5/Telit_UART.c ****      (Telit_UART_RXBUFFERSIZE > Telit_UART_FIFO_LENGTH) )
  36:.\Generated_Source\PSoC5/Telit_UART.c ****     volatile uint8 Telit_UART_rxBuffer[Telit_UART_RXBUFFERSIZE];
  37:.\Generated_Source\PSoC5/Telit_UART.c ****     volatile uint8 Telit_UART_rxBufferRead = 0u;
  38:.\Generated_Source\PSoC5/Telit_UART.c ****     volatile uint8 Telit_UART_rxBufferWrite = 0u;
  39:.\Generated_Source\PSoC5/Telit_UART.c ****     volatile uint8 Telit_UART_rxBufferLoopDetect = 0u;
  40:.\Generated_Source\PSoC5/Telit_UART.c ****     volatile uint8 Telit_UART_rxBufferOverflow = 0u;
  41:.\Generated_Source\PSoC5/Telit_UART.c ****     #if (Telit_UART_RXHW_ADDRESS_ENABLED)
  42:.\Generated_Source\PSoC5/Telit_UART.c ****         volatile uint8 Telit_UART_rxAddressMode = Telit_UART_RXADDRESSMODE;
  43:.\Generated_Source\PSoC5/Telit_UART.c ****         volatile uint8 Telit_UART_rxAddressDetected = 0u;
  44:.\Generated_Source\PSoC5/Telit_UART.c ****     #endif /* End EnableHWAddress */
  45:.\Generated_Source\PSoC5/Telit_UART.c **** #endif /* End Telit_UART_RX_ENABLED */
  46:.\Generated_Source\PSoC5/Telit_UART.c **** 
  47:.\Generated_Source\PSoC5/Telit_UART.c **** 
  48:.\Generated_Source\PSoC5/Telit_UART.c **** /*******************************************************************************
  49:.\Generated_Source\PSoC5/Telit_UART.c **** * Function Name: Telit_UART_Start
  50:.\Generated_Source\PSoC5/Telit_UART.c **** ********************************************************************************
  51:.\Generated_Source\PSoC5/Telit_UART.c **** *
  52:.\Generated_Source\PSoC5/Telit_UART.c **** * Summary:
  53:.\Generated_Source\PSoC5/Telit_UART.c **** *  Initialize and Enable the UART component.
  54:.\Generated_Source\PSoC5/Telit_UART.c **** *  Enable the clock input to enable operation.
  55:.\Generated_Source\PSoC5/Telit_UART.c **** *
  56:.\Generated_Source\PSoC5/Telit_UART.c **** * Parameters:
  57:.\Generated_Source\PSoC5/Telit_UART.c **** *  None.
  58:.\Generated_Source\PSoC5/Telit_UART.c **** *
  59:.\Generated_Source\PSoC5/Telit_UART.c **** * Return:
  60:.\Generated_Source\PSoC5/Telit_UART.c **** *  None.
  61:.\Generated_Source\PSoC5/Telit_UART.c **** *
  62:.\Generated_Source\PSoC5/Telit_UART.c **** * Global variables:
  63:.\Generated_Source\PSoC5/Telit_UART.c **** *  The Telit_UART_intiVar variable is used to indicate initial
  64:.\Generated_Source\PSoC5/Telit_UART.c **** *  configuration of this component. The variable is initialized to zero (0u)
  65:.\Generated_Source\PSoC5/Telit_UART.c **** *  and set to one (1u) the first time UART_Start() is called. This allows for
  66:.\Generated_Source\PSoC5/Telit_UART.c **** *  component initialization without re-initialization in all subsequent calls
  67:.\Generated_Source\PSoC5/Telit_UART.c **** *  to the Telit_UART_Start() routine.
  68:.\Generated_Source\PSoC5/Telit_UART.c **** *
  69:.\Generated_Source\PSoC5/Telit_UART.c **** * Reentrant:
  70:.\Generated_Source\PSoC5/Telit_UART.c **** *  No.
  71:.\Generated_Source\PSoC5/Telit_UART.c **** *
  72:.\Generated_Source\PSoC5/Telit_UART.c **** *******************************************************************************/
  73:.\Generated_Source\PSoC5/Telit_UART.c **** void Telit_UART_Start(void) 
  74:.\Generated_Source\PSoC5/Telit_UART.c **** {
  33              		.loc 1 74 0
  34              		.cfi_startproc
  35              		@ args = 0, pretend = 0, frame = 0
  36              		@ frame_needed = 1, uses_anonymous_args = 0
  37 0000 80B5     		push	{r7, lr}
  38              		.cfi_def_cfa_offset 8
  39              		.cfi_offset 7, -8
  40              		.cfi_offset 14, -4
ARM GAS  C:\Users\BRANKO~1\AppData\Local\Temp\cc5L4W5X.s 			page 3


  41 0002 00AF     		add	r7, sp, #0
  42              		.cfi_def_cfa_register 7
  75:.\Generated_Source\PSoC5/Telit_UART.c ****     /* If not Initialized then initialize all required hardware and software */
  76:.\Generated_Source\PSoC5/Telit_UART.c ****     if(Telit_UART_initVar == 0u)
  43              		.loc 1 76 0
  44 0004 054B     		ldr	r3, .L3
  45 0006 1B78     		ldrb	r3, [r3]	@ zero_extendqisi2
  46 0008 002B     		cmp	r3, #0
  47 000a 04D1     		bne	.L2
  77:.\Generated_Source\PSoC5/Telit_UART.c ****     {
  78:.\Generated_Source\PSoC5/Telit_UART.c ****         Telit_UART_Init();
  48              		.loc 1 78 0
  49 000c FFF7FEFF 		bl	Telit_UART_Init
  79:.\Generated_Source\PSoC5/Telit_UART.c ****         Telit_UART_initVar = 1u;
  50              		.loc 1 79 0
  51 0010 024B     		ldr	r3, .L3
  52 0012 0122     		movs	r2, #1
  53 0014 1A70     		strb	r2, [r3]
  54              	.L2:
  80:.\Generated_Source\PSoC5/Telit_UART.c ****     }
  81:.\Generated_Source\PSoC5/Telit_UART.c ****     Telit_UART_Enable();
  55              		.loc 1 81 0
  56 0016 FFF7FEFF 		bl	Telit_UART_Enable
  82:.\Generated_Source\PSoC5/Telit_UART.c **** }
  57              		.loc 1 82 0
  58 001a 80BD     		pop	{r7, pc}
  59              	.L4:
  60              		.align	2
  61              	.L3:
  62 001c 00000000 		.word	Telit_UART_initVar
  63              		.cfi_endproc
  64              	.LFE0:
  65              		.size	Telit_UART_Start, .-Telit_UART_Start
  66              		.section	.text.Telit_UART_Init,"ax",%progbits
  67              		.align	2
  68              		.global	Telit_UART_Init
  69              		.thumb
  70              		.thumb_func
  71              		.type	Telit_UART_Init, %function
  72              	Telit_UART_Init:
  73              	.LFB1:
  83:.\Generated_Source\PSoC5/Telit_UART.c **** 
  84:.\Generated_Source\PSoC5/Telit_UART.c **** 
  85:.\Generated_Source\PSoC5/Telit_UART.c **** /*******************************************************************************
  86:.\Generated_Source\PSoC5/Telit_UART.c **** * Function Name: Telit_UART_Init
  87:.\Generated_Source\PSoC5/Telit_UART.c **** ********************************************************************************
  88:.\Generated_Source\PSoC5/Telit_UART.c **** *
  89:.\Generated_Source\PSoC5/Telit_UART.c **** * Summary:
  90:.\Generated_Source\PSoC5/Telit_UART.c **** *  Initialize component's parameters to the parameters set by user in the
  91:.\Generated_Source\PSoC5/Telit_UART.c **** *  customizer of the component placed onto schematic. Usually called in
  92:.\Generated_Source\PSoC5/Telit_UART.c **** *  Telit_UART_Start().
  93:.\Generated_Source\PSoC5/Telit_UART.c **** *
  94:.\Generated_Source\PSoC5/Telit_UART.c **** * Parameters:
  95:.\Generated_Source\PSoC5/Telit_UART.c **** *  None.
  96:.\Generated_Source\PSoC5/Telit_UART.c **** *
  97:.\Generated_Source\PSoC5/Telit_UART.c **** * Return:
  98:.\Generated_Source\PSoC5/Telit_UART.c **** *  None.
ARM GAS  C:\Users\BRANKO~1\AppData\Local\Temp\cc5L4W5X.s 			page 4


  99:.\Generated_Source\PSoC5/Telit_UART.c **** *
 100:.\Generated_Source\PSoC5/Telit_UART.c **** *******************************************************************************/
 101:.\Generated_Source\PSoC5/Telit_UART.c **** void Telit_UART_Init(void) 
 102:.\Generated_Source\PSoC5/Telit_UART.c **** {
  74              		.loc 1 102 0
  75              		.cfi_startproc
  76              		@ args = 0, pretend = 0, frame = 0
  77              		@ frame_needed = 1, uses_anonymous_args = 0
  78              		@ link register save eliminated.
  79 0000 80B4     		push	{r7}
  80              		.cfi_def_cfa_offset 4
  81              		.cfi_offset 7, -4
  82 0002 00AF     		add	r7, sp, #0
  83              		.cfi_def_cfa_register 7
 103:.\Generated_Source\PSoC5/Telit_UART.c ****     #if(Telit_UART_RX_ENABLED || Telit_UART_HD_ENABLED)
 104:.\Generated_Source\PSoC5/Telit_UART.c **** 
 105:.\Generated_Source\PSoC5/Telit_UART.c ****         #if(Telit_UART_RX_INTERRUPT_ENABLED && (Telit_UART_RXBUFFERSIZE > Telit_UART_FIFO_LENGTH))
 106:.\Generated_Source\PSoC5/Telit_UART.c ****             /* Set the RX Interrupt. */
 107:.\Generated_Source\PSoC5/Telit_UART.c ****             (void)CyIntSetVector(Telit_UART_RX_VECT_NUM, &Telit_UART_RXISR);
 108:.\Generated_Source\PSoC5/Telit_UART.c ****             CyIntSetPriority(Telit_UART_RX_VECT_NUM, Telit_UART_RX_PRIOR_NUM);
 109:.\Generated_Source\PSoC5/Telit_UART.c ****         #endif /* End Telit_UART_RX_INTERRUPT_ENABLED */
 110:.\Generated_Source\PSoC5/Telit_UART.c **** 
 111:.\Generated_Source\PSoC5/Telit_UART.c ****         #if (Telit_UART_RXHW_ADDRESS_ENABLED)
 112:.\Generated_Source\PSoC5/Telit_UART.c ****             Telit_UART_SetRxAddressMode(Telit_UART_RXAddressMode);
 113:.\Generated_Source\PSoC5/Telit_UART.c ****             Telit_UART_SetRxAddress1(Telit_UART_RXHWADDRESS1);
 114:.\Generated_Source\PSoC5/Telit_UART.c ****             Telit_UART_SetRxAddress2(Telit_UART_RXHWADDRESS2);
 115:.\Generated_Source\PSoC5/Telit_UART.c ****         #endif /* End Telit_UART_RXHW_ADDRESS_ENABLED */
 116:.\Generated_Source\PSoC5/Telit_UART.c **** 
 117:.\Generated_Source\PSoC5/Telit_UART.c ****         /* Init Count7 period */
 118:.\Generated_Source\PSoC5/Telit_UART.c ****         Telit_UART_RXBITCTR_PERIOD_REG = Telit_UART_RXBITCTR_INIT;
  84              		.loc 1 118 0
  85 0004 094B     		ldr	r3, .L6
  86 0006 7222     		movs	r2, #114
  87 0008 1A70     		strb	r2, [r3]
 119:.\Generated_Source\PSoC5/Telit_UART.c ****         /* Configure the Initial RX interrupt mask */
 120:.\Generated_Source\PSoC5/Telit_UART.c ****         Telit_UART_RXSTATUS_MASK_REG  = Telit_UART_INIT_RX_INTERRUPTS_MASK;
  88              		.loc 1 120 0
  89 000a 094B     		ldr	r3, .L6+4
  90 000c 2022     		movs	r2, #32
  91 000e 1A70     		strb	r2, [r3]
 121:.\Generated_Source\PSoC5/Telit_UART.c ****     #endif /* End Telit_UART_RX_ENABLED || Telit_UART_HD_ENABLED*/
 122:.\Generated_Source\PSoC5/Telit_UART.c **** 
 123:.\Generated_Source\PSoC5/Telit_UART.c ****     #if(Telit_UART_TX_ENABLED)
 124:.\Generated_Source\PSoC5/Telit_UART.c ****         #if(Telit_UART_TX_INTERRUPT_ENABLED && (Telit_UART_TXBUFFERSIZE > Telit_UART_FIFO_LENGTH))
 125:.\Generated_Source\PSoC5/Telit_UART.c ****             /* Set the TX Interrupt. */
 126:.\Generated_Source\PSoC5/Telit_UART.c ****             (void)CyIntSetVector(Telit_UART_TX_VECT_NUM, &Telit_UART_TXISR);
 127:.\Generated_Source\PSoC5/Telit_UART.c ****             CyIntSetPriority(Telit_UART_TX_VECT_NUM, Telit_UART_TX_PRIOR_NUM);
 128:.\Generated_Source\PSoC5/Telit_UART.c ****         #endif /* End Telit_UART_TX_INTERRUPT_ENABLED */
 129:.\Generated_Source\PSoC5/Telit_UART.c **** 
 130:.\Generated_Source\PSoC5/Telit_UART.c ****         /* Write Counter Value for TX Bit Clk Generator*/
 131:.\Generated_Source\PSoC5/Telit_UART.c ****         #if(Telit_UART_TXCLKGEN_DP)
 132:.\Generated_Source\PSoC5/Telit_UART.c ****             Telit_UART_TXBITCLKGEN_CTR_REG = Telit_UART_BIT_CENTER;
  92              		.loc 1 132 0
  93 0010 084B     		ldr	r3, .L6+8
  94 0012 0722     		movs	r2, #7
  95 0014 1A70     		strb	r2, [r3]
 133:.\Generated_Source\PSoC5/Telit_UART.c ****             Telit_UART_TXBITCLKTX_COMPLETE_REG = (Telit_UART_NUMBER_OF_DATA_BITS +
ARM GAS  C:\Users\BRANKO~1\AppData\Local\Temp\cc5L4W5X.s 			page 5


  96              		.loc 1 133 0
  97 0016 084B     		ldr	r3, .L6+12
  98 0018 4822     		movs	r2, #72
  99 001a 1A70     		strb	r2, [r3]
 134:.\Generated_Source\PSoC5/Telit_UART.c ****                         Telit_UART_NUMBER_OF_START_BIT) * Telit_UART_OVER_SAMPLE_COUNT;
 135:.\Generated_Source\PSoC5/Telit_UART.c ****         #else
 136:.\Generated_Source\PSoC5/Telit_UART.c ****             Telit_UART_TXBITCTR_PERIOD_REG = ((Telit_UART_NUMBER_OF_DATA_BITS +
 137:.\Generated_Source\PSoC5/Telit_UART.c ****                         Telit_UART_NUMBER_OF_START_BIT) * Telit_UART_OVER_SAMPLE_8) - 1u;
 138:.\Generated_Source\PSoC5/Telit_UART.c ****         #endif /* End Telit_UART_TXCLKGEN_DP */
 139:.\Generated_Source\PSoC5/Telit_UART.c **** 
 140:.\Generated_Source\PSoC5/Telit_UART.c ****         /* Configure the Initial TX interrupt mask */
 141:.\Generated_Source\PSoC5/Telit_UART.c ****         #if(Telit_UART_TX_INTERRUPT_ENABLED && (Telit_UART_TXBUFFERSIZE > Telit_UART_FIFO_LENGTH))
 142:.\Generated_Source\PSoC5/Telit_UART.c ****             Telit_UART_TXSTATUS_MASK_REG = Telit_UART_TX_STS_FIFO_EMPTY;
 143:.\Generated_Source\PSoC5/Telit_UART.c ****         #else
 144:.\Generated_Source\PSoC5/Telit_UART.c ****             Telit_UART_TXSTATUS_MASK_REG = Telit_UART_INIT_TX_INTERRUPTS_MASK;
 100              		.loc 1 144 0
 101 001c 074B     		ldr	r3, .L6+16
 102 001e 0222     		movs	r2, #2
 103 0020 1A70     		strb	r2, [r3]
 145:.\Generated_Source\PSoC5/Telit_UART.c ****         #endif /*End Telit_UART_TX_INTERRUPT_ENABLED*/
 146:.\Generated_Source\PSoC5/Telit_UART.c **** 
 147:.\Generated_Source\PSoC5/Telit_UART.c ****     #endif /* End Telit_UART_TX_ENABLED */
 148:.\Generated_Source\PSoC5/Telit_UART.c **** 
 149:.\Generated_Source\PSoC5/Telit_UART.c ****     #if(Telit_UART_PARITY_TYPE_SW)  /* Write Parity to Control Register */
 150:.\Generated_Source\PSoC5/Telit_UART.c ****         Telit_UART_WriteControlRegister( \
 151:.\Generated_Source\PSoC5/Telit_UART.c ****             (Telit_UART_ReadControlRegister() & (uint8)~Telit_UART_CTRL_PARITY_TYPE_MASK) | \
 152:.\Generated_Source\PSoC5/Telit_UART.c ****             (uint8)(Telit_UART_PARITY_TYPE << Telit_UART_CTRL_PARITY_TYPE0_SHIFT) );
 153:.\Generated_Source\PSoC5/Telit_UART.c ****     #endif /* End Telit_UART_PARITY_TYPE_SW */
 154:.\Generated_Source\PSoC5/Telit_UART.c **** }
 104              		.loc 1 154 0
 105 0022 BD46     		mov	sp, r7
 106              		@ sp needed
 107 0024 5DF8047B 		ldr	r7, [sp], #4
 108 0028 7047     		bx	lr
 109              	.L7:
 110 002a 00BF     		.align	2
 111              	.L6:
 112 002c 86650040 		.word	1073767814
 113 0030 85650040 		.word	1073767813
 114 0034 24650040 		.word	1073767716
 115 0038 34650040 		.word	1073767732
 116 003c 84650040 		.word	1073767812
 117              		.cfi_endproc
 118              	.LFE1:
 119              		.size	Telit_UART_Init, .-Telit_UART_Init
 120              		.section	.text.Telit_UART_Enable,"ax",%progbits
 121              		.align	2
 122              		.global	Telit_UART_Enable
 123              		.thumb
 124              		.thumb_func
 125              		.type	Telit_UART_Enable, %function
 126              	Telit_UART_Enable:
 127              	.LFB2:
 155:.\Generated_Source\PSoC5/Telit_UART.c **** 
 156:.\Generated_Source\PSoC5/Telit_UART.c **** 
 157:.\Generated_Source\PSoC5/Telit_UART.c **** /*******************************************************************************
 158:.\Generated_Source\PSoC5/Telit_UART.c **** * Function Name: Telit_UART_Enable
ARM GAS  C:\Users\BRANKO~1\AppData\Local\Temp\cc5L4W5X.s 			page 6


 159:.\Generated_Source\PSoC5/Telit_UART.c **** ********************************************************************************
 160:.\Generated_Source\PSoC5/Telit_UART.c **** *
 161:.\Generated_Source\PSoC5/Telit_UART.c **** * Summary:
 162:.\Generated_Source\PSoC5/Telit_UART.c **** *  Enables the UART block operation
 163:.\Generated_Source\PSoC5/Telit_UART.c **** *
 164:.\Generated_Source\PSoC5/Telit_UART.c **** * Parameters:
 165:.\Generated_Source\PSoC5/Telit_UART.c **** *  None.
 166:.\Generated_Source\PSoC5/Telit_UART.c **** *
 167:.\Generated_Source\PSoC5/Telit_UART.c **** * Return:
 168:.\Generated_Source\PSoC5/Telit_UART.c **** *  None.
 169:.\Generated_Source\PSoC5/Telit_UART.c **** *
 170:.\Generated_Source\PSoC5/Telit_UART.c **** * Global Variables:
 171:.\Generated_Source\PSoC5/Telit_UART.c **** *  Telit_UART_rxAddressDetected - set to initial state (0).
 172:.\Generated_Source\PSoC5/Telit_UART.c **** *
 173:.\Generated_Source\PSoC5/Telit_UART.c **** *******************************************************************************/
 174:.\Generated_Source\PSoC5/Telit_UART.c **** void Telit_UART_Enable(void) 
 175:.\Generated_Source\PSoC5/Telit_UART.c **** {
 128              		.loc 1 175 0
 129              		.cfi_startproc
 130              		@ args = 0, pretend = 0, frame = 8
 131              		@ frame_needed = 1, uses_anonymous_args = 0
 132 0000 80B5     		push	{r7, lr}
 133              		.cfi_def_cfa_offset 8
 134              		.cfi_offset 7, -8
 135              		.cfi_offset 14, -4
 136 0002 82B0     		sub	sp, sp, #8
 137              		.cfi_def_cfa_offset 16
 138 0004 00AF     		add	r7, sp, #0
 139              		.cfi_def_cfa_register 7
 176:.\Generated_Source\PSoC5/Telit_UART.c ****     uint8 enableInterrupts;
 177:.\Generated_Source\PSoC5/Telit_UART.c ****     enableInterrupts = CyEnterCriticalSection();
 140              		.loc 1 177 0
 141 0006 FFF7FEFF 		bl	CyEnterCriticalSection
 142 000a 0346     		mov	r3, r0
 143 000c FB71     		strb	r3, [r7, #7]
 178:.\Generated_Source\PSoC5/Telit_UART.c **** 
 179:.\Generated_Source\PSoC5/Telit_UART.c ****     #if(Telit_UART_RX_ENABLED || Telit_UART_HD_ENABLED)
 180:.\Generated_Source\PSoC5/Telit_UART.c ****         /*RX Counter (Count7) Enable */
 181:.\Generated_Source\PSoC5/Telit_UART.c ****         Telit_UART_RXBITCTR_CONTROL_REG |= Telit_UART_CNTR_ENABLE;
 144              		.loc 1 181 0
 145 000e 104B     		ldr	r3, .L9
 146 0010 0F4A     		ldr	r2, .L9
 147 0012 1278     		ldrb	r2, [r2]
 148 0014 D2B2     		uxtb	r2, r2
 149 0016 42F02002 		orr	r2, r2, #32
 150 001a D2B2     		uxtb	r2, r2
 151 001c 1A70     		strb	r2, [r3]
 182:.\Generated_Source\PSoC5/Telit_UART.c ****         /* Enable the RX Interrupt. */
 183:.\Generated_Source\PSoC5/Telit_UART.c ****         Telit_UART_RXSTATUS_ACTL_REG  |= Telit_UART_INT_ENABLE;
 152              		.loc 1 183 0
 153 001e 0D4B     		ldr	r3, .L9+4
 154 0020 0C4A     		ldr	r2, .L9+4
 155 0022 1278     		ldrb	r2, [r2]
 156 0024 D2B2     		uxtb	r2, r2
 157 0026 42F01002 		orr	r2, r2, #16
 158 002a D2B2     		uxtb	r2, r2
 159 002c 1A70     		strb	r2, [r3]
ARM GAS  C:\Users\BRANKO~1\AppData\Local\Temp\cc5L4W5X.s 			page 7


 184:.\Generated_Source\PSoC5/Telit_UART.c ****         #if(Telit_UART_RX_INTERRUPT_ENABLED && (Telit_UART_RXBUFFERSIZE > Telit_UART_FIFO_LENGTH))
 185:.\Generated_Source\PSoC5/Telit_UART.c ****             CyIntEnable(Telit_UART_RX_VECT_NUM);
 186:.\Generated_Source\PSoC5/Telit_UART.c ****             #if (Telit_UART_RXHW_ADDRESS_ENABLED)
 187:.\Generated_Source\PSoC5/Telit_UART.c ****                 Telit_UART_rxAddressDetected = 0u;
 188:.\Generated_Source\PSoC5/Telit_UART.c ****             #endif /* End Telit_UART_RXHW_ADDRESS_ENABLED */
 189:.\Generated_Source\PSoC5/Telit_UART.c ****         #endif /* End Telit_UART_RX_INTERRUPT_ENABLED */
 190:.\Generated_Source\PSoC5/Telit_UART.c ****     #endif /* End Telit_UART_RX_ENABLED || Telit_UART_HD_ENABLED*/
 191:.\Generated_Source\PSoC5/Telit_UART.c **** 
 192:.\Generated_Source\PSoC5/Telit_UART.c ****     #if(Telit_UART_TX_ENABLED)
 193:.\Generated_Source\PSoC5/Telit_UART.c ****         /*TX Counter (DP/Count7) Enable */
 194:.\Generated_Source\PSoC5/Telit_UART.c ****         #if(!Telit_UART_TXCLKGEN_DP)
 195:.\Generated_Source\PSoC5/Telit_UART.c ****             Telit_UART_TXBITCTR_CONTROL_REG |= Telit_UART_CNTR_ENABLE;
 196:.\Generated_Source\PSoC5/Telit_UART.c ****         #endif /* End Telit_UART_TXCLKGEN_DP */
 197:.\Generated_Source\PSoC5/Telit_UART.c ****         /* Enable the TX Interrupt. */
 198:.\Generated_Source\PSoC5/Telit_UART.c ****         Telit_UART_TXSTATUS_ACTL_REG |= Telit_UART_INT_ENABLE;
 160              		.loc 1 198 0
 161 002e 0A4B     		ldr	r3, .L9+8
 162 0030 094A     		ldr	r2, .L9+8
 163 0032 1278     		ldrb	r2, [r2]
 164 0034 D2B2     		uxtb	r2, r2
 165 0036 42F01002 		orr	r2, r2, #16
 166 003a D2B2     		uxtb	r2, r2
 167 003c 1A70     		strb	r2, [r3]
 199:.\Generated_Source\PSoC5/Telit_UART.c ****         #if(Telit_UART_TX_INTERRUPT_ENABLED && (Telit_UART_TXBUFFERSIZE > Telit_UART_FIFO_LENGTH))
 200:.\Generated_Source\PSoC5/Telit_UART.c ****             CyIntEnable(Telit_UART_TX_VECT_NUM);
 201:.\Generated_Source\PSoC5/Telit_UART.c ****         #endif /* End Telit_UART_TX_INTERRUPT_ENABLED*/
 202:.\Generated_Source\PSoC5/Telit_UART.c ****      #endif /* End Telit_UART_TX_ENABLED */
 203:.\Generated_Source\PSoC5/Telit_UART.c **** 
 204:.\Generated_Source\PSoC5/Telit_UART.c ****     #if(Telit_UART_INTERNAL_CLOCK_USED)
 205:.\Generated_Source\PSoC5/Telit_UART.c ****         /* Enable the clock. */
 206:.\Generated_Source\PSoC5/Telit_UART.c ****         Telit_UART_IntClock_Start();
 168              		.loc 1 206 0
 169 003e FFF7FEFF 		bl	Telit_UART_IntClock_Start
 207:.\Generated_Source\PSoC5/Telit_UART.c ****     #endif /* End Telit_UART_INTERNAL_CLOCK_USED */
 208:.\Generated_Source\PSoC5/Telit_UART.c **** 
 209:.\Generated_Source\PSoC5/Telit_UART.c ****     CyExitCriticalSection(enableInterrupts);
 170              		.loc 1 209 0
 171 0042 FB79     		ldrb	r3, [r7, #7]	@ zero_extendqisi2
 172 0044 1846     		mov	r0, r3
 173 0046 FFF7FEFF 		bl	CyExitCriticalSection
 210:.\Generated_Source\PSoC5/Telit_UART.c **** }
 174              		.loc 1 210 0
 175 004a 0837     		adds	r7, r7, #8
 176 004c BD46     		mov	sp, r7
 177              		@ sp needed
 178 004e 80BD     		pop	{r7, pc}
 179              	.L10:
 180              		.align	2
 181              	.L9:
 182 0050 96650040 		.word	1073767830
 183 0054 95650040 		.word	1073767829
 184 0058 94650040 		.word	1073767828
 185              		.cfi_endproc
 186              	.LFE2:
 187              		.size	Telit_UART_Enable, .-Telit_UART_Enable
 188              		.section	.text.Telit_UART_Stop,"ax",%progbits
 189              		.align	2
ARM GAS  C:\Users\BRANKO~1\AppData\Local\Temp\cc5L4W5X.s 			page 8


 190              		.global	Telit_UART_Stop
 191              		.thumb
 192              		.thumb_func
 193              		.type	Telit_UART_Stop, %function
 194              	Telit_UART_Stop:
 195              	.LFB3:
 211:.\Generated_Source\PSoC5/Telit_UART.c **** 
 212:.\Generated_Source\PSoC5/Telit_UART.c **** 
 213:.\Generated_Source\PSoC5/Telit_UART.c **** /*******************************************************************************
 214:.\Generated_Source\PSoC5/Telit_UART.c **** * Function Name: Telit_UART_Stop
 215:.\Generated_Source\PSoC5/Telit_UART.c **** ********************************************************************************
 216:.\Generated_Source\PSoC5/Telit_UART.c **** *
 217:.\Generated_Source\PSoC5/Telit_UART.c **** * Summary:
 218:.\Generated_Source\PSoC5/Telit_UART.c **** *  Disable the UART component
 219:.\Generated_Source\PSoC5/Telit_UART.c **** *
 220:.\Generated_Source\PSoC5/Telit_UART.c **** * Parameters:
 221:.\Generated_Source\PSoC5/Telit_UART.c **** *  None.
 222:.\Generated_Source\PSoC5/Telit_UART.c **** *
 223:.\Generated_Source\PSoC5/Telit_UART.c **** * Return:
 224:.\Generated_Source\PSoC5/Telit_UART.c **** *  None.
 225:.\Generated_Source\PSoC5/Telit_UART.c **** *
 226:.\Generated_Source\PSoC5/Telit_UART.c **** *******************************************************************************/
 227:.\Generated_Source\PSoC5/Telit_UART.c **** void Telit_UART_Stop(void) 
 228:.\Generated_Source\PSoC5/Telit_UART.c **** {
 196              		.loc 1 228 0
 197              		.cfi_startproc
 198              		@ args = 0, pretend = 0, frame = 8
 199              		@ frame_needed = 1, uses_anonymous_args = 0
 200 0000 80B5     		push	{r7, lr}
 201              		.cfi_def_cfa_offset 8
 202              		.cfi_offset 7, -8
 203              		.cfi_offset 14, -4
 204 0002 82B0     		sub	sp, sp, #8
 205              		.cfi_def_cfa_offset 16
 206 0004 00AF     		add	r7, sp, #0
 207              		.cfi_def_cfa_register 7
 229:.\Generated_Source\PSoC5/Telit_UART.c ****     uint8 enableInterrupts;
 230:.\Generated_Source\PSoC5/Telit_UART.c ****     enableInterrupts = CyEnterCriticalSection();
 208              		.loc 1 230 0
 209 0006 FFF7FEFF 		bl	CyEnterCriticalSection
 210 000a 0346     		mov	r3, r0
 211 000c FB71     		strb	r3, [r7, #7]
 231:.\Generated_Source\PSoC5/Telit_UART.c **** 
 232:.\Generated_Source\PSoC5/Telit_UART.c ****     /* Write Bit Counter Disable */
 233:.\Generated_Source\PSoC5/Telit_UART.c ****     #if(Telit_UART_RX_ENABLED || Telit_UART_HD_ENABLED)
 234:.\Generated_Source\PSoC5/Telit_UART.c ****         Telit_UART_RXBITCTR_CONTROL_REG &= (uint8)~Telit_UART_CNTR_ENABLE;
 212              		.loc 1 234 0
 213 000e 104B     		ldr	r3, .L12
 214 0010 0F4A     		ldr	r2, .L12
 215 0012 1278     		ldrb	r2, [r2]
 216 0014 D2B2     		uxtb	r2, r2
 217 0016 22F02002 		bic	r2, r2, #32
 218 001a D2B2     		uxtb	r2, r2
 219 001c 1A70     		strb	r2, [r3]
 235:.\Generated_Source\PSoC5/Telit_UART.c ****     #endif /* End Telit_UART_RX_ENABLED */
 236:.\Generated_Source\PSoC5/Telit_UART.c **** 
 237:.\Generated_Source\PSoC5/Telit_UART.c ****     #if(Telit_UART_TX_ENABLED)
ARM GAS  C:\Users\BRANKO~1\AppData\Local\Temp\cc5L4W5X.s 			page 9


 238:.\Generated_Source\PSoC5/Telit_UART.c ****         #if(!Telit_UART_TXCLKGEN_DP)
 239:.\Generated_Source\PSoC5/Telit_UART.c ****             Telit_UART_TXBITCTR_CONTROL_REG &= (uint8)~Telit_UART_CNTR_ENABLE;
 240:.\Generated_Source\PSoC5/Telit_UART.c ****         #endif /* End Telit_UART_TXCLKGEN_DP */
 241:.\Generated_Source\PSoC5/Telit_UART.c ****     #endif /* Telit_UART_TX_ENABLED */
 242:.\Generated_Source\PSoC5/Telit_UART.c **** 
 243:.\Generated_Source\PSoC5/Telit_UART.c ****     #if(Telit_UART_INTERNAL_CLOCK_USED)
 244:.\Generated_Source\PSoC5/Telit_UART.c ****         /* Disable the clock. */
 245:.\Generated_Source\PSoC5/Telit_UART.c ****         Telit_UART_IntClock_Stop();
 220              		.loc 1 245 0
 221 001e FFF7FEFF 		bl	Telit_UART_IntClock_Stop
 246:.\Generated_Source\PSoC5/Telit_UART.c ****     #endif /* End Telit_UART_INTERNAL_CLOCK_USED */
 247:.\Generated_Source\PSoC5/Telit_UART.c **** 
 248:.\Generated_Source\PSoC5/Telit_UART.c ****     /* Disable internal interrupt component */
 249:.\Generated_Source\PSoC5/Telit_UART.c ****     #if(Telit_UART_RX_ENABLED || Telit_UART_HD_ENABLED)
 250:.\Generated_Source\PSoC5/Telit_UART.c ****         Telit_UART_RXSTATUS_ACTL_REG  &= (uint8)~Telit_UART_INT_ENABLE;
 222              		.loc 1 250 0
 223 0022 0C4B     		ldr	r3, .L12+4
 224 0024 0B4A     		ldr	r2, .L12+4
 225 0026 1278     		ldrb	r2, [r2]
 226 0028 D2B2     		uxtb	r2, r2
 227 002a 22F01002 		bic	r2, r2, #16
 228 002e D2B2     		uxtb	r2, r2
 229 0030 1A70     		strb	r2, [r3]
 251:.\Generated_Source\PSoC5/Telit_UART.c ****         #if(Telit_UART_RX_INTERRUPT_ENABLED && (Telit_UART_RXBUFFERSIZE > Telit_UART_FIFO_LENGTH))
 252:.\Generated_Source\PSoC5/Telit_UART.c ****             Telit_UART_DisableRxInt();
 253:.\Generated_Source\PSoC5/Telit_UART.c ****         #endif /* End Telit_UART_RX_INTERRUPT_ENABLED */
 254:.\Generated_Source\PSoC5/Telit_UART.c ****     #endif /* End Telit_UART_RX_ENABLED */
 255:.\Generated_Source\PSoC5/Telit_UART.c **** 
 256:.\Generated_Source\PSoC5/Telit_UART.c ****     #if(Telit_UART_TX_ENABLED)
 257:.\Generated_Source\PSoC5/Telit_UART.c ****         Telit_UART_TXSTATUS_ACTL_REG &= (uint8)~Telit_UART_INT_ENABLE;
 230              		.loc 1 257 0
 231 0032 094B     		ldr	r3, .L12+8
 232 0034 084A     		ldr	r2, .L12+8
 233 0036 1278     		ldrb	r2, [r2]
 234 0038 D2B2     		uxtb	r2, r2
 235 003a 22F01002 		bic	r2, r2, #16
 236 003e D2B2     		uxtb	r2, r2
 237 0040 1A70     		strb	r2, [r3]
 258:.\Generated_Source\PSoC5/Telit_UART.c ****         #if(Telit_UART_TX_INTERRUPT_ENABLED && (Telit_UART_TXBUFFERSIZE > Telit_UART_FIFO_LENGTH))
 259:.\Generated_Source\PSoC5/Telit_UART.c ****             Telit_UART_DisableTxInt();
 260:.\Generated_Source\PSoC5/Telit_UART.c ****         #endif /* End Telit_UART_TX_INTERRUPT_ENABLED */
 261:.\Generated_Source\PSoC5/Telit_UART.c ****     #endif /* End Telit_UART_TX_ENABLED */
 262:.\Generated_Source\PSoC5/Telit_UART.c **** 
 263:.\Generated_Source\PSoC5/Telit_UART.c ****     CyExitCriticalSection(enableInterrupts);
 238              		.loc 1 263 0
 239 0042 FB79     		ldrb	r3, [r7, #7]	@ zero_extendqisi2
 240 0044 1846     		mov	r0, r3
 241 0046 FFF7FEFF 		bl	CyExitCriticalSection
 264:.\Generated_Source\PSoC5/Telit_UART.c **** }
 242              		.loc 1 264 0
 243 004a 0837     		adds	r7, r7, #8
 244 004c BD46     		mov	sp, r7
 245              		@ sp needed
 246 004e 80BD     		pop	{r7, pc}
 247              	.L13:
 248              		.align	2
 249              	.L12:
ARM GAS  C:\Users\BRANKO~1\AppData\Local\Temp\cc5L4W5X.s 			page 10


 250 0050 96650040 		.word	1073767830
 251 0054 95650040 		.word	1073767829
 252 0058 94650040 		.word	1073767828
 253              		.cfi_endproc
 254              	.LFE3:
 255              		.size	Telit_UART_Stop, .-Telit_UART_Stop
 256              		.section	.text.Telit_UART_ReadControlRegister,"ax",%progbits
 257              		.align	2
 258              		.global	Telit_UART_ReadControlRegister
 259              		.thumb
 260              		.thumb_func
 261              		.type	Telit_UART_ReadControlRegister, %function
 262              	Telit_UART_ReadControlRegister:
 263              	.LFB4:
 265:.\Generated_Source\PSoC5/Telit_UART.c **** 
 266:.\Generated_Source\PSoC5/Telit_UART.c **** 
 267:.\Generated_Source\PSoC5/Telit_UART.c **** /*******************************************************************************
 268:.\Generated_Source\PSoC5/Telit_UART.c **** * Function Name: Telit_UART_ReadControlRegister
 269:.\Generated_Source\PSoC5/Telit_UART.c **** ********************************************************************************
 270:.\Generated_Source\PSoC5/Telit_UART.c **** *
 271:.\Generated_Source\PSoC5/Telit_UART.c **** * Summary:
 272:.\Generated_Source\PSoC5/Telit_UART.c **** *  Read the current state of the control register
 273:.\Generated_Source\PSoC5/Telit_UART.c **** *
 274:.\Generated_Source\PSoC5/Telit_UART.c **** * Parameters:
 275:.\Generated_Source\PSoC5/Telit_UART.c **** *  None.
 276:.\Generated_Source\PSoC5/Telit_UART.c **** *
 277:.\Generated_Source\PSoC5/Telit_UART.c **** * Return:
 278:.\Generated_Source\PSoC5/Telit_UART.c **** *  Current state of the control register.
 279:.\Generated_Source\PSoC5/Telit_UART.c **** *
 280:.\Generated_Source\PSoC5/Telit_UART.c **** *******************************************************************************/
 281:.\Generated_Source\PSoC5/Telit_UART.c **** uint8 Telit_UART_ReadControlRegister(void) 
 282:.\Generated_Source\PSoC5/Telit_UART.c **** {
 264              		.loc 1 282 0
 265              		.cfi_startproc
 266              		@ args = 0, pretend = 0, frame = 0
 267              		@ frame_needed = 1, uses_anonymous_args = 0
 268              		@ link register save eliminated.
 269 0000 80B4     		push	{r7}
 270              		.cfi_def_cfa_offset 4
 271              		.cfi_offset 7, -4
 272 0002 00AF     		add	r7, sp, #0
 273              		.cfi_def_cfa_register 7
 283:.\Generated_Source\PSoC5/Telit_UART.c ****     #if( Telit_UART_CONTROL_REG_REMOVED )
 284:.\Generated_Source\PSoC5/Telit_UART.c ****         return(0u);
 274              		.loc 1 284 0
 275 0004 0023     		movs	r3, #0
 285:.\Generated_Source\PSoC5/Telit_UART.c ****     #else
 286:.\Generated_Source\PSoC5/Telit_UART.c ****         return(Telit_UART_CONTROL_REG);
 287:.\Generated_Source\PSoC5/Telit_UART.c ****     #endif /* End Telit_UART_CONTROL_REG_REMOVED */
 288:.\Generated_Source\PSoC5/Telit_UART.c **** }
 276              		.loc 1 288 0
 277 0006 1846     		mov	r0, r3
 278 0008 BD46     		mov	sp, r7
 279              		@ sp needed
 280 000a 5DF8047B 		ldr	r7, [sp], #4
 281 000e 7047     		bx	lr
 282              		.cfi_endproc
ARM GAS  C:\Users\BRANKO~1\AppData\Local\Temp\cc5L4W5X.s 			page 11


 283              	.LFE4:
 284              		.size	Telit_UART_ReadControlRegister, .-Telit_UART_ReadControlRegister
 285              		.section	.text.Telit_UART_WriteControlRegister,"ax",%progbits
 286              		.align	2
 287              		.global	Telit_UART_WriteControlRegister
 288              		.thumb
 289              		.thumb_func
 290              		.type	Telit_UART_WriteControlRegister, %function
 291              	Telit_UART_WriteControlRegister:
 292              	.LFB5:
 289:.\Generated_Source\PSoC5/Telit_UART.c **** 
 290:.\Generated_Source\PSoC5/Telit_UART.c **** 
 291:.\Generated_Source\PSoC5/Telit_UART.c **** /*******************************************************************************
 292:.\Generated_Source\PSoC5/Telit_UART.c **** * Function Name: Telit_UART_WriteControlRegister
 293:.\Generated_Source\PSoC5/Telit_UART.c **** ********************************************************************************
 294:.\Generated_Source\PSoC5/Telit_UART.c **** *
 295:.\Generated_Source\PSoC5/Telit_UART.c **** * Summary:
 296:.\Generated_Source\PSoC5/Telit_UART.c **** *  Writes an 8-bit value into the control register
 297:.\Generated_Source\PSoC5/Telit_UART.c **** *
 298:.\Generated_Source\PSoC5/Telit_UART.c **** * Parameters:
 299:.\Generated_Source\PSoC5/Telit_UART.c **** *  control:  control register value
 300:.\Generated_Source\PSoC5/Telit_UART.c **** *
 301:.\Generated_Source\PSoC5/Telit_UART.c **** * Return:
 302:.\Generated_Source\PSoC5/Telit_UART.c **** *  None.
 303:.\Generated_Source\PSoC5/Telit_UART.c **** *
 304:.\Generated_Source\PSoC5/Telit_UART.c **** *******************************************************************************/
 305:.\Generated_Source\PSoC5/Telit_UART.c **** void  Telit_UART_WriteControlRegister(uint8 control) 
 306:.\Generated_Source\PSoC5/Telit_UART.c **** {
 293              		.loc 1 306 0
 294              		.cfi_startproc
 295              		@ args = 0, pretend = 0, frame = 8
 296              		@ frame_needed = 1, uses_anonymous_args = 0
 297              		@ link register save eliminated.
 298 0000 80B4     		push	{r7}
 299              		.cfi_def_cfa_offset 4
 300              		.cfi_offset 7, -4
 301 0002 83B0     		sub	sp, sp, #12
 302              		.cfi_def_cfa_offset 16
 303 0004 00AF     		add	r7, sp, #0
 304              		.cfi_def_cfa_register 7
 305 0006 0346     		mov	r3, r0
 306 0008 FB71     		strb	r3, [r7, #7]
 307:.\Generated_Source\PSoC5/Telit_UART.c ****     #if( Telit_UART_CONTROL_REG_REMOVED )
 308:.\Generated_Source\PSoC5/Telit_UART.c ****         if(control != 0u) { }      /* release compiler warning */
 309:.\Generated_Source\PSoC5/Telit_UART.c ****     #else
 310:.\Generated_Source\PSoC5/Telit_UART.c ****        Telit_UART_CONTROL_REG = control;
 311:.\Generated_Source\PSoC5/Telit_UART.c ****     #endif /* End Telit_UART_CONTROL_REG_REMOVED */
 312:.\Generated_Source\PSoC5/Telit_UART.c **** }
 307              		.loc 1 312 0
 308 000a 0C37     		adds	r7, r7, #12
 309 000c BD46     		mov	sp, r7
 310              		@ sp needed
 311 000e 5DF8047B 		ldr	r7, [sp], #4
 312 0012 7047     		bx	lr
 313              		.cfi_endproc
 314              	.LFE5:
 315              		.size	Telit_UART_WriteControlRegister, .-Telit_UART_WriteControlRegister
ARM GAS  C:\Users\BRANKO~1\AppData\Local\Temp\cc5L4W5X.s 			page 12


 316              		.section	.text.Telit_UART_SetRxInterruptMode,"ax",%progbits
 317              		.align	2
 318              		.global	Telit_UART_SetRxInterruptMode
 319              		.thumb
 320              		.thumb_func
 321              		.type	Telit_UART_SetRxInterruptMode, %function
 322              	Telit_UART_SetRxInterruptMode:
 323              	.LFB6:
 313:.\Generated_Source\PSoC5/Telit_UART.c **** 
 314:.\Generated_Source\PSoC5/Telit_UART.c **** 
 315:.\Generated_Source\PSoC5/Telit_UART.c **** #if(Telit_UART_RX_ENABLED || Telit_UART_HD_ENABLED)
 316:.\Generated_Source\PSoC5/Telit_UART.c **** 
 317:.\Generated_Source\PSoC5/Telit_UART.c ****     #if(Telit_UART_RX_INTERRUPT_ENABLED)
 318:.\Generated_Source\PSoC5/Telit_UART.c **** 
 319:.\Generated_Source\PSoC5/Telit_UART.c ****         /*******************************************************************************
 320:.\Generated_Source\PSoC5/Telit_UART.c ****         * Function Name: Telit_UART_EnableRxInt
 321:.\Generated_Source\PSoC5/Telit_UART.c ****         ********************************************************************************
 322:.\Generated_Source\PSoC5/Telit_UART.c ****         *
 323:.\Generated_Source\PSoC5/Telit_UART.c ****         * Summary:
 324:.\Generated_Source\PSoC5/Telit_UART.c ****         *  Enable RX interrupt generation
 325:.\Generated_Source\PSoC5/Telit_UART.c ****         *
 326:.\Generated_Source\PSoC5/Telit_UART.c ****         * Parameters:
 327:.\Generated_Source\PSoC5/Telit_UART.c ****         *  None.
 328:.\Generated_Source\PSoC5/Telit_UART.c ****         *
 329:.\Generated_Source\PSoC5/Telit_UART.c ****         * Return:
 330:.\Generated_Source\PSoC5/Telit_UART.c ****         *  None.
 331:.\Generated_Source\PSoC5/Telit_UART.c ****         *
 332:.\Generated_Source\PSoC5/Telit_UART.c ****         * Theory:
 333:.\Generated_Source\PSoC5/Telit_UART.c ****         *  Enable the interrupt output -or- the interrupt component itself
 334:.\Generated_Source\PSoC5/Telit_UART.c ****         *
 335:.\Generated_Source\PSoC5/Telit_UART.c ****         *******************************************************************************/
 336:.\Generated_Source\PSoC5/Telit_UART.c ****         void Telit_UART_EnableRxInt(void) 
 337:.\Generated_Source\PSoC5/Telit_UART.c ****         {
 338:.\Generated_Source\PSoC5/Telit_UART.c ****             CyIntEnable(Telit_UART_RX_VECT_NUM);
 339:.\Generated_Source\PSoC5/Telit_UART.c ****         }
 340:.\Generated_Source\PSoC5/Telit_UART.c **** 
 341:.\Generated_Source\PSoC5/Telit_UART.c **** 
 342:.\Generated_Source\PSoC5/Telit_UART.c ****         /*******************************************************************************
 343:.\Generated_Source\PSoC5/Telit_UART.c ****         * Function Name: Telit_UART_DisableRxInt
 344:.\Generated_Source\PSoC5/Telit_UART.c ****         ********************************************************************************
 345:.\Generated_Source\PSoC5/Telit_UART.c ****         *
 346:.\Generated_Source\PSoC5/Telit_UART.c ****         * Summary:
 347:.\Generated_Source\PSoC5/Telit_UART.c ****         *  Disable RX interrupt generation
 348:.\Generated_Source\PSoC5/Telit_UART.c ****         *
 349:.\Generated_Source\PSoC5/Telit_UART.c ****         * Parameters:
 350:.\Generated_Source\PSoC5/Telit_UART.c ****         *  None.
 351:.\Generated_Source\PSoC5/Telit_UART.c ****         *
 352:.\Generated_Source\PSoC5/Telit_UART.c ****         * Return:
 353:.\Generated_Source\PSoC5/Telit_UART.c ****         *  None.
 354:.\Generated_Source\PSoC5/Telit_UART.c ****         *
 355:.\Generated_Source\PSoC5/Telit_UART.c ****         * Theory:
 356:.\Generated_Source\PSoC5/Telit_UART.c ****         *  Disable the interrupt output -or- the interrupt component itself
 357:.\Generated_Source\PSoC5/Telit_UART.c ****         *
 358:.\Generated_Source\PSoC5/Telit_UART.c ****         *******************************************************************************/
 359:.\Generated_Source\PSoC5/Telit_UART.c ****         void Telit_UART_DisableRxInt(void) 
 360:.\Generated_Source\PSoC5/Telit_UART.c ****         {
 361:.\Generated_Source\PSoC5/Telit_UART.c ****             CyIntDisable(Telit_UART_RX_VECT_NUM);
ARM GAS  C:\Users\BRANKO~1\AppData\Local\Temp\cc5L4W5X.s 			page 13


 362:.\Generated_Source\PSoC5/Telit_UART.c ****         }
 363:.\Generated_Source\PSoC5/Telit_UART.c **** 
 364:.\Generated_Source\PSoC5/Telit_UART.c ****     #endif /* Telit_UART_RX_INTERRUPT_ENABLED */
 365:.\Generated_Source\PSoC5/Telit_UART.c **** 
 366:.\Generated_Source\PSoC5/Telit_UART.c **** 
 367:.\Generated_Source\PSoC5/Telit_UART.c ****     /*******************************************************************************
 368:.\Generated_Source\PSoC5/Telit_UART.c ****     * Function Name: Telit_UART_SetRxInterruptMode
 369:.\Generated_Source\PSoC5/Telit_UART.c ****     ********************************************************************************
 370:.\Generated_Source\PSoC5/Telit_UART.c ****     *
 371:.\Generated_Source\PSoC5/Telit_UART.c ****     * Summary:
 372:.\Generated_Source\PSoC5/Telit_UART.c ****     *  Configure which status bits trigger an interrupt event
 373:.\Generated_Source\PSoC5/Telit_UART.c ****     *
 374:.\Generated_Source\PSoC5/Telit_UART.c ****     * Parameters:
 375:.\Generated_Source\PSoC5/Telit_UART.c ****     *  IntSrc:  An or'd combination of the desired status bit masks (defined in
 376:.\Generated_Source\PSoC5/Telit_UART.c ****     *           the header file)
 377:.\Generated_Source\PSoC5/Telit_UART.c ****     *
 378:.\Generated_Source\PSoC5/Telit_UART.c ****     * Return:
 379:.\Generated_Source\PSoC5/Telit_UART.c ****     *  None.
 380:.\Generated_Source\PSoC5/Telit_UART.c ****     *
 381:.\Generated_Source\PSoC5/Telit_UART.c ****     * Theory:
 382:.\Generated_Source\PSoC5/Telit_UART.c ****     *  Enables the output of specific status bits to the interrupt controller
 383:.\Generated_Source\PSoC5/Telit_UART.c ****     *
 384:.\Generated_Source\PSoC5/Telit_UART.c ****     *******************************************************************************/
 385:.\Generated_Source\PSoC5/Telit_UART.c ****     void Telit_UART_SetRxInterruptMode(uint8 intSrc) 
 386:.\Generated_Source\PSoC5/Telit_UART.c ****     {
 324              		.loc 1 386 0
 325              		.cfi_startproc
 326              		@ args = 0, pretend = 0, frame = 8
 327              		@ frame_needed = 1, uses_anonymous_args = 0
 328              		@ link register save eliminated.
 329 0000 80B4     		push	{r7}
 330              		.cfi_def_cfa_offset 4
 331              		.cfi_offset 7, -4
 332 0002 83B0     		sub	sp, sp, #12
 333              		.cfi_def_cfa_offset 16
 334 0004 00AF     		add	r7, sp, #0
 335              		.cfi_def_cfa_register 7
 336 0006 0346     		mov	r3, r0
 337 0008 FB71     		strb	r3, [r7, #7]
 387:.\Generated_Source\PSoC5/Telit_UART.c ****         Telit_UART_RXSTATUS_MASK_REG  = intSrc;
 338              		.loc 1 387 0
 339 000a 044B     		ldr	r3, .L18
 340 000c FA79     		ldrb	r2, [r7, #7]
 341 000e 1A70     		strb	r2, [r3]
 388:.\Generated_Source\PSoC5/Telit_UART.c ****     }
 342              		.loc 1 388 0
 343 0010 0C37     		adds	r7, r7, #12
 344 0012 BD46     		mov	sp, r7
 345              		@ sp needed
 346 0014 5DF8047B 		ldr	r7, [sp], #4
 347 0018 7047     		bx	lr
 348              	.L19:
 349 001a 00BF     		.align	2
 350              	.L18:
 351 001c 85650040 		.word	1073767813
 352              		.cfi_endproc
 353              	.LFE6:
ARM GAS  C:\Users\BRANKO~1\AppData\Local\Temp\cc5L4W5X.s 			page 14


 354              		.size	Telit_UART_SetRxInterruptMode, .-Telit_UART_SetRxInterruptMode
 355              		.section	.text.Telit_UART_ReadRxData,"ax",%progbits
 356              		.align	2
 357              		.global	Telit_UART_ReadRxData
 358              		.thumb
 359              		.thumb_func
 360              		.type	Telit_UART_ReadRxData, %function
 361              	Telit_UART_ReadRxData:
 362              	.LFB7:
 389:.\Generated_Source\PSoC5/Telit_UART.c **** 
 390:.\Generated_Source\PSoC5/Telit_UART.c **** 
 391:.\Generated_Source\PSoC5/Telit_UART.c ****     /*******************************************************************************
 392:.\Generated_Source\PSoC5/Telit_UART.c ****     * Function Name: Telit_UART_ReadRxData
 393:.\Generated_Source\PSoC5/Telit_UART.c ****     ********************************************************************************
 394:.\Generated_Source\PSoC5/Telit_UART.c ****     *
 395:.\Generated_Source\PSoC5/Telit_UART.c ****     * Summary:
 396:.\Generated_Source\PSoC5/Telit_UART.c ****     *  Returns data in RX Data register without checking status register to
 397:.\Generated_Source\PSoC5/Telit_UART.c ****     *  determine if data is valid
 398:.\Generated_Source\PSoC5/Telit_UART.c ****     *
 399:.\Generated_Source\PSoC5/Telit_UART.c ****     * Parameters:
 400:.\Generated_Source\PSoC5/Telit_UART.c ****     *  None.
 401:.\Generated_Source\PSoC5/Telit_UART.c ****     *
 402:.\Generated_Source\PSoC5/Telit_UART.c ****     * Return:
 403:.\Generated_Source\PSoC5/Telit_UART.c ****     *  Received data from RX register
 404:.\Generated_Source\PSoC5/Telit_UART.c ****     *
 405:.\Generated_Source\PSoC5/Telit_UART.c ****     * Global Variables:
 406:.\Generated_Source\PSoC5/Telit_UART.c ****     *  Telit_UART_rxBuffer - RAM buffer pointer for save received data.
 407:.\Generated_Source\PSoC5/Telit_UART.c ****     *  Telit_UART_rxBufferWrite - cyclic index for write to rxBuffer,
 408:.\Generated_Source\PSoC5/Telit_UART.c ****     *     checked to identify new data.
 409:.\Generated_Source\PSoC5/Telit_UART.c ****     *  Telit_UART_rxBufferRead - cyclic index for read from rxBuffer,
 410:.\Generated_Source\PSoC5/Telit_UART.c ****     *     incremented after each byte has been read from buffer.
 411:.\Generated_Source\PSoC5/Telit_UART.c ****     *  Telit_UART_rxBufferLoopDetect - creared if loop condition was detected
 412:.\Generated_Source\PSoC5/Telit_UART.c ****     *     in RX ISR.
 413:.\Generated_Source\PSoC5/Telit_UART.c ****     *
 414:.\Generated_Source\PSoC5/Telit_UART.c ****     * Reentrant:
 415:.\Generated_Source\PSoC5/Telit_UART.c ****     *  No.
 416:.\Generated_Source\PSoC5/Telit_UART.c ****     *
 417:.\Generated_Source\PSoC5/Telit_UART.c ****     *******************************************************************************/
 418:.\Generated_Source\PSoC5/Telit_UART.c ****     uint8 Telit_UART_ReadRxData(void) 
 419:.\Generated_Source\PSoC5/Telit_UART.c ****     {
 363              		.loc 1 419 0
 364              		.cfi_startproc
 365              		@ args = 0, pretend = 0, frame = 8
 366              		@ frame_needed = 1, uses_anonymous_args = 0
 367              		@ link register save eliminated.
 368 0000 80B4     		push	{r7}
 369              		.cfi_def_cfa_offset 4
 370              		.cfi_offset 7, -4
 371 0002 83B0     		sub	sp, sp, #12
 372              		.cfi_def_cfa_offset 16
 373 0004 00AF     		add	r7, sp, #0
 374              		.cfi_def_cfa_register 7
 420:.\Generated_Source\PSoC5/Telit_UART.c ****         uint8 rxData;
 421:.\Generated_Source\PSoC5/Telit_UART.c **** 
 422:.\Generated_Source\PSoC5/Telit_UART.c ****         #if(Telit_UART_RXBUFFERSIZE > Telit_UART_FIFO_LENGTH)
 423:.\Generated_Source\PSoC5/Telit_UART.c ****             uint8 loc_rxBufferRead;
 424:.\Generated_Source\PSoC5/Telit_UART.c ****             uint8 loc_rxBufferWrite;
ARM GAS  C:\Users\BRANKO~1\AppData\Local\Temp\cc5L4W5X.s 			page 15


 425:.\Generated_Source\PSoC5/Telit_UART.c ****             /* Protect variables that could change on interrupt. */
 426:.\Generated_Source\PSoC5/Telit_UART.c ****             /* Disable Rx interrupt. */
 427:.\Generated_Source\PSoC5/Telit_UART.c ****             #if(Telit_UART_RX_INTERRUPT_ENABLED)
 428:.\Generated_Source\PSoC5/Telit_UART.c ****                 Telit_UART_DisableRxInt();
 429:.\Generated_Source\PSoC5/Telit_UART.c ****             #endif /* Telit_UART_RX_INTERRUPT_ENABLED */
 430:.\Generated_Source\PSoC5/Telit_UART.c ****             loc_rxBufferRead = Telit_UART_rxBufferRead;
 431:.\Generated_Source\PSoC5/Telit_UART.c ****             loc_rxBufferWrite = Telit_UART_rxBufferWrite;
 432:.\Generated_Source\PSoC5/Telit_UART.c **** 
 433:.\Generated_Source\PSoC5/Telit_UART.c ****             if( (Telit_UART_rxBufferLoopDetect != 0u) || (loc_rxBufferRead != loc_rxBufferWrite) )
 434:.\Generated_Source\PSoC5/Telit_UART.c ****             {
 435:.\Generated_Source\PSoC5/Telit_UART.c ****                 rxData = Telit_UART_rxBuffer[loc_rxBufferRead];
 436:.\Generated_Source\PSoC5/Telit_UART.c ****                 loc_rxBufferRead++;
 437:.\Generated_Source\PSoC5/Telit_UART.c **** 
 438:.\Generated_Source\PSoC5/Telit_UART.c ****                 if(loc_rxBufferRead >= Telit_UART_RXBUFFERSIZE)
 439:.\Generated_Source\PSoC5/Telit_UART.c ****                 {
 440:.\Generated_Source\PSoC5/Telit_UART.c ****                     loc_rxBufferRead = 0u;
 441:.\Generated_Source\PSoC5/Telit_UART.c ****                 }
 442:.\Generated_Source\PSoC5/Telit_UART.c ****                 /* Update the real pointer */
 443:.\Generated_Source\PSoC5/Telit_UART.c ****                 Telit_UART_rxBufferRead = loc_rxBufferRead;
 444:.\Generated_Source\PSoC5/Telit_UART.c **** 
 445:.\Generated_Source\PSoC5/Telit_UART.c ****                 if(Telit_UART_rxBufferLoopDetect != 0u )
 446:.\Generated_Source\PSoC5/Telit_UART.c ****                 {
 447:.\Generated_Source\PSoC5/Telit_UART.c ****                     Telit_UART_rxBufferLoopDetect = 0u;
 448:.\Generated_Source\PSoC5/Telit_UART.c ****                     #if( (Telit_UART_RX_INTERRUPT_ENABLED) && (Telit_UART_FLOW_CONTROL != 0u) && \
 449:.\Generated_Source\PSoC5/Telit_UART.c ****                          (Telit_UART_RXBUFFERSIZE > Telit_UART_FIFO_LENGTH) )
 450:.\Generated_Source\PSoC5/Telit_UART.c ****                         /* When Hardware Flow Control selected - return RX mask */
 451:.\Generated_Source\PSoC5/Telit_UART.c ****                         #if( Telit_UART_HD_ENABLED )
 452:.\Generated_Source\PSoC5/Telit_UART.c ****                             if((Telit_UART_CONTROL_REG & Telit_UART_CTRL_HD_SEND) == 0u)
 453:.\Generated_Source\PSoC5/Telit_UART.c ****                             {   /* In Half duplex mode return RX mask only in RX
 454:.\Generated_Source\PSoC5/Telit_UART.c ****                                 *  configuration set, otherwise
 455:.\Generated_Source\PSoC5/Telit_UART.c ****                                 *  mask will be returned in LoadRxConfig() API.
 456:.\Generated_Source\PSoC5/Telit_UART.c ****                                 */
 457:.\Generated_Source\PSoC5/Telit_UART.c ****                                 Telit_UART_RXSTATUS_MASK_REG  |= Telit_UART_RX_STS_FIFO_NOTEMPTY;
 458:.\Generated_Source\PSoC5/Telit_UART.c ****                             }
 459:.\Generated_Source\PSoC5/Telit_UART.c ****                         #else
 460:.\Generated_Source\PSoC5/Telit_UART.c ****                             Telit_UART_RXSTATUS_MASK_REG  |= Telit_UART_RX_STS_FIFO_NOTEMPTY;
 461:.\Generated_Source\PSoC5/Telit_UART.c ****                         #endif /* end Telit_UART_HD_ENABLED */
 462:.\Generated_Source\PSoC5/Telit_UART.c ****                     #endif /* Telit_UART_RX_INTERRUPT_ENABLED and Hardware flow control*/
 463:.\Generated_Source\PSoC5/Telit_UART.c ****                 }
 464:.\Generated_Source\PSoC5/Telit_UART.c ****             }
 465:.\Generated_Source\PSoC5/Telit_UART.c ****             else
 466:.\Generated_Source\PSoC5/Telit_UART.c ****             {   /* Needs to check status for RX_STS_FIFO_NOTEMPTY bit*/
 467:.\Generated_Source\PSoC5/Telit_UART.c ****                 rxData = Telit_UART_RXDATA_REG;
 468:.\Generated_Source\PSoC5/Telit_UART.c ****             }
 469:.\Generated_Source\PSoC5/Telit_UART.c **** 
 470:.\Generated_Source\PSoC5/Telit_UART.c ****             /* Enable Rx interrupt. */
 471:.\Generated_Source\PSoC5/Telit_UART.c ****             #if(Telit_UART_RX_INTERRUPT_ENABLED)
 472:.\Generated_Source\PSoC5/Telit_UART.c ****                 Telit_UART_EnableRxInt();
 473:.\Generated_Source\PSoC5/Telit_UART.c ****             #endif /* End Telit_UART_RX_INTERRUPT_ENABLED */
 474:.\Generated_Source\PSoC5/Telit_UART.c **** 
 475:.\Generated_Source\PSoC5/Telit_UART.c ****         #else /* Telit_UART_RXBUFFERSIZE > Telit_UART_FIFO_LENGTH */
 476:.\Generated_Source\PSoC5/Telit_UART.c **** 
 477:.\Generated_Source\PSoC5/Telit_UART.c ****             /* Needs to check status for RX_STS_FIFO_NOTEMPTY bit*/
 478:.\Generated_Source\PSoC5/Telit_UART.c ****             rxData = Telit_UART_RXDATA_REG;
 375              		.loc 1 478 0
 376 0006 054B     		ldr	r3, .L22
 377 0008 1B78     		ldrb	r3, [r3]
ARM GAS  C:\Users\BRANKO~1\AppData\Local\Temp\cc5L4W5X.s 			page 16


 378 000a FB71     		strb	r3, [r7, #7]
 479:.\Generated_Source\PSoC5/Telit_UART.c **** 
 480:.\Generated_Source\PSoC5/Telit_UART.c ****         #endif /* Telit_UART_RXBUFFERSIZE > Telit_UART_FIFO_LENGTH */
 481:.\Generated_Source\PSoC5/Telit_UART.c **** 
 482:.\Generated_Source\PSoC5/Telit_UART.c ****         return(rxData);
 379              		.loc 1 482 0
 380 000c FB79     		ldrb	r3, [r7, #7]	@ zero_extendqisi2
 483:.\Generated_Source\PSoC5/Telit_UART.c ****     }
 381              		.loc 1 483 0
 382 000e 1846     		mov	r0, r3
 383 0010 0C37     		adds	r7, r7, #12
 384 0012 BD46     		mov	sp, r7
 385              		@ sp needed
 386 0014 5DF8047B 		ldr	r7, [sp], #4
 387 0018 7047     		bx	lr
 388              	.L23:
 389 001a 00BF     		.align	2
 390              	.L22:
 391 001c 46650040 		.word	1073767750
 392              		.cfi_endproc
 393              	.LFE7:
 394              		.size	Telit_UART_ReadRxData, .-Telit_UART_ReadRxData
 395              		.section	.text.Telit_UART_ReadRxStatus,"ax",%progbits
 396              		.align	2
 397              		.global	Telit_UART_ReadRxStatus
 398              		.thumb
 399              		.thumb_func
 400              		.type	Telit_UART_ReadRxStatus, %function
 401              	Telit_UART_ReadRxStatus:
 402              	.LFB8:
 484:.\Generated_Source\PSoC5/Telit_UART.c **** 
 485:.\Generated_Source\PSoC5/Telit_UART.c **** 
 486:.\Generated_Source\PSoC5/Telit_UART.c ****     /*******************************************************************************
 487:.\Generated_Source\PSoC5/Telit_UART.c ****     * Function Name: Telit_UART_ReadRxStatus
 488:.\Generated_Source\PSoC5/Telit_UART.c ****     ********************************************************************************
 489:.\Generated_Source\PSoC5/Telit_UART.c ****     *
 490:.\Generated_Source\PSoC5/Telit_UART.c ****     * Summary:
 491:.\Generated_Source\PSoC5/Telit_UART.c ****     *  Read the current state of the status register
 492:.\Generated_Source\PSoC5/Telit_UART.c ****     *  And detect software buffer overflow.
 493:.\Generated_Source\PSoC5/Telit_UART.c ****     *
 494:.\Generated_Source\PSoC5/Telit_UART.c ****     * Parameters:
 495:.\Generated_Source\PSoC5/Telit_UART.c ****     *  None.
 496:.\Generated_Source\PSoC5/Telit_UART.c ****     *
 497:.\Generated_Source\PSoC5/Telit_UART.c ****     * Return:
 498:.\Generated_Source\PSoC5/Telit_UART.c ****     *  Current state of the status register.
 499:.\Generated_Source\PSoC5/Telit_UART.c ****     *
 500:.\Generated_Source\PSoC5/Telit_UART.c ****     * Global Variables:
 501:.\Generated_Source\PSoC5/Telit_UART.c ****     *  Telit_UART_rxBufferOverflow - used to indicate overload condition.
 502:.\Generated_Source\PSoC5/Telit_UART.c ****     *   It set to one in RX interrupt when there isn?t free space in
 503:.\Generated_Source\PSoC5/Telit_UART.c ****     *   Telit_UART_rxBufferRead to write new data. This condition returned
 504:.\Generated_Source\PSoC5/Telit_UART.c ****     *   and cleared to zero by this API as an
 505:.\Generated_Source\PSoC5/Telit_UART.c ****     *   Telit_UART_RX_STS_SOFT_BUFF_OVER bit along with RX Status register
 506:.\Generated_Source\PSoC5/Telit_UART.c ****     *   bits.
 507:.\Generated_Source\PSoC5/Telit_UART.c ****     *
 508:.\Generated_Source\PSoC5/Telit_UART.c ****     *******************************************************************************/
 509:.\Generated_Source\PSoC5/Telit_UART.c ****     uint8 Telit_UART_ReadRxStatus(void) 
 510:.\Generated_Source\PSoC5/Telit_UART.c ****     {
ARM GAS  C:\Users\BRANKO~1\AppData\Local\Temp\cc5L4W5X.s 			page 17


 403              		.loc 1 510 0
 404              		.cfi_startproc
 405              		@ args = 0, pretend = 0, frame = 8
 406              		@ frame_needed = 1, uses_anonymous_args = 0
 407              		@ link register save eliminated.
 408 0000 80B4     		push	{r7}
 409              		.cfi_def_cfa_offset 4
 410              		.cfi_offset 7, -4
 411 0002 83B0     		sub	sp, sp, #12
 412              		.cfi_def_cfa_offset 16
 413 0004 00AF     		add	r7, sp, #0
 414              		.cfi_def_cfa_register 7
 511:.\Generated_Source\PSoC5/Telit_UART.c ****         uint8 status;
 512:.\Generated_Source\PSoC5/Telit_UART.c **** 
 513:.\Generated_Source\PSoC5/Telit_UART.c ****         status = Telit_UART_RXSTATUS_REG & Telit_UART_RX_HW_MASK;
 415              		.loc 1 513 0
 416 0006 064B     		ldr	r3, .L26
 417 0008 1B78     		ldrb	r3, [r3]
 418 000a DBB2     		uxtb	r3, r3
 419 000c 03F07F03 		and	r3, r3, #127
 420 0010 FB71     		strb	r3, [r7, #7]
 514:.\Generated_Source\PSoC5/Telit_UART.c **** 
 515:.\Generated_Source\PSoC5/Telit_UART.c ****         #if(Telit_UART_RXBUFFERSIZE > Telit_UART_FIFO_LENGTH)
 516:.\Generated_Source\PSoC5/Telit_UART.c ****             if( Telit_UART_rxBufferOverflow != 0u )
 517:.\Generated_Source\PSoC5/Telit_UART.c ****             {
 518:.\Generated_Source\PSoC5/Telit_UART.c ****                 status |= Telit_UART_RX_STS_SOFT_BUFF_OVER;
 519:.\Generated_Source\PSoC5/Telit_UART.c ****                 Telit_UART_rxBufferOverflow = 0u;
 520:.\Generated_Source\PSoC5/Telit_UART.c ****             }
 521:.\Generated_Source\PSoC5/Telit_UART.c ****         #endif /* Telit_UART_RXBUFFERSIZE */
 522:.\Generated_Source\PSoC5/Telit_UART.c **** 
 523:.\Generated_Source\PSoC5/Telit_UART.c ****         return(status);
 421              		.loc 1 523 0
 422 0012 FB79     		ldrb	r3, [r7, #7]	@ zero_extendqisi2
 524:.\Generated_Source\PSoC5/Telit_UART.c ****     }
 423              		.loc 1 524 0
 424 0014 1846     		mov	r0, r3
 425 0016 0C37     		adds	r7, r7, #12
 426 0018 BD46     		mov	sp, r7
 427              		@ sp needed
 428 001a 5DF8047B 		ldr	r7, [sp], #4
 429 001e 7047     		bx	lr
 430              	.L27:
 431              		.align	2
 432              	.L26:
 433 0020 65650040 		.word	1073767781
 434              		.cfi_endproc
 435              	.LFE8:
 436              		.size	Telit_UART_ReadRxStatus, .-Telit_UART_ReadRxStatus
 437              		.section	.text.Telit_UART_GetChar,"ax",%progbits
 438              		.align	2
 439              		.global	Telit_UART_GetChar
 440              		.thumb
 441              		.thumb_func
 442              		.type	Telit_UART_GetChar, %function
 443              	Telit_UART_GetChar:
 444              	.LFB9:
 525:.\Generated_Source\PSoC5/Telit_UART.c **** 
ARM GAS  C:\Users\BRANKO~1\AppData\Local\Temp\cc5L4W5X.s 			page 18


 526:.\Generated_Source\PSoC5/Telit_UART.c **** 
 527:.\Generated_Source\PSoC5/Telit_UART.c ****     /*******************************************************************************
 528:.\Generated_Source\PSoC5/Telit_UART.c ****     * Function Name: Telit_UART_GetChar
 529:.\Generated_Source\PSoC5/Telit_UART.c ****     ********************************************************************************
 530:.\Generated_Source\PSoC5/Telit_UART.c ****     *
 531:.\Generated_Source\PSoC5/Telit_UART.c ****     * Summary:
 532:.\Generated_Source\PSoC5/Telit_UART.c ****     *  Reads UART RX buffer immediately, if data is not available or an error
 533:.\Generated_Source\PSoC5/Telit_UART.c ****     *  condition exists, zero is returned; otherwise, character is read and
 534:.\Generated_Source\PSoC5/Telit_UART.c ****     *  returned.
 535:.\Generated_Source\PSoC5/Telit_UART.c ****     *
 536:.\Generated_Source\PSoC5/Telit_UART.c ****     * Parameters:
 537:.\Generated_Source\PSoC5/Telit_UART.c ****     *  None.
 538:.\Generated_Source\PSoC5/Telit_UART.c ****     *
 539:.\Generated_Source\PSoC5/Telit_UART.c ****     * Return:
 540:.\Generated_Source\PSoC5/Telit_UART.c ****     *  Character read from UART RX buffer. ASCII characters from 1 to 255 are valid.
 541:.\Generated_Source\PSoC5/Telit_UART.c ****     *  A returned zero signifies an error condition or no data available.
 542:.\Generated_Source\PSoC5/Telit_UART.c ****     *
 543:.\Generated_Source\PSoC5/Telit_UART.c ****     * Global Variables:
 544:.\Generated_Source\PSoC5/Telit_UART.c ****     *  Telit_UART_rxBuffer - RAM buffer pointer for save received data.
 545:.\Generated_Source\PSoC5/Telit_UART.c ****     *  Telit_UART_rxBufferWrite - cyclic index for write to rxBuffer,
 546:.\Generated_Source\PSoC5/Telit_UART.c ****     *     checked to identify new data.
 547:.\Generated_Source\PSoC5/Telit_UART.c ****     *  Telit_UART_rxBufferRead - cyclic index for read from rxBuffer,
 548:.\Generated_Source\PSoC5/Telit_UART.c ****     *     incremented after each byte has been read from buffer.
 549:.\Generated_Source\PSoC5/Telit_UART.c ****     *  Telit_UART_rxBufferLoopDetect - creared if loop condition was detected
 550:.\Generated_Source\PSoC5/Telit_UART.c ****     *     in RX ISR.
 551:.\Generated_Source\PSoC5/Telit_UART.c ****     *
 552:.\Generated_Source\PSoC5/Telit_UART.c ****     * Reentrant:
 553:.\Generated_Source\PSoC5/Telit_UART.c ****     *  No.
 554:.\Generated_Source\PSoC5/Telit_UART.c ****     *
 555:.\Generated_Source\PSoC5/Telit_UART.c ****     *******************************************************************************/
 556:.\Generated_Source\PSoC5/Telit_UART.c ****     uint8 Telit_UART_GetChar(void) 
 557:.\Generated_Source\PSoC5/Telit_UART.c ****     {
 445              		.loc 1 557 0
 446              		.cfi_startproc
 447              		@ args = 0, pretend = 0, frame = 8
 448              		@ frame_needed = 1, uses_anonymous_args = 0
 449              		@ link register save eliminated.
 450 0000 80B4     		push	{r7}
 451              		.cfi_def_cfa_offset 4
 452              		.cfi_offset 7, -4
 453 0002 83B0     		sub	sp, sp, #12
 454              		.cfi_def_cfa_offset 16
 455 0004 00AF     		add	r7, sp, #0
 456              		.cfi_def_cfa_register 7
 558:.\Generated_Source\PSoC5/Telit_UART.c ****         uint8 rxData = 0u;
 457              		.loc 1 558 0
 458 0006 0023     		movs	r3, #0
 459 0008 FB71     		strb	r3, [r7, #7]
 559:.\Generated_Source\PSoC5/Telit_UART.c ****         uint8 rxStatus;
 560:.\Generated_Source\PSoC5/Telit_UART.c **** 
 561:.\Generated_Source\PSoC5/Telit_UART.c ****         #if(Telit_UART_RXBUFFERSIZE > Telit_UART_FIFO_LENGTH)
 562:.\Generated_Source\PSoC5/Telit_UART.c ****             uint8 loc_rxBufferRead;
 563:.\Generated_Source\PSoC5/Telit_UART.c ****             uint8 loc_rxBufferWrite;
 564:.\Generated_Source\PSoC5/Telit_UART.c ****             /* Protect variables that could change on interrupt. */
 565:.\Generated_Source\PSoC5/Telit_UART.c ****             /* Disable Rx interrupt. */
 566:.\Generated_Source\PSoC5/Telit_UART.c ****             #if(Telit_UART_RX_INTERRUPT_ENABLED)
 567:.\Generated_Source\PSoC5/Telit_UART.c ****                 Telit_UART_DisableRxInt();
ARM GAS  C:\Users\BRANKO~1\AppData\Local\Temp\cc5L4W5X.s 			page 19


 568:.\Generated_Source\PSoC5/Telit_UART.c ****             #endif /* Telit_UART_RX_INTERRUPT_ENABLED */
 569:.\Generated_Source\PSoC5/Telit_UART.c ****             loc_rxBufferRead = Telit_UART_rxBufferRead;
 570:.\Generated_Source\PSoC5/Telit_UART.c ****             loc_rxBufferWrite = Telit_UART_rxBufferWrite;
 571:.\Generated_Source\PSoC5/Telit_UART.c **** 
 572:.\Generated_Source\PSoC5/Telit_UART.c ****             if( (Telit_UART_rxBufferLoopDetect != 0u) || (loc_rxBufferRead != loc_rxBufferWrite) )
 573:.\Generated_Source\PSoC5/Telit_UART.c ****             {
 574:.\Generated_Source\PSoC5/Telit_UART.c ****                 rxData = Telit_UART_rxBuffer[loc_rxBufferRead];
 575:.\Generated_Source\PSoC5/Telit_UART.c ****                 loc_rxBufferRead++;
 576:.\Generated_Source\PSoC5/Telit_UART.c ****                 if(loc_rxBufferRead >= Telit_UART_RXBUFFERSIZE)
 577:.\Generated_Source\PSoC5/Telit_UART.c ****                 {
 578:.\Generated_Source\PSoC5/Telit_UART.c ****                     loc_rxBufferRead = 0u;
 579:.\Generated_Source\PSoC5/Telit_UART.c ****                 }
 580:.\Generated_Source\PSoC5/Telit_UART.c ****                 /* Update the real pointer */
 581:.\Generated_Source\PSoC5/Telit_UART.c ****                 Telit_UART_rxBufferRead = loc_rxBufferRead;
 582:.\Generated_Source\PSoC5/Telit_UART.c **** 
 583:.\Generated_Source\PSoC5/Telit_UART.c ****                 if(Telit_UART_rxBufferLoopDetect > 0u )
 584:.\Generated_Source\PSoC5/Telit_UART.c ****                 {
 585:.\Generated_Source\PSoC5/Telit_UART.c ****                     Telit_UART_rxBufferLoopDetect = 0u;
 586:.\Generated_Source\PSoC5/Telit_UART.c ****                     #if( (Telit_UART_RX_INTERRUPT_ENABLED) && (Telit_UART_FLOW_CONTROL != 0u) )
 587:.\Generated_Source\PSoC5/Telit_UART.c ****                         /* When Hardware Flow Control selected - return RX mask */
 588:.\Generated_Source\PSoC5/Telit_UART.c ****                         #if( Telit_UART_HD_ENABLED )
 589:.\Generated_Source\PSoC5/Telit_UART.c ****                             if((Telit_UART_CONTROL_REG & Telit_UART_CTRL_HD_SEND) == 0u)
 590:.\Generated_Source\PSoC5/Telit_UART.c ****                             {   /* In Half duplex mode return RX mask only if
 591:.\Generated_Source\PSoC5/Telit_UART.c ****                                 *  RX configuration set, otherwise
 592:.\Generated_Source\PSoC5/Telit_UART.c ****                                 *  mask will be returned in LoadRxConfig() API.
 593:.\Generated_Source\PSoC5/Telit_UART.c ****                                 */
 594:.\Generated_Source\PSoC5/Telit_UART.c ****                                 Telit_UART_RXSTATUS_MASK_REG  |= Telit_UART_RX_STS_FIFO_NOTEMPTY;
 595:.\Generated_Source\PSoC5/Telit_UART.c ****                             }
 596:.\Generated_Source\PSoC5/Telit_UART.c ****                         #else
 597:.\Generated_Source\PSoC5/Telit_UART.c ****                             Telit_UART_RXSTATUS_MASK_REG  |= Telit_UART_RX_STS_FIFO_NOTEMPTY;
 598:.\Generated_Source\PSoC5/Telit_UART.c ****                         #endif /* end Telit_UART_HD_ENABLED */
 599:.\Generated_Source\PSoC5/Telit_UART.c ****                     #endif /* Telit_UART_RX_INTERRUPT_ENABLED and Hardware flow control*/
 600:.\Generated_Source\PSoC5/Telit_UART.c ****                 }
 601:.\Generated_Source\PSoC5/Telit_UART.c **** 
 602:.\Generated_Source\PSoC5/Telit_UART.c ****             }
 603:.\Generated_Source\PSoC5/Telit_UART.c ****             else
 604:.\Generated_Source\PSoC5/Telit_UART.c ****             {   rxStatus = Telit_UART_RXSTATUS_REG;
 605:.\Generated_Source\PSoC5/Telit_UART.c ****                 if((rxStatus & Telit_UART_RX_STS_FIFO_NOTEMPTY) != 0u)
 606:.\Generated_Source\PSoC5/Telit_UART.c ****                 {   /* Read received data from FIFO*/
 607:.\Generated_Source\PSoC5/Telit_UART.c ****                     rxData = Telit_UART_RXDATA_REG;
 608:.\Generated_Source\PSoC5/Telit_UART.c ****                     /*Check status on error*/
 609:.\Generated_Source\PSoC5/Telit_UART.c ****                     if((rxStatus & (Telit_UART_RX_STS_BREAK | Telit_UART_RX_STS_PAR_ERROR |
 610:.\Generated_Source\PSoC5/Telit_UART.c ****                                    Telit_UART_RX_STS_STOP_ERROR | Telit_UART_RX_STS_OVERRUN)) != 0u
 611:.\Generated_Source\PSoC5/Telit_UART.c ****                     {
 612:.\Generated_Source\PSoC5/Telit_UART.c ****                         rxData = 0u;
 613:.\Generated_Source\PSoC5/Telit_UART.c ****                     }
 614:.\Generated_Source\PSoC5/Telit_UART.c ****                 }
 615:.\Generated_Source\PSoC5/Telit_UART.c ****             }
 616:.\Generated_Source\PSoC5/Telit_UART.c **** 
 617:.\Generated_Source\PSoC5/Telit_UART.c ****             /* Enable Rx interrupt. */
 618:.\Generated_Source\PSoC5/Telit_UART.c ****             #if(Telit_UART_RX_INTERRUPT_ENABLED)
 619:.\Generated_Source\PSoC5/Telit_UART.c ****                 Telit_UART_EnableRxInt();
 620:.\Generated_Source\PSoC5/Telit_UART.c ****             #endif /* Telit_UART_RX_INTERRUPT_ENABLED */
 621:.\Generated_Source\PSoC5/Telit_UART.c **** 
 622:.\Generated_Source\PSoC5/Telit_UART.c ****         #else /* Telit_UART_RXBUFFERSIZE > Telit_UART_FIFO_LENGTH */
 623:.\Generated_Source\PSoC5/Telit_UART.c **** 
 624:.\Generated_Source\PSoC5/Telit_UART.c ****             rxStatus =Telit_UART_RXSTATUS_REG;
ARM GAS  C:\Users\BRANKO~1\AppData\Local\Temp\cc5L4W5X.s 			page 20


 460              		.loc 1 624 0
 461 000a 0C4B     		ldr	r3, .L31
 462 000c 1B78     		ldrb	r3, [r3]
 463 000e BB71     		strb	r3, [r7, #6]
 625:.\Generated_Source\PSoC5/Telit_UART.c ****             if((rxStatus & Telit_UART_RX_STS_FIFO_NOTEMPTY) != 0u)
 464              		.loc 1 625 0
 465 0010 BB79     		ldrb	r3, [r7, #6]	@ zero_extendqisi2
 466 0012 03F02003 		and	r3, r3, #32
 467 0016 002B     		cmp	r3, #0
 468 0018 09D0     		beq	.L29
 626:.\Generated_Source\PSoC5/Telit_UART.c ****             {   /* Read received data from FIFO*/
 627:.\Generated_Source\PSoC5/Telit_UART.c ****                 rxData = Telit_UART_RXDATA_REG;
 469              		.loc 1 627 0
 470 001a 094B     		ldr	r3, .L31+4
 471 001c 1B78     		ldrb	r3, [r3]
 472 001e FB71     		strb	r3, [r7, #7]
 628:.\Generated_Source\PSoC5/Telit_UART.c ****                 /*Check status on error*/
 629:.\Generated_Source\PSoC5/Telit_UART.c ****                 if((rxStatus & (Telit_UART_RX_STS_BREAK | Telit_UART_RX_STS_PAR_ERROR |
 630:.\Generated_Source\PSoC5/Telit_UART.c ****                                Telit_UART_RX_STS_STOP_ERROR | Telit_UART_RX_STS_OVERRUN)) != 0u)
 473              		.loc 1 630 0
 474 0020 BB79     		ldrb	r3, [r7, #6]	@ zero_extendqisi2
 475 0022 03F01E03 		and	r3, r3, #30
 629:.\Generated_Source\PSoC5/Telit_UART.c ****                 if((rxStatus & (Telit_UART_RX_STS_BREAK | Telit_UART_RX_STS_PAR_ERROR |
 476              		.loc 1 629 0
 477 0026 002B     		cmp	r3, #0
 478 0028 01D0     		beq	.L29
 631:.\Generated_Source\PSoC5/Telit_UART.c ****                 {
 632:.\Generated_Source\PSoC5/Telit_UART.c ****                     rxData = 0u;
 479              		.loc 1 632 0
 480 002a 0023     		movs	r3, #0
 481 002c FB71     		strb	r3, [r7, #7]
 482              	.L29:
 633:.\Generated_Source\PSoC5/Telit_UART.c ****                 }
 634:.\Generated_Source\PSoC5/Telit_UART.c ****             }
 635:.\Generated_Source\PSoC5/Telit_UART.c ****         #endif /* Telit_UART_RXBUFFERSIZE > Telit_UART_FIFO_LENGTH */
 636:.\Generated_Source\PSoC5/Telit_UART.c **** 
 637:.\Generated_Source\PSoC5/Telit_UART.c ****         return(rxData);
 483              		.loc 1 637 0
 484 002e FB79     		ldrb	r3, [r7, #7]	@ zero_extendqisi2
 638:.\Generated_Source\PSoC5/Telit_UART.c ****     }
 485              		.loc 1 638 0
 486 0030 1846     		mov	r0, r3
 487 0032 0C37     		adds	r7, r7, #12
 488 0034 BD46     		mov	sp, r7
 489              		@ sp needed
 490 0036 5DF8047B 		ldr	r7, [sp], #4
 491 003a 7047     		bx	lr
 492              	.L32:
 493              		.align	2
 494              	.L31:
 495 003c 65650040 		.word	1073767781
 496 0040 46650040 		.word	1073767750
 497              		.cfi_endproc
 498              	.LFE9:
 499              		.size	Telit_UART_GetChar, .-Telit_UART_GetChar
 500              		.section	.text.Telit_UART_GetByte,"ax",%progbits
 501              		.align	2
ARM GAS  C:\Users\BRANKO~1\AppData\Local\Temp\cc5L4W5X.s 			page 21


 502              		.global	Telit_UART_GetByte
 503              		.thumb
 504              		.thumb_func
 505              		.type	Telit_UART_GetByte, %function
 506              	Telit_UART_GetByte:
 507              	.LFB10:
 639:.\Generated_Source\PSoC5/Telit_UART.c **** 
 640:.\Generated_Source\PSoC5/Telit_UART.c **** 
 641:.\Generated_Source\PSoC5/Telit_UART.c ****     /*******************************************************************************
 642:.\Generated_Source\PSoC5/Telit_UART.c ****     * Function Name: Telit_UART_GetByte
 643:.\Generated_Source\PSoC5/Telit_UART.c ****     ********************************************************************************
 644:.\Generated_Source\PSoC5/Telit_UART.c ****     *
 645:.\Generated_Source\PSoC5/Telit_UART.c ****     * Summary:
 646:.\Generated_Source\PSoC5/Telit_UART.c ****     *  Grab the next available byte of data from the recieve FIFO
 647:.\Generated_Source\PSoC5/Telit_UART.c ****     *
 648:.\Generated_Source\PSoC5/Telit_UART.c ****     * Parameters:
 649:.\Generated_Source\PSoC5/Telit_UART.c ****     *  None.
 650:.\Generated_Source\PSoC5/Telit_UART.c ****     *
 651:.\Generated_Source\PSoC5/Telit_UART.c ****     * Return:
 652:.\Generated_Source\PSoC5/Telit_UART.c ****     *  MSB contains Status Register and LSB contains UART RX data
 653:.\Generated_Source\PSoC5/Telit_UART.c ****     *
 654:.\Generated_Source\PSoC5/Telit_UART.c ****     * Reentrant:
 655:.\Generated_Source\PSoC5/Telit_UART.c ****     *  No.
 656:.\Generated_Source\PSoC5/Telit_UART.c ****     *
 657:.\Generated_Source\PSoC5/Telit_UART.c ****     *******************************************************************************/
 658:.\Generated_Source\PSoC5/Telit_UART.c ****     uint16 Telit_UART_GetByte(void) 
 659:.\Generated_Source\PSoC5/Telit_UART.c ****     {
 508              		.loc 1 659 0
 509              		.cfi_startproc
 510              		@ args = 0, pretend = 0, frame = 0
 511              		@ frame_needed = 1, uses_anonymous_args = 0
 512 0000 98B5     		push	{r3, r4, r7, lr}
 513              		.cfi_def_cfa_offset 16
 514              		.cfi_offset 3, -16
 515              		.cfi_offset 4, -12
 516              		.cfi_offset 7, -8
 517              		.cfi_offset 14, -4
 518 0002 00AF     		add	r7, sp, #0
 519              		.cfi_def_cfa_register 7
 660:.\Generated_Source\PSoC5/Telit_UART.c ****         return ( ((uint16)Telit_UART_ReadRxStatus() << 8u) | Telit_UART_ReadRxData() );
 520              		.loc 1 660 0
 521 0004 FFF7FEFF 		bl	Telit_UART_ReadRxStatus
 522 0008 0346     		mov	r3, r0
 523 000a 1B02     		lsls	r3, r3, #8
 524 000c 9CB2     		uxth	r4, r3
 525 000e FFF7FEFF 		bl	Telit_UART_ReadRxData
 526 0012 0346     		mov	r3, r0
 527 0014 2246     		mov	r2, r4	@ movhi
 528 0016 1343     		orrs	r3, r3, r2
 529 0018 9BB2     		uxth	r3, r3
 530 001a 9BB2     		uxth	r3, r3
 661:.\Generated_Source\PSoC5/Telit_UART.c ****     }
 531              		.loc 1 661 0
 532 001c 1846     		mov	r0, r3
 533 001e 98BD     		pop	{r3, r4, r7, pc}
 534              		.cfi_endproc
 535              	.LFE10:
ARM GAS  C:\Users\BRANKO~1\AppData\Local\Temp\cc5L4W5X.s 			page 22


 536              		.size	Telit_UART_GetByte, .-Telit_UART_GetByte
 537              		.section	.text.Telit_UART_GetRxBufferSize,"ax",%progbits
 538              		.align	2
 539              		.global	Telit_UART_GetRxBufferSize
 540              		.thumb
 541              		.thumb_func
 542              		.type	Telit_UART_GetRxBufferSize, %function
 543              	Telit_UART_GetRxBufferSize:
 544              	.LFB11:
 662:.\Generated_Source\PSoC5/Telit_UART.c **** 
 663:.\Generated_Source\PSoC5/Telit_UART.c **** 
 664:.\Generated_Source\PSoC5/Telit_UART.c ****     /*******************************************************************************
 665:.\Generated_Source\PSoC5/Telit_UART.c ****     * Function Name: Telit_UART_GetRxBufferSize
 666:.\Generated_Source\PSoC5/Telit_UART.c ****     ********************************************************************************
 667:.\Generated_Source\PSoC5/Telit_UART.c ****     *
 668:.\Generated_Source\PSoC5/Telit_UART.c ****     * Summary:
 669:.\Generated_Source\PSoC5/Telit_UART.c ****     *  Determine the amount of bytes left in the RX buffer and return the count in
 670:.\Generated_Source\PSoC5/Telit_UART.c ****     *  bytes
 671:.\Generated_Source\PSoC5/Telit_UART.c ****     *
 672:.\Generated_Source\PSoC5/Telit_UART.c ****     * Parameters:
 673:.\Generated_Source\PSoC5/Telit_UART.c ****     *  None.
 674:.\Generated_Source\PSoC5/Telit_UART.c ****     *
 675:.\Generated_Source\PSoC5/Telit_UART.c ****     * Return:
 676:.\Generated_Source\PSoC5/Telit_UART.c ****     *  uint8: Integer count of the number of bytes left
 677:.\Generated_Source\PSoC5/Telit_UART.c ****     *  in the RX buffer
 678:.\Generated_Source\PSoC5/Telit_UART.c ****     *
 679:.\Generated_Source\PSoC5/Telit_UART.c ****     * Global Variables:
 680:.\Generated_Source\PSoC5/Telit_UART.c ****     *  Telit_UART_rxBufferWrite - used to calculate left bytes.
 681:.\Generated_Source\PSoC5/Telit_UART.c ****     *  Telit_UART_rxBufferRead - used to calculate left bytes.
 682:.\Generated_Source\PSoC5/Telit_UART.c ****     *  Telit_UART_rxBufferLoopDetect - checked to decide left bytes amount.
 683:.\Generated_Source\PSoC5/Telit_UART.c ****     *
 684:.\Generated_Source\PSoC5/Telit_UART.c ****     * Reentrant:
 685:.\Generated_Source\PSoC5/Telit_UART.c ****     *  No.
 686:.\Generated_Source\PSoC5/Telit_UART.c ****     *
 687:.\Generated_Source\PSoC5/Telit_UART.c ****     * Theory:
 688:.\Generated_Source\PSoC5/Telit_UART.c ****     *  Allows the user to find out how full the RX Buffer is.
 689:.\Generated_Source\PSoC5/Telit_UART.c ****     *
 690:.\Generated_Source\PSoC5/Telit_UART.c ****     *******************************************************************************/
 691:.\Generated_Source\PSoC5/Telit_UART.c ****     uint8 Telit_UART_GetRxBufferSize(void)
 692:.\Generated_Source\PSoC5/Telit_UART.c ****                                                             
 693:.\Generated_Source\PSoC5/Telit_UART.c ****     {
 545              		.loc 1 693 0
 546              		.cfi_startproc
 547              		@ args = 0, pretend = 0, frame = 8
 548              		@ frame_needed = 1, uses_anonymous_args = 0
 549              		@ link register save eliminated.
 550 0000 80B4     		push	{r7}
 551              		.cfi_def_cfa_offset 4
 552              		.cfi_offset 7, -4
 553 0002 83B0     		sub	sp, sp, #12
 554              		.cfi_def_cfa_offset 16
 555 0004 00AF     		add	r7, sp, #0
 556              		.cfi_def_cfa_register 7
 694:.\Generated_Source\PSoC5/Telit_UART.c ****         uint8 size;
 695:.\Generated_Source\PSoC5/Telit_UART.c **** 
 696:.\Generated_Source\PSoC5/Telit_UART.c ****         #if(Telit_UART_RXBUFFERSIZE > Telit_UART_FIFO_LENGTH)
 697:.\Generated_Source\PSoC5/Telit_UART.c **** 
ARM GAS  C:\Users\BRANKO~1\AppData\Local\Temp\cc5L4W5X.s 			page 23


 698:.\Generated_Source\PSoC5/Telit_UART.c ****             /* Disable Rx interrupt. */
 699:.\Generated_Source\PSoC5/Telit_UART.c ****             /* Protect variables that could change on interrupt. */
 700:.\Generated_Source\PSoC5/Telit_UART.c ****             #if(Telit_UART_RX_INTERRUPT_ENABLED)
 701:.\Generated_Source\PSoC5/Telit_UART.c ****                 Telit_UART_DisableRxInt();
 702:.\Generated_Source\PSoC5/Telit_UART.c ****             #endif /* Telit_UART_RX_INTERRUPT_ENABLED */
 703:.\Generated_Source\PSoC5/Telit_UART.c **** 
 704:.\Generated_Source\PSoC5/Telit_UART.c ****             if(Telit_UART_rxBufferRead == Telit_UART_rxBufferWrite)
 705:.\Generated_Source\PSoC5/Telit_UART.c ****             {
 706:.\Generated_Source\PSoC5/Telit_UART.c ****                 if(Telit_UART_rxBufferLoopDetect > 0u)
 707:.\Generated_Source\PSoC5/Telit_UART.c ****                 {
 708:.\Generated_Source\PSoC5/Telit_UART.c ****                     size = Telit_UART_RXBUFFERSIZE;
 709:.\Generated_Source\PSoC5/Telit_UART.c ****                 }
 710:.\Generated_Source\PSoC5/Telit_UART.c ****                 else
 711:.\Generated_Source\PSoC5/Telit_UART.c ****                 {
 712:.\Generated_Source\PSoC5/Telit_UART.c ****                     size = 0u;
 713:.\Generated_Source\PSoC5/Telit_UART.c ****                 }
 714:.\Generated_Source\PSoC5/Telit_UART.c ****             }
 715:.\Generated_Source\PSoC5/Telit_UART.c ****             else if(Telit_UART_rxBufferRead < Telit_UART_rxBufferWrite)
 716:.\Generated_Source\PSoC5/Telit_UART.c ****             {
 717:.\Generated_Source\PSoC5/Telit_UART.c ****                 size = (Telit_UART_rxBufferWrite - Telit_UART_rxBufferRead);
 718:.\Generated_Source\PSoC5/Telit_UART.c ****             }
 719:.\Generated_Source\PSoC5/Telit_UART.c ****             else
 720:.\Generated_Source\PSoC5/Telit_UART.c ****             {
 721:.\Generated_Source\PSoC5/Telit_UART.c ****                 size = (Telit_UART_RXBUFFERSIZE - Telit_UART_rxBufferRead) + Telit_UART_rxBufferWri
 722:.\Generated_Source\PSoC5/Telit_UART.c ****             }
 723:.\Generated_Source\PSoC5/Telit_UART.c **** 
 724:.\Generated_Source\PSoC5/Telit_UART.c ****             /* Enable Rx interrupt. */
 725:.\Generated_Source\PSoC5/Telit_UART.c ****             #if(Telit_UART_RX_INTERRUPT_ENABLED)
 726:.\Generated_Source\PSoC5/Telit_UART.c ****                 Telit_UART_EnableRxInt();
 727:.\Generated_Source\PSoC5/Telit_UART.c ****             #endif /* End Telit_UART_RX_INTERRUPT_ENABLED */
 728:.\Generated_Source\PSoC5/Telit_UART.c **** 
 729:.\Generated_Source\PSoC5/Telit_UART.c ****         #else /* Telit_UART_RXBUFFERSIZE > Telit_UART_FIFO_LENGTH */
 730:.\Generated_Source\PSoC5/Telit_UART.c **** 
 731:.\Generated_Source\PSoC5/Telit_UART.c ****             /* We can only know if there is data in the fifo. */
 732:.\Generated_Source\PSoC5/Telit_UART.c ****             size = ((Telit_UART_RXSTATUS_REG & Telit_UART_RX_STS_FIFO_NOTEMPTY) != 0u) ? 1u : 0u;
 557              		.loc 1 732 0
 558 0006 094B     		ldr	r3, .L39
 559 0008 1B78     		ldrb	r3, [r3]
 560 000a DBB2     		uxtb	r3, r3
 561 000c 03F02003 		and	r3, r3, #32
 562 0010 002B     		cmp	r3, #0
 563 0012 01D0     		beq	.L36
 564              		.loc 1 732 0 is_stmt 0 discriminator 1
 565 0014 0123     		movs	r3, #1
 566 0016 00E0     		b	.L37
 567              	.L36:
 568              		.loc 1 732 0 discriminator 2
 569 0018 0023     		movs	r3, #0
 570              	.L37:
 571              		.loc 1 732 0 discriminator 3
 572 001a FB71     		strb	r3, [r7, #7]
 733:.\Generated_Source\PSoC5/Telit_UART.c **** 
 734:.\Generated_Source\PSoC5/Telit_UART.c ****         #endif /* End Telit_UART_RXBUFFERSIZE > Telit_UART_FIFO_LENGTH */
 735:.\Generated_Source\PSoC5/Telit_UART.c **** 
 736:.\Generated_Source\PSoC5/Telit_UART.c ****         return(size);
 573              		.loc 1 736 0 is_stmt 1 discriminator 3
 574 001c FB79     		ldrb	r3, [r7, #7]	@ zero_extendqisi2
ARM GAS  C:\Users\BRANKO~1\AppData\Local\Temp\cc5L4W5X.s 			page 24


 737:.\Generated_Source\PSoC5/Telit_UART.c ****     }
 575              		.loc 1 737 0 discriminator 3
 576 001e 1846     		mov	r0, r3
 577 0020 0C37     		adds	r7, r7, #12
 578 0022 BD46     		mov	sp, r7
 579              		@ sp needed
 580 0024 5DF8047B 		ldr	r7, [sp], #4
 581 0028 7047     		bx	lr
 582              	.L40:
 583 002a 00BF     		.align	2
 584              	.L39:
 585 002c 65650040 		.word	1073767781
 586              		.cfi_endproc
 587              	.LFE11:
 588              		.size	Telit_UART_GetRxBufferSize, .-Telit_UART_GetRxBufferSize
 589              		.section	.text.Telit_UART_ClearRxBuffer,"ax",%progbits
 590              		.align	2
 591              		.global	Telit_UART_ClearRxBuffer
 592              		.thumb
 593              		.thumb_func
 594              		.type	Telit_UART_ClearRxBuffer, %function
 595              	Telit_UART_ClearRxBuffer:
 596              	.LFB12:
 738:.\Generated_Source\PSoC5/Telit_UART.c **** 
 739:.\Generated_Source\PSoC5/Telit_UART.c **** 
 740:.\Generated_Source\PSoC5/Telit_UART.c ****     /*******************************************************************************
 741:.\Generated_Source\PSoC5/Telit_UART.c ****     * Function Name: Telit_UART_ClearRxBuffer
 742:.\Generated_Source\PSoC5/Telit_UART.c ****     ********************************************************************************
 743:.\Generated_Source\PSoC5/Telit_UART.c ****     *
 744:.\Generated_Source\PSoC5/Telit_UART.c ****     * Summary:
 745:.\Generated_Source\PSoC5/Telit_UART.c ****     *  Clears the RX RAM buffer by setting the read and write pointers both to zero.
 746:.\Generated_Source\PSoC5/Telit_UART.c ****     *  Clears hardware RX FIFO.
 747:.\Generated_Source\PSoC5/Telit_UART.c ****     *
 748:.\Generated_Source\PSoC5/Telit_UART.c ****     * Parameters:
 749:.\Generated_Source\PSoC5/Telit_UART.c ****     *  None.
 750:.\Generated_Source\PSoC5/Telit_UART.c ****     *
 751:.\Generated_Source\PSoC5/Telit_UART.c ****     * Return:
 752:.\Generated_Source\PSoC5/Telit_UART.c ****     *  None.
 753:.\Generated_Source\PSoC5/Telit_UART.c ****     *
 754:.\Generated_Source\PSoC5/Telit_UART.c ****     * Global Variables:
 755:.\Generated_Source\PSoC5/Telit_UART.c ****     *  Telit_UART_rxBufferWrite - cleared to zero.
 756:.\Generated_Source\PSoC5/Telit_UART.c ****     *  Telit_UART_rxBufferRead - cleared to zero.
 757:.\Generated_Source\PSoC5/Telit_UART.c ****     *  Telit_UART_rxBufferLoopDetect - cleared to zero.
 758:.\Generated_Source\PSoC5/Telit_UART.c ****     *  Telit_UART_rxBufferOverflow - cleared to zero.
 759:.\Generated_Source\PSoC5/Telit_UART.c ****     *
 760:.\Generated_Source\PSoC5/Telit_UART.c ****     * Reentrant:
 761:.\Generated_Source\PSoC5/Telit_UART.c ****     *  No.
 762:.\Generated_Source\PSoC5/Telit_UART.c ****     *
 763:.\Generated_Source\PSoC5/Telit_UART.c ****     * Theory:
 764:.\Generated_Source\PSoC5/Telit_UART.c ****     *  Setting the pointers to zero makes the system believe there is no data to
 765:.\Generated_Source\PSoC5/Telit_UART.c ****     *  read and writing will resume at address 0 overwriting any data that may
 766:.\Generated_Source\PSoC5/Telit_UART.c ****     *  have remained in the RAM.
 767:.\Generated_Source\PSoC5/Telit_UART.c ****     *
 768:.\Generated_Source\PSoC5/Telit_UART.c ****     * Side Effects:
 769:.\Generated_Source\PSoC5/Telit_UART.c ****     *  Any received data not read from the RAM or FIFO buffer will be lost.
 770:.\Generated_Source\PSoC5/Telit_UART.c ****     *******************************************************************************/
 771:.\Generated_Source\PSoC5/Telit_UART.c ****     void Telit_UART_ClearRxBuffer(void) 
ARM GAS  C:\Users\BRANKO~1\AppData\Local\Temp\cc5L4W5X.s 			page 25


 772:.\Generated_Source\PSoC5/Telit_UART.c ****     {
 597              		.loc 1 772 0
 598              		.cfi_startproc
 599              		@ args = 0, pretend = 0, frame = 8
 600              		@ frame_needed = 1, uses_anonymous_args = 0
 601 0000 80B5     		push	{r7, lr}
 602              		.cfi_def_cfa_offset 8
 603              		.cfi_offset 7, -8
 604              		.cfi_offset 14, -4
 605 0002 82B0     		sub	sp, sp, #8
 606              		.cfi_def_cfa_offset 16
 607 0004 00AF     		add	r7, sp, #0
 608              		.cfi_def_cfa_register 7
 773:.\Generated_Source\PSoC5/Telit_UART.c ****         uint8 enableInterrupts;
 774:.\Generated_Source\PSoC5/Telit_UART.c **** 
 775:.\Generated_Source\PSoC5/Telit_UART.c ****         /* clear the HW FIFO */
 776:.\Generated_Source\PSoC5/Telit_UART.c ****         /* Enter critical section */
 777:.\Generated_Source\PSoC5/Telit_UART.c ****         enableInterrupts = CyEnterCriticalSection();
 609              		.loc 1 777 0
 610 0006 FFF7FEFF 		bl	CyEnterCriticalSection
 611 000a 0346     		mov	r3, r0
 612 000c FB71     		strb	r3, [r7, #7]
 778:.\Generated_Source\PSoC5/Telit_UART.c ****         Telit_UART_RXDATA_AUX_CTL_REG |=  Telit_UART_RX_FIFO_CLR;
 613              		.loc 1 778 0
 614 000e 0B4B     		ldr	r3, .L42
 615 0010 0A4A     		ldr	r2, .L42
 616 0012 1278     		ldrb	r2, [r2]
 617 0014 D2B2     		uxtb	r2, r2
 618 0016 42F00102 		orr	r2, r2, #1
 619 001a D2B2     		uxtb	r2, r2
 620 001c 1A70     		strb	r2, [r3]
 779:.\Generated_Source\PSoC5/Telit_UART.c ****         Telit_UART_RXDATA_AUX_CTL_REG &= (uint8)~Telit_UART_RX_FIFO_CLR;
 621              		.loc 1 779 0
 622 001e 074B     		ldr	r3, .L42
 623 0020 064A     		ldr	r2, .L42
 624 0022 1278     		ldrb	r2, [r2]
 625 0024 D2B2     		uxtb	r2, r2
 626 0026 22F00102 		bic	r2, r2, #1
 627 002a D2B2     		uxtb	r2, r2
 628 002c 1A70     		strb	r2, [r3]
 780:.\Generated_Source\PSoC5/Telit_UART.c ****         /* Exit critical section */
 781:.\Generated_Source\PSoC5/Telit_UART.c ****         CyExitCriticalSection(enableInterrupts);
 629              		.loc 1 781 0
 630 002e FB79     		ldrb	r3, [r7, #7]	@ zero_extendqisi2
 631 0030 1846     		mov	r0, r3
 632 0032 FFF7FEFF 		bl	CyExitCriticalSection
 782:.\Generated_Source\PSoC5/Telit_UART.c **** 
 783:.\Generated_Source\PSoC5/Telit_UART.c ****         #if(Telit_UART_RXBUFFERSIZE > Telit_UART_FIFO_LENGTH)
 784:.\Generated_Source\PSoC5/Telit_UART.c ****             /* Disable Rx interrupt. */
 785:.\Generated_Source\PSoC5/Telit_UART.c ****             /* Protect variables that could change on interrupt. */
 786:.\Generated_Source\PSoC5/Telit_UART.c ****             #if(Telit_UART_RX_INTERRUPT_ENABLED)
 787:.\Generated_Source\PSoC5/Telit_UART.c ****                 Telit_UART_DisableRxInt();
 788:.\Generated_Source\PSoC5/Telit_UART.c ****             #endif /* End Telit_UART_RX_INTERRUPT_ENABLED */
 789:.\Generated_Source\PSoC5/Telit_UART.c **** 
 790:.\Generated_Source\PSoC5/Telit_UART.c ****             Telit_UART_rxBufferRead = 0u;
 791:.\Generated_Source\PSoC5/Telit_UART.c ****             Telit_UART_rxBufferWrite = 0u;
 792:.\Generated_Source\PSoC5/Telit_UART.c ****             Telit_UART_rxBufferLoopDetect = 0u;
ARM GAS  C:\Users\BRANKO~1\AppData\Local\Temp\cc5L4W5X.s 			page 26


 793:.\Generated_Source\PSoC5/Telit_UART.c ****             Telit_UART_rxBufferOverflow = 0u;
 794:.\Generated_Source\PSoC5/Telit_UART.c **** 
 795:.\Generated_Source\PSoC5/Telit_UART.c ****             /* Enable Rx interrupt. */
 796:.\Generated_Source\PSoC5/Telit_UART.c ****             #if(Telit_UART_RX_INTERRUPT_ENABLED)
 797:.\Generated_Source\PSoC5/Telit_UART.c ****                 Telit_UART_EnableRxInt();
 798:.\Generated_Source\PSoC5/Telit_UART.c ****             #endif /* End Telit_UART_RX_INTERRUPT_ENABLED */
 799:.\Generated_Source\PSoC5/Telit_UART.c ****         #endif /* End Telit_UART_RXBUFFERSIZE > Telit_UART_FIFO_LENGTH */
 800:.\Generated_Source\PSoC5/Telit_UART.c **** 
 801:.\Generated_Source\PSoC5/Telit_UART.c ****     }
 633              		.loc 1 801 0
 634 0036 0837     		adds	r7, r7, #8
 635 0038 BD46     		mov	sp, r7
 636              		@ sp needed
 637 003a 80BD     		pop	{r7, pc}
 638              	.L43:
 639              		.align	2
 640              	.L42:
 641 003c 96650040 		.word	1073767830
 642              		.cfi_endproc
 643              	.LFE12:
 644              		.size	Telit_UART_ClearRxBuffer, .-Telit_UART_ClearRxBuffer
 645              		.section	.text.Telit_UART_SetRxAddressMode,"ax",%progbits
 646              		.align	2
 647              		.global	Telit_UART_SetRxAddressMode
 648              		.thumb
 649              		.thumb_func
 650              		.type	Telit_UART_SetRxAddressMode, %function
 651              	Telit_UART_SetRxAddressMode:
 652              	.LFB13:
 802:.\Generated_Source\PSoC5/Telit_UART.c **** 
 803:.\Generated_Source\PSoC5/Telit_UART.c **** 
 804:.\Generated_Source\PSoC5/Telit_UART.c ****     /*******************************************************************************
 805:.\Generated_Source\PSoC5/Telit_UART.c ****     * Function Name: Telit_UART_SetRxAddressMode
 806:.\Generated_Source\PSoC5/Telit_UART.c ****     ********************************************************************************
 807:.\Generated_Source\PSoC5/Telit_UART.c ****     *
 808:.\Generated_Source\PSoC5/Telit_UART.c ****     * Summary:
 809:.\Generated_Source\PSoC5/Telit_UART.c ****     *  Set the receive addressing mode
 810:.\Generated_Source\PSoC5/Telit_UART.c ****     *
 811:.\Generated_Source\PSoC5/Telit_UART.c ****     * Parameters:
 812:.\Generated_Source\PSoC5/Telit_UART.c ****     *  addressMode: Enumerated value indicating the mode of RX addressing
 813:.\Generated_Source\PSoC5/Telit_UART.c ****     *  Telit_UART__B_UART__AM_SW_BYTE_BYTE -  Software Byte-by-Byte address
 814:.\Generated_Source\PSoC5/Telit_UART.c ****     *                                               detection
 815:.\Generated_Source\PSoC5/Telit_UART.c ****     *  Telit_UART__B_UART__AM_SW_DETECT_TO_BUFFER - Software Detect to Buffer
 816:.\Generated_Source\PSoC5/Telit_UART.c ****     *                                               address detection
 817:.\Generated_Source\PSoC5/Telit_UART.c ****     *  Telit_UART__B_UART__AM_HW_BYTE_BY_BYTE - Hardware Byte-by-Byte address
 818:.\Generated_Source\PSoC5/Telit_UART.c ****     *                                               detection
 819:.\Generated_Source\PSoC5/Telit_UART.c ****     *  Telit_UART__B_UART__AM_HW_DETECT_TO_BUFFER - Hardware Detect to Buffer
 820:.\Generated_Source\PSoC5/Telit_UART.c ****     *                                               address detection
 821:.\Generated_Source\PSoC5/Telit_UART.c ****     *  Telit_UART__B_UART__AM_NONE - No address detection
 822:.\Generated_Source\PSoC5/Telit_UART.c ****     *
 823:.\Generated_Source\PSoC5/Telit_UART.c ****     * Return:
 824:.\Generated_Source\PSoC5/Telit_UART.c ****     *  None.
 825:.\Generated_Source\PSoC5/Telit_UART.c ****     *
 826:.\Generated_Source\PSoC5/Telit_UART.c ****     * Global Variables:
 827:.\Generated_Source\PSoC5/Telit_UART.c ****     *  Telit_UART_rxAddressMode - the parameter stored in this variable for
 828:.\Generated_Source\PSoC5/Telit_UART.c ****     *   the farther usage in RX ISR.
 829:.\Generated_Source\PSoC5/Telit_UART.c ****     *  Telit_UART_rxAddressDetected - set to initial state (0).
ARM GAS  C:\Users\BRANKO~1\AppData\Local\Temp\cc5L4W5X.s 			page 27


 830:.\Generated_Source\PSoC5/Telit_UART.c ****     *
 831:.\Generated_Source\PSoC5/Telit_UART.c ****     *******************************************************************************/
 832:.\Generated_Source\PSoC5/Telit_UART.c ****     void Telit_UART_SetRxAddressMode(uint8 addressMode)
 833:.\Generated_Source\PSoC5/Telit_UART.c ****                                                         
 834:.\Generated_Source\PSoC5/Telit_UART.c ****     {
 653              		.loc 1 834 0
 654              		.cfi_startproc
 655              		@ args = 0, pretend = 0, frame = 8
 656              		@ frame_needed = 1, uses_anonymous_args = 0
 657              		@ link register save eliminated.
 658 0000 80B4     		push	{r7}
 659              		.cfi_def_cfa_offset 4
 660              		.cfi_offset 7, -4
 661 0002 83B0     		sub	sp, sp, #12
 662              		.cfi_def_cfa_offset 16
 663 0004 00AF     		add	r7, sp, #0
 664              		.cfi_def_cfa_register 7
 665 0006 0346     		mov	r3, r0
 666 0008 FB71     		strb	r3, [r7, #7]
 835:.\Generated_Source\PSoC5/Telit_UART.c ****         #if(Telit_UART_RXHW_ADDRESS_ENABLED)
 836:.\Generated_Source\PSoC5/Telit_UART.c ****             #if(Telit_UART_CONTROL_REG_REMOVED)
 837:.\Generated_Source\PSoC5/Telit_UART.c ****                 if(addressMode != 0u) { }     /* release compiler warning */
 838:.\Generated_Source\PSoC5/Telit_UART.c ****             #else /* Telit_UART_CONTROL_REG_REMOVED */
 839:.\Generated_Source\PSoC5/Telit_UART.c ****                 uint8 tmpCtrl;
 840:.\Generated_Source\PSoC5/Telit_UART.c ****                 tmpCtrl = Telit_UART_CONTROL_REG & (uint8)~Telit_UART_CTRL_RXADDR_MODE_MASK;
 841:.\Generated_Source\PSoC5/Telit_UART.c ****                 tmpCtrl |= (uint8)(addressMode << Telit_UART_CTRL_RXADDR_MODE0_SHIFT);
 842:.\Generated_Source\PSoC5/Telit_UART.c ****                 Telit_UART_CONTROL_REG = tmpCtrl;
 843:.\Generated_Source\PSoC5/Telit_UART.c ****                 #if(Telit_UART_RX_INTERRUPT_ENABLED && \
 844:.\Generated_Source\PSoC5/Telit_UART.c ****                    (Telit_UART_RXBUFFERSIZE > Telit_UART_FIFO_LENGTH) )
 845:.\Generated_Source\PSoC5/Telit_UART.c ****                     Telit_UART_rxAddressMode = addressMode;
 846:.\Generated_Source\PSoC5/Telit_UART.c ****                     Telit_UART_rxAddressDetected = 0u;
 847:.\Generated_Source\PSoC5/Telit_UART.c ****                 #endif /* End Telit_UART_RXBUFFERSIZE > Telit_UART_FIFO_LENGTH*/
 848:.\Generated_Source\PSoC5/Telit_UART.c ****             #endif /* End Telit_UART_CONTROL_REG_REMOVED */
 849:.\Generated_Source\PSoC5/Telit_UART.c ****         #else /* Telit_UART_RXHW_ADDRESS_ENABLED */
 850:.\Generated_Source\PSoC5/Telit_UART.c ****             if(addressMode != 0u) { }     /* release compiler warning */
 851:.\Generated_Source\PSoC5/Telit_UART.c ****         #endif /* End Telit_UART_RXHW_ADDRESS_ENABLED */
 852:.\Generated_Source\PSoC5/Telit_UART.c ****     }
 667              		.loc 1 852 0
 668 000a 0C37     		adds	r7, r7, #12
 669 000c BD46     		mov	sp, r7
 670              		@ sp needed
 671 000e 5DF8047B 		ldr	r7, [sp], #4
 672 0012 7047     		bx	lr
 673              		.cfi_endproc
 674              	.LFE13:
 675              		.size	Telit_UART_SetRxAddressMode, .-Telit_UART_SetRxAddressMode
 676              		.section	.text.Telit_UART_SetRxAddress1,"ax",%progbits
 677              		.align	2
 678              		.global	Telit_UART_SetRxAddress1
 679              		.thumb
 680              		.thumb_func
 681              		.type	Telit_UART_SetRxAddress1, %function
 682              	Telit_UART_SetRxAddress1:
 683              	.LFB14:
 853:.\Generated_Source\PSoC5/Telit_UART.c **** 
 854:.\Generated_Source\PSoC5/Telit_UART.c **** 
 855:.\Generated_Source\PSoC5/Telit_UART.c ****     /*******************************************************************************
ARM GAS  C:\Users\BRANKO~1\AppData\Local\Temp\cc5L4W5X.s 			page 28


 856:.\Generated_Source\PSoC5/Telit_UART.c ****     * Function Name: Telit_UART_SetRxAddress1
 857:.\Generated_Source\PSoC5/Telit_UART.c ****     ********************************************************************************
 858:.\Generated_Source\PSoC5/Telit_UART.c ****     *
 859:.\Generated_Source\PSoC5/Telit_UART.c ****     * Summary:
 860:.\Generated_Source\PSoC5/Telit_UART.c ****     *  Set the first hardware address compare value
 861:.\Generated_Source\PSoC5/Telit_UART.c ****     *
 862:.\Generated_Source\PSoC5/Telit_UART.c ****     * Parameters:
 863:.\Generated_Source\PSoC5/Telit_UART.c ****     *  address
 864:.\Generated_Source\PSoC5/Telit_UART.c ****     *
 865:.\Generated_Source\PSoC5/Telit_UART.c ****     * Return:
 866:.\Generated_Source\PSoC5/Telit_UART.c ****     *  None.
 867:.\Generated_Source\PSoC5/Telit_UART.c ****     *
 868:.\Generated_Source\PSoC5/Telit_UART.c ****     *******************************************************************************/
 869:.\Generated_Source\PSoC5/Telit_UART.c ****     void Telit_UART_SetRxAddress1(uint8 address) 
 870:.\Generated_Source\PSoC5/Telit_UART.c **** 
 871:.\Generated_Source\PSoC5/Telit_UART.c ****     {
 684              		.loc 1 871 0
 685              		.cfi_startproc
 686              		@ args = 0, pretend = 0, frame = 8
 687              		@ frame_needed = 1, uses_anonymous_args = 0
 688              		@ link register save eliminated.
 689 0000 80B4     		push	{r7}
 690              		.cfi_def_cfa_offset 4
 691              		.cfi_offset 7, -4
 692 0002 83B0     		sub	sp, sp, #12
 693              		.cfi_def_cfa_offset 16
 694 0004 00AF     		add	r7, sp, #0
 695              		.cfi_def_cfa_register 7
 696 0006 0346     		mov	r3, r0
 697 0008 FB71     		strb	r3, [r7, #7]
 872:.\Generated_Source\PSoC5/Telit_UART.c ****         Telit_UART_RXADDRESS1_REG = address;
 698              		.loc 1 872 0
 699 000a 044B     		ldr	r3, .L46
 700 000c FA79     		ldrb	r2, [r7, #7]
 701 000e 1A70     		strb	r2, [r3]
 873:.\Generated_Source\PSoC5/Telit_UART.c ****     }
 702              		.loc 1 873 0
 703 0010 0C37     		adds	r7, r7, #12
 704 0012 BD46     		mov	sp, r7
 705              		@ sp needed
 706 0014 5DF8047B 		ldr	r7, [sp], #4
 707 0018 7047     		bx	lr
 708              	.L47:
 709 001a 00BF     		.align	2
 710              	.L46:
 711 001c 26650040 		.word	1073767718
 712              		.cfi_endproc
 713              	.LFE14:
 714              		.size	Telit_UART_SetRxAddress1, .-Telit_UART_SetRxAddress1
 715              		.section	.text.Telit_UART_SetRxAddress2,"ax",%progbits
 716              		.align	2
 717              		.global	Telit_UART_SetRxAddress2
 718              		.thumb
 719              		.thumb_func
 720              		.type	Telit_UART_SetRxAddress2, %function
 721              	Telit_UART_SetRxAddress2:
 722              	.LFB15:
ARM GAS  C:\Users\BRANKO~1\AppData\Local\Temp\cc5L4W5X.s 			page 29


 874:.\Generated_Source\PSoC5/Telit_UART.c **** 
 875:.\Generated_Source\PSoC5/Telit_UART.c **** 
 876:.\Generated_Source\PSoC5/Telit_UART.c ****     /*******************************************************************************
 877:.\Generated_Source\PSoC5/Telit_UART.c ****     * Function Name: Telit_UART_SetRxAddress2
 878:.\Generated_Source\PSoC5/Telit_UART.c ****     ********************************************************************************
 879:.\Generated_Source\PSoC5/Telit_UART.c ****     *
 880:.\Generated_Source\PSoC5/Telit_UART.c ****     * Summary:
 881:.\Generated_Source\PSoC5/Telit_UART.c ****     *  Set the second hardware address compare value
 882:.\Generated_Source\PSoC5/Telit_UART.c ****     *
 883:.\Generated_Source\PSoC5/Telit_UART.c ****     * Parameters:
 884:.\Generated_Source\PSoC5/Telit_UART.c ****     *  address
 885:.\Generated_Source\PSoC5/Telit_UART.c ****     *
 886:.\Generated_Source\PSoC5/Telit_UART.c ****     * Return:
 887:.\Generated_Source\PSoC5/Telit_UART.c ****     *  None.
 888:.\Generated_Source\PSoC5/Telit_UART.c ****     *
 889:.\Generated_Source\PSoC5/Telit_UART.c ****     *******************************************************************************/
 890:.\Generated_Source\PSoC5/Telit_UART.c ****     void Telit_UART_SetRxAddress2(uint8 address) 
 891:.\Generated_Source\PSoC5/Telit_UART.c ****     {
 723              		.loc 1 891 0
 724              		.cfi_startproc
 725              		@ args = 0, pretend = 0, frame = 8
 726              		@ frame_needed = 1, uses_anonymous_args = 0
 727              		@ link register save eliminated.
 728 0000 80B4     		push	{r7}
 729              		.cfi_def_cfa_offset 4
 730              		.cfi_offset 7, -4
 731 0002 83B0     		sub	sp, sp, #12
 732              		.cfi_def_cfa_offset 16
 733 0004 00AF     		add	r7, sp, #0
 734              		.cfi_def_cfa_register 7
 735 0006 0346     		mov	r3, r0
 736 0008 FB71     		strb	r3, [r7, #7]
 892:.\Generated_Source\PSoC5/Telit_UART.c ****         Telit_UART_RXADDRESS2_REG = address;
 737              		.loc 1 892 0
 738 000a 044B     		ldr	r3, .L49
 739 000c FA79     		ldrb	r2, [r7, #7]
 740 000e 1A70     		strb	r2, [r3]
 893:.\Generated_Source\PSoC5/Telit_UART.c ****     }
 741              		.loc 1 893 0
 742 0010 0C37     		adds	r7, r7, #12
 743 0012 BD46     		mov	sp, r7
 744              		@ sp needed
 745 0014 5DF8047B 		ldr	r7, [sp], #4
 746 0018 7047     		bx	lr
 747              	.L50:
 748 001a 00BF     		.align	2
 749              	.L49:
 750 001c 36650040 		.word	1073767734
 751              		.cfi_endproc
 752              	.LFE15:
 753              		.size	Telit_UART_SetRxAddress2, .-Telit_UART_SetRxAddress2
 754              		.section	.text.Telit_UART_SetTxInterruptMode,"ax",%progbits
 755              		.align	2
 756              		.global	Telit_UART_SetTxInterruptMode
 757              		.thumb
 758              		.thumb_func
 759              		.type	Telit_UART_SetTxInterruptMode, %function
ARM GAS  C:\Users\BRANKO~1\AppData\Local\Temp\cc5L4W5X.s 			page 30


 760              	Telit_UART_SetTxInterruptMode:
 761              	.LFB16:
 894:.\Generated_Source\PSoC5/Telit_UART.c **** 
 895:.\Generated_Source\PSoC5/Telit_UART.c **** #endif  /* Telit_UART_RX_ENABLED || Telit_UART_HD_ENABLED*/
 896:.\Generated_Source\PSoC5/Telit_UART.c **** 
 897:.\Generated_Source\PSoC5/Telit_UART.c **** 
 898:.\Generated_Source\PSoC5/Telit_UART.c **** #if( (Telit_UART_TX_ENABLED) || (Telit_UART_HD_ENABLED) )
 899:.\Generated_Source\PSoC5/Telit_UART.c **** 
 900:.\Generated_Source\PSoC5/Telit_UART.c ****     #if(Telit_UART_TX_INTERRUPT_ENABLED)
 901:.\Generated_Source\PSoC5/Telit_UART.c **** 
 902:.\Generated_Source\PSoC5/Telit_UART.c ****         /*******************************************************************************
 903:.\Generated_Source\PSoC5/Telit_UART.c ****         * Function Name: Telit_UART_EnableTxInt
 904:.\Generated_Source\PSoC5/Telit_UART.c ****         ********************************************************************************
 905:.\Generated_Source\PSoC5/Telit_UART.c ****         *
 906:.\Generated_Source\PSoC5/Telit_UART.c ****         * Summary:
 907:.\Generated_Source\PSoC5/Telit_UART.c ****         *  Enable TX interrupt generation
 908:.\Generated_Source\PSoC5/Telit_UART.c ****         *
 909:.\Generated_Source\PSoC5/Telit_UART.c ****         * Parameters:
 910:.\Generated_Source\PSoC5/Telit_UART.c ****         *  None.
 911:.\Generated_Source\PSoC5/Telit_UART.c ****         *
 912:.\Generated_Source\PSoC5/Telit_UART.c ****         * Return:
 913:.\Generated_Source\PSoC5/Telit_UART.c ****         *  None.
 914:.\Generated_Source\PSoC5/Telit_UART.c ****         *
 915:.\Generated_Source\PSoC5/Telit_UART.c ****         * Theory:
 916:.\Generated_Source\PSoC5/Telit_UART.c ****         *  Enable the interrupt output -or- the interrupt component itself
 917:.\Generated_Source\PSoC5/Telit_UART.c ****         *
 918:.\Generated_Source\PSoC5/Telit_UART.c ****         *******************************************************************************/
 919:.\Generated_Source\PSoC5/Telit_UART.c ****         void Telit_UART_EnableTxInt(void) 
 920:.\Generated_Source\PSoC5/Telit_UART.c ****         {
 921:.\Generated_Source\PSoC5/Telit_UART.c ****             CyIntEnable(Telit_UART_TX_VECT_NUM);
 922:.\Generated_Source\PSoC5/Telit_UART.c ****         }
 923:.\Generated_Source\PSoC5/Telit_UART.c **** 
 924:.\Generated_Source\PSoC5/Telit_UART.c **** 
 925:.\Generated_Source\PSoC5/Telit_UART.c ****         /*******************************************************************************
 926:.\Generated_Source\PSoC5/Telit_UART.c ****         * Function Name: Telit_UART_DisableTxInt
 927:.\Generated_Source\PSoC5/Telit_UART.c ****         ********************************************************************************
 928:.\Generated_Source\PSoC5/Telit_UART.c ****         *
 929:.\Generated_Source\PSoC5/Telit_UART.c ****         * Summary:
 930:.\Generated_Source\PSoC5/Telit_UART.c ****         *  Disable TX interrupt generation
 931:.\Generated_Source\PSoC5/Telit_UART.c ****         *
 932:.\Generated_Source\PSoC5/Telit_UART.c ****         * Parameters:
 933:.\Generated_Source\PSoC5/Telit_UART.c ****         *  None.
 934:.\Generated_Source\PSoC5/Telit_UART.c ****         *
 935:.\Generated_Source\PSoC5/Telit_UART.c ****         * Return:
 936:.\Generated_Source\PSoC5/Telit_UART.c ****         *  None.
 937:.\Generated_Source\PSoC5/Telit_UART.c ****         *
 938:.\Generated_Source\PSoC5/Telit_UART.c ****         * Theory:
 939:.\Generated_Source\PSoC5/Telit_UART.c ****         *  Disable the interrupt output -or- the interrupt component itself
 940:.\Generated_Source\PSoC5/Telit_UART.c ****         *
 941:.\Generated_Source\PSoC5/Telit_UART.c ****         *******************************************************************************/
 942:.\Generated_Source\PSoC5/Telit_UART.c ****         void Telit_UART_DisableTxInt(void) 
 943:.\Generated_Source\PSoC5/Telit_UART.c ****         {
 944:.\Generated_Source\PSoC5/Telit_UART.c ****             CyIntDisable(Telit_UART_TX_VECT_NUM);
 945:.\Generated_Source\PSoC5/Telit_UART.c ****         }
 946:.\Generated_Source\PSoC5/Telit_UART.c **** 
 947:.\Generated_Source\PSoC5/Telit_UART.c ****     #endif /* Telit_UART_TX_INTERRUPT_ENABLED */
 948:.\Generated_Source\PSoC5/Telit_UART.c **** 
ARM GAS  C:\Users\BRANKO~1\AppData\Local\Temp\cc5L4W5X.s 			page 31


 949:.\Generated_Source\PSoC5/Telit_UART.c **** 
 950:.\Generated_Source\PSoC5/Telit_UART.c ****     /*******************************************************************************
 951:.\Generated_Source\PSoC5/Telit_UART.c ****     * Function Name: Telit_UART_SetTxInterruptMode
 952:.\Generated_Source\PSoC5/Telit_UART.c ****     ********************************************************************************
 953:.\Generated_Source\PSoC5/Telit_UART.c ****     *
 954:.\Generated_Source\PSoC5/Telit_UART.c ****     * Summary:
 955:.\Generated_Source\PSoC5/Telit_UART.c ****     *  Configure which status bits trigger an interrupt event
 956:.\Generated_Source\PSoC5/Telit_UART.c ****     *
 957:.\Generated_Source\PSoC5/Telit_UART.c ****     * Parameters:
 958:.\Generated_Source\PSoC5/Telit_UART.c ****     *  intSrc: An or'd combination of the desired status bit masks (defined in
 959:.\Generated_Source\PSoC5/Telit_UART.c ****     *          the header file)
 960:.\Generated_Source\PSoC5/Telit_UART.c ****     *
 961:.\Generated_Source\PSoC5/Telit_UART.c ****     * Return:
 962:.\Generated_Source\PSoC5/Telit_UART.c ****     *  None.
 963:.\Generated_Source\PSoC5/Telit_UART.c ****     *
 964:.\Generated_Source\PSoC5/Telit_UART.c ****     * Theory:
 965:.\Generated_Source\PSoC5/Telit_UART.c ****     *  Enables the output of specific status bits to the interrupt controller
 966:.\Generated_Source\PSoC5/Telit_UART.c ****     *
 967:.\Generated_Source\PSoC5/Telit_UART.c ****     *******************************************************************************/
 968:.\Generated_Source\PSoC5/Telit_UART.c ****     void Telit_UART_SetTxInterruptMode(uint8 intSrc) 
 969:.\Generated_Source\PSoC5/Telit_UART.c ****     {
 762              		.loc 1 969 0
 763              		.cfi_startproc
 764              		@ args = 0, pretend = 0, frame = 8
 765              		@ frame_needed = 1, uses_anonymous_args = 0
 766              		@ link register save eliminated.
 767 0000 80B4     		push	{r7}
 768              		.cfi_def_cfa_offset 4
 769              		.cfi_offset 7, -4
 770 0002 83B0     		sub	sp, sp, #12
 771              		.cfi_def_cfa_offset 16
 772 0004 00AF     		add	r7, sp, #0
 773              		.cfi_def_cfa_register 7
 774 0006 0346     		mov	r3, r0
 775 0008 FB71     		strb	r3, [r7, #7]
 970:.\Generated_Source\PSoC5/Telit_UART.c ****         Telit_UART_TXSTATUS_MASK_REG = intSrc;
 776              		.loc 1 970 0
 777 000a 044B     		ldr	r3, .L52
 778 000c FA79     		ldrb	r2, [r7, #7]
 779 000e 1A70     		strb	r2, [r3]
 971:.\Generated_Source\PSoC5/Telit_UART.c ****     }
 780              		.loc 1 971 0
 781 0010 0C37     		adds	r7, r7, #12
 782 0012 BD46     		mov	sp, r7
 783              		@ sp needed
 784 0014 5DF8047B 		ldr	r7, [sp], #4
 785 0018 7047     		bx	lr
 786              	.L53:
 787 001a 00BF     		.align	2
 788              	.L52:
 789 001c 84650040 		.word	1073767812
 790              		.cfi_endproc
 791              	.LFE16:
 792              		.size	Telit_UART_SetTxInterruptMode, .-Telit_UART_SetTxInterruptMode
 793              		.section	.text.Telit_UART_WriteTxData,"ax",%progbits
 794              		.align	2
 795              		.global	Telit_UART_WriteTxData
ARM GAS  C:\Users\BRANKO~1\AppData\Local\Temp\cc5L4W5X.s 			page 32


 796              		.thumb
 797              		.thumb_func
 798              		.type	Telit_UART_WriteTxData, %function
 799              	Telit_UART_WriteTxData:
 800              	.LFB17:
 972:.\Generated_Source\PSoC5/Telit_UART.c **** 
 973:.\Generated_Source\PSoC5/Telit_UART.c **** 
 974:.\Generated_Source\PSoC5/Telit_UART.c ****     /*******************************************************************************
 975:.\Generated_Source\PSoC5/Telit_UART.c ****     * Function Name: Telit_UART_WriteTxData
 976:.\Generated_Source\PSoC5/Telit_UART.c ****     ********************************************************************************
 977:.\Generated_Source\PSoC5/Telit_UART.c ****     *
 978:.\Generated_Source\PSoC5/Telit_UART.c ****     * Summary:
 979:.\Generated_Source\PSoC5/Telit_UART.c ****     *  Write a byte of data to the Transmit FIFO or TX buffer to be sent when the
 980:.\Generated_Source\PSoC5/Telit_UART.c ****     *  bus is available. WriteTxData sends a byte without checking for buffer room
 981:.\Generated_Source\PSoC5/Telit_UART.c ****     *  or status. It is up to the user to separately check status.
 982:.\Generated_Source\PSoC5/Telit_UART.c ****     *
 983:.\Generated_Source\PSoC5/Telit_UART.c ****     * Parameters:
 984:.\Generated_Source\PSoC5/Telit_UART.c ****     *  TXDataByte: byte of data to place in the transmit FIFO
 985:.\Generated_Source\PSoC5/Telit_UART.c ****     *
 986:.\Generated_Source\PSoC5/Telit_UART.c ****     * Return:
 987:.\Generated_Source\PSoC5/Telit_UART.c ****     * void
 988:.\Generated_Source\PSoC5/Telit_UART.c ****     *
 989:.\Generated_Source\PSoC5/Telit_UART.c ****     * Global Variables:
 990:.\Generated_Source\PSoC5/Telit_UART.c ****     *  Telit_UART_txBuffer - RAM buffer pointer for save data for transmission
 991:.\Generated_Source\PSoC5/Telit_UART.c ****     *  Telit_UART_txBufferWrite - cyclic index for write to txBuffer,
 992:.\Generated_Source\PSoC5/Telit_UART.c ****     *    incremented after each byte saved to buffer.
 993:.\Generated_Source\PSoC5/Telit_UART.c ****     *  Telit_UART_txBufferRead - cyclic index for read from txBuffer,
 994:.\Generated_Source\PSoC5/Telit_UART.c ****     *    checked to identify the condition to write to FIFO directly or to TX buffer
 995:.\Generated_Source\PSoC5/Telit_UART.c ****     *  Telit_UART_initVar - checked to identify that the component has been
 996:.\Generated_Source\PSoC5/Telit_UART.c ****     *    initialized.
 997:.\Generated_Source\PSoC5/Telit_UART.c ****     *
 998:.\Generated_Source\PSoC5/Telit_UART.c ****     * Reentrant:
 999:.\Generated_Source\PSoC5/Telit_UART.c ****     *  No.
1000:.\Generated_Source\PSoC5/Telit_UART.c ****     *
1001:.\Generated_Source\PSoC5/Telit_UART.c ****     *******************************************************************************/
1002:.\Generated_Source\PSoC5/Telit_UART.c ****     void Telit_UART_WriteTxData(uint8 txDataByte) 
1003:.\Generated_Source\PSoC5/Telit_UART.c ****     {
 801              		.loc 1 1003 0
 802              		.cfi_startproc
 803              		@ args = 0, pretend = 0, frame = 8
 804              		@ frame_needed = 1, uses_anonymous_args = 0
 805              		@ link register save eliminated.
 806 0000 80B4     		push	{r7}
 807              		.cfi_def_cfa_offset 4
 808              		.cfi_offset 7, -4
 809 0002 83B0     		sub	sp, sp, #12
 810              		.cfi_def_cfa_offset 16
 811 0004 00AF     		add	r7, sp, #0
 812              		.cfi_def_cfa_register 7
 813 0006 0346     		mov	r3, r0
 814 0008 FB71     		strb	r3, [r7, #7]
1004:.\Generated_Source\PSoC5/Telit_UART.c ****         /* If not Initialized then skip this function*/
1005:.\Generated_Source\PSoC5/Telit_UART.c ****         if(Telit_UART_initVar != 0u)
 815              		.loc 1 1005 0
 816 000a 064B     		ldr	r3, .L56
 817 000c 1B78     		ldrb	r3, [r3]	@ zero_extendqisi2
 818 000e 002B     		cmp	r3, #0
ARM GAS  C:\Users\BRANKO~1\AppData\Local\Temp\cc5L4W5X.s 			page 33


 819 0010 02D0     		beq	.L54
1006:.\Generated_Source\PSoC5/Telit_UART.c ****         {
1007:.\Generated_Source\PSoC5/Telit_UART.c ****             #if(Telit_UART_TXBUFFERSIZE > Telit_UART_FIFO_LENGTH)
1008:.\Generated_Source\PSoC5/Telit_UART.c **** 
1009:.\Generated_Source\PSoC5/Telit_UART.c ****                 /* Disable Tx interrupt. */
1010:.\Generated_Source\PSoC5/Telit_UART.c ****                 /* Protect variables that could change on interrupt. */
1011:.\Generated_Source\PSoC5/Telit_UART.c ****                 #if(Telit_UART_TX_INTERRUPT_ENABLED)
1012:.\Generated_Source\PSoC5/Telit_UART.c ****                     Telit_UART_DisableTxInt();
1013:.\Generated_Source\PSoC5/Telit_UART.c ****                 #endif /* End Telit_UART_TX_INTERRUPT_ENABLED */
1014:.\Generated_Source\PSoC5/Telit_UART.c **** 
1015:.\Generated_Source\PSoC5/Telit_UART.c ****                 if( (Telit_UART_txBufferRead == Telit_UART_txBufferWrite) &&
1016:.\Generated_Source\PSoC5/Telit_UART.c ****                     ((Telit_UART_TXSTATUS_REG & Telit_UART_TX_STS_FIFO_FULL) == 0u) )
1017:.\Generated_Source\PSoC5/Telit_UART.c ****                 {
1018:.\Generated_Source\PSoC5/Telit_UART.c ****                     /* Add directly to the FIFO. */
1019:.\Generated_Source\PSoC5/Telit_UART.c ****                     Telit_UART_TXDATA_REG = txDataByte;
1020:.\Generated_Source\PSoC5/Telit_UART.c ****                 }
1021:.\Generated_Source\PSoC5/Telit_UART.c ****                 else
1022:.\Generated_Source\PSoC5/Telit_UART.c ****                 {
1023:.\Generated_Source\PSoC5/Telit_UART.c ****                     if(Telit_UART_txBufferWrite >= Telit_UART_TXBUFFERSIZE)
1024:.\Generated_Source\PSoC5/Telit_UART.c ****                     {
1025:.\Generated_Source\PSoC5/Telit_UART.c ****                         Telit_UART_txBufferWrite = 0u;
1026:.\Generated_Source\PSoC5/Telit_UART.c ****                     }
1027:.\Generated_Source\PSoC5/Telit_UART.c **** 
1028:.\Generated_Source\PSoC5/Telit_UART.c ****                     Telit_UART_txBuffer[Telit_UART_txBufferWrite] = txDataByte;
1029:.\Generated_Source\PSoC5/Telit_UART.c **** 
1030:.\Generated_Source\PSoC5/Telit_UART.c ****                     /* Add to the software buffer. */
1031:.\Generated_Source\PSoC5/Telit_UART.c ****                     Telit_UART_txBufferWrite++;
1032:.\Generated_Source\PSoC5/Telit_UART.c **** 
1033:.\Generated_Source\PSoC5/Telit_UART.c ****                 }
1034:.\Generated_Source\PSoC5/Telit_UART.c **** 
1035:.\Generated_Source\PSoC5/Telit_UART.c ****                 /* Enable Tx interrupt. */
1036:.\Generated_Source\PSoC5/Telit_UART.c ****                 #if(Telit_UART_TX_INTERRUPT_ENABLED)
1037:.\Generated_Source\PSoC5/Telit_UART.c ****                     Telit_UART_EnableTxInt();
1038:.\Generated_Source\PSoC5/Telit_UART.c ****                 #endif /* End Telit_UART_TX_INTERRUPT_ENABLED */
1039:.\Generated_Source\PSoC5/Telit_UART.c **** 
1040:.\Generated_Source\PSoC5/Telit_UART.c ****             #else /* Telit_UART_TXBUFFERSIZE > Telit_UART_FIFO_LENGTH */
1041:.\Generated_Source\PSoC5/Telit_UART.c **** 
1042:.\Generated_Source\PSoC5/Telit_UART.c ****                 /* Add directly to the FIFO. */
1043:.\Generated_Source\PSoC5/Telit_UART.c ****                 Telit_UART_TXDATA_REG = txDataByte;
 820              		.loc 1 1043 0
 821 0012 054B     		ldr	r3, .L56+4
 822 0014 FA79     		ldrb	r2, [r7, #7]
 823 0016 1A70     		strb	r2, [r3]
 824              	.L54:
1044:.\Generated_Source\PSoC5/Telit_UART.c **** 
1045:.\Generated_Source\PSoC5/Telit_UART.c ****             #endif /* End Telit_UART_TXBUFFERSIZE > Telit_UART_FIFO_LENGTH */
1046:.\Generated_Source\PSoC5/Telit_UART.c ****         }
1047:.\Generated_Source\PSoC5/Telit_UART.c ****     }
 825              		.loc 1 1047 0
 826 0018 0C37     		adds	r7, r7, #12
 827 001a BD46     		mov	sp, r7
 828              		@ sp needed
 829 001c 5DF8047B 		ldr	r7, [sp], #4
 830 0020 7047     		bx	lr
 831              	.L57:
 832 0022 00BF     		.align	2
 833              	.L56:
ARM GAS  C:\Users\BRANKO~1\AppData\Local\Temp\cc5L4W5X.s 			page 34


 834 0024 00000000 		.word	Telit_UART_initVar
 835 0028 47640040 		.word	1073767495
 836              		.cfi_endproc
 837              	.LFE17:
 838              		.size	Telit_UART_WriteTxData, .-Telit_UART_WriteTxData
 839              		.section	.text.Telit_UART_ReadTxStatus,"ax",%progbits
 840              		.align	2
 841              		.global	Telit_UART_ReadTxStatus
 842              		.thumb
 843              		.thumb_func
 844              		.type	Telit_UART_ReadTxStatus, %function
 845              	Telit_UART_ReadTxStatus:
 846              	.LFB18:
1048:.\Generated_Source\PSoC5/Telit_UART.c **** 
1049:.\Generated_Source\PSoC5/Telit_UART.c **** 
1050:.\Generated_Source\PSoC5/Telit_UART.c ****     /*******************************************************************************
1051:.\Generated_Source\PSoC5/Telit_UART.c ****     * Function Name: Telit_UART_ReadTxStatus
1052:.\Generated_Source\PSoC5/Telit_UART.c ****     ********************************************************************************
1053:.\Generated_Source\PSoC5/Telit_UART.c ****     *
1054:.\Generated_Source\PSoC5/Telit_UART.c ****     * Summary:
1055:.\Generated_Source\PSoC5/Telit_UART.c ****     *  Read the status register for the component
1056:.\Generated_Source\PSoC5/Telit_UART.c ****     *
1057:.\Generated_Source\PSoC5/Telit_UART.c ****     * Parameters:
1058:.\Generated_Source\PSoC5/Telit_UART.c ****     *  None.
1059:.\Generated_Source\PSoC5/Telit_UART.c ****     *
1060:.\Generated_Source\PSoC5/Telit_UART.c ****     * Return:
1061:.\Generated_Source\PSoC5/Telit_UART.c ****     *  Contents of the status register
1062:.\Generated_Source\PSoC5/Telit_UART.c ****     *
1063:.\Generated_Source\PSoC5/Telit_UART.c ****     * Theory:
1064:.\Generated_Source\PSoC5/Telit_UART.c ****     *  This function reads the status register which is clear on read. It is up to
1065:.\Generated_Source\PSoC5/Telit_UART.c ****     *  the user to handle all bits in this return value accordingly, even if the bit
1066:.\Generated_Source\PSoC5/Telit_UART.c ****     *  was not enabled as an interrupt source the event happened and must be handled
1067:.\Generated_Source\PSoC5/Telit_UART.c ****     *  accordingly.
1068:.\Generated_Source\PSoC5/Telit_UART.c ****     *
1069:.\Generated_Source\PSoC5/Telit_UART.c ****     *******************************************************************************/
1070:.\Generated_Source\PSoC5/Telit_UART.c ****     uint8 Telit_UART_ReadTxStatus(void) 
1071:.\Generated_Source\PSoC5/Telit_UART.c ****     {
 847              		.loc 1 1071 0
 848              		.cfi_startproc
 849              		@ args = 0, pretend = 0, frame = 0
 850              		@ frame_needed = 1, uses_anonymous_args = 0
 851              		@ link register save eliminated.
 852 0000 80B4     		push	{r7}
 853              		.cfi_def_cfa_offset 4
 854              		.cfi_offset 7, -4
 855 0002 00AF     		add	r7, sp, #0
 856              		.cfi_def_cfa_register 7
1072:.\Generated_Source\PSoC5/Telit_UART.c ****         return(Telit_UART_TXSTATUS_REG);
 857              		.loc 1 1072 0
 858 0004 034B     		ldr	r3, .L60
 859 0006 1B78     		ldrb	r3, [r3]
 860 0008 DBB2     		uxtb	r3, r3
1073:.\Generated_Source\PSoC5/Telit_UART.c ****     }
 861              		.loc 1 1073 0
 862 000a 1846     		mov	r0, r3
 863 000c BD46     		mov	sp, r7
 864              		@ sp needed
ARM GAS  C:\Users\BRANKO~1\AppData\Local\Temp\cc5L4W5X.s 			page 35


 865 000e 5DF8047B 		ldr	r7, [sp], #4
 866 0012 7047     		bx	lr
 867              	.L61:
 868              		.align	2
 869              	.L60:
 870 0014 64650040 		.word	1073767780
 871              		.cfi_endproc
 872              	.LFE18:
 873              		.size	Telit_UART_ReadTxStatus, .-Telit_UART_ReadTxStatus
 874              		.section	.text.Telit_UART_PutChar,"ax",%progbits
 875              		.align	2
 876              		.global	Telit_UART_PutChar
 877              		.thumb
 878              		.thumb_func
 879              		.type	Telit_UART_PutChar, %function
 880              	Telit_UART_PutChar:
 881              	.LFB19:
1074:.\Generated_Source\PSoC5/Telit_UART.c **** 
1075:.\Generated_Source\PSoC5/Telit_UART.c **** 
1076:.\Generated_Source\PSoC5/Telit_UART.c ****     /*******************************************************************************
1077:.\Generated_Source\PSoC5/Telit_UART.c ****     * Function Name: Telit_UART_PutChar
1078:.\Generated_Source\PSoC5/Telit_UART.c ****     ********************************************************************************
1079:.\Generated_Source\PSoC5/Telit_UART.c ****     *
1080:.\Generated_Source\PSoC5/Telit_UART.c ****     * Summary:
1081:.\Generated_Source\PSoC5/Telit_UART.c ****     *  Wait to send byte until TX register or buffer has room.
1082:.\Generated_Source\PSoC5/Telit_UART.c ****     *
1083:.\Generated_Source\PSoC5/Telit_UART.c ****     * Parameters:
1084:.\Generated_Source\PSoC5/Telit_UART.c ****     *  txDataByte: The 8-bit data value to send across the UART.
1085:.\Generated_Source\PSoC5/Telit_UART.c ****     *
1086:.\Generated_Source\PSoC5/Telit_UART.c ****     * Return:
1087:.\Generated_Source\PSoC5/Telit_UART.c ****     *  None.
1088:.\Generated_Source\PSoC5/Telit_UART.c ****     *
1089:.\Generated_Source\PSoC5/Telit_UART.c ****     * Global Variables:
1090:.\Generated_Source\PSoC5/Telit_UART.c ****     *  Telit_UART_txBuffer - RAM buffer pointer for save data for transmission
1091:.\Generated_Source\PSoC5/Telit_UART.c ****     *  Telit_UART_txBufferWrite - cyclic index for write to txBuffer,
1092:.\Generated_Source\PSoC5/Telit_UART.c ****     *     checked to identify free space in txBuffer and incremented after each byte
1093:.\Generated_Source\PSoC5/Telit_UART.c ****     *     saved to buffer.
1094:.\Generated_Source\PSoC5/Telit_UART.c ****     *  Telit_UART_txBufferRead - cyclic index for read from txBuffer,
1095:.\Generated_Source\PSoC5/Telit_UART.c ****     *     checked to identify free space in txBuffer.
1096:.\Generated_Source\PSoC5/Telit_UART.c ****     *  Telit_UART_initVar - checked to identify that the component has been
1097:.\Generated_Source\PSoC5/Telit_UART.c ****     *     initialized.
1098:.\Generated_Source\PSoC5/Telit_UART.c ****     *
1099:.\Generated_Source\PSoC5/Telit_UART.c ****     * Reentrant:
1100:.\Generated_Source\PSoC5/Telit_UART.c ****     *  No.
1101:.\Generated_Source\PSoC5/Telit_UART.c ****     *
1102:.\Generated_Source\PSoC5/Telit_UART.c ****     * Theory:
1103:.\Generated_Source\PSoC5/Telit_UART.c ****     *  Allows the user to transmit any byte of data in a single transfer
1104:.\Generated_Source\PSoC5/Telit_UART.c ****     *
1105:.\Generated_Source\PSoC5/Telit_UART.c ****     *******************************************************************************/
1106:.\Generated_Source\PSoC5/Telit_UART.c ****     void Telit_UART_PutChar(uint8 txDataByte) 
1107:.\Generated_Source\PSoC5/Telit_UART.c ****     {
 882              		.loc 1 1107 0
 883              		.cfi_startproc
 884              		@ args = 0, pretend = 0, frame = 8
 885              		@ frame_needed = 1, uses_anonymous_args = 0
 886              		@ link register save eliminated.
 887 0000 80B4     		push	{r7}
ARM GAS  C:\Users\BRANKO~1\AppData\Local\Temp\cc5L4W5X.s 			page 36


 888              		.cfi_def_cfa_offset 4
 889              		.cfi_offset 7, -4
 890 0002 83B0     		sub	sp, sp, #12
 891              		.cfi_def_cfa_offset 16
 892 0004 00AF     		add	r7, sp, #0
 893              		.cfi_def_cfa_register 7
 894 0006 0346     		mov	r3, r0
 895 0008 FB71     		strb	r3, [r7, #7]
1108:.\Generated_Source\PSoC5/Telit_UART.c ****             #if(Telit_UART_TXBUFFERSIZE > Telit_UART_FIFO_LENGTH)
1109:.\Generated_Source\PSoC5/Telit_UART.c ****                 /* The temporary output pointer is used since it takes two instructions
1110:.\Generated_Source\PSoC5/Telit_UART.c ****                 *  to increment with a wrap, and we can't risk doing that with the real
1111:.\Generated_Source\PSoC5/Telit_UART.c ****                 *  pointer and getting an interrupt in between instructions.
1112:.\Generated_Source\PSoC5/Telit_UART.c ****                 */
1113:.\Generated_Source\PSoC5/Telit_UART.c ****                 uint8 loc_txBufferWrite;
1114:.\Generated_Source\PSoC5/Telit_UART.c ****                 uint8 loc_txBufferRead;
1115:.\Generated_Source\PSoC5/Telit_UART.c **** 
1116:.\Generated_Source\PSoC5/Telit_UART.c ****                 do{
1117:.\Generated_Source\PSoC5/Telit_UART.c ****                     /* Block if software buffer is full, so we don't overwrite. */
1118:.\Generated_Source\PSoC5/Telit_UART.c ****                     #if ((Telit_UART_TXBUFFERSIZE > Telit_UART_MAX_BYTE_VALUE) && (CY_PSOC3))
1119:.\Generated_Source\PSoC5/Telit_UART.c ****                         /* Disable TX interrupt to protect variables that could change on interrupt
1120:.\Generated_Source\PSoC5/Telit_UART.c ****                         CyIntDisable(Telit_UART_TX_VECT_NUM);
1121:.\Generated_Source\PSoC5/Telit_UART.c ****                     #endif /* End TXBUFFERSIZE > 255 */
1122:.\Generated_Source\PSoC5/Telit_UART.c ****                     loc_txBufferWrite = Telit_UART_txBufferWrite;
1123:.\Generated_Source\PSoC5/Telit_UART.c ****                     loc_txBufferRead = Telit_UART_txBufferRead;
1124:.\Generated_Source\PSoC5/Telit_UART.c ****                     #if ((Telit_UART_TXBUFFERSIZE > Telit_UART_MAX_BYTE_VALUE) && (CY_PSOC3))
1125:.\Generated_Source\PSoC5/Telit_UART.c ****                         /* Enable interrupt to continue transmission */
1126:.\Generated_Source\PSoC5/Telit_UART.c ****                         CyIntEnable(Telit_UART_TX_VECT_NUM);
1127:.\Generated_Source\PSoC5/Telit_UART.c ****                     #endif /* End TXBUFFERSIZE > 255 */
1128:.\Generated_Source\PSoC5/Telit_UART.c ****                 }while( (loc_txBufferWrite < loc_txBufferRead) ? (loc_txBufferWrite == (loc_txBuffe
1129:.\Generated_Source\PSoC5/Telit_UART.c ****                                         ((loc_txBufferWrite - loc_txBufferRead) ==
1130:.\Generated_Source\PSoC5/Telit_UART.c ****                                         (uint8)(Telit_UART_TXBUFFERSIZE - 1u)) );
1131:.\Generated_Source\PSoC5/Telit_UART.c **** 
1132:.\Generated_Source\PSoC5/Telit_UART.c ****                 if( (loc_txBufferRead == loc_txBufferWrite) &&
1133:.\Generated_Source\PSoC5/Telit_UART.c ****                     ((Telit_UART_TXSTATUS_REG & Telit_UART_TX_STS_FIFO_FULL) == 0u) )
1134:.\Generated_Source\PSoC5/Telit_UART.c ****                 {
1135:.\Generated_Source\PSoC5/Telit_UART.c ****                     /* Add directly to the FIFO. */
1136:.\Generated_Source\PSoC5/Telit_UART.c ****                     Telit_UART_TXDATA_REG = txDataByte;
1137:.\Generated_Source\PSoC5/Telit_UART.c ****                 }
1138:.\Generated_Source\PSoC5/Telit_UART.c ****                 else
1139:.\Generated_Source\PSoC5/Telit_UART.c ****                 {
1140:.\Generated_Source\PSoC5/Telit_UART.c ****                     if(loc_txBufferWrite >= Telit_UART_TXBUFFERSIZE)
1141:.\Generated_Source\PSoC5/Telit_UART.c ****                     {
1142:.\Generated_Source\PSoC5/Telit_UART.c ****                         loc_txBufferWrite = 0u;
1143:.\Generated_Source\PSoC5/Telit_UART.c ****                     }
1144:.\Generated_Source\PSoC5/Telit_UART.c ****                     /* Add to the software buffer. */
1145:.\Generated_Source\PSoC5/Telit_UART.c ****                     Telit_UART_txBuffer[loc_txBufferWrite] = txDataByte;
1146:.\Generated_Source\PSoC5/Telit_UART.c ****                     loc_txBufferWrite++;
1147:.\Generated_Source\PSoC5/Telit_UART.c **** 
1148:.\Generated_Source\PSoC5/Telit_UART.c ****                     /* Finally, update the real output pointer */
1149:.\Generated_Source\PSoC5/Telit_UART.c ****                     #if ((Telit_UART_TXBUFFERSIZE > Telit_UART_MAX_BYTE_VALUE) && (CY_PSOC3))
1150:.\Generated_Source\PSoC5/Telit_UART.c ****                         CyIntDisable(Telit_UART_TX_VECT_NUM);
1151:.\Generated_Source\PSoC5/Telit_UART.c ****                     #endif /* End TXBUFFERSIZE > 255 */
1152:.\Generated_Source\PSoC5/Telit_UART.c ****                     Telit_UART_txBufferWrite = loc_txBufferWrite;
1153:.\Generated_Source\PSoC5/Telit_UART.c ****                     #if ((Telit_UART_TXBUFFERSIZE > Telit_UART_MAX_BYTE_VALUE) && (CY_PSOC3))
1154:.\Generated_Source\PSoC5/Telit_UART.c ****                         CyIntEnable(Telit_UART_TX_VECT_NUM);
1155:.\Generated_Source\PSoC5/Telit_UART.c ****                     #endif /* End TXBUFFERSIZE > 255 */
1156:.\Generated_Source\PSoC5/Telit_UART.c ****                 }
ARM GAS  C:\Users\BRANKO~1\AppData\Local\Temp\cc5L4W5X.s 			page 37


1157:.\Generated_Source\PSoC5/Telit_UART.c **** 
1158:.\Generated_Source\PSoC5/Telit_UART.c ****             #else /* Telit_UART_TXBUFFERSIZE > Telit_UART_FIFO_LENGTH */
1159:.\Generated_Source\PSoC5/Telit_UART.c **** 
1160:.\Generated_Source\PSoC5/Telit_UART.c ****                 while((Telit_UART_TXSTATUS_REG & Telit_UART_TX_STS_FIFO_FULL) != 0u)
 896              		.loc 1 1160 0
 897 000a 00BF     		nop
 898              	.L63:
 899              		.loc 1 1160 0 is_stmt 0 discriminator 1
 900 000c 074B     		ldr	r3, .L64
 901 000e 1B78     		ldrb	r3, [r3]
 902 0010 DBB2     		uxtb	r3, r3
 903 0012 03F00403 		and	r3, r3, #4
 904 0016 002B     		cmp	r3, #0
 905 0018 F8D1     		bne	.L63
1161:.\Generated_Source\PSoC5/Telit_UART.c ****                 {
1162:.\Generated_Source\PSoC5/Telit_UART.c ****                     ; /* Wait for room in the FIFO. */
1163:.\Generated_Source\PSoC5/Telit_UART.c ****                 }
1164:.\Generated_Source\PSoC5/Telit_UART.c **** 
1165:.\Generated_Source\PSoC5/Telit_UART.c ****                 /* Add directly to the FIFO. */
1166:.\Generated_Source\PSoC5/Telit_UART.c ****                 Telit_UART_TXDATA_REG = txDataByte;
 906              		.loc 1 1166 0 is_stmt 1
 907 001a 054B     		ldr	r3, .L64+4
 908 001c FA79     		ldrb	r2, [r7, #7]
 909 001e 1A70     		strb	r2, [r3]
1167:.\Generated_Source\PSoC5/Telit_UART.c **** 
1168:.\Generated_Source\PSoC5/Telit_UART.c ****             #endif /* End Telit_UART_TXBUFFERSIZE > Telit_UART_FIFO_LENGTH */
1169:.\Generated_Source\PSoC5/Telit_UART.c ****     }
 910              		.loc 1 1169 0
 911 0020 0C37     		adds	r7, r7, #12
 912 0022 BD46     		mov	sp, r7
 913              		@ sp needed
 914 0024 5DF8047B 		ldr	r7, [sp], #4
 915 0028 7047     		bx	lr
 916              	.L65:
 917 002a 00BF     		.align	2
 918              	.L64:
 919 002c 64650040 		.word	1073767780
 920 0030 47640040 		.word	1073767495
 921              		.cfi_endproc
 922              	.LFE19:
 923              		.size	Telit_UART_PutChar, .-Telit_UART_PutChar
 924              		.section	.text.Telit_UART_PutString,"ax",%progbits
 925              		.align	2
 926              		.global	Telit_UART_PutString
 927              		.thumb
 928              		.thumb_func
 929              		.type	Telit_UART_PutString, %function
 930              	Telit_UART_PutString:
 931              	.LFB20:
1170:.\Generated_Source\PSoC5/Telit_UART.c **** 
1171:.\Generated_Source\PSoC5/Telit_UART.c **** 
1172:.\Generated_Source\PSoC5/Telit_UART.c ****     /*******************************************************************************
1173:.\Generated_Source\PSoC5/Telit_UART.c ****     * Function Name: Telit_UART_PutString
1174:.\Generated_Source\PSoC5/Telit_UART.c ****     ********************************************************************************
1175:.\Generated_Source\PSoC5/Telit_UART.c ****     *
1176:.\Generated_Source\PSoC5/Telit_UART.c ****     * Summary:
1177:.\Generated_Source\PSoC5/Telit_UART.c ****     *  Write a Sequence of bytes on the Transmit line. Data comes from RAM or ROM.
ARM GAS  C:\Users\BRANKO~1\AppData\Local\Temp\cc5L4W5X.s 			page 38


1178:.\Generated_Source\PSoC5/Telit_UART.c ****     *
1179:.\Generated_Source\PSoC5/Telit_UART.c ****     * Parameters:
1180:.\Generated_Source\PSoC5/Telit_UART.c ****     *  string: char pointer to character string of Data to Send.
1181:.\Generated_Source\PSoC5/Telit_UART.c ****     *
1182:.\Generated_Source\PSoC5/Telit_UART.c ****     * Return:
1183:.\Generated_Source\PSoC5/Telit_UART.c ****     *  None.
1184:.\Generated_Source\PSoC5/Telit_UART.c ****     *
1185:.\Generated_Source\PSoC5/Telit_UART.c ****     * Global Variables:
1186:.\Generated_Source\PSoC5/Telit_UART.c ****     *  Telit_UART_initVar - checked to identify that the component has been
1187:.\Generated_Source\PSoC5/Telit_UART.c ****     *     initialized.
1188:.\Generated_Source\PSoC5/Telit_UART.c ****     *
1189:.\Generated_Source\PSoC5/Telit_UART.c ****     * Reentrant:
1190:.\Generated_Source\PSoC5/Telit_UART.c ****     *  No.
1191:.\Generated_Source\PSoC5/Telit_UART.c ****     *
1192:.\Generated_Source\PSoC5/Telit_UART.c ****     * Theory:
1193:.\Generated_Source\PSoC5/Telit_UART.c ****     *  This function will block if there is not enough memory to place the whole
1194:.\Generated_Source\PSoC5/Telit_UART.c ****     *  string, it will block until the entire string has been written to the
1195:.\Generated_Source\PSoC5/Telit_UART.c ****     *  transmit buffer.
1196:.\Generated_Source\PSoC5/Telit_UART.c ****     *
1197:.\Generated_Source\PSoC5/Telit_UART.c ****     *******************************************************************************/
1198:.\Generated_Source\PSoC5/Telit_UART.c ****     void Telit_UART_PutString(const char8 string[]) 
1199:.\Generated_Source\PSoC5/Telit_UART.c ****     {
 932              		.loc 1 1199 0
 933              		.cfi_startproc
 934              		@ args = 0, pretend = 0, frame = 16
 935              		@ frame_needed = 1, uses_anonymous_args = 0
 936 0000 80B5     		push	{r7, lr}
 937              		.cfi_def_cfa_offset 8
 938              		.cfi_offset 7, -8
 939              		.cfi_offset 14, -4
 940 0002 84B0     		sub	sp, sp, #16
 941              		.cfi_def_cfa_offset 24
 942 0004 00AF     		add	r7, sp, #0
 943              		.cfi_def_cfa_register 7
 944 0006 7860     		str	r0, [r7, #4]
1200:.\Generated_Source\PSoC5/Telit_UART.c ****         uint16 buf_index = 0u;
 945              		.loc 1 1200 0
 946 0008 0023     		movs	r3, #0
 947 000a FB81     		strh	r3, [r7, #14]	@ movhi
1201:.\Generated_Source\PSoC5/Telit_UART.c ****         /* If not Initialized then skip this function*/
1202:.\Generated_Source\PSoC5/Telit_UART.c ****         if(Telit_UART_initVar != 0u)
 948              		.loc 1 1202 0
 949 000c 0B4B     		ldr	r3, .L70
 950 000e 1B78     		ldrb	r3, [r3]	@ zero_extendqisi2
 951 0010 002B     		cmp	r3, #0
 952 0012 10D0     		beq	.L66
1203:.\Generated_Source\PSoC5/Telit_UART.c ****         {
1204:.\Generated_Source\PSoC5/Telit_UART.c ****             /* This is a blocking function, it will not exit until all data is sent*/
1205:.\Generated_Source\PSoC5/Telit_UART.c ****             while(string[buf_index] != (char8)0)
 953              		.loc 1 1205 0
 954 0014 09E0     		b	.L68
 955              	.L69:
1206:.\Generated_Source\PSoC5/Telit_UART.c ****             {
1207:.\Generated_Source\PSoC5/Telit_UART.c ****                 Telit_UART_PutChar((uint8)string[buf_index]);
 956              		.loc 1 1207 0
 957 0016 FB89     		ldrh	r3, [r7, #14]
 958 0018 7A68     		ldr	r2, [r7, #4]
ARM GAS  C:\Users\BRANKO~1\AppData\Local\Temp\cc5L4W5X.s 			page 39


 959 001a 1344     		add	r3, r3, r2
 960 001c 1B78     		ldrb	r3, [r3]	@ zero_extendqisi2
 961 001e 1846     		mov	r0, r3
 962 0020 FFF7FEFF 		bl	Telit_UART_PutChar
1208:.\Generated_Source\PSoC5/Telit_UART.c ****                 buf_index++;
 963              		.loc 1 1208 0
 964 0024 FB89     		ldrh	r3, [r7, #14]
 965 0026 0133     		adds	r3, r3, #1
 966 0028 FB81     		strh	r3, [r7, #14]	@ movhi
 967              	.L68:
1205:.\Generated_Source\PSoC5/Telit_UART.c ****             while(string[buf_index] != (char8)0)
 968              		.loc 1 1205 0 discriminator 1
 969 002a FB89     		ldrh	r3, [r7, #14]
 970 002c 7A68     		ldr	r2, [r7, #4]
 971 002e 1344     		add	r3, r3, r2
 972 0030 1B78     		ldrb	r3, [r3]	@ zero_extendqisi2
 973 0032 002B     		cmp	r3, #0
 974 0034 EFD1     		bne	.L69
 975              	.L66:
1209:.\Generated_Source\PSoC5/Telit_UART.c ****             }
1210:.\Generated_Source\PSoC5/Telit_UART.c ****         }
1211:.\Generated_Source\PSoC5/Telit_UART.c ****     }
 976              		.loc 1 1211 0
 977 0036 1037     		adds	r7, r7, #16
 978 0038 BD46     		mov	sp, r7
 979              		@ sp needed
 980 003a 80BD     		pop	{r7, pc}
 981              	.L71:
 982              		.align	2
 983              	.L70:
 984 003c 00000000 		.word	Telit_UART_initVar
 985              		.cfi_endproc
 986              	.LFE20:
 987              		.size	Telit_UART_PutString, .-Telit_UART_PutString
 988              		.section	.text.Telit_UART_PutArray,"ax",%progbits
 989              		.align	2
 990              		.global	Telit_UART_PutArray
 991              		.thumb
 992              		.thumb_func
 993              		.type	Telit_UART_PutArray, %function
 994              	Telit_UART_PutArray:
 995              	.LFB21:
1212:.\Generated_Source\PSoC5/Telit_UART.c **** 
1213:.\Generated_Source\PSoC5/Telit_UART.c **** 
1214:.\Generated_Source\PSoC5/Telit_UART.c ****     /*******************************************************************************
1215:.\Generated_Source\PSoC5/Telit_UART.c ****     * Function Name: Telit_UART_PutArray
1216:.\Generated_Source\PSoC5/Telit_UART.c ****     ********************************************************************************
1217:.\Generated_Source\PSoC5/Telit_UART.c ****     *
1218:.\Generated_Source\PSoC5/Telit_UART.c ****     * Summary:
1219:.\Generated_Source\PSoC5/Telit_UART.c ****     *  Write a Sequence of bytes on the Transmit line. Data comes from RAM or ROM.
1220:.\Generated_Source\PSoC5/Telit_UART.c ****     *
1221:.\Generated_Source\PSoC5/Telit_UART.c ****     * Parameters:
1222:.\Generated_Source\PSoC5/Telit_UART.c ****     *  string: Address of the memory array residing in RAM or ROM.
1223:.\Generated_Source\PSoC5/Telit_UART.c ****     *  byteCount: Number of Bytes to be transmitted.
1224:.\Generated_Source\PSoC5/Telit_UART.c ****     *
1225:.\Generated_Source\PSoC5/Telit_UART.c ****     * Return:
1226:.\Generated_Source\PSoC5/Telit_UART.c ****     *  None.
ARM GAS  C:\Users\BRANKO~1\AppData\Local\Temp\cc5L4W5X.s 			page 40


1227:.\Generated_Source\PSoC5/Telit_UART.c ****     *
1228:.\Generated_Source\PSoC5/Telit_UART.c ****     * Global Variables:
1229:.\Generated_Source\PSoC5/Telit_UART.c ****     *  Telit_UART_initVar - checked to identify that the component has been
1230:.\Generated_Source\PSoC5/Telit_UART.c ****     *     initialized.
1231:.\Generated_Source\PSoC5/Telit_UART.c ****     *
1232:.\Generated_Source\PSoC5/Telit_UART.c ****     * Reentrant:
1233:.\Generated_Source\PSoC5/Telit_UART.c ****     *  No.
1234:.\Generated_Source\PSoC5/Telit_UART.c ****     *
1235:.\Generated_Source\PSoC5/Telit_UART.c ****     *******************************************************************************/
1236:.\Generated_Source\PSoC5/Telit_UART.c ****     void Telit_UART_PutArray(const uint8 string[], uint8 byteCount)
1237:.\Generated_Source\PSoC5/Telit_UART.c ****                                                                     
1238:.\Generated_Source\PSoC5/Telit_UART.c ****     {
 996              		.loc 1 1238 0
 997              		.cfi_startproc
 998              		@ args = 0, pretend = 0, frame = 16
 999              		@ frame_needed = 1, uses_anonymous_args = 0
 1000 0000 80B5     		push	{r7, lr}
 1001              		.cfi_def_cfa_offset 8
 1002              		.cfi_offset 7, -8
 1003              		.cfi_offset 14, -4
 1004 0002 84B0     		sub	sp, sp, #16
 1005              		.cfi_def_cfa_offset 24
 1006 0004 00AF     		add	r7, sp, #0
 1007              		.cfi_def_cfa_register 7
 1008 0006 7860     		str	r0, [r7, #4]
 1009 0008 0B46     		mov	r3, r1
 1010 000a FB70     		strb	r3, [r7, #3]
1239:.\Generated_Source\PSoC5/Telit_UART.c ****         uint8 buf_index = 0u;
 1011              		.loc 1 1239 0
 1012 000c 0023     		movs	r3, #0
 1013 000e FB73     		strb	r3, [r7, #15]
1240:.\Generated_Source\PSoC5/Telit_UART.c ****         /* If not Initialized then skip this function*/
1241:.\Generated_Source\PSoC5/Telit_UART.c ****         if(Telit_UART_initVar != 0u)
 1014              		.loc 1 1241 0
 1015 0010 0A4B     		ldr	r3, .L75
 1016 0012 1B78     		ldrb	r3, [r3]	@ zero_extendqisi2
 1017 0014 002B     		cmp	r3, #0
 1018 0016 0DD0     		beq	.L72
 1019              	.L74:
1242:.\Generated_Source\PSoC5/Telit_UART.c ****         {
1243:.\Generated_Source\PSoC5/Telit_UART.c ****             do
1244:.\Generated_Source\PSoC5/Telit_UART.c ****             {
1245:.\Generated_Source\PSoC5/Telit_UART.c ****                 Telit_UART_PutChar(string[buf_index]);
 1020              		.loc 1 1245 0 discriminator 1
 1021 0018 FB7B     		ldrb	r3, [r7, #15]	@ zero_extendqisi2
 1022 001a 7A68     		ldr	r2, [r7, #4]
 1023 001c 1344     		add	r3, r3, r2
 1024 001e 1B78     		ldrb	r3, [r3]	@ zero_extendqisi2
 1025 0020 1846     		mov	r0, r3
 1026 0022 FFF7FEFF 		bl	Telit_UART_PutChar
1246:.\Generated_Source\PSoC5/Telit_UART.c ****                 buf_index++;
 1027              		.loc 1 1246 0 discriminator 1
 1028 0026 FB7B     		ldrb	r3, [r7, #15]	@ zero_extendqisi2
 1029 0028 0133     		adds	r3, r3, #1
 1030 002a FB73     		strb	r3, [r7, #15]
1247:.\Generated_Source\PSoC5/Telit_UART.c ****             }while(buf_index < byteCount);
 1031              		.loc 1 1247 0 discriminator 1
ARM GAS  C:\Users\BRANKO~1\AppData\Local\Temp\cc5L4W5X.s 			page 41


 1032 002c FA7B     		ldrb	r2, [r7, #15]	@ zero_extendqisi2
 1033 002e FB78     		ldrb	r3, [r7, #3]	@ zero_extendqisi2
 1034 0030 9A42     		cmp	r2, r3
 1035 0032 F1D3     		bcc	.L74
 1036              	.L72:
1248:.\Generated_Source\PSoC5/Telit_UART.c ****         }
1249:.\Generated_Source\PSoC5/Telit_UART.c ****     }
 1037              		.loc 1 1249 0
 1038 0034 1037     		adds	r7, r7, #16
 1039 0036 BD46     		mov	sp, r7
 1040              		@ sp needed
 1041 0038 80BD     		pop	{r7, pc}
 1042              	.L76:
 1043 003a 00BF     		.align	2
 1044              	.L75:
 1045 003c 00000000 		.word	Telit_UART_initVar
 1046              		.cfi_endproc
 1047              	.LFE21:
 1048              		.size	Telit_UART_PutArray, .-Telit_UART_PutArray
 1049              		.section	.text.Telit_UART_PutCRLF,"ax",%progbits
 1050              		.align	2
 1051              		.global	Telit_UART_PutCRLF
 1052              		.thumb
 1053              		.thumb_func
 1054              		.type	Telit_UART_PutCRLF, %function
 1055              	Telit_UART_PutCRLF:
 1056              	.LFB22:
1250:.\Generated_Source\PSoC5/Telit_UART.c **** 
1251:.\Generated_Source\PSoC5/Telit_UART.c **** 
1252:.\Generated_Source\PSoC5/Telit_UART.c ****     /*******************************************************************************
1253:.\Generated_Source\PSoC5/Telit_UART.c ****     * Function Name: Telit_UART_PutCRLF
1254:.\Generated_Source\PSoC5/Telit_UART.c ****     ********************************************************************************
1255:.\Generated_Source\PSoC5/Telit_UART.c ****     *
1256:.\Generated_Source\PSoC5/Telit_UART.c ****     * Summary:
1257:.\Generated_Source\PSoC5/Telit_UART.c ****     *  Write a character and then carriage return and line feed.
1258:.\Generated_Source\PSoC5/Telit_UART.c ****     *
1259:.\Generated_Source\PSoC5/Telit_UART.c ****     * Parameters:
1260:.\Generated_Source\PSoC5/Telit_UART.c ****     *  txDataByte: uint8 Character to send.
1261:.\Generated_Source\PSoC5/Telit_UART.c ****     *
1262:.\Generated_Source\PSoC5/Telit_UART.c ****     * Return:
1263:.\Generated_Source\PSoC5/Telit_UART.c ****     *  None.
1264:.\Generated_Source\PSoC5/Telit_UART.c ****     *
1265:.\Generated_Source\PSoC5/Telit_UART.c ****     * Global Variables:
1266:.\Generated_Source\PSoC5/Telit_UART.c ****     *  Telit_UART_initVar - checked to identify that the component has been
1267:.\Generated_Source\PSoC5/Telit_UART.c ****     *     initialized.
1268:.\Generated_Source\PSoC5/Telit_UART.c ****     *
1269:.\Generated_Source\PSoC5/Telit_UART.c ****     * Reentrant:
1270:.\Generated_Source\PSoC5/Telit_UART.c ****     *  No.
1271:.\Generated_Source\PSoC5/Telit_UART.c ****     *
1272:.\Generated_Source\PSoC5/Telit_UART.c ****     *******************************************************************************/
1273:.\Generated_Source\PSoC5/Telit_UART.c ****     void Telit_UART_PutCRLF(uint8 txDataByte) 
1274:.\Generated_Source\PSoC5/Telit_UART.c ****     {
 1057              		.loc 1 1274 0
 1058              		.cfi_startproc
 1059              		@ args = 0, pretend = 0, frame = 8
 1060              		@ frame_needed = 1, uses_anonymous_args = 0
 1061 0000 80B5     		push	{r7, lr}
ARM GAS  C:\Users\BRANKO~1\AppData\Local\Temp\cc5L4W5X.s 			page 42


 1062              		.cfi_def_cfa_offset 8
 1063              		.cfi_offset 7, -8
 1064              		.cfi_offset 14, -4
 1065 0002 82B0     		sub	sp, sp, #8
 1066              		.cfi_def_cfa_offset 16
 1067 0004 00AF     		add	r7, sp, #0
 1068              		.cfi_def_cfa_register 7
 1069 0006 0346     		mov	r3, r0
 1070 0008 FB71     		strb	r3, [r7, #7]
1275:.\Generated_Source\PSoC5/Telit_UART.c ****         /* If not Initialized then skip this function*/
1276:.\Generated_Source\PSoC5/Telit_UART.c ****         if(Telit_UART_initVar != 0u)
 1071              		.loc 1 1276 0
 1072 000a 084B     		ldr	r3, .L79
 1073 000c 1B78     		ldrb	r3, [r3]	@ zero_extendqisi2
 1074 000e 002B     		cmp	r3, #0
 1075 0010 09D0     		beq	.L77
1277:.\Generated_Source\PSoC5/Telit_UART.c ****         {
1278:.\Generated_Source\PSoC5/Telit_UART.c ****             Telit_UART_PutChar(txDataByte);
 1076              		.loc 1 1278 0
 1077 0012 FB79     		ldrb	r3, [r7, #7]	@ zero_extendqisi2
 1078 0014 1846     		mov	r0, r3
 1079 0016 FFF7FEFF 		bl	Telit_UART_PutChar
1279:.\Generated_Source\PSoC5/Telit_UART.c ****             Telit_UART_PutChar(0x0Du);
 1080              		.loc 1 1279 0
 1081 001a 0D20     		movs	r0, #13
 1082 001c FFF7FEFF 		bl	Telit_UART_PutChar
1280:.\Generated_Source\PSoC5/Telit_UART.c ****             Telit_UART_PutChar(0x0Au);
 1083              		.loc 1 1280 0
 1084 0020 0A20     		movs	r0, #10
 1085 0022 FFF7FEFF 		bl	Telit_UART_PutChar
 1086              	.L77:
1281:.\Generated_Source\PSoC5/Telit_UART.c ****         }
1282:.\Generated_Source\PSoC5/Telit_UART.c ****     }
 1087              		.loc 1 1282 0
 1088 0026 0837     		adds	r7, r7, #8
 1089 0028 BD46     		mov	sp, r7
 1090              		@ sp needed
 1091 002a 80BD     		pop	{r7, pc}
 1092              	.L80:
 1093              		.align	2
 1094              	.L79:
 1095 002c 00000000 		.word	Telit_UART_initVar
 1096              		.cfi_endproc
 1097              	.LFE22:
 1098              		.size	Telit_UART_PutCRLF, .-Telit_UART_PutCRLF
 1099              		.section	.text.Telit_UART_GetTxBufferSize,"ax",%progbits
 1100              		.align	2
 1101              		.global	Telit_UART_GetTxBufferSize
 1102              		.thumb
 1103              		.thumb_func
 1104              		.type	Telit_UART_GetTxBufferSize, %function
 1105              	Telit_UART_GetTxBufferSize:
 1106              	.LFB23:
1283:.\Generated_Source\PSoC5/Telit_UART.c **** 
1284:.\Generated_Source\PSoC5/Telit_UART.c **** 
1285:.\Generated_Source\PSoC5/Telit_UART.c ****     /*******************************************************************************
1286:.\Generated_Source\PSoC5/Telit_UART.c ****     * Function Name: Telit_UART_GetTxBufferSize
ARM GAS  C:\Users\BRANKO~1\AppData\Local\Temp\cc5L4W5X.s 			page 43


1287:.\Generated_Source\PSoC5/Telit_UART.c ****     ********************************************************************************
1288:.\Generated_Source\PSoC5/Telit_UART.c ****     *
1289:.\Generated_Source\PSoC5/Telit_UART.c ****     * Summary:
1290:.\Generated_Source\PSoC5/Telit_UART.c ****     *  Determine the amount of space left in the TX buffer and return the count in
1291:.\Generated_Source\PSoC5/Telit_UART.c ****     *  bytes
1292:.\Generated_Source\PSoC5/Telit_UART.c ****     *
1293:.\Generated_Source\PSoC5/Telit_UART.c ****     * Parameters:
1294:.\Generated_Source\PSoC5/Telit_UART.c ****     *  None.
1295:.\Generated_Source\PSoC5/Telit_UART.c ****     *
1296:.\Generated_Source\PSoC5/Telit_UART.c ****     * Return:
1297:.\Generated_Source\PSoC5/Telit_UART.c ****     *  Integer count of the number of bytes left in the TX buffer
1298:.\Generated_Source\PSoC5/Telit_UART.c ****     *
1299:.\Generated_Source\PSoC5/Telit_UART.c ****     * Global Variables:
1300:.\Generated_Source\PSoC5/Telit_UART.c ****     *  Telit_UART_txBufferWrite - used to calculate left space.
1301:.\Generated_Source\PSoC5/Telit_UART.c ****     *  Telit_UART_txBufferRead - used to calculate left space.
1302:.\Generated_Source\PSoC5/Telit_UART.c ****     *
1303:.\Generated_Source\PSoC5/Telit_UART.c ****     * Reentrant:
1304:.\Generated_Source\PSoC5/Telit_UART.c ****     *  No.
1305:.\Generated_Source\PSoC5/Telit_UART.c ****     *
1306:.\Generated_Source\PSoC5/Telit_UART.c ****     * Theory:
1307:.\Generated_Source\PSoC5/Telit_UART.c ****     *  Allows the user to find out how full the TX Buffer is.
1308:.\Generated_Source\PSoC5/Telit_UART.c ****     *
1309:.\Generated_Source\PSoC5/Telit_UART.c ****     *******************************************************************************/
1310:.\Generated_Source\PSoC5/Telit_UART.c ****     uint8 Telit_UART_GetTxBufferSize(void)
1311:.\Generated_Source\PSoC5/Telit_UART.c ****                                                             
1312:.\Generated_Source\PSoC5/Telit_UART.c ****     {
 1107              		.loc 1 1312 0
 1108              		.cfi_startproc
 1109              		@ args = 0, pretend = 0, frame = 8
 1110              		@ frame_needed = 1, uses_anonymous_args = 0
 1111              		@ link register save eliminated.
 1112 0000 80B4     		push	{r7}
 1113              		.cfi_def_cfa_offset 4
 1114              		.cfi_offset 7, -4
 1115 0002 83B0     		sub	sp, sp, #12
 1116              		.cfi_def_cfa_offset 16
 1117 0004 00AF     		add	r7, sp, #0
 1118              		.cfi_def_cfa_register 7
1313:.\Generated_Source\PSoC5/Telit_UART.c ****         uint8 size;
1314:.\Generated_Source\PSoC5/Telit_UART.c **** 
1315:.\Generated_Source\PSoC5/Telit_UART.c ****         #if(Telit_UART_TXBUFFERSIZE > Telit_UART_FIFO_LENGTH)
1316:.\Generated_Source\PSoC5/Telit_UART.c **** 
1317:.\Generated_Source\PSoC5/Telit_UART.c ****             /* Disable Tx interrupt. */
1318:.\Generated_Source\PSoC5/Telit_UART.c ****             /* Protect variables that could change on interrupt. */
1319:.\Generated_Source\PSoC5/Telit_UART.c ****             #if(Telit_UART_TX_INTERRUPT_ENABLED)
1320:.\Generated_Source\PSoC5/Telit_UART.c ****                 Telit_UART_DisableTxInt();
1321:.\Generated_Source\PSoC5/Telit_UART.c ****             #endif /* End Telit_UART_TX_INTERRUPT_ENABLED */
1322:.\Generated_Source\PSoC5/Telit_UART.c **** 
1323:.\Generated_Source\PSoC5/Telit_UART.c ****             if(Telit_UART_txBufferRead == Telit_UART_txBufferWrite)
1324:.\Generated_Source\PSoC5/Telit_UART.c ****             {
1325:.\Generated_Source\PSoC5/Telit_UART.c ****                 size = 0u;
1326:.\Generated_Source\PSoC5/Telit_UART.c ****             }
1327:.\Generated_Source\PSoC5/Telit_UART.c ****             else if(Telit_UART_txBufferRead < Telit_UART_txBufferWrite)
1328:.\Generated_Source\PSoC5/Telit_UART.c ****             {
1329:.\Generated_Source\PSoC5/Telit_UART.c ****                 size = (Telit_UART_txBufferWrite - Telit_UART_txBufferRead);
1330:.\Generated_Source\PSoC5/Telit_UART.c ****             }
1331:.\Generated_Source\PSoC5/Telit_UART.c ****             else
ARM GAS  C:\Users\BRANKO~1\AppData\Local\Temp\cc5L4W5X.s 			page 44


1332:.\Generated_Source\PSoC5/Telit_UART.c ****             {
1333:.\Generated_Source\PSoC5/Telit_UART.c ****                 size = (Telit_UART_TXBUFFERSIZE - Telit_UART_txBufferRead) + Telit_UART_txBufferWri
1334:.\Generated_Source\PSoC5/Telit_UART.c ****             }
1335:.\Generated_Source\PSoC5/Telit_UART.c **** 
1336:.\Generated_Source\PSoC5/Telit_UART.c ****             /* Enable Tx interrupt. */
1337:.\Generated_Source\PSoC5/Telit_UART.c ****             #if(Telit_UART_TX_INTERRUPT_ENABLED)
1338:.\Generated_Source\PSoC5/Telit_UART.c ****                 Telit_UART_EnableTxInt();
1339:.\Generated_Source\PSoC5/Telit_UART.c ****             #endif /* End Telit_UART_TX_INTERRUPT_ENABLED */
1340:.\Generated_Source\PSoC5/Telit_UART.c **** 
1341:.\Generated_Source\PSoC5/Telit_UART.c ****         #else /* Telit_UART_TXBUFFERSIZE > Telit_UART_FIFO_LENGTH */
1342:.\Generated_Source\PSoC5/Telit_UART.c **** 
1343:.\Generated_Source\PSoC5/Telit_UART.c ****             size = Telit_UART_TXSTATUS_REG;
 1119              		.loc 1 1343 0
 1120 0006 0E4B     		ldr	r3, .L86
 1121 0008 1B78     		ldrb	r3, [r3]
 1122 000a FB71     		strb	r3, [r7, #7]
1344:.\Generated_Source\PSoC5/Telit_UART.c **** 
1345:.\Generated_Source\PSoC5/Telit_UART.c ****             /* Is the fifo is full. */
1346:.\Generated_Source\PSoC5/Telit_UART.c ****             if((size & Telit_UART_TX_STS_FIFO_FULL) != 0u)
 1123              		.loc 1 1346 0
 1124 000c FB79     		ldrb	r3, [r7, #7]	@ zero_extendqisi2
 1125 000e 03F00403 		and	r3, r3, #4
 1126 0012 002B     		cmp	r3, #0
 1127 0014 02D0     		beq	.L82
1347:.\Generated_Source\PSoC5/Telit_UART.c ****             {
1348:.\Generated_Source\PSoC5/Telit_UART.c ****                 size = Telit_UART_FIFO_LENGTH;
 1128              		.loc 1 1348 0
 1129 0016 0423     		movs	r3, #4
 1130 0018 FB71     		strb	r3, [r7, #7]
 1131 001a 09E0     		b	.L83
 1132              	.L82:
1349:.\Generated_Source\PSoC5/Telit_UART.c ****             }
1350:.\Generated_Source\PSoC5/Telit_UART.c ****             else if((size & Telit_UART_TX_STS_FIFO_EMPTY) != 0u)
 1133              		.loc 1 1350 0
 1134 001c FB79     		ldrb	r3, [r7, #7]	@ zero_extendqisi2
 1135 001e 03F00203 		and	r3, r3, #2
 1136 0022 002B     		cmp	r3, #0
 1137 0024 02D0     		beq	.L84
1351:.\Generated_Source\PSoC5/Telit_UART.c ****             {
1352:.\Generated_Source\PSoC5/Telit_UART.c ****                 size = 0u;
 1138              		.loc 1 1352 0
 1139 0026 0023     		movs	r3, #0
 1140 0028 FB71     		strb	r3, [r7, #7]
 1141 002a 01E0     		b	.L83
 1142              	.L84:
1353:.\Generated_Source\PSoC5/Telit_UART.c ****             }
1354:.\Generated_Source\PSoC5/Telit_UART.c ****             else
1355:.\Generated_Source\PSoC5/Telit_UART.c ****             {
1356:.\Generated_Source\PSoC5/Telit_UART.c ****                 /* We only know there is data in the fifo. */
1357:.\Generated_Source\PSoC5/Telit_UART.c ****                 size = 1u;
 1143              		.loc 1 1357 0
 1144 002c 0123     		movs	r3, #1
 1145 002e FB71     		strb	r3, [r7, #7]
 1146              	.L83:
1358:.\Generated_Source\PSoC5/Telit_UART.c ****             }
1359:.\Generated_Source\PSoC5/Telit_UART.c **** 
1360:.\Generated_Source\PSoC5/Telit_UART.c ****         #endif /* End Telit_UART_TXBUFFERSIZE > Telit_UART_FIFO_LENGTH */
ARM GAS  C:\Users\BRANKO~1\AppData\Local\Temp\cc5L4W5X.s 			page 45


1361:.\Generated_Source\PSoC5/Telit_UART.c **** 
1362:.\Generated_Source\PSoC5/Telit_UART.c ****         return(size);
 1147              		.loc 1 1362 0
 1148 0030 FB79     		ldrb	r3, [r7, #7]	@ zero_extendqisi2
1363:.\Generated_Source\PSoC5/Telit_UART.c ****     }
 1149              		.loc 1 1363 0
 1150 0032 1846     		mov	r0, r3
 1151 0034 0C37     		adds	r7, r7, #12
 1152 0036 BD46     		mov	sp, r7
 1153              		@ sp needed
 1154 0038 5DF8047B 		ldr	r7, [sp], #4
 1155 003c 7047     		bx	lr
 1156              	.L87:
 1157 003e 00BF     		.align	2
 1158              	.L86:
 1159 0040 64650040 		.word	1073767780
 1160              		.cfi_endproc
 1161              	.LFE23:
 1162              		.size	Telit_UART_GetTxBufferSize, .-Telit_UART_GetTxBufferSize
 1163              		.section	.text.Telit_UART_ClearTxBuffer,"ax",%progbits
 1164              		.align	2
 1165              		.global	Telit_UART_ClearTxBuffer
 1166              		.thumb
 1167              		.thumb_func
 1168              		.type	Telit_UART_ClearTxBuffer, %function
 1169              	Telit_UART_ClearTxBuffer:
 1170              	.LFB24:
1364:.\Generated_Source\PSoC5/Telit_UART.c **** 
1365:.\Generated_Source\PSoC5/Telit_UART.c **** 
1366:.\Generated_Source\PSoC5/Telit_UART.c ****     /*******************************************************************************
1367:.\Generated_Source\PSoC5/Telit_UART.c ****     * Function Name: Telit_UART_ClearTxBuffer
1368:.\Generated_Source\PSoC5/Telit_UART.c ****     ********************************************************************************
1369:.\Generated_Source\PSoC5/Telit_UART.c ****     *
1370:.\Generated_Source\PSoC5/Telit_UART.c ****     * Summary:
1371:.\Generated_Source\PSoC5/Telit_UART.c ****     *  Clears the TX RAM buffer by setting the read and write pointers both to zero.
1372:.\Generated_Source\PSoC5/Telit_UART.c ****     *  Clears the hardware TX FIFO.  Any data present in the FIFO will not be sent.
1373:.\Generated_Source\PSoC5/Telit_UART.c ****     *
1374:.\Generated_Source\PSoC5/Telit_UART.c ****     * Parameters:
1375:.\Generated_Source\PSoC5/Telit_UART.c ****     *  None.
1376:.\Generated_Source\PSoC5/Telit_UART.c ****     *
1377:.\Generated_Source\PSoC5/Telit_UART.c ****     * Return:
1378:.\Generated_Source\PSoC5/Telit_UART.c ****     *  None.
1379:.\Generated_Source\PSoC5/Telit_UART.c ****     *
1380:.\Generated_Source\PSoC5/Telit_UART.c ****     * Global Variables:
1381:.\Generated_Source\PSoC5/Telit_UART.c ****     *  Telit_UART_txBufferWrite - cleared to zero.
1382:.\Generated_Source\PSoC5/Telit_UART.c ****     *  Telit_UART_txBufferRead - cleared to zero.
1383:.\Generated_Source\PSoC5/Telit_UART.c ****     *
1384:.\Generated_Source\PSoC5/Telit_UART.c ****     * Reentrant:
1385:.\Generated_Source\PSoC5/Telit_UART.c ****     *  No.
1386:.\Generated_Source\PSoC5/Telit_UART.c ****     *
1387:.\Generated_Source\PSoC5/Telit_UART.c ****     * Theory:
1388:.\Generated_Source\PSoC5/Telit_UART.c ****     *  Setting the pointers to zero makes the system believe there is no data to
1389:.\Generated_Source\PSoC5/Telit_UART.c ****     *  read and writing will resume at address 0 overwriting any data that may have
1390:.\Generated_Source\PSoC5/Telit_UART.c ****     *  remained in the RAM.
1391:.\Generated_Source\PSoC5/Telit_UART.c ****     *
1392:.\Generated_Source\PSoC5/Telit_UART.c ****     * Side Effects:
1393:.\Generated_Source\PSoC5/Telit_UART.c ****     *  Any received data not read from the RAM buffer will be lost when overwritten.
ARM GAS  C:\Users\BRANKO~1\AppData\Local\Temp\cc5L4W5X.s 			page 46


1394:.\Generated_Source\PSoC5/Telit_UART.c ****     *
1395:.\Generated_Source\PSoC5/Telit_UART.c ****     *******************************************************************************/
1396:.\Generated_Source\PSoC5/Telit_UART.c ****     void Telit_UART_ClearTxBuffer(void) 
1397:.\Generated_Source\PSoC5/Telit_UART.c ****     {
 1171              		.loc 1 1397 0
 1172              		.cfi_startproc
 1173              		@ args = 0, pretend = 0, frame = 8
 1174              		@ frame_needed = 1, uses_anonymous_args = 0
 1175 0000 80B5     		push	{r7, lr}
 1176              		.cfi_def_cfa_offset 8
 1177              		.cfi_offset 7, -8
 1178              		.cfi_offset 14, -4
 1179 0002 82B0     		sub	sp, sp, #8
 1180              		.cfi_def_cfa_offset 16
 1181 0004 00AF     		add	r7, sp, #0
 1182              		.cfi_def_cfa_register 7
1398:.\Generated_Source\PSoC5/Telit_UART.c ****         uint8 enableInterrupts;
1399:.\Generated_Source\PSoC5/Telit_UART.c **** 
1400:.\Generated_Source\PSoC5/Telit_UART.c ****         /* Enter critical section */
1401:.\Generated_Source\PSoC5/Telit_UART.c ****         enableInterrupts = CyEnterCriticalSection();
 1183              		.loc 1 1401 0
 1184 0006 FFF7FEFF 		bl	CyEnterCriticalSection
 1185 000a 0346     		mov	r3, r0
 1186 000c FB71     		strb	r3, [r7, #7]
1402:.\Generated_Source\PSoC5/Telit_UART.c ****         /* clear the HW FIFO */
1403:.\Generated_Source\PSoC5/Telit_UART.c ****         Telit_UART_TXDATA_AUX_CTL_REG |=  Telit_UART_TX_FIFO_CLR;
 1187              		.loc 1 1403 0
 1188 000e 0B4B     		ldr	r3, .L89
 1189 0010 0A4A     		ldr	r2, .L89
 1190 0012 1278     		ldrb	r2, [r2]
 1191 0014 D2B2     		uxtb	r2, r2
 1192 0016 42F00102 		orr	r2, r2, #1
 1193 001a D2B2     		uxtb	r2, r2
 1194 001c 1A70     		strb	r2, [r3]
1404:.\Generated_Source\PSoC5/Telit_UART.c ****         Telit_UART_TXDATA_AUX_CTL_REG &= (uint8)~Telit_UART_TX_FIFO_CLR;
 1195              		.loc 1 1404 0
 1196 001e 074B     		ldr	r3, .L89
 1197 0020 064A     		ldr	r2, .L89
 1198 0022 1278     		ldrb	r2, [r2]
 1199 0024 D2B2     		uxtb	r2, r2
 1200 0026 22F00102 		bic	r2, r2, #1
 1201 002a D2B2     		uxtb	r2, r2
 1202 002c 1A70     		strb	r2, [r3]
1405:.\Generated_Source\PSoC5/Telit_UART.c ****         /* Exit critical section */
1406:.\Generated_Source\PSoC5/Telit_UART.c ****         CyExitCriticalSection(enableInterrupts);
 1203              		.loc 1 1406 0
 1204 002e FB79     		ldrb	r3, [r7, #7]	@ zero_extendqisi2
 1205 0030 1846     		mov	r0, r3
 1206 0032 FFF7FEFF 		bl	CyExitCriticalSection
1407:.\Generated_Source\PSoC5/Telit_UART.c **** 
1408:.\Generated_Source\PSoC5/Telit_UART.c ****         #if(Telit_UART_TXBUFFERSIZE > Telit_UART_FIFO_LENGTH)
1409:.\Generated_Source\PSoC5/Telit_UART.c **** 
1410:.\Generated_Source\PSoC5/Telit_UART.c ****             /* Disable Tx interrupt. */
1411:.\Generated_Source\PSoC5/Telit_UART.c ****             /* Protect variables that could change on interrupt. */
1412:.\Generated_Source\PSoC5/Telit_UART.c ****             #if(Telit_UART_TX_INTERRUPT_ENABLED)
1413:.\Generated_Source\PSoC5/Telit_UART.c ****                 Telit_UART_DisableTxInt();
1414:.\Generated_Source\PSoC5/Telit_UART.c ****             #endif /* End Telit_UART_TX_INTERRUPT_ENABLED */
ARM GAS  C:\Users\BRANKO~1\AppData\Local\Temp\cc5L4W5X.s 			page 47


1415:.\Generated_Source\PSoC5/Telit_UART.c **** 
1416:.\Generated_Source\PSoC5/Telit_UART.c ****             Telit_UART_txBufferRead = 0u;
1417:.\Generated_Source\PSoC5/Telit_UART.c ****             Telit_UART_txBufferWrite = 0u;
1418:.\Generated_Source\PSoC5/Telit_UART.c **** 
1419:.\Generated_Source\PSoC5/Telit_UART.c ****             /* Enable Tx interrupt. */
1420:.\Generated_Source\PSoC5/Telit_UART.c ****             #if(Telit_UART_TX_INTERRUPT_ENABLED)
1421:.\Generated_Source\PSoC5/Telit_UART.c ****                 Telit_UART_EnableTxInt();
1422:.\Generated_Source\PSoC5/Telit_UART.c ****             #endif /* End Telit_UART_TX_INTERRUPT_ENABLED */
1423:.\Generated_Source\PSoC5/Telit_UART.c **** 
1424:.\Generated_Source\PSoC5/Telit_UART.c ****         #endif /* End Telit_UART_TXBUFFERSIZE > Telit_UART_FIFO_LENGTH */
1425:.\Generated_Source\PSoC5/Telit_UART.c ****     }
 1207              		.loc 1 1425 0
 1208 0036 0837     		adds	r7, r7, #8
 1209 0038 BD46     		mov	sp, r7
 1210              		@ sp needed
 1211 003a 80BD     		pop	{r7, pc}
 1212              	.L90:
 1213              		.align	2
 1214              	.L89:
 1215 003c 97640040 		.word	1073767575
 1216              		.cfi_endproc
 1217              	.LFE24:
 1218              		.size	Telit_UART_ClearTxBuffer, .-Telit_UART_ClearTxBuffer
 1219              		.section	.text.Telit_UART_SendBreak,"ax",%progbits
 1220              		.align	2
 1221              		.global	Telit_UART_SendBreak
 1222              		.thumb
 1223              		.thumb_func
 1224              		.type	Telit_UART_SendBreak, %function
 1225              	Telit_UART_SendBreak:
 1226              	.LFB25:
1426:.\Generated_Source\PSoC5/Telit_UART.c **** 
1427:.\Generated_Source\PSoC5/Telit_UART.c **** 
1428:.\Generated_Source\PSoC5/Telit_UART.c ****     /*******************************************************************************
1429:.\Generated_Source\PSoC5/Telit_UART.c ****     * Function Name: Telit_UART_SendBreak
1430:.\Generated_Source\PSoC5/Telit_UART.c ****     ********************************************************************************
1431:.\Generated_Source\PSoC5/Telit_UART.c ****     *
1432:.\Generated_Source\PSoC5/Telit_UART.c ****     * Summary:
1433:.\Generated_Source\PSoC5/Telit_UART.c ****     *  Write a Break command to the UART
1434:.\Generated_Source\PSoC5/Telit_UART.c ****     *
1435:.\Generated_Source\PSoC5/Telit_UART.c ****     * Parameters:
1436:.\Generated_Source\PSoC5/Telit_UART.c ****     *  uint8 retMode:  Wait mode,
1437:.\Generated_Source\PSoC5/Telit_UART.c ****     *   0 - Initialize registers for Break, sends the Break signal and return
1438:.\Generated_Source\PSoC5/Telit_UART.c ****     *       imediately.
1439:.\Generated_Source\PSoC5/Telit_UART.c ****     *   1 - Wait until Break sending is complete, reinitialize registers to normal
1440:.\Generated_Source\PSoC5/Telit_UART.c ****     *       transmission mode then return.
1441:.\Generated_Source\PSoC5/Telit_UART.c ****     *   2 - Reinitialize registers to normal transmission mode then return.
1442:.\Generated_Source\PSoC5/Telit_UART.c ****     *   3 - both steps: 0 and 1
1443:.\Generated_Source\PSoC5/Telit_UART.c ****     *       init registers for Break, send Break signal
1444:.\Generated_Source\PSoC5/Telit_UART.c ****     *       wait until Break sending is complete, reinit registers to normal
1445:.\Generated_Source\PSoC5/Telit_UART.c ****     *       transmission mode then return.
1446:.\Generated_Source\PSoC5/Telit_UART.c ****     *
1447:.\Generated_Source\PSoC5/Telit_UART.c ****     * Return:
1448:.\Generated_Source\PSoC5/Telit_UART.c ****     *  None.
1449:.\Generated_Source\PSoC5/Telit_UART.c ****     *
1450:.\Generated_Source\PSoC5/Telit_UART.c ****     * Global Variables:
1451:.\Generated_Source\PSoC5/Telit_UART.c ****     *  Telit_UART_initVar - checked to identify that the component has been
ARM GAS  C:\Users\BRANKO~1\AppData\Local\Temp\cc5L4W5X.s 			page 48


1452:.\Generated_Source\PSoC5/Telit_UART.c ****     *     initialized.
1453:.\Generated_Source\PSoC5/Telit_UART.c ****     *  tx_period - static variable, used for keeping TX period configuration.
1454:.\Generated_Source\PSoC5/Telit_UART.c ****     *
1455:.\Generated_Source\PSoC5/Telit_UART.c ****     * Reentrant:
1456:.\Generated_Source\PSoC5/Telit_UART.c ****     *  No.
1457:.\Generated_Source\PSoC5/Telit_UART.c ****     *
1458:.\Generated_Source\PSoC5/Telit_UART.c ****     * Theory:
1459:.\Generated_Source\PSoC5/Telit_UART.c ****     *  SendBreak function initializes registers to send 13-bit break signal. It is
1460:.\Generated_Source\PSoC5/Telit_UART.c ****     *  important to return the registers configuration to normal for continue 8-bit
1461:.\Generated_Source\PSoC5/Telit_UART.c ****     *  operation.
1462:.\Generated_Source\PSoC5/Telit_UART.c ****     *  Trere are 3 variants for this API usage:
1463:.\Generated_Source\PSoC5/Telit_UART.c ****     *  1) SendBreak(3) - function will send the Break signal and take care on the
1464:.\Generated_Source\PSoC5/Telit_UART.c ****     *     configuration returning. Funcition will block CPU untill transmition
1465:.\Generated_Source\PSoC5/Telit_UART.c ****     *     complete.
1466:.\Generated_Source\PSoC5/Telit_UART.c ****     *  2) User may want to use bloking time if UART configured to the low speed
1467:.\Generated_Source\PSoC5/Telit_UART.c ****     *     operation
1468:.\Generated_Source\PSoC5/Telit_UART.c ****     *     Emample for this case:
1469:.\Generated_Source\PSoC5/Telit_UART.c ****     *     SendBreak(0);     - init Break signal transmition
1470:.\Generated_Source\PSoC5/Telit_UART.c ****     *         Add your code here to use CPU time
1471:.\Generated_Source\PSoC5/Telit_UART.c ****     *     SendBreak(1);     - complete Break operation
1472:.\Generated_Source\PSoC5/Telit_UART.c ****     *  3) Same to 2) but user may want to init and use the interrupt for complete
1473:.\Generated_Source\PSoC5/Telit_UART.c ****     *     break operation.
1474:.\Generated_Source\PSoC5/Telit_UART.c ****     *     Example for this case:
1475:.\Generated_Source\PSoC5/Telit_UART.c ****     *     Init TX interrupt whith "TX - On TX Complete" parameter
1476:.\Generated_Source\PSoC5/Telit_UART.c ****     *     SendBreak(0);     - init Break signal transmition
1477:.\Generated_Source\PSoC5/Telit_UART.c ****     *         Add your code here to use CPU time
1478:.\Generated_Source\PSoC5/Telit_UART.c ****     *     When interrupt appear with UART_TX_STS_COMPLETE status:
1479:.\Generated_Source\PSoC5/Telit_UART.c ****     *     SendBreak(2);     - complete Break operation
1480:.\Generated_Source\PSoC5/Telit_UART.c ****     *
1481:.\Generated_Source\PSoC5/Telit_UART.c ****     * Side Effects:
1482:.\Generated_Source\PSoC5/Telit_UART.c ****     *   Uses static variable to keep registers configuration.
1483:.\Generated_Source\PSoC5/Telit_UART.c ****     *
1484:.\Generated_Source\PSoC5/Telit_UART.c ****     *******************************************************************************/
1485:.\Generated_Source\PSoC5/Telit_UART.c ****     void Telit_UART_SendBreak(uint8 retMode) 
1486:.\Generated_Source\PSoC5/Telit_UART.c ****     {
 1227              		.loc 1 1486 0
 1228              		.cfi_startproc
 1229              		@ args = 0, pretend = 0, frame = 16
 1230              		@ frame_needed = 1, uses_anonymous_args = 0
 1231              		@ link register save eliminated.
 1232 0000 80B4     		push	{r7}
 1233              		.cfi_def_cfa_offset 4
 1234              		.cfi_offset 7, -4
 1235 0002 85B0     		sub	sp, sp, #20
 1236              		.cfi_def_cfa_offset 24
 1237 0004 00AF     		add	r7, sp, #0
 1238              		.cfi_def_cfa_register 7
 1239 0006 0346     		mov	r3, r0
 1240 0008 FB71     		strb	r3, [r7, #7]
1487:.\Generated_Source\PSoC5/Telit_UART.c **** 
1488:.\Generated_Source\PSoC5/Telit_UART.c ****         /* If not Initialized then skip this function*/
1489:.\Generated_Source\PSoC5/Telit_UART.c ****         if(Telit_UART_initVar != 0u)
 1241              		.loc 1 1489 0
 1242 000a 1F4B     		ldr	r3, .L99
 1243 000c 1B78     		ldrb	r3, [r3]	@ zero_extendqisi2
 1244 000e 002B     		cmp	r3, #0
 1245 0010 35D0     		beq	.L91
ARM GAS  C:\Users\BRANKO~1\AppData\Local\Temp\cc5L4W5X.s 			page 49


 1246              	.LBB2:
1490:.\Generated_Source\PSoC5/Telit_UART.c ****         {
1491:.\Generated_Source\PSoC5/Telit_UART.c ****             /*Set the Counter to 13-bits and transmit a 00 byte*/
1492:.\Generated_Source\PSoC5/Telit_UART.c ****             /*When that is done then reset the counter value back*/
1493:.\Generated_Source\PSoC5/Telit_UART.c ****             uint8 tmpStat;
1494:.\Generated_Source\PSoC5/Telit_UART.c **** 
1495:.\Generated_Source\PSoC5/Telit_UART.c ****             #if(Telit_UART_HD_ENABLED) /* Half Duplex mode*/
1496:.\Generated_Source\PSoC5/Telit_UART.c **** 
1497:.\Generated_Source\PSoC5/Telit_UART.c ****                 if( (retMode == Telit_UART_SEND_BREAK) ||
1498:.\Generated_Source\PSoC5/Telit_UART.c ****                     (retMode == Telit_UART_SEND_WAIT_REINIT ) )
1499:.\Generated_Source\PSoC5/Telit_UART.c ****                 {
1500:.\Generated_Source\PSoC5/Telit_UART.c ****                     /* CTRL_HD_SEND_BREAK - sends break bits in HD mode*/
1501:.\Generated_Source\PSoC5/Telit_UART.c ****                     Telit_UART_WriteControlRegister(Telit_UART_ReadControlRegister() |
1502:.\Generated_Source\PSoC5/Telit_UART.c ****                                                           Telit_UART_CTRL_HD_SEND_BREAK);
1503:.\Generated_Source\PSoC5/Telit_UART.c ****                     /* Send zeros*/
1504:.\Generated_Source\PSoC5/Telit_UART.c ****                     Telit_UART_TXDATA_REG = 0u;
1505:.\Generated_Source\PSoC5/Telit_UART.c **** 
1506:.\Generated_Source\PSoC5/Telit_UART.c ****                     do /*wait until transmit starts*/
1507:.\Generated_Source\PSoC5/Telit_UART.c ****                     {
1508:.\Generated_Source\PSoC5/Telit_UART.c ****                         tmpStat = Telit_UART_TXSTATUS_REG;
1509:.\Generated_Source\PSoC5/Telit_UART.c ****                     }while((tmpStat & Telit_UART_TX_STS_FIFO_EMPTY) != 0u);
1510:.\Generated_Source\PSoC5/Telit_UART.c ****                 }
1511:.\Generated_Source\PSoC5/Telit_UART.c **** 
1512:.\Generated_Source\PSoC5/Telit_UART.c ****                 if( (retMode == Telit_UART_WAIT_FOR_COMPLETE_REINIT) ||
1513:.\Generated_Source\PSoC5/Telit_UART.c ****                     (retMode == Telit_UART_SEND_WAIT_REINIT) )
1514:.\Generated_Source\PSoC5/Telit_UART.c ****                 {
1515:.\Generated_Source\PSoC5/Telit_UART.c ****                     do /*wait until transmit complete*/
1516:.\Generated_Source\PSoC5/Telit_UART.c ****                     {
1517:.\Generated_Source\PSoC5/Telit_UART.c ****                         tmpStat = Telit_UART_TXSTATUS_REG;
1518:.\Generated_Source\PSoC5/Telit_UART.c ****                     }while(((uint8)~tmpStat & Telit_UART_TX_STS_COMPLETE) != 0u);
1519:.\Generated_Source\PSoC5/Telit_UART.c ****                 }
1520:.\Generated_Source\PSoC5/Telit_UART.c **** 
1521:.\Generated_Source\PSoC5/Telit_UART.c ****                 if( (retMode == Telit_UART_WAIT_FOR_COMPLETE_REINIT) ||
1522:.\Generated_Source\PSoC5/Telit_UART.c ****                     (retMode == Telit_UART_REINIT) ||
1523:.\Generated_Source\PSoC5/Telit_UART.c ****                     (retMode == Telit_UART_SEND_WAIT_REINIT) )
1524:.\Generated_Source\PSoC5/Telit_UART.c ****                 {
1525:.\Generated_Source\PSoC5/Telit_UART.c ****                     Telit_UART_WriteControlRegister(Telit_UART_ReadControlRegister() &
1526:.\Generated_Source\PSoC5/Telit_UART.c ****                                                   (uint8)~Telit_UART_CTRL_HD_SEND_BREAK);
1527:.\Generated_Source\PSoC5/Telit_UART.c ****                 }
1528:.\Generated_Source\PSoC5/Telit_UART.c **** 
1529:.\Generated_Source\PSoC5/Telit_UART.c ****             #else /* Telit_UART_HD_ENABLED Full Duplex mode */
1530:.\Generated_Source\PSoC5/Telit_UART.c **** 
1531:.\Generated_Source\PSoC5/Telit_UART.c ****                 static uint8 tx_period;
1532:.\Generated_Source\PSoC5/Telit_UART.c **** 
1533:.\Generated_Source\PSoC5/Telit_UART.c ****                 if( (retMode == Telit_UART_SEND_BREAK) ||
 1247              		.loc 1 1533 0
 1248 0012 FB79     		ldrb	r3, [r7, #7]	@ zero_extendqisi2
 1249 0014 002B     		cmp	r3, #0
 1250 0016 02D0     		beq	.L93
 1251              		.loc 1 1533 0 is_stmt 0 discriminator 1
 1252 0018 FB79     		ldrb	r3, [r7, #7]	@ zero_extendqisi2
 1253 001a 032B     		cmp	r3, #3
 1254 001c 12D1     		bne	.L94
 1255              	.L93:
1534:.\Generated_Source\PSoC5/Telit_UART.c ****                     (retMode == Telit_UART_SEND_WAIT_REINIT) )
1535:.\Generated_Source\PSoC5/Telit_UART.c ****                 {
1536:.\Generated_Source\PSoC5/Telit_UART.c ****                     /* CTRL_HD_SEND_BREAK - skip to send parity bit at Break signal in Full Duplex 
ARM GAS  C:\Users\BRANKO~1\AppData\Local\Temp\cc5L4W5X.s 			page 50


1537:.\Generated_Source\PSoC5/Telit_UART.c ****                     #if( (Telit_UART_PARITY_TYPE != Telit_UART__B_UART__NONE_REVB) || \
1538:.\Generated_Source\PSoC5/Telit_UART.c ****                                         (Telit_UART_PARITY_TYPE_SW != 0u) )
1539:.\Generated_Source\PSoC5/Telit_UART.c ****                         Telit_UART_WriteControlRegister(Telit_UART_ReadControlRegister() |
1540:.\Generated_Source\PSoC5/Telit_UART.c ****                                                               Telit_UART_CTRL_HD_SEND_BREAK);
1541:.\Generated_Source\PSoC5/Telit_UART.c ****                     #endif /* End Telit_UART_PARITY_TYPE != Telit_UART__B_UART__NONE_REVB  */
1542:.\Generated_Source\PSoC5/Telit_UART.c **** 
1543:.\Generated_Source\PSoC5/Telit_UART.c ****                     #if(Telit_UART_TXCLKGEN_DP)
1544:.\Generated_Source\PSoC5/Telit_UART.c ****                         tx_period = Telit_UART_TXBITCLKTX_COMPLETE_REG;
 1256              		.loc 1 1544 0 is_stmt 1
 1257 001e 1B4B     		ldr	r3, .L99+4
 1258 0020 1B78     		ldrb	r3, [r3]
 1259 0022 DAB2     		uxtb	r2, r3
 1260 0024 1A4B     		ldr	r3, .L99+8
 1261 0026 1A70     		strb	r2, [r3]
1545:.\Generated_Source\PSoC5/Telit_UART.c ****                         Telit_UART_TXBITCLKTX_COMPLETE_REG = Telit_UART_TXBITCTR_BREAKBITS;
 1262              		.loc 1 1545 0
 1263 0028 184B     		ldr	r3, .L99+4
 1264 002a 6722     		movs	r2, #103
 1265 002c 1A70     		strb	r2, [r3]
1546:.\Generated_Source\PSoC5/Telit_UART.c ****                     #else
1547:.\Generated_Source\PSoC5/Telit_UART.c ****                         tx_period = Telit_UART_TXBITCTR_PERIOD_REG;
1548:.\Generated_Source\PSoC5/Telit_UART.c ****                         Telit_UART_TXBITCTR_PERIOD_REG = Telit_UART_TXBITCTR_BREAKBITS8X;
1549:.\Generated_Source\PSoC5/Telit_UART.c ****                     #endif /* End Telit_UART_TXCLKGEN_DP */
1550:.\Generated_Source\PSoC5/Telit_UART.c **** 
1551:.\Generated_Source\PSoC5/Telit_UART.c ****                     /* Send zeros*/
1552:.\Generated_Source\PSoC5/Telit_UART.c ****                     Telit_UART_TXDATA_REG = 0u;
 1266              		.loc 1 1552 0
 1267 002e 194B     		ldr	r3, .L99+12
 1268 0030 0022     		movs	r2, #0
 1269 0032 1A70     		strb	r2, [r3]
 1270              	.L95:
1553:.\Generated_Source\PSoC5/Telit_UART.c **** 
1554:.\Generated_Source\PSoC5/Telit_UART.c ****                     do /* wait until transmit starts */
1555:.\Generated_Source\PSoC5/Telit_UART.c ****                     {
1556:.\Generated_Source\PSoC5/Telit_UART.c ****                         tmpStat = Telit_UART_TXSTATUS_REG;
 1271              		.loc 1 1556 0 discriminator 1
 1272 0034 184B     		ldr	r3, .L99+16
 1273 0036 1B78     		ldrb	r3, [r3]
 1274 0038 FB73     		strb	r3, [r7, #15]
1557:.\Generated_Source\PSoC5/Telit_UART.c ****                     }while((tmpStat & Telit_UART_TX_STS_FIFO_EMPTY) != 0u);
 1275              		.loc 1 1557 0 discriminator 1
 1276 003a FB7B     		ldrb	r3, [r7, #15]	@ zero_extendqisi2
 1277 003c 03F00203 		and	r3, r3, #2
 1278 0040 002B     		cmp	r3, #0
 1279 0042 F7D1     		bne	.L95
 1280              	.L94:
1558:.\Generated_Source\PSoC5/Telit_UART.c ****                 }
1559:.\Generated_Source\PSoC5/Telit_UART.c **** 
1560:.\Generated_Source\PSoC5/Telit_UART.c ****                 if( (retMode == Telit_UART_WAIT_FOR_COMPLETE_REINIT) ||
 1281              		.loc 1 1560 0
 1282 0044 FB79     		ldrb	r3, [r7, #7]	@ zero_extendqisi2
 1283 0046 012B     		cmp	r3, #1
 1284 0048 02D0     		beq	.L96
 1285              		.loc 1 1560 0 is_stmt 0 discriminator 1
 1286 004a FB79     		ldrb	r3, [r7, #7]	@ zero_extendqisi2
 1287 004c 032B     		cmp	r3, #3
 1288 004e 09D1     		bne	.L97
ARM GAS  C:\Users\BRANKO~1\AppData\Local\Temp\cc5L4W5X.s 			page 51


 1289              	.L96:
1561:.\Generated_Source\PSoC5/Telit_UART.c ****                     (retMode == Telit_UART_SEND_WAIT_REINIT) )
1562:.\Generated_Source\PSoC5/Telit_UART.c ****                 {
1563:.\Generated_Source\PSoC5/Telit_UART.c ****                     do /*wait until transmit complete*/
1564:.\Generated_Source\PSoC5/Telit_UART.c ****                     {
1565:.\Generated_Source\PSoC5/Telit_UART.c ****                         tmpStat = Telit_UART_TXSTATUS_REG;
 1290              		.loc 1 1565 0 is_stmt 1 discriminator 1
 1291 0050 114B     		ldr	r3, .L99+16
 1292 0052 1B78     		ldrb	r3, [r3]
 1293 0054 FB73     		strb	r3, [r7, #15]
1566:.\Generated_Source\PSoC5/Telit_UART.c ****                     }while(((uint8)~tmpStat & Telit_UART_TX_STS_COMPLETE) != 0u);
 1294              		.loc 1 1566 0 discriminator 1
 1295 0056 FB7B     		ldrb	r3, [r7, #15]
 1296 0058 DB43     		mvns	r3, r3
 1297 005a DBB2     		uxtb	r3, r3
 1298 005c 03F00103 		and	r3, r3, #1
 1299 0060 002B     		cmp	r3, #0
 1300 0062 F5D1     		bne	.L96
 1301              	.L97:
1567:.\Generated_Source\PSoC5/Telit_UART.c ****                 }
1568:.\Generated_Source\PSoC5/Telit_UART.c **** 
1569:.\Generated_Source\PSoC5/Telit_UART.c ****                 if( (retMode == Telit_UART_WAIT_FOR_COMPLETE_REINIT) ||
 1302              		.loc 1 1569 0
 1303 0064 FB79     		ldrb	r3, [r7, #7]	@ zero_extendqisi2
 1304 0066 012B     		cmp	r3, #1
 1305 0068 05D0     		beq	.L98
 1306              		.loc 1 1569 0 is_stmt 0 discriminator 1
 1307 006a FB79     		ldrb	r3, [r7, #7]	@ zero_extendqisi2
 1308 006c 022B     		cmp	r3, #2
 1309 006e 02D0     		beq	.L98
1570:.\Generated_Source\PSoC5/Telit_UART.c ****                     (retMode == Telit_UART_REINIT) ||
 1310              		.loc 1 1570 0 is_stmt 1
 1311 0070 FB79     		ldrb	r3, [r7, #7]	@ zero_extendqisi2
 1312 0072 032B     		cmp	r3, #3
 1313 0074 03D1     		bne	.L91
 1314              	.L98:
1571:.\Generated_Source\PSoC5/Telit_UART.c ****                     (retMode == Telit_UART_SEND_WAIT_REINIT) )
1572:.\Generated_Source\PSoC5/Telit_UART.c ****                 {
1573:.\Generated_Source\PSoC5/Telit_UART.c **** 
1574:.\Generated_Source\PSoC5/Telit_UART.c ****                     #if(Telit_UART_TXCLKGEN_DP)
1575:.\Generated_Source\PSoC5/Telit_UART.c ****                         Telit_UART_TXBITCLKTX_COMPLETE_REG = tx_period;
 1315              		.loc 1 1575 0
 1316 0076 054B     		ldr	r3, .L99+4
 1317 0078 054A     		ldr	r2, .L99+8
 1318 007a 1278     		ldrb	r2, [r2]	@ zero_extendqisi2
 1319 007c 1A70     		strb	r2, [r3]
 1320              	.L91:
 1321              	.LBE2:
1576:.\Generated_Source\PSoC5/Telit_UART.c ****                     #else
1577:.\Generated_Source\PSoC5/Telit_UART.c ****                         Telit_UART_TXBITCTR_PERIOD_REG = tx_period;
1578:.\Generated_Source\PSoC5/Telit_UART.c ****                     #endif /* End Telit_UART_TXCLKGEN_DP */
1579:.\Generated_Source\PSoC5/Telit_UART.c **** 
1580:.\Generated_Source\PSoC5/Telit_UART.c ****                     #if( (Telit_UART_PARITY_TYPE != Telit_UART__B_UART__NONE_REVB) || \
1581:.\Generated_Source\PSoC5/Telit_UART.c ****                          (Telit_UART_PARITY_TYPE_SW != 0u) )
1582:.\Generated_Source\PSoC5/Telit_UART.c ****                         Telit_UART_WriteControlRegister(Telit_UART_ReadControlRegister() &
1583:.\Generated_Source\PSoC5/Telit_UART.c ****                                                       (uint8)~Telit_UART_CTRL_HD_SEND_BREAK);
1584:.\Generated_Source\PSoC5/Telit_UART.c ****                     #endif /* End Telit_UART_PARITY_TYPE != NONE */
ARM GAS  C:\Users\BRANKO~1\AppData\Local\Temp\cc5L4W5X.s 			page 52


1585:.\Generated_Source\PSoC5/Telit_UART.c ****                 }
1586:.\Generated_Source\PSoC5/Telit_UART.c ****             #endif    /* End Telit_UART_HD_ENABLED */
1587:.\Generated_Source\PSoC5/Telit_UART.c ****         }
1588:.\Generated_Source\PSoC5/Telit_UART.c ****     }
 1322              		.loc 1 1588 0
 1323 007e 1437     		adds	r7, r7, #20
 1324 0080 BD46     		mov	sp, r7
 1325              		@ sp needed
 1326 0082 5DF8047B 		ldr	r7, [sp], #4
 1327 0086 7047     		bx	lr
 1328              	.L100:
 1329              		.align	2
 1330              	.L99:
 1331 0088 00000000 		.word	Telit_UART_initVar
 1332 008c 34650040 		.word	1073767732
 1333 0090 01000000 		.word	tx_period.4989
 1334 0094 47640040 		.word	1073767495
 1335 0098 64650040 		.word	1073767780
 1336              		.cfi_endproc
 1337              	.LFE25:
 1338              		.size	Telit_UART_SendBreak, .-Telit_UART_SendBreak
 1339              		.section	.text.Telit_UART_SetTxAddressMode,"ax",%progbits
 1340              		.align	2
 1341              		.global	Telit_UART_SetTxAddressMode
 1342              		.thumb
 1343              		.thumb_func
 1344              		.type	Telit_UART_SetTxAddressMode, %function
 1345              	Telit_UART_SetTxAddressMode:
 1346              	.LFB26:
1589:.\Generated_Source\PSoC5/Telit_UART.c **** 
1590:.\Generated_Source\PSoC5/Telit_UART.c **** 
1591:.\Generated_Source\PSoC5/Telit_UART.c ****     /*******************************************************************************
1592:.\Generated_Source\PSoC5/Telit_UART.c ****     * Function Name: Telit_UART_SetTxAddressMode
1593:.\Generated_Source\PSoC5/Telit_UART.c ****     ********************************************************************************
1594:.\Generated_Source\PSoC5/Telit_UART.c ****     *
1595:.\Generated_Source\PSoC5/Telit_UART.c ****     * Summary:
1596:.\Generated_Source\PSoC5/Telit_UART.c ****     *  Set the transmit addressing mode
1597:.\Generated_Source\PSoC5/Telit_UART.c ****     *
1598:.\Generated_Source\PSoC5/Telit_UART.c ****     * Parameters:
1599:.\Generated_Source\PSoC5/Telit_UART.c ****     *  addressMode: 0 -> Space
1600:.\Generated_Source\PSoC5/Telit_UART.c ****     *               1 -> Mark
1601:.\Generated_Source\PSoC5/Telit_UART.c ****     *
1602:.\Generated_Source\PSoC5/Telit_UART.c ****     * Return:
1603:.\Generated_Source\PSoC5/Telit_UART.c ****     *  None.
1604:.\Generated_Source\PSoC5/Telit_UART.c ****     *
1605:.\Generated_Source\PSoC5/Telit_UART.c ****     *******************************************************************************/
1606:.\Generated_Source\PSoC5/Telit_UART.c ****     void Telit_UART_SetTxAddressMode(uint8 addressMode) 
1607:.\Generated_Source\PSoC5/Telit_UART.c ****     {
 1347              		.loc 1 1607 0
 1348              		.cfi_startproc
 1349              		@ args = 0, pretend = 0, frame = 8
 1350              		@ frame_needed = 1, uses_anonymous_args = 0
 1351              		@ link register save eliminated.
 1352 0000 80B4     		push	{r7}
 1353              		.cfi_def_cfa_offset 4
 1354              		.cfi_offset 7, -4
 1355 0002 83B0     		sub	sp, sp, #12
ARM GAS  C:\Users\BRANKO~1\AppData\Local\Temp\cc5L4W5X.s 			page 53


 1356              		.cfi_def_cfa_offset 16
 1357 0004 00AF     		add	r7, sp, #0
 1358              		.cfi_def_cfa_register 7
 1359 0006 0346     		mov	r3, r0
 1360 0008 FB71     		strb	r3, [r7, #7]
1608:.\Generated_Source\PSoC5/Telit_UART.c ****         /* Mark/Space sending enable*/
1609:.\Generated_Source\PSoC5/Telit_UART.c ****         if(addressMode != 0u)
1610:.\Generated_Source\PSoC5/Telit_UART.c ****         {
1611:.\Generated_Source\PSoC5/Telit_UART.c ****             #if( Telit_UART_CONTROL_REG_REMOVED == 0u )
1612:.\Generated_Source\PSoC5/Telit_UART.c ****                 Telit_UART_WriteControlRegister(Telit_UART_ReadControlRegister() |
1613:.\Generated_Source\PSoC5/Telit_UART.c ****                                                       Telit_UART_CTRL_MARK);
1614:.\Generated_Source\PSoC5/Telit_UART.c ****             #endif /* End Telit_UART_CONTROL_REG_REMOVED == 0u */
1615:.\Generated_Source\PSoC5/Telit_UART.c ****         }
1616:.\Generated_Source\PSoC5/Telit_UART.c ****         else
1617:.\Generated_Source\PSoC5/Telit_UART.c ****         {
1618:.\Generated_Source\PSoC5/Telit_UART.c ****             #if( Telit_UART_CONTROL_REG_REMOVED == 0u )
1619:.\Generated_Source\PSoC5/Telit_UART.c ****                 Telit_UART_WriteControlRegister(Telit_UART_ReadControlRegister() &
1620:.\Generated_Source\PSoC5/Telit_UART.c ****                                                     (uint8)~Telit_UART_CTRL_MARK);
1621:.\Generated_Source\PSoC5/Telit_UART.c ****             #endif /* End Telit_UART_CONTROL_REG_REMOVED == 0u */
1622:.\Generated_Source\PSoC5/Telit_UART.c ****         }
1623:.\Generated_Source\PSoC5/Telit_UART.c ****     }
 1361              		.loc 1 1623 0
 1362 000a 0C37     		adds	r7, r7, #12
 1363 000c BD46     		mov	sp, r7
 1364              		@ sp needed
 1365 000e 5DF8047B 		ldr	r7, [sp], #4
 1366 0012 7047     		bx	lr
 1367              		.cfi_endproc
 1368              	.LFE26:
 1369              		.size	Telit_UART_SetTxAddressMode, .-Telit_UART_SetTxAddressMode
 1370              		.bss
 1371              	tx_period.4989:
 1372 0001 00       		.space	1
 1373              		.text
 1374              	.Letext0:
 1375              		.file 2 ".\\Generated_Source\\PSoC5\\cytypes.h"
 1376              		.section	.debug_info,"",%progbits
 1377              	.Ldebug_info0:
 1378 0000 FC040000 		.4byte	0x4fc
 1379 0004 0400     		.2byte	0x4
 1380 0006 00000000 		.4byte	.Ldebug_abbrev0
 1381 000a 04       		.byte	0x4
 1382 000b 01       		.uleb128 0x1
 1383 000c 4B020000 		.4byte	.LASF60
 1384 0010 01       		.byte	0x1
 1385 0011 49010000 		.4byte	.LASF61
 1386 0015 27000000 		.4byte	.LASF62
 1387 0019 00000000 		.4byte	.Ldebug_ranges0+0
 1388 001d 00000000 		.4byte	0
 1389 0021 00000000 		.4byte	.Ldebug_line0
 1390 0025 02       		.uleb128 0x2
 1391 0026 01       		.byte	0x1
 1392 0027 06       		.byte	0x6
 1393 0028 A5000000 		.4byte	.LASF0
 1394 002c 02       		.uleb128 0x2
 1395 002d 01       		.byte	0x1
 1396 002e 08       		.byte	0x8
ARM GAS  C:\Users\BRANKO~1\AppData\Local\Temp\cc5L4W5X.s 			page 54


 1397 002f 57030000 		.4byte	.LASF1
 1398 0033 02       		.uleb128 0x2
 1399 0034 02       		.byte	0x2
 1400 0035 05       		.byte	0x5
 1401 0036 65030000 		.4byte	.LASF2
 1402 003a 02       		.uleb128 0x2
 1403 003b 02       		.byte	0x2
 1404 003c 07       		.byte	0x7
 1405 003d CC010000 		.4byte	.LASF3
 1406 0041 02       		.uleb128 0x2
 1407 0042 04       		.byte	0x4
 1408 0043 05       		.byte	0x5
 1409 0044 B1000000 		.4byte	.LASF4
 1410 0048 02       		.uleb128 0x2
 1411 0049 04       		.byte	0x4
 1412 004a 07       		.byte	0x7
 1413 004b B5010000 		.4byte	.LASF5
 1414 004f 02       		.uleb128 0x2
 1415 0050 08       		.byte	0x8
 1416 0051 05       		.byte	0x5
 1417 0052 97000000 		.4byte	.LASF6
 1418 0056 02       		.uleb128 0x2
 1419 0057 08       		.byte	0x8
 1420 0058 07       		.byte	0x7
 1421 0059 6F000000 		.4byte	.LASF7
 1422 005d 03       		.uleb128 0x3
 1423 005e 04       		.byte	0x4
 1424 005f 05       		.byte	0x5
 1425 0060 696E7400 		.ascii	"int\000"
 1426 0064 02       		.uleb128 0x2
 1427 0065 04       		.byte	0x4
 1428 0066 07       		.byte	0x7
 1429 0067 77010000 		.4byte	.LASF8
 1430 006b 04       		.uleb128 0x4
 1431 006c D1000000 		.4byte	.LASF9
 1432 0070 02       		.byte	0x2
 1433 0071 A1       		.byte	0xa1
 1434 0072 2C000000 		.4byte	0x2c
 1435 0076 04       		.uleb128 0x4
 1436 0077 00000000 		.4byte	.LASF10
 1437 007b 02       		.byte	0x2
 1438 007c A2       		.byte	0xa2
 1439 007d 3A000000 		.4byte	0x3a
 1440 0081 02       		.uleb128 0x2
 1441 0082 04       		.byte	0x4
 1442 0083 04       		.byte	0x4
 1443 0084 15030000 		.4byte	.LASF11
 1444 0088 02       		.uleb128 0x2
 1445 0089 08       		.byte	0x8
 1446 008a 04       		.byte	0x4
 1447 008b D7000000 		.4byte	.LASF12
 1448 008f 04       		.uleb128 0x4
 1449 0090 A8030000 		.4byte	.LASF13
 1450 0094 02       		.byte	0x2
 1451 0095 B2       		.byte	0xb2
 1452 0096 9A000000 		.4byte	0x9a
 1453 009a 02       		.uleb128 0x2
ARM GAS  C:\Users\BRANKO~1\AppData\Local\Temp\cc5L4W5X.s 			page 55


 1454 009b 01       		.byte	0x1
 1455 009c 08       		.byte	0x8
 1456 009d A3030000 		.4byte	.LASF14
 1457 00a1 05       		.uleb128 0x5
 1458 00a2 52030000 		.4byte	.LASF15
 1459 00a6 02       		.byte	0x2
 1460 00a7 4B01     		.2byte	0x14b
 1461 00a9 AD000000 		.4byte	0xad
 1462 00ad 06       		.uleb128 0x6
 1463 00ae 6B000000 		.4byte	0x6b
 1464 00b2 02       		.uleb128 0x2
 1465 00b3 04       		.byte	0x4
 1466 00b4 07       		.byte	0x7
 1467 00b5 3A020000 		.4byte	.LASF16
 1468 00b9 07       		.uleb128 0x7
 1469 00ba 86000000 		.4byte	.LASF17
 1470 00be 01       		.byte	0x1
 1471 00bf 49       		.byte	0x49
 1472 00c0 00000000 		.4byte	.LFB0
 1473 00c4 20000000 		.4byte	.LFE0-.LFB0
 1474 00c8 01       		.uleb128 0x1
 1475 00c9 9C       		.byte	0x9c
 1476 00ca 08       		.uleb128 0x8
 1477 00cb 79030000 		.4byte	.LASF18
 1478 00cf 01       		.byte	0x1
 1479 00d0 65       		.byte	0x65
 1480 00d1 00000000 		.4byte	.LFB1
 1481 00d5 40000000 		.4byte	.LFE1-.LFB1
 1482 00d9 01       		.uleb128 0x1
 1483 00da 9C       		.byte	0x9c
 1484 00db 09       		.uleb128 0x9
 1485 00dc D0020000 		.4byte	.LASF19
 1486 00e0 01       		.byte	0x1
 1487 00e1 AE       		.byte	0xae
 1488 00e2 00000000 		.4byte	.LFB2
 1489 00e6 5C000000 		.4byte	.LFE2-.LFB2
 1490 00ea 01       		.uleb128 0x1
 1491 00eb 9C       		.byte	0x9c
 1492 00ec FF000000 		.4byte	0xff
 1493 00f0 0A       		.uleb128 0xa
 1494 00f1 25040000 		.4byte	.LASF21
 1495 00f5 01       		.byte	0x1
 1496 00f6 B0       		.byte	0xb0
 1497 00f7 6B000000 		.4byte	0x6b
 1498 00fb 02       		.uleb128 0x2
 1499 00fc 91       		.byte	0x91
 1500 00fd 77       		.sleb128 -9
 1501 00fe 00       		.byte	0
 1502 00ff 09       		.uleb128 0x9
 1503 0100 39010000 		.4byte	.LASF20
 1504 0104 01       		.byte	0x1
 1505 0105 E3       		.byte	0xe3
 1506 0106 00000000 		.4byte	.LFB3
 1507 010a 5C000000 		.4byte	.LFE3-.LFB3
 1508 010e 01       		.uleb128 0x1
 1509 010f 9C       		.byte	0x9c
 1510 0110 23010000 		.4byte	0x123
ARM GAS  C:\Users\BRANKO~1\AppData\Local\Temp\cc5L4W5X.s 			page 56


 1511 0114 0A       		.uleb128 0xa
 1512 0115 25040000 		.4byte	.LASF21
 1513 0119 01       		.byte	0x1
 1514 011a E5       		.byte	0xe5
 1515 011b 6B000000 		.4byte	0x6b
 1516 011f 02       		.uleb128 0x2
 1517 0120 91       		.byte	0x91
 1518 0121 77       		.sleb128 -9
 1519 0122 00       		.byte	0
 1520 0123 0B       		.uleb128 0xb
 1521 0124 E0030000 		.4byte	.LASF32
 1522 0128 01       		.byte	0x1
 1523 0129 1901     		.2byte	0x119
 1524 012b 6B000000 		.4byte	0x6b
 1525 012f 00000000 		.4byte	.LFB4
 1526 0133 10000000 		.4byte	.LFE4-.LFB4
 1527 0137 01       		.uleb128 0x1
 1528 0138 9C       		.byte	0x9c
 1529 0139 0C       		.uleb128 0xc
 1530 013a 3D040000 		.4byte	.LASF22
 1531 013e 01       		.byte	0x1
 1532 013f 3101     		.2byte	0x131
 1533 0141 00000000 		.4byte	.LFB5
 1534 0145 14000000 		.4byte	.LFE5-.LFB5
 1535 0149 01       		.uleb128 0x1
 1536 014a 9C       		.byte	0x9c
 1537 014b 5F010000 		.4byte	0x15f
 1538 014f 0D       		.uleb128 0xd
 1539 0150 15010000 		.4byte	.LASF24
 1540 0154 01       		.byte	0x1
 1541 0155 3101     		.2byte	0x131
 1542 0157 6B000000 		.4byte	0x6b
 1543 015b 02       		.uleb128 0x2
 1544 015c 91       		.byte	0x91
 1545 015d 77       		.sleb128 -9
 1546 015e 00       		.byte	0
 1547 015f 0C       		.uleb128 0xc
 1548 0160 84010000 		.4byte	.LASF23
 1549 0164 01       		.byte	0x1
 1550 0165 8101     		.2byte	0x181
 1551 0167 00000000 		.4byte	.LFB6
 1552 016b 20000000 		.4byte	.LFE6-.LFB6
 1553 016f 01       		.uleb128 0x1
 1554 0170 9C       		.byte	0x9c
 1555 0171 85010000 		.4byte	0x185
 1556 0175 0D       		.uleb128 0xd
 1557 0176 17020000 		.4byte	.LASF25
 1558 017a 01       		.byte	0x1
 1559 017b 8101     		.2byte	0x181
 1560 017d 6B000000 		.4byte	0x6b
 1561 0181 02       		.uleb128 0x2
 1562 0182 91       		.byte	0x91
 1563 0183 77       		.sleb128 -9
 1564 0184 00       		.byte	0
 1565 0185 0E       		.uleb128 0xe
 1566 0186 FF000000 		.4byte	.LASF27
 1567 018a 01       		.byte	0x1
ARM GAS  C:\Users\BRANKO~1\AppData\Local\Temp\cc5L4W5X.s 			page 57


 1568 018b A201     		.2byte	0x1a2
 1569 018d 6B000000 		.4byte	0x6b
 1570 0191 00000000 		.4byte	.LFB7
 1571 0195 20000000 		.4byte	.LFE7-.LFB7
 1572 0199 01       		.uleb128 0x1
 1573 019a 9C       		.byte	0x9c
 1574 019b AF010000 		.4byte	0x1af
 1575 019f 0F       		.uleb128 0xf
 1576 01a0 89030000 		.4byte	.LASF26
 1577 01a4 01       		.byte	0x1
 1578 01a5 A401     		.2byte	0x1a4
 1579 01a7 6B000000 		.4byte	0x6b
 1580 01ab 02       		.uleb128 0x2
 1581 01ac 91       		.byte	0x91
 1582 01ad 77       		.sleb128 -9
 1583 01ae 00       		.byte	0
 1584 01af 0E       		.uleb128 0xe
 1585 01b0 FD020000 		.4byte	.LASF28
 1586 01b4 01       		.byte	0x1
 1587 01b5 FD01     		.2byte	0x1fd
 1588 01b7 6B000000 		.4byte	0x6b
 1589 01bb 00000000 		.4byte	.LFB8
 1590 01bf 24000000 		.4byte	.LFE8-.LFB8
 1591 01c3 01       		.uleb128 0x1
 1592 01c4 9C       		.byte	0x9c
 1593 01c5 D9010000 		.4byte	0x1d9
 1594 01c9 0F       		.uleb128 0xf
 1595 01ca 36040000 		.4byte	.LASF29
 1596 01ce 01       		.byte	0x1
 1597 01cf FF01     		.2byte	0x1ff
 1598 01d1 6B000000 		.4byte	0x6b
 1599 01d5 02       		.uleb128 0x2
 1600 01d6 91       		.byte	0x91
 1601 01d7 77       		.sleb128 -9
 1602 01d8 00       		.byte	0
 1603 01d9 0E       		.uleb128 0xe
 1604 01da A2010000 		.4byte	.LASF30
 1605 01de 01       		.byte	0x1
 1606 01df 2C02     		.2byte	0x22c
 1607 01e1 6B000000 		.4byte	0x6b
 1608 01e5 00000000 		.4byte	.LFB9
 1609 01e9 44000000 		.4byte	.LFE9-.LFB9
 1610 01ed 01       		.uleb128 0x1
 1611 01ee 9C       		.byte	0x9c
 1612 01ef 12020000 		.4byte	0x212
 1613 01f3 0F       		.uleb128 0xf
 1614 01f4 89030000 		.4byte	.LASF26
 1615 01f8 01       		.byte	0x1
 1616 01f9 2E02     		.2byte	0x22e
 1617 01fb 6B000000 		.4byte	0x6b
 1618 01ff 02       		.uleb128 0x2
 1619 0200 91       		.byte	0x91
 1620 0201 77       		.sleb128 -9
 1621 0202 0F       		.uleb128 0xf
 1622 0203 C7020000 		.4byte	.LASF31
 1623 0207 01       		.byte	0x1
 1624 0208 2F02     		.2byte	0x22f
ARM GAS  C:\Users\BRANKO~1\AppData\Local\Temp\cc5L4W5X.s 			page 58


 1625 020a 6B000000 		.4byte	0x6b
 1626 020e 02       		.uleb128 0x2
 1627 020f 91       		.byte	0x91
 1628 0210 76       		.sleb128 -10
 1629 0211 00       		.byte	0
 1630 0212 10       		.uleb128 0x10
 1631 0213 FF030000 		.4byte	.LASF33
 1632 0217 01       		.byte	0x1
 1633 0218 9202     		.2byte	0x292
 1634 021a 76000000 		.4byte	0x76
 1635 021e 00000000 		.4byte	.LFB10
 1636 0222 20000000 		.4byte	.LFE10-.LFB10
 1637 0226 01       		.uleb128 0x1
 1638 0227 9C       		.byte	0x9c
 1639 0228 0E       		.uleb128 0xe
 1640 0229 F2010000 		.4byte	.LASF34
 1641 022d 01       		.byte	0x1
 1642 022e B302     		.2byte	0x2b3
 1643 0230 6B000000 		.4byte	0x6b
 1644 0234 00000000 		.4byte	.LFB11
 1645 0238 30000000 		.4byte	.LFE11-.LFB11
 1646 023c 01       		.uleb128 0x1
 1647 023d 9C       		.byte	0x9c
 1648 023e 52020000 		.4byte	0x252
 1649 0242 0F       		.uleb128 0xf
 1650 0243 C7010000 		.4byte	.LASF35
 1651 0247 01       		.byte	0x1
 1652 0248 B602     		.2byte	0x2b6
 1653 024a 6B000000 		.4byte	0x6b
 1654 024e 02       		.uleb128 0x2
 1655 024f 91       		.byte	0x91
 1656 0250 77       		.sleb128 -9
 1657 0251 00       		.byte	0
 1658 0252 11       		.uleb128 0x11
 1659 0253 5D040000 		.4byte	.LASF36
 1660 0257 01       		.byte	0x1
 1661 0258 0303     		.2byte	0x303
 1662 025a 00000000 		.4byte	.LFB12
 1663 025e 40000000 		.4byte	.LFE12-.LFB12
 1664 0262 01       		.uleb128 0x1
 1665 0263 9C       		.byte	0x9c
 1666 0264 78020000 		.4byte	0x278
 1667 0268 0F       		.uleb128 0xf
 1668 0269 25040000 		.4byte	.LASF21
 1669 026d 01       		.byte	0x1
 1670 026e 0503     		.2byte	0x305
 1671 0270 6B000000 		.4byte	0x6b
 1672 0274 02       		.uleb128 0x2
 1673 0275 91       		.byte	0x91
 1674 0276 77       		.sleb128 -9
 1675 0277 00       		.byte	0
 1676 0278 0C       		.uleb128 0xc
 1677 0279 1D010000 		.4byte	.LASF37
 1678 027d 01       		.byte	0x1
 1679 027e 4003     		.2byte	0x340
 1680 0280 00000000 		.4byte	.LFB13
 1681 0284 14000000 		.4byte	.LFE13-.LFB13
ARM GAS  C:\Users\BRANKO~1\AppData\Local\Temp\cc5L4W5X.s 			page 59


 1682 0288 01       		.uleb128 0x1
 1683 0289 9C       		.byte	0x9c
 1684 028a 9E020000 		.4byte	0x29e
 1685 028e 0D       		.uleb128 0xd
 1686 028f DE000000 		.4byte	.LASF38
 1687 0293 01       		.byte	0x1
 1688 0294 4003     		.2byte	0x340
 1689 0296 6B000000 		.4byte	0x6b
 1690 029a 02       		.uleb128 0x2
 1691 029b 91       		.byte	0x91
 1692 029c 77       		.sleb128 -9
 1693 029d 00       		.byte	0
 1694 029e 0C       		.uleb128 0xc
 1695 029f AE030000 		.4byte	.LASF39
 1696 02a3 01       		.byte	0x1
 1697 02a4 6503     		.2byte	0x365
 1698 02a6 00000000 		.4byte	.LFB14
 1699 02aa 20000000 		.4byte	.LFE14-.LFB14
 1700 02ae 01       		.uleb128 0x1
 1701 02af 9C       		.byte	0x9c
 1702 02b0 C4020000 		.4byte	0x2c4
 1703 02b4 0D       		.uleb128 0xd
 1704 02b5 43020000 		.4byte	.LASF40
 1705 02b9 01       		.byte	0x1
 1706 02ba 6503     		.2byte	0x365
 1707 02bc 6B000000 		.4byte	0x6b
 1708 02c0 02       		.uleb128 0x2
 1709 02c1 91       		.byte	0x91
 1710 02c2 77       		.sleb128 -9
 1711 02c3 00       		.byte	0
 1712 02c4 0C       		.uleb128 0xc
 1713 02c5 C7030000 		.4byte	.LASF41
 1714 02c9 01       		.byte	0x1
 1715 02ca 7A03     		.2byte	0x37a
 1716 02cc 00000000 		.4byte	.LFB15
 1717 02d0 20000000 		.4byte	.LFE15-.LFB15
 1718 02d4 01       		.uleb128 0x1
 1719 02d5 9C       		.byte	0x9c
 1720 02d6 EA020000 		.4byte	0x2ea
 1721 02da 0D       		.uleb128 0xd
 1722 02db 43020000 		.4byte	.LASF40
 1723 02df 01       		.byte	0x1
 1724 02e0 7A03     		.2byte	0x37a
 1725 02e2 6B000000 		.4byte	0x6b
 1726 02e6 02       		.uleb128 0x2
 1727 02e7 91       		.byte	0x91
 1728 02e8 77       		.sleb128 -9
 1729 02e9 00       		.byte	0
 1730 02ea 0C       		.uleb128 0xc
 1731 02eb 34030000 		.4byte	.LASF42
 1732 02ef 01       		.byte	0x1
 1733 02f0 C803     		.2byte	0x3c8
 1734 02f2 00000000 		.4byte	.LFB16
 1735 02f6 20000000 		.4byte	.LFE16-.LFB16
 1736 02fa 01       		.uleb128 0x1
 1737 02fb 9C       		.byte	0x9c
 1738 02fc 10030000 		.4byte	0x310
ARM GAS  C:\Users\BRANKO~1\AppData\Local\Temp\cc5L4W5X.s 			page 60


 1739 0300 0D       		.uleb128 0xd
 1740 0301 17020000 		.4byte	.LASF25
 1741 0305 01       		.byte	0x1
 1742 0306 C803     		.2byte	0x3c8
 1743 0308 6B000000 		.4byte	0x6b
 1744 030c 02       		.uleb128 0x2
 1745 030d 91       		.byte	0x91
 1746 030e 77       		.sleb128 -9
 1747 030f 00       		.byte	0
 1748 0310 0C       		.uleb128 0xc
 1749 0311 BA000000 		.4byte	.LASF43
 1750 0315 01       		.byte	0x1
 1751 0316 EA03     		.2byte	0x3ea
 1752 0318 00000000 		.4byte	.LFB17
 1753 031c 2C000000 		.4byte	.LFE17-.LFB17
 1754 0320 01       		.uleb128 0x1
 1755 0321 9C       		.byte	0x9c
 1756 0322 36030000 		.4byte	0x336
 1757 0326 0D       		.uleb128 0xd
 1758 0327 1C000000 		.4byte	.LASF44
 1759 032b 01       		.byte	0x1
 1760 032c EA03     		.2byte	0x3ea
 1761 032e 6B000000 		.4byte	0x6b
 1762 0332 02       		.uleb128 0x2
 1763 0333 91       		.byte	0x91
 1764 0334 77       		.sleb128 -9
 1765 0335 00       		.byte	0
 1766 0336 0B       		.uleb128 0xb
 1767 0337 80040000 		.4byte	.LASF45
 1768 033b 01       		.byte	0x1
 1769 033c 2E04     		.2byte	0x42e
 1770 033e 6B000000 		.4byte	0x6b
 1771 0342 00000000 		.4byte	.LFB18
 1772 0346 18000000 		.4byte	.LFE18-.LFB18
 1773 034a 01       		.uleb128 0x1
 1774 034b 9C       		.byte	0x9c
 1775 034c 0C       		.uleb128 0xc
 1776 034d 90030000 		.4byte	.LASF46
 1777 0351 01       		.byte	0x1
 1778 0352 5204     		.2byte	0x452
 1779 0354 00000000 		.4byte	.LFB19
 1780 0358 34000000 		.4byte	.LFE19-.LFB19
 1781 035c 01       		.uleb128 0x1
 1782 035d 9C       		.byte	0x9c
 1783 035e 72030000 		.4byte	0x372
 1784 0362 0D       		.uleb128 0xd
 1785 0363 1C000000 		.4byte	.LASF44
 1786 0367 01       		.byte	0x1
 1787 0368 5204     		.2byte	0x452
 1788 036a 6B000000 		.4byte	0x6b
 1789 036e 02       		.uleb128 0x2
 1790 036f 91       		.byte	0x91
 1791 0370 77       		.sleb128 -9
 1792 0371 00       		.byte	0
 1793 0372 11       		.uleb128 0x11
 1794 0373 EA000000 		.4byte	.LASF47
 1795 0377 01       		.byte	0x1
ARM GAS  C:\Users\BRANKO~1\AppData\Local\Temp\cc5L4W5X.s 			page 61


 1796 0378 AE04     		.2byte	0x4ae
 1797 037a 00000000 		.4byte	.LFB20
 1798 037e 40000000 		.4byte	.LFE20-.LFB20
 1799 0382 01       		.uleb128 0x1
 1800 0383 9C       		.byte	0x9c
 1801 0384 A7030000 		.4byte	0x3a7
 1802 0388 0D       		.uleb128 0xd
 1803 0389 4C000000 		.4byte	.LASF48
 1804 038d 01       		.byte	0x1
 1805 038e AE04     		.2byte	0x4ae
 1806 0390 A7030000 		.4byte	0x3a7
 1807 0394 02       		.uleb128 0x2
 1808 0395 91       		.byte	0x91
 1809 0396 6C       		.sleb128 -20
 1810 0397 0F       		.uleb128 0xf
 1811 0398 76040000 		.4byte	.LASF49
 1812 039c 01       		.byte	0x1
 1813 039d B004     		.2byte	0x4b0
 1814 039f 76000000 		.4byte	0x76
 1815 03a3 02       		.uleb128 0x2
 1816 03a4 91       		.byte	0x91
 1817 03a5 76       		.sleb128 -10
 1818 03a6 00       		.byte	0
 1819 03a7 12       		.uleb128 0x12
 1820 03a8 04       		.byte	0x4
 1821 03a9 AD030000 		.4byte	0x3ad
 1822 03ad 13       		.uleb128 0x13
 1823 03ae 8F000000 		.4byte	0x8f
 1824 03b2 11       		.uleb128 0x11
 1825 03b3 26020000 		.4byte	.LASF50
 1826 03b7 01       		.byte	0x1
 1827 03b8 D404     		.2byte	0x4d4
 1828 03ba 00000000 		.4byte	.LFB21
 1829 03be 40000000 		.4byte	.LFE21-.LFB21
 1830 03c2 01       		.uleb128 0x1
 1831 03c3 9C       		.byte	0x9c
 1832 03c4 F6030000 		.4byte	0x3f6
 1833 03c8 0D       		.uleb128 0xd
 1834 03c9 4C000000 		.4byte	.LASF48
 1835 03cd 01       		.byte	0x1
 1836 03ce D404     		.2byte	0x4d4
 1837 03d0 F6030000 		.4byte	0x3f6
 1838 03d4 02       		.uleb128 0x2
 1839 03d5 91       		.byte	0x91
 1840 03d6 6C       		.sleb128 -20
 1841 03d7 0D       		.uleb128 0xd
 1842 03d8 6F030000 		.4byte	.LASF51
 1843 03dc 01       		.byte	0x1
 1844 03dd D404     		.2byte	0x4d4
 1845 03df 6B000000 		.4byte	0x6b
 1846 03e3 02       		.uleb128 0x2
 1847 03e4 91       		.byte	0x91
 1848 03e5 6B       		.sleb128 -21
 1849 03e6 0F       		.uleb128 0xf
 1850 03e7 76040000 		.4byte	.LASF49
 1851 03eb 01       		.byte	0x1
 1852 03ec D704     		.2byte	0x4d7
ARM GAS  C:\Users\BRANKO~1\AppData\Local\Temp\cc5L4W5X.s 			page 62


 1853 03ee 6B000000 		.4byte	0x6b
 1854 03f2 02       		.uleb128 0x2
 1855 03f3 91       		.byte	0x91
 1856 03f4 77       		.sleb128 -9
 1857 03f5 00       		.byte	0
 1858 03f6 12       		.uleb128 0x12
 1859 03f7 04       		.byte	0x4
 1860 03f8 FC030000 		.4byte	0x3fc
 1861 03fc 13       		.uleb128 0x13
 1862 03fd 6B000000 		.4byte	0x6b
 1863 0401 11       		.uleb128 0x11
 1864 0402 12040000 		.4byte	.LASF52
 1865 0406 01       		.byte	0x1
 1866 0407 F904     		.2byte	0x4f9
 1867 0409 00000000 		.4byte	.LFB22
 1868 040d 30000000 		.4byte	.LFE22-.LFB22
 1869 0411 01       		.uleb128 0x1
 1870 0412 9C       		.byte	0x9c
 1871 0413 27040000 		.4byte	0x427
 1872 0417 0D       		.uleb128 0xd
 1873 0418 1C000000 		.4byte	.LASF44
 1874 041c 01       		.byte	0x1
 1875 041d F904     		.2byte	0x4f9
 1876 041f 6B000000 		.4byte	0x6b
 1877 0423 02       		.uleb128 0x2
 1878 0424 91       		.byte	0x91
 1879 0425 77       		.sleb128 -9
 1880 0426 00       		.byte	0
 1881 0427 0E       		.uleb128 0xe
 1882 0428 E2020000 		.4byte	.LASF53
 1883 042c 01       		.byte	0x1
 1884 042d 1E05     		.2byte	0x51e
 1885 042f 6B000000 		.4byte	0x6b
 1886 0433 00000000 		.4byte	.LFB23
 1887 0437 44000000 		.4byte	.LFE23-.LFB23
 1888 043b 01       		.uleb128 0x1
 1889 043c 9C       		.byte	0x9c
 1890 043d 51040000 		.4byte	0x451
 1891 0441 0F       		.uleb128 0xf
 1892 0442 C7010000 		.4byte	.LASF35
 1893 0446 01       		.byte	0x1
 1894 0447 2105     		.2byte	0x521
 1895 0449 6B000000 		.4byte	0x6b
 1896 044d 02       		.uleb128 0x2
 1897 044e 91       		.byte	0x91
 1898 044f 77       		.sleb128 -9
 1899 0450 00       		.byte	0
 1900 0451 11       		.uleb128 0x11
 1901 0452 1B030000 		.4byte	.LASF54
 1902 0456 01       		.byte	0x1
 1903 0457 7405     		.2byte	0x574
 1904 0459 00000000 		.4byte	.LFB24
 1905 045d 40000000 		.4byte	.LFE24-.LFB24
 1906 0461 01       		.uleb128 0x1
 1907 0462 9C       		.byte	0x9c
 1908 0463 77040000 		.4byte	0x477
 1909 0467 0F       		.uleb128 0xf
ARM GAS  C:\Users\BRANKO~1\AppData\Local\Temp\cc5L4W5X.s 			page 63


 1910 0468 25040000 		.4byte	.LASF21
 1911 046c 01       		.byte	0x1
 1912 046d 7605     		.2byte	0x576
 1913 046f 6B000000 		.4byte	0x6b
 1914 0473 02       		.uleb128 0x2
 1915 0474 91       		.byte	0x91
 1916 0475 77       		.sleb128 -9
 1917 0476 00       		.byte	0
 1918 0477 0C       		.uleb128 0xc
 1919 0478 07000000 		.4byte	.LASF55
 1920 047c 01       		.byte	0x1
 1921 047d CD05     		.2byte	0x5cd
 1922 047f 00000000 		.4byte	.LFB25
 1923 0483 9C000000 		.4byte	.LFE25-.LFB25
 1924 0487 01       		.uleb128 0x1
 1925 0488 9C       		.byte	0x9c
 1926 0489 C8040000 		.4byte	0x4c8
 1927 048d 0D       		.uleb128 0xd
 1928 048e 6F010000 		.4byte	.LASF56
 1929 0492 01       		.byte	0x1
 1930 0493 CD05     		.2byte	0x5cd
 1931 0495 6B000000 		.4byte	0x6b
 1932 0499 02       		.uleb128 0x2
 1933 049a 91       		.byte	0x91
 1934 049b 6F       		.sleb128 -17
 1935 049c 14       		.uleb128 0x14
 1936 049d 12000000 		.4byte	.LBB2
 1937 04a1 6C000000 		.4byte	.LBE2-.LBB2
 1938 04a5 0F       		.uleb128 0xf
 1939 04a6 1E020000 		.4byte	.LASF57
 1940 04aa 01       		.byte	0x1
 1941 04ab D505     		.2byte	0x5d5
 1942 04ad 6B000000 		.4byte	0x6b
 1943 04b1 02       		.uleb128 0x2
 1944 04b2 91       		.byte	0x91
 1945 04b3 77       		.sleb128 -9
 1946 04b4 0F       		.uleb128 0xf
 1947 04b5 0D020000 		.4byte	.LASF58
 1948 04b9 01       		.byte	0x1
 1949 04ba FB05     		.2byte	0x5fb
 1950 04bc 6B000000 		.4byte	0x6b
 1951 04c0 05       		.uleb128 0x5
 1952 04c1 03       		.byte	0x3
 1953 04c2 01000000 		.4byte	tx_period.4989
 1954 04c6 00       		.byte	0
 1955 04c7 00       		.byte	0
 1956 04c8 0C       		.uleb128 0xc
 1957 04c9 53000000 		.4byte	.LASF59
 1958 04cd 01       		.byte	0x1
 1959 04ce 4606     		.2byte	0x646
 1960 04d0 00000000 		.4byte	.LFB26
 1961 04d4 14000000 		.4byte	.LFE26-.LFB26
 1962 04d8 01       		.uleb128 0x1
 1963 04d9 9C       		.byte	0x9c
 1964 04da EE040000 		.4byte	0x4ee
 1965 04de 0D       		.uleb128 0xd
 1966 04df DE000000 		.4byte	.LASF38
ARM GAS  C:\Users\BRANKO~1\AppData\Local\Temp\cc5L4W5X.s 			page 64


 1967 04e3 01       		.byte	0x1
 1968 04e4 4606     		.2byte	0x646
 1969 04e6 6B000000 		.4byte	0x6b
 1970 04ea 02       		.uleb128 0x2
 1971 04eb 91       		.byte	0x91
 1972 04ec 77       		.sleb128 -9
 1973 04ed 00       		.byte	0
 1974 04ee 15       		.uleb128 0x15
 1975 04ef DF010000 		.4byte	.LASF63
 1976 04f3 01       		.byte	0x1
 1977 04f4 1C       		.byte	0x1c
 1978 04f5 6B000000 		.4byte	0x6b
 1979 04f9 05       		.uleb128 0x5
 1980 04fa 03       		.byte	0x3
 1981 04fb 00000000 		.4byte	Telit_UART_initVar
 1982 04ff 00       		.byte	0
 1983              		.section	.debug_abbrev,"",%progbits
 1984              	.Ldebug_abbrev0:
 1985 0000 01       		.uleb128 0x1
 1986 0001 11       		.uleb128 0x11
 1987 0002 01       		.byte	0x1
 1988 0003 25       		.uleb128 0x25
 1989 0004 0E       		.uleb128 0xe
 1990 0005 13       		.uleb128 0x13
 1991 0006 0B       		.uleb128 0xb
 1992 0007 03       		.uleb128 0x3
 1993 0008 0E       		.uleb128 0xe
 1994 0009 1B       		.uleb128 0x1b
 1995 000a 0E       		.uleb128 0xe
 1996 000b 55       		.uleb128 0x55
 1997 000c 17       		.uleb128 0x17
 1998 000d 11       		.uleb128 0x11
 1999 000e 01       		.uleb128 0x1
 2000 000f 10       		.uleb128 0x10
 2001 0010 17       		.uleb128 0x17
 2002 0011 00       		.byte	0
 2003 0012 00       		.byte	0
 2004 0013 02       		.uleb128 0x2
 2005 0014 24       		.uleb128 0x24
 2006 0015 00       		.byte	0
 2007 0016 0B       		.uleb128 0xb
 2008 0017 0B       		.uleb128 0xb
 2009 0018 3E       		.uleb128 0x3e
 2010 0019 0B       		.uleb128 0xb
 2011 001a 03       		.uleb128 0x3
 2012 001b 0E       		.uleb128 0xe
 2013 001c 00       		.byte	0
 2014 001d 00       		.byte	0
 2015 001e 03       		.uleb128 0x3
 2016 001f 24       		.uleb128 0x24
 2017 0020 00       		.byte	0
 2018 0021 0B       		.uleb128 0xb
 2019 0022 0B       		.uleb128 0xb
 2020 0023 3E       		.uleb128 0x3e
 2021 0024 0B       		.uleb128 0xb
 2022 0025 03       		.uleb128 0x3
 2023 0026 08       		.uleb128 0x8
ARM GAS  C:\Users\BRANKO~1\AppData\Local\Temp\cc5L4W5X.s 			page 65


 2024 0027 00       		.byte	0
 2025 0028 00       		.byte	0
 2026 0029 04       		.uleb128 0x4
 2027 002a 16       		.uleb128 0x16
 2028 002b 00       		.byte	0
 2029 002c 03       		.uleb128 0x3
 2030 002d 0E       		.uleb128 0xe
 2031 002e 3A       		.uleb128 0x3a
 2032 002f 0B       		.uleb128 0xb
 2033 0030 3B       		.uleb128 0x3b
 2034 0031 0B       		.uleb128 0xb
 2035 0032 49       		.uleb128 0x49
 2036 0033 13       		.uleb128 0x13
 2037 0034 00       		.byte	0
 2038 0035 00       		.byte	0
 2039 0036 05       		.uleb128 0x5
 2040 0037 16       		.uleb128 0x16
 2041 0038 00       		.byte	0
 2042 0039 03       		.uleb128 0x3
 2043 003a 0E       		.uleb128 0xe
 2044 003b 3A       		.uleb128 0x3a
 2045 003c 0B       		.uleb128 0xb
 2046 003d 3B       		.uleb128 0x3b
 2047 003e 05       		.uleb128 0x5
 2048 003f 49       		.uleb128 0x49
 2049 0040 13       		.uleb128 0x13
 2050 0041 00       		.byte	0
 2051 0042 00       		.byte	0
 2052 0043 06       		.uleb128 0x6
 2053 0044 35       		.uleb128 0x35
 2054 0045 00       		.byte	0
 2055 0046 49       		.uleb128 0x49
 2056 0047 13       		.uleb128 0x13
 2057 0048 00       		.byte	0
 2058 0049 00       		.byte	0
 2059 004a 07       		.uleb128 0x7
 2060 004b 2E       		.uleb128 0x2e
 2061 004c 00       		.byte	0
 2062 004d 3F       		.uleb128 0x3f
 2063 004e 19       		.uleb128 0x19
 2064 004f 03       		.uleb128 0x3
 2065 0050 0E       		.uleb128 0xe
 2066 0051 3A       		.uleb128 0x3a
 2067 0052 0B       		.uleb128 0xb
 2068 0053 3B       		.uleb128 0x3b
 2069 0054 0B       		.uleb128 0xb
 2070 0055 27       		.uleb128 0x27
 2071 0056 19       		.uleb128 0x19
 2072 0057 11       		.uleb128 0x11
 2073 0058 01       		.uleb128 0x1
 2074 0059 12       		.uleb128 0x12
 2075 005a 06       		.uleb128 0x6
 2076 005b 40       		.uleb128 0x40
 2077 005c 18       		.uleb128 0x18
 2078 005d 9642     		.uleb128 0x2116
 2079 005f 19       		.uleb128 0x19
 2080 0060 00       		.byte	0
ARM GAS  C:\Users\BRANKO~1\AppData\Local\Temp\cc5L4W5X.s 			page 66


 2081 0061 00       		.byte	0
 2082 0062 08       		.uleb128 0x8
 2083 0063 2E       		.uleb128 0x2e
 2084 0064 00       		.byte	0
 2085 0065 3F       		.uleb128 0x3f
 2086 0066 19       		.uleb128 0x19
 2087 0067 03       		.uleb128 0x3
 2088 0068 0E       		.uleb128 0xe
 2089 0069 3A       		.uleb128 0x3a
 2090 006a 0B       		.uleb128 0xb
 2091 006b 3B       		.uleb128 0x3b
 2092 006c 0B       		.uleb128 0xb
 2093 006d 27       		.uleb128 0x27
 2094 006e 19       		.uleb128 0x19
 2095 006f 11       		.uleb128 0x11
 2096 0070 01       		.uleb128 0x1
 2097 0071 12       		.uleb128 0x12
 2098 0072 06       		.uleb128 0x6
 2099 0073 40       		.uleb128 0x40
 2100 0074 18       		.uleb128 0x18
 2101 0075 9742     		.uleb128 0x2117
 2102 0077 19       		.uleb128 0x19
 2103 0078 00       		.byte	0
 2104 0079 00       		.byte	0
 2105 007a 09       		.uleb128 0x9
 2106 007b 2E       		.uleb128 0x2e
 2107 007c 01       		.byte	0x1
 2108 007d 3F       		.uleb128 0x3f
 2109 007e 19       		.uleb128 0x19
 2110 007f 03       		.uleb128 0x3
 2111 0080 0E       		.uleb128 0xe
 2112 0081 3A       		.uleb128 0x3a
 2113 0082 0B       		.uleb128 0xb
 2114 0083 3B       		.uleb128 0x3b
 2115 0084 0B       		.uleb128 0xb
 2116 0085 27       		.uleb128 0x27
 2117 0086 19       		.uleb128 0x19
 2118 0087 11       		.uleb128 0x11
 2119 0088 01       		.uleb128 0x1
 2120 0089 12       		.uleb128 0x12
 2121 008a 06       		.uleb128 0x6
 2122 008b 40       		.uleb128 0x40
 2123 008c 18       		.uleb128 0x18
 2124 008d 9642     		.uleb128 0x2116
 2125 008f 19       		.uleb128 0x19
 2126 0090 01       		.uleb128 0x1
 2127 0091 13       		.uleb128 0x13
 2128 0092 00       		.byte	0
 2129 0093 00       		.byte	0
 2130 0094 0A       		.uleb128 0xa
 2131 0095 34       		.uleb128 0x34
 2132 0096 00       		.byte	0
 2133 0097 03       		.uleb128 0x3
 2134 0098 0E       		.uleb128 0xe
 2135 0099 3A       		.uleb128 0x3a
 2136 009a 0B       		.uleb128 0xb
 2137 009b 3B       		.uleb128 0x3b
ARM GAS  C:\Users\BRANKO~1\AppData\Local\Temp\cc5L4W5X.s 			page 67


 2138 009c 0B       		.uleb128 0xb
 2139 009d 49       		.uleb128 0x49
 2140 009e 13       		.uleb128 0x13
 2141 009f 02       		.uleb128 0x2
 2142 00a0 18       		.uleb128 0x18
 2143 00a1 00       		.byte	0
 2144 00a2 00       		.byte	0
 2145 00a3 0B       		.uleb128 0xb
 2146 00a4 2E       		.uleb128 0x2e
 2147 00a5 00       		.byte	0
 2148 00a6 3F       		.uleb128 0x3f
 2149 00a7 19       		.uleb128 0x19
 2150 00a8 03       		.uleb128 0x3
 2151 00a9 0E       		.uleb128 0xe
 2152 00aa 3A       		.uleb128 0x3a
 2153 00ab 0B       		.uleb128 0xb
 2154 00ac 3B       		.uleb128 0x3b
 2155 00ad 05       		.uleb128 0x5
 2156 00ae 27       		.uleb128 0x27
 2157 00af 19       		.uleb128 0x19
 2158 00b0 49       		.uleb128 0x49
 2159 00b1 13       		.uleb128 0x13
 2160 00b2 11       		.uleb128 0x11
 2161 00b3 01       		.uleb128 0x1
 2162 00b4 12       		.uleb128 0x12
 2163 00b5 06       		.uleb128 0x6
 2164 00b6 40       		.uleb128 0x40
 2165 00b7 18       		.uleb128 0x18
 2166 00b8 9742     		.uleb128 0x2117
 2167 00ba 19       		.uleb128 0x19
 2168 00bb 00       		.byte	0
 2169 00bc 00       		.byte	0
 2170 00bd 0C       		.uleb128 0xc
 2171 00be 2E       		.uleb128 0x2e
 2172 00bf 01       		.byte	0x1
 2173 00c0 3F       		.uleb128 0x3f
 2174 00c1 19       		.uleb128 0x19
 2175 00c2 03       		.uleb128 0x3
 2176 00c3 0E       		.uleb128 0xe
 2177 00c4 3A       		.uleb128 0x3a
 2178 00c5 0B       		.uleb128 0xb
 2179 00c6 3B       		.uleb128 0x3b
 2180 00c7 05       		.uleb128 0x5
 2181 00c8 27       		.uleb128 0x27
 2182 00c9 19       		.uleb128 0x19
 2183 00ca 11       		.uleb128 0x11
 2184 00cb 01       		.uleb128 0x1
 2185 00cc 12       		.uleb128 0x12
 2186 00cd 06       		.uleb128 0x6
 2187 00ce 40       		.uleb128 0x40
 2188 00cf 18       		.uleb128 0x18
 2189 00d0 9742     		.uleb128 0x2117
 2190 00d2 19       		.uleb128 0x19
 2191 00d3 01       		.uleb128 0x1
 2192 00d4 13       		.uleb128 0x13
 2193 00d5 00       		.byte	0
 2194 00d6 00       		.byte	0
ARM GAS  C:\Users\BRANKO~1\AppData\Local\Temp\cc5L4W5X.s 			page 68


 2195 00d7 0D       		.uleb128 0xd
 2196 00d8 05       		.uleb128 0x5
 2197 00d9 00       		.byte	0
 2198 00da 03       		.uleb128 0x3
 2199 00db 0E       		.uleb128 0xe
 2200 00dc 3A       		.uleb128 0x3a
 2201 00dd 0B       		.uleb128 0xb
 2202 00de 3B       		.uleb128 0x3b
 2203 00df 05       		.uleb128 0x5
 2204 00e0 49       		.uleb128 0x49
 2205 00e1 13       		.uleb128 0x13
 2206 00e2 02       		.uleb128 0x2
 2207 00e3 18       		.uleb128 0x18
 2208 00e4 00       		.byte	0
 2209 00e5 00       		.byte	0
 2210 00e6 0E       		.uleb128 0xe
 2211 00e7 2E       		.uleb128 0x2e
 2212 00e8 01       		.byte	0x1
 2213 00e9 3F       		.uleb128 0x3f
 2214 00ea 19       		.uleb128 0x19
 2215 00eb 03       		.uleb128 0x3
 2216 00ec 0E       		.uleb128 0xe
 2217 00ed 3A       		.uleb128 0x3a
 2218 00ee 0B       		.uleb128 0xb
 2219 00ef 3B       		.uleb128 0x3b
 2220 00f0 05       		.uleb128 0x5
 2221 00f1 27       		.uleb128 0x27
 2222 00f2 19       		.uleb128 0x19
 2223 00f3 49       		.uleb128 0x49
 2224 00f4 13       		.uleb128 0x13
 2225 00f5 11       		.uleb128 0x11
 2226 00f6 01       		.uleb128 0x1
 2227 00f7 12       		.uleb128 0x12
 2228 00f8 06       		.uleb128 0x6
 2229 00f9 40       		.uleb128 0x40
 2230 00fa 18       		.uleb128 0x18
 2231 00fb 9742     		.uleb128 0x2117
 2232 00fd 19       		.uleb128 0x19
 2233 00fe 01       		.uleb128 0x1
 2234 00ff 13       		.uleb128 0x13
 2235 0100 00       		.byte	0
 2236 0101 00       		.byte	0
 2237 0102 0F       		.uleb128 0xf
 2238 0103 34       		.uleb128 0x34
 2239 0104 00       		.byte	0
 2240 0105 03       		.uleb128 0x3
 2241 0106 0E       		.uleb128 0xe
 2242 0107 3A       		.uleb128 0x3a
 2243 0108 0B       		.uleb128 0xb
 2244 0109 3B       		.uleb128 0x3b
 2245 010a 05       		.uleb128 0x5
 2246 010b 49       		.uleb128 0x49
 2247 010c 13       		.uleb128 0x13
 2248 010d 02       		.uleb128 0x2
 2249 010e 18       		.uleb128 0x18
 2250 010f 00       		.byte	0
 2251 0110 00       		.byte	0
ARM GAS  C:\Users\BRANKO~1\AppData\Local\Temp\cc5L4W5X.s 			page 69


 2252 0111 10       		.uleb128 0x10
 2253 0112 2E       		.uleb128 0x2e
 2254 0113 00       		.byte	0
 2255 0114 3F       		.uleb128 0x3f
 2256 0115 19       		.uleb128 0x19
 2257 0116 03       		.uleb128 0x3
 2258 0117 0E       		.uleb128 0xe
 2259 0118 3A       		.uleb128 0x3a
 2260 0119 0B       		.uleb128 0xb
 2261 011a 3B       		.uleb128 0x3b
 2262 011b 05       		.uleb128 0x5
 2263 011c 27       		.uleb128 0x27
 2264 011d 19       		.uleb128 0x19
 2265 011e 49       		.uleb128 0x49
 2266 011f 13       		.uleb128 0x13
 2267 0120 11       		.uleb128 0x11
 2268 0121 01       		.uleb128 0x1
 2269 0122 12       		.uleb128 0x12
 2270 0123 06       		.uleb128 0x6
 2271 0124 40       		.uleb128 0x40
 2272 0125 18       		.uleb128 0x18
 2273 0126 9642     		.uleb128 0x2116
 2274 0128 19       		.uleb128 0x19
 2275 0129 00       		.byte	0
 2276 012a 00       		.byte	0
 2277 012b 11       		.uleb128 0x11
 2278 012c 2E       		.uleb128 0x2e
 2279 012d 01       		.byte	0x1
 2280 012e 3F       		.uleb128 0x3f
 2281 012f 19       		.uleb128 0x19
 2282 0130 03       		.uleb128 0x3
 2283 0131 0E       		.uleb128 0xe
 2284 0132 3A       		.uleb128 0x3a
 2285 0133 0B       		.uleb128 0xb
 2286 0134 3B       		.uleb128 0x3b
 2287 0135 05       		.uleb128 0x5
 2288 0136 27       		.uleb128 0x27
 2289 0137 19       		.uleb128 0x19
 2290 0138 11       		.uleb128 0x11
 2291 0139 01       		.uleb128 0x1
 2292 013a 12       		.uleb128 0x12
 2293 013b 06       		.uleb128 0x6
 2294 013c 40       		.uleb128 0x40
 2295 013d 18       		.uleb128 0x18
 2296 013e 9642     		.uleb128 0x2116
 2297 0140 19       		.uleb128 0x19
 2298 0141 01       		.uleb128 0x1
 2299 0142 13       		.uleb128 0x13
 2300 0143 00       		.byte	0
 2301 0144 00       		.byte	0
 2302 0145 12       		.uleb128 0x12
 2303 0146 0F       		.uleb128 0xf
 2304 0147 00       		.byte	0
 2305 0148 0B       		.uleb128 0xb
 2306 0149 0B       		.uleb128 0xb
 2307 014a 49       		.uleb128 0x49
 2308 014b 13       		.uleb128 0x13
ARM GAS  C:\Users\BRANKO~1\AppData\Local\Temp\cc5L4W5X.s 			page 70


 2309 014c 00       		.byte	0
 2310 014d 00       		.byte	0
 2311 014e 13       		.uleb128 0x13
 2312 014f 26       		.uleb128 0x26
 2313 0150 00       		.byte	0
 2314 0151 49       		.uleb128 0x49
 2315 0152 13       		.uleb128 0x13
 2316 0153 00       		.byte	0
 2317 0154 00       		.byte	0
 2318 0155 14       		.uleb128 0x14
 2319 0156 0B       		.uleb128 0xb
 2320 0157 01       		.byte	0x1
 2321 0158 11       		.uleb128 0x11
 2322 0159 01       		.uleb128 0x1
 2323 015a 12       		.uleb128 0x12
 2324 015b 06       		.uleb128 0x6
 2325 015c 00       		.byte	0
 2326 015d 00       		.byte	0
 2327 015e 15       		.uleb128 0x15
 2328 015f 34       		.uleb128 0x34
 2329 0160 00       		.byte	0
 2330 0161 03       		.uleb128 0x3
 2331 0162 0E       		.uleb128 0xe
 2332 0163 3A       		.uleb128 0x3a
 2333 0164 0B       		.uleb128 0xb
 2334 0165 3B       		.uleb128 0x3b
 2335 0166 0B       		.uleb128 0xb
 2336 0167 49       		.uleb128 0x49
 2337 0168 13       		.uleb128 0x13
 2338 0169 3F       		.uleb128 0x3f
 2339 016a 19       		.uleb128 0x19
 2340 016b 02       		.uleb128 0x2
 2341 016c 18       		.uleb128 0x18
 2342 016d 00       		.byte	0
 2343 016e 00       		.byte	0
 2344 016f 00       		.byte	0
 2345              		.section	.debug_aranges,"",%progbits
 2346 0000 EC000000 		.4byte	0xec
 2347 0004 0200     		.2byte	0x2
 2348 0006 00000000 		.4byte	.Ldebug_info0
 2349 000a 04       		.byte	0x4
 2350 000b 00       		.byte	0
 2351 000c 0000     		.2byte	0
 2352 000e 0000     		.2byte	0
 2353 0010 00000000 		.4byte	.LFB0
 2354 0014 20000000 		.4byte	.LFE0-.LFB0
 2355 0018 00000000 		.4byte	.LFB1
 2356 001c 40000000 		.4byte	.LFE1-.LFB1
 2357 0020 00000000 		.4byte	.LFB2
 2358 0024 5C000000 		.4byte	.LFE2-.LFB2
 2359 0028 00000000 		.4byte	.LFB3
 2360 002c 5C000000 		.4byte	.LFE3-.LFB3
 2361 0030 00000000 		.4byte	.LFB4
 2362 0034 10000000 		.4byte	.LFE4-.LFB4
 2363 0038 00000000 		.4byte	.LFB5
 2364 003c 14000000 		.4byte	.LFE5-.LFB5
 2365 0040 00000000 		.4byte	.LFB6
ARM GAS  C:\Users\BRANKO~1\AppData\Local\Temp\cc5L4W5X.s 			page 71


 2366 0044 20000000 		.4byte	.LFE6-.LFB6
 2367 0048 00000000 		.4byte	.LFB7
 2368 004c 20000000 		.4byte	.LFE7-.LFB7
 2369 0050 00000000 		.4byte	.LFB8
 2370 0054 24000000 		.4byte	.LFE8-.LFB8
 2371 0058 00000000 		.4byte	.LFB9
 2372 005c 44000000 		.4byte	.LFE9-.LFB9
 2373 0060 00000000 		.4byte	.LFB10
 2374 0064 20000000 		.4byte	.LFE10-.LFB10
 2375 0068 00000000 		.4byte	.LFB11
 2376 006c 30000000 		.4byte	.LFE11-.LFB11
 2377 0070 00000000 		.4byte	.LFB12
 2378 0074 40000000 		.4byte	.LFE12-.LFB12
 2379 0078 00000000 		.4byte	.LFB13
 2380 007c 14000000 		.4byte	.LFE13-.LFB13
 2381 0080 00000000 		.4byte	.LFB14
 2382 0084 20000000 		.4byte	.LFE14-.LFB14
 2383 0088 00000000 		.4byte	.LFB15
 2384 008c 20000000 		.4byte	.LFE15-.LFB15
 2385 0090 00000000 		.4byte	.LFB16
 2386 0094 20000000 		.4byte	.LFE16-.LFB16
 2387 0098 00000000 		.4byte	.LFB17
 2388 009c 2C000000 		.4byte	.LFE17-.LFB17
 2389 00a0 00000000 		.4byte	.LFB18
 2390 00a4 18000000 		.4byte	.LFE18-.LFB18
 2391 00a8 00000000 		.4byte	.LFB19
 2392 00ac 34000000 		.4byte	.LFE19-.LFB19
 2393 00b0 00000000 		.4byte	.LFB20
 2394 00b4 40000000 		.4byte	.LFE20-.LFB20
 2395 00b8 00000000 		.4byte	.LFB21
 2396 00bc 40000000 		.4byte	.LFE21-.LFB21
 2397 00c0 00000000 		.4byte	.LFB22
 2398 00c4 30000000 		.4byte	.LFE22-.LFB22
 2399 00c8 00000000 		.4byte	.LFB23
 2400 00cc 44000000 		.4byte	.LFE23-.LFB23
 2401 00d0 00000000 		.4byte	.LFB24
 2402 00d4 40000000 		.4byte	.LFE24-.LFB24
 2403 00d8 00000000 		.4byte	.LFB25
 2404 00dc 9C000000 		.4byte	.LFE25-.LFB25
 2405 00e0 00000000 		.4byte	.LFB26
 2406 00e4 14000000 		.4byte	.LFE26-.LFB26
 2407 00e8 00000000 		.4byte	0
 2408 00ec 00000000 		.4byte	0
 2409              		.section	.debug_ranges,"",%progbits
 2410              	.Ldebug_ranges0:
 2411 0000 00000000 		.4byte	.LFB0
 2412 0004 20000000 		.4byte	.LFE0
 2413 0008 00000000 		.4byte	.LFB1
 2414 000c 40000000 		.4byte	.LFE1
 2415 0010 00000000 		.4byte	.LFB2
 2416 0014 5C000000 		.4byte	.LFE2
 2417 0018 00000000 		.4byte	.LFB3
 2418 001c 5C000000 		.4byte	.LFE3
 2419 0020 00000000 		.4byte	.LFB4
 2420 0024 10000000 		.4byte	.LFE4
 2421 0028 00000000 		.4byte	.LFB5
 2422 002c 14000000 		.4byte	.LFE5
ARM GAS  C:\Users\BRANKO~1\AppData\Local\Temp\cc5L4W5X.s 			page 72


 2423 0030 00000000 		.4byte	.LFB6
 2424 0034 20000000 		.4byte	.LFE6
 2425 0038 00000000 		.4byte	.LFB7
 2426 003c 20000000 		.4byte	.LFE7
 2427 0040 00000000 		.4byte	.LFB8
 2428 0044 24000000 		.4byte	.LFE8
 2429 0048 00000000 		.4byte	.LFB9
 2430 004c 44000000 		.4byte	.LFE9
 2431 0050 00000000 		.4byte	.LFB10
 2432 0054 20000000 		.4byte	.LFE10
 2433 0058 00000000 		.4byte	.LFB11
 2434 005c 30000000 		.4byte	.LFE11
 2435 0060 00000000 		.4byte	.LFB12
 2436 0064 40000000 		.4byte	.LFE12
 2437 0068 00000000 		.4byte	.LFB13
 2438 006c 14000000 		.4byte	.LFE13
 2439 0070 00000000 		.4byte	.LFB14
 2440 0074 20000000 		.4byte	.LFE14
 2441 0078 00000000 		.4byte	.LFB15
 2442 007c 20000000 		.4byte	.LFE15
 2443 0080 00000000 		.4byte	.LFB16
 2444 0084 20000000 		.4byte	.LFE16
 2445 0088 00000000 		.4byte	.LFB17
 2446 008c 2C000000 		.4byte	.LFE17
 2447 0090 00000000 		.4byte	.LFB18
 2448 0094 18000000 		.4byte	.LFE18
 2449 0098 00000000 		.4byte	.LFB19
 2450 009c 34000000 		.4byte	.LFE19
 2451 00a0 00000000 		.4byte	.LFB20
 2452 00a4 40000000 		.4byte	.LFE20
 2453 00a8 00000000 		.4byte	.LFB21
 2454 00ac 40000000 		.4byte	.LFE21
 2455 00b0 00000000 		.4byte	.LFB22
 2456 00b4 30000000 		.4byte	.LFE22
 2457 00b8 00000000 		.4byte	.LFB23
 2458 00bc 44000000 		.4byte	.LFE23
 2459 00c0 00000000 		.4byte	.LFB24
 2460 00c4 40000000 		.4byte	.LFE24
 2461 00c8 00000000 		.4byte	.LFB25
 2462 00cc 9C000000 		.4byte	.LFE25
 2463 00d0 00000000 		.4byte	.LFB26
 2464 00d4 14000000 		.4byte	.LFE26
 2465 00d8 00000000 		.4byte	0
 2466 00dc 00000000 		.4byte	0
 2467              		.section	.debug_line,"",%progbits
 2468              	.Ldebug_line0:
 2469 0000 F1020000 		.section	.debug_str,"MS",%progbits,1
 2469      02004900 
 2469      00000201 
 2469      FB0E0D00 
 2469      01010101 
 2470              	.LASF10:
 2471 0000 75696E74 		.ascii	"uint16\000"
 2471      313600
 2472              	.LASF55:
 2473 0007 54656C69 		.ascii	"Telit_UART_SendBreak\000"
 2473      745F5541 
ARM GAS  C:\Users\BRANKO~1\AppData\Local\Temp\cc5L4W5X.s 			page 73


 2473      52545F53 
 2473      656E6442 
 2473      7265616B 
 2474              	.LASF44:
 2475 001c 74784461 		.ascii	"txDataByte\000"
 2475      74614279 
 2475      746500
 2476              	.LASF62:
 2477 0027 443A5C70 		.ascii	"D:\\psoc5\\Cell Board\\Cell Board.cydsn\000"
 2477      736F6335 
 2477      5C43656C 
 2477      6C20426F 
 2477      6172645C 
 2478              	.LASF48:
 2479 004c 73747269 		.ascii	"string\000"
 2479      6E6700
 2480              	.LASF59:
 2481 0053 54656C69 		.ascii	"Telit_UART_SetTxAddressMode\000"
 2481      745F5541 
 2481      52545F53 
 2481      65745478 
 2481      41646472 
 2482              	.LASF7:
 2483 006f 6C6F6E67 		.ascii	"long long unsigned int\000"
 2483      206C6F6E 
 2483      6720756E 
 2483      7369676E 
 2483      65642069 
 2484              	.LASF17:
 2485 0086 54656C69 		.ascii	"Telit_UART_Start\000"
 2485      745F5541 
 2485      52545F53 
 2485      74617274 
 2485      00
 2486              	.LASF6:
 2487 0097 6C6F6E67 		.ascii	"long long int\000"
 2487      206C6F6E 
 2487      6720696E 
 2487      7400
 2488              	.LASF0:
 2489 00a5 7369676E 		.ascii	"signed char\000"
 2489      65642063 
 2489      68617200 
 2490              	.LASF4:
 2491 00b1 6C6F6E67 		.ascii	"long int\000"
 2491      20696E74 
 2491      00
 2492              	.LASF43:
 2493 00ba 54656C69 		.ascii	"Telit_UART_WriteTxData\000"
 2493      745F5541 
 2493      52545F57 
 2493      72697465 
 2493      54784461 
 2494              	.LASF9:
 2495 00d1 75696E74 		.ascii	"uint8\000"
 2495      3800
 2496              	.LASF12:
ARM GAS  C:\Users\BRANKO~1\AppData\Local\Temp\cc5L4W5X.s 			page 74


 2497 00d7 646F7562 		.ascii	"double\000"
 2497      6C6500
 2498              	.LASF38:
 2499 00de 61646472 		.ascii	"addressMode\000"
 2499      6573734D 
 2499      6F646500 
 2500              	.LASF47:
 2501 00ea 54656C69 		.ascii	"Telit_UART_PutString\000"
 2501      745F5541 
 2501      52545F50 
 2501      75745374 
 2501      72696E67 
 2502              	.LASF27:
 2503 00ff 54656C69 		.ascii	"Telit_UART_ReadRxData\000"
 2503      745F5541 
 2503      52545F52 
 2503      65616452 
 2503      78446174 
 2504              	.LASF24:
 2505 0115 636F6E74 		.ascii	"control\000"
 2505      726F6C00 
 2506              	.LASF37:
 2507 011d 54656C69 		.ascii	"Telit_UART_SetRxAddressMode\000"
 2507      745F5541 
 2507      52545F53 
 2507      65745278 
 2507      41646472 
 2508              	.LASF20:
 2509 0139 54656C69 		.ascii	"Telit_UART_Stop\000"
 2509      745F5541 
 2509      52545F53 
 2509      746F7000 
 2510              	.LASF61:
 2511 0149 2E5C4765 		.ascii	".\\Generated_Source\\PSoC5\\Telit_UART.c\000"
 2511      6E657261 
 2511      7465645F 
 2511      536F7572 
 2511      63655C50 
 2512              	.LASF56:
 2513 016f 7265744D 		.ascii	"retMode\000"
 2513      6F646500 
 2514              	.LASF8:
 2515 0177 756E7369 		.ascii	"unsigned int\000"
 2515      676E6564 
 2515      20696E74 
 2515      00
 2516              	.LASF23:
 2517 0184 54656C69 		.ascii	"Telit_UART_SetRxInterruptMode\000"
 2517      745F5541 
 2517      52545F53 
 2517      65745278 
 2517      496E7465 
 2518              	.LASF30:
 2519 01a2 54656C69 		.ascii	"Telit_UART_GetChar\000"
 2519      745F5541 
 2519      52545F47 
 2519      65744368 
ARM GAS  C:\Users\BRANKO~1\AppData\Local\Temp\cc5L4W5X.s 			page 75


 2519      617200
 2520              	.LASF5:
 2521 01b5 6C6F6E67 		.ascii	"long unsigned int\000"
 2521      20756E73 
 2521      69676E65 
 2521      6420696E 
 2521      7400
 2522              	.LASF35:
 2523 01c7 73697A65 		.ascii	"size\000"
 2523      00
 2524              	.LASF3:
 2525 01cc 73686F72 		.ascii	"short unsigned int\000"
 2525      7420756E 
 2525      7369676E 
 2525      65642069 
 2525      6E7400
 2526              	.LASF63:
 2527 01df 54656C69 		.ascii	"Telit_UART_initVar\000"
 2527      745F5541 
 2527      52545F69 
 2527      6E697456 
 2527      617200
 2528              	.LASF34:
 2529 01f2 54656C69 		.ascii	"Telit_UART_GetRxBufferSize\000"
 2529      745F5541 
 2529      52545F47 
 2529      65745278 
 2529      42756666 
 2530              	.LASF58:
 2531 020d 74785F70 		.ascii	"tx_period\000"
 2531      6572696F 
 2531      6400
 2532              	.LASF25:
 2533 0217 696E7453 		.ascii	"intSrc\000"
 2533      726300
 2534              	.LASF57:
 2535 021e 746D7053 		.ascii	"tmpStat\000"
 2535      74617400 
 2536              	.LASF50:
 2537 0226 54656C69 		.ascii	"Telit_UART_PutArray\000"
 2537      745F5541 
 2537      52545F50 
 2537      75744172 
 2537      72617900 
 2538              	.LASF16:
 2539 023a 73697A65 		.ascii	"sizetype\000"
 2539      74797065 
 2539      00
 2540              	.LASF40:
 2541 0243 61646472 		.ascii	"address\000"
 2541      65737300 
 2542              	.LASF60:
 2543 024b 474E5520 		.ascii	"GNU C 4.8.4 20140526 (release) [ARM/embedded-4_8-br"
 2543      4320342E 
 2543      382E3420 
 2543      32303134 
 2543      30353236 
ARM GAS  C:\Users\BRANKO~1\AppData\Local\Temp\cc5L4W5X.s 			page 76


 2544 027e 616E6368 		.ascii	"anch revision 211358] -mcpu=cortex-m3 -mthumb -g -O"
 2544      20726576 
 2544      6973696F 
 2544      6E203231 
 2544      31333538 
 2545 02b1 30202D66 		.ascii	"0 -ffunction-sections\000"
 2545      66756E63 
 2545      74696F6E 
 2545      2D736563 
 2545      74696F6E 
 2546              	.LASF31:
 2547 02c7 72785374 		.ascii	"rxStatus\000"
 2547      61747573 
 2547      00
 2548              	.LASF19:
 2549 02d0 54656C69 		.ascii	"Telit_UART_Enable\000"
 2549      745F5541 
 2549      52545F45 
 2549      6E61626C 
 2549      6500
 2550              	.LASF53:
 2551 02e2 54656C69 		.ascii	"Telit_UART_GetTxBufferSize\000"
 2551      745F5541 
 2551      52545F47 
 2551      65745478 
 2551      42756666 
 2552              	.LASF28:
 2553 02fd 54656C69 		.ascii	"Telit_UART_ReadRxStatus\000"
 2553      745F5541 
 2553      52545F52 
 2553      65616452 
 2553      78537461 
 2554              	.LASF11:
 2555 0315 666C6F61 		.ascii	"float\000"
 2555      7400
 2556              	.LASF54:
 2557 031b 54656C69 		.ascii	"Telit_UART_ClearTxBuffer\000"
 2557      745F5541 
 2557      52545F43 
 2557      6C656172 
 2557      54784275 
 2558              	.LASF42:
 2559 0334 54656C69 		.ascii	"Telit_UART_SetTxInterruptMode\000"
 2559      745F5541 
 2559      52545F53 
 2559      65745478 
 2559      496E7465 
 2560              	.LASF15:
 2561 0352 72656738 		.ascii	"reg8\000"
 2561      00
 2562              	.LASF1:
 2563 0357 756E7369 		.ascii	"unsigned char\000"
 2563      676E6564 
 2563      20636861 
 2563      7200
 2564              	.LASF2:
 2565 0365 73686F72 		.ascii	"short int\000"
ARM GAS  C:\Users\BRANKO~1\AppData\Local\Temp\cc5L4W5X.s 			page 77


 2565      7420696E 
 2565      7400
 2566              	.LASF51:
 2567 036f 62797465 		.ascii	"byteCount\000"
 2567      436F756E 
 2567      7400
 2568              	.LASF18:
 2569 0379 54656C69 		.ascii	"Telit_UART_Init\000"
 2569      745F5541 
 2569      52545F49 
 2569      6E697400 
 2570              	.LASF26:
 2571 0389 72784461 		.ascii	"rxData\000"
 2571      746100
 2572              	.LASF46:
 2573 0390 54656C69 		.ascii	"Telit_UART_PutChar\000"
 2573      745F5541 
 2573      52545F50 
 2573      75744368 
 2573      617200
 2574              	.LASF14:
 2575 03a3 63686172 		.ascii	"char\000"
 2575      00
 2576              	.LASF13:
 2577 03a8 63686172 		.ascii	"char8\000"
 2577      3800
 2578              	.LASF39:
 2579 03ae 54656C69 		.ascii	"Telit_UART_SetRxAddress1\000"
 2579      745F5541 
 2579      52545F53 
 2579      65745278 
 2579      41646472 
 2580              	.LASF41:
 2581 03c7 54656C69 		.ascii	"Telit_UART_SetRxAddress2\000"
 2581      745F5541 
 2581      52545F53 
 2581      65745278 
 2581      41646472 
 2582              	.LASF32:
 2583 03e0 54656C69 		.ascii	"Telit_UART_ReadControlRegister\000"
 2583      745F5541 
 2583      52545F52 
 2583      65616443 
 2583      6F6E7472 
 2584              	.LASF33:
 2585 03ff 54656C69 		.ascii	"Telit_UART_GetByte\000"
 2585      745F5541 
 2585      52545F47 
 2585      65744279 
 2585      746500
 2586              	.LASF52:
 2587 0412 54656C69 		.ascii	"Telit_UART_PutCRLF\000"
 2587      745F5541 
 2587      52545F50 
 2587      75744352 
 2587      4C4600
 2588              	.LASF21:
ARM GAS  C:\Users\BRANKO~1\AppData\Local\Temp\cc5L4W5X.s 			page 78


 2589 0425 656E6162 		.ascii	"enableInterrupts\000"
 2589      6C65496E 
 2589      74657272 
 2589      75707473 
 2589      00
 2590              	.LASF29:
 2591 0436 73746174 		.ascii	"status\000"
 2591      757300
 2592              	.LASF22:
 2593 043d 54656C69 		.ascii	"Telit_UART_WriteControlRegister\000"
 2593      745F5541 
 2593      52545F57 
 2593      72697465 
 2593      436F6E74 
 2594              	.LASF36:
 2595 045d 54656C69 		.ascii	"Telit_UART_ClearRxBuffer\000"
 2595      745F5541 
 2595      52545F43 
 2595      6C656172 
 2595      52784275 
 2596              	.LASF49:
 2597 0476 6275665F 		.ascii	"buf_index\000"
 2597      696E6465 
 2597      7800
 2598              	.LASF45:
 2599 0480 54656C69 		.ascii	"Telit_UART_ReadTxStatus\000"
 2599      745F5541 
 2599      52545F52 
 2599      65616454 
 2599      78537461 
 2600              		.ident	"GCC: (GNU Tools for ARM Embedded Processors) 4.8.4 20140526 (release) [ARM/embedded-4_8-br
