ARM GAS  C:\Users\Matthew\AppData\Local\Temp\cczFlGaW.s 			page 1


   1              		.syntax unified
   2              		.cpu cortex-m3
   3              		.fpu softvfp
   4              		.eabi_attribute 20, 1
   5              		.eabi_attribute 21, 1
   6              		.eabi_attribute 23, 3
   7              		.eabi_attribute 24, 1
   8              		.eabi_attribute 25, 1
   9              		.eabi_attribute 26, 1
  10              		.eabi_attribute 30, 6
  11              		.eabi_attribute 34, 1
  12              		.eabi_attribute 18, 4
  13              		.thumb
  14              		.file	"Telit_UART_IntClock.c"
  15              		.text
  16              	.Ltext0:
  17              		.cfi_sections	.debug_frame
  18              		.section	.text.Telit_UART_IntClock_Start,"ax",%progbits
  19              		.align	2
  20              		.global	Telit_UART_IntClock_Start
  21              		.thumb
  22              		.thumb_func
  23              		.type	Telit_UART_IntClock_Start, %function
  24              	Telit_UART_IntClock_Start:
  25              	.LFB0:
  26              		.file 1 ".\\Generated_Source\\PSoC5\\Telit_UART_IntClock.c"
   1:.\Generated_Source\PSoC5/Telit_UART_IntClock.c **** /*******************************************************************************
   2:.\Generated_Source\PSoC5/Telit_UART_IntClock.c **** * File Name: Telit_UART_IntClock.c
   3:.\Generated_Source\PSoC5/Telit_UART_IntClock.c **** * Version 2.20
   4:.\Generated_Source\PSoC5/Telit_UART_IntClock.c **** *
   5:.\Generated_Source\PSoC5/Telit_UART_IntClock.c **** *  Description:
   6:.\Generated_Source\PSoC5/Telit_UART_IntClock.c **** *   This file provides the source code to the API for the clock component.
   7:.\Generated_Source\PSoC5/Telit_UART_IntClock.c **** *
   8:.\Generated_Source\PSoC5/Telit_UART_IntClock.c **** *  Note:
   9:.\Generated_Source\PSoC5/Telit_UART_IntClock.c **** *
  10:.\Generated_Source\PSoC5/Telit_UART_IntClock.c **** ********************************************************************************
  11:.\Generated_Source\PSoC5/Telit_UART_IntClock.c **** * Copyright 2008-2012, Cypress Semiconductor Corporation.  All rights reserved.
  12:.\Generated_Source\PSoC5/Telit_UART_IntClock.c **** * You may use this file only in accordance with the license, terms, conditions, 
  13:.\Generated_Source\PSoC5/Telit_UART_IntClock.c **** * disclaimers, and limitations in the end user license agreement accompanying 
  14:.\Generated_Source\PSoC5/Telit_UART_IntClock.c **** * the software package with which this file was provided.
  15:.\Generated_Source\PSoC5/Telit_UART_IntClock.c **** *******************************************************************************/
  16:.\Generated_Source\PSoC5/Telit_UART_IntClock.c **** 
  17:.\Generated_Source\PSoC5/Telit_UART_IntClock.c **** #include <cydevice_trm.h>
  18:.\Generated_Source\PSoC5/Telit_UART_IntClock.c **** #include "Telit_UART_IntClock.h"
  19:.\Generated_Source\PSoC5/Telit_UART_IntClock.c **** 
  20:.\Generated_Source\PSoC5/Telit_UART_IntClock.c **** /* Clock Distribution registers. */
  21:.\Generated_Source\PSoC5/Telit_UART_IntClock.c **** #define CLK_DIST_LD              (* (reg8 *) CYREG_CLKDIST_LD)
  22:.\Generated_Source\PSoC5/Telit_UART_IntClock.c **** #define CLK_DIST_BCFG2           (* (reg8 *) CYREG_CLKDIST_BCFG2)
  23:.\Generated_Source\PSoC5/Telit_UART_IntClock.c **** #define BCFG2_MASK               (0x80u)
  24:.\Generated_Source\PSoC5/Telit_UART_IntClock.c **** #define CLK_DIST_DMASK           (* (reg8 *) CYREG_CLKDIST_DMASK)
  25:.\Generated_Source\PSoC5/Telit_UART_IntClock.c **** #define CLK_DIST_AMASK           (* (reg8 *) CYREG_CLKDIST_AMASK)
  26:.\Generated_Source\PSoC5/Telit_UART_IntClock.c **** 
  27:.\Generated_Source\PSoC5/Telit_UART_IntClock.c **** #define HAS_CLKDIST_LD_DISABLE   (CY_PSOC3 || CY_PSOC5LP)
  28:.\Generated_Source\PSoC5/Telit_UART_IntClock.c **** 
  29:.\Generated_Source\PSoC5/Telit_UART_IntClock.c **** 
  30:.\Generated_Source\PSoC5/Telit_UART_IntClock.c **** /*******************************************************************************
  31:.\Generated_Source\PSoC5/Telit_UART_IntClock.c **** * Function Name: Telit_UART_IntClock_Start
ARM GAS  C:\Users\Matthew\AppData\Local\Temp\cczFlGaW.s 			page 2


  32:.\Generated_Source\PSoC5/Telit_UART_IntClock.c **** ********************************************************************************
  33:.\Generated_Source\PSoC5/Telit_UART_IntClock.c **** *
  34:.\Generated_Source\PSoC5/Telit_UART_IntClock.c **** * Summary:
  35:.\Generated_Source\PSoC5/Telit_UART_IntClock.c **** *  Starts the clock. Note that on startup, clocks may be already running if the
  36:.\Generated_Source\PSoC5/Telit_UART_IntClock.c **** *  "Start on Reset" option is enabled in the DWR.
  37:.\Generated_Source\PSoC5/Telit_UART_IntClock.c **** *
  38:.\Generated_Source\PSoC5/Telit_UART_IntClock.c **** * Parameters:
  39:.\Generated_Source\PSoC5/Telit_UART_IntClock.c **** *  None
  40:.\Generated_Source\PSoC5/Telit_UART_IntClock.c **** *
  41:.\Generated_Source\PSoC5/Telit_UART_IntClock.c **** * Returns:
  42:.\Generated_Source\PSoC5/Telit_UART_IntClock.c **** *  None
  43:.\Generated_Source\PSoC5/Telit_UART_IntClock.c **** *
  44:.\Generated_Source\PSoC5/Telit_UART_IntClock.c **** *******************************************************************************/
  45:.\Generated_Source\PSoC5/Telit_UART_IntClock.c **** void Telit_UART_IntClock_Start(void) 
  46:.\Generated_Source\PSoC5/Telit_UART_IntClock.c **** {
  27              		.loc 1 46 0
  28              		.cfi_startproc
  29              		@ args = 0, pretend = 0, frame = 0
  30              		@ frame_needed = 1, uses_anonymous_args = 0
  31              		@ link register save eliminated.
  32 0000 80B4     		push	{r7}
  33              		.cfi_def_cfa_offset 4
  34              		.cfi_offset 7, -4
  35 0002 00AF     		add	r7, sp, #0
  36              		.cfi_def_cfa_register 7
  47:.\Generated_Source\PSoC5/Telit_UART_IntClock.c ****     /* Set the bit to enable the clock. */
  48:.\Generated_Source\PSoC5/Telit_UART_IntClock.c ****     Telit_UART_IntClock_CLKEN |= Telit_UART_IntClock_CLKEN_MASK;
  37              		.loc 1 48 0
  38 0004 094B     		ldr	r3, .L2
  39 0006 094A     		ldr	r2, .L2
  40 0008 1278     		ldrb	r2, [r2]
  41 000a D2B2     		uxtb	r2, r2
  42 000c 42F00102 		orr	r2, r2, #1
  43 0010 D2B2     		uxtb	r2, r2
  44 0012 1A70     		strb	r2, [r3]
  49:.\Generated_Source\PSoC5/Telit_UART_IntClock.c **** 	Telit_UART_IntClock_CLKSTBY |= Telit_UART_IntClock_CLKSTBY_MASK;
  45              		.loc 1 49 0
  46 0014 064B     		ldr	r3, .L2+4
  47 0016 064A     		ldr	r2, .L2+4
  48 0018 1278     		ldrb	r2, [r2]
  49 001a D2B2     		uxtb	r2, r2
  50 001c 42F00102 		orr	r2, r2, #1
  51 0020 D2B2     		uxtb	r2, r2
  52 0022 1A70     		strb	r2, [r3]
  50:.\Generated_Source\PSoC5/Telit_UART_IntClock.c **** }
  53              		.loc 1 50 0
  54 0024 BD46     		mov	sp, r7
  55              		@ sp needed
  56 0026 5DF8047B 		ldr	r7, [sp], #4
  57 002a 7047     		bx	lr
  58              	.L3:
  59              		.align	2
  60              	.L2:
  61 002c A2430040 		.word	1073759138
  62 0030 B2430040 		.word	1073759154
  63              		.cfi_endproc
  64              	.LFE0:
ARM GAS  C:\Users\Matthew\AppData\Local\Temp\cczFlGaW.s 			page 3


  65              		.size	Telit_UART_IntClock_Start, .-Telit_UART_IntClock_Start
  66              		.section	.text.Telit_UART_IntClock_Stop,"ax",%progbits
  67              		.align	2
  68              		.global	Telit_UART_IntClock_Stop
  69              		.thumb
  70              		.thumb_func
  71              		.type	Telit_UART_IntClock_Stop, %function
  72              	Telit_UART_IntClock_Stop:
  73              	.LFB1:
  51:.\Generated_Source\PSoC5/Telit_UART_IntClock.c **** 
  52:.\Generated_Source\PSoC5/Telit_UART_IntClock.c **** 
  53:.\Generated_Source\PSoC5/Telit_UART_IntClock.c **** /*******************************************************************************
  54:.\Generated_Source\PSoC5/Telit_UART_IntClock.c **** * Function Name: Telit_UART_IntClock_Stop
  55:.\Generated_Source\PSoC5/Telit_UART_IntClock.c **** ********************************************************************************
  56:.\Generated_Source\PSoC5/Telit_UART_IntClock.c **** *
  57:.\Generated_Source\PSoC5/Telit_UART_IntClock.c **** * Summary:
  58:.\Generated_Source\PSoC5/Telit_UART_IntClock.c **** *  Stops the clock and returns immediately. This API does not require the
  59:.\Generated_Source\PSoC5/Telit_UART_IntClock.c **** *  source clock to be running but may return before the hardware is actually
  60:.\Generated_Source\PSoC5/Telit_UART_IntClock.c **** *  disabled. If the settings of the clock are changed after calling this
  61:.\Generated_Source\PSoC5/Telit_UART_IntClock.c **** *  function, the clock may glitch when it is started. To avoid the clock
  62:.\Generated_Source\PSoC5/Telit_UART_IntClock.c **** *  glitch, use the StopBlock function.
  63:.\Generated_Source\PSoC5/Telit_UART_IntClock.c **** *
  64:.\Generated_Source\PSoC5/Telit_UART_IntClock.c **** * Parameters:
  65:.\Generated_Source\PSoC5/Telit_UART_IntClock.c **** *  None
  66:.\Generated_Source\PSoC5/Telit_UART_IntClock.c **** *
  67:.\Generated_Source\PSoC5/Telit_UART_IntClock.c **** * Returns:
  68:.\Generated_Source\PSoC5/Telit_UART_IntClock.c **** *  None
  69:.\Generated_Source\PSoC5/Telit_UART_IntClock.c **** *
  70:.\Generated_Source\PSoC5/Telit_UART_IntClock.c **** *******************************************************************************/
  71:.\Generated_Source\PSoC5/Telit_UART_IntClock.c **** void Telit_UART_IntClock_Stop(void) 
  72:.\Generated_Source\PSoC5/Telit_UART_IntClock.c **** {
  74              		.loc 1 72 0
  75              		.cfi_startproc
  76              		@ args = 0, pretend = 0, frame = 0
  77              		@ frame_needed = 1, uses_anonymous_args = 0
  78              		@ link register save eliminated.
  79 0000 80B4     		push	{r7}
  80              		.cfi_def_cfa_offset 4
  81              		.cfi_offset 7, -4
  82 0002 00AF     		add	r7, sp, #0
  83              		.cfi_def_cfa_register 7
  73:.\Generated_Source\PSoC5/Telit_UART_IntClock.c ****     /* Clear the bit to disable the clock. */
  74:.\Generated_Source\PSoC5/Telit_UART_IntClock.c ****     Telit_UART_IntClock_CLKEN &= (uint8)(~Telit_UART_IntClock_CLKEN_MASK);
  84              		.loc 1 74 0
  85 0004 094B     		ldr	r3, .L5
  86 0006 094A     		ldr	r2, .L5
  87 0008 1278     		ldrb	r2, [r2]
  88 000a D2B2     		uxtb	r2, r2
  89 000c 22F00102 		bic	r2, r2, #1
  90 0010 D2B2     		uxtb	r2, r2
  91 0012 1A70     		strb	r2, [r3]
  75:.\Generated_Source\PSoC5/Telit_UART_IntClock.c **** 	Telit_UART_IntClock_CLKSTBY &= (uint8)(~Telit_UART_IntClock_CLKSTBY_MASK);
  92              		.loc 1 75 0
  93 0014 064B     		ldr	r3, .L5+4
  94 0016 064A     		ldr	r2, .L5+4
  95 0018 1278     		ldrb	r2, [r2]
  96 001a D2B2     		uxtb	r2, r2
ARM GAS  C:\Users\Matthew\AppData\Local\Temp\cczFlGaW.s 			page 4


  97 001c 22F00102 		bic	r2, r2, #1
  98 0020 D2B2     		uxtb	r2, r2
  99 0022 1A70     		strb	r2, [r3]
  76:.\Generated_Source\PSoC5/Telit_UART_IntClock.c **** }
 100              		.loc 1 76 0
 101 0024 BD46     		mov	sp, r7
 102              		@ sp needed
 103 0026 5DF8047B 		ldr	r7, [sp], #4
 104 002a 7047     		bx	lr
 105              	.L6:
 106              		.align	2
 107              	.L5:
 108 002c A2430040 		.word	1073759138
 109 0030 B2430040 		.word	1073759154
 110              		.cfi_endproc
 111              	.LFE1:
 112              		.size	Telit_UART_IntClock_Stop, .-Telit_UART_IntClock_Stop
 113              		.section	.text.Telit_UART_IntClock_StopBlock,"ax",%progbits
 114              		.align	2
 115              		.global	Telit_UART_IntClock_StopBlock
 116              		.thumb
 117              		.thumb_func
 118              		.type	Telit_UART_IntClock_StopBlock, %function
 119              	Telit_UART_IntClock_StopBlock:
 120              	.LFB2:
  77:.\Generated_Source\PSoC5/Telit_UART_IntClock.c **** 
  78:.\Generated_Source\PSoC5/Telit_UART_IntClock.c **** 
  79:.\Generated_Source\PSoC5/Telit_UART_IntClock.c **** #if(CY_PSOC3 || CY_PSOC5LP)
  80:.\Generated_Source\PSoC5/Telit_UART_IntClock.c **** 
  81:.\Generated_Source\PSoC5/Telit_UART_IntClock.c **** 
  82:.\Generated_Source\PSoC5/Telit_UART_IntClock.c **** /*******************************************************************************
  83:.\Generated_Source\PSoC5/Telit_UART_IntClock.c **** * Function Name: Telit_UART_IntClock_StopBlock
  84:.\Generated_Source\PSoC5/Telit_UART_IntClock.c **** ********************************************************************************
  85:.\Generated_Source\PSoC5/Telit_UART_IntClock.c **** *
  86:.\Generated_Source\PSoC5/Telit_UART_IntClock.c **** * Summary:
  87:.\Generated_Source\PSoC5/Telit_UART_IntClock.c **** *  Stops the clock and waits for the hardware to actually be disabled before
  88:.\Generated_Source\PSoC5/Telit_UART_IntClock.c **** *  returning. This ensures that the clock is never truncated (high part of the
  89:.\Generated_Source\PSoC5/Telit_UART_IntClock.c **** *  cycle will terminate before the clock is disabled and the API returns).
  90:.\Generated_Source\PSoC5/Telit_UART_IntClock.c **** *  Note that the source clock must be running or this API will never return as
  91:.\Generated_Source\PSoC5/Telit_UART_IntClock.c **** *  a stopped clock cannot be disabled.
  92:.\Generated_Source\PSoC5/Telit_UART_IntClock.c **** *
  93:.\Generated_Source\PSoC5/Telit_UART_IntClock.c **** * Parameters:
  94:.\Generated_Source\PSoC5/Telit_UART_IntClock.c **** *  None
  95:.\Generated_Source\PSoC5/Telit_UART_IntClock.c **** *
  96:.\Generated_Source\PSoC5/Telit_UART_IntClock.c **** * Returns:
  97:.\Generated_Source\PSoC5/Telit_UART_IntClock.c **** *  None
  98:.\Generated_Source\PSoC5/Telit_UART_IntClock.c **** *
  99:.\Generated_Source\PSoC5/Telit_UART_IntClock.c **** *******************************************************************************/
 100:.\Generated_Source\PSoC5/Telit_UART_IntClock.c **** void Telit_UART_IntClock_StopBlock(void) 
 101:.\Generated_Source\PSoC5/Telit_UART_IntClock.c **** {
 121              		.loc 1 101 0
 122              		.cfi_startproc
 123              		@ args = 0, pretend = 0, frame = 8
 124              		@ frame_needed = 1, uses_anonymous_args = 0
 125              		@ link register save eliminated.
 126 0000 80B4     		push	{r7}
 127              		.cfi_def_cfa_offset 4
ARM GAS  C:\Users\Matthew\AppData\Local\Temp\cczFlGaW.s 			page 5


 128              		.cfi_offset 7, -4
 129 0002 83B0     		sub	sp, sp, #12
 130              		.cfi_def_cfa_offset 16
 131 0004 00AF     		add	r7, sp, #0
 132              		.cfi_def_cfa_register 7
 102:.\Generated_Source\PSoC5/Telit_UART_IntClock.c ****     if ((Telit_UART_IntClock_CLKEN & Telit_UART_IntClock_CLKEN_MASK) != 0u)
 133              		.loc 1 102 0
 134 0006 224B     		ldr	r3, .L10
 135 0008 1B78     		ldrb	r3, [r3]
 136 000a DBB2     		uxtb	r3, r3
 137 000c 03F00103 		and	r3, r3, #1
 138 0010 002B     		cmp	r3, #0
 139 0012 37D0     		beq	.L7
 140              	.LBB2:
 103:.\Generated_Source\PSoC5/Telit_UART_IntClock.c ****     {
 104:.\Generated_Source\PSoC5/Telit_UART_IntClock.c **** #if HAS_CLKDIST_LD_DISABLE
 105:.\Generated_Source\PSoC5/Telit_UART_IntClock.c ****         uint16 oldDivider;
 106:.\Generated_Source\PSoC5/Telit_UART_IntClock.c **** 
 107:.\Generated_Source\PSoC5/Telit_UART_IntClock.c ****         CLK_DIST_LD = 0u;
 141              		.loc 1 107 0
 142 0014 1F4B     		ldr	r3, .L10+4
 143 0016 0022     		movs	r2, #0
 144 0018 1A70     		strb	r2, [r3]
 108:.\Generated_Source\PSoC5/Telit_UART_IntClock.c **** 
 109:.\Generated_Source\PSoC5/Telit_UART_IntClock.c ****         /* Clear all the mask bits except ours. */
 110:.\Generated_Source\PSoC5/Telit_UART_IntClock.c **** #if defined(Telit_UART_IntClock__CFG3)
 111:.\Generated_Source\PSoC5/Telit_UART_IntClock.c ****         CLK_DIST_AMASK = Telit_UART_IntClock_CLKEN_MASK;
 112:.\Generated_Source\PSoC5/Telit_UART_IntClock.c ****         CLK_DIST_DMASK = 0x00u;
 113:.\Generated_Source\PSoC5/Telit_UART_IntClock.c **** #else
 114:.\Generated_Source\PSoC5/Telit_UART_IntClock.c ****         CLK_DIST_DMASK = Telit_UART_IntClock_CLKEN_MASK;
 145              		.loc 1 114 0
 146 001a 1F4B     		ldr	r3, .L10+8
 147 001c 0122     		movs	r2, #1
 148 001e 1A70     		strb	r2, [r3]
 115:.\Generated_Source\PSoC5/Telit_UART_IntClock.c ****         CLK_DIST_AMASK = 0x00u;
 149              		.loc 1 115 0
 150 0020 1E4B     		ldr	r3, .L10+12
 151 0022 0022     		movs	r2, #0
 152 0024 1A70     		strb	r2, [r3]
 116:.\Generated_Source\PSoC5/Telit_UART_IntClock.c **** #endif /* Telit_UART_IntClock__CFG3 */
 117:.\Generated_Source\PSoC5/Telit_UART_IntClock.c **** 
 118:.\Generated_Source\PSoC5/Telit_UART_IntClock.c ****         /* Clear mask of bus clock. */
 119:.\Generated_Source\PSoC5/Telit_UART_IntClock.c ****         CLK_DIST_BCFG2 &= (uint8)(~BCFG2_MASK);
 153              		.loc 1 119 0
 154 0026 1E4B     		ldr	r3, .L10+16
 155 0028 1D4A     		ldr	r2, .L10+16
 156 002a 1278     		ldrb	r2, [r2]
 157 002c D2B2     		uxtb	r2, r2
 158 002e 02F07F02 		and	r2, r2, #127
 159 0032 D2B2     		uxtb	r2, r2
 160 0034 1A70     		strb	r2, [r3]
 120:.\Generated_Source\PSoC5/Telit_UART_IntClock.c **** 
 121:.\Generated_Source\PSoC5/Telit_UART_IntClock.c ****         oldDivider = CY_GET_REG16(Telit_UART_IntClock_DIV_PTR);
 161              		.loc 1 121 0
 162 0036 1B4B     		ldr	r3, .L10+20
 163 0038 1B88     		ldrh	r3, [r3]	@ movhi
 164 003a FB80     		strh	r3, [r7, #6]	@ movhi
ARM GAS  C:\Users\Matthew\AppData\Local\Temp\cczFlGaW.s 			page 6


 122:.\Generated_Source\PSoC5/Telit_UART_IntClock.c ****         CY_SET_REG16(CYREG_CLKDIST_WRK0, oldDivider);
 165              		.loc 1 122 0
 166 003c 1A4B     		ldr	r3, .L10+24
 167 003e FA88     		ldrh	r2, [r7, #6]	@ movhi
 168 0040 1A80     		strh	r2, [r3]	@ movhi
 123:.\Generated_Source\PSoC5/Telit_UART_IntClock.c ****         CLK_DIST_LD = CYCLK_LD_DISABLE | CYCLK_LD_SYNC_EN | CYCLK_LD_LOAD;
 169              		.loc 1 123 0
 170 0042 144B     		ldr	r3, .L10+4
 171 0044 0722     		movs	r2, #7
 172 0046 1A70     		strb	r2, [r3]
 124:.\Generated_Source\PSoC5/Telit_UART_IntClock.c **** 
 125:.\Generated_Source\PSoC5/Telit_UART_IntClock.c ****         /* Wait for clock to be disabled */
 126:.\Generated_Source\PSoC5/Telit_UART_IntClock.c ****         while ((CLK_DIST_LD & CYCLK_LD_LOAD) != 0u) { }
 173              		.loc 1 126 0
 174 0048 00BF     		nop
 175              	.L9:
 176              		.loc 1 126 0 is_stmt 0 discriminator 1
 177 004a 124B     		ldr	r3, .L10+4
 178 004c 1B78     		ldrb	r3, [r3]
 179 004e DBB2     		uxtb	r3, r3
 180 0050 03F00103 		and	r3, r3, #1
 181 0054 002B     		cmp	r3, #0
 182 0056 F8D1     		bne	.L9
 127:.\Generated_Source\PSoC5/Telit_UART_IntClock.c **** #endif /* HAS_CLKDIST_LD_DISABLE */
 128:.\Generated_Source\PSoC5/Telit_UART_IntClock.c **** 
 129:.\Generated_Source\PSoC5/Telit_UART_IntClock.c ****         /* Clear the bit to disable the clock. */
 130:.\Generated_Source\PSoC5/Telit_UART_IntClock.c ****         Telit_UART_IntClock_CLKEN &= (uint8)(~Telit_UART_IntClock_CLKEN_MASK);
 183              		.loc 1 130 0 is_stmt 1
 184 0058 0D4B     		ldr	r3, .L10
 185 005a 0D4A     		ldr	r2, .L10
 186 005c 1278     		ldrb	r2, [r2]
 187 005e D2B2     		uxtb	r2, r2
 188 0060 22F00102 		bic	r2, r2, #1
 189 0064 D2B2     		uxtb	r2, r2
 190 0066 1A70     		strb	r2, [r3]
 131:.\Generated_Source\PSoC5/Telit_UART_IntClock.c ****         Telit_UART_IntClock_CLKSTBY &= (uint8)(~Telit_UART_IntClock_CLKSTBY_MASK);
 191              		.loc 1 131 0
 192 0068 104B     		ldr	r3, .L10+28
 193 006a 104A     		ldr	r2, .L10+28
 194 006c 1278     		ldrb	r2, [r2]
 195 006e D2B2     		uxtb	r2, r2
 196 0070 22F00102 		bic	r2, r2, #1
 197 0074 D2B2     		uxtb	r2, r2
 198 0076 1A70     		strb	r2, [r3]
 132:.\Generated_Source\PSoC5/Telit_UART_IntClock.c **** 
 133:.\Generated_Source\PSoC5/Telit_UART_IntClock.c **** #if HAS_CLKDIST_LD_DISABLE
 134:.\Generated_Source\PSoC5/Telit_UART_IntClock.c ****         /* Clear the disable bit */
 135:.\Generated_Source\PSoC5/Telit_UART_IntClock.c ****         CLK_DIST_LD = 0x00u;
 199              		.loc 1 135 0
 200 0078 064B     		ldr	r3, .L10+4
 201 007a 0022     		movs	r2, #0
 202 007c 1A70     		strb	r2, [r3]
 136:.\Generated_Source\PSoC5/Telit_UART_IntClock.c ****         CY_SET_REG16(Telit_UART_IntClock_DIV_PTR, oldDivider);
 203              		.loc 1 136 0
 204 007e 094B     		ldr	r3, .L10+20
 205 0080 FA88     		ldrh	r2, [r7, #6]	@ movhi
 206 0082 1A80     		strh	r2, [r3]	@ movhi
ARM GAS  C:\Users\Matthew\AppData\Local\Temp\cczFlGaW.s 			page 7


 207              	.L7:
 208              	.LBE2:
 137:.\Generated_Source\PSoC5/Telit_UART_IntClock.c **** #endif /* HAS_CLKDIST_LD_DISABLE */
 138:.\Generated_Source\PSoC5/Telit_UART_IntClock.c ****     }
 139:.\Generated_Source\PSoC5/Telit_UART_IntClock.c **** }
 209              		.loc 1 139 0
 210 0084 0C37     		adds	r7, r7, #12
 211 0086 BD46     		mov	sp, r7
 212              		@ sp needed
 213 0088 5DF8047B 		ldr	r7, [sp], #4
 214 008c 7047     		bx	lr
 215              	.L11:
 216 008e 00BF     		.align	2
 217              	.L10:
 218 0090 A2430040 		.word	1073759138
 219 0094 01400040 		.word	1073758209
 220 0098 10400040 		.word	1073758224
 221 009c 14400040 		.word	1073758228
 222 00a0 08400040 		.word	1073758216
 223 00a4 80400040 		.word	1073758336
 224 00a8 02400040 		.word	1073758210
 225 00ac B2430040 		.word	1073759154
 226              		.cfi_endproc
 227              	.LFE2:
 228              		.size	Telit_UART_IntClock_StopBlock, .-Telit_UART_IntClock_StopBlock
 229              		.section	.text.Telit_UART_IntClock_StandbyPower,"ax",%progbits
 230              		.align	2
 231              		.global	Telit_UART_IntClock_StandbyPower
 232              		.thumb
 233              		.thumb_func
 234              		.type	Telit_UART_IntClock_StandbyPower, %function
 235              	Telit_UART_IntClock_StandbyPower:
 236              	.LFB3:
 140:.\Generated_Source\PSoC5/Telit_UART_IntClock.c **** #endif /* (CY_PSOC3 || CY_PSOC5LP) */
 141:.\Generated_Source\PSoC5/Telit_UART_IntClock.c **** 
 142:.\Generated_Source\PSoC5/Telit_UART_IntClock.c **** 
 143:.\Generated_Source\PSoC5/Telit_UART_IntClock.c **** /*******************************************************************************
 144:.\Generated_Source\PSoC5/Telit_UART_IntClock.c **** * Function Name: Telit_UART_IntClock_StandbyPower
 145:.\Generated_Source\PSoC5/Telit_UART_IntClock.c **** ********************************************************************************
 146:.\Generated_Source\PSoC5/Telit_UART_IntClock.c **** *
 147:.\Generated_Source\PSoC5/Telit_UART_IntClock.c **** * Summary:
 148:.\Generated_Source\PSoC5/Telit_UART_IntClock.c **** *  Sets whether the clock is active in standby mode.
 149:.\Generated_Source\PSoC5/Telit_UART_IntClock.c **** *
 150:.\Generated_Source\PSoC5/Telit_UART_IntClock.c **** * Parameters:
 151:.\Generated_Source\PSoC5/Telit_UART_IntClock.c **** *  state:  0 to disable clock during standby, nonzero to enable.
 152:.\Generated_Source\PSoC5/Telit_UART_IntClock.c **** *
 153:.\Generated_Source\PSoC5/Telit_UART_IntClock.c **** * Returns:
 154:.\Generated_Source\PSoC5/Telit_UART_IntClock.c **** *  None
 155:.\Generated_Source\PSoC5/Telit_UART_IntClock.c **** *
 156:.\Generated_Source\PSoC5/Telit_UART_IntClock.c **** *******************************************************************************/
 157:.\Generated_Source\PSoC5/Telit_UART_IntClock.c **** void Telit_UART_IntClock_StandbyPower(uint8 state) 
 158:.\Generated_Source\PSoC5/Telit_UART_IntClock.c **** {
 237              		.loc 1 158 0
 238              		.cfi_startproc
 239              		@ args = 0, pretend = 0, frame = 8
 240              		@ frame_needed = 1, uses_anonymous_args = 0
 241              		@ link register save eliminated.
ARM GAS  C:\Users\Matthew\AppData\Local\Temp\cczFlGaW.s 			page 8


 242 0000 80B4     		push	{r7}
 243              		.cfi_def_cfa_offset 4
 244              		.cfi_offset 7, -4
 245 0002 83B0     		sub	sp, sp, #12
 246              		.cfi_def_cfa_offset 16
 247 0004 00AF     		add	r7, sp, #0
 248              		.cfi_def_cfa_register 7
 249 0006 0346     		mov	r3, r0
 250 0008 FB71     		strb	r3, [r7, #7]
 159:.\Generated_Source\PSoC5/Telit_UART_IntClock.c ****     if(state == 0u)
 251              		.loc 1 159 0
 252 000a FB79     		ldrb	r3, [r7, #7]	@ zero_extendqisi2
 253 000c 002B     		cmp	r3, #0
 254 000e 08D1     		bne	.L13
 160:.\Generated_Source\PSoC5/Telit_UART_IntClock.c ****     {
 161:.\Generated_Source\PSoC5/Telit_UART_IntClock.c ****         Telit_UART_IntClock_CLKSTBY &= (uint8)(~Telit_UART_IntClock_CLKSTBY_MASK);
 255              		.loc 1 161 0
 256 0010 0A4B     		ldr	r3, .L15
 257 0012 0A4A     		ldr	r2, .L15
 258 0014 1278     		ldrb	r2, [r2]
 259 0016 D2B2     		uxtb	r2, r2
 260 0018 22F00102 		bic	r2, r2, #1
 261 001c D2B2     		uxtb	r2, r2
 262 001e 1A70     		strb	r2, [r3]
 263 0020 07E0     		b	.L12
 264              	.L13:
 162:.\Generated_Source\PSoC5/Telit_UART_IntClock.c ****     }
 163:.\Generated_Source\PSoC5/Telit_UART_IntClock.c ****     else
 164:.\Generated_Source\PSoC5/Telit_UART_IntClock.c ****     {
 165:.\Generated_Source\PSoC5/Telit_UART_IntClock.c ****         Telit_UART_IntClock_CLKSTBY |= Telit_UART_IntClock_CLKSTBY_MASK;
 265              		.loc 1 165 0
 266 0022 064B     		ldr	r3, .L15
 267 0024 054A     		ldr	r2, .L15
 268 0026 1278     		ldrb	r2, [r2]
 269 0028 D2B2     		uxtb	r2, r2
 270 002a 42F00102 		orr	r2, r2, #1
 271 002e D2B2     		uxtb	r2, r2
 272 0030 1A70     		strb	r2, [r3]
 273              	.L12:
 166:.\Generated_Source\PSoC5/Telit_UART_IntClock.c ****     }
 167:.\Generated_Source\PSoC5/Telit_UART_IntClock.c **** }
 274              		.loc 1 167 0
 275 0032 0C37     		adds	r7, r7, #12
 276 0034 BD46     		mov	sp, r7
 277              		@ sp needed
 278 0036 5DF8047B 		ldr	r7, [sp], #4
 279 003a 7047     		bx	lr
 280              	.L16:
 281              		.align	2
 282              	.L15:
 283 003c B2430040 		.word	1073759154
 284              		.cfi_endproc
 285              	.LFE3:
 286              		.size	Telit_UART_IntClock_StandbyPower, .-Telit_UART_IntClock_StandbyPower
 287              		.section	.text.Telit_UART_IntClock_SetDividerRegister,"ax",%progbits
 288              		.align	2
 289              		.global	Telit_UART_IntClock_SetDividerRegister
ARM GAS  C:\Users\Matthew\AppData\Local\Temp\cczFlGaW.s 			page 9


 290              		.thumb
 291              		.thumb_func
 292              		.type	Telit_UART_IntClock_SetDividerRegister, %function
 293              	Telit_UART_IntClock_SetDividerRegister:
 294              	.LFB4:
 168:.\Generated_Source\PSoC5/Telit_UART_IntClock.c **** 
 169:.\Generated_Source\PSoC5/Telit_UART_IntClock.c **** 
 170:.\Generated_Source\PSoC5/Telit_UART_IntClock.c **** /*******************************************************************************
 171:.\Generated_Source\PSoC5/Telit_UART_IntClock.c **** * Function Name: Telit_UART_IntClock_SetDividerRegister
 172:.\Generated_Source\PSoC5/Telit_UART_IntClock.c **** ********************************************************************************
 173:.\Generated_Source\PSoC5/Telit_UART_IntClock.c **** *
 174:.\Generated_Source\PSoC5/Telit_UART_IntClock.c **** * Summary:
 175:.\Generated_Source\PSoC5/Telit_UART_IntClock.c **** *  Modifies the clock divider and, thus, the frequency. When the clock divider
 176:.\Generated_Source\PSoC5/Telit_UART_IntClock.c **** *  register is set to zero or changed from zero, the clock will be temporarily
 177:.\Generated_Source\PSoC5/Telit_UART_IntClock.c **** *  disabled in order to change the SSS mode bit. If the clock is enabled when
 178:.\Generated_Source\PSoC5/Telit_UART_IntClock.c **** *  SetDividerRegister is called, then the source clock must be running.
 179:.\Generated_Source\PSoC5/Telit_UART_IntClock.c **** *
 180:.\Generated_Source\PSoC5/Telit_UART_IntClock.c **** * Parameters:
 181:.\Generated_Source\PSoC5/Telit_UART_IntClock.c **** *  clkDivider:  Divider register value (0-65,535). This value is NOT the
 182:.\Generated_Source\PSoC5/Telit_UART_IntClock.c **** *    divider; the clock hardware divides by clkDivider plus one. For example,
 183:.\Generated_Source\PSoC5/Telit_UART_IntClock.c **** *    to divide the clock by 2, this parameter should be set to 1.
 184:.\Generated_Source\PSoC5/Telit_UART_IntClock.c **** *  restart:  If nonzero, restarts the clock divider: the current clock cycle
 185:.\Generated_Source\PSoC5/Telit_UART_IntClock.c **** *   will be truncated and the new divide value will take effect immediately. If
 186:.\Generated_Source\PSoC5/Telit_UART_IntClock.c **** *   zero, the new divide value will take effect at the end of the current clock
 187:.\Generated_Source\PSoC5/Telit_UART_IntClock.c **** *   cycle.
 188:.\Generated_Source\PSoC5/Telit_UART_IntClock.c **** *
 189:.\Generated_Source\PSoC5/Telit_UART_IntClock.c **** * Returns:
 190:.\Generated_Source\PSoC5/Telit_UART_IntClock.c **** *  None
 191:.\Generated_Source\PSoC5/Telit_UART_IntClock.c **** *
 192:.\Generated_Source\PSoC5/Telit_UART_IntClock.c **** *******************************************************************************/
 193:.\Generated_Source\PSoC5/Telit_UART_IntClock.c **** void Telit_UART_IntClock_SetDividerRegister(uint16 clkDivider, uint8 restart)
 194:.\Generated_Source\PSoC5/Telit_UART_IntClock.c ****                                 
 195:.\Generated_Source\PSoC5/Telit_UART_IntClock.c **** {
 295              		.loc 1 195 0
 296              		.cfi_startproc
 297              		@ args = 0, pretend = 0, frame = 16
 298              		@ frame_needed = 1, uses_anonymous_args = 0
 299 0000 80B5     		push	{r7, lr}
 300              		.cfi_def_cfa_offset 8
 301              		.cfi_offset 7, -8
 302              		.cfi_offset 14, -4
 303 0002 84B0     		sub	sp, sp, #16
 304              		.cfi_def_cfa_offset 24
 305 0004 00AF     		add	r7, sp, #0
 306              		.cfi_def_cfa_register 7
 307 0006 0246     		mov	r2, r0
 308 0008 0B46     		mov	r3, r1
 309 000a FA80     		strh	r2, [r7, #6]	@ movhi
 310 000c 7B71     		strb	r3, [r7, #5]
 196:.\Generated_Source\PSoC5/Telit_UART_IntClock.c ****     uint8 enabled;
 197:.\Generated_Source\PSoC5/Telit_UART_IntClock.c **** 
 198:.\Generated_Source\PSoC5/Telit_UART_IntClock.c ****     uint8 currSrc = Telit_UART_IntClock_GetSourceRegister();
 311              		.loc 1 198 0
 312 000e FFF7FEFF 		bl	Telit_UART_IntClock_GetSourceRegister
 313 0012 0346     		mov	r3, r0
 314 0014 FB73     		strb	r3, [r7, #15]
 199:.\Generated_Source\PSoC5/Telit_UART_IntClock.c ****     uint16 oldDivider = Telit_UART_IntClock_GetDividerRegister();
ARM GAS  C:\Users\Matthew\AppData\Local\Temp\cczFlGaW.s 			page 10


 315              		.loc 1 199 0
 316 0016 FFF7FEFF 		bl	Telit_UART_IntClock_GetDividerRegister
 317 001a 0346     		mov	r3, r0
 318 001c BB81     		strh	r3, [r7, #12]	@ movhi
 200:.\Generated_Source\PSoC5/Telit_UART_IntClock.c **** 
 201:.\Generated_Source\PSoC5/Telit_UART_IntClock.c ****     if (clkDivider != oldDivider)
 319              		.loc 1 201 0
 320 001e FA88     		ldrh	r2, [r7, #6]
 321 0020 BB89     		ldrh	r3, [r7, #12]
 322 0022 9A42     		cmp	r2, r3
 323 0024 00F08780 		beq	.L17
 202:.\Generated_Source\PSoC5/Telit_UART_IntClock.c ****     {
 203:.\Generated_Source\PSoC5/Telit_UART_IntClock.c ****         enabled = Telit_UART_IntClock_CLKEN & Telit_UART_IntClock_CLKEN_MASK;
 324              		.loc 1 203 0
 325 0028 444B     		ldr	r3, .L30
 326 002a 1B78     		ldrb	r3, [r3]
 327 002c DBB2     		uxtb	r3, r3
 328 002e 03F00103 		and	r3, r3, #1
 329 0032 FB72     		strb	r3, [r7, #11]
 204:.\Generated_Source\PSoC5/Telit_UART_IntClock.c **** 
 205:.\Generated_Source\PSoC5/Telit_UART_IntClock.c ****         if ((currSrc == (uint8)CYCLK_SRC_SEL_CLK_SYNC_D) && ((oldDivider == 0u) || (clkDivider == 0
 330              		.loc 1 205 0
 331 0034 FB7B     		ldrb	r3, [r7, #15]	@ zero_extendqisi2
 332 0036 002B     		cmp	r3, #0
 333 0038 20D1     		bne	.L19
 334              		.loc 1 205 0 is_stmt 0 discriminator 1
 335 003a BB89     		ldrh	r3, [r7, #12]
 336 003c 002B     		cmp	r3, #0
 337 003e 02D0     		beq	.L20
 338 0040 FB88     		ldrh	r3, [r7, #6]
 339 0042 002B     		cmp	r3, #0
 340 0044 1AD1     		bne	.L19
 341              	.L20:
 206:.\Generated_Source\PSoC5/Telit_UART_IntClock.c ****         {
 207:.\Generated_Source\PSoC5/Telit_UART_IntClock.c ****             /* Moving to/from SSS requires correct ordering to prevent halting the clock    */
 208:.\Generated_Source\PSoC5/Telit_UART_IntClock.c ****             if (oldDivider == 0u)
 342              		.loc 1 208 0 is_stmt 1
 343 0046 BB89     		ldrh	r3, [r7, #12]
 344 0048 002B     		cmp	r3, #0
 345 004a 0BD1     		bne	.L21
 209:.\Generated_Source\PSoC5/Telit_UART_IntClock.c ****             {
 210:.\Generated_Source\PSoC5/Telit_UART_IntClock.c ****                 /* Moving away from SSS, set the divider first so when SSS is cleared we    */
 211:.\Generated_Source\PSoC5/Telit_UART_IntClock.c ****                 /* don't halt the clock.  Using the shadow load isn't required as the       */
 212:.\Generated_Source\PSoC5/Telit_UART_IntClock.c ****                 /* divider is ignored while SSS is set.                                     */
 213:.\Generated_Source\PSoC5/Telit_UART_IntClock.c ****                 CY_SET_REG16(Telit_UART_IntClock_DIV_PTR, clkDivider);
 346              		.loc 1 213 0
 347 004c 3C4B     		ldr	r3, .L30+4
 348 004e FA88     		ldrh	r2, [r7, #6]	@ movhi
 349 0050 1A80     		strh	r2, [r3]	@ movhi
 214:.\Generated_Source\PSoC5/Telit_UART_IntClock.c ****                 Telit_UART_IntClock_MOD_SRC &= (uint8)(~CYCLK_SSS);
 350              		.loc 1 214 0
 351 0052 3C4B     		ldr	r3, .L30+8
 352 0054 3B4A     		ldr	r2, .L30+8
 353 0056 1278     		ldrb	r2, [r2]
 354 0058 D2B2     		uxtb	r2, r2
 355 005a 22F04002 		bic	r2, r2, #64
 356 005e D2B2     		uxtb	r2, r2
ARM GAS  C:\Users\Matthew\AppData\Local\Temp\cczFlGaW.s 			page 11


 357 0060 1A70     		strb	r2, [r3]
 208:.\Generated_Source\PSoC5/Telit_UART_IntClock.c ****             if (oldDivider == 0u)
 358              		.loc 1 208 0
 359 0062 68E0     		b	.L17
 360              	.L21:
 215:.\Generated_Source\PSoC5/Telit_UART_IntClock.c ****             }
 216:.\Generated_Source\PSoC5/Telit_UART_IntClock.c ****             else
 217:.\Generated_Source\PSoC5/Telit_UART_IntClock.c ****             {
 218:.\Generated_Source\PSoC5/Telit_UART_IntClock.c ****                 /* Moving to SSS, set SSS which then ignores the divider and we can set     */
 219:.\Generated_Source\PSoC5/Telit_UART_IntClock.c ****                 /* it without bothering with the shadow load.                               */
 220:.\Generated_Source\PSoC5/Telit_UART_IntClock.c ****                 Telit_UART_IntClock_MOD_SRC |= CYCLK_SSS;
 361              		.loc 1 220 0
 362 0064 374B     		ldr	r3, .L30+8
 363 0066 374A     		ldr	r2, .L30+8
 364 0068 1278     		ldrb	r2, [r2]
 365 006a D2B2     		uxtb	r2, r2
 366 006c 42F04002 		orr	r2, r2, #64
 367 0070 D2B2     		uxtb	r2, r2
 368 0072 1A70     		strb	r2, [r3]
 221:.\Generated_Source\PSoC5/Telit_UART_IntClock.c ****                 CY_SET_REG16(Telit_UART_IntClock_DIV_PTR, clkDivider);
 369              		.loc 1 221 0
 370 0074 324B     		ldr	r3, .L30+4
 371 0076 FA88     		ldrh	r2, [r7, #6]	@ movhi
 372 0078 1A80     		strh	r2, [r3]	@ movhi
 208:.\Generated_Source\PSoC5/Telit_UART_IntClock.c ****             if (oldDivider == 0u)
 373              		.loc 1 208 0
 374 007a 5CE0     		b	.L17
 375              	.L19:
 222:.\Generated_Source\PSoC5/Telit_UART_IntClock.c ****             }
 223:.\Generated_Source\PSoC5/Telit_UART_IntClock.c ****         }
 224:.\Generated_Source\PSoC5/Telit_UART_IntClock.c ****         else
 225:.\Generated_Source\PSoC5/Telit_UART_IntClock.c ****         {
 226:.\Generated_Source\PSoC5/Telit_UART_IntClock.c **** 			
 227:.\Generated_Source\PSoC5/Telit_UART_IntClock.c ****             if (enabled != 0u)
 376              		.loc 1 227 0
 377 007c FB7A     		ldrb	r3, [r7, #11]	@ zero_extendqisi2
 378 007e 002B     		cmp	r3, #0
 379 0080 33D0     		beq	.L23
 228:.\Generated_Source\PSoC5/Telit_UART_IntClock.c ****             {
 229:.\Generated_Source\PSoC5/Telit_UART_IntClock.c ****                 CLK_DIST_LD = 0x00u;
 380              		.loc 1 229 0
 381 0082 314B     		ldr	r3, .L30+12
 382 0084 0022     		movs	r2, #0
 383 0086 1A70     		strb	r2, [r3]
 230:.\Generated_Source\PSoC5/Telit_UART_IntClock.c **** 
 231:.\Generated_Source\PSoC5/Telit_UART_IntClock.c ****                 /* Clear all the mask bits except ours. */
 232:.\Generated_Source\PSoC5/Telit_UART_IntClock.c **** #if defined(Telit_UART_IntClock__CFG3)
 233:.\Generated_Source\PSoC5/Telit_UART_IntClock.c ****                 CLK_DIST_AMASK = Telit_UART_IntClock_CLKEN_MASK;
 234:.\Generated_Source\PSoC5/Telit_UART_IntClock.c ****                 CLK_DIST_DMASK = 0x00u;
 235:.\Generated_Source\PSoC5/Telit_UART_IntClock.c **** #else
 236:.\Generated_Source\PSoC5/Telit_UART_IntClock.c ****                 CLK_DIST_DMASK = Telit_UART_IntClock_CLKEN_MASK;
 384              		.loc 1 236 0
 385 0088 304B     		ldr	r3, .L30+16
 386 008a 0122     		movs	r2, #1
 387 008c 1A70     		strb	r2, [r3]
 237:.\Generated_Source\PSoC5/Telit_UART_IntClock.c ****                 CLK_DIST_AMASK = 0x00u;
 388              		.loc 1 237 0
ARM GAS  C:\Users\Matthew\AppData\Local\Temp\cczFlGaW.s 			page 12


 389 008e 304B     		ldr	r3, .L30+20
 390 0090 0022     		movs	r2, #0
 391 0092 1A70     		strb	r2, [r3]
 238:.\Generated_Source\PSoC5/Telit_UART_IntClock.c **** #endif /* Telit_UART_IntClock__CFG3 */
 239:.\Generated_Source\PSoC5/Telit_UART_IntClock.c ****                 /* Clear mask of bus clock. */
 240:.\Generated_Source\PSoC5/Telit_UART_IntClock.c ****                 CLK_DIST_BCFG2 &= (uint8)(~BCFG2_MASK);
 392              		.loc 1 240 0
 393 0094 2F4B     		ldr	r3, .L30+24
 394 0096 2F4A     		ldr	r2, .L30+24
 395 0098 1278     		ldrb	r2, [r2]
 396 009a D2B2     		uxtb	r2, r2
 397 009c 02F07F02 		and	r2, r2, #127
 398 00a0 D2B2     		uxtb	r2, r2
 399 00a2 1A70     		strb	r2, [r3]
 241:.\Generated_Source\PSoC5/Telit_UART_IntClock.c **** 
 242:.\Generated_Source\PSoC5/Telit_UART_IntClock.c ****                 /* If clock is currently enabled, disable it if async or going from N-to-1*/
 243:.\Generated_Source\PSoC5/Telit_UART_IntClock.c ****                 if (((Telit_UART_IntClock_MOD_SRC & CYCLK_SYNC) == 0u) || (clkDivider == 0u))
 400              		.loc 1 243 0
 401 00a4 274B     		ldr	r3, .L30+8
 402 00a6 1B78     		ldrb	r3, [r3]
 403 00a8 DBB2     		uxtb	r3, r3
 404 00aa 03F00803 		and	r3, r3, #8
 405 00ae 002B     		cmp	r3, #0
 406 00b0 02D0     		beq	.L24
 407              		.loc 1 243 0 is_stmt 0 discriminator 1
 408 00b2 FB88     		ldrh	r3, [r7, #6]
 409 00b4 002B     		cmp	r3, #0
 410 00b6 18D1     		bne	.L23
 411              	.L24:
 244:.\Generated_Source\PSoC5/Telit_UART_IntClock.c ****                 {
 245:.\Generated_Source\PSoC5/Telit_UART_IntClock.c **** #if HAS_CLKDIST_LD_DISABLE
 246:.\Generated_Source\PSoC5/Telit_UART_IntClock.c ****                     CY_SET_REG16(CYREG_CLKDIST_WRK0, oldDivider);
 412              		.loc 1 246 0 is_stmt 1
 413 00b8 274B     		ldr	r3, .L30+28
 414 00ba BA89     		ldrh	r2, [r7, #12]	@ movhi
 415 00bc 1A80     		strh	r2, [r3]	@ movhi
 247:.\Generated_Source\PSoC5/Telit_UART_IntClock.c ****                     CLK_DIST_LD = CYCLK_LD_DISABLE|CYCLK_LD_SYNC_EN|CYCLK_LD_LOAD;
 416              		.loc 1 247 0
 417 00be 224B     		ldr	r3, .L30+12
 418 00c0 0722     		movs	r2, #7
 419 00c2 1A70     		strb	r2, [r3]
 248:.\Generated_Source\PSoC5/Telit_UART_IntClock.c **** 
 249:.\Generated_Source\PSoC5/Telit_UART_IntClock.c ****                     /* Wait for clock to be disabled */
 250:.\Generated_Source\PSoC5/Telit_UART_IntClock.c ****                     while ((CLK_DIST_LD & CYCLK_LD_LOAD) != 0u) { }
 420              		.loc 1 250 0
 421 00c4 00BF     		nop
 422              	.L25:
 423              		.loc 1 250 0 is_stmt 0 discriminator 1
 424 00c6 204B     		ldr	r3, .L30+12
 425 00c8 1B78     		ldrb	r3, [r3]
 426 00ca DBB2     		uxtb	r3, r3
 427 00cc 03F00103 		and	r3, r3, #1
 428 00d0 002B     		cmp	r3, #0
 429 00d2 F8D1     		bne	.L25
 251:.\Generated_Source\PSoC5/Telit_UART_IntClock.c **** #endif /* HAS_CLKDIST_LD_DISABLE */
 252:.\Generated_Source\PSoC5/Telit_UART_IntClock.c **** 
 253:.\Generated_Source\PSoC5/Telit_UART_IntClock.c ****                     Telit_UART_IntClock_CLKEN &= (uint8)(~Telit_UART_IntClock_CLKEN_MASK);
ARM GAS  C:\Users\Matthew\AppData\Local\Temp\cczFlGaW.s 			page 13


 430              		.loc 1 253 0 is_stmt 1
 431 00d4 194B     		ldr	r3, .L30
 432 00d6 194A     		ldr	r2, .L30
 433 00d8 1278     		ldrb	r2, [r2]
 434 00da D2B2     		uxtb	r2, r2
 435 00dc 22F00102 		bic	r2, r2, #1
 436 00e0 D2B2     		uxtb	r2, r2
 437 00e2 1A70     		strb	r2, [r3]
 254:.\Generated_Source\PSoC5/Telit_UART_IntClock.c **** 
 255:.\Generated_Source\PSoC5/Telit_UART_IntClock.c **** #if HAS_CLKDIST_LD_DISABLE
 256:.\Generated_Source\PSoC5/Telit_UART_IntClock.c ****                     /* Clear the disable bit */
 257:.\Generated_Source\PSoC5/Telit_UART_IntClock.c ****                     CLK_DIST_LD = 0x00u;
 438              		.loc 1 257 0
 439 00e4 184B     		ldr	r3, .L30+12
 440 00e6 0022     		movs	r2, #0
 441 00e8 1A70     		strb	r2, [r3]
 442              	.L23:
 258:.\Generated_Source\PSoC5/Telit_UART_IntClock.c **** #endif /* HAS_CLKDIST_LD_DISABLE */
 259:.\Generated_Source\PSoC5/Telit_UART_IntClock.c ****                 }
 260:.\Generated_Source\PSoC5/Telit_UART_IntClock.c ****             }
 261:.\Generated_Source\PSoC5/Telit_UART_IntClock.c **** 
 262:.\Generated_Source\PSoC5/Telit_UART_IntClock.c ****             /* Load divide value. */
 263:.\Generated_Source\PSoC5/Telit_UART_IntClock.c ****             if ((Telit_UART_IntClock_CLKEN & Telit_UART_IntClock_CLKEN_MASK) != 0u)
 443              		.loc 1 263 0
 444 00ea 144B     		ldr	r3, .L30
 445 00ec 1B78     		ldrb	r3, [r3]
 446 00ee DBB2     		uxtb	r3, r3
 447 00f0 03F00103 		and	r3, r3, #1
 448 00f4 002B     		cmp	r3, #0
 449 00f6 13D0     		beq	.L26
 264:.\Generated_Source\PSoC5/Telit_UART_IntClock.c ****             {
 265:.\Generated_Source\PSoC5/Telit_UART_IntClock.c ****                 /* If the clock is still enabled, use the shadow registers */
 266:.\Generated_Source\PSoC5/Telit_UART_IntClock.c ****                 CY_SET_REG16(CYREG_CLKDIST_WRK0, clkDivider);
 450              		.loc 1 266 0
 451 00f8 174B     		ldr	r3, .L30+28
 452 00fa FA88     		ldrh	r2, [r7, #6]	@ movhi
 453 00fc 1A80     		strh	r2, [r3]	@ movhi
 267:.\Generated_Source\PSoC5/Telit_UART_IntClock.c **** 
 268:.\Generated_Source\PSoC5/Telit_UART_IntClock.c ****                 CLK_DIST_LD = (CYCLK_LD_LOAD | ((restart != 0u) ? CYCLK_LD_SYNC_EN : 0x00u));
 454              		.loc 1 268 0
 455 00fe 124A     		ldr	r2, .L30+12
 456 0100 7B79     		ldrb	r3, [r7, #5]	@ zero_extendqisi2
 457 0102 002B     		cmp	r3, #0
 458 0104 01D0     		beq	.L27
 459              		.loc 1 268 0 is_stmt 0 discriminator 1
 460 0106 0323     		movs	r3, #3
 461 0108 00E0     		b	.L28
 462              	.L27:
 463              		.loc 1 268 0 discriminator 2
 464 010a 0123     		movs	r3, #1
 465              	.L28:
 466              		.loc 1 268 0 discriminator 3
 467 010c 1370     		strb	r3, [r2]
 269:.\Generated_Source\PSoC5/Telit_UART_IntClock.c ****                 while ((CLK_DIST_LD & CYCLK_LD_LOAD) != 0u) { }
 468              		.loc 1 269 0 is_stmt 1 discriminator 3
 469 010e 00BF     		nop
 470              	.L29:
ARM GAS  C:\Users\Matthew\AppData\Local\Temp\cczFlGaW.s 			page 14


 471              		.loc 1 269 0 is_stmt 0 discriminator 1
 472 0110 0D4B     		ldr	r3, .L30+12
 473 0112 1B78     		ldrb	r3, [r3]
 474 0114 DBB2     		uxtb	r3, r3
 475 0116 03F00103 		and	r3, r3, #1
 476 011a 002B     		cmp	r3, #0
 477 011c F8D1     		bne	.L29
 478 011e 0AE0     		b	.L17
 479              	.L26:
 270:.\Generated_Source\PSoC5/Telit_UART_IntClock.c ****             }
 271:.\Generated_Source\PSoC5/Telit_UART_IntClock.c ****             else
 272:.\Generated_Source\PSoC5/Telit_UART_IntClock.c ****             {
 273:.\Generated_Source\PSoC5/Telit_UART_IntClock.c ****                 /* If the clock is disabled, set the divider directly */
 274:.\Generated_Source\PSoC5/Telit_UART_IntClock.c ****                 CY_SET_REG16(Telit_UART_IntClock_DIV_PTR, clkDivider);
 480              		.loc 1 274 0 is_stmt 1
 481 0120 074B     		ldr	r3, .L30+4
 482 0122 FA88     		ldrh	r2, [r7, #6]	@ movhi
 483 0124 1A80     		strh	r2, [r3]	@ movhi
 275:.\Generated_Source\PSoC5/Telit_UART_IntClock.c **** 				Telit_UART_IntClock_CLKEN |= enabled;
 484              		.loc 1 275 0
 485 0126 054B     		ldr	r3, .L30
 486 0128 044A     		ldr	r2, .L30
 487 012a 1278     		ldrb	r2, [r2]
 488 012c D1B2     		uxtb	r1, r2
 489 012e FA7A     		ldrb	r2, [r7, #11]
 490 0130 0A43     		orrs	r2, r2, r1
 491 0132 D2B2     		uxtb	r2, r2
 492 0134 1A70     		strb	r2, [r3]
 493              	.L17:
 276:.\Generated_Source\PSoC5/Telit_UART_IntClock.c ****             }
 277:.\Generated_Source\PSoC5/Telit_UART_IntClock.c ****         }
 278:.\Generated_Source\PSoC5/Telit_UART_IntClock.c ****     }
 279:.\Generated_Source\PSoC5/Telit_UART_IntClock.c **** }
 494              		.loc 1 279 0
 495 0136 1037     		adds	r7, r7, #16
 496 0138 BD46     		mov	sp, r7
 497              		@ sp needed
 498 013a 80BD     		pop	{r7, pc}
 499              	.L31:
 500              		.align	2
 501              	.L30:
 502 013c A2430040 		.word	1073759138
 503 0140 80400040 		.word	1073758336
 504 0144 82400040 		.word	1073758338
 505 0148 01400040 		.word	1073758209
 506 014c 10400040 		.word	1073758224
 507 0150 14400040 		.word	1073758228
 508 0154 08400040 		.word	1073758216
 509 0158 02400040 		.word	1073758210
 510              		.cfi_endproc
 511              	.LFE4:
 512              		.size	Telit_UART_IntClock_SetDividerRegister, .-Telit_UART_IntClock_SetDividerRegister
 513              		.section	.text.Telit_UART_IntClock_GetDividerRegister,"ax",%progbits
 514              		.align	2
 515              		.global	Telit_UART_IntClock_GetDividerRegister
 516              		.thumb
 517              		.thumb_func
ARM GAS  C:\Users\Matthew\AppData\Local\Temp\cczFlGaW.s 			page 15


 518              		.type	Telit_UART_IntClock_GetDividerRegister, %function
 519              	Telit_UART_IntClock_GetDividerRegister:
 520              	.LFB5:
 280:.\Generated_Source\PSoC5/Telit_UART_IntClock.c **** 
 281:.\Generated_Source\PSoC5/Telit_UART_IntClock.c **** 
 282:.\Generated_Source\PSoC5/Telit_UART_IntClock.c **** /*******************************************************************************
 283:.\Generated_Source\PSoC5/Telit_UART_IntClock.c **** * Function Name: Telit_UART_IntClock_GetDividerRegister
 284:.\Generated_Source\PSoC5/Telit_UART_IntClock.c **** ********************************************************************************
 285:.\Generated_Source\PSoC5/Telit_UART_IntClock.c **** *
 286:.\Generated_Source\PSoC5/Telit_UART_IntClock.c **** * Summary:
 287:.\Generated_Source\PSoC5/Telit_UART_IntClock.c **** *  Gets the clock divider register value.
 288:.\Generated_Source\PSoC5/Telit_UART_IntClock.c **** *
 289:.\Generated_Source\PSoC5/Telit_UART_IntClock.c **** * Parameters:
 290:.\Generated_Source\PSoC5/Telit_UART_IntClock.c **** *  None
 291:.\Generated_Source\PSoC5/Telit_UART_IntClock.c **** *
 292:.\Generated_Source\PSoC5/Telit_UART_IntClock.c **** * Returns:
 293:.\Generated_Source\PSoC5/Telit_UART_IntClock.c **** *  Divide value of the clock minus 1. For example, if the clock is set to
 294:.\Generated_Source\PSoC5/Telit_UART_IntClock.c **** *  divide by 2, the return value will be 1.
 295:.\Generated_Source\PSoC5/Telit_UART_IntClock.c **** *
 296:.\Generated_Source\PSoC5/Telit_UART_IntClock.c **** *******************************************************************************/
 297:.\Generated_Source\PSoC5/Telit_UART_IntClock.c **** uint16 Telit_UART_IntClock_GetDividerRegister(void) 
 298:.\Generated_Source\PSoC5/Telit_UART_IntClock.c **** {
 521              		.loc 1 298 0
 522              		.cfi_startproc
 523              		@ args = 0, pretend = 0, frame = 0
 524              		@ frame_needed = 1, uses_anonymous_args = 0
 525              		@ link register save eliminated.
 526 0000 80B4     		push	{r7}
 527              		.cfi_def_cfa_offset 4
 528              		.cfi_offset 7, -4
 529 0002 00AF     		add	r7, sp, #0
 530              		.cfi_def_cfa_register 7
 299:.\Generated_Source\PSoC5/Telit_UART_IntClock.c ****     return CY_GET_REG16(Telit_UART_IntClock_DIV_PTR);
 531              		.loc 1 299 0
 532 0004 034B     		ldr	r3, .L34
 533 0006 1B88     		ldrh	r3, [r3]	@ movhi
 534 0008 9BB2     		uxth	r3, r3
 300:.\Generated_Source\PSoC5/Telit_UART_IntClock.c **** }
 535              		.loc 1 300 0
 536 000a 1846     		mov	r0, r3
 537 000c BD46     		mov	sp, r7
 538              		@ sp needed
 539 000e 5DF8047B 		ldr	r7, [sp], #4
 540 0012 7047     		bx	lr
 541              	.L35:
 542              		.align	2
 543              	.L34:
 544 0014 80400040 		.word	1073758336
 545              		.cfi_endproc
 546              	.LFE5:
 547              		.size	Telit_UART_IntClock_GetDividerRegister, .-Telit_UART_IntClock_GetDividerRegister
 548              		.section	.text.Telit_UART_IntClock_SetModeRegister,"ax",%progbits
 549              		.align	2
 550              		.global	Telit_UART_IntClock_SetModeRegister
 551              		.thumb
 552              		.thumb_func
 553              		.type	Telit_UART_IntClock_SetModeRegister, %function
ARM GAS  C:\Users\Matthew\AppData\Local\Temp\cczFlGaW.s 			page 16


 554              	Telit_UART_IntClock_SetModeRegister:
 555              	.LFB6:
 301:.\Generated_Source\PSoC5/Telit_UART_IntClock.c **** 
 302:.\Generated_Source\PSoC5/Telit_UART_IntClock.c **** 
 303:.\Generated_Source\PSoC5/Telit_UART_IntClock.c **** /*******************************************************************************
 304:.\Generated_Source\PSoC5/Telit_UART_IntClock.c **** * Function Name: Telit_UART_IntClock_SetModeRegister
 305:.\Generated_Source\PSoC5/Telit_UART_IntClock.c **** ********************************************************************************
 306:.\Generated_Source\PSoC5/Telit_UART_IntClock.c **** *
 307:.\Generated_Source\PSoC5/Telit_UART_IntClock.c **** * Summary:
 308:.\Generated_Source\PSoC5/Telit_UART_IntClock.c **** *  Sets flags that control the operating mode of the clock. This function only
 309:.\Generated_Source\PSoC5/Telit_UART_IntClock.c **** *  changes flags from 0 to 1; flags that are already 1 will remain unchanged.
 310:.\Generated_Source\PSoC5/Telit_UART_IntClock.c **** *  To clear flags, use the ClearModeRegister function. The clock must be
 311:.\Generated_Source\PSoC5/Telit_UART_IntClock.c **** *  disabled before changing the mode.
 312:.\Generated_Source\PSoC5/Telit_UART_IntClock.c **** *
 313:.\Generated_Source\PSoC5/Telit_UART_IntClock.c **** * Parameters:
 314:.\Generated_Source\PSoC5/Telit_UART_IntClock.c **** *  clkMode: Bit mask containing the bits to set. For PSoC 3 and PSoC 5,
 315:.\Generated_Source\PSoC5/Telit_UART_IntClock.c **** *   clkMode should be a set of the following optional bits or'ed together.
 316:.\Generated_Source\PSoC5/Telit_UART_IntClock.c **** *   - CYCLK_EARLY Enable early phase mode. Rising edge of output clock will
 317:.\Generated_Source\PSoC5/Telit_UART_IntClock.c **** *                 occur when the divider count reaches half of the divide
 318:.\Generated_Source\PSoC5/Telit_UART_IntClock.c **** *                 value.
 319:.\Generated_Source\PSoC5/Telit_UART_IntClock.c **** *   - CYCLK_DUTY  Enable 50% duty cycle output. When enabled, the output clock
 320:.\Generated_Source\PSoC5/Telit_UART_IntClock.c **** *                 is asserted for approximately half of its period. When
 321:.\Generated_Source\PSoC5/Telit_UART_IntClock.c **** *                 disabled, the output clock is asserted for one period of the
 322:.\Generated_Source\PSoC5/Telit_UART_IntClock.c **** *                 source clock.
 323:.\Generated_Source\PSoC5/Telit_UART_IntClock.c **** *   - CYCLK_SYNC  Enable output synchronization to master clock. This should
 324:.\Generated_Source\PSoC5/Telit_UART_IntClock.c **** *                 be enabled for all synchronous clocks.
 325:.\Generated_Source\PSoC5/Telit_UART_IntClock.c **** *   See the Technical Reference Manual for details about setting the mode of
 326:.\Generated_Source\PSoC5/Telit_UART_IntClock.c **** *   the clock. Specifically, see the CLKDIST.DCFG.CFG2 register.
 327:.\Generated_Source\PSoC5/Telit_UART_IntClock.c **** *
 328:.\Generated_Source\PSoC5/Telit_UART_IntClock.c **** * Returns:
 329:.\Generated_Source\PSoC5/Telit_UART_IntClock.c **** *  None
 330:.\Generated_Source\PSoC5/Telit_UART_IntClock.c **** *
 331:.\Generated_Source\PSoC5/Telit_UART_IntClock.c **** *******************************************************************************/
 332:.\Generated_Source\PSoC5/Telit_UART_IntClock.c **** void Telit_UART_IntClock_SetModeRegister(uint8 modeBitMask) 
 333:.\Generated_Source\PSoC5/Telit_UART_IntClock.c **** {
 556              		.loc 1 333 0
 557              		.cfi_startproc
 558              		@ args = 0, pretend = 0, frame = 8
 559              		@ frame_needed = 1, uses_anonymous_args = 0
 560              		@ link register save eliminated.
 561 0000 80B4     		push	{r7}
 562              		.cfi_def_cfa_offset 4
 563              		.cfi_offset 7, -4
 564 0002 83B0     		sub	sp, sp, #12
 565              		.cfi_def_cfa_offset 16
 566 0004 00AF     		add	r7, sp, #0
 567              		.cfi_def_cfa_register 7
 568 0006 0346     		mov	r3, r0
 569 0008 FB71     		strb	r3, [r7, #7]
 334:.\Generated_Source\PSoC5/Telit_UART_IntClock.c ****     Telit_UART_IntClock_MOD_SRC |= modeBitMask & (uint8)Telit_UART_IntClock_MODE_MASK;
 570              		.loc 1 334 0
 571 000a 094B     		ldr	r3, .L37
 572 000c 084A     		ldr	r2, .L37
 573 000e 1278     		ldrb	r2, [r2]
 574 0010 D2B2     		uxtb	r2, r2
 575 0012 D1B2     		uxtb	r1, r2
 576 0014 FA79     		ldrb	r2, [r7, #7]	@ zero_extendqisi2
ARM GAS  C:\Users\Matthew\AppData\Local\Temp\cczFlGaW.s 			page 17


 577 0016 22F00702 		bic	r2, r2, #7
 578 001a D2B2     		uxtb	r2, r2
 579 001c 0A43     		orrs	r2, r2, r1
 580 001e D2B2     		uxtb	r2, r2
 581 0020 D2B2     		uxtb	r2, r2
 582 0022 1A70     		strb	r2, [r3]
 335:.\Generated_Source\PSoC5/Telit_UART_IntClock.c **** }
 583              		.loc 1 335 0
 584 0024 0C37     		adds	r7, r7, #12
 585 0026 BD46     		mov	sp, r7
 586              		@ sp needed
 587 0028 5DF8047B 		ldr	r7, [sp], #4
 588 002c 7047     		bx	lr
 589              	.L38:
 590 002e 00BF     		.align	2
 591              	.L37:
 592 0030 82400040 		.word	1073758338
 593              		.cfi_endproc
 594              	.LFE6:
 595              		.size	Telit_UART_IntClock_SetModeRegister, .-Telit_UART_IntClock_SetModeRegister
 596              		.section	.text.Telit_UART_IntClock_ClearModeRegister,"ax",%progbits
 597              		.align	2
 598              		.global	Telit_UART_IntClock_ClearModeRegister
 599              		.thumb
 600              		.thumb_func
 601              		.type	Telit_UART_IntClock_ClearModeRegister, %function
 602              	Telit_UART_IntClock_ClearModeRegister:
 603              	.LFB7:
 336:.\Generated_Source\PSoC5/Telit_UART_IntClock.c **** 
 337:.\Generated_Source\PSoC5/Telit_UART_IntClock.c **** 
 338:.\Generated_Source\PSoC5/Telit_UART_IntClock.c **** /*******************************************************************************
 339:.\Generated_Source\PSoC5/Telit_UART_IntClock.c **** * Function Name: Telit_UART_IntClock_ClearModeRegister
 340:.\Generated_Source\PSoC5/Telit_UART_IntClock.c **** ********************************************************************************
 341:.\Generated_Source\PSoC5/Telit_UART_IntClock.c **** *
 342:.\Generated_Source\PSoC5/Telit_UART_IntClock.c **** * Summary:
 343:.\Generated_Source\PSoC5/Telit_UART_IntClock.c **** *  Clears flags that control the operating mode of the clock. This function
 344:.\Generated_Source\PSoC5/Telit_UART_IntClock.c **** *  only changes flags from 1 to 0; flags that are already 0 will remain
 345:.\Generated_Source\PSoC5/Telit_UART_IntClock.c **** *  unchanged. To set flags, use the SetModeRegister function. The clock must be
 346:.\Generated_Source\PSoC5/Telit_UART_IntClock.c **** *  disabled before changing the mode.
 347:.\Generated_Source\PSoC5/Telit_UART_IntClock.c **** *
 348:.\Generated_Source\PSoC5/Telit_UART_IntClock.c **** * Parameters:
 349:.\Generated_Source\PSoC5/Telit_UART_IntClock.c **** *  clkMode: Bit mask containing the bits to clear. For PSoC 3 and PSoC 5,
 350:.\Generated_Source\PSoC5/Telit_UART_IntClock.c **** *   clkMode should be a set of the following optional bits or'ed together.
 351:.\Generated_Source\PSoC5/Telit_UART_IntClock.c **** *   - CYCLK_EARLY Enable early phase mode. Rising edge of output clock will
 352:.\Generated_Source\PSoC5/Telit_UART_IntClock.c **** *                 occur when the divider count reaches half of the divide
 353:.\Generated_Source\PSoC5/Telit_UART_IntClock.c **** *                 value.
 354:.\Generated_Source\PSoC5/Telit_UART_IntClock.c **** *   - CYCLK_DUTY  Enable 50% duty cycle output. When enabled, the output clock
 355:.\Generated_Source\PSoC5/Telit_UART_IntClock.c **** *                 is asserted for approximately half of its period. When
 356:.\Generated_Source\PSoC5/Telit_UART_IntClock.c **** *                 disabled, the output clock is asserted for one period of the
 357:.\Generated_Source\PSoC5/Telit_UART_IntClock.c **** *                 source clock.
 358:.\Generated_Source\PSoC5/Telit_UART_IntClock.c **** *   - CYCLK_SYNC  Enable output synchronization to master clock. This should
 359:.\Generated_Source\PSoC5/Telit_UART_IntClock.c **** *                 be enabled for all synchronous clocks.
 360:.\Generated_Source\PSoC5/Telit_UART_IntClock.c **** *   See the Technical Reference Manual for details about setting the mode of
 361:.\Generated_Source\PSoC5/Telit_UART_IntClock.c **** *   the clock. Specifically, see the CLKDIST.DCFG.CFG2 register.
 362:.\Generated_Source\PSoC5/Telit_UART_IntClock.c **** *
 363:.\Generated_Source\PSoC5/Telit_UART_IntClock.c **** * Returns:
 364:.\Generated_Source\PSoC5/Telit_UART_IntClock.c **** *  None
ARM GAS  C:\Users\Matthew\AppData\Local\Temp\cczFlGaW.s 			page 18


 365:.\Generated_Source\PSoC5/Telit_UART_IntClock.c **** *
 366:.\Generated_Source\PSoC5/Telit_UART_IntClock.c **** *******************************************************************************/
 367:.\Generated_Source\PSoC5/Telit_UART_IntClock.c **** void Telit_UART_IntClock_ClearModeRegister(uint8 modeBitMask) 
 368:.\Generated_Source\PSoC5/Telit_UART_IntClock.c **** {
 604              		.loc 1 368 0
 605              		.cfi_startproc
 606              		@ args = 0, pretend = 0, frame = 8
 607              		@ frame_needed = 1, uses_anonymous_args = 0
 608              		@ link register save eliminated.
 609 0000 80B4     		push	{r7}
 610              		.cfi_def_cfa_offset 4
 611              		.cfi_offset 7, -4
 612 0002 83B0     		sub	sp, sp, #12
 613              		.cfi_def_cfa_offset 16
 614 0004 00AF     		add	r7, sp, #0
 615              		.cfi_def_cfa_register 7
 616 0006 0346     		mov	r3, r0
 617 0008 FB71     		strb	r3, [r7, #7]
 369:.\Generated_Source\PSoC5/Telit_UART_IntClock.c ****     Telit_UART_IntClock_MOD_SRC &= (uint8)(~modeBitMask) | (uint8)(~(uint8)(Telit_UART_IntClock_MOD
 618              		.loc 1 369 0
 619 000a 094B     		ldr	r3, .L40
 620 000c 084A     		ldr	r2, .L40
 621 000e 1278     		ldrb	r2, [r2]
 622 0010 D1B2     		uxtb	r1, r2
 623 0012 FA79     		ldrb	r2, [r7, #7]
 624 0014 D243     		mvns	r2, r2
 625 0016 D2B2     		uxtb	r2, r2
 626 0018 42F00702 		orr	r2, r2, #7
 627 001c D2B2     		uxtb	r2, r2
 628 001e 0A40     		ands	r2, r2, r1
 629 0020 D2B2     		uxtb	r2, r2
 630 0022 1A70     		strb	r2, [r3]
 370:.\Generated_Source\PSoC5/Telit_UART_IntClock.c **** }
 631              		.loc 1 370 0
 632 0024 0C37     		adds	r7, r7, #12
 633 0026 BD46     		mov	sp, r7
 634              		@ sp needed
 635 0028 5DF8047B 		ldr	r7, [sp], #4
 636 002c 7047     		bx	lr
 637              	.L41:
 638 002e 00BF     		.align	2
 639              	.L40:
 640 0030 82400040 		.word	1073758338
 641              		.cfi_endproc
 642              	.LFE7:
 643              		.size	Telit_UART_IntClock_ClearModeRegister, .-Telit_UART_IntClock_ClearModeRegister
 644              		.section	.text.Telit_UART_IntClock_GetModeRegister,"ax",%progbits
 645              		.align	2
 646              		.global	Telit_UART_IntClock_GetModeRegister
 647              		.thumb
 648              		.thumb_func
 649              		.type	Telit_UART_IntClock_GetModeRegister, %function
 650              	Telit_UART_IntClock_GetModeRegister:
 651              	.LFB8:
 371:.\Generated_Source\PSoC5/Telit_UART_IntClock.c **** 
 372:.\Generated_Source\PSoC5/Telit_UART_IntClock.c **** 
 373:.\Generated_Source\PSoC5/Telit_UART_IntClock.c **** /*******************************************************************************
ARM GAS  C:\Users\Matthew\AppData\Local\Temp\cczFlGaW.s 			page 19


 374:.\Generated_Source\PSoC5/Telit_UART_IntClock.c **** * Function Name: Telit_UART_IntClock_GetModeRegister
 375:.\Generated_Source\PSoC5/Telit_UART_IntClock.c **** ********************************************************************************
 376:.\Generated_Source\PSoC5/Telit_UART_IntClock.c **** *
 377:.\Generated_Source\PSoC5/Telit_UART_IntClock.c **** * Summary:
 378:.\Generated_Source\PSoC5/Telit_UART_IntClock.c **** *  Gets the clock mode register value.
 379:.\Generated_Source\PSoC5/Telit_UART_IntClock.c **** *
 380:.\Generated_Source\PSoC5/Telit_UART_IntClock.c **** * Parameters:
 381:.\Generated_Source\PSoC5/Telit_UART_IntClock.c **** *  None
 382:.\Generated_Source\PSoC5/Telit_UART_IntClock.c **** *
 383:.\Generated_Source\PSoC5/Telit_UART_IntClock.c **** * Returns:
 384:.\Generated_Source\PSoC5/Telit_UART_IntClock.c **** *  Bit mask representing the enabled mode bits. See the SetModeRegister and
 385:.\Generated_Source\PSoC5/Telit_UART_IntClock.c **** *  ClearModeRegister descriptions for details about the mode bits.
 386:.\Generated_Source\PSoC5/Telit_UART_IntClock.c **** *
 387:.\Generated_Source\PSoC5/Telit_UART_IntClock.c **** *******************************************************************************/
 388:.\Generated_Source\PSoC5/Telit_UART_IntClock.c **** uint8 Telit_UART_IntClock_GetModeRegister(void) 
 389:.\Generated_Source\PSoC5/Telit_UART_IntClock.c **** {
 652              		.loc 1 389 0
 653              		.cfi_startproc
 654              		@ args = 0, pretend = 0, frame = 0
 655              		@ frame_needed = 1, uses_anonymous_args = 0
 656              		@ link register save eliminated.
 657 0000 80B4     		push	{r7}
 658              		.cfi_def_cfa_offset 4
 659              		.cfi_offset 7, -4
 660 0002 00AF     		add	r7, sp, #0
 661              		.cfi_def_cfa_register 7
 390:.\Generated_Source\PSoC5/Telit_UART_IntClock.c ****     return Telit_UART_IntClock_MOD_SRC & (uint8)(Telit_UART_IntClock_MODE_MASK);
 662              		.loc 1 390 0
 663 0004 054B     		ldr	r3, .L44
 664 0006 1B78     		ldrb	r3, [r3]
 665 0008 DBB2     		uxtb	r3, r3
 666 000a 23F00703 		bic	r3, r3, #7
 667 000e DBB2     		uxtb	r3, r3
 391:.\Generated_Source\PSoC5/Telit_UART_IntClock.c **** }
 668              		.loc 1 391 0
 669 0010 1846     		mov	r0, r3
 670 0012 BD46     		mov	sp, r7
 671              		@ sp needed
 672 0014 5DF8047B 		ldr	r7, [sp], #4
 673 0018 7047     		bx	lr
 674              	.L45:
 675 001a 00BF     		.align	2
 676              	.L44:
 677 001c 82400040 		.word	1073758338
 678              		.cfi_endproc
 679              	.LFE8:
 680              		.size	Telit_UART_IntClock_GetModeRegister, .-Telit_UART_IntClock_GetModeRegister
 681              		.section	.text.Telit_UART_IntClock_SetSourceRegister,"ax",%progbits
 682              		.align	2
 683              		.global	Telit_UART_IntClock_SetSourceRegister
 684              		.thumb
 685              		.thumb_func
 686              		.type	Telit_UART_IntClock_SetSourceRegister, %function
 687              	Telit_UART_IntClock_SetSourceRegister:
 688              	.LFB9:
 392:.\Generated_Source\PSoC5/Telit_UART_IntClock.c **** 
 393:.\Generated_Source\PSoC5/Telit_UART_IntClock.c **** 
ARM GAS  C:\Users\Matthew\AppData\Local\Temp\cczFlGaW.s 			page 20


 394:.\Generated_Source\PSoC5/Telit_UART_IntClock.c **** /*******************************************************************************
 395:.\Generated_Source\PSoC5/Telit_UART_IntClock.c **** * Function Name: Telit_UART_IntClock_SetSourceRegister
 396:.\Generated_Source\PSoC5/Telit_UART_IntClock.c **** ********************************************************************************
 397:.\Generated_Source\PSoC5/Telit_UART_IntClock.c **** *
 398:.\Generated_Source\PSoC5/Telit_UART_IntClock.c **** * Summary:
 399:.\Generated_Source\PSoC5/Telit_UART_IntClock.c **** *  Sets the input source of the clock. The clock must be disabled before
 400:.\Generated_Source\PSoC5/Telit_UART_IntClock.c **** *  changing the source. The old and new clock sources must be running.
 401:.\Generated_Source\PSoC5/Telit_UART_IntClock.c **** *
 402:.\Generated_Source\PSoC5/Telit_UART_IntClock.c **** * Parameters:
 403:.\Generated_Source\PSoC5/Telit_UART_IntClock.c **** *  clkSource:  For PSoC 3 and PSoC 5 devices, clkSource should be one of the
 404:.\Generated_Source\PSoC5/Telit_UART_IntClock.c **** *   following input sources:
 405:.\Generated_Source\PSoC5/Telit_UART_IntClock.c **** *   - CYCLK_SRC_SEL_SYNC_DIG
 406:.\Generated_Source\PSoC5/Telit_UART_IntClock.c **** *   - CYCLK_SRC_SEL_IMO
 407:.\Generated_Source\PSoC5/Telit_UART_IntClock.c **** *   - CYCLK_SRC_SEL_XTALM
 408:.\Generated_Source\PSoC5/Telit_UART_IntClock.c **** *   - CYCLK_SRC_SEL_ILO
 409:.\Generated_Source\PSoC5/Telit_UART_IntClock.c **** *   - CYCLK_SRC_SEL_PLL
 410:.\Generated_Source\PSoC5/Telit_UART_IntClock.c **** *   - CYCLK_SRC_SEL_XTALK
 411:.\Generated_Source\PSoC5/Telit_UART_IntClock.c **** *   - CYCLK_SRC_SEL_DSI_G
 412:.\Generated_Source\PSoC5/Telit_UART_IntClock.c **** *   - CYCLK_SRC_SEL_DSI_D/CYCLK_SRC_SEL_DSI_A
 413:.\Generated_Source\PSoC5/Telit_UART_IntClock.c **** *   See the Technical Reference Manual for details on clock sources.
 414:.\Generated_Source\PSoC5/Telit_UART_IntClock.c **** *
 415:.\Generated_Source\PSoC5/Telit_UART_IntClock.c **** * Returns:
 416:.\Generated_Source\PSoC5/Telit_UART_IntClock.c **** *  None
 417:.\Generated_Source\PSoC5/Telit_UART_IntClock.c **** *
 418:.\Generated_Source\PSoC5/Telit_UART_IntClock.c **** *******************************************************************************/
 419:.\Generated_Source\PSoC5/Telit_UART_IntClock.c **** void Telit_UART_IntClock_SetSourceRegister(uint8 clkSource) 
 420:.\Generated_Source\PSoC5/Telit_UART_IntClock.c **** {
 689              		.loc 1 420 0
 690              		.cfi_startproc
 691              		@ args = 0, pretend = 0, frame = 16
 692              		@ frame_needed = 1, uses_anonymous_args = 0
 693 0000 80B5     		push	{r7, lr}
 694              		.cfi_def_cfa_offset 8
 695              		.cfi_offset 7, -8
 696              		.cfi_offset 14, -4
 697 0002 84B0     		sub	sp, sp, #16
 698              		.cfi_def_cfa_offset 24
 699 0004 00AF     		add	r7, sp, #0
 700              		.cfi_def_cfa_register 7
 701 0006 0346     		mov	r3, r0
 702 0008 FB71     		strb	r3, [r7, #7]
 421:.\Generated_Source\PSoC5/Telit_UART_IntClock.c ****     uint16 currDiv = Telit_UART_IntClock_GetDividerRegister();
 703              		.loc 1 421 0
 704 000a FFF7FEFF 		bl	Telit_UART_IntClock_GetDividerRegister
 705 000e 0346     		mov	r3, r0
 706 0010 FB81     		strh	r3, [r7, #14]	@ movhi
 422:.\Generated_Source\PSoC5/Telit_UART_IntClock.c ****     uint8 oldSrc = Telit_UART_IntClock_GetSourceRegister();
 707              		.loc 1 422 0
 708 0012 FFF7FEFF 		bl	Telit_UART_IntClock_GetSourceRegister
 709 0016 0346     		mov	r3, r0
 710 0018 7B73     		strb	r3, [r7, #13]
 423:.\Generated_Source\PSoC5/Telit_UART_IntClock.c **** 
 424:.\Generated_Source\PSoC5/Telit_UART_IntClock.c ****     if (((oldSrc != ((uint8)CYCLK_SRC_SEL_CLK_SYNC_D)) && 
 711              		.loc 1 424 0
 712 001a 7B7B     		ldrb	r3, [r7, #13]	@ zero_extendqisi2
 713 001c 002B     		cmp	r3, #0
 714 001e 1BD0     		beq	.L47
ARM GAS  C:\Users\Matthew\AppData\Local\Temp\cczFlGaW.s 			page 21


 715              		.loc 1 424 0 is_stmt 0 discriminator 1
 716 0020 FB79     		ldrb	r3, [r7, #7]	@ zero_extendqisi2
 717 0022 002B     		cmp	r3, #0
 718 0024 18D1     		bne	.L47
 425:.\Generated_Source\PSoC5/Telit_UART_IntClock.c ****         (clkSource == ((uint8)CYCLK_SRC_SEL_CLK_SYNC_D))) && (currDiv == 0u))
 719              		.loc 1 425 0 is_stmt 1
 720 0026 FB89     		ldrh	r3, [r7, #14]
 721 0028 002B     		cmp	r3, #0
 722 002a 15D1     		bne	.L47
 426:.\Generated_Source\PSoC5/Telit_UART_IntClock.c ****     {
 427:.\Generated_Source\PSoC5/Telit_UART_IntClock.c ****         /* Switching to Master and divider is 1, set SSS, which will output master, */
 428:.\Generated_Source\PSoC5/Telit_UART_IntClock.c ****         /* then set the source so we are consistent.                                */
 429:.\Generated_Source\PSoC5/Telit_UART_IntClock.c ****         Telit_UART_IntClock_MOD_SRC |= CYCLK_SSS;
 723              		.loc 1 429 0
 724 002c 224B     		ldr	r3, .L50
 725 002e 224A     		ldr	r2, .L50
 726 0030 1278     		ldrb	r2, [r2]
 727 0032 D2B2     		uxtb	r2, r2
 728 0034 42F04002 		orr	r2, r2, #64
 729 0038 D2B2     		uxtb	r2, r2
 730 003a 1A70     		strb	r2, [r3]
 430:.\Generated_Source\PSoC5/Telit_UART_IntClock.c ****         Telit_UART_IntClock_MOD_SRC =
 731              		.loc 1 430 0
 732 003c 1E4B     		ldr	r3, .L50
 431:.\Generated_Source\PSoC5/Telit_UART_IntClock.c ****             (Telit_UART_IntClock_MOD_SRC & (uint8)(~Telit_UART_IntClock_SRC_SEL_MSK)) | clkSource;
 733              		.loc 1 431 0
 734 003e 1E4A     		ldr	r2, .L50
 735 0040 1278     		ldrb	r2, [r2]
 736 0042 D2B2     		uxtb	r2, r2
 430:.\Generated_Source\PSoC5/Telit_UART_IntClock.c ****         Telit_UART_IntClock_MOD_SRC =
 737              		.loc 1 430 0
 738 0044 D2B2     		uxtb	r2, r2
 739 0046 22F00702 		bic	r2, r2, #7
 740 004a D1B2     		uxtb	r1, r2
 741 004c FA79     		ldrb	r2, [r7, #7]	@ zero_extendqisi2
 742 004e 0A43     		orrs	r2, r2, r1
 743 0050 D2B2     		uxtb	r2, r2
 744 0052 D2B2     		uxtb	r2, r2
 745 0054 1A70     		strb	r2, [r3]
 746 0056 2BE0     		b	.L46
 747              	.L47:
 432:.\Generated_Source\PSoC5/Telit_UART_IntClock.c ****     }
 433:.\Generated_Source\PSoC5/Telit_UART_IntClock.c ****     else if (((oldSrc == ((uint8)CYCLK_SRC_SEL_CLK_SYNC_D)) && 
 748              		.loc 1 433 0
 749 0058 7B7B     		ldrb	r3, [r7, #13]	@ zero_extendqisi2
 750 005a 002B     		cmp	r3, #0
 751 005c 1BD1     		bne	.L49
 752              		.loc 1 433 0 is_stmt 0 discriminator 1
 753 005e FB79     		ldrb	r3, [r7, #7]	@ zero_extendqisi2
 754 0060 002B     		cmp	r3, #0
 755 0062 18D0     		beq	.L49
 434:.\Generated_Source\PSoC5/Telit_UART_IntClock.c ****             (clkSource != ((uint8)CYCLK_SRC_SEL_CLK_SYNC_D))) && (currDiv == 0u))
 756              		.loc 1 434 0 is_stmt 1
 757 0064 FB89     		ldrh	r3, [r7, #14]
 758 0066 002B     		cmp	r3, #0
 759 0068 15D1     		bne	.L49
 435:.\Generated_Source\PSoC5/Telit_UART_IntClock.c ****     {
ARM GAS  C:\Users\Matthew\AppData\Local\Temp\cczFlGaW.s 			page 22


 436:.\Generated_Source\PSoC5/Telit_UART_IntClock.c ****         /* Switching from Master to not and divider is 1, set source, so we don't   */
 437:.\Generated_Source\PSoC5/Telit_UART_IntClock.c ****         /* lock when we clear SSS.                                                  */
 438:.\Generated_Source\PSoC5/Telit_UART_IntClock.c ****         Telit_UART_IntClock_MOD_SRC =
 760              		.loc 1 438 0
 761 006a 134B     		ldr	r3, .L50
 439:.\Generated_Source\PSoC5/Telit_UART_IntClock.c ****             (Telit_UART_IntClock_MOD_SRC & (uint8)(~Telit_UART_IntClock_SRC_SEL_MSK)) | clkSource;
 762              		.loc 1 439 0
 763 006c 124A     		ldr	r2, .L50
 764 006e 1278     		ldrb	r2, [r2]
 765 0070 D2B2     		uxtb	r2, r2
 438:.\Generated_Source\PSoC5/Telit_UART_IntClock.c ****         Telit_UART_IntClock_MOD_SRC =
 766              		.loc 1 438 0
 767 0072 D2B2     		uxtb	r2, r2
 768 0074 22F00702 		bic	r2, r2, #7
 769 0078 D1B2     		uxtb	r1, r2
 770 007a FA79     		ldrb	r2, [r7, #7]	@ zero_extendqisi2
 771 007c 0A43     		orrs	r2, r2, r1
 772 007e D2B2     		uxtb	r2, r2
 773 0080 D2B2     		uxtb	r2, r2
 774 0082 1A70     		strb	r2, [r3]
 440:.\Generated_Source\PSoC5/Telit_UART_IntClock.c ****         Telit_UART_IntClock_MOD_SRC &= (uint8)(~CYCLK_SSS);
 775              		.loc 1 440 0
 776 0084 0C4B     		ldr	r3, .L50
 777 0086 0C4A     		ldr	r2, .L50
 778 0088 1278     		ldrb	r2, [r2]
 779 008a D2B2     		uxtb	r2, r2
 780 008c 22F04002 		bic	r2, r2, #64
 781 0090 D2B2     		uxtb	r2, r2
 782 0092 1A70     		strb	r2, [r3]
 783 0094 0CE0     		b	.L46
 784              	.L49:
 441:.\Generated_Source\PSoC5/Telit_UART_IntClock.c ****     }
 442:.\Generated_Source\PSoC5/Telit_UART_IntClock.c ****     else
 443:.\Generated_Source\PSoC5/Telit_UART_IntClock.c ****     {
 444:.\Generated_Source\PSoC5/Telit_UART_IntClock.c ****         Telit_UART_IntClock_MOD_SRC =
 785              		.loc 1 444 0
 786 0096 084B     		ldr	r3, .L50
 445:.\Generated_Source\PSoC5/Telit_UART_IntClock.c ****             (Telit_UART_IntClock_MOD_SRC & (uint8)(~Telit_UART_IntClock_SRC_SEL_MSK)) | clkSource;
 787              		.loc 1 445 0
 788 0098 074A     		ldr	r2, .L50
 789 009a 1278     		ldrb	r2, [r2]
 790 009c D2B2     		uxtb	r2, r2
 444:.\Generated_Source\PSoC5/Telit_UART_IntClock.c ****         Telit_UART_IntClock_MOD_SRC =
 791              		.loc 1 444 0
 792 009e D2B2     		uxtb	r2, r2
 793 00a0 22F00702 		bic	r2, r2, #7
 794 00a4 D1B2     		uxtb	r1, r2
 795 00a6 FA79     		ldrb	r2, [r7, #7]	@ zero_extendqisi2
 796 00a8 0A43     		orrs	r2, r2, r1
 797 00aa D2B2     		uxtb	r2, r2
 798 00ac D2B2     		uxtb	r2, r2
 799 00ae 1A70     		strb	r2, [r3]
 800              	.L46:
 446:.\Generated_Source\PSoC5/Telit_UART_IntClock.c ****     }
 447:.\Generated_Source\PSoC5/Telit_UART_IntClock.c **** }
 801              		.loc 1 447 0
 802 00b0 1037     		adds	r7, r7, #16
ARM GAS  C:\Users\Matthew\AppData\Local\Temp\cczFlGaW.s 			page 23


 803 00b2 BD46     		mov	sp, r7
 804              		@ sp needed
 805 00b4 80BD     		pop	{r7, pc}
 806              	.L51:
 807 00b6 00BF     		.align	2
 808              	.L50:
 809 00b8 82400040 		.word	1073758338
 810              		.cfi_endproc
 811              	.LFE9:
 812              		.size	Telit_UART_IntClock_SetSourceRegister, .-Telit_UART_IntClock_SetSourceRegister
 813              		.section	.text.Telit_UART_IntClock_GetSourceRegister,"ax",%progbits
 814              		.align	2
 815              		.global	Telit_UART_IntClock_GetSourceRegister
 816              		.thumb
 817              		.thumb_func
 818              		.type	Telit_UART_IntClock_GetSourceRegister, %function
 819              	Telit_UART_IntClock_GetSourceRegister:
 820              	.LFB10:
 448:.\Generated_Source\PSoC5/Telit_UART_IntClock.c **** 
 449:.\Generated_Source\PSoC5/Telit_UART_IntClock.c **** 
 450:.\Generated_Source\PSoC5/Telit_UART_IntClock.c **** /*******************************************************************************
 451:.\Generated_Source\PSoC5/Telit_UART_IntClock.c **** * Function Name: Telit_UART_IntClock_GetSourceRegister
 452:.\Generated_Source\PSoC5/Telit_UART_IntClock.c **** ********************************************************************************
 453:.\Generated_Source\PSoC5/Telit_UART_IntClock.c **** *
 454:.\Generated_Source\PSoC5/Telit_UART_IntClock.c **** * Summary:
 455:.\Generated_Source\PSoC5/Telit_UART_IntClock.c **** *  Gets the input source of the clock.
 456:.\Generated_Source\PSoC5/Telit_UART_IntClock.c **** *
 457:.\Generated_Source\PSoC5/Telit_UART_IntClock.c **** * Parameters:
 458:.\Generated_Source\PSoC5/Telit_UART_IntClock.c **** *  None
 459:.\Generated_Source\PSoC5/Telit_UART_IntClock.c **** *
 460:.\Generated_Source\PSoC5/Telit_UART_IntClock.c **** * Returns:
 461:.\Generated_Source\PSoC5/Telit_UART_IntClock.c **** *  The input source of the clock. See SetSourceRegister for details.
 462:.\Generated_Source\PSoC5/Telit_UART_IntClock.c **** *
 463:.\Generated_Source\PSoC5/Telit_UART_IntClock.c **** *******************************************************************************/
 464:.\Generated_Source\PSoC5/Telit_UART_IntClock.c **** uint8 Telit_UART_IntClock_GetSourceRegister(void) 
 465:.\Generated_Source\PSoC5/Telit_UART_IntClock.c **** {
 821              		.loc 1 465 0
 822              		.cfi_startproc
 823              		@ args = 0, pretend = 0, frame = 0
 824              		@ frame_needed = 1, uses_anonymous_args = 0
 825              		@ link register save eliminated.
 826 0000 80B4     		push	{r7}
 827              		.cfi_def_cfa_offset 4
 828              		.cfi_offset 7, -4
 829 0002 00AF     		add	r7, sp, #0
 830              		.cfi_def_cfa_register 7
 466:.\Generated_Source\PSoC5/Telit_UART_IntClock.c ****     return Telit_UART_IntClock_MOD_SRC & Telit_UART_IntClock_SRC_SEL_MSK;
 831              		.loc 1 466 0
 832 0004 054B     		ldr	r3, .L54
 833 0006 1B78     		ldrb	r3, [r3]
 834 0008 DBB2     		uxtb	r3, r3
 835 000a 03F00703 		and	r3, r3, #7
 836 000e DBB2     		uxtb	r3, r3
 467:.\Generated_Source\PSoC5/Telit_UART_IntClock.c **** }
 837              		.loc 1 467 0
 838 0010 1846     		mov	r0, r3
 839 0012 BD46     		mov	sp, r7
ARM GAS  C:\Users\Matthew\AppData\Local\Temp\cczFlGaW.s 			page 24


 840              		@ sp needed
 841 0014 5DF8047B 		ldr	r7, [sp], #4
 842 0018 7047     		bx	lr
 843              	.L55:
 844 001a 00BF     		.align	2
 845              	.L54:
 846 001c 82400040 		.word	1073758338
 847              		.cfi_endproc
 848              	.LFE10:
 849              		.size	Telit_UART_IntClock_GetSourceRegister, .-Telit_UART_IntClock_GetSourceRegister
 850              		.text
 851              	.Letext0:
 852              		.file 2 "Generated_Source\\PSoC5/cytypes.h"