ARM GAS  C:\Users\Matthew\AppData\Local\Temp\cc7D46n7.s 			page 1


   1              		.syntax unified
   2              		.cpu cortex-m3
   3              		.fpu softvfp
   4              		.eabi_attribute 20, 1
   5              		.eabi_attribute 21, 1
   6              		.eabi_attribute 23, 3
   7              		.eabi_attribute 24, 1
   8              		.eabi_attribute 25, 1
   9              		.eabi_attribute 26, 1
  10              		.eabi_attribute 30, 6
  11              		.eabi_attribute 34, 1
  12              		.eabi_attribute 18, 4
  13              		.thumb
  14              		.file	"uart_ultrasonic.c"
  15              		.text
  16              	.Ltext0:
  17              		.cfi_sections	.debug_frame
  18              		.global	uart_ultrasonic_initVar
  19              		.bss
  20              		.type	uart_ultrasonic_initVar, %object
  21              		.size	uart_ultrasonic_initVar, 1
  22              	uart_ultrasonic_initVar:
  23 0000 00       		.space	1
  24              		.section	.text.uart_ultrasonic_Start,"ax",%progbits
  25              		.align	2
  26              		.global	uart_ultrasonic_Start
  27              		.thumb
  28              		.thumb_func
  29              		.type	uart_ultrasonic_Start, %function
  30              	uart_ultrasonic_Start:
  31              	.LFB0:
  32              		.file 1 ".\\Generated_Source\\PSoC5\\uart_ultrasonic.c"
   1:.\Generated_Source\PSoC5/uart_ultrasonic.c **** /*******************************************************************************
   2:.\Generated_Source\PSoC5/uart_ultrasonic.c **** * File Name: uart_ultrasonic.c
   3:.\Generated_Source\PSoC5/uart_ultrasonic.c **** * Version 2.30
   4:.\Generated_Source\PSoC5/uart_ultrasonic.c **** *
   5:.\Generated_Source\PSoC5/uart_ultrasonic.c **** * Description:
   6:.\Generated_Source\PSoC5/uart_ultrasonic.c **** *  This file provides all API functionality of the UART component
   7:.\Generated_Source\PSoC5/uart_ultrasonic.c **** *
   8:.\Generated_Source\PSoC5/uart_ultrasonic.c **** * Note:
   9:.\Generated_Source\PSoC5/uart_ultrasonic.c **** *
  10:.\Generated_Source\PSoC5/uart_ultrasonic.c **** ********************************************************************************
  11:.\Generated_Source\PSoC5/uart_ultrasonic.c **** * Copyright 2008-2012, Cypress Semiconductor Corporation.  All rights reserved.
  12:.\Generated_Source\PSoC5/uart_ultrasonic.c **** * You may use this file only in accordance with the license, terms, conditions,
  13:.\Generated_Source\PSoC5/uart_ultrasonic.c **** * disclaimers, and limitations in the end user license agreement accompanying
  14:.\Generated_Source\PSoC5/uart_ultrasonic.c **** * the software package with which this file was provided.
  15:.\Generated_Source\PSoC5/uart_ultrasonic.c **** *******************************************************************************/
  16:.\Generated_Source\PSoC5/uart_ultrasonic.c **** 
  17:.\Generated_Source\PSoC5/uart_ultrasonic.c **** #include "uart_ultrasonic.h"
  18:.\Generated_Source\PSoC5/uart_ultrasonic.c **** #include "CyLib.h"
  19:.\Generated_Source\PSoC5/uart_ultrasonic.c **** #if(uart_ultrasonic_INTERNAL_CLOCK_USED)
  20:.\Generated_Source\PSoC5/uart_ultrasonic.c ****     #include "uart_ultrasonic_IntClock.h"
  21:.\Generated_Source\PSoC5/uart_ultrasonic.c **** #endif /* End uart_ultrasonic_INTERNAL_CLOCK_USED */
  22:.\Generated_Source\PSoC5/uart_ultrasonic.c **** 
  23:.\Generated_Source\PSoC5/uart_ultrasonic.c **** 
  24:.\Generated_Source\PSoC5/uart_ultrasonic.c **** /***************************************
  25:.\Generated_Source\PSoC5/uart_ultrasonic.c **** * Global data allocation
ARM GAS  C:\Users\Matthew\AppData\Local\Temp\cc7D46n7.s 			page 2


  26:.\Generated_Source\PSoC5/uart_ultrasonic.c **** ***************************************/
  27:.\Generated_Source\PSoC5/uart_ultrasonic.c **** 
  28:.\Generated_Source\PSoC5/uart_ultrasonic.c **** uint8 uart_ultrasonic_initVar = 0u;
  29:.\Generated_Source\PSoC5/uart_ultrasonic.c **** #if( uart_ultrasonic_TX_ENABLED && (uart_ultrasonic_TXBUFFERSIZE > uart_ultrasonic_FIFO_LENGTH))
  30:.\Generated_Source\PSoC5/uart_ultrasonic.c ****     volatile uint8 uart_ultrasonic_txBuffer[uart_ultrasonic_TXBUFFERSIZE];
  31:.\Generated_Source\PSoC5/uart_ultrasonic.c ****     volatile uint8 uart_ultrasonic_txBufferRead = 0u;
  32:.\Generated_Source\PSoC5/uart_ultrasonic.c ****     uint8 uart_ultrasonic_txBufferWrite = 0u;
  33:.\Generated_Source\PSoC5/uart_ultrasonic.c **** #endif /* End uart_ultrasonic_TX_ENABLED */
  34:.\Generated_Source\PSoC5/uart_ultrasonic.c **** #if( ( uart_ultrasonic_RX_ENABLED || uart_ultrasonic_HD_ENABLED ) && \
  35:.\Generated_Source\PSoC5/uart_ultrasonic.c ****      (uart_ultrasonic_RXBUFFERSIZE > uart_ultrasonic_FIFO_LENGTH) )
  36:.\Generated_Source\PSoC5/uart_ultrasonic.c ****     volatile uint8 uart_ultrasonic_rxBuffer[uart_ultrasonic_RXBUFFERSIZE];
  37:.\Generated_Source\PSoC5/uart_ultrasonic.c ****     volatile uint8 uart_ultrasonic_rxBufferRead = 0u;
  38:.\Generated_Source\PSoC5/uart_ultrasonic.c ****     volatile uint8 uart_ultrasonic_rxBufferWrite = 0u;
  39:.\Generated_Source\PSoC5/uart_ultrasonic.c ****     volatile uint8 uart_ultrasonic_rxBufferLoopDetect = 0u;
  40:.\Generated_Source\PSoC5/uart_ultrasonic.c ****     volatile uint8 uart_ultrasonic_rxBufferOverflow = 0u;
  41:.\Generated_Source\PSoC5/uart_ultrasonic.c ****     #if (uart_ultrasonic_RXHW_ADDRESS_ENABLED)
  42:.\Generated_Source\PSoC5/uart_ultrasonic.c ****         volatile uint8 uart_ultrasonic_rxAddressMode = uart_ultrasonic_RXADDRESSMODE;
  43:.\Generated_Source\PSoC5/uart_ultrasonic.c ****         volatile uint8 uart_ultrasonic_rxAddressDetected = 0u;
  44:.\Generated_Source\PSoC5/uart_ultrasonic.c ****     #endif /* End EnableHWAddress */
  45:.\Generated_Source\PSoC5/uart_ultrasonic.c **** #endif /* End uart_ultrasonic_RX_ENABLED */
  46:.\Generated_Source\PSoC5/uart_ultrasonic.c **** 
  47:.\Generated_Source\PSoC5/uart_ultrasonic.c **** 
  48:.\Generated_Source\PSoC5/uart_ultrasonic.c **** /*******************************************************************************
  49:.\Generated_Source\PSoC5/uart_ultrasonic.c **** * Function Name: uart_ultrasonic_Start
  50:.\Generated_Source\PSoC5/uart_ultrasonic.c **** ********************************************************************************
  51:.\Generated_Source\PSoC5/uart_ultrasonic.c **** *
  52:.\Generated_Source\PSoC5/uart_ultrasonic.c **** * Summary:
  53:.\Generated_Source\PSoC5/uart_ultrasonic.c **** *  Initialize and Enable the UART component.
  54:.\Generated_Source\PSoC5/uart_ultrasonic.c **** *  Enable the clock input to enable operation.
  55:.\Generated_Source\PSoC5/uart_ultrasonic.c **** *
  56:.\Generated_Source\PSoC5/uart_ultrasonic.c **** * Parameters:
  57:.\Generated_Source\PSoC5/uart_ultrasonic.c **** *  None.
  58:.\Generated_Source\PSoC5/uart_ultrasonic.c **** *
  59:.\Generated_Source\PSoC5/uart_ultrasonic.c **** * Return:
  60:.\Generated_Source\PSoC5/uart_ultrasonic.c **** *  None.
  61:.\Generated_Source\PSoC5/uart_ultrasonic.c **** *
  62:.\Generated_Source\PSoC5/uart_ultrasonic.c **** * Global variables:
  63:.\Generated_Source\PSoC5/uart_ultrasonic.c **** *  The uart_ultrasonic_intiVar variable is used to indicate initial
  64:.\Generated_Source\PSoC5/uart_ultrasonic.c **** *  configuration of this component. The variable is initialized to zero (0u)
  65:.\Generated_Source\PSoC5/uart_ultrasonic.c **** *  and set to one (1u) the first time UART_Start() is called. This allows for
  66:.\Generated_Source\PSoC5/uart_ultrasonic.c **** *  component initialization without re-initialization in all subsequent calls
  67:.\Generated_Source\PSoC5/uart_ultrasonic.c **** *  to the uart_ultrasonic_Start() routine.
  68:.\Generated_Source\PSoC5/uart_ultrasonic.c **** *
  69:.\Generated_Source\PSoC5/uart_ultrasonic.c **** * Reentrant:
  70:.\Generated_Source\PSoC5/uart_ultrasonic.c **** *  No.
  71:.\Generated_Source\PSoC5/uart_ultrasonic.c **** *
  72:.\Generated_Source\PSoC5/uart_ultrasonic.c **** *******************************************************************************/
  73:.\Generated_Source\PSoC5/uart_ultrasonic.c **** void uart_ultrasonic_Start(void) 
  74:.\Generated_Source\PSoC5/uart_ultrasonic.c **** {
  33              		.loc 1 74 0
  34              		.cfi_startproc
  35              		@ args = 0, pretend = 0, frame = 0
  36              		@ frame_needed = 1, uses_anonymous_args = 0
  37 0000 80B5     		push	{r7, lr}
  38              		.cfi_def_cfa_offset 8
  39              		.cfi_offset 7, -8
  40              		.cfi_offset 14, -4
ARM GAS  C:\Users\Matthew\AppData\Local\Temp\cc7D46n7.s 			page 3


  41 0002 00AF     		add	r7, sp, #0
  42              		.cfi_def_cfa_register 7
  75:.\Generated_Source\PSoC5/uart_ultrasonic.c ****     /* If not Initialized then initialize all required hardware and software */
  76:.\Generated_Source\PSoC5/uart_ultrasonic.c ****     if(uart_ultrasonic_initVar == 0u)
  43              		.loc 1 76 0
  44 0004 054B     		ldr	r3, .L3
  45 0006 1B78     		ldrb	r3, [r3]	@ zero_extendqisi2
  46 0008 002B     		cmp	r3, #0
  47 000a 04D1     		bne	.L2
  77:.\Generated_Source\PSoC5/uart_ultrasonic.c ****     {
  78:.\Generated_Source\PSoC5/uart_ultrasonic.c ****         uart_ultrasonic_Init();
  48              		.loc 1 78 0
  49 000c FFF7FEFF 		bl	uart_ultrasonic_Init
  79:.\Generated_Source\PSoC5/uart_ultrasonic.c ****         uart_ultrasonic_initVar = 1u;
  50              		.loc 1 79 0
  51 0010 024B     		ldr	r3, .L3
  52 0012 0122     		movs	r2, #1
  53 0014 1A70     		strb	r2, [r3]
  54              	.L2:
  80:.\Generated_Source\PSoC5/uart_ultrasonic.c ****     }
  81:.\Generated_Source\PSoC5/uart_ultrasonic.c ****     uart_ultrasonic_Enable();
  55              		.loc 1 81 0
  56 0016 FFF7FEFF 		bl	uart_ultrasonic_Enable
  82:.\Generated_Source\PSoC5/uart_ultrasonic.c **** }
  57              		.loc 1 82 0
  58 001a 80BD     		pop	{r7, pc}
  59              	.L4:
  60              		.align	2
  61              	.L3:
  62 001c 00000000 		.word	uart_ultrasonic_initVar
  63              		.cfi_endproc
  64              	.LFE0:
  65              		.size	uart_ultrasonic_Start, .-uart_ultrasonic_Start
  66              		.section	.text.uart_ultrasonic_Init,"ax",%progbits
  67              		.align	2
  68              		.global	uart_ultrasonic_Init
  69              		.thumb
  70              		.thumb_func
  71              		.type	uart_ultrasonic_Init, %function
  72              	uart_ultrasonic_Init:
  73              	.LFB1:
  83:.\Generated_Source\PSoC5/uart_ultrasonic.c **** 
  84:.\Generated_Source\PSoC5/uart_ultrasonic.c **** 
  85:.\Generated_Source\PSoC5/uart_ultrasonic.c **** /*******************************************************************************
  86:.\Generated_Source\PSoC5/uart_ultrasonic.c **** * Function Name: uart_ultrasonic_Init
  87:.\Generated_Source\PSoC5/uart_ultrasonic.c **** ********************************************************************************
  88:.\Generated_Source\PSoC5/uart_ultrasonic.c **** *
  89:.\Generated_Source\PSoC5/uart_ultrasonic.c **** * Summary:
  90:.\Generated_Source\PSoC5/uart_ultrasonic.c **** *  Initialize component's parameters to the parameters set by user in the
  91:.\Generated_Source\PSoC5/uart_ultrasonic.c **** *  customizer of the component placed onto schematic. Usually called in
  92:.\Generated_Source\PSoC5/uart_ultrasonic.c **** *  uart_ultrasonic_Start().
  93:.\Generated_Source\PSoC5/uart_ultrasonic.c **** *
  94:.\Generated_Source\PSoC5/uart_ultrasonic.c **** * Parameters:
  95:.\Generated_Source\PSoC5/uart_ultrasonic.c **** *  None.
  96:.\Generated_Source\PSoC5/uart_ultrasonic.c **** *
  97:.\Generated_Source\PSoC5/uart_ultrasonic.c **** * Return:
  98:.\Generated_Source\PSoC5/uart_ultrasonic.c **** *  None.
ARM GAS  C:\Users\Matthew\AppData\Local\Temp\cc7D46n7.s 			page 4


  99:.\Generated_Source\PSoC5/uart_ultrasonic.c **** *
 100:.\Generated_Source\PSoC5/uart_ultrasonic.c **** *******************************************************************************/
 101:.\Generated_Source\PSoC5/uart_ultrasonic.c **** void uart_ultrasonic_Init(void) 
 102:.\Generated_Source\PSoC5/uart_ultrasonic.c **** {
  74              		.loc 1 102 0
  75              		.cfi_startproc
  76              		@ args = 0, pretend = 0, frame = 0
  77              		@ frame_needed = 1, uses_anonymous_args = 0
  78              		@ link register save eliminated.
  79 0000 80B4     		push	{r7}
  80              		.cfi_def_cfa_offset 4
  81              		.cfi_offset 7, -4
  82 0002 00AF     		add	r7, sp, #0
  83              		.cfi_def_cfa_register 7
 103:.\Generated_Source\PSoC5/uart_ultrasonic.c ****     #if(uart_ultrasonic_RX_ENABLED || uart_ultrasonic_HD_ENABLED)
 104:.\Generated_Source\PSoC5/uart_ultrasonic.c **** 
 105:.\Generated_Source\PSoC5/uart_ultrasonic.c ****         #if(uart_ultrasonic_RX_INTERRUPT_ENABLED && (uart_ultrasonic_RXBUFFERSIZE > uart_ultrasonic
 106:.\Generated_Source\PSoC5/uart_ultrasonic.c ****             /* Set the RX Interrupt. */
 107:.\Generated_Source\PSoC5/uart_ultrasonic.c ****             (void)CyIntSetVector(uart_ultrasonic_RX_VECT_NUM, &uart_ultrasonic_RXISR);
 108:.\Generated_Source\PSoC5/uart_ultrasonic.c ****             CyIntSetPriority(uart_ultrasonic_RX_VECT_NUM, uart_ultrasonic_RX_PRIOR_NUM);
 109:.\Generated_Source\PSoC5/uart_ultrasonic.c ****         #endif /* End uart_ultrasonic_RX_INTERRUPT_ENABLED */
 110:.\Generated_Source\PSoC5/uart_ultrasonic.c **** 
 111:.\Generated_Source\PSoC5/uart_ultrasonic.c ****         #if (uart_ultrasonic_RXHW_ADDRESS_ENABLED)
 112:.\Generated_Source\PSoC5/uart_ultrasonic.c ****             uart_ultrasonic_SetRxAddressMode(uart_ultrasonic_RXAddressMode);
 113:.\Generated_Source\PSoC5/uart_ultrasonic.c ****             uart_ultrasonic_SetRxAddress1(uart_ultrasonic_RXHWADDRESS1);
 114:.\Generated_Source\PSoC5/uart_ultrasonic.c ****             uart_ultrasonic_SetRxAddress2(uart_ultrasonic_RXHWADDRESS2);
 115:.\Generated_Source\PSoC5/uart_ultrasonic.c ****         #endif /* End uart_ultrasonic_RXHW_ADDRESS_ENABLED */
 116:.\Generated_Source\PSoC5/uart_ultrasonic.c **** 
 117:.\Generated_Source\PSoC5/uart_ultrasonic.c ****         /* Init Count7 period */
 118:.\Generated_Source\PSoC5/uart_ultrasonic.c ****         uart_ultrasonic_RXBITCTR_PERIOD_REG = uart_ultrasonic_RXBITCTR_INIT;
  84              		.loc 1 118 0
  85 0004 044B     		ldr	r3, .L6
  86 0006 7222     		movs	r2, #114
  87 0008 1A70     		strb	r2, [r3]
 119:.\Generated_Source\PSoC5/uart_ultrasonic.c ****         /* Configure the Initial RX interrupt mask */
 120:.\Generated_Source\PSoC5/uart_ultrasonic.c ****         uart_ultrasonic_RXSTATUS_MASK_REG  = uart_ultrasonic_INIT_RX_INTERRUPTS_MASK;
  88              		.loc 1 120 0
  89 000a 044B     		ldr	r3, .L6+4
  90 000c 2022     		movs	r2, #32
  91 000e 1A70     		strb	r2, [r3]
 121:.\Generated_Source\PSoC5/uart_ultrasonic.c ****     #endif /* End uart_ultrasonic_RX_ENABLED || uart_ultrasonic_HD_ENABLED*/
 122:.\Generated_Source\PSoC5/uart_ultrasonic.c **** 
 123:.\Generated_Source\PSoC5/uart_ultrasonic.c ****     #if(uart_ultrasonic_TX_ENABLED)
 124:.\Generated_Source\PSoC5/uart_ultrasonic.c ****         #if(uart_ultrasonic_TX_INTERRUPT_ENABLED && (uart_ultrasonic_TXBUFFERSIZE > uart_ultrasonic
 125:.\Generated_Source\PSoC5/uart_ultrasonic.c ****             /* Set the TX Interrupt. */
 126:.\Generated_Source\PSoC5/uart_ultrasonic.c ****             (void)CyIntSetVector(uart_ultrasonic_TX_VECT_NUM, &uart_ultrasonic_TXISR);
 127:.\Generated_Source\PSoC5/uart_ultrasonic.c ****             CyIntSetPriority(uart_ultrasonic_TX_VECT_NUM, uart_ultrasonic_TX_PRIOR_NUM);
 128:.\Generated_Source\PSoC5/uart_ultrasonic.c ****         #endif /* End uart_ultrasonic_TX_INTERRUPT_ENABLED */
 129:.\Generated_Source\PSoC5/uart_ultrasonic.c **** 
 130:.\Generated_Source\PSoC5/uart_ultrasonic.c ****         /* Write Counter Value for TX Bit Clk Generator*/
 131:.\Generated_Source\PSoC5/uart_ultrasonic.c ****         #if(uart_ultrasonic_TXCLKGEN_DP)
 132:.\Generated_Source\PSoC5/uart_ultrasonic.c ****             uart_ultrasonic_TXBITCLKGEN_CTR_REG = uart_ultrasonic_BIT_CENTER;
 133:.\Generated_Source\PSoC5/uart_ultrasonic.c ****             uart_ultrasonic_TXBITCLKTX_COMPLETE_REG = (uart_ultrasonic_NUMBER_OF_DATA_BITS +
 134:.\Generated_Source\PSoC5/uart_ultrasonic.c ****                         uart_ultrasonic_NUMBER_OF_START_BIT) * uart_ultrasonic_OVER_SAMPLE_COUNT;
 135:.\Generated_Source\PSoC5/uart_ultrasonic.c ****         #else
 136:.\Generated_Source\PSoC5/uart_ultrasonic.c ****             uart_ultrasonic_TXBITCTR_PERIOD_REG = ((uart_ultrasonic_NUMBER_OF_DATA_BITS +
 137:.\Generated_Source\PSoC5/uart_ultrasonic.c ****                         uart_ultrasonic_NUMBER_OF_START_BIT) * uart_ultrasonic_OVER_SAMPLE_8) - 1u;
ARM GAS  C:\Users\Matthew\AppData\Local\Temp\cc7D46n7.s 			page 5


 138:.\Generated_Source\PSoC5/uart_ultrasonic.c ****         #endif /* End uart_ultrasonic_TXCLKGEN_DP */
 139:.\Generated_Source\PSoC5/uart_ultrasonic.c **** 
 140:.\Generated_Source\PSoC5/uart_ultrasonic.c ****         /* Configure the Initial TX interrupt mask */
 141:.\Generated_Source\PSoC5/uart_ultrasonic.c ****         #if(uart_ultrasonic_TX_INTERRUPT_ENABLED && (uart_ultrasonic_TXBUFFERSIZE > uart_ultrasonic
 142:.\Generated_Source\PSoC5/uart_ultrasonic.c ****             uart_ultrasonic_TXSTATUS_MASK_REG = uart_ultrasonic_TX_STS_FIFO_EMPTY;
 143:.\Generated_Source\PSoC5/uart_ultrasonic.c ****         #else
 144:.\Generated_Source\PSoC5/uart_ultrasonic.c ****             uart_ultrasonic_TXSTATUS_MASK_REG = uart_ultrasonic_INIT_TX_INTERRUPTS_MASK;
 145:.\Generated_Source\PSoC5/uart_ultrasonic.c ****         #endif /*End uart_ultrasonic_TX_INTERRUPT_ENABLED*/
 146:.\Generated_Source\PSoC5/uart_ultrasonic.c **** 
 147:.\Generated_Source\PSoC5/uart_ultrasonic.c ****     #endif /* End uart_ultrasonic_TX_ENABLED */
 148:.\Generated_Source\PSoC5/uart_ultrasonic.c **** 
 149:.\Generated_Source\PSoC5/uart_ultrasonic.c ****     #if(uart_ultrasonic_PARITY_TYPE_SW)  /* Write Parity to Control Register */
 150:.\Generated_Source\PSoC5/uart_ultrasonic.c ****         uart_ultrasonic_WriteControlRegister( \
 151:.\Generated_Source\PSoC5/uart_ultrasonic.c ****             (uart_ultrasonic_ReadControlRegister() & (uint8)~uart_ultrasonic_CTRL_PARITY_TYPE_MASK)
 152:.\Generated_Source\PSoC5/uart_ultrasonic.c ****             (uint8)(uart_ultrasonic_PARITY_TYPE << uart_ultrasonic_CTRL_PARITY_TYPE0_SHIFT) );
 153:.\Generated_Source\PSoC5/uart_ultrasonic.c ****     #endif /* End uart_ultrasonic_PARITY_TYPE_SW */
 154:.\Generated_Source\PSoC5/uart_ultrasonic.c **** }
  92              		.loc 1 154 0
  93 0010 BD46     		mov	sp, r7
  94              		@ sp needed
  95 0012 5DF8047B 		ldr	r7, [sp], #4
  96 0016 7047     		bx	lr
  97              	.L7:
  98              		.align	2
  99              	.L6:
 100 0018 86640040 		.word	1073767558
 101 001c 86650040 		.word	1073767814
 102              		.cfi_endproc
 103              	.LFE1:
 104              		.size	uart_ultrasonic_Init, .-uart_ultrasonic_Init
 105              		.section	.text.uart_ultrasonic_Enable,"ax",%progbits
 106              		.align	2
 107              		.global	uart_ultrasonic_Enable
 108              		.thumb
 109              		.thumb_func
 110              		.type	uart_ultrasonic_Enable, %function
 111              	uart_ultrasonic_Enable:
 112              	.LFB2:
 155:.\Generated_Source\PSoC5/uart_ultrasonic.c **** 
 156:.\Generated_Source\PSoC5/uart_ultrasonic.c **** 
 157:.\Generated_Source\PSoC5/uart_ultrasonic.c **** /*******************************************************************************
 158:.\Generated_Source\PSoC5/uart_ultrasonic.c **** * Function Name: uart_ultrasonic_Enable
 159:.\Generated_Source\PSoC5/uart_ultrasonic.c **** ********************************************************************************
 160:.\Generated_Source\PSoC5/uart_ultrasonic.c **** *
 161:.\Generated_Source\PSoC5/uart_ultrasonic.c **** * Summary:
 162:.\Generated_Source\PSoC5/uart_ultrasonic.c **** *  Enables the UART block operation
 163:.\Generated_Source\PSoC5/uart_ultrasonic.c **** *
 164:.\Generated_Source\PSoC5/uart_ultrasonic.c **** * Parameters:
 165:.\Generated_Source\PSoC5/uart_ultrasonic.c **** *  None.
 166:.\Generated_Source\PSoC5/uart_ultrasonic.c **** *
 167:.\Generated_Source\PSoC5/uart_ultrasonic.c **** * Return:
 168:.\Generated_Source\PSoC5/uart_ultrasonic.c **** *  None.
 169:.\Generated_Source\PSoC5/uart_ultrasonic.c **** *
 170:.\Generated_Source\PSoC5/uart_ultrasonic.c **** * Global Variables:
 171:.\Generated_Source\PSoC5/uart_ultrasonic.c **** *  uart_ultrasonic_rxAddressDetected - set to initial state (0).
 172:.\Generated_Source\PSoC5/uart_ultrasonic.c **** *
 173:.\Generated_Source\PSoC5/uart_ultrasonic.c **** *******************************************************************************/
ARM GAS  C:\Users\Matthew\AppData\Local\Temp\cc7D46n7.s 			page 6


 174:.\Generated_Source\PSoC5/uart_ultrasonic.c **** void uart_ultrasonic_Enable(void) 
 175:.\Generated_Source\PSoC5/uart_ultrasonic.c **** {
 113              		.loc 1 175 0
 114              		.cfi_startproc
 115              		@ args = 0, pretend = 0, frame = 8
 116              		@ frame_needed = 1, uses_anonymous_args = 0
 117 0000 80B5     		push	{r7, lr}
 118              		.cfi_def_cfa_offset 8
 119              		.cfi_offset 7, -8
 120              		.cfi_offset 14, -4
 121 0002 82B0     		sub	sp, sp, #8
 122              		.cfi_def_cfa_offset 16
 123 0004 00AF     		add	r7, sp, #0
 124              		.cfi_def_cfa_register 7
 176:.\Generated_Source\PSoC5/uart_ultrasonic.c ****     uint8 enableInterrupts;
 177:.\Generated_Source\PSoC5/uart_ultrasonic.c ****     enableInterrupts = CyEnterCriticalSection();
 125              		.loc 1 177 0
 126 0006 FFF7FEFF 		bl	CyEnterCriticalSection
 127 000a 0346     		mov	r3, r0
 128 000c FB71     		strb	r3, [r7, #7]
 178:.\Generated_Source\PSoC5/uart_ultrasonic.c **** 
 179:.\Generated_Source\PSoC5/uart_ultrasonic.c ****     #if(uart_ultrasonic_RX_ENABLED || uart_ultrasonic_HD_ENABLED)
 180:.\Generated_Source\PSoC5/uart_ultrasonic.c ****         /*RX Counter (Count7) Enable */
 181:.\Generated_Source\PSoC5/uart_ultrasonic.c ****         uart_ultrasonic_RXBITCTR_CONTROL_REG |= uart_ultrasonic_CNTR_ENABLE;
 129              		.loc 1 181 0
 130 000e 0C4B     		ldr	r3, .L9
 131 0010 0B4A     		ldr	r2, .L9
 132 0012 1278     		ldrb	r2, [r2]
 133 0014 D2B2     		uxtb	r2, r2
 134 0016 42F02002 		orr	r2, r2, #32
 135 001a D2B2     		uxtb	r2, r2
 136 001c 1A70     		strb	r2, [r3]
 182:.\Generated_Source\PSoC5/uart_ultrasonic.c ****         /* Enable the RX Interrupt. */
 183:.\Generated_Source\PSoC5/uart_ultrasonic.c ****         uart_ultrasonic_RXSTATUS_ACTL_REG  |= uart_ultrasonic_INT_ENABLE;
 137              		.loc 1 183 0
 138 001e 094B     		ldr	r3, .L9+4
 139 0020 084A     		ldr	r2, .L9+4
 140 0022 1278     		ldrb	r2, [r2]
 141 0024 D2B2     		uxtb	r2, r2
 142 0026 42F01002 		orr	r2, r2, #16
 143 002a D2B2     		uxtb	r2, r2
 144 002c 1A70     		strb	r2, [r3]
 184:.\Generated_Source\PSoC5/uart_ultrasonic.c ****         #if(uart_ultrasonic_RX_INTERRUPT_ENABLED && (uart_ultrasonic_RXBUFFERSIZE > uart_ultrasonic
 185:.\Generated_Source\PSoC5/uart_ultrasonic.c ****             CyIntEnable(uart_ultrasonic_RX_VECT_NUM);
 186:.\Generated_Source\PSoC5/uart_ultrasonic.c ****             #if (uart_ultrasonic_RXHW_ADDRESS_ENABLED)
 187:.\Generated_Source\PSoC5/uart_ultrasonic.c ****                 uart_ultrasonic_rxAddressDetected = 0u;
 188:.\Generated_Source\PSoC5/uart_ultrasonic.c ****             #endif /* End uart_ultrasonic_RXHW_ADDRESS_ENABLED */
 189:.\Generated_Source\PSoC5/uart_ultrasonic.c ****         #endif /* End uart_ultrasonic_RX_INTERRUPT_ENABLED */
 190:.\Generated_Source\PSoC5/uart_ultrasonic.c ****     #endif /* End uart_ultrasonic_RX_ENABLED || uart_ultrasonic_HD_ENABLED*/
 191:.\Generated_Source\PSoC5/uart_ultrasonic.c **** 
 192:.\Generated_Source\PSoC5/uart_ultrasonic.c ****     #if(uart_ultrasonic_TX_ENABLED)
 193:.\Generated_Source\PSoC5/uart_ultrasonic.c ****         /*TX Counter (DP/Count7) Enable */
 194:.\Generated_Source\PSoC5/uart_ultrasonic.c ****         #if(!uart_ultrasonic_TXCLKGEN_DP)
 195:.\Generated_Source\PSoC5/uart_ultrasonic.c ****             uart_ultrasonic_TXBITCTR_CONTROL_REG |= uart_ultrasonic_CNTR_ENABLE;
 196:.\Generated_Source\PSoC5/uart_ultrasonic.c ****         #endif /* End uart_ultrasonic_TXCLKGEN_DP */
 197:.\Generated_Source\PSoC5/uart_ultrasonic.c ****         /* Enable the TX Interrupt. */
 198:.\Generated_Source\PSoC5/uart_ultrasonic.c ****         uart_ultrasonic_TXSTATUS_ACTL_REG |= uart_ultrasonic_INT_ENABLE;
ARM GAS  C:\Users\Matthew\AppData\Local\Temp\cc7D46n7.s 			page 7


 199:.\Generated_Source\PSoC5/uart_ultrasonic.c ****         #if(uart_ultrasonic_TX_INTERRUPT_ENABLED && (uart_ultrasonic_TXBUFFERSIZE > uart_ultrasonic
 200:.\Generated_Source\PSoC5/uart_ultrasonic.c ****             CyIntEnable(uart_ultrasonic_TX_VECT_NUM);
 201:.\Generated_Source\PSoC5/uart_ultrasonic.c ****         #endif /* End uart_ultrasonic_TX_INTERRUPT_ENABLED*/
 202:.\Generated_Source\PSoC5/uart_ultrasonic.c ****      #endif /* End uart_ultrasonic_TX_ENABLED */
 203:.\Generated_Source\PSoC5/uart_ultrasonic.c **** 
 204:.\Generated_Source\PSoC5/uart_ultrasonic.c ****     #if(uart_ultrasonic_INTERNAL_CLOCK_USED)
 205:.\Generated_Source\PSoC5/uart_ultrasonic.c ****         /* Enable the clock. */
 206:.\Generated_Source\PSoC5/uart_ultrasonic.c ****         uart_ultrasonic_IntClock_Start();
 145              		.loc 1 206 0
 146 002e FFF7FEFF 		bl	uart_ultrasonic_IntClock_Start
 207:.\Generated_Source\PSoC5/uart_ultrasonic.c ****     #endif /* End uart_ultrasonic_INTERNAL_CLOCK_USED */
 208:.\Generated_Source\PSoC5/uart_ultrasonic.c **** 
 209:.\Generated_Source\PSoC5/uart_ultrasonic.c ****     CyExitCriticalSection(enableInterrupts);
 147              		.loc 1 209 0
 148 0032 FB79     		ldrb	r3, [r7, #7]	@ zero_extendqisi2
 149 0034 1846     		mov	r0, r3
 150 0036 FFF7FEFF 		bl	CyExitCriticalSection
 210:.\Generated_Source\PSoC5/uart_ultrasonic.c **** }
 151              		.loc 1 210 0
 152 003a 0837     		adds	r7, r7, #8
 153 003c BD46     		mov	sp, r7
 154              		@ sp needed
 155 003e 80BD     		pop	{r7, pc}
 156              	.L10:
 157              		.align	2
 158              	.L9:
 159 0040 96640040 		.word	1073767574
 160 0044 96650040 		.word	1073767830
 161              		.cfi_endproc
 162              	.LFE2:
 163              		.size	uart_ultrasonic_Enable, .-uart_ultrasonic_Enable
 164              		.section	.text.uart_ultrasonic_Stop,"ax",%progbits
 165              		.align	2
 166              		.global	uart_ultrasonic_Stop
 167              		.thumb
 168              		.thumb_func
 169              		.type	uart_ultrasonic_Stop, %function
 170              	uart_ultrasonic_Stop:
 171              	.LFB3:
 211:.\Generated_Source\PSoC5/uart_ultrasonic.c **** 
 212:.\Generated_Source\PSoC5/uart_ultrasonic.c **** 
 213:.\Generated_Source\PSoC5/uart_ultrasonic.c **** /*******************************************************************************
 214:.\Generated_Source\PSoC5/uart_ultrasonic.c **** * Function Name: uart_ultrasonic_Stop
 215:.\Generated_Source\PSoC5/uart_ultrasonic.c **** ********************************************************************************
 216:.\Generated_Source\PSoC5/uart_ultrasonic.c **** *
 217:.\Generated_Source\PSoC5/uart_ultrasonic.c **** * Summary:
 218:.\Generated_Source\PSoC5/uart_ultrasonic.c **** *  Disable the UART component
 219:.\Generated_Source\PSoC5/uart_ultrasonic.c **** *
 220:.\Generated_Source\PSoC5/uart_ultrasonic.c **** * Parameters:
 221:.\Generated_Source\PSoC5/uart_ultrasonic.c **** *  None.
 222:.\Generated_Source\PSoC5/uart_ultrasonic.c **** *
 223:.\Generated_Source\PSoC5/uart_ultrasonic.c **** * Return:
 224:.\Generated_Source\PSoC5/uart_ultrasonic.c **** *  None.
 225:.\Generated_Source\PSoC5/uart_ultrasonic.c **** *
 226:.\Generated_Source\PSoC5/uart_ultrasonic.c **** *******************************************************************************/
 227:.\Generated_Source\PSoC5/uart_ultrasonic.c **** void uart_ultrasonic_Stop(void) 
 228:.\Generated_Source\PSoC5/uart_ultrasonic.c **** {
ARM GAS  C:\Users\Matthew\AppData\Local\Temp\cc7D46n7.s 			page 8


 172              		.loc 1 228 0
 173              		.cfi_startproc
 174              		@ args = 0, pretend = 0, frame = 8
 175              		@ frame_needed = 1, uses_anonymous_args = 0
 176 0000 80B5     		push	{r7, lr}
 177              		.cfi_def_cfa_offset 8
 178              		.cfi_offset 7, -8
 179              		.cfi_offset 14, -4
 180 0002 82B0     		sub	sp, sp, #8
 181              		.cfi_def_cfa_offset 16
 182 0004 00AF     		add	r7, sp, #0
 183              		.cfi_def_cfa_register 7
 229:.\Generated_Source\PSoC5/uart_ultrasonic.c ****     uint8 enableInterrupts;
 230:.\Generated_Source\PSoC5/uart_ultrasonic.c ****     enableInterrupts = CyEnterCriticalSection();
 184              		.loc 1 230 0
 185 0006 FFF7FEFF 		bl	CyEnterCriticalSection
 186 000a 0346     		mov	r3, r0
 187 000c FB71     		strb	r3, [r7, #7]
 231:.\Generated_Source\PSoC5/uart_ultrasonic.c **** 
 232:.\Generated_Source\PSoC5/uart_ultrasonic.c ****     /* Write Bit Counter Disable */
 233:.\Generated_Source\PSoC5/uart_ultrasonic.c ****     #if(uart_ultrasonic_RX_ENABLED || uart_ultrasonic_HD_ENABLED)
 234:.\Generated_Source\PSoC5/uart_ultrasonic.c ****         uart_ultrasonic_RXBITCTR_CONTROL_REG &= (uint8)~uart_ultrasonic_CNTR_ENABLE;
 188              		.loc 1 234 0
 189 000e 0C4B     		ldr	r3, .L12
 190 0010 0B4A     		ldr	r2, .L12
 191 0012 1278     		ldrb	r2, [r2]
 192 0014 D2B2     		uxtb	r2, r2
 193 0016 22F02002 		bic	r2, r2, #32
 194 001a D2B2     		uxtb	r2, r2
 195 001c 1A70     		strb	r2, [r3]
 235:.\Generated_Source\PSoC5/uart_ultrasonic.c ****     #endif /* End uart_ultrasonic_RX_ENABLED */
 236:.\Generated_Source\PSoC5/uart_ultrasonic.c **** 
 237:.\Generated_Source\PSoC5/uart_ultrasonic.c ****     #if(uart_ultrasonic_TX_ENABLED)
 238:.\Generated_Source\PSoC5/uart_ultrasonic.c ****         #if(!uart_ultrasonic_TXCLKGEN_DP)
 239:.\Generated_Source\PSoC5/uart_ultrasonic.c ****             uart_ultrasonic_TXBITCTR_CONTROL_REG &= (uint8)~uart_ultrasonic_CNTR_ENABLE;
 240:.\Generated_Source\PSoC5/uart_ultrasonic.c ****         #endif /* End uart_ultrasonic_TXCLKGEN_DP */
 241:.\Generated_Source\PSoC5/uart_ultrasonic.c ****     #endif /* uart_ultrasonic_TX_ENABLED */
 242:.\Generated_Source\PSoC5/uart_ultrasonic.c **** 
 243:.\Generated_Source\PSoC5/uart_ultrasonic.c ****     #if(uart_ultrasonic_INTERNAL_CLOCK_USED)
 244:.\Generated_Source\PSoC5/uart_ultrasonic.c ****         /* Disable the clock. */
 245:.\Generated_Source\PSoC5/uart_ultrasonic.c ****         uart_ultrasonic_IntClock_Stop();
 196              		.loc 1 245 0
 197 001e FFF7FEFF 		bl	uart_ultrasonic_IntClock_Stop
 246:.\Generated_Source\PSoC5/uart_ultrasonic.c ****     #endif /* End uart_ultrasonic_INTERNAL_CLOCK_USED */
 247:.\Generated_Source\PSoC5/uart_ultrasonic.c **** 
 248:.\Generated_Source\PSoC5/uart_ultrasonic.c ****     /* Disable internal interrupt component */
 249:.\Generated_Source\PSoC5/uart_ultrasonic.c ****     #if(uart_ultrasonic_RX_ENABLED || uart_ultrasonic_HD_ENABLED)
 250:.\Generated_Source\PSoC5/uart_ultrasonic.c ****         uart_ultrasonic_RXSTATUS_ACTL_REG  &= (uint8)~uart_ultrasonic_INT_ENABLE;
 198              		.loc 1 250 0
 199 0022 084B     		ldr	r3, .L12+4
 200 0024 074A     		ldr	r2, .L12+4
 201 0026 1278     		ldrb	r2, [r2]
 202 0028 D2B2     		uxtb	r2, r2
 203 002a 22F01002 		bic	r2, r2, #16
 204 002e D2B2     		uxtb	r2, r2
 205 0030 1A70     		strb	r2, [r3]
 251:.\Generated_Source\PSoC5/uart_ultrasonic.c ****         #if(uart_ultrasonic_RX_INTERRUPT_ENABLED && (uart_ultrasonic_RXBUFFERSIZE > uart_ultrasonic
ARM GAS  C:\Users\Matthew\AppData\Local\Temp\cc7D46n7.s 			page 9


 252:.\Generated_Source\PSoC5/uart_ultrasonic.c ****             uart_ultrasonic_DisableRxInt();
 253:.\Generated_Source\PSoC5/uart_ultrasonic.c ****         #endif /* End uart_ultrasonic_RX_INTERRUPT_ENABLED */
 254:.\Generated_Source\PSoC5/uart_ultrasonic.c ****     #endif /* End uart_ultrasonic_RX_ENABLED */
 255:.\Generated_Source\PSoC5/uart_ultrasonic.c **** 
 256:.\Generated_Source\PSoC5/uart_ultrasonic.c ****     #if(uart_ultrasonic_TX_ENABLED)
 257:.\Generated_Source\PSoC5/uart_ultrasonic.c ****         uart_ultrasonic_TXSTATUS_ACTL_REG &= (uint8)~uart_ultrasonic_INT_ENABLE;
 258:.\Generated_Source\PSoC5/uart_ultrasonic.c ****         #if(uart_ultrasonic_TX_INTERRUPT_ENABLED && (uart_ultrasonic_TXBUFFERSIZE > uart_ultrasonic
 259:.\Generated_Source\PSoC5/uart_ultrasonic.c ****             uart_ultrasonic_DisableTxInt();
 260:.\Generated_Source\PSoC5/uart_ultrasonic.c ****         #endif /* End uart_ultrasonic_TX_INTERRUPT_ENABLED */
 261:.\Generated_Source\PSoC5/uart_ultrasonic.c ****     #endif /* End uart_ultrasonic_TX_ENABLED */
 262:.\Generated_Source\PSoC5/uart_ultrasonic.c **** 
 263:.\Generated_Source\PSoC5/uart_ultrasonic.c ****     CyExitCriticalSection(enableInterrupts);
 206              		.loc 1 263 0
 207 0032 FB79     		ldrb	r3, [r7, #7]	@ zero_extendqisi2
 208 0034 1846     		mov	r0, r3
 209 0036 FFF7FEFF 		bl	CyExitCriticalSection
 264:.\Generated_Source\PSoC5/uart_ultrasonic.c **** }
 210              		.loc 1 264 0
 211 003a 0837     		adds	r7, r7, #8
 212 003c BD46     		mov	sp, r7
 213              		@ sp needed
 214 003e 80BD     		pop	{r7, pc}
 215              	.L13:
 216              		.align	2
 217              	.L12:
 218 0040 96640040 		.word	1073767574
 219 0044 96650040 		.word	1073767830
 220              		.cfi_endproc
 221              	.LFE3:
 222              		.size	uart_ultrasonic_Stop, .-uart_ultrasonic_Stop
 223              		.section	.text.uart_ultrasonic_ReadControlRegister,"ax",%progbits
 224              		.align	2
 225              		.global	uart_ultrasonic_ReadControlRegister
 226              		.thumb
 227              		.thumb_func
 228              		.type	uart_ultrasonic_ReadControlRegister, %function
 229              	uart_ultrasonic_ReadControlRegister:
 230              	.LFB4:
 265:.\Generated_Source\PSoC5/uart_ultrasonic.c **** 
 266:.\Generated_Source\PSoC5/uart_ultrasonic.c **** 
 267:.\Generated_Source\PSoC5/uart_ultrasonic.c **** /*******************************************************************************
 268:.\Generated_Source\PSoC5/uart_ultrasonic.c **** * Function Name: uart_ultrasonic_ReadControlRegister
 269:.\Generated_Source\PSoC5/uart_ultrasonic.c **** ********************************************************************************
 270:.\Generated_Source\PSoC5/uart_ultrasonic.c **** *
 271:.\Generated_Source\PSoC5/uart_ultrasonic.c **** * Summary:
 272:.\Generated_Source\PSoC5/uart_ultrasonic.c **** *  Read the current state of the control register
 273:.\Generated_Source\PSoC5/uart_ultrasonic.c **** *
 274:.\Generated_Source\PSoC5/uart_ultrasonic.c **** * Parameters:
 275:.\Generated_Source\PSoC5/uart_ultrasonic.c **** *  None.
 276:.\Generated_Source\PSoC5/uart_ultrasonic.c **** *
 277:.\Generated_Source\PSoC5/uart_ultrasonic.c **** * Return:
 278:.\Generated_Source\PSoC5/uart_ultrasonic.c **** *  Current state of the control register.
 279:.\Generated_Source\PSoC5/uart_ultrasonic.c **** *
 280:.\Generated_Source\PSoC5/uart_ultrasonic.c **** *******************************************************************************/
 281:.\Generated_Source\PSoC5/uart_ultrasonic.c **** uint8 uart_ultrasonic_ReadControlRegister(void) 
 282:.\Generated_Source\PSoC5/uart_ultrasonic.c **** {
 231              		.loc 1 282 0
ARM GAS  C:\Users\Matthew\AppData\Local\Temp\cc7D46n7.s 			page 10


 232              		.cfi_startproc
 233              		@ args = 0, pretend = 0, frame = 0
 234              		@ frame_needed = 1, uses_anonymous_args = 0
 235              		@ link register save eliminated.
 236 0000 80B4     		push	{r7}
 237              		.cfi_def_cfa_offset 4
 238              		.cfi_offset 7, -4
 239 0002 00AF     		add	r7, sp, #0
 240              		.cfi_def_cfa_register 7
 283:.\Generated_Source\PSoC5/uart_ultrasonic.c ****     #if( uart_ultrasonic_CONTROL_REG_REMOVED )
 284:.\Generated_Source\PSoC5/uart_ultrasonic.c ****         return(0u);
 241              		.loc 1 284 0
 242 0004 0023     		movs	r3, #0
 285:.\Generated_Source\PSoC5/uart_ultrasonic.c ****     #else
 286:.\Generated_Source\PSoC5/uart_ultrasonic.c ****         return(uart_ultrasonic_CONTROL_REG);
 287:.\Generated_Source\PSoC5/uart_ultrasonic.c ****     #endif /* End uart_ultrasonic_CONTROL_REG_REMOVED */
 288:.\Generated_Source\PSoC5/uart_ultrasonic.c **** }
 243              		.loc 1 288 0
 244 0006 1846     		mov	r0, r3
 245 0008 BD46     		mov	sp, r7
 246              		@ sp needed
 247 000a 5DF8047B 		ldr	r7, [sp], #4
 248 000e 7047     		bx	lr
 249              		.cfi_endproc
 250              	.LFE4:
 251              		.size	uart_ultrasonic_ReadControlRegister, .-uart_ultrasonic_ReadControlRegister
 252              		.section	.text.uart_ultrasonic_WriteControlRegister,"ax",%progbits
 253              		.align	2
 254              		.global	uart_ultrasonic_WriteControlRegister
 255              		.thumb
 256              		.thumb_func
 257              		.type	uart_ultrasonic_WriteControlRegister, %function
 258              	uart_ultrasonic_WriteControlRegister:
 259              	.LFB5:
 289:.\Generated_Source\PSoC5/uart_ultrasonic.c **** 
 290:.\Generated_Source\PSoC5/uart_ultrasonic.c **** 
 291:.\Generated_Source\PSoC5/uart_ultrasonic.c **** /*******************************************************************************
 292:.\Generated_Source\PSoC5/uart_ultrasonic.c **** * Function Name: uart_ultrasonic_WriteControlRegister
 293:.\Generated_Source\PSoC5/uart_ultrasonic.c **** ********************************************************************************
 294:.\Generated_Source\PSoC5/uart_ultrasonic.c **** *
 295:.\Generated_Source\PSoC5/uart_ultrasonic.c **** * Summary:
 296:.\Generated_Source\PSoC5/uart_ultrasonic.c **** *  Writes an 8-bit value into the control register
 297:.\Generated_Source\PSoC5/uart_ultrasonic.c **** *
 298:.\Generated_Source\PSoC5/uart_ultrasonic.c **** * Parameters:
 299:.\Generated_Source\PSoC5/uart_ultrasonic.c **** *  control:  control register value
 300:.\Generated_Source\PSoC5/uart_ultrasonic.c **** *
 301:.\Generated_Source\PSoC5/uart_ultrasonic.c **** * Return:
 302:.\Generated_Source\PSoC5/uart_ultrasonic.c **** *  None.
 303:.\Generated_Source\PSoC5/uart_ultrasonic.c **** *
 304:.\Generated_Source\PSoC5/uart_ultrasonic.c **** *******************************************************************************/
 305:.\Generated_Source\PSoC5/uart_ultrasonic.c **** void  uart_ultrasonic_WriteControlRegister(uint8 control) 
 306:.\Generated_Source\PSoC5/uart_ultrasonic.c **** {
 260              		.loc 1 306 0
 261              		.cfi_startproc
 262              		@ args = 0, pretend = 0, frame = 8
 263              		@ frame_needed = 1, uses_anonymous_args = 0
 264              		@ link register save eliminated.
ARM GAS  C:\Users\Matthew\AppData\Local\Temp\cc7D46n7.s 			page 11


 265 0000 80B4     		push	{r7}
 266              		.cfi_def_cfa_offset 4
 267              		.cfi_offset 7, -4
 268 0002 83B0     		sub	sp, sp, #12
 269              		.cfi_def_cfa_offset 16
 270 0004 00AF     		add	r7, sp, #0
 271              		.cfi_def_cfa_register 7
 272 0006 0346     		mov	r3, r0
 273 0008 FB71     		strb	r3, [r7, #7]
 307:.\Generated_Source\PSoC5/uart_ultrasonic.c ****     #if( uart_ultrasonic_CONTROL_REG_REMOVED )
 308:.\Generated_Source\PSoC5/uart_ultrasonic.c ****         if(control != 0u) { }      /* release compiler warning */
 309:.\Generated_Source\PSoC5/uart_ultrasonic.c ****     #else
 310:.\Generated_Source\PSoC5/uart_ultrasonic.c ****        uart_ultrasonic_CONTROL_REG = control;
 311:.\Generated_Source\PSoC5/uart_ultrasonic.c ****     #endif /* End uart_ultrasonic_CONTROL_REG_REMOVED */
 312:.\Generated_Source\PSoC5/uart_ultrasonic.c **** }
 274              		.loc 1 312 0
 275 000a 0C37     		adds	r7, r7, #12
 276 000c BD46     		mov	sp, r7
 277              		@ sp needed
 278 000e 5DF8047B 		ldr	r7, [sp], #4
 279 0012 7047     		bx	lr
 280              		.cfi_endproc
 281              	.LFE5:
 282              		.size	uart_ultrasonic_WriteControlRegister, .-uart_ultrasonic_WriteControlRegister
 283              		.section	.text.uart_ultrasonic_SetRxInterruptMode,"ax",%progbits
 284              		.align	2
 285              		.global	uart_ultrasonic_SetRxInterruptMode
 286              		.thumb
 287              		.thumb_func
 288              		.type	uart_ultrasonic_SetRxInterruptMode, %function
 289              	uart_ultrasonic_SetRxInterruptMode:
 290              	.LFB6:
 313:.\Generated_Source\PSoC5/uart_ultrasonic.c **** 
 314:.\Generated_Source\PSoC5/uart_ultrasonic.c **** 
 315:.\Generated_Source\PSoC5/uart_ultrasonic.c **** #if(uart_ultrasonic_RX_ENABLED || uart_ultrasonic_HD_ENABLED)
 316:.\Generated_Source\PSoC5/uart_ultrasonic.c **** 
 317:.\Generated_Source\PSoC5/uart_ultrasonic.c ****     #if(uart_ultrasonic_RX_INTERRUPT_ENABLED)
 318:.\Generated_Source\PSoC5/uart_ultrasonic.c **** 
 319:.\Generated_Source\PSoC5/uart_ultrasonic.c ****         /*******************************************************************************
 320:.\Generated_Source\PSoC5/uart_ultrasonic.c ****         * Function Name: uart_ultrasonic_EnableRxInt
 321:.\Generated_Source\PSoC5/uart_ultrasonic.c ****         ********************************************************************************
 322:.\Generated_Source\PSoC5/uart_ultrasonic.c ****         *
 323:.\Generated_Source\PSoC5/uart_ultrasonic.c ****         * Summary:
 324:.\Generated_Source\PSoC5/uart_ultrasonic.c ****         *  Enable RX interrupt generation
 325:.\Generated_Source\PSoC5/uart_ultrasonic.c ****         *
 326:.\Generated_Source\PSoC5/uart_ultrasonic.c ****         * Parameters:
 327:.\Generated_Source\PSoC5/uart_ultrasonic.c ****         *  None.
 328:.\Generated_Source\PSoC5/uart_ultrasonic.c ****         *
 329:.\Generated_Source\PSoC5/uart_ultrasonic.c ****         * Return:
 330:.\Generated_Source\PSoC5/uart_ultrasonic.c ****         *  None.
 331:.\Generated_Source\PSoC5/uart_ultrasonic.c ****         *
 332:.\Generated_Source\PSoC5/uart_ultrasonic.c ****         * Theory:
 333:.\Generated_Source\PSoC5/uart_ultrasonic.c ****         *  Enable the interrupt output -or- the interrupt component itself
 334:.\Generated_Source\PSoC5/uart_ultrasonic.c ****         *
 335:.\Generated_Source\PSoC5/uart_ultrasonic.c ****         *******************************************************************************/
 336:.\Generated_Source\PSoC5/uart_ultrasonic.c ****         void uart_ultrasonic_EnableRxInt(void) 
 337:.\Generated_Source\PSoC5/uart_ultrasonic.c ****         {
ARM GAS  C:\Users\Matthew\AppData\Local\Temp\cc7D46n7.s 			page 12


 338:.\Generated_Source\PSoC5/uart_ultrasonic.c ****             CyIntEnable(uart_ultrasonic_RX_VECT_NUM);
 339:.\Generated_Source\PSoC5/uart_ultrasonic.c ****         }
 340:.\Generated_Source\PSoC5/uart_ultrasonic.c **** 
 341:.\Generated_Source\PSoC5/uart_ultrasonic.c **** 
 342:.\Generated_Source\PSoC5/uart_ultrasonic.c ****         /*******************************************************************************
 343:.\Generated_Source\PSoC5/uart_ultrasonic.c ****         * Function Name: uart_ultrasonic_DisableRxInt
 344:.\Generated_Source\PSoC5/uart_ultrasonic.c ****         ********************************************************************************
 345:.\Generated_Source\PSoC5/uart_ultrasonic.c ****         *
 346:.\Generated_Source\PSoC5/uart_ultrasonic.c ****         * Summary:
 347:.\Generated_Source\PSoC5/uart_ultrasonic.c ****         *  Disable RX interrupt generation
 348:.\Generated_Source\PSoC5/uart_ultrasonic.c ****         *
 349:.\Generated_Source\PSoC5/uart_ultrasonic.c ****         * Parameters:
 350:.\Generated_Source\PSoC5/uart_ultrasonic.c ****         *  None.
 351:.\Generated_Source\PSoC5/uart_ultrasonic.c ****         *
 352:.\Generated_Source\PSoC5/uart_ultrasonic.c ****         * Return:
 353:.\Generated_Source\PSoC5/uart_ultrasonic.c ****         *  None.
 354:.\Generated_Source\PSoC5/uart_ultrasonic.c ****         *
 355:.\Generated_Source\PSoC5/uart_ultrasonic.c ****         * Theory:
 356:.\Generated_Source\PSoC5/uart_ultrasonic.c ****         *  Disable the interrupt output -or- the interrupt component itself
 357:.\Generated_Source\PSoC5/uart_ultrasonic.c ****         *
 358:.\Generated_Source\PSoC5/uart_ultrasonic.c ****         *******************************************************************************/
 359:.\Generated_Source\PSoC5/uart_ultrasonic.c ****         void uart_ultrasonic_DisableRxInt(void) 
 360:.\Generated_Source\PSoC5/uart_ultrasonic.c ****         {
 361:.\Generated_Source\PSoC5/uart_ultrasonic.c ****             CyIntDisable(uart_ultrasonic_RX_VECT_NUM);
 362:.\Generated_Source\PSoC5/uart_ultrasonic.c ****         }
 363:.\Generated_Source\PSoC5/uart_ultrasonic.c **** 
 364:.\Generated_Source\PSoC5/uart_ultrasonic.c ****     #endif /* uart_ultrasonic_RX_INTERRUPT_ENABLED */
 365:.\Generated_Source\PSoC5/uart_ultrasonic.c **** 
 366:.\Generated_Source\PSoC5/uart_ultrasonic.c **** 
 367:.\Generated_Source\PSoC5/uart_ultrasonic.c ****     /*******************************************************************************
 368:.\Generated_Source\PSoC5/uart_ultrasonic.c ****     * Function Name: uart_ultrasonic_SetRxInterruptMode
 369:.\Generated_Source\PSoC5/uart_ultrasonic.c ****     ********************************************************************************
 370:.\Generated_Source\PSoC5/uart_ultrasonic.c ****     *
 371:.\Generated_Source\PSoC5/uart_ultrasonic.c ****     * Summary:
 372:.\Generated_Source\PSoC5/uart_ultrasonic.c ****     *  Configure which status bits trigger an interrupt event
 373:.\Generated_Source\PSoC5/uart_ultrasonic.c ****     *
 374:.\Generated_Source\PSoC5/uart_ultrasonic.c ****     * Parameters:
 375:.\Generated_Source\PSoC5/uart_ultrasonic.c ****     *  IntSrc:  An or'd combination of the desired status bit masks (defined in
 376:.\Generated_Source\PSoC5/uart_ultrasonic.c ****     *           the header file)
 377:.\Generated_Source\PSoC5/uart_ultrasonic.c ****     *
 378:.\Generated_Source\PSoC5/uart_ultrasonic.c ****     * Return:
 379:.\Generated_Source\PSoC5/uart_ultrasonic.c ****     *  None.
 380:.\Generated_Source\PSoC5/uart_ultrasonic.c ****     *
 381:.\Generated_Source\PSoC5/uart_ultrasonic.c ****     * Theory:
 382:.\Generated_Source\PSoC5/uart_ultrasonic.c ****     *  Enables the output of specific status bits to the interrupt controller
 383:.\Generated_Source\PSoC5/uart_ultrasonic.c ****     *
 384:.\Generated_Source\PSoC5/uart_ultrasonic.c ****     *******************************************************************************/
 385:.\Generated_Source\PSoC5/uart_ultrasonic.c ****     void uart_ultrasonic_SetRxInterruptMode(uint8 intSrc) 
 386:.\Generated_Source\PSoC5/uart_ultrasonic.c ****     {
 291              		.loc 1 386 0
 292              		.cfi_startproc
 293              		@ args = 0, pretend = 0, frame = 8
 294              		@ frame_needed = 1, uses_anonymous_args = 0
 295              		@ link register save eliminated.
 296 0000 80B4     		push	{r7}
 297              		.cfi_def_cfa_offset 4
 298              		.cfi_offset 7, -4
ARM GAS  C:\Users\Matthew\AppData\Local\Temp\cc7D46n7.s 			page 13


 299 0002 83B0     		sub	sp, sp, #12
 300              		.cfi_def_cfa_offset 16
 301 0004 00AF     		add	r7, sp, #0
 302              		.cfi_def_cfa_register 7
 303 0006 0346     		mov	r3, r0
 304 0008 FB71     		strb	r3, [r7, #7]
 387:.\Generated_Source\PSoC5/uart_ultrasonic.c ****         uart_ultrasonic_RXSTATUS_MASK_REG  = intSrc;
 305              		.loc 1 387 0
 306 000a 044B     		ldr	r3, .L18
 307 000c FA79     		ldrb	r2, [r7, #7]
 308 000e 1A70     		strb	r2, [r3]
 388:.\Generated_Source\PSoC5/uart_ultrasonic.c ****     }
 309              		.loc 1 388 0
 310 0010 0C37     		adds	r7, r7, #12
 311 0012 BD46     		mov	sp, r7
 312              		@ sp needed
 313 0014 5DF8047B 		ldr	r7, [sp], #4
 314 0018 7047     		bx	lr
 315              	.L19:
 316 001a 00BF     		.align	2
 317              	.L18:
 318 001c 86650040 		.word	1073767814
 319              		.cfi_endproc
 320              	.LFE6:
 321              		.size	uart_ultrasonic_SetRxInterruptMode, .-uart_ultrasonic_SetRxInterruptMode
 322              		.section	.text.uart_ultrasonic_ReadRxData,"ax",%progbits
 323              		.align	2
 324              		.global	uart_ultrasonic_ReadRxData
 325              		.thumb
 326              		.thumb_func
 327              		.type	uart_ultrasonic_ReadRxData, %function
 328              	uart_ultrasonic_ReadRxData:
 329              	.LFB7:
 389:.\Generated_Source\PSoC5/uart_ultrasonic.c **** 
 390:.\Generated_Source\PSoC5/uart_ultrasonic.c **** 
 391:.\Generated_Source\PSoC5/uart_ultrasonic.c ****     /*******************************************************************************
 392:.\Generated_Source\PSoC5/uart_ultrasonic.c ****     * Function Name: uart_ultrasonic_ReadRxData
 393:.\Generated_Source\PSoC5/uart_ultrasonic.c ****     ********************************************************************************
 394:.\Generated_Source\PSoC5/uart_ultrasonic.c ****     *
 395:.\Generated_Source\PSoC5/uart_ultrasonic.c ****     * Summary:
 396:.\Generated_Source\PSoC5/uart_ultrasonic.c ****     *  Returns data in RX Data register without checking status register to
 397:.\Generated_Source\PSoC5/uart_ultrasonic.c ****     *  determine if data is valid
 398:.\Generated_Source\PSoC5/uart_ultrasonic.c ****     *
 399:.\Generated_Source\PSoC5/uart_ultrasonic.c ****     * Parameters:
 400:.\Generated_Source\PSoC5/uart_ultrasonic.c ****     *  None.
 401:.\Generated_Source\PSoC5/uart_ultrasonic.c ****     *
 402:.\Generated_Source\PSoC5/uart_ultrasonic.c ****     * Return:
 403:.\Generated_Source\PSoC5/uart_ultrasonic.c ****     *  Received data from RX register
 404:.\Generated_Source\PSoC5/uart_ultrasonic.c ****     *
 405:.\Generated_Source\PSoC5/uart_ultrasonic.c ****     * Global Variables:
 406:.\Generated_Source\PSoC5/uart_ultrasonic.c ****     *  uart_ultrasonic_rxBuffer - RAM buffer pointer for save received data.
 407:.\Generated_Source\PSoC5/uart_ultrasonic.c ****     *  uart_ultrasonic_rxBufferWrite - cyclic index for write to rxBuffer,
 408:.\Generated_Source\PSoC5/uart_ultrasonic.c ****     *     checked to identify new data.
 409:.\Generated_Source\PSoC5/uart_ultrasonic.c ****     *  uart_ultrasonic_rxBufferRead - cyclic index for read from rxBuffer,
 410:.\Generated_Source\PSoC5/uart_ultrasonic.c ****     *     incremented after each byte has been read from buffer.
 411:.\Generated_Source\PSoC5/uart_ultrasonic.c ****     *  uart_ultrasonic_rxBufferLoopDetect - creared if loop condition was detected
 412:.\Generated_Source\PSoC5/uart_ultrasonic.c ****     *     in RX ISR.
ARM GAS  C:\Users\Matthew\AppData\Local\Temp\cc7D46n7.s 			page 14


 413:.\Generated_Source\PSoC5/uart_ultrasonic.c ****     *
 414:.\Generated_Source\PSoC5/uart_ultrasonic.c ****     * Reentrant:
 415:.\Generated_Source\PSoC5/uart_ultrasonic.c ****     *  No.
 416:.\Generated_Source\PSoC5/uart_ultrasonic.c ****     *
 417:.\Generated_Source\PSoC5/uart_ultrasonic.c ****     *******************************************************************************/
 418:.\Generated_Source\PSoC5/uart_ultrasonic.c ****     uint8 uart_ultrasonic_ReadRxData(void) 
 419:.\Generated_Source\PSoC5/uart_ultrasonic.c ****     {
 330              		.loc 1 419 0
 331              		.cfi_startproc
 332              		@ args = 0, pretend = 0, frame = 8
 333              		@ frame_needed = 1, uses_anonymous_args = 0
 334              		@ link register save eliminated.
 335 0000 80B4     		push	{r7}
 336              		.cfi_def_cfa_offset 4
 337              		.cfi_offset 7, -4
 338 0002 83B0     		sub	sp, sp, #12
 339              		.cfi_def_cfa_offset 16
 340 0004 00AF     		add	r7, sp, #0
 341              		.cfi_def_cfa_register 7
 420:.\Generated_Source\PSoC5/uart_ultrasonic.c ****         uint8 rxData;
 421:.\Generated_Source\PSoC5/uart_ultrasonic.c **** 
 422:.\Generated_Source\PSoC5/uart_ultrasonic.c ****         #if(uart_ultrasonic_RXBUFFERSIZE > uart_ultrasonic_FIFO_LENGTH)
 423:.\Generated_Source\PSoC5/uart_ultrasonic.c ****             uint8 loc_rxBufferRead;
 424:.\Generated_Source\PSoC5/uart_ultrasonic.c ****             uint8 loc_rxBufferWrite;
 425:.\Generated_Source\PSoC5/uart_ultrasonic.c ****             /* Protect variables that could change on interrupt. */
 426:.\Generated_Source\PSoC5/uart_ultrasonic.c ****             /* Disable Rx interrupt. */
 427:.\Generated_Source\PSoC5/uart_ultrasonic.c ****             #if(uart_ultrasonic_RX_INTERRUPT_ENABLED)
 428:.\Generated_Source\PSoC5/uart_ultrasonic.c ****                 uart_ultrasonic_DisableRxInt();
 429:.\Generated_Source\PSoC5/uart_ultrasonic.c ****             #endif /* uart_ultrasonic_RX_INTERRUPT_ENABLED */
 430:.\Generated_Source\PSoC5/uart_ultrasonic.c ****             loc_rxBufferRead = uart_ultrasonic_rxBufferRead;
 431:.\Generated_Source\PSoC5/uart_ultrasonic.c ****             loc_rxBufferWrite = uart_ultrasonic_rxBufferWrite;
 432:.\Generated_Source\PSoC5/uart_ultrasonic.c **** 
 433:.\Generated_Source\PSoC5/uart_ultrasonic.c ****             if( (uart_ultrasonic_rxBufferLoopDetect != 0u) || (loc_rxBufferRead != loc_rxBufferWrit
 434:.\Generated_Source\PSoC5/uart_ultrasonic.c ****             {
 435:.\Generated_Source\PSoC5/uart_ultrasonic.c ****                 rxData = uart_ultrasonic_rxBuffer[loc_rxBufferRead];
 436:.\Generated_Source\PSoC5/uart_ultrasonic.c ****                 loc_rxBufferRead++;
 437:.\Generated_Source\PSoC5/uart_ultrasonic.c **** 
 438:.\Generated_Source\PSoC5/uart_ultrasonic.c ****                 if(loc_rxBufferRead >= uart_ultrasonic_RXBUFFERSIZE)
 439:.\Generated_Source\PSoC5/uart_ultrasonic.c ****                 {
 440:.\Generated_Source\PSoC5/uart_ultrasonic.c ****                     loc_rxBufferRead = 0u;
 441:.\Generated_Source\PSoC5/uart_ultrasonic.c ****                 }
 442:.\Generated_Source\PSoC5/uart_ultrasonic.c ****                 /* Update the real pointer */
 443:.\Generated_Source\PSoC5/uart_ultrasonic.c ****                 uart_ultrasonic_rxBufferRead = loc_rxBufferRead;
 444:.\Generated_Source\PSoC5/uart_ultrasonic.c **** 
 445:.\Generated_Source\PSoC5/uart_ultrasonic.c ****                 if(uart_ultrasonic_rxBufferLoopDetect != 0u )
 446:.\Generated_Source\PSoC5/uart_ultrasonic.c ****                 {
 447:.\Generated_Source\PSoC5/uart_ultrasonic.c ****                     uart_ultrasonic_rxBufferLoopDetect = 0u;
 448:.\Generated_Source\PSoC5/uart_ultrasonic.c ****                     #if( (uart_ultrasonic_RX_INTERRUPT_ENABLED) && (uart_ultrasonic_FLOW_CONTROL !=
 449:.\Generated_Source\PSoC5/uart_ultrasonic.c ****                          (uart_ultrasonic_RXBUFFERSIZE > uart_ultrasonic_FIFO_LENGTH) )
 450:.\Generated_Source\PSoC5/uart_ultrasonic.c ****                         /* When Hardware Flow Control selected - return RX mask */
 451:.\Generated_Source\PSoC5/uart_ultrasonic.c ****                         #if( uart_ultrasonic_HD_ENABLED )
 452:.\Generated_Source\PSoC5/uart_ultrasonic.c ****                             if((uart_ultrasonic_CONTROL_REG & uart_ultrasonic_CTRL_HD_SEND) == 0u)
 453:.\Generated_Source\PSoC5/uart_ultrasonic.c ****                             {   /* In Half duplex mode return RX mask only in RX
 454:.\Generated_Source\PSoC5/uart_ultrasonic.c ****                                 *  configuration set, otherwise
 455:.\Generated_Source\PSoC5/uart_ultrasonic.c ****                                 *  mask will be returned in LoadRxConfig() API.
 456:.\Generated_Source\PSoC5/uart_ultrasonic.c ****                                 */
 457:.\Generated_Source\PSoC5/uart_ultrasonic.c ****                                 uart_ultrasonic_RXSTATUS_MASK_REG  |= uart_ultrasonic_RX_STS_FIFO_N
ARM GAS  C:\Users\Matthew\AppData\Local\Temp\cc7D46n7.s 			page 15


 458:.\Generated_Source\PSoC5/uart_ultrasonic.c ****                             }
 459:.\Generated_Source\PSoC5/uart_ultrasonic.c ****                         #else
 460:.\Generated_Source\PSoC5/uart_ultrasonic.c ****                             uart_ultrasonic_RXSTATUS_MASK_REG  |= uart_ultrasonic_RX_STS_FIFO_NOTEM
 461:.\Generated_Source\PSoC5/uart_ultrasonic.c ****                         #endif /* end uart_ultrasonic_HD_ENABLED */
 462:.\Generated_Source\PSoC5/uart_ultrasonic.c ****                     #endif /* uart_ultrasonic_RX_INTERRUPT_ENABLED and Hardware flow control*/
 463:.\Generated_Source\PSoC5/uart_ultrasonic.c ****                 }
 464:.\Generated_Source\PSoC5/uart_ultrasonic.c ****             }
 465:.\Generated_Source\PSoC5/uart_ultrasonic.c ****             else
 466:.\Generated_Source\PSoC5/uart_ultrasonic.c ****             {   /* Needs to check status for RX_STS_FIFO_NOTEMPTY bit*/
 467:.\Generated_Source\PSoC5/uart_ultrasonic.c ****                 rxData = uart_ultrasonic_RXDATA_REG;
 468:.\Generated_Source\PSoC5/uart_ultrasonic.c ****             }
 469:.\Generated_Source\PSoC5/uart_ultrasonic.c **** 
 470:.\Generated_Source\PSoC5/uart_ultrasonic.c ****             /* Enable Rx interrupt. */
 471:.\Generated_Source\PSoC5/uart_ultrasonic.c ****             #if(uart_ultrasonic_RX_INTERRUPT_ENABLED)
 472:.\Generated_Source\PSoC5/uart_ultrasonic.c ****                 uart_ultrasonic_EnableRxInt();
 473:.\Generated_Source\PSoC5/uart_ultrasonic.c ****             #endif /* End uart_ultrasonic_RX_INTERRUPT_ENABLED */
 474:.\Generated_Source\PSoC5/uart_ultrasonic.c **** 
 475:.\Generated_Source\PSoC5/uart_ultrasonic.c ****         #else /* uart_ultrasonic_RXBUFFERSIZE > uart_ultrasonic_FIFO_LENGTH */
 476:.\Generated_Source\PSoC5/uart_ultrasonic.c **** 
 477:.\Generated_Source\PSoC5/uart_ultrasonic.c ****             /* Needs to check status for RX_STS_FIFO_NOTEMPTY bit*/
 478:.\Generated_Source\PSoC5/uart_ultrasonic.c ****             rxData = uart_ultrasonic_RXDATA_REG;
 342              		.loc 1 478 0
 343 0006 054B     		ldr	r3, .L22
 344 0008 1B78     		ldrb	r3, [r3]
 345 000a FB71     		strb	r3, [r7, #7]
 479:.\Generated_Source\PSoC5/uart_ultrasonic.c **** 
 480:.\Generated_Source\PSoC5/uart_ultrasonic.c ****         #endif /* uart_ultrasonic_RXBUFFERSIZE > uart_ultrasonic_FIFO_LENGTH */
 481:.\Generated_Source\PSoC5/uart_ultrasonic.c **** 
 482:.\Generated_Source\PSoC5/uart_ultrasonic.c ****         return(rxData);
 346              		.loc 1 482 0
 347 000c FB79     		ldrb	r3, [r7, #7]	@ zero_extendqisi2
 483:.\Generated_Source\PSoC5/uart_ultrasonic.c ****     }
 348              		.loc 1 483 0
 349 000e 1846     		mov	r0, r3
 350 0010 0C37     		adds	r7, r7, #12
 351 0012 BD46     		mov	sp, r7
 352              		@ sp needed
 353 0014 5DF8047B 		ldr	r7, [sp], #4
 354 0018 7047     		bx	lr
 355              	.L23:
 356 001a 00BF     		.align	2
 357              	.L22:
 358 001c 45640040 		.word	1073767493
 359              		.cfi_endproc
 360              	.LFE7:
 361              		.size	uart_ultrasonic_ReadRxData, .-uart_ultrasonic_ReadRxData
 362              		.section	.text.uart_ultrasonic_ReadRxStatus,"ax",%progbits
 363              		.align	2
 364              		.global	uart_ultrasonic_ReadRxStatus
 365              		.thumb
 366              		.thumb_func
 367              		.type	uart_ultrasonic_ReadRxStatus, %function
 368              	uart_ultrasonic_ReadRxStatus:
 369              	.LFB8:
 484:.\Generated_Source\PSoC5/uart_ultrasonic.c **** 
 485:.\Generated_Source\PSoC5/uart_ultrasonic.c **** 
 486:.\Generated_Source\PSoC5/uart_ultrasonic.c ****     /*******************************************************************************
ARM GAS  C:\Users\Matthew\AppData\Local\Temp\cc7D46n7.s 			page 16


 487:.\Generated_Source\PSoC5/uart_ultrasonic.c ****     * Function Name: uart_ultrasonic_ReadRxStatus
 488:.\Generated_Source\PSoC5/uart_ultrasonic.c ****     ********************************************************************************
 489:.\Generated_Source\PSoC5/uart_ultrasonic.c ****     *
 490:.\Generated_Source\PSoC5/uart_ultrasonic.c ****     * Summary:
 491:.\Generated_Source\PSoC5/uart_ultrasonic.c ****     *  Read the current state of the status register
 492:.\Generated_Source\PSoC5/uart_ultrasonic.c ****     *  And detect software buffer overflow.
 493:.\Generated_Source\PSoC5/uart_ultrasonic.c ****     *
 494:.\Generated_Source\PSoC5/uart_ultrasonic.c ****     * Parameters:
 495:.\Generated_Source\PSoC5/uart_ultrasonic.c ****     *  None.
 496:.\Generated_Source\PSoC5/uart_ultrasonic.c ****     *
 497:.\Generated_Source\PSoC5/uart_ultrasonic.c ****     * Return:
 498:.\Generated_Source\PSoC5/uart_ultrasonic.c ****     *  Current state of the status register.
 499:.\Generated_Source\PSoC5/uart_ultrasonic.c ****     *
 500:.\Generated_Source\PSoC5/uart_ultrasonic.c ****     * Global Variables:
 501:.\Generated_Source\PSoC5/uart_ultrasonic.c ****     *  uart_ultrasonic_rxBufferOverflow - used to indicate overload condition.
 502:.\Generated_Source\PSoC5/uart_ultrasonic.c ****     *   It set to one in RX interrupt when there isn?t free space in
 503:.\Generated_Source\PSoC5/uart_ultrasonic.c ****     *   uart_ultrasonic_rxBufferRead to write new data. This condition returned
 504:.\Generated_Source\PSoC5/uart_ultrasonic.c ****     *   and cleared to zero by this API as an
 505:.\Generated_Source\PSoC5/uart_ultrasonic.c ****     *   uart_ultrasonic_RX_STS_SOFT_BUFF_OVER bit along with RX Status register
 506:.\Generated_Source\PSoC5/uart_ultrasonic.c ****     *   bits.
 507:.\Generated_Source\PSoC5/uart_ultrasonic.c ****     *
 508:.\Generated_Source\PSoC5/uart_ultrasonic.c ****     *******************************************************************************/
 509:.\Generated_Source\PSoC5/uart_ultrasonic.c ****     uint8 uart_ultrasonic_ReadRxStatus(void) 
 510:.\Generated_Source\PSoC5/uart_ultrasonic.c ****     {
 370              		.loc 1 510 0
 371              		.cfi_startproc
 372              		@ args = 0, pretend = 0, frame = 8
 373              		@ frame_needed = 1, uses_anonymous_args = 0
 374              		@ link register save eliminated.
 375 0000 80B4     		push	{r7}
 376              		.cfi_def_cfa_offset 4
 377              		.cfi_offset 7, -4
 378 0002 83B0     		sub	sp, sp, #12
 379              		.cfi_def_cfa_offset 16
 380 0004 00AF     		add	r7, sp, #0
 381              		.cfi_def_cfa_register 7
 511:.\Generated_Source\PSoC5/uart_ultrasonic.c ****         uint8 status;
 512:.\Generated_Source\PSoC5/uart_ultrasonic.c **** 
 513:.\Generated_Source\PSoC5/uart_ultrasonic.c ****         status = uart_ultrasonic_RXSTATUS_REG & uart_ultrasonic_RX_HW_MASK;
 382              		.loc 1 513 0
 383 0006 064B     		ldr	r3, .L26
 384 0008 1B78     		ldrb	r3, [r3]
 385 000a DBB2     		uxtb	r3, r3
 386 000c 03F07F03 		and	r3, r3, #127
 387 0010 FB71     		strb	r3, [r7, #7]
 514:.\Generated_Source\PSoC5/uart_ultrasonic.c **** 
 515:.\Generated_Source\PSoC5/uart_ultrasonic.c ****         #if(uart_ultrasonic_RXBUFFERSIZE > uart_ultrasonic_FIFO_LENGTH)
 516:.\Generated_Source\PSoC5/uart_ultrasonic.c ****             if( uart_ultrasonic_rxBufferOverflow != 0u )
 517:.\Generated_Source\PSoC5/uart_ultrasonic.c ****             {
 518:.\Generated_Source\PSoC5/uart_ultrasonic.c ****                 status |= uart_ultrasonic_RX_STS_SOFT_BUFF_OVER;
 519:.\Generated_Source\PSoC5/uart_ultrasonic.c ****                 uart_ultrasonic_rxBufferOverflow = 0u;
 520:.\Generated_Source\PSoC5/uart_ultrasonic.c ****             }
 521:.\Generated_Source\PSoC5/uart_ultrasonic.c ****         #endif /* uart_ultrasonic_RXBUFFERSIZE */
 522:.\Generated_Source\PSoC5/uart_ultrasonic.c **** 
 523:.\Generated_Source\PSoC5/uart_ultrasonic.c ****         return(status);
 388              		.loc 1 523 0
 389 0012 FB79     		ldrb	r3, [r7, #7]	@ zero_extendqisi2
ARM GAS  C:\Users\Matthew\AppData\Local\Temp\cc7D46n7.s 			page 17


 524:.\Generated_Source\PSoC5/uart_ultrasonic.c ****     }
 390              		.loc 1 524 0
 391 0014 1846     		mov	r0, r3
 392 0016 0C37     		adds	r7, r7, #12
 393 0018 BD46     		mov	sp, r7
 394              		@ sp needed
 395 001a 5DF8047B 		ldr	r7, [sp], #4
 396 001e 7047     		bx	lr
 397              	.L27:
 398              		.align	2
 399              	.L26:
 400 0020 66650040 		.word	1073767782
 401              		.cfi_endproc
 402              	.LFE8:
 403              		.size	uart_ultrasonic_ReadRxStatus, .-uart_ultrasonic_ReadRxStatus
 404              		.section	.text.uart_ultrasonic_GetChar,"ax",%progbits
 405              		.align	2
 406              		.global	uart_ultrasonic_GetChar
 407              		.thumb
 408              		.thumb_func
 409              		.type	uart_ultrasonic_GetChar, %function
 410              	uart_ultrasonic_GetChar:
 411              	.LFB9:
 525:.\Generated_Source\PSoC5/uart_ultrasonic.c **** 
 526:.\Generated_Source\PSoC5/uart_ultrasonic.c **** 
 527:.\Generated_Source\PSoC5/uart_ultrasonic.c ****     /*******************************************************************************
 528:.\Generated_Source\PSoC5/uart_ultrasonic.c ****     * Function Name: uart_ultrasonic_GetChar
 529:.\Generated_Source\PSoC5/uart_ultrasonic.c ****     ********************************************************************************
 530:.\Generated_Source\PSoC5/uart_ultrasonic.c ****     *
 531:.\Generated_Source\PSoC5/uart_ultrasonic.c ****     * Summary:
 532:.\Generated_Source\PSoC5/uart_ultrasonic.c ****     *  Reads UART RX buffer immediately, if data is not available or an error
 533:.\Generated_Source\PSoC5/uart_ultrasonic.c ****     *  condition exists, zero is returned; otherwise, character is read and
 534:.\Generated_Source\PSoC5/uart_ultrasonic.c ****     *  returned.
 535:.\Generated_Source\PSoC5/uart_ultrasonic.c ****     *
 536:.\Generated_Source\PSoC5/uart_ultrasonic.c ****     * Parameters:
 537:.\Generated_Source\PSoC5/uart_ultrasonic.c ****     *  None.
 538:.\Generated_Source\PSoC5/uart_ultrasonic.c ****     *
 539:.\Generated_Source\PSoC5/uart_ultrasonic.c ****     * Return:
 540:.\Generated_Source\PSoC5/uart_ultrasonic.c ****     *  Character read from UART RX buffer. ASCII characters from 1 to 255 are valid.
 541:.\Generated_Source\PSoC5/uart_ultrasonic.c ****     *  A returned zero signifies an error condition or no data available.
 542:.\Generated_Source\PSoC5/uart_ultrasonic.c ****     *
 543:.\Generated_Source\PSoC5/uart_ultrasonic.c ****     * Global Variables:
 544:.\Generated_Source\PSoC5/uart_ultrasonic.c ****     *  uart_ultrasonic_rxBuffer - RAM buffer pointer for save received data.
 545:.\Generated_Source\PSoC5/uart_ultrasonic.c ****     *  uart_ultrasonic_rxBufferWrite - cyclic index for write to rxBuffer,
 546:.\Generated_Source\PSoC5/uart_ultrasonic.c ****     *     checked to identify new data.
 547:.\Generated_Source\PSoC5/uart_ultrasonic.c ****     *  uart_ultrasonic_rxBufferRead - cyclic index for read from rxBuffer,
 548:.\Generated_Source\PSoC5/uart_ultrasonic.c ****     *     incremented after each byte has been read from buffer.
 549:.\Generated_Source\PSoC5/uart_ultrasonic.c ****     *  uart_ultrasonic_rxBufferLoopDetect - creared if loop condition was detected
 550:.\Generated_Source\PSoC5/uart_ultrasonic.c ****     *     in RX ISR.
 551:.\Generated_Source\PSoC5/uart_ultrasonic.c ****     *
 552:.\Generated_Source\PSoC5/uart_ultrasonic.c ****     * Reentrant:
 553:.\Generated_Source\PSoC5/uart_ultrasonic.c ****     *  No.
 554:.\Generated_Source\PSoC5/uart_ultrasonic.c ****     *
 555:.\Generated_Source\PSoC5/uart_ultrasonic.c ****     *******************************************************************************/
 556:.\Generated_Source\PSoC5/uart_ultrasonic.c ****     uint8 uart_ultrasonic_GetChar(void) 
 557:.\Generated_Source\PSoC5/uart_ultrasonic.c ****     {
 412              		.loc 1 557 0
ARM GAS  C:\Users\Matthew\AppData\Local\Temp\cc7D46n7.s 			page 18


 413              		.cfi_startproc
 414              		@ args = 0, pretend = 0, frame = 8
 415              		@ frame_needed = 1, uses_anonymous_args = 0
 416              		@ link register save eliminated.
 417 0000 80B4     		push	{r7}
 418              		.cfi_def_cfa_offset 4
 419              		.cfi_offset 7, -4
 420 0002 83B0     		sub	sp, sp, #12
 421              		.cfi_def_cfa_offset 16
 422 0004 00AF     		add	r7, sp, #0
 423              		.cfi_def_cfa_register 7
 558:.\Generated_Source\PSoC5/uart_ultrasonic.c ****         uint8 rxData = 0u;
 424              		.loc 1 558 0
 425 0006 0023     		movs	r3, #0
 426 0008 FB71     		strb	r3, [r7, #7]
 559:.\Generated_Source\PSoC5/uart_ultrasonic.c ****         uint8 rxStatus;
 560:.\Generated_Source\PSoC5/uart_ultrasonic.c **** 
 561:.\Generated_Source\PSoC5/uart_ultrasonic.c ****         #if(uart_ultrasonic_RXBUFFERSIZE > uart_ultrasonic_FIFO_LENGTH)
 562:.\Generated_Source\PSoC5/uart_ultrasonic.c ****             uint8 loc_rxBufferRead;
 563:.\Generated_Source\PSoC5/uart_ultrasonic.c ****             uint8 loc_rxBufferWrite;
 564:.\Generated_Source\PSoC5/uart_ultrasonic.c ****             /* Protect variables that could change on interrupt. */
 565:.\Generated_Source\PSoC5/uart_ultrasonic.c ****             /* Disable Rx interrupt. */
 566:.\Generated_Source\PSoC5/uart_ultrasonic.c ****             #if(uart_ultrasonic_RX_INTERRUPT_ENABLED)
 567:.\Generated_Source\PSoC5/uart_ultrasonic.c ****                 uart_ultrasonic_DisableRxInt();
 568:.\Generated_Source\PSoC5/uart_ultrasonic.c ****             #endif /* uart_ultrasonic_RX_INTERRUPT_ENABLED */
 569:.\Generated_Source\PSoC5/uart_ultrasonic.c ****             loc_rxBufferRead = uart_ultrasonic_rxBufferRead;
 570:.\Generated_Source\PSoC5/uart_ultrasonic.c ****             loc_rxBufferWrite = uart_ultrasonic_rxBufferWrite;
 571:.\Generated_Source\PSoC5/uart_ultrasonic.c **** 
 572:.\Generated_Source\PSoC5/uart_ultrasonic.c ****             if( (uart_ultrasonic_rxBufferLoopDetect != 0u) || (loc_rxBufferRead != loc_rxBufferWrit
 573:.\Generated_Source\PSoC5/uart_ultrasonic.c ****             {
 574:.\Generated_Source\PSoC5/uart_ultrasonic.c ****                 rxData = uart_ultrasonic_rxBuffer[loc_rxBufferRead];
 575:.\Generated_Source\PSoC5/uart_ultrasonic.c ****                 loc_rxBufferRead++;
 576:.\Generated_Source\PSoC5/uart_ultrasonic.c ****                 if(loc_rxBufferRead >= uart_ultrasonic_RXBUFFERSIZE)
 577:.\Generated_Source\PSoC5/uart_ultrasonic.c ****                 {
 578:.\Generated_Source\PSoC5/uart_ultrasonic.c ****                     loc_rxBufferRead = 0u;
 579:.\Generated_Source\PSoC5/uart_ultrasonic.c ****                 }
 580:.\Generated_Source\PSoC5/uart_ultrasonic.c ****                 /* Update the real pointer */
 581:.\Generated_Source\PSoC5/uart_ultrasonic.c ****                 uart_ultrasonic_rxBufferRead = loc_rxBufferRead;
 582:.\Generated_Source\PSoC5/uart_ultrasonic.c **** 
 583:.\Generated_Source\PSoC5/uart_ultrasonic.c ****                 if(uart_ultrasonic_rxBufferLoopDetect > 0u )
 584:.\Generated_Source\PSoC5/uart_ultrasonic.c ****                 {
 585:.\Generated_Source\PSoC5/uart_ultrasonic.c ****                     uart_ultrasonic_rxBufferLoopDetect = 0u;
 586:.\Generated_Source\PSoC5/uart_ultrasonic.c ****                     #if( (uart_ultrasonic_RX_INTERRUPT_ENABLED) && (uart_ultrasonic_FLOW_CONTROL !=
 587:.\Generated_Source\PSoC5/uart_ultrasonic.c ****                         /* When Hardware Flow Control selected - return RX mask */
 588:.\Generated_Source\PSoC5/uart_ultrasonic.c ****                         #if( uart_ultrasonic_HD_ENABLED )
 589:.\Generated_Source\PSoC5/uart_ultrasonic.c ****                             if((uart_ultrasonic_CONTROL_REG & uart_ultrasonic_CTRL_HD_SEND) == 0u)
 590:.\Generated_Source\PSoC5/uart_ultrasonic.c ****                             {   /* In Half duplex mode return RX mask only if
 591:.\Generated_Source\PSoC5/uart_ultrasonic.c ****                                 *  RX configuration set, otherwise
 592:.\Generated_Source\PSoC5/uart_ultrasonic.c ****                                 *  mask will be returned in LoadRxConfig() API.
 593:.\Generated_Source\PSoC5/uart_ultrasonic.c ****                                 */
 594:.\Generated_Source\PSoC5/uart_ultrasonic.c ****                                 uart_ultrasonic_RXSTATUS_MASK_REG  |= uart_ultrasonic_RX_STS_FIFO_N
 595:.\Generated_Source\PSoC5/uart_ultrasonic.c ****                             }
 596:.\Generated_Source\PSoC5/uart_ultrasonic.c ****                         #else
 597:.\Generated_Source\PSoC5/uart_ultrasonic.c ****                             uart_ultrasonic_RXSTATUS_MASK_REG  |= uart_ultrasonic_RX_STS_FIFO_NOTEM
 598:.\Generated_Source\PSoC5/uart_ultrasonic.c ****                         #endif /* end uart_ultrasonic_HD_ENABLED */
 599:.\Generated_Source\PSoC5/uart_ultrasonic.c ****                     #endif /* uart_ultrasonic_RX_INTERRUPT_ENABLED and Hardware flow control*/
 600:.\Generated_Source\PSoC5/uart_ultrasonic.c ****                 }
ARM GAS  C:\Users\Matthew\AppData\Local\Temp\cc7D46n7.s 			page 19


 601:.\Generated_Source\PSoC5/uart_ultrasonic.c **** 
 602:.\Generated_Source\PSoC5/uart_ultrasonic.c ****             }
 603:.\Generated_Source\PSoC5/uart_ultrasonic.c ****             else
 604:.\Generated_Source\PSoC5/uart_ultrasonic.c ****             {   rxStatus = uart_ultrasonic_RXSTATUS_REG;
 605:.\Generated_Source\PSoC5/uart_ultrasonic.c ****                 if((rxStatus & uart_ultrasonic_RX_STS_FIFO_NOTEMPTY) != 0u)
 606:.\Generated_Source\PSoC5/uart_ultrasonic.c ****                 {   /* Read received data from FIFO*/
 607:.\Generated_Source\PSoC5/uart_ultrasonic.c ****                     rxData = uart_ultrasonic_RXDATA_REG;
 608:.\Generated_Source\PSoC5/uart_ultrasonic.c ****                     /*Check status on error*/
 609:.\Generated_Source\PSoC5/uart_ultrasonic.c ****                     if((rxStatus & (uart_ultrasonic_RX_STS_BREAK | uart_ultrasonic_RX_STS_PAR_ERROR
 610:.\Generated_Source\PSoC5/uart_ultrasonic.c ****                                    uart_ultrasonic_RX_STS_STOP_ERROR | uart_ultrasonic_RX_STS_OVERR
 611:.\Generated_Source\PSoC5/uart_ultrasonic.c ****                     {
 612:.\Generated_Source\PSoC5/uart_ultrasonic.c ****                         rxData = 0u;
 613:.\Generated_Source\PSoC5/uart_ultrasonic.c ****                     }
 614:.\Generated_Source\PSoC5/uart_ultrasonic.c ****                 }
 615:.\Generated_Source\PSoC5/uart_ultrasonic.c ****             }
 616:.\Generated_Source\PSoC5/uart_ultrasonic.c **** 
 617:.\Generated_Source\PSoC5/uart_ultrasonic.c ****             /* Enable Rx interrupt. */
 618:.\Generated_Source\PSoC5/uart_ultrasonic.c ****             #if(uart_ultrasonic_RX_INTERRUPT_ENABLED)
 619:.\Generated_Source\PSoC5/uart_ultrasonic.c ****                 uart_ultrasonic_EnableRxInt();
 620:.\Generated_Source\PSoC5/uart_ultrasonic.c ****             #endif /* uart_ultrasonic_RX_INTERRUPT_ENABLED */
 621:.\Generated_Source\PSoC5/uart_ultrasonic.c **** 
 622:.\Generated_Source\PSoC5/uart_ultrasonic.c ****         #else /* uart_ultrasonic_RXBUFFERSIZE > uart_ultrasonic_FIFO_LENGTH */
 623:.\Generated_Source\PSoC5/uart_ultrasonic.c **** 
 624:.\Generated_Source\PSoC5/uart_ultrasonic.c ****             rxStatus =uart_ultrasonic_RXSTATUS_REG;
 427              		.loc 1 624 0
 428 000a 0C4B     		ldr	r3, .L31
 429 000c 1B78     		ldrb	r3, [r3]
 430 000e BB71     		strb	r3, [r7, #6]
 625:.\Generated_Source\PSoC5/uart_ultrasonic.c ****             if((rxStatus & uart_ultrasonic_RX_STS_FIFO_NOTEMPTY) != 0u)
 431              		.loc 1 625 0
 432 0010 BB79     		ldrb	r3, [r7, #6]	@ zero_extendqisi2
 433 0012 03F02003 		and	r3, r3, #32
 434 0016 002B     		cmp	r3, #0
 435 0018 09D0     		beq	.L29
 626:.\Generated_Source\PSoC5/uart_ultrasonic.c ****             {   /* Read received data from FIFO*/
 627:.\Generated_Source\PSoC5/uart_ultrasonic.c ****                 rxData = uart_ultrasonic_RXDATA_REG;
 436              		.loc 1 627 0
 437 001a 094B     		ldr	r3, .L31+4
 438 001c 1B78     		ldrb	r3, [r3]
 439 001e FB71     		strb	r3, [r7, #7]
 628:.\Generated_Source\PSoC5/uart_ultrasonic.c ****                 /*Check status on error*/
 629:.\Generated_Source\PSoC5/uart_ultrasonic.c ****                 if((rxStatus & (uart_ultrasonic_RX_STS_BREAK | uart_ultrasonic_RX_STS_PAR_ERROR |
 630:.\Generated_Source\PSoC5/uart_ultrasonic.c ****                                uart_ultrasonic_RX_STS_STOP_ERROR | uart_ultrasonic_RX_STS_OVERRUN))
 440              		.loc 1 630 0
 441 0020 BB79     		ldrb	r3, [r7, #6]	@ zero_extendqisi2
 442 0022 03F01E03 		and	r3, r3, #30
 629:.\Generated_Source\PSoC5/uart_ultrasonic.c ****                 if((rxStatus & (uart_ultrasonic_RX_STS_BREAK | uart_ultrasonic_RX_STS_PAR_ERROR |
 443              		.loc 1 629 0
 444 0026 002B     		cmp	r3, #0
 445 0028 01D0     		beq	.L29
 631:.\Generated_Source\PSoC5/uart_ultrasonic.c ****                 {
 632:.\Generated_Source\PSoC5/uart_ultrasonic.c ****                     rxData = 0u;
 446              		.loc 1 632 0
 447 002a 0023     		movs	r3, #0
 448 002c FB71     		strb	r3, [r7, #7]
 449              	.L29:
 633:.\Generated_Source\PSoC5/uart_ultrasonic.c ****                 }
ARM GAS  C:\Users\Matthew\AppData\Local\Temp\cc7D46n7.s 			page 20


 634:.\Generated_Source\PSoC5/uart_ultrasonic.c ****             }
 635:.\Generated_Source\PSoC5/uart_ultrasonic.c ****         #endif /* uart_ultrasonic_RXBUFFERSIZE > uart_ultrasonic_FIFO_LENGTH */
 636:.\Generated_Source\PSoC5/uart_ultrasonic.c **** 
 637:.\Generated_Source\PSoC5/uart_ultrasonic.c ****         return(rxData);
 450              		.loc 1 637 0
 451 002e FB79     		ldrb	r3, [r7, #7]	@ zero_extendqisi2
 638:.\Generated_Source\PSoC5/uart_ultrasonic.c ****     }
 452              		.loc 1 638 0
 453 0030 1846     		mov	r0, r3
 454 0032 0C37     		adds	r7, r7, #12
 455 0034 BD46     		mov	sp, r7
 456              		@ sp needed
 457 0036 5DF8047B 		ldr	r7, [sp], #4
 458 003a 7047     		bx	lr
 459              	.L32:
 460              		.align	2
 461              	.L31:
 462 003c 66650040 		.word	1073767782
 463 0040 45640040 		.word	1073767493
 464              		.cfi_endproc
 465              	.LFE9:
 466              		.size	uart_ultrasonic_GetChar, .-uart_ultrasonic_GetChar
 467              		.section	.text.uart_ultrasonic_GetByte,"ax",%progbits
 468              		.align	2
 469              		.global	uart_ultrasonic_GetByte
 470              		.thumb
 471              		.thumb_func
 472              		.type	uart_ultrasonic_GetByte, %function
 473              	uart_ultrasonic_GetByte:
 474              	.LFB10:
 639:.\Generated_Source\PSoC5/uart_ultrasonic.c **** 
 640:.\Generated_Source\PSoC5/uart_ultrasonic.c **** 
 641:.\Generated_Source\PSoC5/uart_ultrasonic.c ****     /*******************************************************************************
 642:.\Generated_Source\PSoC5/uart_ultrasonic.c ****     * Function Name: uart_ultrasonic_GetByte
 643:.\Generated_Source\PSoC5/uart_ultrasonic.c ****     ********************************************************************************
 644:.\Generated_Source\PSoC5/uart_ultrasonic.c ****     *
 645:.\Generated_Source\PSoC5/uart_ultrasonic.c ****     * Summary:
 646:.\Generated_Source\PSoC5/uart_ultrasonic.c ****     *  Grab the next available byte of data from the recieve FIFO
 647:.\Generated_Source\PSoC5/uart_ultrasonic.c ****     *
 648:.\Generated_Source\PSoC5/uart_ultrasonic.c ****     * Parameters:
 649:.\Generated_Source\PSoC5/uart_ultrasonic.c ****     *  None.
 650:.\Generated_Source\PSoC5/uart_ultrasonic.c ****     *
 651:.\Generated_Source\PSoC5/uart_ultrasonic.c ****     * Return:
 652:.\Generated_Source\PSoC5/uart_ultrasonic.c ****     *  MSB contains Status Register and LSB contains UART RX data
 653:.\Generated_Source\PSoC5/uart_ultrasonic.c ****     *
 654:.\Generated_Source\PSoC5/uart_ultrasonic.c ****     * Reentrant:
 655:.\Generated_Source\PSoC5/uart_ultrasonic.c ****     *  No.
 656:.\Generated_Source\PSoC5/uart_ultrasonic.c ****     *
 657:.\Generated_Source\PSoC5/uart_ultrasonic.c ****     *******************************************************************************/
 658:.\Generated_Source\PSoC5/uart_ultrasonic.c ****     uint16 uart_ultrasonic_GetByte(void) 
 659:.\Generated_Source\PSoC5/uart_ultrasonic.c ****     {
 475              		.loc 1 659 0
 476              		.cfi_startproc
 477              		@ args = 0, pretend = 0, frame = 0
 478              		@ frame_needed = 1, uses_anonymous_args = 0
 479 0000 98B5     		push	{r3, r4, r7, lr}
 480              		.cfi_def_cfa_offset 16
ARM GAS  C:\Users\Matthew\AppData\Local\Temp\cc7D46n7.s 			page 21


 481              		.cfi_offset 3, -16
 482              		.cfi_offset 4, -12
 483              		.cfi_offset 7, -8
 484              		.cfi_offset 14, -4
 485 0002 00AF     		add	r7, sp, #0
 486              		.cfi_def_cfa_register 7
 660:.\Generated_Source\PSoC5/uart_ultrasonic.c ****         return ( ((uint16)uart_ultrasonic_ReadRxStatus() << 8u) | uart_ultrasonic_ReadRxData() );
 487              		.loc 1 660 0
 488 0004 FFF7FEFF 		bl	uart_ultrasonic_ReadRxStatus
 489 0008 0346     		mov	r3, r0
 490 000a 1B02     		lsls	r3, r3, #8
 491 000c 9CB2     		uxth	r4, r3
 492 000e FFF7FEFF 		bl	uart_ultrasonic_ReadRxData
 493 0012 0346     		mov	r3, r0
 494 0014 2246     		mov	r2, r4	@ movhi
 495 0016 1343     		orrs	r3, r3, r2
 496 0018 9BB2     		uxth	r3, r3
 497 001a 9BB2     		uxth	r3, r3
 661:.\Generated_Source\PSoC5/uart_ultrasonic.c ****     }
 498              		.loc 1 661 0
 499 001c 1846     		mov	r0, r3
 500 001e 98BD     		pop	{r3, r4, r7, pc}
 501              		.cfi_endproc
 502              	.LFE10:
 503              		.size	uart_ultrasonic_GetByte, .-uart_ultrasonic_GetByte
 504              		.section	.text.uart_ultrasonic_GetRxBufferSize,"ax",%progbits
 505              		.align	2
 506              		.global	uart_ultrasonic_GetRxBufferSize
 507              		.thumb
 508              		.thumb_func
 509              		.type	uart_ultrasonic_GetRxBufferSize, %function
 510              	uart_ultrasonic_GetRxBufferSize:
 511              	.LFB11:
 662:.\Generated_Source\PSoC5/uart_ultrasonic.c **** 
 663:.\Generated_Source\PSoC5/uart_ultrasonic.c **** 
 664:.\Generated_Source\PSoC5/uart_ultrasonic.c ****     /*******************************************************************************
 665:.\Generated_Source\PSoC5/uart_ultrasonic.c ****     * Function Name: uart_ultrasonic_GetRxBufferSize
 666:.\Generated_Source\PSoC5/uart_ultrasonic.c ****     ********************************************************************************
 667:.\Generated_Source\PSoC5/uart_ultrasonic.c ****     *
 668:.\Generated_Source\PSoC5/uart_ultrasonic.c ****     * Summary:
 669:.\Generated_Source\PSoC5/uart_ultrasonic.c ****     *  Determine the amount of bytes left in the RX buffer and return the count in
 670:.\Generated_Source\PSoC5/uart_ultrasonic.c ****     *  bytes
 671:.\Generated_Source\PSoC5/uart_ultrasonic.c ****     *
 672:.\Generated_Source\PSoC5/uart_ultrasonic.c ****     * Parameters:
 673:.\Generated_Source\PSoC5/uart_ultrasonic.c ****     *  None.
 674:.\Generated_Source\PSoC5/uart_ultrasonic.c ****     *
 675:.\Generated_Source\PSoC5/uart_ultrasonic.c ****     * Return:
 676:.\Generated_Source\PSoC5/uart_ultrasonic.c ****     *  uint8: Integer count of the number of bytes left
 677:.\Generated_Source\PSoC5/uart_ultrasonic.c ****     *  in the RX buffer
 678:.\Generated_Source\PSoC5/uart_ultrasonic.c ****     *
 679:.\Generated_Source\PSoC5/uart_ultrasonic.c ****     * Global Variables:
 680:.\Generated_Source\PSoC5/uart_ultrasonic.c ****     *  uart_ultrasonic_rxBufferWrite - used to calculate left bytes.
 681:.\Generated_Source\PSoC5/uart_ultrasonic.c ****     *  uart_ultrasonic_rxBufferRead - used to calculate left bytes.
 682:.\Generated_Source\PSoC5/uart_ultrasonic.c ****     *  uart_ultrasonic_rxBufferLoopDetect - checked to decide left bytes amount.
 683:.\Generated_Source\PSoC5/uart_ultrasonic.c ****     *
 684:.\Generated_Source\PSoC5/uart_ultrasonic.c ****     * Reentrant:
 685:.\Generated_Source\PSoC5/uart_ultrasonic.c ****     *  No.
ARM GAS  C:\Users\Matthew\AppData\Local\Temp\cc7D46n7.s 			page 22


 686:.\Generated_Source\PSoC5/uart_ultrasonic.c ****     *
 687:.\Generated_Source\PSoC5/uart_ultrasonic.c ****     * Theory:
 688:.\Generated_Source\PSoC5/uart_ultrasonic.c ****     *  Allows the user to find out how full the RX Buffer is.
 689:.\Generated_Source\PSoC5/uart_ultrasonic.c ****     *
 690:.\Generated_Source\PSoC5/uart_ultrasonic.c ****     *******************************************************************************/
 691:.\Generated_Source\PSoC5/uart_ultrasonic.c ****     uint8 uart_ultrasonic_GetRxBufferSize(void)
 692:.\Generated_Source\PSoC5/uart_ultrasonic.c ****                                                             
 693:.\Generated_Source\PSoC5/uart_ultrasonic.c ****     {
 512              		.loc 1 693 0
 513              		.cfi_startproc
 514              		@ args = 0, pretend = 0, frame = 8
 515              		@ frame_needed = 1, uses_anonymous_args = 0
 516              		@ link register save eliminated.
 517 0000 80B4     		push	{r7}
 518              		.cfi_def_cfa_offset 4
 519              		.cfi_offset 7, -4
 520 0002 83B0     		sub	sp, sp, #12
 521              		.cfi_def_cfa_offset 16
 522 0004 00AF     		add	r7, sp, #0
 523              		.cfi_def_cfa_register 7
 694:.\Generated_Source\PSoC5/uart_ultrasonic.c ****         uint8 size;
 695:.\Generated_Source\PSoC5/uart_ultrasonic.c **** 
 696:.\Generated_Source\PSoC5/uart_ultrasonic.c ****         #if(uart_ultrasonic_RXBUFFERSIZE > uart_ultrasonic_FIFO_LENGTH)
 697:.\Generated_Source\PSoC5/uart_ultrasonic.c **** 
 698:.\Generated_Source\PSoC5/uart_ultrasonic.c ****             /* Disable Rx interrupt. */
 699:.\Generated_Source\PSoC5/uart_ultrasonic.c ****             /* Protect variables that could change on interrupt. */
 700:.\Generated_Source\PSoC5/uart_ultrasonic.c ****             #if(uart_ultrasonic_RX_INTERRUPT_ENABLED)
 701:.\Generated_Source\PSoC5/uart_ultrasonic.c ****                 uart_ultrasonic_DisableRxInt();
 702:.\Generated_Source\PSoC5/uart_ultrasonic.c ****             #endif /* uart_ultrasonic_RX_INTERRUPT_ENABLED */
 703:.\Generated_Source\PSoC5/uart_ultrasonic.c **** 
 704:.\Generated_Source\PSoC5/uart_ultrasonic.c ****             if(uart_ultrasonic_rxBufferRead == uart_ultrasonic_rxBufferWrite)
 705:.\Generated_Source\PSoC5/uart_ultrasonic.c ****             {
 706:.\Generated_Source\PSoC5/uart_ultrasonic.c ****                 if(uart_ultrasonic_rxBufferLoopDetect > 0u)
 707:.\Generated_Source\PSoC5/uart_ultrasonic.c ****                 {
 708:.\Generated_Source\PSoC5/uart_ultrasonic.c ****                     size = uart_ultrasonic_RXBUFFERSIZE;
 709:.\Generated_Source\PSoC5/uart_ultrasonic.c ****                 }
 710:.\Generated_Source\PSoC5/uart_ultrasonic.c ****                 else
 711:.\Generated_Source\PSoC5/uart_ultrasonic.c ****                 {
 712:.\Generated_Source\PSoC5/uart_ultrasonic.c ****                     size = 0u;
 713:.\Generated_Source\PSoC5/uart_ultrasonic.c ****                 }
 714:.\Generated_Source\PSoC5/uart_ultrasonic.c ****             }
 715:.\Generated_Source\PSoC5/uart_ultrasonic.c ****             else if(uart_ultrasonic_rxBufferRead < uart_ultrasonic_rxBufferWrite)
 716:.\Generated_Source\PSoC5/uart_ultrasonic.c ****             {
 717:.\Generated_Source\PSoC5/uart_ultrasonic.c ****                 size = (uart_ultrasonic_rxBufferWrite - uart_ultrasonic_rxBufferRead);
 718:.\Generated_Source\PSoC5/uart_ultrasonic.c ****             }
 719:.\Generated_Source\PSoC5/uart_ultrasonic.c ****             else
 720:.\Generated_Source\PSoC5/uart_ultrasonic.c ****             {
 721:.\Generated_Source\PSoC5/uart_ultrasonic.c ****                 size = (uart_ultrasonic_RXBUFFERSIZE - uart_ultrasonic_rxBufferRead) + uart_ultraso
 722:.\Generated_Source\PSoC5/uart_ultrasonic.c ****             }
 723:.\Generated_Source\PSoC5/uart_ultrasonic.c **** 
 724:.\Generated_Source\PSoC5/uart_ultrasonic.c ****             /* Enable Rx interrupt. */
 725:.\Generated_Source\PSoC5/uart_ultrasonic.c ****             #if(uart_ultrasonic_RX_INTERRUPT_ENABLED)
 726:.\Generated_Source\PSoC5/uart_ultrasonic.c ****                 uart_ultrasonic_EnableRxInt();
 727:.\Generated_Source\PSoC5/uart_ultrasonic.c ****             #endif /* End uart_ultrasonic_RX_INTERRUPT_ENABLED */
 728:.\Generated_Source\PSoC5/uart_ultrasonic.c **** 
 729:.\Generated_Source\PSoC5/uart_ultrasonic.c ****         #else /* uart_ultrasonic_RXBUFFERSIZE > uart_ultrasonic_FIFO_LENGTH */
 730:.\Generated_Source\PSoC5/uart_ultrasonic.c **** 
ARM GAS  C:\Users\Matthew\AppData\Local\Temp\cc7D46n7.s 			page 23


 731:.\Generated_Source\PSoC5/uart_ultrasonic.c ****             /* We can only know if there is data in the fifo. */
 732:.\Generated_Source\PSoC5/uart_ultrasonic.c ****             size = ((uart_ultrasonic_RXSTATUS_REG & uart_ultrasonic_RX_STS_FIFO_NOTEMPTY) != 0u) ? 
 524              		.loc 1 732 0
 525 0006 094B     		ldr	r3, .L39
 526 0008 1B78     		ldrb	r3, [r3]
 527 000a DBB2     		uxtb	r3, r3
 528 000c 03F02003 		and	r3, r3, #32
 529 0010 002B     		cmp	r3, #0
 530 0012 01D0     		beq	.L36
 531              		.loc 1 732 0 is_stmt 0 discriminator 1
 532 0014 0123     		movs	r3, #1
 533 0016 00E0     		b	.L37
 534              	.L36:
 535              		.loc 1 732 0 discriminator 2
 536 0018 0023     		movs	r3, #0
 537              	.L37:
 538              		.loc 1 732 0 discriminator 3
 539 001a FB71     		strb	r3, [r7, #7]
 733:.\Generated_Source\PSoC5/uart_ultrasonic.c **** 
 734:.\Generated_Source\PSoC5/uart_ultrasonic.c ****         #endif /* End uart_ultrasonic_RXBUFFERSIZE > uart_ultrasonic_FIFO_LENGTH */
 735:.\Generated_Source\PSoC5/uart_ultrasonic.c **** 
 736:.\Generated_Source\PSoC5/uart_ultrasonic.c ****         return(size);
 540              		.loc 1 736 0 is_stmt 1 discriminator 3
 541 001c FB79     		ldrb	r3, [r7, #7]	@ zero_extendqisi2
 737:.\Generated_Source\PSoC5/uart_ultrasonic.c ****     }
 542              		.loc 1 737 0 discriminator 3
 543 001e 1846     		mov	r0, r3
 544 0020 0C37     		adds	r7, r7, #12
 545 0022 BD46     		mov	sp, r7
 546              		@ sp needed
 547 0024 5DF8047B 		ldr	r7, [sp], #4
 548 0028 7047     		bx	lr
 549              	.L40:
 550 002a 00BF     		.align	2
 551              	.L39:
 552 002c 66650040 		.word	1073767782
 553              		.cfi_endproc
 554              	.LFE11:
 555              		.size	uart_ultrasonic_GetRxBufferSize, .-uart_ultrasonic_GetRxBufferSize
 556              		.section	.text.uart_ultrasonic_ClearRxBuffer,"ax",%progbits
 557              		.align	2
 558              		.global	uart_ultrasonic_ClearRxBuffer
 559              		.thumb
 560              		.thumb_func
 561              		.type	uart_ultrasonic_ClearRxBuffer, %function
 562              	uart_ultrasonic_ClearRxBuffer:
 563              	.LFB12:
 738:.\Generated_Source\PSoC5/uart_ultrasonic.c **** 
 739:.\Generated_Source\PSoC5/uart_ultrasonic.c **** 
 740:.\Generated_Source\PSoC5/uart_ultrasonic.c ****     /*******************************************************************************
 741:.\Generated_Source\PSoC5/uart_ultrasonic.c ****     * Function Name: uart_ultrasonic_ClearRxBuffer
 742:.\Generated_Source\PSoC5/uart_ultrasonic.c ****     ********************************************************************************
 743:.\Generated_Source\PSoC5/uart_ultrasonic.c ****     *
 744:.\Generated_Source\PSoC5/uart_ultrasonic.c ****     * Summary:
 745:.\Generated_Source\PSoC5/uart_ultrasonic.c ****     *  Clears the RX RAM buffer by setting the read and write pointers both to zero.
 746:.\Generated_Source\PSoC5/uart_ultrasonic.c ****     *  Clears hardware RX FIFO.
 747:.\Generated_Source\PSoC5/uart_ultrasonic.c ****     *
ARM GAS  C:\Users\Matthew\AppData\Local\Temp\cc7D46n7.s 			page 24


 748:.\Generated_Source\PSoC5/uart_ultrasonic.c ****     * Parameters:
 749:.\Generated_Source\PSoC5/uart_ultrasonic.c ****     *  None.
 750:.\Generated_Source\PSoC5/uart_ultrasonic.c ****     *
 751:.\Generated_Source\PSoC5/uart_ultrasonic.c ****     * Return:
 752:.\Generated_Source\PSoC5/uart_ultrasonic.c ****     *  None.
 753:.\Generated_Source\PSoC5/uart_ultrasonic.c ****     *
 754:.\Generated_Source\PSoC5/uart_ultrasonic.c ****     * Global Variables:
 755:.\Generated_Source\PSoC5/uart_ultrasonic.c ****     *  uart_ultrasonic_rxBufferWrite - cleared to zero.
 756:.\Generated_Source\PSoC5/uart_ultrasonic.c ****     *  uart_ultrasonic_rxBufferRead - cleared to zero.
 757:.\Generated_Source\PSoC5/uart_ultrasonic.c ****     *  uart_ultrasonic_rxBufferLoopDetect - cleared to zero.
 758:.\Generated_Source\PSoC5/uart_ultrasonic.c ****     *  uart_ultrasonic_rxBufferOverflow - cleared to zero.
 759:.\Generated_Source\PSoC5/uart_ultrasonic.c ****     *
 760:.\Generated_Source\PSoC5/uart_ultrasonic.c ****     * Reentrant:
 761:.\Generated_Source\PSoC5/uart_ultrasonic.c ****     *  No.
 762:.\Generated_Source\PSoC5/uart_ultrasonic.c ****     *
 763:.\Generated_Source\PSoC5/uart_ultrasonic.c ****     * Theory:
 764:.\Generated_Source\PSoC5/uart_ultrasonic.c ****     *  Setting the pointers to zero makes the system believe there is no data to
 765:.\Generated_Source\PSoC5/uart_ultrasonic.c ****     *  read and writing will resume at address 0 overwriting any data that may
 766:.\Generated_Source\PSoC5/uart_ultrasonic.c ****     *  have remained in the RAM.
 767:.\Generated_Source\PSoC5/uart_ultrasonic.c ****     *
 768:.\Generated_Source\PSoC5/uart_ultrasonic.c ****     * Side Effects:
 769:.\Generated_Source\PSoC5/uart_ultrasonic.c ****     *  Any received data not read from the RAM or FIFO buffer will be lost.
 770:.\Generated_Source\PSoC5/uart_ultrasonic.c ****     *******************************************************************************/
 771:.\Generated_Source\PSoC5/uart_ultrasonic.c ****     void uart_ultrasonic_ClearRxBuffer(void) 
 772:.\Generated_Source\PSoC5/uart_ultrasonic.c ****     {
 564              		.loc 1 772 0
 565              		.cfi_startproc
 566              		@ args = 0, pretend = 0, frame = 8
 567              		@ frame_needed = 1, uses_anonymous_args = 0
 568 0000 80B5     		push	{r7, lr}
 569              		.cfi_def_cfa_offset 8
 570              		.cfi_offset 7, -8
 571              		.cfi_offset 14, -4
 572 0002 82B0     		sub	sp, sp, #8
 573              		.cfi_def_cfa_offset 16
 574 0004 00AF     		add	r7, sp, #0
 575              		.cfi_def_cfa_register 7
 773:.\Generated_Source\PSoC5/uart_ultrasonic.c ****         uint8 enableInterrupts;
 774:.\Generated_Source\PSoC5/uart_ultrasonic.c **** 
 775:.\Generated_Source\PSoC5/uart_ultrasonic.c ****         /* clear the HW FIFO */
 776:.\Generated_Source\PSoC5/uart_ultrasonic.c ****         /* Enter critical section */
 777:.\Generated_Source\PSoC5/uart_ultrasonic.c ****         enableInterrupts = CyEnterCriticalSection();
 576              		.loc 1 777 0
 577 0006 FFF7FEFF 		bl	CyEnterCriticalSection
 578 000a 0346     		mov	r3, r0
 579 000c FB71     		strb	r3, [r7, #7]
 778:.\Generated_Source\PSoC5/uart_ultrasonic.c ****         uart_ultrasonic_RXDATA_AUX_CTL_REG |=  uart_ultrasonic_RX_FIFO_CLR;
 580              		.loc 1 778 0
 581 000e 0B4B     		ldr	r3, .L42
 582 0010 0A4A     		ldr	r2, .L42
 583 0012 1278     		ldrb	r2, [r2]
 584 0014 D2B2     		uxtb	r2, r2
 585 0016 42F00102 		orr	r2, r2, #1
 586 001a D2B2     		uxtb	r2, r2
 587 001c 1A70     		strb	r2, [r3]
 779:.\Generated_Source\PSoC5/uart_ultrasonic.c ****         uart_ultrasonic_RXDATA_AUX_CTL_REG &= (uint8)~uart_ultrasonic_RX_FIFO_CLR;
 588              		.loc 1 779 0
ARM GAS  C:\Users\Matthew\AppData\Local\Temp\cc7D46n7.s 			page 25


 589 001e 074B     		ldr	r3, .L42
 590 0020 064A     		ldr	r2, .L42
 591 0022 1278     		ldrb	r2, [r2]
 592 0024 D2B2     		uxtb	r2, r2
 593 0026 22F00102 		bic	r2, r2, #1
 594 002a D2B2     		uxtb	r2, r2
 595 002c 1A70     		strb	r2, [r3]
 780:.\Generated_Source\PSoC5/uart_ultrasonic.c ****         /* Exit critical section */
 781:.\Generated_Source\PSoC5/uart_ultrasonic.c ****         CyExitCriticalSection(enableInterrupts);
 596              		.loc 1 781 0
 597 002e FB79     		ldrb	r3, [r7, #7]	@ zero_extendqisi2
 598 0030 1846     		mov	r0, r3
 599 0032 FFF7FEFF 		bl	CyExitCriticalSection
 782:.\Generated_Source\PSoC5/uart_ultrasonic.c **** 
 783:.\Generated_Source\PSoC5/uart_ultrasonic.c ****         #if(uart_ultrasonic_RXBUFFERSIZE > uart_ultrasonic_FIFO_LENGTH)
 784:.\Generated_Source\PSoC5/uart_ultrasonic.c ****             /* Disable Rx interrupt. */
 785:.\Generated_Source\PSoC5/uart_ultrasonic.c ****             /* Protect variables that could change on interrupt. */
 786:.\Generated_Source\PSoC5/uart_ultrasonic.c ****             #if(uart_ultrasonic_RX_INTERRUPT_ENABLED)
 787:.\Generated_Source\PSoC5/uart_ultrasonic.c ****                 uart_ultrasonic_DisableRxInt();
 788:.\Generated_Source\PSoC5/uart_ultrasonic.c ****             #endif /* End uart_ultrasonic_RX_INTERRUPT_ENABLED */
 789:.\Generated_Source\PSoC5/uart_ultrasonic.c **** 
 790:.\Generated_Source\PSoC5/uart_ultrasonic.c ****             uart_ultrasonic_rxBufferRead = 0u;
 791:.\Generated_Source\PSoC5/uart_ultrasonic.c ****             uart_ultrasonic_rxBufferWrite = 0u;
 792:.\Generated_Source\PSoC5/uart_ultrasonic.c ****             uart_ultrasonic_rxBufferLoopDetect = 0u;
 793:.\Generated_Source\PSoC5/uart_ultrasonic.c ****             uart_ultrasonic_rxBufferOverflow = 0u;
 794:.\Generated_Source\PSoC5/uart_ultrasonic.c **** 
 795:.\Generated_Source\PSoC5/uart_ultrasonic.c ****             /* Enable Rx interrupt. */
 796:.\Generated_Source\PSoC5/uart_ultrasonic.c ****             #if(uart_ultrasonic_RX_INTERRUPT_ENABLED)
 797:.\Generated_Source\PSoC5/uart_ultrasonic.c ****                 uart_ultrasonic_EnableRxInt();
 798:.\Generated_Source\PSoC5/uart_ultrasonic.c ****             #endif /* End uart_ultrasonic_RX_INTERRUPT_ENABLED */
 799:.\Generated_Source\PSoC5/uart_ultrasonic.c ****         #endif /* End uart_ultrasonic_RXBUFFERSIZE > uart_ultrasonic_FIFO_LENGTH */
 800:.\Generated_Source\PSoC5/uart_ultrasonic.c **** 
 801:.\Generated_Source\PSoC5/uart_ultrasonic.c ****     }
 600              		.loc 1 801 0
 601 0036 0837     		adds	r7, r7, #8
 602 0038 BD46     		mov	sp, r7
 603              		@ sp needed
 604 003a 80BD     		pop	{r7, pc}
 605              	.L43:
 606              		.align	2
 607              	.L42:
 608 003c 95640040 		.word	1073767573
 609              		.cfi_endproc
 610              	.LFE12:
 611              		.size	uart_ultrasonic_ClearRxBuffer, .-uart_ultrasonic_ClearRxBuffer
 612              		.section	.text.uart_ultrasonic_SetRxAddressMode,"ax",%progbits
 613              		.align	2
 614              		.global	uart_ultrasonic_SetRxAddressMode
 615              		.thumb
 616              		.thumb_func
 617              		.type	uart_ultrasonic_SetRxAddressMode, %function
 618              	uart_ultrasonic_SetRxAddressMode:
 619              	.LFB13:
 802:.\Generated_Source\PSoC5/uart_ultrasonic.c **** 
 803:.\Generated_Source\PSoC5/uart_ultrasonic.c **** 
 804:.\Generated_Source\PSoC5/uart_ultrasonic.c ****     /*******************************************************************************
 805:.\Generated_Source\PSoC5/uart_ultrasonic.c ****     * Function Name: uart_ultrasonic_SetRxAddressMode
ARM GAS  C:\Users\Matthew\AppData\Local\Temp\cc7D46n7.s 			page 26


 806:.\Generated_Source\PSoC5/uart_ultrasonic.c ****     ********************************************************************************
 807:.\Generated_Source\PSoC5/uart_ultrasonic.c ****     *
 808:.\Generated_Source\PSoC5/uart_ultrasonic.c ****     * Summary:
 809:.\Generated_Source\PSoC5/uart_ultrasonic.c ****     *  Set the receive addressing mode
 810:.\Generated_Source\PSoC5/uart_ultrasonic.c ****     *
 811:.\Generated_Source\PSoC5/uart_ultrasonic.c ****     * Parameters:
 812:.\Generated_Source\PSoC5/uart_ultrasonic.c ****     *  addressMode: Enumerated value indicating the mode of RX addressing
 813:.\Generated_Source\PSoC5/uart_ultrasonic.c ****     *  uart_ultrasonic__B_UART__AM_SW_BYTE_BYTE -  Software Byte-by-Byte address
 814:.\Generated_Source\PSoC5/uart_ultrasonic.c ****     *                                               detection
 815:.\Generated_Source\PSoC5/uart_ultrasonic.c ****     *  uart_ultrasonic__B_UART__AM_SW_DETECT_TO_BUFFER - Software Detect to Buffer
 816:.\Generated_Source\PSoC5/uart_ultrasonic.c ****     *                                               address detection
 817:.\Generated_Source\PSoC5/uart_ultrasonic.c ****     *  uart_ultrasonic__B_UART__AM_HW_BYTE_BY_BYTE - Hardware Byte-by-Byte address
 818:.\Generated_Source\PSoC5/uart_ultrasonic.c ****     *                                               detection
 819:.\Generated_Source\PSoC5/uart_ultrasonic.c ****     *  uart_ultrasonic__B_UART__AM_HW_DETECT_TO_BUFFER - Hardware Detect to Buffer
 820:.\Generated_Source\PSoC5/uart_ultrasonic.c ****     *                                               address detection
 821:.\Generated_Source\PSoC5/uart_ultrasonic.c ****     *  uart_ultrasonic__B_UART__AM_NONE - No address detection
 822:.\Generated_Source\PSoC5/uart_ultrasonic.c ****     *
 823:.\Generated_Source\PSoC5/uart_ultrasonic.c ****     * Return:
 824:.\Generated_Source\PSoC5/uart_ultrasonic.c ****     *  None.
 825:.\Generated_Source\PSoC5/uart_ultrasonic.c ****     *
 826:.\Generated_Source\PSoC5/uart_ultrasonic.c ****     * Global Variables:
 827:.\Generated_Source\PSoC5/uart_ultrasonic.c ****     *  uart_ultrasonic_rxAddressMode - the parameter stored in this variable for
 828:.\Generated_Source\PSoC5/uart_ultrasonic.c ****     *   the farther usage in RX ISR.
 829:.\Generated_Source\PSoC5/uart_ultrasonic.c ****     *  uart_ultrasonic_rxAddressDetected - set to initial state (0).
 830:.\Generated_Source\PSoC5/uart_ultrasonic.c ****     *
 831:.\Generated_Source\PSoC5/uart_ultrasonic.c ****     *******************************************************************************/
 832:.\Generated_Source\PSoC5/uart_ultrasonic.c ****     void uart_ultrasonic_SetRxAddressMode(uint8 addressMode)
 833:.\Generated_Source\PSoC5/uart_ultrasonic.c ****                                                         
 834:.\Generated_Source\PSoC5/uart_ultrasonic.c ****     {
 620              		.loc 1 834 0
 621              		.cfi_startproc
 622              		@ args = 0, pretend = 0, frame = 8
 623              		@ frame_needed = 1, uses_anonymous_args = 0
 624              		@ link register save eliminated.
 625 0000 80B4     		push	{r7}
 626              		.cfi_def_cfa_offset 4
 627              		.cfi_offset 7, -4
 628 0002 83B0     		sub	sp, sp, #12
 629              		.cfi_def_cfa_offset 16
 630 0004 00AF     		add	r7, sp, #0
 631              		.cfi_def_cfa_register 7
 632 0006 0346     		mov	r3, r0
 633 0008 FB71     		strb	r3, [r7, #7]
 835:.\Generated_Source\PSoC5/uart_ultrasonic.c ****         #if(uart_ultrasonic_RXHW_ADDRESS_ENABLED)
 836:.\Generated_Source\PSoC5/uart_ultrasonic.c ****             #if(uart_ultrasonic_CONTROL_REG_REMOVED)
 837:.\Generated_Source\PSoC5/uart_ultrasonic.c ****                 if(addressMode != 0u) { }     /* release compiler warning */
 838:.\Generated_Source\PSoC5/uart_ultrasonic.c ****             #else /* uart_ultrasonic_CONTROL_REG_REMOVED */
 839:.\Generated_Source\PSoC5/uart_ultrasonic.c ****                 uint8 tmpCtrl;
 840:.\Generated_Source\PSoC5/uart_ultrasonic.c ****                 tmpCtrl = uart_ultrasonic_CONTROL_REG & (uint8)~uart_ultrasonic_CTRL_RXADDR_MODE_MA
 841:.\Generated_Source\PSoC5/uart_ultrasonic.c ****                 tmpCtrl |= (uint8)(addressMode << uart_ultrasonic_CTRL_RXADDR_MODE0_SHIFT);
 842:.\Generated_Source\PSoC5/uart_ultrasonic.c ****                 uart_ultrasonic_CONTROL_REG = tmpCtrl;
 843:.\Generated_Source\PSoC5/uart_ultrasonic.c ****                 #if(uart_ultrasonic_RX_INTERRUPT_ENABLED && \
 844:.\Generated_Source\PSoC5/uart_ultrasonic.c ****                    (uart_ultrasonic_RXBUFFERSIZE > uart_ultrasonic_FIFO_LENGTH) )
 845:.\Generated_Source\PSoC5/uart_ultrasonic.c ****                     uart_ultrasonic_rxAddressMode = addressMode;
 846:.\Generated_Source\PSoC5/uart_ultrasonic.c ****                     uart_ultrasonic_rxAddressDetected = 0u;
 847:.\Generated_Source\PSoC5/uart_ultrasonic.c ****                 #endif /* End uart_ultrasonic_RXBUFFERSIZE > uart_ultrasonic_FIFO_LENGTH*/
 848:.\Generated_Source\PSoC5/uart_ultrasonic.c ****             #endif /* End uart_ultrasonic_CONTROL_REG_REMOVED */
ARM GAS  C:\Users\Matthew\AppData\Local\Temp\cc7D46n7.s 			page 27


 849:.\Generated_Source\PSoC5/uart_ultrasonic.c ****         #else /* uart_ultrasonic_RXHW_ADDRESS_ENABLED */
 850:.\Generated_Source\PSoC5/uart_ultrasonic.c ****             if(addressMode != 0u) { }     /* release compiler warning */
 851:.\Generated_Source\PSoC5/uart_ultrasonic.c ****         #endif /* End uart_ultrasonic_RXHW_ADDRESS_ENABLED */
 852:.\Generated_Source\PSoC5/uart_ultrasonic.c ****     }
 634              		.loc 1 852 0
 635 000a 0C37     		adds	r7, r7, #12
 636 000c BD46     		mov	sp, r7
 637              		@ sp needed
 638 000e 5DF8047B 		ldr	r7, [sp], #4
 639 0012 7047     		bx	lr
 640              		.cfi_endproc
 641              	.LFE13:
 642              		.size	uart_ultrasonic_SetRxAddressMode, .-uart_ultrasonic_SetRxAddressMode
 643              		.section	.text.uart_ultrasonic_SetRxAddress1,"ax",%progbits
 644              		.align	2
 645              		.global	uart_ultrasonic_SetRxAddress1
 646              		.thumb
 647              		.thumb_func
 648              		.type	uart_ultrasonic_SetRxAddress1, %function
 649              	uart_ultrasonic_SetRxAddress1:
 650              	.LFB14:
 853:.\Generated_Source\PSoC5/uart_ultrasonic.c **** 
 854:.\Generated_Source\PSoC5/uart_ultrasonic.c **** 
 855:.\Generated_Source\PSoC5/uart_ultrasonic.c ****     /*******************************************************************************
 856:.\Generated_Source\PSoC5/uart_ultrasonic.c ****     * Function Name: uart_ultrasonic_SetRxAddress1
 857:.\Generated_Source\PSoC5/uart_ultrasonic.c ****     ********************************************************************************
 858:.\Generated_Source\PSoC5/uart_ultrasonic.c ****     *
 859:.\Generated_Source\PSoC5/uart_ultrasonic.c ****     * Summary:
 860:.\Generated_Source\PSoC5/uart_ultrasonic.c ****     *  Set the first hardware address compare value
 861:.\Generated_Source\PSoC5/uart_ultrasonic.c ****     *
 862:.\Generated_Source\PSoC5/uart_ultrasonic.c ****     * Parameters:
 863:.\Generated_Source\PSoC5/uart_ultrasonic.c ****     *  address
 864:.\Generated_Source\PSoC5/uart_ultrasonic.c ****     *
 865:.\Generated_Source\PSoC5/uart_ultrasonic.c ****     * Return:
 866:.\Generated_Source\PSoC5/uart_ultrasonic.c ****     *  None.
 867:.\Generated_Source\PSoC5/uart_ultrasonic.c ****     *
 868:.\Generated_Source\PSoC5/uart_ultrasonic.c ****     *******************************************************************************/
 869:.\Generated_Source\PSoC5/uart_ultrasonic.c ****     void uart_ultrasonic_SetRxAddress1(uint8 address) 
 870:.\Generated_Source\PSoC5/uart_ultrasonic.c **** 
 871:.\Generated_Source\PSoC5/uart_ultrasonic.c ****     {
 651              		.loc 1 871 0
 652              		.cfi_startproc
 653              		@ args = 0, pretend = 0, frame = 8
 654              		@ frame_needed = 1, uses_anonymous_args = 0
 655              		@ link register save eliminated.
 656 0000 80B4     		push	{r7}
 657              		.cfi_def_cfa_offset 4
 658              		.cfi_offset 7, -4
 659 0002 83B0     		sub	sp, sp, #12
 660              		.cfi_def_cfa_offset 16
 661 0004 00AF     		add	r7, sp, #0
 662              		.cfi_def_cfa_register 7
 663 0006 0346     		mov	r3, r0
 664 0008 FB71     		strb	r3, [r7, #7]
 872:.\Generated_Source\PSoC5/uart_ultrasonic.c ****         uart_ultrasonic_RXADDRESS1_REG = address;
 665              		.loc 1 872 0
 666 000a 044B     		ldr	r3, .L46
ARM GAS  C:\Users\Matthew\AppData\Local\Temp\cc7D46n7.s 			page 28


 667 000c FA79     		ldrb	r2, [r7, #7]
 668 000e 1A70     		strb	r2, [r3]
 873:.\Generated_Source\PSoC5/uart_ultrasonic.c ****     }
 669              		.loc 1 873 0
 670 0010 0C37     		adds	r7, r7, #12
 671 0012 BD46     		mov	sp, r7
 672              		@ sp needed
 673 0014 5DF8047B 		ldr	r7, [sp], #4
 674 0018 7047     		bx	lr
 675              	.L47:
 676 001a 00BF     		.align	2
 677              	.L46:
 678 001c 25640040 		.word	1073767461
 679              		.cfi_endproc
 680              	.LFE14:
 681              		.size	uart_ultrasonic_SetRxAddress1, .-uart_ultrasonic_SetRxAddress1
 682              		.section	.text.uart_ultrasonic_SetRxAddress2,"ax",%progbits
 683              		.align	2
 684              		.global	uart_ultrasonic_SetRxAddress2
 685              		.thumb
 686              		.thumb_func
 687              		.type	uart_ultrasonic_SetRxAddress2, %function
 688              	uart_ultrasonic_SetRxAddress2:
 689              	.LFB15:
 874:.\Generated_Source\PSoC5/uart_ultrasonic.c **** 
 875:.\Generated_Source\PSoC5/uart_ultrasonic.c **** 
 876:.\Generated_Source\PSoC5/uart_ultrasonic.c ****     /*******************************************************************************
 877:.\Generated_Source\PSoC5/uart_ultrasonic.c ****     * Function Name: uart_ultrasonic_SetRxAddress2
 878:.\Generated_Source\PSoC5/uart_ultrasonic.c ****     ********************************************************************************
 879:.\Generated_Source\PSoC5/uart_ultrasonic.c ****     *
 880:.\Generated_Source\PSoC5/uart_ultrasonic.c ****     * Summary:
 881:.\Generated_Source\PSoC5/uart_ultrasonic.c ****     *  Set the second hardware address compare value
 882:.\Generated_Source\PSoC5/uart_ultrasonic.c ****     *
 883:.\Generated_Source\PSoC5/uart_ultrasonic.c ****     * Parameters:
 884:.\Generated_Source\PSoC5/uart_ultrasonic.c ****     *  address
 885:.\Generated_Source\PSoC5/uart_ultrasonic.c ****     *
 886:.\Generated_Source\PSoC5/uart_ultrasonic.c ****     * Return:
 887:.\Generated_Source\PSoC5/uart_ultrasonic.c ****     *  None.
 888:.\Generated_Source\PSoC5/uart_ultrasonic.c ****     *
 889:.\Generated_Source\PSoC5/uart_ultrasonic.c ****     *******************************************************************************/
 890:.\Generated_Source\PSoC5/uart_ultrasonic.c ****     void uart_ultrasonic_SetRxAddress2(uint8 address) 
 891:.\Generated_Source\PSoC5/uart_ultrasonic.c ****     {
 690              		.loc 1 891 0
 691              		.cfi_startproc
 692              		@ args = 0, pretend = 0, frame = 8
 693              		@ frame_needed = 1, uses_anonymous_args = 0
 694              		@ link register save eliminated.
 695 0000 80B4     		push	{r7}
 696              		.cfi_def_cfa_offset 4
 697              		.cfi_offset 7, -4
 698 0002 83B0     		sub	sp, sp, #12
 699              		.cfi_def_cfa_offset 16
 700 0004 00AF     		add	r7, sp, #0
 701              		.cfi_def_cfa_register 7
 702 0006 0346     		mov	r3, r0
 703 0008 FB71     		strb	r3, [r7, #7]
 892:.\Generated_Source\PSoC5/uart_ultrasonic.c ****         uart_ultrasonic_RXADDRESS2_REG = address;
ARM GAS  C:\Users\Matthew\AppData\Local\Temp\cc7D46n7.s 			page 29


 704              		.loc 1 892 0
 705 000a 044B     		ldr	r3, .L49
 706 000c FA79     		ldrb	r2, [r7, #7]
 707 000e 1A70     		strb	r2, [r3]
 893:.\Generated_Source\PSoC5/uart_ultrasonic.c ****     }
 708              		.loc 1 893 0
 709 0010 0C37     		adds	r7, r7, #12
 710 0012 BD46     		mov	sp, r7
 711              		@ sp needed
 712 0014 5DF8047B 		ldr	r7, [sp], #4
 713 0018 7047     		bx	lr
 714              	.L50:
 715 001a 00BF     		.align	2
 716              	.L49:
 717 001c 35640040 		.word	1073767477
 718              		.cfi_endproc
 719              	.LFE15:
 720              		.size	uart_ultrasonic_SetRxAddress2, .-uart_ultrasonic_SetRxAddress2
 721              		.text
 722              	.Letext0:
 723              		.file 2 ".\\Generated_Source\\PSoC5\\cytypes.h"