ARM GAS  C:\Users\BRANKO~1\AppData\Local\Temp\cc7i1Lnk.s 			page 1


   1              		.syntax unified
   2              		.cpu cortex-m3
   3              		.fpu softvfp
   4              		.eabi_attribute 20, 1
   5              		.eabi_attribute 21, 1
   6              		.eabi_attribute 23, 3
   7              		.eabi_attribute 24, 1
   8              		.eabi_attribute 25, 1
   9              		.eabi_attribute 26, 1
  10              		.eabi_attribute 30, 6
  11              		.eabi_attribute 34, 1
  12              		.eabi_attribute 18, 4
  13              		.thumb
  14              		.file	"ultrasonic.c"
  15              		.text
  16              	.Ltext0:
  17              		.cfi_sections	.debug_frame
  18              		.comm	uart_ultrasonic_received_string,128,4
  19              		.global	uart_ultrasonic_string_index
  20              		.bss
  21              		.type	uart_ultrasonic_string_index, %object
  22              		.size	uart_ultrasonic_string_index, 1
  23              	uart_ultrasonic_string_index:
  24 0000 00       		.space	1
  25              		.section	.text.ultrasonic_start,"ax",%progbits
  26              		.align	2
  27              		.global	ultrasonic_start
  28              		.thumb
  29              		.thumb_func
  30              		.type	ultrasonic_start, %function
  31              	ultrasonic_start:
  32              	.LFB56:
  33              		.file 1 ".\\ultrasonic.c"
   1:.\ultrasonic.c **** /* ========================================
   2:.\ultrasonic.c ****  *
   3:.\ultrasonic.c ****  * Copyright YOUR COMPANY, THE YEAR
   4:.\ultrasonic.c ****  * All Rights Reserved
   5:.\ultrasonic.c ****  * UNPUBLISHED, LICENSED SOFTWARE.
   6:.\ultrasonic.c ****  *
   7:.\ultrasonic.c ****  * CONFIDENTIAL AND PROPRIETARY INFORMATION
   8:.\ultrasonic.c ****  * WHICH IS THE PROPERTY OF your company.
   9:.\ultrasonic.c ****  *
  10:.\ultrasonic.c ****  * ========================================
  11:.\ultrasonic.c **** */
  12:.\ultrasonic.c **** #include "ultrasonic.h"
  13:.\ultrasonic.c **** /* Revise debug.h and implement if an SD Card is installed
  14:.\ultrasonic.c **** #include "debug.h"
  15:.\ultrasonic.c **** */
  16:.\ultrasonic.c **** // prototype modem interrupt
  17:.\ultrasonic.c **** CY_ISR_PROTO(isr_byte_ultrasonic_rx);
  18:.\ultrasonic.c **** 
  19:.\ultrasonic.c **** // Declare variables
  20:.\ultrasonic.c **** char uart_ultrasonic_received_string[MAX_STRING_LENGTH];
  21:.\ultrasonic.c **** uint8 uart_ultrasonic_string_index = 0;
  22:.\ultrasonic.c **** //uint8 rx_char_hold;
  23:.\ultrasonic.c **** 
  24:.\ultrasonic.c **** 
ARM GAS  C:\Users\BRANKO~1\AppData\Local\Temp\cc7i1Lnk.s 			page 2


  25:.\ultrasonic.c **** 
  26:.\ultrasonic.c **** // Start the UART
  27:.\ultrasonic.c **** void ultrasonic_start(){
  34              		.loc 1 27 0
  35              		.cfi_startproc
  36              		@ args = 0, pretend = 0, frame = 0
  37              		@ frame_needed = 1, uses_anonymous_args = 0
  38 0000 80B5     		push	{r7, lr}
  39              		.cfi_def_cfa_offset 8
  40              		.cfi_offset 7, -8
  41              		.cfi_offset 14, -4
  42 0002 00AF     		add	r7, sp, #0
  43              		.cfi_def_cfa_register 7
  28:.\ultrasonic.c ****     uart_ultrasonic_Start();
  44              		.loc 1 28 0
  45 0004 FFF7FEFF 		bl	uart_ultrasonic_Start
  29:.\ultrasonic.c **** }
  46              		.loc 1 29 0
  47 0008 80BD     		pop	{r7, pc}
  48              		.cfi_endproc
  49              	.LFE56:
  50              		.size	ultrasonic_start, .-ultrasonic_start
  51 000a 00BF     		.section	.text.ultrasonic_stop,"ax",%progbits
  52              		.align	2
  53              		.global	ultrasonic_stop
  54              		.thumb
  55              		.thumb_func
  56              		.type	ultrasonic_stop, %function
  57              	ultrasonic_stop:
  58              	.LFB57:
  30:.\ultrasonic.c **** // Stop the UART
  31:.\ultrasonic.c **** void ultrasonic_stop(){
  59              		.loc 1 31 0
  60              		.cfi_startproc
  61              		@ args = 0, pretend = 0, frame = 0
  62              		@ frame_needed = 1, uses_anonymous_args = 0
  63 0000 80B5     		push	{r7, lr}
  64              		.cfi_def_cfa_offset 8
  65              		.cfi_offset 7, -8
  66              		.cfi_offset 14, -4
  67 0002 00AF     		add	r7, sp, #0
  68              		.cfi_def_cfa_register 7
  32:.\ultrasonic.c ****     uart_ultrasonic_Stop();
  69              		.loc 1 32 0
  70 0004 FFF7FEFF 		bl	uart_ultrasonic_Stop
  33:.\ultrasonic.c **** }
  71              		.loc 1 33 0
  72 0008 80BD     		pop	{r7, pc}
  73              		.cfi_endproc
  74              	.LFE57:
  75              		.size	ultrasonic_stop, .-ultrasonic_stop
  76 000a 00BF     		.section	.text.ultrasonic_power_on,"ax",%progbits
  77              		.align	2
  78              		.global	ultrasonic_power_on
  79              		.thumb
  80              		.thumb_func
  81              		.type	ultrasonic_power_on, %function
ARM GAS  C:\Users\BRANKO~1\AppData\Local\Temp\cc7i1Lnk.s 			page 3


  82              	ultrasonic_power_on:
  83              	.LFB58:
  34:.\ultrasonic.c **** 
  35:.\ultrasonic.c **** // Provide power to the ultrasonic sensor
  36:.\ultrasonic.c **** uint8 ultrasonic_power_on(){
  84              		.loc 1 36 0
  85              		.cfi_startproc
  86              		@ args = 0, pretend = 0, frame = 0
  87              		@ frame_needed = 1, uses_anonymous_args = 0
  88 0000 80B5     		push	{r7, lr}
  89              		.cfi_def_cfa_offset 8
  90              		.cfi_offset 7, -8
  91              		.cfi_offset 14, -4
  92 0002 00AF     		add	r7, sp, #0
  93              		.cfi_def_cfa_register 7
  37:.\ultrasonic.c ****     Ultrasonic_ON_Write(1u);
  94              		.loc 1 37 0
  95 0004 0120     		movs	r0, #1
  96 0006 FFF7FEFF 		bl	Ultrasonic_ON_Write
  38:.\ultrasonic.c ****     return 1u;
  97              		.loc 1 38 0
  98 000a 0123     		movs	r3, #1
  39:.\ultrasonic.c **** }
  99              		.loc 1 39 0
 100 000c 1846     		mov	r0, r3
 101 000e 80BD     		pop	{r7, pc}
 102              		.cfi_endproc
 103              	.LFE58:
 104              		.size	ultrasonic_power_on, .-ultrasonic_power_on
 105              		.section	.text.ultrasonic_power_off,"ax",%progbits
 106              		.align	2
 107              		.global	ultrasonic_power_off
 108              		.thumb
 109              		.thumb_func
 110              		.type	ultrasonic_power_off, %function
 111              	ultrasonic_power_off:
 112              	.LFB59:
  40:.\ultrasonic.c **** 
  41:.\ultrasonic.c **** // Cut power to the ultrasonic sensor
  42:.\ultrasonic.c **** uint8 ultrasonic_power_off(){
 113              		.loc 1 42 0
 114              		.cfi_startproc
 115              		@ args = 0, pretend = 0, frame = 0
 116              		@ frame_needed = 1, uses_anonymous_args = 0
 117 0000 80B5     		push	{r7, lr}
 118              		.cfi_def_cfa_offset 8
 119              		.cfi_offset 7, -8
 120              		.cfi_offset 14, -4
 121 0002 00AF     		add	r7, sp, #0
 122              		.cfi_def_cfa_register 7
  43:.\ultrasonic.c ****     Ultrasonic_ON_Write(0u);
 123              		.loc 1 43 0
 124 0004 0020     		movs	r0, #0
 125 0006 FFF7FEFF 		bl	Ultrasonic_ON_Write
  44:.\ultrasonic.c ****     return 0u;
 126              		.loc 1 44 0
 127 000a 0023     		movs	r3, #0
ARM GAS  C:\Users\BRANKO~1\AppData\Local\Temp\cc7i1Lnk.s 			page 4


  45:.\ultrasonic.c **** }
 128              		.loc 1 45 0
 129 000c 1846     		mov	r0, r3
 130 000e 80BD     		pop	{r7, pc}
 131              		.cfi_endproc
 132              	.LFE59:
 133              		.size	ultrasonic_power_off, .-ultrasonic_power_off
 134              		.section	.text.ultrasonic_get_reading,"ax",%progbits
 135              		.align	2
 136              		.global	ultrasonic_get_reading
 137              		.thumb
 138              		.thumb_func
 139              		.type	ultrasonic_get_reading, %function
 140              	ultrasonic_get_reading:
 141              	.LFB60:
  46:.\ultrasonic.c **** 
  47:.\ultrasonic.c **** // Start ISR, Fill array, Return array, Stop ISR
  48:.\ultrasonic.c **** uint8 ultrasonic_get_reading(UltrasonicReading *reading) {
 142              		.loc 1 48 0
 143              		.cfi_startproc
 144              		@ args = 0, pretend = 0, frame = 152
 145              		@ frame_needed = 1, uses_anonymous_args = 0
 146 0000 80B5     		push	{r7, lr}
 147              		.cfi_def_cfa_offset 8
 148              		.cfi_offset 7, -8
 149              		.cfi_offset 14, -4
 150 0002 A6B0     		sub	sp, sp, #152
 151              		.cfi_def_cfa_offset 160
 152 0004 00AF     		add	r7, sp, #0
 153              		.cfi_def_cfa_register 7
 154 0006 7860     		str	r0, [r7, #4]
  49:.\ultrasonic.c ****     
  50:.\ultrasonic.c ****     int i, j;
  51:.\ultrasonic.c ****     char depth[DEPTH_STRING_LENGTH], s[MAX_STRING_LENGTH];
  52:.\ultrasonic.c **** 
  53:.\ultrasonic.c ****     // Reset variables
  54:.\ultrasonic.c ****     (*reading).valid = 0u;
 155              		.loc 1 54 0
 156 0008 7B68     		ldr	r3, [r7, #4]
 157 000a 0022     		movs	r2, #0
 158 000c 1A72     		strb	r2, [r3, #8]
  55:.\ultrasonic.c ****     (*reading).temp = -9999;    
 159              		.loc 1 55 0
 160 000e 7B68     		ldr	r3, [r7, #4]
 161 0010 384A     		ldr	r2, .L16
 162 0012 1A60     		str	r2, [r3]	@ float
  56:.\ultrasonic.c ****     (*reading).depth = -9999;
 163              		.loc 1 56 0
 164 0014 7B68     		ldr	r3, [r7, #4]
 165 0016 374A     		ldr	r2, .L16
 166 0018 5A60     		str	r2, [r3, #4]	@ float
  57:.\ultrasonic.c **** 	
  58:.\ultrasonic.c **** 	ultrasonic_start();
 167              		.loc 1 58 0
 168 001a FFF7FEFF 		bl	ultrasonic_start
  59:.\ultrasonic.c ****     uart_ultrasonic_string_reset();
 169              		.loc 1 59 0
ARM GAS  C:\Users\BRANKO~1\AppData\Local\Temp\cc7i1Lnk.s 			page 5


 170 001e FFF7FEFF 		bl	uart_ultrasonic_string_reset
  60:.\ultrasonic.c **** 
  61:.\ultrasonic.c ****     isr_byte_ultrasonic_rx_StartEx(isr_byte_ultrasonic_rx); // Start the ISR to read the UART
 171              		.loc 1 61 0
 172 0022 3548     		ldr	r0, .L16+4
 173 0024 FFF7FEFF 		bl	isr_byte_ultrasonic_rx_StartEx
  62:.\ultrasonic.c ****     ultrasonic_power_on();                                  // Power on the sensor
 174              		.loc 1 62 0
 175 0028 FFF7FEFF 		bl	ultrasonic_power_on
  63:.\ultrasonic.c ****     CyDelay(1500u);                                         // Wait for UART to get readings from s
 176              		.loc 1 63 0
 177 002c 40F2DC50 		movw	r0, #1500
 178 0030 FFF7FEFF 		bl	CyDelay
  64:.\ultrasonic.c ****     
  65:.\ultrasonic.c ****     isr_byte_ultrasonic_rx_Stop();                          // Stop the ISR to read the UART
 179              		.loc 1 65 0
 180 0034 FFF7FEFF 		bl	isr_byte_ultrasonic_rx_Stop
  66:.\ultrasonic.c ****     ultrasonic_power_off();                                 // Power off the sensor
 181              		.loc 1 66 0
 182 0038 FFF7FEFF 		bl	ultrasonic_power_off
  67:.\ultrasonic.c **** 	ultrasonic_stop();
 183              		.loc 1 67 0
 184 003c FFF7FEFF 		bl	ultrasonic_stop
  68:.\ultrasonic.c **** 
  69:.\ultrasonic.c ****     // store relevant strings to ultrasonic_packet
  70:.\ultrasonic.c ****     strcpy(s,uart_ultrasonic_received_string);
 185              		.loc 1 70 0
 186 0040 07F10C03 		add	r3, r7, #12
 187 0044 1846     		mov	r0, r3
 188 0046 2D49     		ldr	r1, .L16+8
 189 0048 FFF7FEFF 		bl	strcpy
  71:.\ultrasonic.c ****     /*
  72:.\ultrasonic.c ****     for(i = 0; i < strlen(uart_ultrasonic_received_string); i++){
  73:.\ultrasonic.c ****         s = uart_ultrasonic_received_string[i];
  74:.\ultrasonic.c ****         
  75:.\ultrasonic.c ****         if(R_count > 4 && s == '\r'){
  76:.\ultrasonic.c ****             (*reading).valid = 1u;
  77:.\ultrasonic.c ****             break; 
  78:.\ultrasonic.c ****         }else if(R_count > 4){
  79:.\ultrasonic.c ****             depth[index] = s;
  80:.\ultrasonic.c ****             index++;
  81:.\ultrasonic.c ****         }
  82:.\ultrasonic.c ****         if(s == 'R'){
  83:.\ultrasonic.c ****             R_count++;      // increment everytime an "R" ascii character is encountered
  84:.\ultrasonic.c ****         }
  85:.\ultrasonic.c ****     }
  86:.\ultrasonic.c ****     */
  87:.\ultrasonic.c **** 
  88:.\ultrasonic.c ****     for(i = 0; i < MAX_STRING_LENGTH-1-DEPTH_STRING_LENGTH; i++){
 190              		.loc 1 88 0
 191 004c 0023     		movs	r3, #0
 192 004e C7F89430 		str	r3, [r7, #148]
 193 0052 38E0     		b	.L8
 194              	.L13:
  89:.\ultrasonic.c ****         if( s[i] == 'R' && s[i+1+DEPTH_STRING_LENGTH] == '\r' ) {
 195              		.loc 1 89 0
 196 0054 07F10C02 		add	r2, r7, #12
ARM GAS  C:\Users\BRANKO~1\AppData\Local\Temp\cc7i1Lnk.s 			page 6


 197 0058 D7F89430 		ldr	r3, [r7, #148]
 198 005c 1344     		add	r3, r3, r2
 199 005e 1B78     		ldrb	r3, [r3]	@ zero_extendqisi2
 200 0060 522B     		cmp	r3, #82
 201 0062 2BD1     		bne	.L9
 202              		.loc 1 89 0 is_stmt 0 discriminator 1
 203 0064 D7F89430 		ldr	r3, [r7, #148]
 204 0068 0533     		adds	r3, r3, #5
 205 006a 07F19802 		add	r2, r7, #152
 206 006e 1344     		add	r3, r3, r2
 207 0070 13F88C3C 		ldrb	r3, [r3, #-140]	@ zero_extendqisi2
 208 0074 0D2B     		cmp	r3, #13
 209 0076 21D1     		bne	.L9
  90:.\ultrasonic.c ****             for(j = 0; j < DEPTH_STRING_LENGTH; j++) {
 210              		.loc 1 90 0 is_stmt 1
 211 0078 0023     		movs	r3, #0
 212 007a C7F89030 		str	r3, [r7, #144]
 213 007e 15E0     		b	.L10
 214              	.L11:
  91:.\ultrasonic.c ****                 depth[j] = s[i+j+1];
 215              		.loc 1 91 0 discriminator 2
 216 0080 D7F89420 		ldr	r2, [r7, #148]
 217 0084 D7F89030 		ldr	r3, [r7, #144]
 218 0088 1344     		add	r3, r3, r2
 219 008a 0133     		adds	r3, r3, #1
 220 008c 07F19802 		add	r2, r7, #152
 221 0090 1344     		add	r3, r3, r2
 222 0092 13F88C2C 		ldrb	r2, [r3, #-140]	@ zero_extendqisi2
 223 0096 07F18C01 		add	r1, r7, #140
 224 009a D7F89030 		ldr	r3, [r7, #144]
 225 009e 0B44     		add	r3, r3, r1
 226 00a0 1A70     		strb	r2, [r3]
  90:.\ultrasonic.c ****             for(j = 0; j < DEPTH_STRING_LENGTH; j++) {
 227              		.loc 1 90 0 discriminator 2
 228 00a2 D7F89030 		ldr	r3, [r7, #144]
 229 00a6 0133     		adds	r3, r3, #1
 230 00a8 C7F89030 		str	r3, [r7, #144]
 231              	.L10:
  90:.\ultrasonic.c ****             for(j = 0; j < DEPTH_STRING_LENGTH; j++) {
 232              		.loc 1 90 0 is_stmt 0 discriminator 1
 233 00ac D7F89030 		ldr	r3, [r7, #144]
 234 00b0 032B     		cmp	r3, #3
 235 00b2 E5DD     		ble	.L11
  92:.\ultrasonic.c ****             }
  93:.\ultrasonic.c ****             (*reading).valid = 1u;
 236              		.loc 1 93 0 is_stmt 1
 237 00b4 7B68     		ldr	r3, [r7, #4]
 238 00b6 0122     		movs	r2, #1
 239 00b8 1A72     		strb	r2, [r3, #8]
  94:.\ultrasonic.c ****             break;
 240              		.loc 1 94 0
 241 00ba 08E0     		b	.L12
 242              	.L9:
  88:.\ultrasonic.c ****     for(i = 0; i < MAX_STRING_LENGTH-1-DEPTH_STRING_LENGTH; i++){
 243              		.loc 1 88 0
 244 00bc D7F89430 		ldr	r3, [r7, #148]
 245 00c0 0133     		adds	r3, r3, #1
ARM GAS  C:\Users\BRANKO~1\AppData\Local\Temp\cc7i1Lnk.s 			page 7


 246 00c2 C7F89430 		str	r3, [r7, #148]
 247              	.L8:
  88:.\ultrasonic.c ****     for(i = 0; i < MAX_STRING_LENGTH-1-DEPTH_STRING_LENGTH; i++){
 248              		.loc 1 88 0 is_stmt 0 discriminator 1
 249 00c6 D7F89430 		ldr	r3, [r7, #148]
 250 00ca 7A2B     		cmp	r3, #122
 251 00cc C2DD     		ble	.L13
 252              	.L12:
  95:.\ultrasonic.c ****         }
  96:.\ultrasonic.c ****     }
  97:.\ultrasonic.c ****     
  98:.\ultrasonic.c ****     if ((*reading).valid) {
 253              		.loc 1 98 0 is_stmt 1
 254 00ce 7B68     		ldr	r3, [r7, #4]
 255 00d0 1B7A     		ldrb	r3, [r3, #8]	@ zero_extendqisi2
 256 00d2 002B     		cmp	r3, #0
 257 00d4 08D0     		beq	.L14
  99:.\ultrasonic.c ****         (*reading).depth = strtof(depth,(char **) NULL); //(float)atof(depth);
 258              		.loc 1 99 0
 259 00d6 07F18C03 		add	r3, r7, #140
 260 00da 1846     		mov	r0, r3
 261 00dc 0021     		movs	r1, #0
 262 00de FFF7FEFF 		bl	strtof
 263 00e2 0246     		mov	r2, r0
 264 00e4 7B68     		ldr	r3, [r7, #4]
 265 00e6 5A60     		str	r2, [r3, #4]	@ float
 266              	.L14:
 100:.\ultrasonic.c **** /*        
 101:.\ultrasonic.c ****         //(*reading).depth = (float) ultrasonic_depth;
 102:.\ultrasonic.c ****         if ((*reading).depth > 9999) { // Recorded depth greater than 4 digits... (eg 13582 vs 1358
 103:.\ultrasonic.c ****             (*reading).depth = (float) (int)( (*reading).depth  / 10) ;
 104:.\ultrasonic.c ****             
 105:.\ultrasonic.c ****             debug_write("Ultrasonic Warning.  depth > 5 digits.  Truncated depth reported.");
 106:.\ultrasonic.c ****             debug_write(uart_ultrasonic_received_string);           
 107:.\ultrasonic.c ****         }
 108:.\ultrasonic.c ****     }    
 109:.\ultrasonic.c ****     else if(R_count <= 4){
 110:.\ultrasonic.c ****         debug_write("Ultrasonic No Reading Found.  R_count <= 4.");
 111:.\ultrasonic.c ****         debug_write(uart_ultrasonic_received_string);
 112:.\ultrasonic.c **** */        
 113:.\ultrasonic.c ****     }
 114:.\ultrasonic.c **** 	
 115:.\ultrasonic.c **** 	/* Revise debug.h and implement if an SD Card is installed
 116:.\ultrasonic.c ****     else {
 117:.\ultrasonic.c ****         debug_write("Ultrasonic Invalid Reading.");
 118:.\ultrasonic.c ****         debug_write(uart_ultrasonic_received_string);
 119:.\ultrasonic.c ****     }
 120:.\ultrasonic.c ****     */
 121:.\ultrasonic.c ****     return (*reading).valid;
 267              		.loc 1 121 0
 268 00e8 7B68     		ldr	r3, [r7, #4]
 269 00ea 1B7A     		ldrb	r3, [r3, #8]	@ zero_extendqisi2
 122:.\ultrasonic.c **** }
 270              		.loc 1 122 0
 271 00ec 1846     		mov	r0, r3
 272 00ee 9837     		adds	r7, r7, #152
 273 00f0 BD46     		mov	sp, r7
ARM GAS  C:\Users\BRANKO~1\AppData\Local\Temp\cc7i1Lnk.s 			page 8


 274              		@ sp needed
 275 00f2 80BD     		pop	{r7, pc}
 276              	.L17:
 277              		.align	2
 278              	.L16:
 279 00f4 003C1CC6 		.word	-971228160
 280 00f8 00000000 		.word	isr_byte_ultrasonic_rx
 281 00fc 00000000 		.word	uart_ultrasonic_received_string
 282              		.cfi_endproc
 283              	.LFE60:
 284              		.size	ultrasonic_get_reading, .-ultrasonic_get_reading
 285              		.section	.text.uart_ultrasonic_string_reset,"ax",%progbits
 286              		.align	2
 287              		.global	uart_ultrasonic_string_reset
 288              		.thumb
 289              		.thumb_func
 290              		.type	uart_ultrasonic_string_reset, %function
 291              	uart_ultrasonic_string_reset:
 292              	.LFB61:
 123:.\ultrasonic.c **** /*
 124:.\ultrasonic.c **** uint8 ultrasonic_read(uint8* ultrasonic_packet, uint8 ultrasonic_packet_size){
 125:.\ultrasonic.c ****     uint8 uart_ultrasonic_received_string[ultrasonic_packet_size];
 126:.\ultrasonic.c ****     uint8 i, j, r_count, rx_char;
 127:.\ultrasonic.c ****     
 128:.\ultrasonic.c ****     
 129:.\ultrasonic.c ****     isr_byte_ultrasonic_rx_StartEx(isr_byte_ultrasonic_rx); // Start the ISR to read the UART
 130:.\ultrasonic.c ****     Ultrasonic_ON_Write(1u);                       // Power on the sensor
 131:.\ultrasonic.c ****     CyDelay(1000u);                                         // Wait for readings
 132:.\ultrasonic.c ****     
 133:.\ultrasonic.c ****     // store stream of characters in uart_ultrasonic_received_string
 134:.\ultrasonic.c ****     for(i = 0; i < ultrasonic_packet_size;){    
 135:.\ultrasonic.c ****         rx_char = uart_ultrasonic_GetChar();
 136:.\ultrasonic.c ****         if(rx_char){
 137:.\ultrasonic.c ****             uart_ultrasonic_received_string[i] = rx_char;
 138:.\ultrasonic.c ****             i++;
 139:.\ultrasonic.c ****         }
 140:.\ultrasonic.c ****     }
 141:.\ultrasonic.c ****     
 142:.\ultrasonic.c ****     // set all elements of ultrasonic_packet to zero
 143:.\ultrasonic.c ****     for(i = 0; i < ultrasonic_packet_size; i++){
 144:.\ultrasonic.c ****         ultrasonic_packet[i] = 0u;
 145:.\ultrasonic.c ****     }
 146:.\ultrasonic.c ****     
 147:.\ultrasonic.c ****     // store relavent strings to ultrasonic_packet
 148:.\ultrasonic.c ****     for(r_count = 0, i = 0, j = 0;r_count < 2;i++){
 149:.\ultrasonic.c ****         rx_char = uart_ultrasonic_received_string[i];
 150:.\ultrasonic.c ****         if(rx_char == 82u){
 151:.\ultrasonic.c ****             r_count++;      // increment everytime an "R" ascii character is encountered
 152:.\ultrasonic.c ****         }
 153:.\ultrasonic.c ****         if(r_count > 0){
 154:.\ultrasonic.c ****             ultrasonic_packet[j] = uart_ultrasonic_received_string[i];
 155:.\ultrasonic.c ****             j++;
 156:.\ultrasonic.c ****         }
 157:.\ultrasonic.c ****         if(i > ultrasonic_packet_size || j > 14){
 158:.\ultrasonic.c ****             return 0u; 
 159:.\ultrasonic.c ****         }
 160:.\ultrasonic.c ****     }
ARM GAS  C:\Users\BRANKO~1\AppData\Local\Temp\cc7i1Lnk.s 			page 9


 161:.\ultrasonic.c ****     
 162:.\ultrasonic.c ****     Ultrasonic_ON_Write(0u); // cut power to stop the sensing
 163:.\ultrasonic.c ****     return 1u; 
 164:.\ultrasonic.c **** }
 165:.\ultrasonic.c **** */
 166:.\ultrasonic.c **** void uart_ultrasonic_string_reset(){
 293              		.loc 1 166 0
 294              		.cfi_startproc
 295              		@ args = 0, pretend = 0, frame = 0
 296              		@ frame_needed = 1, uses_anonymous_args = 0
 297 0000 80B5     		push	{r7, lr}
 298              		.cfi_def_cfa_offset 8
 299              		.cfi_offset 7, -8
 300              		.cfi_offset 14, -4
 301 0002 00AF     		add	r7, sp, #0
 302              		.cfi_def_cfa_register 7
 167:.\ultrasonic.c ****     // reset uart_received_string to zero
 168:.\ultrasonic.c ****    
 169:.\ultrasonic.c **** /*    uint8 i = 0;
 170:.\ultrasonic.c ****     
 171:.\ultrasonic.c ****     for(i = 0; i < MAX_STRING_LENGTH; i++){
 172:.\ultrasonic.c ****         uart_ultrasonic_received_string[i] = 0;
 173:.\ultrasonic.c ****     }
 174:.\ultrasonic.c **** */    
 175:.\ultrasonic.c ****     memset(&uart_ultrasonic_received_string[0],0,sizeof(uart_ultrasonic_received_string));
 303              		.loc 1 175 0
 304 0004 0548     		ldr	r0, .L19
 305 0006 0021     		movs	r1, #0
 306 0008 8022     		movs	r2, #128
 307 000a FFF7FEFF 		bl	memset
 176:.\ultrasonic.c ****     uart_ultrasonic_string_index = 0;
 308              		.loc 1 176 0
 309 000e 044B     		ldr	r3, .L19+4
 310 0010 0022     		movs	r2, #0
 311 0012 1A70     		strb	r2, [r3]
 177:.\ultrasonic.c ****     uart_ultrasonic_ClearRxBuffer();
 312              		.loc 1 177 0
 313 0014 FFF7FEFF 		bl	uart_ultrasonic_ClearRxBuffer
 178:.\ultrasonic.c **** }
 314              		.loc 1 178 0
 315 0018 80BD     		pop	{r7, pc}
 316              	.L20:
 317 001a 00BF     		.align	2
 318              	.L19:
 319 001c 00000000 		.word	uart_ultrasonic_received_string
 320 0020 00000000 		.word	uart_ultrasonic_string_index
 321              		.cfi_endproc
 322              	.LFE61:
 323              		.size	uart_ultrasonic_string_reset, .-uart_ultrasonic_string_reset
 324              		.section	.text.isr_byte_ultrasonic_rx,"ax",%progbits
 325              		.align	2
 326              		.global	isr_byte_ultrasonic_rx
 327              		.thumb
 328              		.thumb_func
 329              		.type	isr_byte_ultrasonic_rx, %function
 330              	isr_byte_ultrasonic_rx:
 331              	.LFB62:
ARM GAS  C:\Users\BRANKO~1\AppData\Local\Temp\cc7i1Lnk.s 			page 10


 179:.\ultrasonic.c **** 
 180:.\ultrasonic.c **** 
 181:.\ultrasonic.c **** CY_ISR(isr_byte_ultrasonic_rx){
 332              		.loc 1 181 0
 333              		.cfi_startproc
 334              		@ args = 0, pretend = 0, frame = 8
 335              		@ frame_needed = 1, uses_anonymous_args = 0
 336 0000 80B5     		push	{r7, lr}
 337              		.cfi_def_cfa_offset 8
 338              		.cfi_offset 7, -8
 339              		.cfi_offset 14, -4
 340 0002 82B0     		sub	sp, sp, #8
 341              		.cfi_def_cfa_offset 16
 342 0004 00AF     		add	r7, sp, #0
 343              		.cfi_def_cfa_register 7
 182:.\ultrasonic.c ****     // hold the next char in the rx register as a temporary variable
 183:.\ultrasonic.c ****     uint8 rx_char_hold = uart_ultrasonic_GetChar();
 344              		.loc 1 183 0
 345 0006 FFF7FEFF 		bl	uart_ultrasonic_GetChar
 346 000a 0346     		mov	r3, r0
 347 000c FB71     		strb	r3, [r7, #7]
 184:.\ultrasonic.c ****     
 185:.\ultrasonic.c ****     // store the char in uart_received_string
 186:.\ultrasonic.c ****     if(rx_char_hold) {
 348              		.loc 1 186 0
 349 000e FB79     		ldrb	r3, [r7, #7]	@ zero_extendqisi2
 350 0010 002B     		cmp	r3, #0
 351 0012 13D0     		beq	.L21
 187:.\ultrasonic.c ****         uart_ultrasonic_received_string[uart_ultrasonic_string_index] = rx_char_hold;
 352              		.loc 1 187 0
 353 0014 0B4B     		ldr	r3, .L23
 354 0016 1B78     		ldrb	r3, [r3]	@ zero_extendqisi2
 355 0018 0B4A     		ldr	r2, .L23+4
 356 001a F979     		ldrb	r1, [r7, #7]
 357 001c D154     		strb	r1, [r2, r3]
 188:.\ultrasonic.c ****         uart_ultrasonic_string_index++;
 358              		.loc 1 188 0
 359 001e 094B     		ldr	r3, .L23
 360 0020 1B78     		ldrb	r3, [r3]	@ zero_extendqisi2
 361 0022 0133     		adds	r3, r3, #1
 362 0024 DAB2     		uxtb	r2, r3
 363 0026 074B     		ldr	r3, .L23
 364 0028 1A70     		strb	r2, [r3]
 189:.\ultrasonic.c ****         
 190:.\ultrasonic.c ****         if (uart_ultrasonic_string_index >= MAX_STRING_LENGTH) {
 365              		.loc 1 190 0
 366 002a 064B     		ldr	r3, .L23
 367 002c 1B78     		ldrb	r3, [r3]	@ zero_extendqisi2
 368 002e DBB2     		uxtb	r3, r3
 369 0030 5BB2     		sxtb	r3, r3
 370 0032 002B     		cmp	r3, #0
 371 0034 02DA     		bge	.L21
 191:.\ultrasonic.c ****             uart_ultrasonic_string_index = 0; // reset the index to prevent an overflow
 372              		.loc 1 191 0
 373 0036 034B     		ldr	r3, .L23
 374 0038 0022     		movs	r2, #0
 375 003a 1A70     		strb	r2, [r3]
ARM GAS  C:\Users\BRANKO~1\AppData\Local\Temp\cc7i1Lnk.s 			page 11


 376              	.L21:
 192:.\ultrasonic.c ****         }
 193:.\ultrasonic.c ****     }   
 194:.\ultrasonic.c **** }
 377              		.loc 1 194 0
 378 003c 0837     		adds	r7, r7, #8
 379 003e BD46     		mov	sp, r7
 380              		@ sp needed
 381 0040 80BD     		pop	{r7, pc}
 382              	.L24:
 383 0042 00BF     		.align	2
 384              	.L23:
 385 0044 00000000 		.word	uart_ultrasonic_string_index
 386 0048 00000000 		.word	uart_ultrasonic_received_string
 387              		.cfi_endproc
 388              	.LFE62:
 389              		.size	isr_byte_ultrasonic_rx, .-isr_byte_ultrasonic_rx
 390              		.text
 391              	.Letext0:
 392              		.file 2 "c:\\program files (x86)\\cypress\\psoc creator\\3.1\\psoc creator\\import\\gnu_cs\\arm\\4
 393              		.file 3 "c:\\program files (x86)\\cypress\\psoc creator\\3.1\\psoc creator\\import\\gnu_cs\\arm\\4
 394              		.file 4 ".\\Generated_Source\\PSoC5/cytypes.h"
 395              		.file 5 ".\\ultrasonic.h"
 396              		.file 6 ".\\Generated_Source\\PSoC5/core_cm3.h"