ARM GAS  C:\Users\cps\AppData\Local\Temp\ccT8WRzG.s 			page 1


   1              		.syntax unified
   2              		.cpu cortex-m3
   3              		.fpu softvfp
   4              		.eabi_attribute 20, 1
   5              		.eabi_attribute 21, 1
   6              		.eabi_attribute 23, 3
   7              		.eabi_attribute 24, 1
   8              		.eabi_attribute 25, 1
   9              		.eabi_attribute 26, 1
  10              		.eabi_attribute 30, 6
  11              		.eabi_attribute 34, 1
  12              		.eabi_attribute 18, 4
  13              		.thumb
  14              		.file	"main.c"
  15              		.text
  16              	.Ltext0:
  17              		.cfi_sections	.debug_frame
  18              		.section	.text.main,"ax",%progbits
  19              		.align	2
  20              		.global	main
  21              		.thumb
  22              		.thumb_func
  23              		.type	main, %function
  24              	main:
  25              	.LFB56:
  26              		.file 1 ".\\main.c"
   1:.\main.c      **** /* ========================================
   2:.\main.c      ****  *
   3:.\main.c      ****  * Copyright YOUR COMPANY, THE YEAR
   4:.\main.c      ****  * All Rights Reserved
   5:.\main.c      ****  * UNPUBLISHED, LICENSED SOFTWARE.
   6:.\main.c      ****  *
   7:.\main.c      ****  * CONFIDENTIAL AND PROPRIETARY INFORMATION
   8:.\main.c      ****  * WHICH IS THE PROPERTY OF your company.
   9:.\main.c      ****  *
  10:.\main.c      ****  * ========================================
  11:.\main.c      **** */
  12:.\main.c      **** //#include <device.h>
  13:.\main.c      **** #include <project.h>
  14:.\main.c      **** #include "modem.h"
  15:.\main.c      **** #include "utilities.h"
  16:.\main.c      **** #include "packet.h"
  17:.\main.c      **** 
  18:.\main.c      **** 
  19:.\main.c      **** CY_ISR_PROTO(Wakeup_ISR);
  20:.\main.c      **** void Goto_Sleep();
  21:.\main.c      **** 
  22:.\main.c      **** int main()
  23:.\main.c      **** {
  27              		.loc 1 23 0
  28              		.cfi_startproc
  29              		@ args = 0, pretend = 0, frame = 8
  30              		@ frame_needed = 1, uses_anonymous_args = 0
  31 0000 80B5     		push	{r7, lr}
  32              		.cfi_def_cfa_offset 8
  33              		.cfi_offset 7, -8
  34              		.cfi_offset 14, -4
ARM GAS  C:\Users\cps\AppData\Local\Temp\ccT8WRzG.s 			page 2


  35 0002 82B0     		sub	sp, sp, #8
  36              		.cfi_def_cfa_offset 16
  37 0004 00AF     		add	r7, sp, #0
  38              		.cfi_def_cfa_register 7
  24:.\main.c      ****     /* Place your initialization/startup code here (e.g. MyInst_Start()) */
  25:.\main.c      ****     CyGlobalIntEnable; /* Uncomment this line to enable global interrupts. */
  39              		.loc 1 25 0
  40              	@ 25 ".\main.c" 1
  41 0006 62B6     		CPSIE   i
  42              	@ 0 "" 2
  26:.\main.c      **** 	
  27:.\main.c      **** 
  28:.\main.c      **** 	sleep_isr_StartEx(Wakeup_ISR); // Start Sleep ISR
  43              		.loc 1 28 0
  44              		.thumb
  45 0008 1248     		ldr	r0, .L4
  46 000a FFF7FEFF 		bl	sleep_isr_StartEx
  29:.\main.c      **** 	SleepTimer_SetInterval(SleepTimer__CTW_256_MS);
  47              		.loc 1 29 0
  48 000e 0820     		movs	r0, #8
  49 0010 FFF7FEFF 		bl	SleepTimer_SetInterval
  30:.\main.c      **** 	SleepTimer_Start();			   // Start SleepTimer Compnent	
  50              		.loc 1 30 0
  51 0014 FFF7FEFF 		bl	SleepTimer_Start
  31:.\main.c      ****     
  32:.\main.c      **** 
  33:.\main.c      **** 	// Number of sleep wakeups before we process a simple task
  34:.\main.c      **** 	//Total time in mili seconds = N * SleepInterval (e.g. 4*256 = 1 second)
  35:.\main.c      **** 	ScheduleSimpleTask(4u); 
  52              		.loc 1 35 0
  53 0018 0420     		movs	r0, #4
  54 001a FFF7FEFF 		bl	ScheduleSimpleTask
  36:.\main.c      **** 
  37:.\main.c      **** 	modem_start();
  55              		.loc 1 37 0
  56 001e FFF7FEFF 		bl	modem_start
  38:.\main.c      **** 	modem_get_serial_number();
  57              		.loc 1 38 0
  58 0022 FFF7FEFF 		bl	modem_get_serial_number
  39:.\main.c      **** 	uint8 i = modem_connect();
  59              		.loc 1 39 0
  60 0026 FFF7FEFF 		bl	modem_connect
  61 002a 0346     		mov	r3, r0
  62 002c FB71     		strb	r3, [r7, #7]
  40:.\main.c      **** 	modem_get_nertwork_time();
  63              		.loc 1 40 0
  64 002e FFF7FEFF 		bl	modem_get_nertwork_time
  65              	.L3:
  41:.\main.c      **** 	
  42:.\main.c      ****     for(;;)
  43:.\main.c      **** 	{
  44:.\main.c      **** 		if( SimpleSchedulerTaskReady() ){
  66              		.loc 1 44 0
  67 0032 FFF7FEFF 		bl	SimpleSchedulerTaskReady
  68 0036 0346     		mov	r3, r0
  69 0038 002B     		cmp	r3, #0
  70 003a 0AD0     		beq	.L2
ARM GAS  C:\Users\cps\AppData\Local\Temp\ccT8WRzG.s 			page 3


  45:.\main.c      **** 			LED_Write(!LED_Read());
  71              		.loc 1 45 0
  72 003c FFF7FEFF 		bl	LED_Read
  73 0040 0346     		mov	r3, r0
  74 0042 002B     		cmp	r3, #0
  75 0044 0CBF     		ite	eq
  76 0046 0123     		moveq	r3, #1
  77 0048 0023     		movne	r3, #0
  78 004a DBB2     		uxtb	r3, r3
  79 004c 1846     		mov	r0, r3
  80 004e FFF7FEFF 		bl	LED_Write
  81              	.L2:
  46:.\main.c      **** 		}/* If not ready, update the counter for the sleep timer */
  47:.\main.c      **** 		else {
  48:.\main.c      **** 			//Goto_Sleep();
  49:.\main.c      **** 		}
  50:.\main.c      **** 		
  51:.\main.c      **** 	}
  82              		.loc 1 51 0
  83 0052 EEE7     		b	.L3
  84              	.L5:
  85              		.align	2
  86              	.L4:
  87 0054 00000000 		.word	Wakeup_ISR
  88              		.cfi_endproc
  89              	.LFE56:
  90              		.size	main, .-main
  91              		.section	.text.Wakeup_ISR,"ax",%progbits
  92              		.align	2
  93              		.global	Wakeup_ISR
  94              		.thumb
  95              		.thumb_func
  96              		.type	Wakeup_ISR, %function
  97              	Wakeup_ISR:
  98              	.LFB57:
  52:.\main.c      **** 		
  53:.\main.c      **** 		
  54:.\main.c      **** 		/*
  55:.\main.c      **** 		char   data_packet[MAX_PACKET_LENGTH] = {0}, test_csv[100] = {0};
  56:.\main.c      **** int    iter, sign;
  57:.\main.c      **** uint8  loops, packet_ready;
  58:.\main.c      **** uint16 packet_len;
  59:.\main.c      **** 		    // Initialize variables
  60:.\main.c      **** 	loops			= 0u;
  61:.\main.c      **** 	packet_ready	= 0u;
  62:.\main.c      **** 	iter            = 0;
  63:.\main.c      ****     sign            = 1;
  64:.\main.c      ****     packet_len      = 0u;*/
  65:.\main.c      **** 		
  66:.\main.c      **** 		
  67:.\main.c      **** 		
  68:.\main.c      **** 		
  69:.\main.c      **** 		
  70:.\main.c      **** 		/*if ( ready == 1u ){
  71:.\main.c      **** 			iter = 0;
  72:.\main.c      **** 			if (clear_packet(data_packet)) {
  73:.\main.c      ****                 packet_len = 0u;
ARM GAS  C:\Users\cps\AppData\Local\Temp\ccT8WRzG.s 			page 4


  74:.\main.c      ****                 packet_ready = 0u;
  75:.\main.c      ****             }
  76:.\main.c      **** 			
  77:.\main.c      **** 			blink_LED(3u);
  78:.\main.c      **** 			
  79:.\main.c      **** 			// Set up the modem and connect to network					
  80:.\main.c      **** 			LED_Write(!LED_Read());
  81:.\main.c      **** 			
  82:.\main.c      **** 			if (modem_startup()) {
  83:.\main.c      **** 				//modem_get_serial_number();
  84:.\main.c      **** 
  85:.\main.c      **** 				
  86:.\main.c      **** 				// Send a packet
  87:.\main.c      **** 				LED_Write(!LED_Read());	
  88:.\main.c      **** //				sprintf(data_packet,"%s%s, %u\r\n", data_packet,
  89:.\main.c      **** //	        		"tmp", loops);                                    DON'T NEED TMP  
  90:.\main.c      **** 				ready = modem_send_packet(data_packet);
  91:.\main.c      **** 				CyDelay(5000u);
  92:.\main.c      **** 				
  93:.\main.c      **** 				if (clear_packet(data_packet)) {
  94:.\main.c      **** 	                packet_len = 0u;
  95:.\main.c      **** 	                packet_ready = 0u;
  96:.\main.c      **** 	            }
  97:.\main.c      **** 				
  98:.\main.c      **** 				// Request a packet
  99:.\main.c      **** 				LED_Write(!LED_Read());	
 100:.\main.c      **** 				if( modem_get_packet(data_packet,"lock,tmp") ){
 101:.\main.c      **** 				
 102:.\main.c      **** 
 103:.\main.c      **** 				}								
 104:.\main.c      **** 				
 105:.\main.c      **** 				
 106:.\main.c      **** 				//modem_power_off();
 107:.\main.c      **** 				//modem_stop();
 108:.\main.c      **** 				
 109:.\main.c      **** 			}
 110:.\main.c      **** 			modem_shutdown();
 111:.\main.c      **** 			
 112:.\main.c      **** 			loops += 10;
 113:.\main.c      **** 			ready = 0u;
 114:.\main.c      **** 		}*/
 115:.\main.c      **** 
 116:.\main.c      **** }
 117:.\main.c      **** 
 118:.\main.c      **** CY_ISR(Wakeup_ISR)
 119:.\main.c      **** {
  99              		.loc 1 119 0
 100              		.cfi_startproc
 101              		@ args = 0, pretend = 0, frame = 0
 102              		@ frame_needed = 1, uses_anonymous_args = 0
 103 0000 80B5     		push	{r7, lr}
 104              		.cfi_def_cfa_offset 8
 105              		.cfi_offset 7, -8
 106              		.cfi_offset 14, -4
 107 0002 00AF     		add	r7, sp, #0
 108              		.cfi_def_cfa_register 7
 120:.\main.c      ****     /***************************************************************************
ARM GAS  C:\Users\cps\AppData\Local\Temp\ccT8WRzG.s 			page 5


 121:.\main.c      ****     * This function must always be called (when the Sleep Timer's interrupt
 122:.\main.c      ****     * is disabled or enabled) after wake up to clear the ctw_int status bit.
 123:.\main.c      ****     * It is required to call SleepTimer_GetStatus() within 1 ms (1 clock cycle
 124:.\main.c      ****     * of the ILO) after CTW event occurred.
 125:.\main.c      ****     ***************************************************************************/
 126:.\main.c      ****     SleepTimer_GetStatus();
 109              		.loc 1 126 0
 110 0004 FFF7FEFF 		bl	SleepTimer_GetStatus
 127:.\main.c      **** 	SleepCounterUpdate();
 111              		.loc 1 127 0
 112 0008 FFF7FEFF 		bl	SleepCounterUpdate
 128:.\main.c      **** 	
 129:.\main.c      **** }
 113              		.loc 1 129 0
 114 000c 80BD     		pop	{r7, pc}
 115              		.cfi_endproc
 116              	.LFE57:
 117              		.size	Wakeup_ISR, .-Wakeup_ISR
 118 000e 00BF     		.section	.text.Goto_Sleep,"ax",%progbits
 119              		.align	2
 120              		.global	Goto_Sleep
 121              		.thumb
 122              		.thumb_func
 123              		.type	Goto_Sleep, %function
 124              	Goto_Sleep:
 125              	.LFB58:
 130:.\main.c      **** 
 131:.\main.c      **** void Goto_Sleep(){
 126              		.loc 1 131 0
 127              		.cfi_startproc
 128              		@ args = 0, pretend = 0, frame = 0
 129              		@ frame_needed = 1, uses_anonymous_args = 0
 130 0000 80B5     		push	{r7, lr}
 131              		.cfi_def_cfa_offset 8
 132              		.cfi_offset 7, -8
 133              		.cfi_offset 14, -4
 134 0002 00AF     		add	r7, sp, #0
 135              		.cfi_def_cfa_register 7
 132:.\main.c      **** 	
 133:.\main.c      **** 			/* Prepares system clocks for the Sleep mode */
 134:.\main.c      **** 			//sleep all components
 135:.\main.c      **** 			modem_sleep();
 136              		.loc 1 135 0
 137 0004 FFF7FEFF 		bl	modem_sleep
 136:.\main.c      **** 			
 137:.\main.c      **** 			
 138:.\main.c      **** 			CyPmSaveClocks();
 138              		.loc 1 138 0
 139 0008 FFF7FEFF 		bl	CyPmSaveClocks
 139:.\main.c      **** 	        CyPmSleep(PM_SLEEP_TIME_NONE, PM_SLEEP_SRC_CTW);
 140              		.loc 1 139 0
 141 000c 0020     		movs	r0, #0
 142 000e 4FF40061 		mov	r1, #2048
 143 0012 FFF7FEFF 		bl	CyPmSleep
 140:.\main.c      **** 	        CyPmRestoreClocks();
 144              		.loc 1 140 0
 145 0016 FFF7FEFF 		bl	CyPmRestoreClocks
ARM GAS  C:\Users\cps\AppData\Local\Temp\ccT8WRzG.s 			page 6


 141:.\main.c      **** 			
 142:.\main.c      **** 			
 143:.\main.c      **** 			//wakeup all components
 144:.\main.c      **** 			modem_wakeup();
 146              		.loc 1 144 0
 147 001a FFF7FEFF 		bl	modem_wakeup
 145:.\main.c      **** }
 148              		.loc 1 145 0
 149 001e 80BD     		pop	{r7, pc}
 150              		.cfi_endproc
 151              	.LFE58:
 152              		.size	Goto_Sleep, .-Goto_Sleep
 153              		.text
 154              	.Letext0:
 155              		.file 2 "c:\\program files (x86)\\cypress\\psoc creator\\3.3\\psoc creator\\import\\gnu\\arm\\4.9.
 156              		.file 3 "c:\\program files (x86)\\cypress\\psoc creator\\3.3\\psoc creator\\import\\gnu\\arm\\4.9.
 157              		.file 4 "Generated_Source\\PSoC5/cytypes.h"
 158              		.file 5 "Generated_Source\\PSoC5/core_cm3.h"