ARM GAS  C:\Users\cps\AppData\Local\Temp\ccCypFl7.s 			page 1


   1              		.syntax unified
   2              		.cpu cortex-m3
   3              		.fpu softvfp
   4              		.eabi_attribute 20, 1
   5              		.eabi_attribute 21, 1
   6              		.eabi_attribute 23, 3
   7              		.eabi_attribute 24, 1
   8              		.eabi_attribute 25, 1
   9              		.eabi_attribute 26, 1
  10              		.eabi_attribute 30, 6
  11              		.eabi_attribute 34, 1
  12              		.eabi_attribute 18, 4
  13              		.thumb
  14              		.file	"modem.c"
  15              		.text
  16              	.Ltext0:
  17              		.cfi_sections	.debug_frame
  18              		.comm	minuteAlarmInterval,1,1
  19              		.comm	modem_state,1,1
  20              		.global	lock_acquired
  21              		.bss
  22              		.type	lock_acquired, %object
  23              		.size	lock_acquired, 1
  24              	lock_acquired:
  25 0000 00       		.space	1
  26              		.global	ready
  27              		.type	ready, %object
  28              		.size	ready, 1
  29              	ready:
  30 0001 00       		.space	1
  31              		.global	uart_string_index
  32              		.align	1
  33              		.type	uart_string_index, %object
  34              		.size	uart_string_index, 2
  35              	uart_string_index:
  36 0002 0000     		.space	2
  37              		.comm	feed_id,4,4
  38              		.global	uart_received_string
  39              		.align	2
  40              		.type	uart_received_string, %object
  41              		.size	uart_received_string, 1000
  42              	uart_received_string:
  43 0004 00000000 		.space	1000
  43      00000000 
  43      00000000 
  43      00000000 
  43      00000000 
  44              		.comm	api_key,4,4
  45              		.global	modem_apn
  46              		.section	.rodata
  47              		.align	2
  48              	.LC0:
  49 0000 6570632E 		.ascii	"epc.tmobile.com\000"
  49      746D6F62 
  49      696C652E 
  49      636F6D00 
  50              		.data
ARM GAS  C:\Users\cps\AppData\Local\Temp\ccCypFl7.s 			page 2


  51              		.align	2
  52              		.type	modem_apn, %object
  53              		.size	modem_apn, 4
  54              	modem_apn:
  55 0000 00000000 		.word	.LC0
  56              		.section	.text.modem_set_api_feed,"ax",%progbits
  57              		.align	2
  58              		.global	modem_set_api_feed
  59              		.thumb
  60              		.thumb_func
  61              		.type	modem_set_api_feed, %function
  62              	modem_set_api_feed:
  63              	.LFB56:
  64              		.file 1 ".\\modem.c"
   1:.\modem.c     **** ///* ========================================
   2:.\modem.c     **** // *
   3:.\modem.c     **** // * Copyright YOUR COMPANY, THE YEAR
   4:.\modem.c     **** // * All Rights Reserved
   5:.\modem.c     **** // * UNPUBLISHED, LICENSED SOFTWARE.
   6:.\modem.c     **** // *
   7:.\modem.c     **** // * CONFIDENTIAL AND PROPRIETARY INFORMATION
   8:.\modem.c     **** // * WHICH IS THE PROPERTY OF your company.
   9:.\modem.c     **** // *
  10:.\modem.c     **** // * ========================================
  11:.\modem.c     **** //*/
  12:.\modem.c     **** //
  13:.\modem.c     **** 
  14:.\modem.c     **** #include <project.h>
  15:.\modem.c     **** #include <stdio.h>
  16:.\modem.c     **** #include <string.h>
  17:.\modem.c     **** #include "modem.h"
  18:.\modem.c     **** #include "packet.h"
  19:.\modem.c     **** //#include "debug.h" TODO: ACCOUNT FOR THIS
  20:.\modem.c     **** 
  21:.\modem.c     **** // declare varaiables
  22:.\modem.c     **** uint8  modem_state, lock_acquired = 0u, ready = 0u;
  23:.\modem.c     **** uint16 uart_string_index = 0u;
  24:.\modem.c     **** uint32 feed_id;
  25:.\modem.c     **** char   uart_received_string[1000] = {0}, *api_key;
  26:.\modem.c     **** char*  modem_apn = "epc.tmobile.com";
  27:.\modem.c     **** 
  28:.\modem.c     **** 
  29:.\modem.c     **** 
  30:.\modem.c     **** // prototype modem interrupt
  31:.\modem.c     **** CY_ISR_PROTO(Telit_isr_rx);
  32:.\modem.c     **** void uart_string_reset();
  33:.\modem.c     **** 
  34:.\modem.c     **** uint8 modem_set_api_feed(uint32 id, char* key){
  65              		.loc 1 34 0
  66              		.cfi_startproc
  67              		@ args = 0, pretend = 0, frame = 8
  68              		@ frame_needed = 1, uses_anonymous_args = 0
  69              		@ link register save eliminated.
  70 0000 80B4     		push	{r7}
  71              		.cfi_def_cfa_offset 4
  72              		.cfi_offset 7, -4
  73 0002 83B0     		sub	sp, sp, #12
ARM GAS  C:\Users\cps\AppData\Local\Temp\ccCypFl7.s 			page 3


  74              		.cfi_def_cfa_offset 16
  75 0004 00AF     		add	r7, sp, #0
  76              		.cfi_def_cfa_register 7
  77 0006 7860     		str	r0, [r7, #4]
  78 0008 3960     		str	r1, [r7]
  35:.\modem.c     ****     feed_id = id;
  79              		.loc 1 35 0
  80 000a 064A     		ldr	r2, .L3
  81 000c 7B68     		ldr	r3, [r7, #4]
  82 000e 1360     		str	r3, [r2]
  36:.\modem.c     ****     api_key = key;
  83              		.loc 1 36 0
  84 0010 054A     		ldr	r2, .L3+4
  85 0012 3B68     		ldr	r3, [r7]
  86 0014 1360     		str	r3, [r2]
  37:.\modem.c     ****     return 1u;
  87              		.loc 1 37 0
  88 0016 0123     		movs	r3, #1
  38:.\modem.c     **** }
  89              		.loc 1 38 0
  90 0018 1846     		mov	r0, r3
  91 001a 0C37     		adds	r7, r7, #12
  92              		.cfi_def_cfa_offset 4
  93 001c BD46     		mov	sp, r7
  94              		.cfi_def_cfa_register 13
  95              		@ sp needed
  96 001e 5DF8047B 		ldr	r7, [sp], #4
  97              		.cfi_restore 7
  98              		.cfi_def_cfa_offset 0
  99 0022 7047     		bx	lr
 100              	.L4:
 101              		.align	2
 102              	.L3:
 103 0024 00000000 		.word	feed_id
 104 0028 00000000 		.word	api_key
 105              		.cfi_endproc
 106              	.LFE56:
 107              		.size	modem_set_api_feed, .-modem_set_api_feed
 108              		.section	.rodata
 109              		.align	2
 110              	.LC1:
 111 0010 41542353 		.ascii	"AT#SHDN\015\000"
 111      48444E0D 
 111      00
 112 0019 000000   		.align	2
 113              	.LC2:
 114 001c 4F4B00   		.ascii	"OK\000"
 115              		.section	.text.modem_shutdown,"ax",%progbits
 116              		.align	2
 117              		.global	modem_shutdown
 118              		.thumb
 119              		.thumb_func
 120              		.type	modem_shutdown, %function
 121              	modem_shutdown:
 122              	.LFB57:
  39:.\modem.c     **** 
  40:.\modem.c     **** // startup sequence to power on the modem, start modem
ARM GAS  C:\Users\cps\AppData\Local\Temp\ccCypFl7.s 			page 4


  41:.\modem.c     **** // components and prepare for sending/receiving messages
  42:.\modem.c     **** // over the network
  43:.\modem.c     **** /*uint8   modem_connect_with_retries(uint8 retries) {
  44:.\modem.c     **** 	uint8 iter = 0;
  45:.\modem.c     **** 	
  46:.\modem.c     **** 	while( iter < retries) {
  47:.\modem.c     **** 
  48:.\modem.c     **** 		hardware_specific_modem_setup();
  49:.\modem.c     **** 		
  50:.\modem.c     **** 		if ( modem_connect() ) {
  51:.\modem.c     **** 			return 1u;
  52:.\modem.c     **** 		}
  53:.\modem.c     **** 		else {
  54:.\modem.c     **** 			modem_reset();
  55:.\modem.c     **** 		}
  56:.\modem.c     **** 		
  57:.\modem.c     **** 		iter++;
  58:.\modem.c     **** 	}
  59:.\modem.c     **** 	
  60:.\modem.c     **** 	// Timed out -- Failed to connect
  61:.\modem.c     **** 	return 0u;
  62:.\modem.c     **** }*/
  63:.\modem.c     **** 
  64:.\modem.c     **** // shutdown sequence to stop modem components
  65:.\modem.c     **** // and power down the modem
  66:.\modem.c     **** uint8 	modem_shutdown() {
 123              		.loc 1 66 0
 124              		.cfi_startproc
 125              		@ args = 0, pretend = 0, frame = 0
 126              		@ frame_needed = 1, uses_anonymous_args = 0
 127 0000 80B5     		push	{r7, lr}
 128              		.cfi_def_cfa_offset 8
 129              		.cfi_offset 7, -8
 130              		.cfi_offset 14, -4
 131 0002 00AF     		add	r7, sp, #0
 132              		.cfi_def_cfa_register 7
  67:.\modem.c     **** 	if(at_write_command("AT#SHDN\r","OK",1000u) == 1u){      
 133              		.loc 1 67 0
 134 0004 0648     		ldr	r0, .L8
 135 0006 0749     		ldr	r1, .L8+4
 136 0008 4FF47A72 		mov	r2, #1000
 137 000c FFF7FEFF 		bl	at_write_command
 138 0010 0346     		mov	r3, r0
 139 0012 012B     		cmp	r3, #1
 140 0014 01D1     		bne	.L6
  68:.\modem.c     ****         return 1u;
 141              		.loc 1 68 0
 142 0016 0123     		movs	r3, #1
 143 0018 00E0     		b	.L7
 144              	.L6:
  69:.\modem.c     ****     }
  70:.\modem.c     **** 	return 0u;
 145              		.loc 1 70 0
 146 001a 0023     		movs	r3, #0
 147              	.L7:
  71:.\modem.c     **** }
 148              		.loc 1 71 0
ARM GAS  C:\Users\cps\AppData\Local\Temp\ccCypFl7.s 			page 5


 149 001c 1846     		mov	r0, r3
 150 001e 80BD     		pop	{r7, pc}
 151              	.L9:
 152              		.align	2
 153              	.L8:
 154 0020 10000000 		.word	.LC1
 155 0024 1C000000 		.word	.LC2
 156              		.cfi_endproc
 157              	.LFE57:
 158              		.size	modem_shutdown, .-modem_shutdown
 159              		.section	.text.modem_rtc_alert_fired,"ax",%progbits
 160              		.align	2
 161              		.global	modem_rtc_alert_fired
 162              		.thumb
 163              		.thumb_func
 164              		.type	modem_rtc_alert_fired, %function
 165              	modem_rtc_alert_fired:
 166              	.LFB58:
  72:.\modem.c     **** 
  73:.\modem.c     **** uint8 modem_rtc_alert_fired(){
 167              		.loc 1 73 0
 168              		.cfi_startproc
 169              		@ args = 0, pretend = 0, frame = 0
 170              		@ frame_needed = 1, uses_anonymous_args = 0
 171              		@ link register save eliminated.
 172 0000 80B4     		push	{r7}
 173              		.cfi_def_cfa_offset 4
 174              		.cfi_offset 7, -4
 175 0002 00AF     		add	r7, sp, #0
 176              		.cfi_def_cfa_register 7
  74:.\modem.c     **** 	
  75:.\modem.c     **** 	return 0u;
 177              		.loc 1 75 0
 178 0004 0023     		movs	r3, #0
  76:.\modem.c     **** }
 179              		.loc 1 76 0
 180 0006 1846     		mov	r0, r3
 181 0008 BD46     		mov	sp, r7
 182              		.cfi_def_cfa_register 13
 183              		@ sp needed
 184 000a 5DF8047B 		ldr	r7, [sp], #4
 185              		.cfi_restore 7
 186              		.cfi_def_cfa_offset 0
 187 000e 7047     		bx	lr
 188              		.cfi_endproc
 189              	.LFE58:
 190              		.size	modem_rtc_alert_fired, .-modem_rtc_alert_fired
 191              		.section	.rodata
 192 001f 00       		.align	2
 193              	.LC3:
 194 0020 41542B43 		.ascii	"AT+CFUN=1\015\000"
 194      46554E3D 
 194      310D00
 195              		.section	.text.modem_set_non_cyclic_sleep,"ax",%progbits
 196              		.align	2
 197              		.global	modem_set_non_cyclic_sleep
 198              		.thumb
ARM GAS  C:\Users\cps\AppData\Local\Temp\ccCypFl7.s 			page 6


 199              		.thumb_func
 200              		.type	modem_set_non_cyclic_sleep, %function
 201              	modem_set_non_cyclic_sleep:
 202              	.LFB59:
  77:.\modem.c     **** 
  78:.\modem.c     **** uint8 modem_set_non_cyclic_sleep(){
 203              		.loc 1 78 0
 204              		.cfi_startproc
 205              		@ args = 0, pretend = 0, frame = 0
 206              		@ frame_needed = 1, uses_anonymous_args = 0
 207 0000 80B5     		push	{r7, lr}
 208              		.cfi_def_cfa_offset 8
 209              		.cfi_offset 7, -8
 210              		.cfi_offset 14, -4
 211 0002 00AF     		add	r7, sp, #0
 212              		.cfi_def_cfa_register 7
  79:.\modem.c     **** 	if(at_write_command("AT+CFUN=1\r","OK",1000u) == 1u){      
 213              		.loc 1 79 0
 214 0004 0648     		ldr	r0, .L15
 215 0006 0749     		ldr	r1, .L15+4
 216 0008 4FF47A72 		mov	r2, #1000
 217 000c FFF7FEFF 		bl	at_write_command
 218 0010 0346     		mov	r3, r0
 219 0012 012B     		cmp	r3, #1
 220 0014 01D1     		bne	.L13
  80:.\modem.c     ****         return 1u;
 221              		.loc 1 80 0
 222 0016 0123     		movs	r3, #1
 223 0018 00E0     		b	.L14
 224              	.L13:
  81:.\modem.c     ****     }
  82:.\modem.c     **** 	return 0u;
 225              		.loc 1 82 0
 226 001a 0023     		movs	r3, #0
 227              	.L14:
  83:.\modem.c     **** }
 228              		.loc 1 83 0
 229 001c 1846     		mov	r0, r3
 230 001e 80BD     		pop	{r7, pc}
 231              	.L16:
 232              		.align	2
 233              	.L15:
 234 0020 20000000 		.word	.LC3
 235 0024 1C000000 		.word	.LC2
 236              		.cfi_endproc
 237              	.LFE59:
 238              		.size	modem_set_non_cyclic_sleep, .-modem_set_non_cyclic_sleep
 239              		.section	.text.modem_start,"ax",%progbits
 240              		.align	2
 241              		.global	modem_start
 242              		.thumb
 243              		.thumb_func
 244              		.type	modem_start, %function
 245              	modem_start:
 246              	.LFB60:
  84:.\modem.c     **** 
  85:.\modem.c     **** 
ARM GAS  C:\Users\cps\AppData\Local\Temp\ccCypFl7.s 			page 7


  86:.\modem.c     **** // initialize modem
  87:.\modem.c     **** void modem_start(){
 247              		.loc 1 87 0
 248              		.cfi_startproc
 249              		@ args = 0, pretend = 0, frame = 0
 250              		@ frame_needed = 1, uses_anonymous_args = 0
 251 0000 80B5     		push	{r7, lr}
 252              		.cfi_def_cfa_offset 8
 253              		.cfi_offset 7, -8
 254              		.cfi_offset 14, -4
 255 0002 00AF     		add	r7, sp, #0
 256              		.cfi_def_cfa_register 7
  88:.\modem.c     ****     Telit_UART_Start();
 257              		.loc 1 88 0
 258 0004 FFF7FEFF 		bl	Telit_UART_Start
  89:.\modem.c     ****     //Telit_PWR_Write(0u);        // 0u Enables power to cell module
  90:.\modem.c     **** 	Telit_ON_Write(1u);			// Prep modem for "push button"
 259              		.loc 1 90 0
 260 0008 0120     		movs	r0, #1
 261 000a FFF7FEFF 		bl	Telit_ON_Write
  91:.\modem.c     **** 	Telit_RST_Write(1u);		// Prep modem for "push button"
 262              		.loc 1 91 0
 263 000e 0120     		movs	r0, #1
 264 0010 FFF7FEFF 		bl	Telit_RST_Write
  92:.\modem.c     ****     Telit_isr_rx_StartEx(Telit_isr_rx);
 265              		.loc 1 92 0
 266 0014 0648     		ldr	r0, .L18
 267 0016 FFF7FEFF 		bl	Telit_isr_rx_StartEx
  93:.\modem.c     ****     modem_state = MODEM_STATE_OFF;
 268              		.loc 1 93 0
 269 001a 064B     		ldr	r3, .L18+4
 270 001c 0022     		movs	r2, #0
 271 001e 1A70     		strb	r2, [r3]
  94:.\modem.c     **** 	modem_power_on();
 272              		.loc 1 94 0
 273 0020 FFF7FEFF 		bl	modem_power_on
  95:.\modem.c     **** 	modem_set_flow_control(0u);	
 274              		.loc 1 95 0
 275 0024 0020     		movs	r0, #0
 276 0026 FFF7FEFF 		bl	modem_set_flow_control
  96:.\modem.c     **** 	hardware_specific_modem_setup();
 277              		.loc 1 96 0
 278 002a FFF7FEFF 		bl	hardware_specific_modem_setup
  97:.\modem.c     **** }
 279              		.loc 1 97 0
 280 002e 80BD     		pop	{r7, pc}
 281              	.L19:
 282              		.align	2
 283              	.L18:
 284 0030 00000000 		.word	Telit_isr_rx
 285 0034 00000000 		.word	modem_state
 286              		.cfi_endproc
 287              	.LFE60:
 288              		.size	modem_start, .-modem_start
 289              		.section	.text.modem_stop,"ax",%progbits
 290              		.align	2
 291              		.global	modem_stop
ARM GAS  C:\Users\cps\AppData\Local\Temp\ccCypFl7.s 			page 8


 292              		.thumb
 293              		.thumb_func
 294              		.type	modem_stop, %function
 295              	modem_stop:
 296              	.LFB61:
  98:.\modem.c     **** 
  99:.\modem.c     **** // deinitialize modem
 100:.\modem.c     **** void modem_stop(){
 297              		.loc 1 100 0
 298              		.cfi_startproc
 299              		@ args = 0, pretend = 0, frame = 0
 300              		@ frame_needed = 1, uses_anonymous_args = 0
 301 0000 80B5     		push	{r7, lr}
 302              		.cfi_def_cfa_offset 8
 303              		.cfi_offset 7, -8
 304              		.cfi_offset 14, -4
 305 0002 00AF     		add	r7, sp, #0
 306              		.cfi_def_cfa_register 7
 101:.\modem.c     ****     Telit_UART_Stop();
 307              		.loc 1 101 0
 308 0004 FFF7FEFF 		bl	Telit_UART_Stop
 102:.\modem.c     ****     //Telit_PWR_Write(0u);        // 0u Enables power to cell module
 103:.\modem.c     **** 	Telit_ON_Write(0u);			// Save energy by pulling down "push button"
 309              		.loc 1 103 0
 310 0008 0020     		movs	r0, #0
 311 000a FFF7FEFF 		bl	Telit_ON_Write
 104:.\modem.c     **** 	Telit_RST_Write(0u);		// Save energy by pulling down "push button"
 312              		.loc 1 104 0
 313 000e 0020     		movs	r0, #0
 314 0010 FFF7FEFF 		bl	Telit_RST_Write
 105:.\modem.c     ****     Telit_isr_rx_Stop();
 315              		.loc 1 105 0
 316 0014 FFF7FEFF 		bl	Telit_isr_rx_Stop
 106:.\modem.c     ****     modem_state = MODEM_STATE_OFF;
 317              		.loc 1 106 0
 318 0018 014B     		ldr	r3, .L21
 319 001a 0022     		movs	r2, #0
 320 001c 1A70     		strb	r2, [r3]
 107:.\modem.c     **** }
 321              		.loc 1 107 0
 322 001e 80BD     		pop	{r7, pc}
 323              	.L22:
 324              		.align	2
 325              	.L21:
 326 0020 00000000 		.word	modem_state
 327              		.cfi_endproc
 328              	.LFE61:
 329              		.size	modem_stop, .-modem_stop
 330              		.section	.text.at_write_command,"ax",%progbits
 331              		.align	2
 332              		.global	at_write_command
 333              		.thumb
 334              		.thumb_func
 335              		.type	at_write_command, %function
 336              	at_write_command:
 337              	.LFB62:
 108:.\modem.c     **** 
ARM GAS  C:\Users\cps\AppData\Local\Temp\ccCypFl7.s 			page 9


 109:.\modem.c     **** // send at-command to modem
 110:.\modem.c     **** uint8 at_write_command(char* uart_string, char* expected_response, uint32 uart_timeout){
 338              		.loc 1 110 0
 339              		.cfi_startproc
 340              		@ args = 0, pretend = 0, frame = 40
 341              		@ frame_needed = 1, uses_anonymous_args = 0
 342 0000 80B5     		push	{r7, lr}
 343              		.cfi_def_cfa_offset 8
 344              		.cfi_offset 7, -8
 345              		.cfi_offset 14, -4
 346 0002 8AB0     		sub	sp, sp, #40
 347              		.cfi_def_cfa_offset 48
 348 0004 00AF     		add	r7, sp, #0
 349              		.cfi_def_cfa_register 7
 350 0006 F860     		str	r0, [r7, #12]
 351 0008 B960     		str	r1, [r7, #8]
 352 000a 7A60     		str	r2, [r7, #4]
 111:.\modem.c     ****     uint8 response = 0u;
 353              		.loc 1 111 0
 354 000c 0023     		movs	r3, #0
 355 000e 87F82730 		strb	r3, [r7, #39]
 112:.\modem.c     ****     uint32 i = 0u, delay = 100u, interval = uart_timeout/delay;
 356              		.loc 1 112 0
 357 0012 0023     		movs	r3, #0
 358 0014 3B62     		str	r3, [r7, #32]
 359 0016 6423     		movs	r3, #100
 360 0018 FB61     		str	r3, [r7, #28]
 361 001a 7A68     		ldr	r2, [r7, #4]
 362 001c FB69     		ldr	r3, [r7, #28]
 363 001e B2FBF3F3 		udiv	r3, r2, r3
 364 0022 BB61     		str	r3, [r7, #24]
 113:.\modem.c     ****     uart_string_reset();
 365              		.loc 1 113 0
 366 0024 FFF7FEFF 		bl	uart_string_reset
 114:.\modem.c     ****     Telit_UART_PutString(uart_string);//Telit_UART_PutString("AT\r");
 367              		.loc 1 114 0
 368 0028 F868     		ldr	r0, [r7, #12]
 369 002a FFF7FEFF 		bl	Telit_UART_PutString
 115:.\modem.c     ****     
 116:.\modem.c     ****     if( strcmp(expected_response, "") != 0){
 370              		.loc 1 116 0
 371 002e BB68     		ldr	r3, [r7, #8]
 372 0030 1B78     		ldrb	r3, [r3]	@ zero_extendqisi2
 373 0032 002B     		cmp	r3, #0
 374 0034 18D0     		beq	.L24
 117:.\modem.c     ****         for(i=0;i<interval;i++){
 375              		.loc 1 117 0
 376 0036 0023     		movs	r3, #0
 377 0038 3B62     		str	r3, [r7, #32]
 378 003a 11E0     		b	.L25
 379              	.L27:
 380              	.LBB2:
 118:.\modem.c     ****             char* valid = strstr(uart_received_string, expected_response);
 381              		.loc 1 118 0
 382 003c 0D48     		ldr	r0, .L29
 383 003e B968     		ldr	r1, [r7, #8]
 384 0040 FFF7FEFF 		bl	strstr
ARM GAS  C:\Users\cps\AppData\Local\Temp\ccCypFl7.s 			page 10


 385 0044 7861     		str	r0, [r7, #20]
 119:.\modem.c     ****             if(valid != NULL){
 386              		.loc 1 119 0
 387 0046 7B69     		ldr	r3, [r7, #20]
 388 0048 002B     		cmp	r3, #0
 389 004a 03D0     		beq	.L26
 120:.\modem.c     ****                 response = 1u;
 390              		.loc 1 120 0
 391 004c 0123     		movs	r3, #1
 392 004e 87F82730 		strb	r3, [r7, #39]
 121:.\modem.c     ****                 break;
 393              		.loc 1 121 0
 394 0052 09E0     		b	.L24
 395              	.L26:
 122:.\modem.c     ****             }
 123:.\modem.c     ****             CyDelay(delay);
 396              		.loc 1 123 0 discriminator 2
 397 0054 F869     		ldr	r0, [r7, #28]
 398 0056 FFF7FEFF 		bl	CyDelay
 399              	.LBE2:
 117:.\modem.c     ****             char* valid = strstr(uart_received_string, expected_response);
 400              		.loc 1 117 0 discriminator 2
 401 005a 3B6A     		ldr	r3, [r7, #32]
 402 005c 0133     		adds	r3, r3, #1
 403 005e 3B62     		str	r3, [r7, #32]
 404              	.L25:
 117:.\modem.c     ****             char* valid = strstr(uart_received_string, expected_response);
 405              		.loc 1 117 0 is_stmt 0 discriminator 1
 406 0060 3A6A     		ldr	r2, [r7, #32]
 407 0062 BB69     		ldr	r3, [r7, #24]
 408 0064 9A42     		cmp	r2, r3
 409 0066 E9D3     		bcc	.L27
 410              	.L24:
 124:.\modem.c     ****         }
 125:.\modem.c     ****     }
 126:.\modem.c     ****     return response;
 411              		.loc 1 126 0 is_stmt 1
 412 0068 97F82730 		ldrb	r3, [r7, #39]	@ zero_extendqisi2
 127:.\modem.c     **** }
 413              		.loc 1 127 0
 414 006c 1846     		mov	r0, r3
 415 006e 2837     		adds	r7, r7, #40
 416              		.cfi_def_cfa_offset 8
 417 0070 BD46     		mov	sp, r7
 418              		.cfi_def_cfa_register 13
 419              		@ sp needed
 420 0072 80BD     		pop	{r7, pc}
 421              	.L30:
 422              		.align	2
 423              	.L29:
 424 0074 00000000 		.word	uart_received_string
 425              		.cfi_endproc
 426              	.LFE62:
 427              		.size	at_write_command, .-at_write_command
 428              		.section	.rodata
 429 002b 00       		.align	2
 430              	.LC4:
ARM GAS  C:\Users\cps\AppData\Local\Temp\ccCypFl7.s 			page 11


 431 002c 41540D00 		.ascii	"AT\015\000"
 432              		.section	.text.modem_power_on,"ax",%progbits
 433              		.align	2
 434              		.global	modem_power_on
 435              		.thumb
 436              		.thumb_func
 437              		.type	modem_power_on, %function
 438              	modem_power_on:
 439              	.LFB63:
 128:.\modem.c     **** 
 129:.\modem.c     **** 
 130:.\modem.c     **** uint8 modem_power_on(){
 440              		.loc 1 130 0
 441              		.cfi_startproc
 442              		@ args = 0, pretend = 0, frame = 0
 443              		@ frame_needed = 1, uses_anonymous_args = 0
 444 0000 80B5     		push	{r7, lr}
 445              		.cfi_def_cfa_offset 8
 446              		.cfi_offset 7, -8
 447              		.cfi_offset 14, -4
 448 0002 00AF     		add	r7, sp, #0
 449              		.cfi_def_cfa_register 7
 131:.\modem.c     **** 
 132:.\modem.c     ****     if (modem_state != MODEM_STATE_OFF) {
 450              		.loc 1 132 0
 451 0004 154B     		ldr	r3, .L35
 452 0006 1B78     		ldrb	r3, [r3]	@ zero_extendqisi2
 453 0008 002B     		cmp	r3, #0
 454 000a 01D0     		beq	.L32
 133:.\modem.c     ****         // Modem is already on
 134:.\modem.c     ****         return 1u;
 455              		.loc 1 134 0
 456 000c 0123     		movs	r3, #1
 457 000e 23E0     		b	.L33
 458              	.L32:
 135:.\modem.c     ****     }
 136:.\modem.c     ****     
 137:.\modem.c     ****     // Set ON, PWR pins low
 138:.\modem.c     ****     Telit_ON_Write(0u); 
 459              		.loc 1 138 0
 460 0010 0020     		movs	r0, #0
 461 0012 FFF7FEFF 		bl	Telit_ON_Write
 139:.\modem.c     ****     Telit_RST_Write(0u);
 462              		.loc 1 139 0
 463 0016 0020     		movs	r0, #0
 464 0018 FFF7FEFF 		bl	Telit_RST_Write
 140:.\modem.c     ****     
 141:.\modem.c     ****     // Provide power to Telit module
 142:.\modem.c     ****     //Telit_PWR_Write(0u); //provide power to modem
 143:.\modem.c     ****     
 144:.\modem.c     ****     // "Push" the ON button for 2 seconds
 145:.\modem.c     ****     Telit_ON_Write(1u); 
 465              		.loc 1 145 0
 466 001c 0120     		movs	r0, #1
 467 001e FFF7FEFF 		bl	Telit_ON_Write
 146:.\modem.c     ****     CyDelay(2000u);     // the pad ON# must be tied low for at least 1 second and then released.
 468              		.loc 1 146 0
ARM GAS  C:\Users\cps\AppData\Local\Temp\ccCypFl7.s 			page 12


 469 0022 4FF4FA60 		mov	r0, #2000
 470 0026 FFF7FEFF 		bl	CyDelay
 147:.\modem.c     ****     //CyDelay(1500u);     // At least 3 seconds if VBAT < 3.4 for GC 864
 148:.\modem.c     ****     Telit_ON_Write(0u); 
 471              		.loc 1 148 0
 472 002a 0020     		movs	r0, #0
 473 002c FFF7FEFF 		bl	Telit_ON_Write
 149:.\modem.c     ****     
 150:.\modem.c     ****     CyDelay(5000u);  
 474              		.loc 1 150 0
 475 0030 41F28830 		movw	r0, #5000
 476 0034 FFF7FEFF 		bl	CyDelay
 151:.\modem.c     ****     /* NOTE:
 152:.\modem.c     ****         "To get the desirable stability, 
 153:.\modem.c     ****         CC864-DUAL needs at least 10 seconds 
 154:.\modem.c     ****         after the PWRMON goes HIGH.*/
 155:.\modem.c     **** 	
 156:.\modem.c     **** 	if(at_write_command("AT\r","OK",1000u) == 1){    
 477              		.loc 1 156 0
 478 0038 0948     		ldr	r0, .L35+4
 479 003a 0A49     		ldr	r1, .L35+8
 480 003c 4FF47A72 		mov	r2, #1000
 481 0040 FFF7FEFF 		bl	at_write_command
 482 0044 0346     		mov	r3, r0
 483 0046 012B     		cmp	r3, #1
 484 0048 05D1     		bne	.L34
 157:.\modem.c     ****         modem_state = MODEM_STATE_IDLE;
 485              		.loc 1 157 0
 486 004a 044B     		ldr	r3, .L35
 487 004c 0122     		movs	r2, #1
 488 004e 1A70     		strb	r2, [r3]
 158:.\modem.c     ****         return modem_state;
 489              		.loc 1 158 0
 490 0050 024B     		ldr	r3, .L35
 491 0052 1B78     		ldrb	r3, [r3]	@ zero_extendqisi2
 492 0054 00E0     		b	.L33
 493              	.L34:
 159:.\modem.c     ****     }	
 160:.\modem.c     **** 	
 161:.\modem.c     **** 	// Failed to turn on
 162:.\modem.c     ****     return 0u;
 494              		.loc 1 162 0
 495 0056 0023     		movs	r3, #0
 496              	.L33:
 163:.\modem.c     **** }
 497              		.loc 1 163 0
 498 0058 1846     		mov	r0, r3
 499 005a 80BD     		pop	{r7, pc}
 500              	.L36:
 501              		.align	2
 502              	.L35:
 503 005c 00000000 		.word	modem_state
 504 0060 2C000000 		.word	.LC4
 505 0064 1C000000 		.word	.LC2
 506              		.cfi_endproc
 507              	.LFE63:
 508              		.size	modem_power_on, .-modem_power_on
ARM GAS  C:\Users\cps\AppData\Local\Temp\ccCypFl7.s 			page 13


 509              		.section	.text.modem_power_off,"ax",%progbits
 510              		.align	2
 511              		.global	modem_power_off
 512              		.thumb
 513              		.thumb_func
 514              		.type	modem_power_off, %function
 515              	modem_power_off:
 516              	.LFB64:
 164:.\modem.c     **** 
 165:.\modem.c     **** uint8 modem_power_off(){
 517              		.loc 1 165 0
 518              		.cfi_startproc
 519              		@ args = 0, pretend = 0, frame = 0
 520              		@ frame_needed = 1, uses_anonymous_args = 0
 521 0000 80B5     		push	{r7, lr}
 522              		.cfi_def_cfa_offset 8
 523              		.cfi_offset 7, -8
 524              		.cfi_offset 14, -4
 525 0002 00AF     		add	r7, sp, #0
 526              		.cfi_def_cfa_register 7
 166:.\modem.c     **** 	
 167:.\modem.c     ****     if (modem_state == MODEM_STATE_OFF) {
 527              		.loc 1 167 0
 528 0004 0F4B     		ldr	r3, .L40
 529 0006 1B78     		ldrb	r3, [r3]	@ zero_extendqisi2
 530 0008 002B     		cmp	r3, #0
 531 000a 01D1     		bne	.L38
 168:.\modem.c     ****         // Modem is already off
 169:.\modem.c     ****         return 1u;
 532              		.loc 1 169 0
 533 000c 0123     		movs	r3, #1
 534 000e 16E0     		b	.L39
 535              	.L38:
 170:.\modem.c     ****     }
 171:.\modem.c     **** 	
 172:.\modem.c     ****     // Try to disconnect the modem.  
 173:.\modem.c     ****     // Continue whether or not disconnect is successful
 174:.\modem.c     ****     modem_disconnect();
 536              		.loc 1 174 0
 537 0010 FFF7FEFF 		bl	modem_disconnect
 175:.\modem.c     ****     
 176:.\modem.c     ****     // "Push" the ON button for 
 177:.\modem.c     ****     Telit_ON_Write(1u);
 538              		.loc 1 177 0
 539 0014 0120     		movs	r0, #1
 540 0016 FFF7FEFF 		bl	Telit_ON_Write
 178:.\modem.c     ****     CyDelay(2500u);  // To turn the CC864-DUAL off, the ON/OFF Pin must be tied low for 2 second an
 541              		.loc 1 178 0
 542 001a 40F6C410 		movw	r0, #2500
 543 001e FFF7FEFF 		bl	CyDelay
 179:.\modem.c     ****     Telit_ON_Write(0u);
 544              		.loc 1 179 0
 545 0022 0020     		movs	r0, #0
 546 0024 FFF7FEFF 		bl	Telit_ON_Write
 180:.\modem.c     ****     
 181:.\modem.c     ****     CyDelay(5000u); 
 547              		.loc 1 181 0
ARM GAS  C:\Users\cps\AppData\Local\Temp\ccCypFl7.s 			page 14


 548 0028 41F28830 		movw	r0, #5000
 549 002c FFF7FEFF 		bl	CyDelay
 182:.\modem.c     ****     /* CyDelay(5000u); // wait for module to turn off
 183:.\modem.c     ****         "Normally it will be above 10 seconds later from releasing
 184:.\modem.c     ****         ON/OFF# and DTE should monitor the status of PWRMON to see the
 185:.\modem.c     ****         actual power off."  */
 186:.\modem.c     ****     
 187:.\modem.c     ****     // Book keeping 
 188:.\modem.c     ****     //Telit_PWR_Write(1u); // Cut power to modem; 1u Disables power to the modem
 189:.\modem.c     ****     Telit_RST_Write(0u); // Make sure the RESET "button" is not pressed
 550              		.loc 1 189 0
 551 0030 0020     		movs	r0, #0
 552 0032 FFF7FEFF 		bl	Telit_RST_Write
 190:.\modem.c     ****     
 191:.\modem.c     ****     modem_state = MODEM_STATE_OFF;
 553              		.loc 1 191 0
 554 0036 034B     		ldr	r3, .L40
 555 0038 0022     		movs	r2, #0
 556 003a 1A70     		strb	r2, [r3]
 192:.\modem.c     ****     return 1u;
 557              		.loc 1 192 0
 558 003c 0123     		movs	r3, #1
 559              	.L39:
 193:.\modem.c     **** }
 560              		.loc 1 193 0
 561 003e 1846     		mov	r0, r3
 562 0040 80BD     		pop	{r7, pc}
 563              	.L41:
 564 0042 00BF     		.align	2
 565              	.L40:
 566 0044 00000000 		.word	modem_state
 567              		.cfi_endproc
 568              	.LFE64:
 569              		.size	modem_power_off, .-modem_power_off
 570              		.section	.text.modem_reset,"ax",%progbits
 571              		.align	2
 572              		.global	modem_reset
 573              		.thumb
 574              		.thumb_func
 575              		.type	modem_reset, %function
 576              	modem_reset:
 577              	.LFB65:
 194:.\modem.c     **** 
 195:.\modem.c     **** uint8 modem_reset(){
 578              		.loc 1 195 0
 579              		.cfi_startproc
 580              		@ args = 0, pretend = 0, frame = 0
 581              		@ frame_needed = 1, uses_anonymous_args = 0
 582 0000 80B5     		push	{r7, lr}
 583              		.cfi_def_cfa_offset 8
 584              		.cfi_offset 7, -8
 585              		.cfi_offset 14, -4
 586 0002 00AF     		add	r7, sp, #0
 587              		.cfi_def_cfa_register 7
 196:.\modem.c     ****     if (modem_state != MODEM_STATE_OFF) { // The modem is idle/ready (powered on)
 588              		.loc 1 196 0
 589 0004 0C4B     		ldr	r3, .L45
ARM GAS  C:\Users\cps\AppData\Local\Temp\ccCypFl7.s 			page 15


 590 0006 1B78     		ldrb	r3, [r3]	@ zero_extendqisi2
 591 0008 002B     		cmp	r3, #0
 592 000a 10D0     		beq	.L43
 197:.\modem.c     ****         
 198:.\modem.c     ****         Telit_RST_Write(1u);
 593              		.loc 1 198 0
 594 000c 0120     		movs	r0, #1
 595 000e FFF7FEFF 		bl	Telit_RST_Write
 199:.\modem.c     ****         CyDelay(500u);  //   To reset and to reboot the module, 
 596              		.loc 1 199 0
 597 0012 4FF4FA70 		mov	r0, #500
 598 0016 FFF7FEFF 		bl	CyDelay
 200:.\modem.c     ****                         // the RESET pin must be tied low for at least 200 milliseconds and then re
 201:.\modem.c     ****         Telit_RST_Write(0u);
 599              		.loc 1 201 0
 600 001a 0020     		movs	r0, #0
 601 001c FFF7FEFF 		bl	Telit_RST_Write
 202:.\modem.c     ****         
 203:.\modem.c     ****         CyDelay(5000u); //CyDelay(5000u);
 602              		.loc 1 203 0
 603 0020 41F28830 		movw	r0, #5000
 604 0024 FFF7FEFF 		bl	CyDelay
 204:.\modem.c     ****         modem_state = MODEM_STATE_IDLE;
 605              		.loc 1 204 0
 606 0028 034B     		ldr	r3, .L45
 607 002a 0122     		movs	r2, #1
 608 002c 1A70     		strb	r2, [r3]
 609              	.L43:
 205:.\modem.c     ****     }
 206:.\modem.c     ****     return modem_state;
 610              		.loc 1 206 0
 611 002e 024B     		ldr	r3, .L45
 612 0030 1B78     		ldrb	r3, [r3]	@ zero_extendqisi2
 207:.\modem.c     **** }
 613              		.loc 1 207 0
 614 0032 1846     		mov	r0, r3
 615 0034 80BD     		pop	{r7, pc}
 616              	.L46:
 617 0036 00BF     		.align	2
 618              	.L45:
 619 0038 00000000 		.word	modem_state
 620              		.cfi_endproc
 621              	.LFE65:
 622              		.size	modem_reset, .-modem_reset
 623              		.section	.text.hardware_specific_modem_setup,"ax",%progbits
 624              		.align	2
 625              		.global	hardware_specific_modem_setup
 626              		.thumb
 627              		.thumb_func
 628              		.type	hardware_specific_modem_setup, %function
 629              	hardware_specific_modem_setup:
 630              	.LFB66:
 208:.\modem.c     **** 
 209:.\modem.c     **** uint8 hardware_specific_modem_setup() {
 631              		.loc 1 209 0
 632              		.cfi_startproc
 633              		@ args = 0, pretend = 0, frame = 0
ARM GAS  C:\Users\cps\AppData\Local\Temp\ccCypFl7.s 			page 16


 634              		@ frame_needed = 1, uses_anonymous_args = 0
 635 0000 80B5     		push	{r7, lr}
 636              		.cfi_def_cfa_offset 8
 637              		.cfi_offset 7, -8
 638              		.cfi_offset 14, -4
 639 0002 00AF     		add	r7, sp, #0
 640              		.cfi_def_cfa_register 7
 210:.\modem.c     **** /* Initialize configurations for the modem */
 211:.\modem.c     **** 	// Set Error Reports to verbose mode
 212:.\modem.c     **** 	if (modem_set_error_reports(2u) != 1u) {
 641              		.loc 1 212 0
 642 0004 0220     		movs	r0, #2
 643 0006 FFF7FEFF 		bl	modem_set_error_reports
 644 000a 0346     		mov	r3, r0
 645 000c 012B     		cmp	r3, #1
 646 000e 01D0     		beq	.L48
 213:.\modem.c     **** 		return 0u;
 647              		.loc 1 213 0
 648 0010 0023     		movs	r3, #0
 649 0012 00E0     		b	.L49
 650              	.L48:
 214:.\modem.c     **** 	}
 215:.\modem.c     **** 	
 216:.\modem.c     **** 	/* UNCOMMENT when using GC864 instead of CC864
 217:.\modem.c     **** 	// Set the APN for GC864-Dual-V2
 218:.\modem.c     **** 	if (modem_set_apn() != 1u) {
 219:.\modem.c     **** 		return 0u;
 220:.\modem.c     **** 	}
 221:.\modem.c     **** 		
 222:.\modem.c     **** 	// Select the band for GC864-Dual-V2
 223:.\modem.c     **** 	if (modem_set_band(1u) != 1u) {
 224:.\modem.c     **** 		return 0u;
 225:.\modem.c     **** 	}
 226:.\modem.c     **** 	*/
 227:.\modem.c     **** 	
 228:.\modem.c     **** 	return 1u;
 651              		.loc 1 228 0
 652 0014 0123     		movs	r3, #1
 653              	.L49:
 229:.\modem.c     **** }
 654              		.loc 1 229 0
 655 0016 1846     		mov	r0, r3
 656 0018 80BD     		pop	{r7, pc}
 657              		.cfi_endproc
 658              	.LFE66:
 659              		.size	hardware_specific_modem_setup, .-hardware_specific_modem_setup
 660 001a 00BF     		.section	.rodata
 661              		.align	2
 662              	.LC5:
 663 0030 41542353 		.ascii	"AT#SGACT=1,1\015\000"
 663      47414354 
 663      3D312C31 
 663      0D00
 664              		.section	.text.modem_connect,"ax",%progbits
 665              		.align	2
 666              		.global	modem_connect
 667              		.thumb
ARM GAS  C:\Users\cps\AppData\Local\Temp\ccCypFl7.s 			page 17


 668              		.thumb_func
 669              		.type	modem_connect, %function
 670              	modem_connect:
 671              	.LFB67:
 230:.\modem.c     **** 
 231:.\modem.c     **** uint8 modem_connect(){
 672              		.loc 1 231 0
 673              		.cfi_startproc
 674              		@ args = 0, pretend = 0, frame = 8
 675              		@ frame_needed = 1, uses_anonymous_args = 0
 676 0000 80B5     		push	{r7, lr}
 677              		.cfi_def_cfa_offset 8
 678              		.cfi_offset 7, -8
 679              		.cfi_offset 14, -4
 680 0002 82B0     		sub	sp, sp, #8
 681              		.cfi_def_cfa_offset 16
 682 0004 00AF     		add	r7, sp, #0
 683              		.cfi_def_cfa_register 7
 232:.\modem.c     **** /* Establish modem connection with the network */	
 233:.\modem.c     **** 	uint8 count = 0u, network_status = 0u;
 684              		.loc 1 233 0
 685 0006 0023     		movs	r3, #0
 686 0008 FB71     		strb	r3, [r7, #7]
 687 000a 0023     		movs	r3, #0
 688 000c BB71     		strb	r3, [r7, #6]
 234:.\modem.c     **** 	
 235:.\modem.c     **** 	// Check if modem is registered on home network
 236:.\modem.c     **** 	// Buffer should return +CREG: 0,1
 237:.\modem.c     **** 	// modem_check_network returns 1u if buffer contains ",1"
 238:.\modem.c     **** 	network_status = modem_check_network();
 689              		.loc 1 238 0
 690 000e FFF7FEFF 		bl	modem_check_network
 691 0012 0346     		mov	r3, r0
 692 0014 BB71     		strb	r3, [r7, #6]
 239:.\modem.c     **** 	while(network_status == 0u && count < MAX_CONN_ATTEMPTS) {
 693              		.loc 1 239 0
 694 0016 0AE0     		b	.L51
 695              	.L53:
 240:.\modem.c     **** 
 241:.\modem.c     **** 		network_status = modem_check_network();
 696              		.loc 1 241 0
 697 0018 FFF7FEFF 		bl	modem_check_network
 698 001c 0346     		mov	r3, r0
 699 001e BB71     		strb	r3, [r7, #6]
 242:.\modem.c     **** 		CyDelay(3000u);
 700              		.loc 1 242 0
 701 0020 40F6B830 		movw	r0, #3000
 702 0024 FFF7FEFF 		bl	CyDelay
 243:.\modem.c     **** 		count++;
 703              		.loc 1 243 0
 704 0028 FB79     		ldrb	r3, [r7, #7]	@ zero_extendqisi2
 705 002a 0133     		adds	r3, r3, #1
 706 002c FB71     		strb	r3, [r7, #7]
 707              	.L51:
 239:.\modem.c     **** 
 708              		.loc 1 239 0
 709 002e BB79     		ldrb	r3, [r7, #6]	@ zero_extendqisi2
ARM GAS  C:\Users\cps\AppData\Local\Temp\ccCypFl7.s 			page 18


 710 0030 002B     		cmp	r3, #0
 711 0032 02D1     		bne	.L52
 239:.\modem.c     **** 
 712              		.loc 1 239 0 is_stmt 0 discriminator 1
 713 0034 FB79     		ldrb	r3, [r7, #7]	@ zero_extendqisi2
 714 0036 042B     		cmp	r3, #4
 715 0038 EED9     		bls	.L53
 716              	.L52:
 244:.\modem.c     **** 	}
 245:.\modem.c     **** 	
 246:.\modem.c     **** 	if (network_status == 1u) {		
 717              		.loc 1 246 0 is_stmt 1
 718 003a BB79     		ldrb	r3, [r7, #6]	@ zero_extendqisi2
 719 003c 012B     		cmp	r3, #1
 720 003e 0ED1     		bne	.L54
 247:.\modem.c     **** 		// Try to activate network context
 248:.\modem.c     **** 		// #SGACT1,<0,1> is for multisocket
 249:.\modem.c     **** 		// For now, use #GPRS, which is from Enhanced Easy IP commands
 250:.\modem.c     **** 	    if(at_write_command("AT#SGACT=1,1\r","OK",5000u) == 1){    
 721              		.loc 1 250 0
 722 0040 0A48     		ldr	r0, .L56
 723 0042 0B49     		ldr	r1, .L56+4
 724 0044 41F28832 		movw	r2, #5000
 725 0048 FFF7FEFF 		bl	at_write_command
 726 004c 0346     		mov	r3, r0
 727 004e 012B     		cmp	r3, #1
 728 0050 05D1     		bne	.L54
 251:.\modem.c     **** 		//if(at_write_command("AT#GPRS=1\r","OK",5000u) == 1){    // Used for GSM (ATT, TMobile)
 252:.\modem.c     **** 	        modem_state = MODEM_STATE_READY;
 729              		.loc 1 252 0
 730 0052 084B     		ldr	r3, .L56+8
 731 0054 0322     		movs	r2, #3
 732 0056 1A70     		strb	r2, [r3]
 253:.\modem.c     **** 	        return modem_state;
 733              		.loc 1 253 0
 734 0058 064B     		ldr	r3, .L56+8
 735 005a 1B78     		ldrb	r3, [r3]	@ zero_extendqisi2
 736 005c 01E0     		b	.L55
 737              	.L54:
 254:.\modem.c     **** 	    }		
 255:.\modem.c     **** 	}
 256:.\modem.c     **** 	
 257:.\modem.c     ****     /* Write to SD Card debugger
 258:.\modem.c     ****     else debug_write("(AT#SGACT=1,1) No IP Address Assigned.");
 259:.\modem.c     ****     */
 260:.\modem.c     **** 
 261:.\modem.c     ****     return modem_state;
 738              		.loc 1 261 0
 739 005e 054B     		ldr	r3, .L56+8
 740 0060 1B78     		ldrb	r3, [r3]	@ zero_extendqisi2
 741              	.L55:
 262:.\modem.c     ****     
 263:.\modem.c     **** /*
 264:.\modem.c     ****     if(at_write_command("AT+CREG=1\r","OK",5000u)){
 265:.\modem.c     ****         if(at_write_command("AT+CREG?\r","OK",5000u)){
 266:.\modem.c     ****         //if(!at_write_command("AT#CGPADDR=1\r","\"",5000u)){
 267:.\modem.c     ****             if(at_write_command("AT#SGACT=1,1\r","OK",30000u)){
ARM GAS  C:\Users\cps\AppData\Local\Temp\ccCypFl7.s 			page 19


 268:.\modem.c     ****                 modem_state = MODEM_STATE_READY;
 269:.\modem.c     ****                 //return 1u; // connected to network
 270:.\modem.c     ****             }
 271:.\modem.c     ****             else debug_write("(AT#SGACT=1,1) No IP Address Assigned.");
 272:.\modem.c     ****         }
 273:.\modem.c     ****        else debug_write("(AT#CGPADDR=1) No IP Address Exists.");   Returns IP address.. should be c
 274:.\modem.c     ****     }
 275:.\modem.c     ****     else debug_write("(AT+CREG=1) Could not register to network."); CREG reports registration statu
 276:.\modem.c     ****     
 277:.\modem.c     ****     return 0u;
 278:.\modem.c     **** */
 279:.\modem.c     **** /*
 280:.\modem.c     ****     at_write_command("AT+CSQ\r","OK",5000u); // get signal strength
 281:.\modem.c     ****     
 282:.\modem.c     ****     if (!at_write_command("AT+CREG=1\r","OK",5000u)) { // look for network
 283:.\modem.c     ****         debug_write("(AT+CREG=1) Could not register to network.");
 284:.\modem.c     ****     }
 285:.\modem.c     ****     
 286:.\modem.c     ****     at_write_command("AT#SCFG=1,1,0,0,1200,0\r","OK",5000u); // config parameter
 287:.\modem.c     ****     
 288:.\modem.c     ****     if (at_write_command("AT#CGPADDR=1\r","OK",5000u)) {// check if ip address exists
 289:.\modem.c     ****         debug_write("(AT#CGPADDR=1) No IP Address Exists.");    
 290:.\modem.c     ****     }
 291:.\modem.c     ****     
 292:.\modem.c     ****     at_write_command("AT#SGACT?","OK",30000u);
 293:.\modem.c     ****     
 294:.\modem.c     ****     uint8 success  = at_write_command("AT#SGACT=1,1\r","OK",30000u); // This command should return 
 295:.\modem.c     ****     //success = at_write_command("AT#SD=1,0,50000,\"141.212.136.222\",0,0,1\r","OK",5000u); // conn
 296:.\modem.c     ****     
 297:.\modem.c     ****     if (!success) {
 298:.\modem.c     ****         debug_write("(AT#SGACT=1,1) No IP Address Assigned.");
 299:.\modem.c     ****     }
 300:.\modem.c     ****     
 301:.\modem.c     ****     return success;
 302:.\modem.c     ****     */
 303:.\modem.c     ****     
 304:.\modem.c     **** }
 742              		.loc 1 304 0
 743 0062 1846     		mov	r0, r3
 744 0064 0837     		adds	r7, r7, #8
 745              		.cfi_def_cfa_offset 8
 746 0066 BD46     		mov	sp, r7
 747              		.cfi_def_cfa_register 13
 748              		@ sp needed
 749 0068 80BD     		pop	{r7, pc}
 750              	.L57:
 751 006a 00BF     		.align	2
 752              	.L56:
 753 006c 30000000 		.word	.LC5
 754 0070 1C000000 		.word	.LC2
 755 0074 00000000 		.word	modem_state
 756              		.cfi_endproc
 757              	.LFE67:
 758              		.size	modem_connect, .-modem_connect
 759              		.section	.rodata
 760 003e 0000     		.align	2
 761              	.LC6:
ARM GAS  C:\Users\cps\AppData\Local\Temp\ccCypFl7.s 			page 20


 762 0040 41542353 		.ascii	"AT#SGACT=1,0\015\000"
 762      47414354 
 762      3D312C30 
 762      0D00
 763              		.section	.text.modem_disconnect,"ax",%progbits
 764              		.align	2
 765              		.global	modem_disconnect
 766              		.thumb
 767              		.thumb_func
 768              		.type	modem_disconnect, %function
 769              	modem_disconnect:
 770              	.LFB68:
 305:.\modem.c     **** 
 306:.\modem.c     **** uint8 modem_disconnect(){
 771              		.loc 1 306 0
 772              		.cfi_startproc
 773              		@ args = 0, pretend = 0, frame = 0
 774              		@ frame_needed = 1, uses_anonymous_args = 0
 775 0000 80B5     		push	{r7, lr}
 776              		.cfi_def_cfa_offset 8
 777              		.cfi_offset 7, -8
 778              		.cfi_offset 14, -4
 779 0002 00AF     		add	r7, sp, #0
 780              		.cfi_def_cfa_register 7
 307:.\modem.c     **** /* Close modem connection to network */
 308:.\modem.c     **** 	
 309:.\modem.c     ****     // Proceed if modem is not connected to network.  Otherwise, try to disconnect from the network
 310:.\modem.c     ****     if(modem_state != MODEM_STATE_READY) {
 781              		.loc 1 310 0
 782 0004 094B     		ldr	r3, .L61
 783 0006 1B78     		ldrb	r3, [r3]	@ zero_extendqisi2
 784 0008 032B     		cmp	r3, #3
 785 000a 0CD0     		beq	.L59
 311:.\modem.c     ****         /* Can use this statement instead for GSM (ATT, TMobile)
 312:.\modem.c     **** 		return (at_write_command("AT#GPRS=0\r","OK",5000u) == 1u);
 313:.\modem.c     **** 		*/
 314:.\modem.c     **** 		return (at_write_command("AT#SGACT=1,0\r","OK",5000u) == 1u);
 786              		.loc 1 314 0
 787 000c 0848     		ldr	r0, .L61+4
 788 000e 0949     		ldr	r1, .L61+8
 789 0010 41F28832 		movw	r2, #5000
 790 0014 FFF7FEFF 		bl	at_write_command
 791 0018 0346     		mov	r3, r0
 792 001a 012B     		cmp	r3, #1
 793 001c 0CBF     		ite	eq
 794 001e 0123     		moveq	r3, #1
 795 0020 0023     		movne	r3, #0
 796 0022 DBB2     		uxtb	r3, r3
 797 0024 00E0     		b	.L60
 798              	.L59:
 315:.\modem.c     **** 			
 316:.\modem.c     **** 		/*
 317:.\modem.c     **** 		if(at_write_command("AT#SH=1","OK",10000u) == 1){
 318:.\modem.c     ****             if(at_write_command("AT#SGACT=1,0","OK",10000u) == 1){
 319:.\modem.c     ****                 modem_state = MODEM_STATE_IDLE;
 320:.\modem.c     ****                 return 1u;
 321:.\modem.c     ****             }
ARM GAS  C:\Users\cps\AppData\Local\Temp\ccCypFl7.s 			page 21


 322:.\modem.c     ****             // Write to SD Card debugger
 323:.\modem.c     ****             else {
 324:.\modem.c     ****                 debug_write("(AT#SGACT=1,0) Could not disconnect.");
 325:.\modem.c     ****             }
 326:.\modem.c     ****             
 327:.\modem.c     ****         }
 328:.\modem.c     ****         Write to SD Card debugger
 329:.\modem.c     ****         else {
 330:.\modem.c     ****             debug_write("(AT#SH=1) Could not close socket.");
 331:.\modem.c     ****         }
 332:.\modem.c     ****         */
 333:.\modem.c     ****     }
 334:.\modem.c     ****     /* Write to SD Card debugger
 335:.\modem.c     ****     else {
 336:.\modem.c     ****         if (modem_state == MODEM_STATE_OFF) {
 337:.\modem.c     ****             debug_write( "(modem_state != MODEM_STATE_READY) modem_state = MODEM_STATE_OFF" );
 338:.\modem.c     ****         }
 339:.\modem.c     ****         else if (modem_state == MODEM_STATE_IDLE) {
 340:.\modem.c     ****             debug_write( "(modem_state != MODEM_STATE_READY) modem_state = MODEM_STATE_IDLE" );
 341:.\modem.c     ****         }
 342:.\modem.c     ****     }
 343:.\modem.c     ****     */
 344:.\modem.c     ****     return 0u; // failed to disconnect
 799              		.loc 1 344 0
 800 0026 0023     		movs	r3, #0
 801              	.L60:
 345:.\modem.c     **** }
 802              		.loc 1 345 0
 803 0028 1846     		mov	r0, r3
 804 002a 80BD     		pop	{r7, pc}
 805              	.L62:
 806              		.align	2
 807              	.L61:
 808 002c 00000000 		.word	modem_state
 809 0030 40000000 		.word	.LC6
 810 0034 1C000000 		.word	.LC2
 811              		.cfi_endproc
 812              	.LFE68:
 813              		.size	modem_disconnect, .-modem_disconnect
 814              		.section	.rodata
 815 004e 0000     		.align	2
 816              	.LC7:
 817 0050 41542B43 		.ascii	"AT+CGDCONT=1,\"IP\",\"%s\"\015\000"
 817      4744434F 
 817      4E543D31 
 817      2C224950 
 817      222C2225 
 818              		.section	.text.modem_set_apn,"ax",%progbits
 819              		.align	2
 820              		.global	modem_set_apn
 821              		.thumb
 822              		.thumb_func
 823              		.type	modem_set_apn, %function
 824              	modem_set_apn:
 825              	.LFB69:
 346:.\modem.c     **** 
 347:.\modem.c     **** uint8 modem_set_apn() {
ARM GAS  C:\Users\cps\AppData\Local\Temp\ccCypFl7.s 			page 22


 826              		.loc 1 347 0
 827              		.cfi_startproc
 828              		@ args = 0, pretend = 0, frame = 104
 829              		@ frame_needed = 1, uses_anonymous_args = 0
 830 0000 80B5     		push	{r7, lr}
 831              		.cfi_def_cfa_offset 8
 832              		.cfi_offset 7, -8
 833              		.cfi_offset 14, -4
 834 0002 9AB0     		sub	sp, sp, #104
 835              		.cfi_def_cfa_offset 112
 836 0004 00AF     		add	r7, sp, #0
 837              		.cfi_def_cfa_register 7
 348:.\modem.c     **** /* 
 349:.\modem.c     **** 	Set the access point that the modem connects to.
 350:.\modem.c     **** 	The APN is defined in "modem_apn" at the
 351:.\modem.c     **** 	top of this file 
 352:.\modem.c     **** */
 353:.\modem.c     ****     char cmd[100];
 354:.\modem.c     ****     sprintf(cmd,"AT+CGDCONT=1,\"IP\",\"%s\"\r",modem_apn);
 838              		.loc 1 354 0
 839 0006 0C4B     		ldr	r3, .L67
 840 0008 1B68     		ldr	r3, [r3]
 841 000a 3A1D     		adds	r2, r7, #4
 842 000c 1046     		mov	r0, r2
 843 000e 0B49     		ldr	r1, .L67+4
 844 0010 1A46     		mov	r2, r3
 845 0012 FFF7FEFF 		bl	sprintf
 355:.\modem.c     ****     if(at_write_command(cmd,"OK",2000u) == 1u){      
 846              		.loc 1 355 0
 847 0016 3B1D     		adds	r3, r7, #4
 848 0018 1846     		mov	r0, r3
 849 001a 0949     		ldr	r1, .L67+8
 850 001c 4FF4FA62 		mov	r2, #2000
 851 0020 FFF7FEFF 		bl	at_write_command
 852 0024 0346     		mov	r3, r0
 853 0026 012B     		cmp	r3, #1
 854 0028 01D1     		bne	.L64
 356:.\modem.c     ****         return 1u;
 855              		.loc 1 356 0
 856 002a 0123     		movs	r3, #1
 857 002c 00E0     		b	.L66
 858              	.L64:
 357:.\modem.c     ****     }
 358:.\modem.c     ****     /* Write to SD Card debugger
 359:.\modem.c     ****     else debug_write("(AT#SGACT=1,1) No IP Address Assigned.");
 360:.\modem.c     ****     */
 361:.\modem.c     **** 
 362:.\modem.c     ****     return 0u; 
 859              		.loc 1 362 0
 860 002e 0023     		movs	r3, #0
 861              	.L66:
 363:.\modem.c     **** }
 862              		.loc 1 363 0 discriminator 1
 863 0030 1846     		mov	r0, r3
 864 0032 6837     		adds	r7, r7, #104
 865              		.cfi_def_cfa_offset 8
 866 0034 BD46     		mov	sp, r7
ARM GAS  C:\Users\cps\AppData\Local\Temp\ccCypFl7.s 			page 23


 867              		.cfi_def_cfa_register 13
 868              		@ sp needed
 869 0036 80BD     		pop	{r7, pc}
 870              	.L68:
 871              		.align	2
 872              	.L67:
 873 0038 00000000 		.word	modem_apn
 874 003c 50000000 		.word	.LC7
 875 0040 1C000000 		.word	.LC2
 876              		.cfi_endproc
 877              	.LFE69:
 878              		.size	modem_set_apn, .-modem_set_apn
 879              		.section	.rodata
 880              		.align	2
 881              	.LC8:
 882 0068 41542342 		.ascii	"AT#BND=%d\015\000"
 882      4E443D25 
 882      640D00
 883              		.section	.text.modem_set_band,"ax",%progbits
 884              		.align	2
 885              		.global	modem_set_band
 886              		.thumb
 887              		.thumb_func
 888              		.type	modem_set_band, %function
 889              	modem_set_band:
 890              	.LFB70:
 364:.\modem.c     **** 
 365:.\modem.c     **** uint8 modem_set_band(uint8 band) {
 891              		.loc 1 365 0
 892              		.cfi_startproc
 893              		@ args = 0, pretend = 0, frame = 112
 894              		@ frame_needed = 1, uses_anonymous_args = 0
 895 0000 80B5     		push	{r7, lr}
 896              		.cfi_def_cfa_offset 8
 897              		.cfi_offset 7, -8
 898              		.cfi_offset 14, -4
 899 0002 9CB0     		sub	sp, sp, #112
 900              		.cfi_def_cfa_offset 120
 901 0004 00AF     		add	r7, sp, #0
 902              		.cfi_def_cfa_register 7
 903 0006 0346     		mov	r3, r0
 904 0008 FB71     		strb	r3, [r7, #7]
 366:.\modem.c     **** /* 
 367:.\modem.c     **** 	Set the band on which the modem should communicate on
 368:.\modem.c     **** 	Band ranges from <0,3>
 369:.\modem.c     **** 	"epc.tmobile.com" uses band 1
 370:.\modem.c     **** */
 371:.\modem.c     ****     char cmd[100];
 372:.\modem.c     ****     sprintf(cmd,"AT#BND=%d\r",band);
 905              		.loc 1 372 0
 906 000a FB79     		ldrb	r3, [r7, #7]	@ zero_extendqisi2
 907 000c 07F10C02 		add	r2, r7, #12
 908 0010 1046     		mov	r0, r2
 909 0012 0B49     		ldr	r1, .L73
 910 0014 1A46     		mov	r2, r3
 911 0016 FFF7FEFF 		bl	sprintf
 373:.\modem.c     ****     if(at_write_command(cmd,"OK",2000u) == 1u){      
ARM GAS  C:\Users\cps\AppData\Local\Temp\ccCypFl7.s 			page 24


 912              		.loc 1 373 0
 913 001a 07F10C03 		add	r3, r7, #12
 914 001e 1846     		mov	r0, r3
 915 0020 0849     		ldr	r1, .L73+4
 916 0022 4FF4FA62 		mov	r2, #2000
 917 0026 FFF7FEFF 		bl	at_write_command
 918 002a 0346     		mov	r3, r0
 919 002c 012B     		cmp	r3, #1
 920 002e 01D1     		bne	.L70
 374:.\modem.c     ****         return 1u;
 921              		.loc 1 374 0
 922 0030 0123     		movs	r3, #1
 923 0032 00E0     		b	.L72
 924              	.L70:
 375:.\modem.c     ****     }
 376:.\modem.c     ****     /* Write to SD Card debugger
 377:.\modem.c     ****     else debug_write("(AT#SGACT=1,1) No IP Address Assigned.");
 378:.\modem.c     ****     */
 379:.\modem.c     **** 
 380:.\modem.c     ****     return 0u; 
 925              		.loc 1 380 0
 926 0034 0023     		movs	r3, #0
 927              	.L72:
 381:.\modem.c     **** }
 928              		.loc 1 381 0 discriminator 1
 929 0036 1846     		mov	r0, r3
 930 0038 7037     		adds	r7, r7, #112
 931              		.cfi_def_cfa_offset 8
 932 003a BD46     		mov	sp, r7
 933              		.cfi_def_cfa_register 13
 934              		@ sp needed
 935 003c 80BD     		pop	{r7, pc}
 936              	.L74:
 937 003e 00BF     		.align	2
 938              	.L73:
 939 0040 68000000 		.word	.LC8
 940 0044 1C000000 		.word	.LC2
 941              		.cfi_endproc
 942              	.LFE70:
 943              		.size	modem_set_band, .-modem_set_band
 944              		.section	.rodata
 945 0073 00       		.align	2
 946              	.LC9:
 947 0074 41542B43 		.ascii	"AT+CCLK?\015\000"
 947      434C4B3F 
 947      0D00
 948 007e 0000     		.align	2
 949              	.LC10:
 950 0080 43434C4B 		.ascii	"CCLK:\000"
 950      3A00
 951 0086 0000     		.align	2
 952              	.LC11:
 953 0088 25792F25 		.ascii	"%y/%m/%d,%H:%M:%S\000"
 953      6D2F2564 
 953      2C25483A 
 953      254D3A25 
 953      5300
ARM GAS  C:\Users\cps\AppData\Local\Temp\ccCypFl7.s 			page 25


 954              		.section	.text.modem_get_rtc_time,"ax",%progbits
 955              		.align	2
 956              		.global	modem_get_rtc_time
 957              		.thumb
 958              		.thumb_func
 959              		.type	modem_get_rtc_time, %function
 960              	modem_get_rtc_time:
 961              	.LFB71:
 382:.\modem.c     **** 
 383:.\modem.c     **** struct tm modem_get_rtc_time(){
 962              		.loc 1 383 0
 963              		.cfi_startproc
 964              		@ args = 0, pretend = 0, frame = 48
 965              		@ frame_needed = 1, uses_anonymous_args = 0
 966 0000 B0B5     		push	{r4, r5, r7, lr}
 967              		.cfi_def_cfa_offset 16
 968              		.cfi_offset 4, -16
 969              		.cfi_offset 5, -12
 970              		.cfi_offset 7, -8
 971              		.cfi_offset 14, -4
 972 0002 8CB0     		sub	sp, sp, #48
 973              		.cfi_def_cfa_offset 64
 974 0004 00AF     		add	r7, sp, #0
 975              		.cfi_def_cfa_register 7
 976 0006 7860     		str	r0, [r7, #4]
 384:.\modem.c     ****     
 385:.\modem.c     **** 	struct tm cal = {};
 977              		.loc 1 385 0
 978 0008 07F10803 		add	r3, r7, #8
 979 000c 0022     		movs	r2, #0
 980 000e 1A60     		str	r2, [r3]
 981 0010 0433     		adds	r3, r3, #4
 982 0012 0022     		movs	r2, #0
 983 0014 1A60     		str	r2, [r3]
 984 0016 0433     		adds	r3, r3, #4
 985 0018 0022     		movs	r2, #0
 986 001a 1A60     		str	r2, [r3]
 987 001c 0433     		adds	r3, r3, #4
 988 001e 0022     		movs	r2, #0
 989 0020 1A60     		str	r2, [r3]
 990 0022 0433     		adds	r3, r3, #4
 991 0024 0022     		movs	r2, #0
 992 0026 1A60     		str	r2, [r3]
 993 0028 0433     		adds	r3, r3, #4
 994 002a 0022     		movs	r2, #0
 995 002c 1A60     		str	r2, [r3]
 996 002e 0433     		adds	r3, r3, #4
 997 0030 0022     		movs	r2, #0
 998 0032 1A60     		str	r2, [r3]
 999 0034 0433     		adds	r3, r3, #4
 1000 0036 0022     		movs	r2, #0
 1001 0038 1A60     		str	r2, [r3]
 1002 003a 0433     		adds	r3, r3, #4
 1003 003c 0022     		movs	r2, #0
 1004 003e 1A60     		str	r2, [r3]
 1005 0040 0433     		adds	r3, r3, #4
 386:.\modem.c     **** 	cal.tm_year = -99; //error flag
ARM GAS  C:\Users\cps\AppData\Local\Temp\ccCypFl7.s 			page 26


 1006              		.loc 1 386 0
 1007 0042 6FF06203 		mvn	r3, #98
 1008 0046 FB61     		str	r3, [r7, #28]
 387:.\modem.c     **** 	
 388:.\modem.c     **** 	if(at_write_command("AT+CCLK?\r","OK",1000u) == 1u){      
 1009              		.loc 1 388 0
 1010 0048 1348     		ldr	r0, .L78
 1011 004a 1449     		ldr	r1, .L78+4
 1012 004c 4FF47A72 		mov	r2, #1000
 1013 0050 FFF7FEFF 		bl	at_write_command
 1014 0054 0346     		mov	r3, r0
 1015 0056 012B     		cmp	r3, #1
 1016 0058 10D1     		bne	.L76
 1017              	.LBB3:
 389:.\modem.c     ****         char* resp = strstr(uart_received_string, "CCLK:");
 1018              		.loc 1 389 0
 1019 005a 1148     		ldr	r0, .L78+8
 1020 005c 1149     		ldr	r1, .L78+12
 1021 005e FFF7FEFF 		bl	strstr
 1022 0062 F862     		str	r0, [r7, #44]
 390:.\modem.c     ****         if(resp != NULL){
 1023              		.loc 1 390 0
 1024 0064 FB6A     		ldr	r3, [r7, #44]
 1025 0066 002B     		cmp	r3, #0
 1026 0068 08D0     		beq	.L76
 391:.\modem.c     **** 			strptime((resp+7), "%y/%m/%d,%H:%M:%S", &cal);
 1027              		.loc 1 391 0
 1028 006a FB6A     		ldr	r3, [r7, #44]
 1029 006c DA1D     		adds	r2, r3, #7
 1030 006e 07F10803 		add	r3, r7, #8
 1031 0072 1046     		mov	r0, r2
 1032 0074 0C49     		ldr	r1, .L78+16
 1033 0076 1A46     		mov	r2, r3
 1034 0078 FFF7FEFF 		bl	strptime
 1035              	.L76:
 1036              	.LBE3:
 392:.\modem.c     ****         }
 393:.\modem.c     ****     }
 394:.\modem.c     ****     
 395:.\modem.c     ****     return cal;  //if year = -99 then error
 1037              		.loc 1 395 0
 1038 007c 7B68     		ldr	r3, [r7, #4]
 1039 007e 1D46     		mov	r5, r3
 1040 0080 07F10804 		add	r4, r7, #8
 1041 0084 0FCC     		ldmia	r4!, {r0, r1, r2, r3}
 1042 0086 0FC5     		stmia	r5!, {r0, r1, r2, r3}
 1043 0088 0FCC     		ldmia	r4!, {r0, r1, r2, r3}
 1044 008a 0FC5     		stmia	r5!, {r0, r1, r2, r3}
 1045 008c 2368     		ldr	r3, [r4]
 1046 008e 2B60     		str	r3, [r5]
 396:.\modem.c     **** }
 1047              		.loc 1 396 0
 1048 0090 7868     		ldr	r0, [r7, #4]
 1049 0092 3037     		adds	r7, r7, #48
 1050              		.cfi_def_cfa_offset 16
 1051 0094 BD46     		mov	sp, r7
 1052              		.cfi_def_cfa_register 13
ARM GAS  C:\Users\cps\AppData\Local\Temp\ccCypFl7.s 			page 27


 1053              		@ sp needed
 1054 0096 B0BD     		pop	{r4, r5, r7, pc}
 1055              	.L79:
 1056              		.align	2
 1057              	.L78:
 1058 0098 74000000 		.word	.LC9
 1059 009c 1C000000 		.word	.LC2
 1060 00a0 00000000 		.word	uart_received_string
 1061 00a4 80000000 		.word	.LC10
 1062 00a8 88000000 		.word	.LC11
 1063              		.cfi_endproc
 1064              	.LFE71:
 1065              		.size	modem_get_rtc_time, .-modem_get_rtc_time
 1066              		.section	.text.rtc_read_minutes,"ax",%progbits
 1067              		.align	2
 1068              		.global	rtc_read_minutes
 1069              		.thumb
 1070              		.thumb_func
 1071              		.type	rtc_read_minutes, %function
 1072              	rtc_read_minutes:
 1073              	.LFB72:
 397:.\modem.c     **** 
 398:.\modem.c     **** uint8 rtc_read_minutes(){
 1074              		.loc 1 398 0
 1075              		.cfi_startproc
 1076              		@ args = 0, pretend = 0, frame = 40
 1077              		@ frame_needed = 1, uses_anonymous_args = 0
 1078 0000 80B5     		push	{r7, lr}
 1079              		.cfi_def_cfa_offset 8
 1080              		.cfi_offset 7, -8
 1081              		.cfi_offset 14, -4
 1082 0002 8AB0     		sub	sp, sp, #40
 1083              		.cfi_def_cfa_offset 48
 1084 0004 00AF     		add	r7, sp, #0
 1085              		.cfi_def_cfa_register 7
 399:.\modem.c     **** 	struct tm cal = {};
 1086              		.loc 1 399 0
 1087 0006 3B1D     		adds	r3, r7, #4
 1088 0008 0022     		movs	r2, #0
 1089 000a 1A60     		str	r2, [r3]
 1090 000c 0433     		adds	r3, r3, #4
 1091 000e 0022     		movs	r2, #0
 1092 0010 1A60     		str	r2, [r3]
 1093 0012 0433     		adds	r3, r3, #4
 1094 0014 0022     		movs	r2, #0
 1095 0016 1A60     		str	r2, [r3]
 1096 0018 0433     		adds	r3, r3, #4
 1097 001a 0022     		movs	r2, #0
 1098 001c 1A60     		str	r2, [r3]
 1099 001e 0433     		adds	r3, r3, #4
 1100 0020 0022     		movs	r2, #0
 1101 0022 1A60     		str	r2, [r3]
 1102 0024 0433     		adds	r3, r3, #4
 1103 0026 0022     		movs	r2, #0
 1104 0028 1A60     		str	r2, [r3]
 1105 002a 0433     		adds	r3, r3, #4
 1106 002c 0022     		movs	r2, #0
ARM GAS  C:\Users\cps\AppData\Local\Temp\ccCypFl7.s 			page 28


 1107 002e 1A60     		str	r2, [r3]
 1108 0030 0433     		adds	r3, r3, #4
 1109 0032 0022     		movs	r2, #0
 1110 0034 1A60     		str	r2, [r3]
 1111 0036 0433     		adds	r3, r3, #4
 1112 0038 0022     		movs	r2, #0
 1113 003a 1A60     		str	r2, [r3]
 1114 003c 0433     		adds	r3, r3, #4
 400:.\modem.c     **** 	cal = modem_get_rtc_time();
 1115              		.loc 1 400 0
 1116 003e 3B1D     		adds	r3, r7, #4
 1117 0040 1846     		mov	r0, r3
 1118 0042 FFF7FEFF 		bl	modem_get_rtc_time
 401:.\modem.c     **** 	return cal.tm_min;
 1119              		.loc 1 401 0
 1120 0046 BB68     		ldr	r3, [r7, #8]
 1121 0048 DBB2     		uxtb	r3, r3
 402:.\modem.c     **** }
 1122              		.loc 1 402 0
 1123 004a 1846     		mov	r0, r3
 1124 004c 2837     		adds	r7, r7, #40
 1125              		.cfi_def_cfa_offset 8
 1126 004e BD46     		mov	sp, r7
 1127              		.cfi_def_cfa_register 13
 1128              		@ sp needed
 1129 0050 80BD     		pop	{r7, pc}
 1130              		.cfi_endproc
 1131              	.LFE72:
 1132              		.size	rtc_read_minutes, .-rtc_read_minutes
 1133 0052 00BF     		.section	.rodata
 1134 009a 0000     		.align	2
 1135              	.LC12:
 1136 009c 41542B43 		.ascii	"AT+CALA=\"%y/%m/%d,%H:%M:%S+00\",0,2,\"ALARM\",\"\""
 1136      414C413D 
 1136      2225792F 
 1136      256D2F25 
 1136      642C2548 
 1137 00c9 2C310D00 		.ascii	",1\015\000"
 1138              		.section	.text.modem_set_next_repeating_minute_alarm,"ax",%progbits
 1139              		.align	2
 1140              		.global	modem_set_next_repeating_minute_alarm
 1141              		.thumb
 1142              		.thumb_func
 1143              		.type	modem_set_next_repeating_minute_alarm, %function
 1144              	modem_set_next_repeating_minute_alarm:
 1145              	.LFB73:
 403:.\modem.c     **** 
 404:.\modem.c     **** void  modem_set_next_repeating_minute_alarm(){
 1146              		.loc 1 404 0
 1147              		.cfi_startproc
 1148              		@ args = 0, pretend = 0, frame = 176
 1149              		@ frame_needed = 1, uses_anonymous_args = 0
 1150 0000 B0B5     		push	{r4, r5, r7, lr}
 1151              		.cfi_def_cfa_offset 16
 1152              		.cfi_offset 4, -16
 1153              		.cfi_offset 5, -12
 1154              		.cfi_offset 7, -8
ARM GAS  C:\Users\cps\AppData\Local\Temp\ccCypFl7.s 			page 29


 1155              		.cfi_offset 14, -4
 1156 0002 ACB0     		sub	sp, sp, #176
 1157              		.cfi_def_cfa_offset 192
 1158 0004 00AF     		add	r7, sp, #0
 1159              		.cfi_def_cfa_register 7
 405:.\modem.c     ****     // Creates the next minute alarm after alarm triggers.
 406:.\modem.c     **** 	
 407:.\modem.c     **** 	//get current time
 408:.\modem.c     **** 	struct tm cal = {};
 1160              		.loc 1 408 0
 1161 0006 07F18003 		add	r3, r7, #128
 1162 000a 0022     		movs	r2, #0
 1163 000c 1A60     		str	r2, [r3]
 1164 000e 0433     		adds	r3, r3, #4
 1165 0010 0022     		movs	r2, #0
 1166 0012 1A60     		str	r2, [r3]
 1167 0014 0433     		adds	r3, r3, #4
 1168 0016 0022     		movs	r2, #0
 1169 0018 1A60     		str	r2, [r3]
 1170 001a 0433     		adds	r3, r3, #4
 1171 001c 0022     		movs	r2, #0
 1172 001e 1A60     		str	r2, [r3]
 1173 0020 0433     		adds	r3, r3, #4
 1174 0022 0022     		movs	r2, #0
 1175 0024 1A60     		str	r2, [r3]
 1176 0026 0433     		adds	r3, r3, #4
 1177 0028 0022     		movs	r2, #0
 1178 002a 1A60     		str	r2, [r3]
 1179 002c 0433     		adds	r3, r3, #4
 1180 002e 0022     		movs	r2, #0
 1181 0030 1A60     		str	r2, [r3]
 1182 0032 0433     		adds	r3, r3, #4
 1183 0034 0022     		movs	r2, #0
 1184 0036 1A60     		str	r2, [r3]
 1185 0038 0433     		adds	r3, r3, #4
 1186 003a 0022     		movs	r2, #0
 1187 003c 1A60     		str	r2, [r3]
 1188 003e 0433     		adds	r3, r3, #4
 409:.\modem.c     **** 	cal = modem_get_rtc_time();
 1189              		.loc 1 409 0
 1190 0040 3B46     		mov	r3, r7
 1191 0042 1846     		mov	r0, r3
 1192 0044 FFF7FEFF 		bl	modem_get_rtc_time
 1193 0048 07F18004 		add	r4, r7, #128
 1194 004c 3D46     		mov	r5, r7
 1195 004e 0FCD     		ldmia	r5!, {r0, r1, r2, r3}
 1196 0050 0FC4     		stmia	r4!, {r0, r1, r2, r3}
 1197 0052 0FCD     		ldmia	r5!, {r0, r1, r2, r3}
 1198 0054 0FC4     		stmia	r4!, {r0, r1, r2, r3}
 1199 0056 2B68     		ldr	r3, [r5]
 1200 0058 2360     		str	r3, [r4]
 410:.\modem.c     ****     time_t curTime = mktime(&cal);
 1201              		.loc 1 410 0
 1202 005a 07F18003 		add	r3, r7, #128
 1203 005e 1846     		mov	r0, r3
 1204 0060 FFF7FEFF 		bl	mktime
 1205 0064 C7F8AC00 		str	r0, [r7, #172]
ARM GAS  C:\Users\cps\AppData\Local\Temp\ccCypFl7.s 			page 30


 411:.\modem.c     **** 	
 412:.\modem.c     **** 	//round up to the nearest next alarm based on minute intervals
 413:.\modem.c     **** 	time_t curMins = (curTime - (curTime%60))/60;
 1206              		.loc 1 413 0
 1207 0068 D7F8AC20 		ldr	r2, [r7, #172]
 1208 006c 264B     		ldr	r3, .L84
 1209 006e 82FB0301 		smull	r0, r1, r2, r3
 1210 0072 5318     		adds	r3, r2, r1
 1211 0074 5911     		asrs	r1, r3, #5
 1212 0076 D317     		asrs	r3, r2, #31
 1213 0078 C91A     		subs	r1, r1, r3
 1214 007a 0B46     		mov	r3, r1
 1215 007c 1B01     		lsls	r3, r3, #4
 1216 007e 5B1A     		subs	r3, r3, r1
 1217 0080 9B00     		lsls	r3, r3, #2
 1218 0082 D11A     		subs	r1, r2, r3
 1219 0084 D7F8AC30 		ldr	r3, [r7, #172]
 1220 0088 5B1A     		subs	r3, r3, r1
 1221 008a 1F4A     		ldr	r2, .L84
 1222 008c 82FB0312 		smull	r1, r2, r2, r3
 1223 0090 1A44     		add	r2, r2, r3
 1224 0092 5211     		asrs	r2, r2, #5
 1225 0094 DB17     		asrs	r3, r3, #31
 1226 0096 D31A     		subs	r3, r2, r3
 1227 0098 C7F8A830 		str	r3, [r7, #168]
 414:.\modem.c     **** 	time_t nextTime = (curMins - (curMins%minuteAlarmInterval) + minuteAlarmInterval)*60;
 1228              		.loc 1 414 0
 1229 009c 1B4B     		ldr	r3, .L84+4
 1230 009e 1B78     		ldrb	r3, [r3]	@ zero_extendqisi2
 1231 00a0 1A46     		mov	r2, r3
 1232 00a2 D7F8A830 		ldr	r3, [r7, #168]
 1233 00a6 93FBF2F1 		sdiv	r1, r3, r2
 1234 00aa 02FB01F2 		mul	r2, r2, r1
 1235 00ae 9B1A     		subs	r3, r3, r2
 1236 00b0 D7F8A820 		ldr	r2, [r7, #168]
 1237 00b4 D31A     		subs	r3, r2, r3
 1238 00b6 154A     		ldr	r2, .L84+4
 1239 00b8 1278     		ldrb	r2, [r2]	@ zero_extendqisi2
 1240 00ba 1A44     		add	r2, r2, r3
 1241 00bc 1346     		mov	r3, r2
 1242 00be 1B01     		lsls	r3, r3, #4
 1243 00c0 9B1A     		subs	r3, r3, r2
 1244 00c2 9B00     		lsls	r3, r3, #2
 1245 00c4 FB67     		str	r3, [r7, #124]
 415:.\modem.c     **** 	struct tm *nextTimeStruct;
 416:.\modem.c     **** 	nextTimeStruct = localtime(&nextTime);
 1246              		.loc 1 416 0
 1247 00c6 07F17C03 		add	r3, r7, #124
 1248 00ca 1846     		mov	r0, r3
 1249 00cc FFF7FEFF 		bl	localtime
 1250 00d0 C7F8A400 		str	r0, [r7, #164]
 417:.\modem.c     **** 	
 418:.\modem.c     **** 	//write new alarm to module
 419:.\modem.c     **** 	char alarmCommand [80];
 420:.\modem.c     **** 	//time format AT+CALA="08/07/14,18:45:00+00",0,2,"ALARM","",1
 421:.\modem.c     **** 	//when alrm fires, the module will issue a "+CALA: ALARM" unitl it's acknowledged with a #WAKE com
 422:.\modem.c     **** 	strftime (alarmCommand,80,"AT+CALA=\"%y/%m/%d,%H:%M:%S+00\",0,2,\"ALARM\",\"\",1\r",nextTimeStruct
ARM GAS  C:\Users\cps\AppData\Local\Temp\ccCypFl7.s 			page 31


 1251              		.loc 1 422 0
 1252 00d4 07F12C03 		add	r3, r7, #44
 1253 00d8 1846     		mov	r0, r3
 1254 00da 5021     		movs	r1, #80
 1255 00dc 0C4A     		ldr	r2, .L84+8
 1256 00de D7F8A430 		ldr	r3, [r7, #164]
 1257 00e2 FFF7FEFF 		bl	strftime
 423:.\modem.c     **** 	
 424:.\modem.c     **** 	if(at_write_command(alarmCommand,"OK",1000u) == 1u){      
 1258              		.loc 1 424 0
 1259 00e6 07F12C03 		add	r3, r7, #44
 1260 00ea 1846     		mov	r0, r3
 1261 00ec 0949     		ldr	r1, .L84+12
 1262 00ee 4FF47A72 		mov	r2, #1000
 1263 00f2 FFF7FEFF 		bl	at_write_command
 1264 00f6 0346     		mov	r3, r0
 1265 00f8 012B     		cmp	r3, #1
 1266 00fa 01D1     		bne	.L82
 425:.\modem.c     **** 		uart_string_reset();
 1267              		.loc 1 425 0
 1268 00fc FFF7FEFF 		bl	uart_string_reset
 1269              	.L82:
 426:.\modem.c     ****     }
 427:.\modem.c     **** 	
 428:.\modem.c     **** 	//write alarm here
 429:.\modem.c     **** }
 1270              		.loc 1 429 0
 1271 0100 B037     		adds	r7, r7, #176
 1272              		.cfi_def_cfa_offset 16
 1273 0102 BD46     		mov	sp, r7
 1274              		.cfi_def_cfa_register 13
 1275              		@ sp needed
 1276 0104 B0BD     		pop	{r4, r5, r7, pc}
 1277              	.L85:
 1278 0106 00BF     		.align	2
 1279              	.L84:
 1280 0108 89888888 		.word	-2004318071
 1281 010c 00000000 		.word	minuteAlarmInterval
 1282 0110 9C000000 		.word	.LC12
 1283 0114 1C000000 		.word	.LC2
 1284              		.cfi_endproc
 1285              	.LFE73:
 1286              		.size	modem_set_next_repeating_minute_alarm, .-modem_set_next_repeating_minute_alarm
 1287              		.section	.text.modem_rtc_set_repeating_minute_alarm,"ax",%progbits
 1288              		.align	2
 1289              		.global	modem_rtc_set_repeating_minute_alarm
 1290              		.thumb
 1291              		.thumb_func
 1292              		.type	modem_rtc_set_repeating_minute_alarm, %function
 1293              	modem_rtc_set_repeating_minute_alarm:
 1294              	.LFB74:
 430:.\modem.c     **** 
 431:.\modem.c     **** void  modem_rtc_set_repeating_minute_alarm(uint8 interval){
 1295              		.loc 1 431 0
 1296              		.cfi_startproc
 1297              		@ args = 0, pretend = 0, frame = 8
 1298              		@ frame_needed = 1, uses_anonymous_args = 0
ARM GAS  C:\Users\cps\AppData\Local\Temp\ccCypFl7.s 			page 32


 1299 0000 80B5     		push	{r7, lr}
 1300              		.cfi_def_cfa_offset 8
 1301              		.cfi_offset 7, -8
 1302              		.cfi_offset 14, -4
 1303 0002 82B0     		sub	sp, sp, #8
 1304              		.cfi_def_cfa_offset 16
 1305 0004 00AF     		add	r7, sp, #0
 1306              		.cfi_def_cfa_register 7
 1307 0006 0346     		mov	r3, r0
 1308 0008 FB71     		strb	r3, [r7, #7]
 432:.\modem.c     ****     // Enable the minute alarm. Get current time and set schedule.
 433:.\modem.c     ****     minuteAlarmInterval = interval;
 1309              		.loc 1 433 0
 1310 000a 044A     		ldr	r2, .L87
 1311 000c FB79     		ldrb	r3, [r7, #7]
 1312 000e 1370     		strb	r3, [r2]
 434:.\modem.c     ****     modem_set_next_repeating_minute_alarm();
 1313              		.loc 1 434 0
 1314 0010 FFF7FEFF 		bl	modem_set_next_repeating_minute_alarm
 435:.\modem.c     **** }
 1315              		.loc 1 435 0
 1316 0014 0837     		adds	r7, r7, #8
 1317              		.cfi_def_cfa_offset 8
 1318 0016 BD46     		mov	sp, r7
 1319              		.cfi_def_cfa_register 13
 1320              		@ sp needed
 1321 0018 80BD     		pop	{r7, pc}
 1322              	.L88:
 1323 001a 00BF     		.align	2
 1324              	.L87:
 1325 001c 00000000 		.word	minuteAlarmInterval
 1326              		.cfi_endproc
 1327              	.LFE74:
 1328              		.size	modem_rtc_set_repeating_minute_alarm, .-modem_rtc_set_repeating_minute_alarm
 1329              		.section	.rodata
 1330 00cd 000000   		.align	2
 1331              	.LC13:
 1332 00d0 4154234E 		.ascii	"AT#NITZ?\015\000"
 1332      49545A3F 
 1332      0D00
 1333              		.section	.text.modem_get_nertwork_time,"ax",%progbits
 1334              		.align	2
 1335              		.global	modem_get_nertwork_time
 1336              		.thumb
 1337              		.thumb_func
 1338              		.type	modem_get_nertwork_time, %function
 1339              	modem_get_nertwork_time:
 1340              	.LFB75:
 436:.\modem.c     **** 
 437:.\modem.c     **** uint8 modem_get_nertwork_time(){
 1341              		.loc 1 437 0
 1342              		.cfi_startproc
 1343              		@ args = 0, pretend = 0, frame = 0
 1344              		@ frame_needed = 1, uses_anonymous_args = 0
 1345 0000 80B5     		push	{r7, lr}
 1346              		.cfi_def_cfa_offset 8
 1347              		.cfi_offset 7, -8
ARM GAS  C:\Users\cps\AppData\Local\Temp\ccCypFl7.s 			page 33


 1348              		.cfi_offset 14, -4
 1349 0002 00AF     		add	r7, sp, #0
 1350              		.cfi_def_cfa_register 7
 438:.\modem.c     ****     if(at_write_command("AT#NITZ?\r","OK",1000u) == 1u){      
 1351              		.loc 1 438 0
 1352 0004 0648     		ldr	r0, .L92
 1353 0006 0749     		ldr	r1, .L92+4
 1354 0008 4FF47A72 		mov	r2, #1000
 1355 000c FFF7FEFF 		bl	at_write_command
 1356 0010 0346     		mov	r3, r0
 1357 0012 012B     		cmp	r3, #1
 1358 0014 01D1     		bne	.L90
 439:.\modem.c     ****         return 1u;
 1359              		.loc 1 439 0
 1360 0016 0123     		movs	r3, #1
 1361 0018 00E0     		b	.L91
 1362              	.L90:
 440:.\modem.c     ****     }
 441:.\modem.c     ****     /* Write to SD Card debugger
 442:.\modem.c     ****     else debug_write("(AT#SGACT=1,1) No IP Address Assigned.");
 443:.\modem.c     ****     */
 444:.\modem.c     ****     
 445:.\modem.c     ****     /* Parse Time from data packet */
 446:.\modem.c     **** 
 447:.\modem.c     ****     return 0u;  
 1363              		.loc 1 447 0
 1364 001a 0023     		movs	r3, #0
 1365              	.L91:
 448:.\modem.c     **** }
 1366              		.loc 1 448 0
 1367 001c 1846     		mov	r0, r3
 1368 001e 80BD     		pop	{r7, pc}
 1369              	.L93:
 1370              		.align	2
 1371              	.L92:
 1372 0020 D0000000 		.word	.LC13
 1373 0024 1C000000 		.word	.LC2
 1374              		.cfi_endproc
 1375              	.LFE75:
 1376              		.size	modem_get_nertwork_time, .-modem_get_nertwork_time
 1377              		.section	.rodata
 1378 00da 0000     		.align	2
 1379              	.LC14:
 1380 00dc 41542B43 		.ascii	"AT+CREG?\015\000"
 1380      5245473F 
 1380      0D00
 1381 00e6 0000     		.align	2
 1382              	.LC15:
 1383 00e8 2C3100   		.ascii	",1\000"
 1384              		.section	.text.modem_check_network,"ax",%progbits
 1385              		.align	2
 1386              		.global	modem_check_network
 1387              		.thumb
 1388              		.thumb_func
 1389              		.type	modem_check_network, %function
 1390              	modem_check_network:
 1391              	.LFB76:
ARM GAS  C:\Users\cps\AppData\Local\Temp\ccCypFl7.s 			page 34


 449:.\modem.c     **** 
 450:.\modem.c     **** uint8 modem_check_network() {
 1392              		.loc 1 450 0
 1393              		.cfi_startproc
 1394              		@ args = 0, pretend = 0, frame = 0
 1395              		@ frame_needed = 1, uses_anonymous_args = 0
 1396 0000 80B5     		push	{r7, lr}
 1397              		.cfi_def_cfa_offset 8
 1398              		.cfi_offset 7, -8
 1399              		.cfi_offset 14, -4
 1400 0002 00AF     		add	r7, sp, #0
 1401              		.cfi_def_cfa_register 7
 451:.\modem.c     ****     if(at_write_command("AT+CREG?\r",",1",1000u) == 1u){      
 1402              		.loc 1 451 0
 1403 0004 0648     		ldr	r0, .L97
 1404 0006 0749     		ldr	r1, .L97+4
 1405 0008 4FF47A72 		mov	r2, #1000
 1406 000c FFF7FEFF 		bl	at_write_command
 1407 0010 0346     		mov	r3, r0
 1408 0012 012B     		cmp	r3, #1
 1409 0014 01D1     		bne	.L95
 452:.\modem.c     ****         return 1u;
 1410              		.loc 1 452 0
 1411 0016 0123     		movs	r3, #1
 1412 0018 00E0     		b	.L96
 1413              	.L95:
 453:.\modem.c     ****     }
 454:.\modem.c     ****     /* Write to SD Card debugger
 455:.\modem.c     ****     else debug_write("(AT#SGACT=1,1) No IP Address Assigned.");
 456:.\modem.c     ****     */
 457:.\modem.c     ****     
 458:.\modem.c     ****     /* Parse Time from data packet */
 459:.\modem.c     **** 
 460:.\modem.c     ****     return 0u;      
 1414              		.loc 1 460 0
 1415 001a 0023     		movs	r3, #0
 1416              	.L96:
 461:.\modem.c     **** }
 1417              		.loc 1 461 0
 1418 001c 1846     		mov	r0, r3
 1419 001e 80BD     		pop	{r7, pc}
 1420              	.L98:
 1421              		.align	2
 1422              	.L97:
 1423 0020 DC000000 		.word	.LC14
 1424 0024 E8000000 		.word	.LC15
 1425              		.cfi_endproc
 1426              	.LFE76:
 1427              		.size	modem_check_network, .-modem_check_network
 1428              		.section	.rodata
 1429 00eb 00       		.align	2
 1430              	.LC16:
 1431 00ec 41542B43 		.ascii	"AT+CSQ\015\000"
 1431      53510D00 
 1432              		.section	.text.modem_get_signal_quality,"ax",%progbits
 1433              		.align	2
 1434              		.global	modem_get_signal_quality
ARM GAS  C:\Users\cps\AppData\Local\Temp\ccCypFl7.s 			page 35


 1435              		.thumb
 1436              		.thumb_func
 1437              		.type	modem_get_signal_quality, %function
 1438              	modem_get_signal_quality:
 1439              	.LFB77:
 462:.\modem.c     **** uint8 modem_get_signal_quality(){
 1440              		.loc 1 462 0
 1441              		.cfi_startproc
 1442              		@ args = 0, pretend = 0, frame = 0
 1443              		@ frame_needed = 1, uses_anonymous_args = 0
 1444 0000 80B5     		push	{r7, lr}
 1445              		.cfi_def_cfa_offset 8
 1446              		.cfi_offset 7, -8
 1447              		.cfi_offset 14, -4
 1448 0002 00AF     		add	r7, sp, #0
 1449              		.cfi_def_cfa_register 7
 463:.\modem.c     ****     if(at_write_command("AT+CSQ\r","OK",1000u) == 1u){      
 1450              		.loc 1 463 0
 1451 0004 0648     		ldr	r0, .L102
 1452 0006 0749     		ldr	r1, .L102+4
 1453 0008 4FF47A72 		mov	r2, #1000
 1454 000c FFF7FEFF 		bl	at_write_command
 1455 0010 0346     		mov	r3, r0
 1456 0012 012B     		cmp	r3, #1
 1457 0014 01D1     		bne	.L100
 464:.\modem.c     ****         return 1u;
 1458              		.loc 1 464 0
 1459 0016 0123     		movs	r3, #1
 1460 0018 00E0     		b	.L101
 1461              	.L100:
 465:.\modem.c     ****     }
 466:.\modem.c     ****     /* Write to SD Card debugger
 467:.\modem.c     ****     else debug_write("(AT#SGACT=1,1) No IP Address Assigned.");
 468:.\modem.c     ****     */
 469:.\modem.c     ****     
 470:.\modem.c     ****     /* Parse Time from data packet */
 471:.\modem.c     **** 
 472:.\modem.c     ****     return 0u;  
 1462              		.loc 1 472 0
 1463 001a 0023     		movs	r3, #0
 1464              	.L101:
 473:.\modem.c     **** }
 1465              		.loc 1 473 0
 1466 001c 1846     		mov	r0, r3
 1467 001e 80BD     		pop	{r7, pc}
 1468              	.L103:
 1469              		.align	2
 1470              	.L102:
 1471 0020 EC000000 		.word	.LC16
 1472 0024 1C000000 		.word	.LC2
 1473              		.cfi_endproc
 1474              	.LFE77:
 1475              		.size	modem_get_signal_quality, .-modem_get_signal_quality
 1476              		.section	.rodata
 1477              		.align	2
 1478              	.LC17:
 1479 00f4 41542B43 		.ascii	"AT+CGSN\015\000"
ARM GAS  C:\Users\cps\AppData\Local\Temp\ccCypFl7.s 			page 36


 1479      47534E0D 
 1479      00
 1480              		.section	.text.modem_get_serial_number,"ax",%progbits
 1481              		.align	2
 1482              		.global	modem_get_serial_number
 1483              		.thumb
 1484              		.thumb_func
 1485              		.type	modem_get_serial_number, %function
 1486              	modem_get_serial_number:
 1487              	.LFB78:
 474:.\modem.c     **** 
 475:.\modem.c     **** uint8 modem_get_serial_number(){
 1488              		.loc 1 475 0
 1489              		.cfi_startproc
 1490              		@ args = 0, pretend = 0, frame = 8
 1491              		@ frame_needed = 1, uses_anonymous_args = 0
 1492 0000 80B5     		push	{r7, lr}
 1493              		.cfi_def_cfa_offset 8
 1494              		.cfi_offset 7, -8
 1495              		.cfi_offset 14, -4
 1496 0002 82B0     		sub	sp, sp, #8
 1497              		.cfi_def_cfa_offset 16
 1498 0004 00AF     		add	r7, sp, #0
 1499              		.cfi_def_cfa_register 7
 476:.\modem.c     ****     if(at_write_command("AT+CGSN\r","OK",1000u) == 1u){      
 1500              		.loc 1 476 0
 1501 0006 0948     		ldr	r0, .L107
 1502 0008 0949     		ldr	r1, .L107+4
 1503 000a 4FF47A72 		mov	r2, #1000
 1504 000e FFF7FEFF 		bl	at_write_command
 1505 0012 0346     		mov	r3, r0
 1506 0014 012B     		cmp	r3, #1
 1507 0016 01D1     		bne	.L105
 477:.\modem.c     ****         return 1u;
 1508              		.loc 1 477 0
 1509 0018 0123     		movs	r3, #1
 1510 001a 02E0     		b	.L106
 1511              	.L105:
 478:.\modem.c     ****     }
 479:.\modem.c     ****     /* Write to SD Card debugger
 480:.\modem.c     ****     else debug_write("(AT#SGACT=1,1) No IP Address Assigned.");
 481:.\modem.c     ****     */
 482:.\modem.c     **** 	uint8 x = 0;
 1512              		.loc 1 482 0
 1513 001c 0023     		movs	r3, #0
 1514 001e FB71     		strb	r3, [r7, #7]
 483:.\modem.c     ****     return 0u;  
 1515              		.loc 1 483 0
 1516 0020 0023     		movs	r3, #0
 1517              	.L106:
 484:.\modem.c     **** }
 1518              		.loc 1 484 0
 1519 0022 1846     		mov	r0, r3
 1520 0024 0837     		adds	r7, r7, #8
 1521              		.cfi_def_cfa_offset 8
 1522 0026 BD46     		mov	sp, r7
 1523              		.cfi_def_cfa_register 13
ARM GAS  C:\Users\cps\AppData\Local\Temp\ccCypFl7.s 			page 37


 1524              		@ sp needed
 1525 0028 80BD     		pop	{r7, pc}
 1526              	.L108:
 1527 002a 00BF     		.align	2
 1528              	.L107:
 1529 002c F4000000 		.word	.LC17
 1530 0030 1C000000 		.word	.LC2
 1531              		.cfi_endproc
 1532              	.LFE78:
 1533              		.size	modem_get_serial_number, .-modem_get_serial_number
 1534              		.section	.rodata
 1535 00fd 000000   		.align	2
 1536              	.LC18:
 1537 0100 41542656 		.ascii	"AT&V\015\000"
 1537      0D00
 1538              		.section	.text.modem_get_profile,"ax",%progbits
 1539              		.align	2
 1540              		.global	modem_get_profile
 1541              		.thumb
 1542              		.thumb_func
 1543              		.type	modem_get_profile, %function
 1544              	modem_get_profile:
 1545              	.LFB79:
 485:.\modem.c     **** 
 486:.\modem.c     **** 
 487:.\modem.c     **** uint8 modem_get_profile(){
 1546              		.loc 1 487 0
 1547              		.cfi_startproc
 1548              		@ args = 0, pretend = 0, frame = 0
 1549              		@ frame_needed = 1, uses_anonymous_args = 0
 1550 0000 80B5     		push	{r7, lr}
 1551              		.cfi_def_cfa_offset 8
 1552              		.cfi_offset 7, -8
 1553              		.cfi_offset 14, -4
 1554 0002 00AF     		add	r7, sp, #0
 1555              		.cfi_def_cfa_register 7
 488:.\modem.c     ****     if(at_write_command("AT&V\r","OK",1000u) == 1u){      
 1556              		.loc 1 488 0
 1557 0004 0648     		ldr	r0, .L112
 1558 0006 0749     		ldr	r1, .L112+4
 1559 0008 4FF47A72 		mov	r2, #1000
 1560 000c FFF7FEFF 		bl	at_write_command
 1561 0010 0346     		mov	r3, r0
 1562 0012 012B     		cmp	r3, #1
 1563 0014 01D1     		bne	.L110
 489:.\modem.c     ****         return 1u;
 1564              		.loc 1 489 0
 1565 0016 0123     		movs	r3, #1
 1566 0018 00E0     		b	.L111
 1567              	.L110:
 490:.\modem.c     ****     }
 491:.\modem.c     ****     /* Write to SD Card debugger
 492:.\modem.c     ****     else debug_write("(AT#SGACT=1,1) No IP Address Assigned.");
 493:.\modem.c     ****     */
 494:.\modem.c     **** 
 495:.\modem.c     ****     return 0u;  
 1568              		.loc 1 495 0
ARM GAS  C:\Users\cps\AppData\Local\Temp\ccCypFl7.s 			page 38


 1569 001a 0023     		movs	r3, #0
 1570              	.L111:
 496:.\modem.c     **** }
 1571              		.loc 1 496 0
 1572 001c 1846     		mov	r0, r3
 1573 001e 80BD     		pop	{r7, pc}
 1574              	.L113:
 1575              		.align	2
 1576              	.L112:
 1577 0020 00010000 		.word	.LC18
 1578 0024 1C000000 		.word	.LC2
 1579              		.cfi_endproc
 1580              	.LFE79:
 1581              		.size	modem_get_profile, .-modem_get_profile
 1582              		.section	.rodata
 1583 0106 0000     		.align	2
 1584              	.LC19:
 1585 0108 4154264B 		.ascii	"AT&K%u\015\000"
 1585      25750D00 
 1586              		.section	.text.modem_set_flow_control,"ax",%progbits
 1587              		.align	2
 1588              		.global	modem_set_flow_control
 1589              		.thumb
 1590              		.thumb_func
 1591              		.type	modem_set_flow_control, %function
 1592              	modem_set_flow_control:
 1593              	.LFB80:
 497:.\modem.c     **** 
 498:.\modem.c     **** uint8 modem_set_flow_control(uint8 param){
 1594              		.loc 1 498 0
 1595              		.cfi_startproc
 1596              		@ args = 0, pretend = 0, frame = 112
 1597              		@ frame_needed = 1, uses_anonymous_args = 0
 1598 0000 80B5     		push	{r7, lr}
 1599              		.cfi_def_cfa_offset 8
 1600              		.cfi_offset 7, -8
 1601              		.cfi_offset 14, -4
 1602 0002 9CB0     		sub	sp, sp, #112
 1603              		.cfi_def_cfa_offset 120
 1604 0004 00AF     		add	r7, sp, #0
 1605              		.cfi_def_cfa_register 7
 1606 0006 0346     		mov	r3, r0
 1607 0008 FB71     		strb	r3, [r7, #7]
 499:.\modem.c     ****     char cmd[100];
 500:.\modem.c     ****     sprintf(cmd,"AT&K%u\r",param);
 1608              		.loc 1 500 0
 1609 000a FB79     		ldrb	r3, [r7, #7]	@ zero_extendqisi2
 1610 000c 07F10C02 		add	r2, r7, #12
 1611 0010 1046     		mov	r0, r2
 1612 0012 0B49     		ldr	r1, .L118
 1613 0014 1A46     		mov	r2, r3
 1614 0016 FFF7FEFF 		bl	sprintf
 501:.\modem.c     ****     if(at_write_command(cmd,"OK",1000u) == 1u){      
 1615              		.loc 1 501 0
 1616 001a 07F10C03 		add	r3, r7, #12
 1617 001e 1846     		mov	r0, r3
 1618 0020 0849     		ldr	r1, .L118+4
ARM GAS  C:\Users\cps\AppData\Local\Temp\ccCypFl7.s 			page 39


 1619 0022 4FF47A72 		mov	r2, #1000
 1620 0026 FFF7FEFF 		bl	at_write_command
 1621 002a 0346     		mov	r3, r0
 1622 002c 012B     		cmp	r3, #1
 1623 002e 01D1     		bne	.L115
 502:.\modem.c     ****         return 1u;
 1624              		.loc 1 502 0
 1625 0030 0123     		movs	r3, #1
 1626 0032 00E0     		b	.L117
 1627              	.L115:
 503:.\modem.c     ****     }
 504:.\modem.c     ****     /* Write to SD Card debugger
 505:.\modem.c     ****     else debug_write("(AT#SGACT=1,1) No IP Address Assigned.");
 506:.\modem.c     ****     */
 507:.\modem.c     **** 
 508:.\modem.c     ****     return 0u;  
 1628              		.loc 1 508 0
 1629 0034 0023     		movs	r3, #0
 1630              	.L117:
 509:.\modem.c     **** }
 1631              		.loc 1 509 0 discriminator 1
 1632 0036 1846     		mov	r0, r3
 1633 0038 7037     		adds	r7, r7, #112
 1634              		.cfi_def_cfa_offset 8
 1635 003a BD46     		mov	sp, r7
 1636              		.cfi_def_cfa_register 13
 1637              		@ sp needed
 1638 003c 80BD     		pop	{r7, pc}
 1639              	.L119:
 1640 003e 00BF     		.align	2
 1641              	.L118:
 1642 0040 08010000 		.word	.LC19
 1643 0044 1C000000 		.word	.LC2
 1644              		.cfi_endproc
 1645              	.LFE80:
 1646              		.size	modem_set_flow_control, .-modem_set_flow_control
 1647              		.section	.rodata
 1648              		.align	2
 1649              	.LC20:
 1650 0110 41542B43 		.ascii	"AT+CMEE=%u\015\000"
 1650      4D45453D 
 1650      25750D00 
 1651              		.section	.text.modem_set_error_reports,"ax",%progbits
 1652              		.align	2
 1653              		.global	modem_set_error_reports
 1654              		.thumb
 1655              		.thumb_func
 1656              		.type	modem_set_error_reports, %function
 1657              	modem_set_error_reports:
 1658              	.LFB81:
 510:.\modem.c     **** 
 511:.\modem.c     **** uint8 modem_set_error_reports(uint8 param){
 1659              		.loc 1 511 0
 1660              		.cfi_startproc
 1661              		@ args = 0, pretend = 0, frame = 112
 1662              		@ frame_needed = 1, uses_anonymous_args = 0
 1663 0000 80B5     		push	{r7, lr}
ARM GAS  C:\Users\cps\AppData\Local\Temp\ccCypFl7.s 			page 40


 1664              		.cfi_def_cfa_offset 8
 1665              		.cfi_offset 7, -8
 1666              		.cfi_offset 14, -4
 1667 0002 9CB0     		sub	sp, sp, #112
 1668              		.cfi_def_cfa_offset 120
 1669 0004 00AF     		add	r7, sp, #0
 1670              		.cfi_def_cfa_register 7
 1671 0006 0346     		mov	r3, r0
 1672 0008 FB71     		strb	r3, [r7, #7]
 512:.\modem.c     **** 	/*
 513:.\modem.c     **** 	2.4. Enable Extended Error Result codes
 514:.\modem.c     **** 	Disable the Error Report in numerical and verbose format:
 515:.\modem.c     **** 	AT+CMEE=0
 516:.\modem.c     **** 	OK
 517:.\modem.c     **** 	Enable the Error Report in numerical format:
 518:.\modem.c     **** 	AT+CMEE=1
 519:.\modem.c     **** 	OK
 520:.\modem.c     **** 	Enable the Error Report in verbose format:
 521:.\modem.c     **** 	AT+CMEE=2
 522:.\modem.c     **** 	OK
 523:.\modem.c     **** 	*/
 524:.\modem.c     **** 	
 525:.\modem.c     ****     char cmd[100];
 526:.\modem.c     ****     sprintf(cmd,"AT+CMEE=%u\r",param);
 1673              		.loc 1 526 0
 1674 000a FB79     		ldrb	r3, [r7, #7]	@ zero_extendqisi2
 1675 000c 07F10C02 		add	r2, r7, #12
 1676 0010 1046     		mov	r0, r2
 1677 0012 0B49     		ldr	r1, .L124
 1678 0014 1A46     		mov	r2, r3
 1679 0016 FFF7FEFF 		bl	sprintf
 527:.\modem.c     ****     if(at_write_command(cmd,"OK",1000u) == 1u){      
 1680              		.loc 1 527 0
 1681 001a 07F10C03 		add	r3, r7, #12
 1682 001e 1846     		mov	r0, r3
 1683 0020 0849     		ldr	r1, .L124+4
 1684 0022 4FF47A72 		mov	r2, #1000
 1685 0026 FFF7FEFF 		bl	at_write_command
 1686 002a 0346     		mov	r3, r0
 1687 002c 012B     		cmp	r3, #1
 1688 002e 01D1     		bne	.L121
 528:.\modem.c     ****         return 1u;
 1689              		.loc 1 528 0
 1690 0030 0123     		movs	r3, #1
 1691 0032 00E0     		b	.L123
 1692              	.L121:
 529:.\modem.c     ****     }
 530:.\modem.c     ****     /* Write to SD Card debugger
 531:.\modem.c     ****     else debug_write("(AT#SGACT=1,1) No IP Address Assigned.");
 532:.\modem.c     ****     */
 533:.\modem.c     **** 
 534:.\modem.c     ****     return 0u;  
 1693              		.loc 1 534 0
 1694 0034 0023     		movs	r3, #0
 1695              	.L123:
 535:.\modem.c     **** }
 1696              		.loc 1 535 0 discriminator 1
ARM GAS  C:\Users\cps\AppData\Local\Temp\ccCypFl7.s 			page 41


 1697 0036 1846     		mov	r0, r3
 1698 0038 7037     		adds	r7, r7, #112
 1699              		.cfi_def_cfa_offset 8
 1700 003a BD46     		mov	sp, r7
 1701              		.cfi_def_cfa_register 13
 1702              		@ sp needed
 1703 003c 80BD     		pop	{r7, pc}
 1704              	.L125:
 1705 003e 00BF     		.align	2
 1706              	.L124:
 1707 0040 10010000 		.word	.LC20
 1708 0044 1C000000 		.word	.LC2
 1709              		.cfi_endproc
 1710              	.LFE81:
 1711              		.size	modem_set_error_reports, .-modem_set_error_reports
 1712              		.section	.rodata
 1713              		.align	2
 1714              	.LC21:
 1715 011c 41542B43 		.ascii	"AT+CGMR\015\000"
 1715      474D520D 
 1715      00
 1716              		.section	.text.modem_get_sw_version,"ax",%progbits
 1717              		.align	2
 1718              		.global	modem_get_sw_version
 1719              		.thumb
 1720              		.thumb_func
 1721              		.type	modem_get_sw_version, %function
 1722              	modem_get_sw_version:
 1723              	.LFB82:
 536:.\modem.c     **** 
 537:.\modem.c     **** uint8 modem_get_sw_version(){
 1724              		.loc 1 537 0
 1725              		.cfi_startproc
 1726              		@ args = 0, pretend = 0, frame = 0
 1727              		@ frame_needed = 1, uses_anonymous_args = 0
 1728 0000 80B5     		push	{r7, lr}
 1729              		.cfi_def_cfa_offset 8
 1730              		.cfi_offset 7, -8
 1731              		.cfi_offset 14, -4
 1732 0002 00AF     		add	r7, sp, #0
 1733              		.cfi_def_cfa_register 7
 538:.\modem.c     ****     if(at_write_command("AT+CGMR\r","OK",1000u) == 1u){      
 1734              		.loc 1 538 0
 1735 0004 0648     		ldr	r0, .L129
 1736 0006 0749     		ldr	r1, .L129+4
 1737 0008 4FF47A72 		mov	r2, #1000
 1738 000c FFF7FEFF 		bl	at_write_command
 1739 0010 0346     		mov	r3, r0
 1740 0012 012B     		cmp	r3, #1
 1741 0014 01D1     		bne	.L127
 539:.\modem.c     ****         return 1u;
 1742              		.loc 1 539 0
 1743 0016 0123     		movs	r3, #1
 1744 0018 00E0     		b	.L128
 1745              	.L127:
 540:.\modem.c     ****     }
 541:.\modem.c     ****     /* Write to SD Card debugger
ARM GAS  C:\Users\cps\AppData\Local\Temp\ccCypFl7.s 			page 42


 542:.\modem.c     ****     else debug_write("(AT#SGACT=1,1) No IP Address Assigned.");
 543:.\modem.c     ****     */
 544:.\modem.c     **** 
 545:.\modem.c     ****     return 0u;  
 1746              		.loc 1 545 0
 1747 001a 0023     		movs	r3, #0
 1748              	.L128:
 546:.\modem.c     **** }
 1749              		.loc 1 546 0
 1750 001c 1846     		mov	r0, r3
 1751 001e 80BD     		pop	{r7, pc}
 1752              	.L130:
 1753              		.align	2
 1754              	.L129:
 1755 0020 1C010000 		.word	.LC21
 1756 0024 1C000000 		.word	.LC2
 1757              		.cfi_endproc
 1758              	.LFE82:
 1759              		.size	modem_get_sw_version, .-modem_get_sw_version
 1760              		.section	.rodata
 1761 0125 000000   		.align	2
 1762              	.LC22:
 1763 0128 41542343 		.ascii	"AT#CDMADC=%u\015\000"
 1763      444D4144 
 1763      433D2575 
 1763      0D00
 1764              		.section	.text.modem_enable_CDMA_data,"ax",%progbits
 1765              		.align	2
 1766              		.global	modem_enable_CDMA_data
 1767              		.thumb
 1768              		.thumb_func
 1769              		.type	modem_enable_CDMA_data, %function
 1770              	modem_enable_CDMA_data:
 1771              	.LFB83:
 547:.\modem.c     **** 
 548:.\modem.c     **** uint8 modem_enable_CDMA_data(uint8 param){
 1772              		.loc 1 548 0
 1773              		.cfi_startproc
 1774              		@ args = 0, pretend = 0, frame = 112
 1775              		@ frame_needed = 1, uses_anonymous_args = 0
 1776 0000 80B5     		push	{r7, lr}
 1777              		.cfi_def_cfa_offset 8
 1778              		.cfi_offset 7, -8
 1779              		.cfi_offset 14, -4
 1780 0002 9CB0     		sub	sp, sp, #112
 1781              		.cfi_def_cfa_offset 120
 1782 0004 00AF     		add	r7, sp, #0
 1783              		.cfi_def_cfa_register 7
 1784 0006 0346     		mov	r3, r0
 1785 0008 FB71     		strb	r3, [r7, #7]
 549:.\modem.c     **** 	/*
 550:.\modem.c     **** 	4.2.12 CDMA Data Connection
 551:.\modem.c     **** 	0 - CDMA Data connection deactivation request
 552:.\modem.c     **** 	1 - CDMA Data connection activation request
 553:.\modem.c     **** 	*/
 554:.\modem.c     **** 	
 555:.\modem.c     ****     char cmd[100];
ARM GAS  C:\Users\cps\AppData\Local\Temp\ccCypFl7.s 			page 43


 556:.\modem.c     ****     sprintf(cmd,"AT#CDMADC=%u\r",param);
 1786              		.loc 1 556 0
 1787 000a FB79     		ldrb	r3, [r7, #7]	@ zero_extendqisi2
 1788 000c 07F10C02 		add	r2, r7, #12
 1789 0010 1046     		mov	r0, r2
 1790 0012 0B49     		ldr	r1, .L135
 1791 0014 1A46     		mov	r2, r3
 1792 0016 FFF7FEFF 		bl	sprintf
 557:.\modem.c     ****     if(at_write_command(cmd,"OK",5000u) == 1u){      
 1793              		.loc 1 557 0
 1794 001a 07F10C03 		add	r3, r7, #12
 1795 001e 1846     		mov	r0, r3
 1796 0020 0849     		ldr	r1, .L135+4
 1797 0022 41F28832 		movw	r2, #5000
 1798 0026 FFF7FEFF 		bl	at_write_command
 1799 002a 0346     		mov	r3, r0
 1800 002c 012B     		cmp	r3, #1
 1801 002e 01D1     		bne	.L132
 558:.\modem.c     ****         return 1u;
 1802              		.loc 1 558 0
 1803 0030 0123     		movs	r3, #1
 1804 0032 00E0     		b	.L134
 1805              	.L132:
 559:.\modem.c     ****     }
 560:.\modem.c     ****     /* Write to SD Card debugger
 561:.\modem.c     ****     else debug_write("(AT#SGACT=1,1) No IP Address Assigned.");
 562:.\modem.c     ****     */
 563:.\modem.c     **** 
 564:.\modem.c     ****     return 0u;  
 1806              		.loc 1 564 0
 1807 0034 0023     		movs	r3, #0
 1808              	.L134:
 565:.\modem.c     **** }
 1809              		.loc 1 565 0 discriminator 1
 1810 0036 1846     		mov	r0, r3
 1811 0038 7037     		adds	r7, r7, #112
 1812              		.cfi_def_cfa_offset 8
 1813 003a BD46     		mov	sp, r7
 1814              		.cfi_def_cfa_register 13
 1815              		@ sp needed
 1816 003c 80BD     		pop	{r7, pc}
 1817              	.L136:
 1818 003e 00BF     		.align	2
 1819              	.L135:
 1820 0040 28010000 		.word	.LC22
 1821 0044 1C000000 		.word	.LC2
 1822              		.cfi_endproc
 1823              	.LFE83:
 1824              		.size	modem_enable_CDMA_data, .-modem_enable_CDMA_data
 1825              		.section	.rodata
 1826 0136 0000     		.align	2
 1827              	.LC23:
 1828 0138 41542343 		.ascii	"AT#CDMADC?\015\000"
 1828      444D4144 
 1828      433F0D00 
 1829              		.section	.text.modem_test_CDMA_data,"ax",%progbits
 1830              		.align	2
ARM GAS  C:\Users\cps\AppData\Local\Temp\ccCypFl7.s 			page 44


 1831              		.global	modem_test_CDMA_data
 1832              		.thumb
 1833              		.thumb_func
 1834              		.type	modem_test_CDMA_data, %function
 1835              	modem_test_CDMA_data:
 1836              	.LFB84:
 566:.\modem.c     **** 
 567:.\modem.c     **** uint8 modem_test_CDMA_data(){
 1837              		.loc 1 567 0
 1838              		.cfi_startproc
 1839              		@ args = 0, pretend = 0, frame = 0
 1840              		@ frame_needed = 1, uses_anonymous_args = 0
 1841 0000 80B5     		push	{r7, lr}
 1842              		.cfi_def_cfa_offset 8
 1843              		.cfi_offset 7, -8
 1844              		.cfi_offset 14, -4
 1845 0002 00AF     		add	r7, sp, #0
 1846              		.cfi_def_cfa_register 7
 568:.\modem.c     **** 	
 569:.\modem.c     ****     if(at_write_command("AT#CDMADC?\r","OK",1000u) == 1u){      
 1847              		.loc 1 569 0
 1848 0004 0648     		ldr	r0, .L140
 1849 0006 0749     		ldr	r1, .L140+4
 1850 0008 4FF47A72 		mov	r2, #1000
 1851 000c FFF7FEFF 		bl	at_write_command
 1852 0010 0346     		mov	r3, r0
 1853 0012 012B     		cmp	r3, #1
 1854 0014 01D1     		bne	.L138
 570:.\modem.c     ****         return 1u;
 1855              		.loc 1 570 0
 1856 0016 0123     		movs	r3, #1
 1857 0018 00E0     		b	.L139
 1858              	.L138:
 571:.\modem.c     ****     }
 572:.\modem.c     ****     /* Write to SD Card debugger
 573:.\modem.c     ****     else debug_write("(AT#SGACT=1,1) No IP Address Assigned.");
 574:.\modem.c     ****     */
 575:.\modem.c     **** 
 576:.\modem.c     ****     return 0u;	
 1859              		.loc 1 576 0
 1860 001a 0023     		movs	r3, #0
 1861              	.L139:
 577:.\modem.c     **** }
 1862              		.loc 1 577 0
 1863 001c 1846     		mov	r0, r3
 1864 001e 80BD     		pop	{r7, pc}
 1865              	.L141:
 1866              		.align	2
 1867              	.L140:
 1868 0020 38010000 		.word	.LC23
 1869 0024 1C000000 		.word	.LC2
 1870              		.cfi_endproc
 1871              	.LFE84:
 1872              		.size	modem_test_CDMA_data, .-modem_test_CDMA_data
 1873              		.section	.rodata
 1874              		.align	2
 1875              	.LC24:
ARM GAS  C:\Users\cps\AppData\Local\Temp\ccCypFl7.s 			page 45


 1876 0144 41542355 		.ascii	"AT#USERID=\"%s\"\015\000"
 1876      53455249 
 1876      443D2225 
 1876      73220D00 
 1877              		.section	.text.modem_set_user,"ax",%progbits
 1878              		.align	2
 1879              		.global	modem_set_user
 1880              		.thumb
 1881              		.thumb_func
 1882              		.type	modem_set_user, %function
 1883              	modem_set_user:
 1884              	.LFB85:
 578:.\modem.c     **** 
 579:.\modem.c     **** uint8 modem_set_user(char* user) {
 1885              		.loc 1 579 0
 1886              		.cfi_startproc
 1887              		@ args = 0, pretend = 0, frame = 112
 1888              		@ frame_needed = 1, uses_anonymous_args = 0
 1889 0000 80B5     		push	{r7, lr}
 1890              		.cfi_def_cfa_offset 8
 1891              		.cfi_offset 7, -8
 1892              		.cfi_offset 14, -4
 1893 0002 9CB0     		sub	sp, sp, #112
 1894              		.cfi_def_cfa_offset 120
 1895 0004 00AF     		add	r7, sp, #0
 1896              		.cfi_def_cfa_register 7
 1897 0006 7860     		str	r0, [r7, #4]
 580:.\modem.c     **** 	
 581:.\modem.c     ****     char cmd[100];
 582:.\modem.c     ****     sprintf(cmd,"AT#USERID=\"%s\"\r",user);		
 1898              		.loc 1 582 0
 1899 0008 07F10C03 		add	r3, r7, #12
 1900 000c 1846     		mov	r0, r3
 1901 000e 0B49     		ldr	r1, .L146
 1902 0010 7A68     		ldr	r2, [r7, #4]
 1903 0012 FFF7FEFF 		bl	sprintf
 583:.\modem.c     **** 	
 584:.\modem.c     ****     if(at_write_command(cmd,"OK",1000u) == 1u){      
 1904              		.loc 1 584 0
 1905 0016 07F10C03 		add	r3, r7, #12
 1906 001a 1846     		mov	r0, r3
 1907 001c 0849     		ldr	r1, .L146+4
 1908 001e 4FF47A72 		mov	r2, #1000
 1909 0022 FFF7FEFF 		bl	at_write_command
 1910 0026 0346     		mov	r3, r0
 1911 0028 012B     		cmp	r3, #1
 1912 002a 01D1     		bne	.L143
 585:.\modem.c     ****         return 1u;
 1913              		.loc 1 585 0
 1914 002c 0123     		movs	r3, #1
 1915 002e 00E0     		b	.L145
 1916              	.L143:
 586:.\modem.c     ****     }
 587:.\modem.c     ****     /* Write to SD Card debugger
 588:.\modem.c     ****     else debug_write("(AT#SGACT=1,1) No IP Address Assigned.");
 589:.\modem.c     ****     */
 590:.\modem.c     **** 	
ARM GAS  C:\Users\cps\AppData\Local\Temp\ccCypFl7.s 			page 46


 591:.\modem.c     **** 	return 0u;	
 1917              		.loc 1 591 0
 1918 0030 0023     		movs	r3, #0
 1919              	.L145:
 592:.\modem.c     **** }
 1920              		.loc 1 592 0 discriminator 1
 1921 0032 1846     		mov	r0, r3
 1922 0034 7037     		adds	r7, r7, #112
 1923              		.cfi_def_cfa_offset 8
 1924 0036 BD46     		mov	sp, r7
 1925              		.cfi_def_cfa_register 13
 1926              		@ sp needed
 1927 0038 80BD     		pop	{r7, pc}
 1928              	.L147:
 1929 003a 00BF     		.align	2
 1930              	.L146:
 1931 003c 44010000 		.word	.LC24
 1932 0040 1C000000 		.word	.LC2
 1933              		.cfi_endproc
 1934              	.LFE85:
 1935              		.size	modem_set_user, .-modem_set_user
 1936              		.section	.rodata
 1937              		.align	2
 1938              	.LC25:
 1939 0154 41542350 		.ascii	"AT#PASSW=\"%s\"\015\000"
 1939      41535357 
 1939      3D222573 
 1939      220D00
 1940              		.section	.text.modem_set_password,"ax",%progbits
 1941              		.align	2
 1942              		.global	modem_set_password
 1943              		.thumb
 1944              		.thumb_func
 1945              		.type	modem_set_password, %function
 1946              	modem_set_password:
 1947              	.LFB86:
 593:.\modem.c     **** 
 594:.\modem.c     **** uint8 modem_set_password(char* pass) {
 1948              		.loc 1 594 0
 1949              		.cfi_startproc
 1950              		@ args = 0, pretend = 0, frame = 112
 1951              		@ frame_needed = 1, uses_anonymous_args = 0
 1952 0000 80B5     		push	{r7, lr}
 1953              		.cfi_def_cfa_offset 8
 1954              		.cfi_offset 7, -8
 1955              		.cfi_offset 14, -4
 1956 0002 9CB0     		sub	sp, sp, #112
 1957              		.cfi_def_cfa_offset 120
 1958 0004 00AF     		add	r7, sp, #0
 1959              		.cfi_def_cfa_register 7
 1960 0006 7860     		str	r0, [r7, #4]
 595:.\modem.c     **** 	
 596:.\modem.c     ****     char cmd[100];
 597:.\modem.c     ****     sprintf(cmd,"AT#PASSW=\"%s\"\r",pass);		
 1961              		.loc 1 597 0
 1962 0008 07F10C03 		add	r3, r7, #12
 1963 000c 1846     		mov	r0, r3
ARM GAS  C:\Users\cps\AppData\Local\Temp\ccCypFl7.s 			page 47


 1964 000e 0B49     		ldr	r1, .L152
 1965 0010 7A68     		ldr	r2, [r7, #4]
 1966 0012 FFF7FEFF 		bl	sprintf
 598:.\modem.c     **** 	
 599:.\modem.c     ****     if(at_write_command(cmd,"OK",1000u) == 1u){      
 1967              		.loc 1 599 0
 1968 0016 07F10C03 		add	r3, r7, #12
 1969 001a 1846     		mov	r0, r3
 1970 001c 0849     		ldr	r1, .L152+4
 1971 001e 4FF47A72 		mov	r2, #1000
 1972 0022 FFF7FEFF 		bl	at_write_command
 1973 0026 0346     		mov	r3, r0
 1974 0028 012B     		cmp	r3, #1
 1975 002a 01D1     		bne	.L149
 600:.\modem.c     ****         return 1u;
 1976              		.loc 1 600 0
 1977 002c 0123     		movs	r3, #1
 1978 002e 00E0     		b	.L151
 1979              	.L149:
 601:.\modem.c     ****     }
 602:.\modem.c     ****     /* Write to SD Card debugger
 603:.\modem.c     ****     else debug_write("(AT#SGACT=1,1) No IP Address Assigned.");
 604:.\modem.c     ****     */
 605:.\modem.c     **** 	
 606:.\modem.c     **** 	return 0u;	
 1980              		.loc 1 606 0
 1981 0030 0023     		movs	r3, #0
 1982              	.L151:
 607:.\modem.c     **** }
 1983              		.loc 1 607 0 discriminator 1
 1984 0032 1846     		mov	r0, r3
 1985 0034 7037     		adds	r7, r7, #112
 1986              		.cfi_def_cfa_offset 8
 1987 0036 BD46     		mov	sp, r7
 1988              		.cfi_def_cfa_register 13
 1989              		@ sp needed
 1990 0038 80BD     		pop	{r7, pc}
 1991              	.L153:
 1992 003a 00BF     		.align	2
 1993              	.L152:
 1994 003c 54010000 		.word	.LC25
 1995 0040 1C000000 		.word	.LC2
 1996              		.cfi_endproc
 1997              	.LFE86:
 1998              		.size	modem_set_password, .-modem_set_password
 1999              		.section	.rodata
 2000 0163 00       		.align	2
 2001              	.LC26:
 2002 0164 41542353 		.ascii	"AT#SKTD=0,80,\"www.google.com\"\015\012\000"
 2002      4B54443D 
 2002      302C3830 
 2002      2C227777 
 2002      772E676F 
 2003              		.align	2
 2004              	.LC27:
 2005 0184 434F4E4E 		.ascii	"CONNECT\000"
 2005      45435400 
ARM GAS  C:\Users\cps\AppData\Local\Temp\ccCypFl7.s 			page 48


 2006              		.align	2
 2007              	.LC28:
 2008 018c 47455420 		.ascii	"GET /get_status/ HTTP/1.0\015\012\000"
 2008      2F676574 
 2008      5F737461 
 2008      7475732F 
 2008      20485454 
 2009              		.align	2
 2010              	.LC29:
 2011 01a8 00       		.ascii	"\000"
 2012 01a9 000000   		.align	2
 2013              	.LC30:
 2014 01ac 0D0A00   		.ascii	"\015\012\000"
 2015              		.section	.text.modem_get_google,"ax",%progbits
 2016              		.align	2
 2017              		.global	modem_get_google
 2018              		.thumb
 2019              		.thumb_func
 2020              		.type	modem_get_google, %function
 2021              	modem_get_google:
 2022              	.LFB87:
 608:.\modem.c     **** uint8 modem_get_google(){
 2023              		.loc 1 608 0
 2024              		.cfi_startproc
 2025              		@ args = 0, pretend = 0, frame = 0
 2026              		@ frame_needed = 1, uses_anonymous_args = 0
 2027 0000 80B5     		push	{r7, lr}
 2028              		.cfi_def_cfa_offset 8
 2029              		.cfi_offset 7, -8
 2030              		.cfi_offset 14, -4
 2031 0002 00AF     		add	r7, sp, #0
 2032              		.cfi_def_cfa_register 7
 609:.\modem.c     **** 
 610:.\modem.c     ****     // Proceed if modem is already connected.  Otherwise, try to join the network and proceed
 611:.\modem.c     ****     if( modem_state == MODEM_STATE_READY || modem_connect() != 0 ){ 
 2033              		.loc 1 611 0
 2034 0004 1C4B     		ldr	r3, .L158
 2035 0006 1B78     		ldrb	r3, [r3]	@ zero_extendqisi2
 2036 0008 032B     		cmp	r3, #3
 2037 000a 04D0     		beq	.L155
 2038              		.loc 1 611 0 is_stmt 0 discriminator 1
 2039 000c FFF7FEFF 		bl	modem_connect
 2040 0010 0346     		mov	r3, r0
 2041 0012 002B     		cmp	r3, #0
 2042 0014 2AD0     		beq	.L156
 2043              	.L155:
 612:.\modem.c     ****         
 613:.\modem.c     ****         if(at_write_command("AT#SKTD=0,80,\"www.google.com\"\r\n","CONNECT",10000u) != 0){
 2044              		.loc 1 613 0 is_stmt 1
 2045 0016 1948     		ldr	r0, .L158+4
 2046 0018 1949     		ldr	r1, .L158+8
 2047 001a 42F21072 		movw	r2, #10000
 2048 001e FFF7FEFF 		bl	at_write_command
 2049 0022 0346     		mov	r3, r0
 2050 0024 002B     		cmp	r3, #0
 2051 0026 21D0     		beq	.L156
 614:.\modem.c     ****             
ARM GAS  C:\Users\cps\AppData\Local\Temp\ccCypFl7.s 			page 49


 615:.\modem.c     ****             //char get_str[MAX_PACKET_LENGTH], key_str[100];
 616:.\modem.c     ****             
 617:.\modem.c     ****             //sprintf(get_str,"GET / HTTP/1.0\r\n");
 618:.\modem.c     ****             //sprintf(key_str,"Host: www.google.com\r\n");
 619:.\modem.c     ****             //sprintf(get_str,"GET /\r\n");
 620:.\modem.c     ****             //sprintf(get_str,"%s%s",
 621:.\modem.c     ****             //    get_str,
 622:.\modem.c     ****             //    "\r\n");
 623:.\modem.c     ****             
 624:.\modem.c     ****             uart_string_reset();
 2052              		.loc 1 624 0
 2053 0028 FFF7FEFF 		bl	uart_string_reset
 625:.\modem.c     ****             
 626:.\modem.c     ****             //at_write_command(get_str,"",15000u);
 627:.\modem.c     **** 			
 628:.\modem.c     **** 			at_write_command("GET /get_status/ HTTP/1.0\r\n","",15000u);
 2054              		.loc 1 628 0
 2055 002c 1548     		ldr	r0, .L158+12
 2056 002e 1649     		ldr	r1, .L158+16
 2057 0030 43F69822 		movw	r2, #15000
 2058 0034 FFF7FEFF 		bl	at_write_command
 629:.\modem.c     **** 			//CyDelay(1000u);
 630:.\modem.c     **** 			//at_write_command("Host: www.google.com\r\n","",15000u);
 631:.\modem.c     **** 			CyDelay(1000u);
 2059              		.loc 1 631 0
 2060 0038 4FF47A70 		mov	r0, #1000
 2061 003c FFF7FEFF 		bl	CyDelay
 632:.\modem.c     **** 			at_write_command("\r\n","",15000u);
 2062              		.loc 1 632 0
 2063 0040 1248     		ldr	r0, .L158+20
 2064 0042 1149     		ldr	r1, .L158+16
 2065 0044 43F69822 		movw	r2, #15000
 2066 0048 FFF7FEFF 		bl	at_write_command
 633:.\modem.c     **** 			CyDelay(1000u);
 2067              		.loc 1 633 0
 2068 004c 4FF47A70 		mov	r0, #1000
 2069 0050 FFF7FEFF 		bl	CyDelay
 634:.\modem.c     **** 			at_write_command("\r\n","",15000u);
 2070              		.loc 1 634 0
 2071 0054 0D48     		ldr	r0, .L158+20
 2072 0056 0C49     		ldr	r1, .L158+16
 2073 0058 43F69822 		movw	r2, #15000
 2074 005c FFF7FEFF 		bl	at_write_command
 635:.\modem.c     **** 			
 636:.\modem.c     **** 			CyDelay(15000u);
 2075              		.loc 1 636 0
 2076 0060 43F69820 		movw	r0, #15000
 2077 0064 FFF7FEFF 		bl	CyDelay
 637:.\modem.c     ****             
 638:.\modem.c     **** 			// Just return regardless
 639:.\modem.c     **** 			return 1u;
 2078              		.loc 1 639 0
 2079 0068 0123     		movs	r3, #1
 2080 006a 02E0     		b	.L157
 2081              	.L156:
 640:.\modem.c     ****             /*
 641:.\modem.c     ****             if(at_write_command(get_str,"SRING: 1",15000u) != 0){
ARM GAS  C:\Users\cps\AppData\Local\Temp\ccCypFl7.s 			page 50


 642:.\modem.c     ****                 // Read GET response from the buffer
 643:.\modem.c     ****                 uart_string_reset();
 644:.\modem.c     ****                 //CyDelay(5000u);
 645:.\modem.c     ****                 at_write_command("AT#SRECV=1,700\r","OK",15000u);
 646:.\modem.c     ****                 //strcpy(packet, uart_received_string);
 647:.\modem.c     ****                 strcpy(packet, strstr(uart_received_string, "\r\n\r\n")+strlen("\r\n\r\n"));
 648:.\modem.c     ****                 
 649:.\modem.c     ****                 CyDelay(1000u); //debug_write("Packet received successfully.");
 650:.\modem.c     ****                 return 1u;   // return 1 if succesfully sent sms
 651:.\modem.c     **** 
 652:.\modem.c     ****             }
 653:.\modem.c     ****             */
 654:.\modem.c     ****         }
 655:.\modem.c     ****         
 656:.\modem.c     ****     }
 657:.\modem.c     ****     
 658:.\modem.c     ****     //debug_write("MAX_GET_ATTEMPTS Exceeded.");
 659:.\modem.c     ****     modem_disconnect();
 2082              		.loc 1 659 0
 2083 006c FFF7FEFF 		bl	modem_disconnect
 660:.\modem.c     ****     return 0u;   // return 0 if failure to send sms
 2084              		.loc 1 660 0
 2085 0070 0023     		movs	r3, #0
 2086              	.L157:
 661:.\modem.c     **** }
 2087              		.loc 1 661 0
 2088 0072 1846     		mov	r0, r3
 2089 0074 80BD     		pop	{r7, pc}
 2090              	.L159:
 2091 0076 00BF     		.align	2
 2092              	.L158:
 2093 0078 00000000 		.word	modem_state
 2094 007c 64010000 		.word	.LC26
 2095 0080 84010000 		.word	.LC27
 2096 0084 8C010000 		.word	.LC28
 2097 0088 A8010000 		.word	.LC29
 2098 008c AC010000 		.word	.LC30
 2099              		.cfi_endproc
 2100              	.LFE87:
 2101              		.size	modem_get_google, .-modem_get_google
 2102              		.section	.rodata
 2103 01af 00       		.align	2
 2104              	.LC31:
 2105 01b0 41542353 		.ascii	"AT#SD=1,0,8086,\"ec2-54-148-229-234.us-west-2.compu"
 2105      443D312C 
 2105      302C3830 
 2105      38362C22 
 2105      6563322D 
 2106 01e2 74652E61 		.ascii	"te.amazonaws.com\",0,0,1\015\000"
 2106      6D617A6F 
 2106      6E617773 
 2106      2E636F6D 
 2106      222C302C 
 2107 01fb 00       		.align	2
 2108              	.LC32:
 2109 01fc 41542353 		.ascii	"AT#SSEND=1\015\000"
 2109      53454E44 
ARM GAS  C:\Users\cps\AppData\Local\Temp\ccCypFl7.s 			page 51


 2109      3D310D00 
 2110              		.align	2
 2111              	.LC33:
 2112 0208 3E00     		.ascii	">\000"
 2113 020a 0000     		.align	2
 2114              	.LC34:
 2115 020c 504F5354 		.ascii	"POST /write?db=cellBoard_test HTTP/1.0\015\012\000"
 2115      202F7772 
 2115      6974653F 
 2115      64623D63 
 2115      656C6C42 
 2116 0235 000000   		.align	2
 2117              	.LC35:
 2118 0238 25732573 		.ascii	"%s%s%s%d%s%s%s\000"
 2118      25732564 
 2118      25732573 
 2118      257300
 2119 0247 00       		.align	2
 2120              	.LC36:
 2121 0248 486F7374 		.ascii	"Host: ec2-54-148-229-234.us-west-2.compute.amazonaw"
 2121      3A206563 
 2121      322D3534 
 2121      2D313438 
 2121      2D323239 
 2122 027b 732E636F 		.ascii	"s.com:8086\015\012\000"
 2122      6D3A3830 
 2122      38360D0A 
 2122      00
 2123              		.align	2
 2124              	.LC37:
 2125 0288 436F6E74 		.ascii	"Content-Length: \000"
 2125      656E742D 
 2125      4C656E67 
 2125      74683A20 
 2125      00
 2126 0299 000000   		.align	2
 2127              	.LC38:
 2128 029c 0D0A0D0A 		.ascii	"\015\012\015\012\000"
 2128      00
 2129 02a1 000000   		.align	2
 2130              	.LC39:
 2131 02a4 0D0A1A00 		.ascii	"\015\012\032\000"
 2132              		.align	2
 2133              	.LC40:
 2134 02a8 5352494E 		.ascii	"SRING: 1\000"
 2134      473A2031 
 2134      00
 2135 02b1 000000   		.align	2
 2136              	.LC41:
 2137 02b4 41542353 		.ascii	"AT#SRECV=1,1000\015\000"
 2137      52454356 
 2137      3D312C31 
 2137      3030300D 
 2137      00
 2138 02c5 000000   		.align	2
 2139              	.LC42:
 2140 02c8 32303020 		.ascii	"200 OK\000"
ARM GAS  C:\Users\cps\AppData\Local\Temp\ccCypFl7.s 			page 52


 2140      4F4B00
 2141              		.section	.text.modem_send_packet,"ax",%progbits
 2142              		.align	2
 2143              		.global	modem_send_packet
 2144              		.thumb
 2145              		.thumb_func
 2146              		.type	modem_send_packet, %function
 2147              	modem_send_packet:
 2148              	.LFB88:
 662:.\modem.c     **** 
 663:.\modem.c     **** // send packet to Xively server
 664:.\modem.c     **** uint8 modem_send_packet(char* body){
 2149              		.loc 1 664 0
 2150              		.cfi_startproc
 2151              		@ args = 0, pretend = 0, frame = 1008
 2152              		@ frame_needed = 1, uses_anonymous_args = 0
 2153 0000 B0B5     		push	{r4, r5, r7, lr}
 2154              		.cfi_def_cfa_offset 16
 2155              		.cfi_offset 4, -16
 2156              		.cfi_offset 5, -12
 2157              		.cfi_offset 7, -8
 2158              		.cfi_offset 14, -4
 2159 0002 ADF5816D 		sub	sp, sp, #1032
 2160              		.cfi_def_cfa_offset 1048
 2161 0006 06AF     		add	r7, sp, #24
 2162              		.cfi_def_cfa 7, 1024
 2163 0008 3B1D     		adds	r3, r7, #4
 2164 000a 1860     		str	r0, [r3]
 665:.\modem.c     **** 
 666:.\modem.c     **** 	// Handle retries in main()
 667:.\modem.c     ****     //uint8 attempts = 0;
 668:.\modem.c     ****     //for(attempts = 0; attempts < MAX_SEND_ATTEMPTS; attempts++) {
 669:.\modem.c     ****         
 670:.\modem.c     ****     // Proceed if modem is already connected.
 671:.\modem.c     ****     if( modem_state == MODEM_STATE_READY ){ 
 2165              		.loc 1 671 0
 2166 000c 2C4B     		ldr	r3, .L164
 2167 000e 1B78     		ldrb	r3, [r3]	@ zero_extendqisi2
 2168 0010 032B     		cmp	r3, #3
 2169 0012 4ED1     		bne	.L161
 672:.\modem.c     **** 		// Reset uart for incoming data from modem
 673:.\modem.c     ****         uart_string_reset();
 2170              		.loc 1 673 0
 2171 0014 FFF7FEFF 		bl	uart_string_reset
 674:.\modem.c     **** 			
 675:.\modem.c     **** 		// Connect to web server
 676:.\modem.c     ****         //if(at_write_command("AT#SKTD=1,80,\"api.xively.com\",0,0\r","CONNECT",5000u) != 0){
 677:.\modem.c     **** 		if(at_write_command("AT#SD=1,0,8086,\"ec2-54-148-229-234.us-west-2.compute.amazonaws.com\",0,0,1\
 2172              		.loc 1 677 0
 2173 0018 2A48     		ldr	r0, .L164+4
 2174 001a 2B49     		ldr	r1, .L164+8
 2175 001c 43F69822 		movw	r2, #15000
 2176 0020 FFF7FEFF 		bl	at_write_command
 2177 0024 0346     		mov	r3, r0
 2178 0026 002B     		cmp	r3, #0
 2179 0028 43D0     		beq	.L161
 678:.\modem.c     **** 		//if(at_write_command("AT#SD=1,0,80,\"www.google.com\",0,0\r\n","CONNECT",15000u) != 0){
ARM GAS  C:\Users\cps\AppData\Local\Temp\ccCypFl7.s 			page 53


 679:.\modem.c     **** 			
 680:.\modem.c     **** 			if(at_write_command("AT#SSEND=1\r",">",10000u) != 0){
 2180              		.loc 1 680 0
 2181 002a 2848     		ldr	r0, .L164+12
 2182 002c 2849     		ldr	r1, .L164+16
 2183 002e 42F21072 		movw	r2, #10000
 2184 0032 FFF7FEFF 		bl	at_write_command
 2185 0036 0346     		mov	r3, r0
 2186 0038 002B     		cmp	r3, #0
 2187 003a 3AD0     		beq	.L161
 2188              	.LBB4:
 681:.\modem.c     **** 			// Write packet information to serial and send
 682:.\modem.c     **** 	            char put_str[MAX_PACKET_LENGTH];
 683:.\modem.c     **** 	            
 684:.\modem.c     **** 	            sprintf(put_str,"POST /write?db=cellBoard_test HTTP/1.0\r\n");
 2189              		.loc 1 684 0
 2190 003c 07F10803 		add	r3, r7, #8
 2191 0040 244A     		ldr	r2, .L164+20
 2192 0042 1C46     		mov	r4, r3
 2193 0044 1546     		mov	r5, r2
 2194 0046 0FCD     		ldmia	r5!, {r0, r1, r2, r3}
 2195 0048 0FC4     		stmia	r4!, {r0, r1, r2, r3}
 2196 004a 0FCD     		ldmia	r5!, {r0, r1, r2, r3}
 2197 004c 0FC4     		stmia	r4!, {r0, r1, r2, r3}
 2198 004e 95E80700 		ldmia	r5, {r0, r1, r2}
 2199 0052 03C4     		stmia	r4!, {r0, r1}
 2200 0054 2270     		strb	r2, [r4]
 685:.\modem.c     **** 	            sprintf(put_str,"%s%s%s%d%s%s%s",
 2201              		.loc 1 685 0
 2202 0056 3B1D     		adds	r3, r7, #4
 2203 0058 1868     		ldr	r0, [r3]
 2204 005a FFF7FEFF 		bl	strlen
 2205 005e 07F10801 		add	r1, r7, #8
 2206 0062 07F10802 		add	r2, r7, #8
 2207 0066 1C4B     		ldr	r3, .L164+24
 2208 0068 0093     		str	r3, [sp]
 2209 006a 0190     		str	r0, [sp, #4]
 2210 006c 1B4B     		ldr	r3, .L164+28
 2211 006e 0293     		str	r3, [sp, #8]
 2212 0070 3B1D     		adds	r3, r7, #4
 2213 0072 1B68     		ldr	r3, [r3]
 2214 0074 0393     		str	r3, [sp, #12]
 2215 0076 1A4B     		ldr	r3, .L164+32
 2216 0078 0493     		str	r3, [sp, #16]
 2217 007a 0846     		mov	r0, r1
 2218 007c 1949     		ldr	r1, .L164+36
 2219 007e 1A4B     		ldr	r3, .L164+40
 2220 0080 FFF7FEFF 		bl	sprintf
 686:.\modem.c     **** 	                put_str,
 687:.\modem.c     **** 	                "Host: ec2-54-148-229-234.us-west-2.compute.amazonaws.com:8086\r\n",
 688:.\modem.c     **** 	                "Content-Length: ", strlen(body),
 689:.\modem.c     **** 	                "\r\n\r\n", body, "\r\n\032");
 690:.\modem.c     **** 	                // change second from last back to body
 691:.\modem.c     **** 				// Reset uart for incoming data from modem
 692:.\modem.c     **** 	            uart_string_reset();
 2221              		.loc 1 692 0
 2222 0084 FFF7FEFF 		bl	uart_string_reset
ARM GAS  C:\Users\cps\AppData\Local\Temp\ccCypFl7.s 			page 54


 693:.\modem.c     **** 
 694:.\modem.c     **** 				if(at_write_command(put_str,"SRING: 1",10000u) != 0){
 2223              		.loc 1 694 0
 2224 0088 07F10803 		add	r3, r7, #8
 2225 008c 1846     		mov	r0, r3
 2226 008e 1749     		ldr	r1, .L164+44
 2227 0090 42F21072 		movw	r2, #10000
 2228 0094 FFF7FEFF 		bl	at_write_command
 2229 0098 0346     		mov	r3, r0
 2230 009a 002B     		cmp	r3, #0
 2231 009c 09D0     		beq	.L161
 695:.\modem.c     ****                     // Read GET response from the buffer
 696:.\modem.c     ****                     uart_string_reset();
 2232              		.loc 1 696 0
 2233 009e FFF7FEFF 		bl	uart_string_reset
 697:.\modem.c     ****                     //CyDelay(5000u);
 698:.\modem.c     ****                     at_write_command("AT#SRECV=1,1000\r","200 OK",10000u);
 2234              		.loc 1 698 0
 2235 00a2 1348     		ldr	r0, .L164+48
 2236 00a4 1349     		ldr	r1, .L164+52
 2237 00a6 42F21072 		movw	r2, #10000
 2238 00aa FFF7FEFF 		bl	at_write_command
 699:.\modem.c     **** 					
 700:.\modem.c     ****                     return 1u;   // return 1 if succesfully sent sms
 2239              		.loc 1 700 0
 2240 00ae 0123     		movs	r3, #1
 2241 00b0 00E0     		b	.L163
 2242              	.L161:
 2243              	.LBE4:
 701:.\modem.c     **** 
 702:.\modem.c     ****                 }
 703:.\modem.c     **** 				/* GC 864
 704:.\modem.c     **** 	            if(at_write_command(put_str,"200 OK",15000u) != 0){
 705:.\modem.c     **** 	                return 1u;   // return 1 if HTTP request was successful
 706:.\modem.c     **** 	            }
 707:.\modem.c     **** 				*/
 708:.\modem.c     ****             }
 709:.\modem.c     ****             /* Write to SD Card debugger
 710:.\modem.c     ****             else {
 711:.\modem.c     ****                 debug_write("(AT#SSEND=1) Could not send data through connected socket.");
 712:.\modem.c     ****             }
 713:.\modem.c     ****             */
 714:.\modem.c     ****         }
 715:.\modem.c     ****         /* Write to SD Card debugger
 716:.\modem.c     ****         else {
 717:.\modem.c     ****             debug_write("(AT#SD=1,0,8081,\"api.xively.com\",0,0,1\r) Could not connect to server.")
 718:.\modem.c     ****         }
 719:.\modem.c     ****         */
 720:.\modem.c     ****     }        
 721:.\modem.c     ****     //}  
 722:.\modem.c     **** 	//modem_reset();
 723:.\modem.c     ****     return 0u;   // return 0 if failure to send sms
 2244              		.loc 1 723 0
 2245 00b2 0023     		movs	r3, #0
 2246              	.L163:
 724:.\modem.c     **** }
 2247              		.loc 1 724 0
ARM GAS  C:\Users\cps\AppData\Local\Temp\ccCypFl7.s 			page 55


 2248 00b4 1846     		mov	r0, r3
 2249 00b6 07F57C77 		add	r7, r7, #1008
 2250              		.cfi_def_cfa_offset 16
 2251 00ba BD46     		mov	sp, r7
 2252              		.cfi_def_cfa_register 13
 2253              		@ sp needed
 2254 00bc B0BD     		pop	{r4, r5, r7, pc}
 2255              	.L165:
 2256 00be 00BF     		.align	2
 2257              	.L164:
 2258 00c0 00000000 		.word	modem_state
 2259 00c4 B0010000 		.word	.LC31
 2260 00c8 1C000000 		.word	.LC2
 2261 00cc FC010000 		.word	.LC32
 2262 00d0 08020000 		.word	.LC33
 2263 00d4 0C020000 		.word	.LC34
 2264 00d8 88020000 		.word	.LC37
 2265 00dc 9C020000 		.word	.LC38
 2266 00e0 A4020000 		.word	.LC39
 2267 00e4 38020000 		.word	.LC35
 2268 00e8 48020000 		.word	.LC36
 2269 00ec A8020000 		.word	.LC40
 2270 00f0 B4020000 		.word	.LC41
 2271 00f4 C8020000 		.word	.LC42
 2272              		.cfi_endproc
 2273              	.LFE88:
 2274              		.size	modem_send_packet, .-modem_send_packet
 2275              		.section	.rodata
 2276 02cf 00       		.align	2
 2277              	.LC43:
 2278 02d0 41542353 		.ascii	"AT#SD=1,0,80,\"api.xively.com\",0,0,1\015\012\000"
 2278      443D312C 
 2278      302C3830 
 2278      2C226170 
 2278      692E7869 
 2279 02f6 0000     		.align	2
 2280              	.LC44:
 2281 02f8 47455420 		.ascii	"GET /v2/feeds/%lu.csv?datastreams=%s HTTP/1.0\015\012"
 2281      2F76322F 
 2281      66656564 
 2281      732F256C 
 2281      752E6373 
 2282 0327 00       		.ascii	"\000"
 2283              		.align	2
 2284              	.LC45:
 2285 0328 582D4170 		.ascii	"X-ApiKey: %s\015\012\000"
 2285      694B6579 
 2285      3A202573 
 2285      0D0A00
 2286 0337 00       		.align	2
 2287              	.LC46:
 2288 0338 25732573 		.ascii	"%s%s%s%s%s\000"
 2288      25732573 
 2288      257300
 2289 0343 00       		.align	2
 2290              	.LC47:
 2291 0344 486F7374 		.ascii	"Host: api.xively.com\015\012\000"
ARM GAS  C:\Users\cps\AppData\Local\Temp\ccCypFl7.s 			page 56


 2291      3A206170 
 2291      692E7869 
 2291      76656C79 
 2291      2E636F6D 
 2292 035b 00       		.align	2
 2293              	.LC48:
 2294 035c 41636365 		.ascii	"Accept: text/csv\015\012\000"
 2294      70743A20 
 2294      74657874 
 2294      2F637376 
 2294      0D0A00
 2295 036f 00       		.align	2
 2296              	.LC49:
 2297 0370 0D0A1A0D 		.ascii	"\015\012\032\015\000"
 2297      00
 2298              		.section	.text.modem_get_packet,"ax",%progbits
 2299              		.align	2
 2300              		.global	modem_get_packet
 2301              		.thumb
 2302              		.thumb_func
 2303              		.type	modem_get_packet, %function
 2304              	modem_get_packet:
 2305              	.LFB89:
 725:.\modem.c     **** 
 726:.\modem.c     **** 
 727:.\modem.c     **** // read packet from Xively server
 728:.\modem.c     **** uint8 modem_get_packet(char* packet, char* csv){    
 2306              		.loc 1 728 0
 2307              		.cfi_startproc
 2308              		@ args = 0, pretend = 0, frame = 1112
 2309              		@ frame_needed = 1, uses_anonymous_args = 0
 2310 0000 90B5     		push	{r4, r7, lr}
 2311              		.cfi_def_cfa_offset 12
 2312              		.cfi_offset 4, -12
 2313              		.cfi_offset 7, -8
 2314              		.cfi_offset 14, -4
 2315 0002 ADF26C4D 		subw	sp, sp, #1132
 2316              		.cfi_def_cfa_offset 1144
 2317 0006 04AF     		add	r7, sp, #16
 2318              		.cfi_def_cfa 7, 1128
 2319 0008 3B1D     		adds	r3, r7, #4
 2320 000a 1860     		str	r0, [r3]
 2321 000c 3B46     		mov	r3, r7
 2322 000e 1960     		str	r1, [r3]
 729:.\modem.c     **** 
 730:.\modem.c     **** 	// Check if request is too long
 731:.\modem.c     ****     if (strlen(csv) > 125) {
 2323              		.loc 1 731 0
 2324 0010 3B46     		mov	r3, r7
 2325 0012 1868     		ldr	r0, [r3]
 2326 0014 FFF7FEFF 		bl	strlen
 2327 0018 0346     		mov	r3, r0
 2328 001a 7D2B     		cmp	r3, #125
 2329 001c 01D9     		bls	.L167
 732:.\modem.c     ****         /* Write to SD Card debugger
 733:.\modem.c     ****         debug_write("modem_get_packet(): csv length > 100");
 734:.\modem.c     ****         */
ARM GAS  C:\Users\cps\AppData\Local\Temp\ccCypFl7.s 			page 57


 735:.\modem.c     ****         return 0u;
 2330              		.loc 1 735 0
 2331 001e 0023     		movs	r3, #0
 2332 0020 5CE0     		b	.L168
 2333              	.L167:
 736:.\modem.c     ****     }
 737:.\modem.c     **** 	
 738:.\modem.c     **** 	// Changed to handle looping in main()
 739:.\modem.c     ****     //uint8 attempts = 0;            
 740:.\modem.c     ****     //for(attempts = 0; attempts < MAX_GET_ATTEMPTS; attempts++) {
 741:.\modem.c     ****         // Proceed if modem is already connected.  Otherwise, try to join the network and proceed
 742:.\modem.c     ****     if( modem_state == MODEM_STATE_READY ){ 
 2334              		.loc 1 742 0
 2335 0022 314B     		ldr	r3, .L171
 2336 0024 1B78     		ldrb	r3, [r3]	@ zero_extendqisi2
 2337 0026 032B     		cmp	r3, #3
 2338 0028 57D1     		bne	.L169
 743:.\modem.c     **** 		// Connect to server
 744:.\modem.c     ****         if(at_write_command("AT#SD=1,0,80,\"api.xively.com\",0,0,1\r\n","OK",20000u) != 0){
 2339              		.loc 1 744 0
 2340 002a 3048     		ldr	r0, .L171+4
 2341 002c 3049     		ldr	r1, .L171+8
 2342 002e 44F62062 		movw	r2, #20000
 2343 0032 FFF7FEFF 		bl	at_write_command
 2344 0036 0346     		mov	r3, r0
 2345 0038 002B     		cmp	r3, #0
 2346 003a 4ED0     		beq	.L169
 745:.\modem.c     **** 			
 746:.\modem.c     **** 			if(at_write_command("AT#SSEND=1\r",">",10000u) != 0){
 2347              		.loc 1 746 0
 2348 003c 2D48     		ldr	r0, .L171+12
 2349 003e 2E49     		ldr	r1, .L171+16
 2350 0040 42F21072 		movw	r2, #10000
 2351 0044 FFF7FEFF 		bl	at_write_command
 2352 0048 0346     		mov	r3, r0
 2353 004a 002B     		cmp	r3, #0
 2354 004c 45D0     		beq	.L169
 2355              	.LBB5:
 747:.\modem.c     **** 				// Write packet information to serial and send
 748:.\modem.c     **** 	            char get_str[MAX_PACKET_LENGTH], key_str[100];
 749:.\modem.c     **** 				
 750:.\modem.c     **** 	            sprintf(get_str,"GET /v2/feeds/%lu.csv?datastreams=%s HTTP/1.0\r\n", feed_id, csv);
 2356              		.loc 1 750 0
 2357 004e 2B4B     		ldr	r3, .L171+20
 2358 0050 1A68     		ldr	r2, [r3]
 2359 0052 07F17001 		add	r1, r7, #112
 2360 0056 3B46     		mov	r3, r7
 2361 0058 0846     		mov	r0, r1
 2362 005a 2949     		ldr	r1, .L171+24
 2363 005c 1B68     		ldr	r3, [r3]
 2364 005e FFF7FEFF 		bl	sprintf
 751:.\modem.c     **** 	            sprintf(key_str,"X-ApiKey: %s\r\n", api_key);
 2365              		.loc 1 751 0
 2366 0062 284B     		ldr	r3, .L171+28
 2367 0064 1B68     		ldr	r3, [r3]
 2368 0066 07F10C02 		add	r2, r7, #12
 2369 006a 1046     		mov	r0, r2
ARM GAS  C:\Users\cps\AppData\Local\Temp\ccCypFl7.s 			page 58


 2370 006c 2649     		ldr	r1, .L171+32
 2371 006e 1A46     		mov	r2, r3
 2372 0070 FFF7FEFF 		bl	sprintf
 752:.\modem.c     **** 	            sprintf(get_str,"%s%s%s%s%s",
 2373              		.loc 1 752 0
 2374 0074 07F17001 		add	r1, r7, #112
 2375 0078 07F17002 		add	r2, r7, #112
 2376 007c 07F10C04 		add	r4, r7, #12
 2377 0080 224B     		ldr	r3, .L171+36
 2378 0082 0093     		str	r3, [sp]
 2379 0084 224B     		ldr	r3, .L171+40
 2380 0086 0193     		str	r3, [sp, #4]
 2381 0088 224B     		ldr	r3, .L171+44
 2382 008a 0293     		str	r3, [sp, #8]
 2383 008c 0846     		mov	r0, r1
 2384 008e 2249     		ldr	r1, .L171+48
 2385 0090 2346     		mov	r3, r4
 2386 0092 FFF7FEFF 		bl	sprintf
 753:.\modem.c     **** 	                get_str,
 754:.\modem.c     **** 	                key_str,
 755:.\modem.c     **** 	                "Host: api.xively.com\r\n",
 756:.\modem.c     **** 	                "Accept: text/csv\r\n",
 757:.\modem.c     **** 	                "\r\n\032\r");
 758:.\modem.c     **** 	            
 759:.\modem.c     **** 				// Reset uart for incoming data from modem
 760:.\modem.c     **** 	            uart_string_reset();
 2387              		.loc 1 760 0
 2388 0096 FFF7FEFF 		bl	uart_string_reset
 761:.\modem.c     **** 				
 762:.\modem.c     **** 			    if(at_write_command(get_str,"SRING: 1",10000u) != 0){
 2389              		.loc 1 762 0
 2390 009a 07F17003 		add	r3, r7, #112
 2391 009e 1846     		mov	r0, r3
 2392 00a0 1E49     		ldr	r1, .L171+52
 2393 00a2 42F21072 		movw	r2, #10000
 2394 00a6 FFF7FEFF 		bl	at_write_command
 2395 00aa 0346     		mov	r3, r0
 2396 00ac 002B     		cmp	r3, #0
 2397 00ae 14D0     		beq	.L169
 763:.\modem.c     ****                     // Read GET response from the buffer
 764:.\modem.c     ****                     uart_string_reset();
 2398              		.loc 1 764 0
 2399 00b0 FFF7FEFF 		bl	uart_string_reset
 765:.\modem.c     ****                     //CyDelay(5000u);
 766:.\modem.c     ****                     at_write_command("AT#SRECV=1,1000\r","OK",10000u);
 2400              		.loc 1 766 0
 2401 00b4 1A48     		ldr	r0, .L171+56
 2402 00b6 0E49     		ldr	r1, .L171+8
 2403 00b8 42F21072 		movw	r2, #10000
 2404 00bc FFF7FEFF 		bl	at_write_command
 767:.\modem.c     ****                     //strcpy(packet, uart_received_string);
 768:.\modem.c     ****                     strcpy(packet, strstr(uart_received_string, "\r\n\r\n")+strlen("\r\n\r\n"));
 2405              		.loc 1 768 0
 2406 00c0 1848     		ldr	r0, .L171+60
 2407 00c2 1949     		ldr	r1, .L171+64
 2408 00c4 FFF7FEFF 		bl	strstr
 2409 00c8 0346     		mov	r3, r0
ARM GAS  C:\Users\cps\AppData\Local\Temp\ccCypFl7.s 			page 59


 2410 00ca 1A1D     		adds	r2, r3, #4
 2411 00cc 3B1D     		adds	r3, r7, #4
 2412 00ce 1868     		ldr	r0, [r3]
 2413 00d0 1146     		mov	r1, r2
 2414 00d2 FFF7FEFF 		bl	strcpy
 769:.\modem.c     ****                     
 770:.\modem.c     ****                     //debug_write("Packet received successfully.");
 771:.\modem.c     ****                     return 1u;   // return 1 if successful
 2415              		.loc 1 771 0
 2416 00d6 0123     		movs	r3, #1
 2417 00d8 00E0     		b	.L168
 2418              	.L169:
 2419              	.LBE5:
 772:.\modem.c     **** 
 773:.\modem.c     ****                 }
 774:.\modem.c     **** 				
 775:.\modem.c     **** 				/* GC864
 776:.\modem.c     **** 	            if(at_write_command(get_str,"200 OK",15000u) != 0){
 777:.\modem.c     **** 					strcpy(packet, strstr(uart_received_string, "\r\n\r\n")+strlen("\r\n\r\n"));
 778:.\modem.c     **** 	                return 1u;   // return 1 if HTTP request was successful
 779:.\modem.c     **** 	            }
 780:.\modem.c     **** 				*/
 781:.\modem.c     ****             }
 782:.\modem.c     **** 			/* OLD, method used AT#SD=1,0,80,\"api.xively.com\",0,0,1 combined with SSEND
 783:.\modem.c     ****             if(at_write_command(get_str,"SRING: 1",15000u) != 0){
 784:.\modem.c     ****                 // Read GET response from the buffer
 785:.\modem.c     ****                 uart_string_reset();
 786:.\modem.c     ****                 //CyDelay(5000u);
 787:.\modem.c     ****                 at_write_command("AT#SRECV=1,700\r","OK",15000u);
 788:.\modem.c     ****                 //strcpy(packet, uart_received_string);
 789:.\modem.c     ****                 strcpy(packet, strstr(uart_received_string, "\r\n\r\n")+strlen("\r\n\r\n"));
 790:.\modem.c     ****                 
 791:.\modem.c     ****                 CyDelay(1000u); //debug_write("Packet received successfully.");
 792:.\modem.c     ****                 return 1u;   // return 1 if succesfully sent sms
 793:.\modem.c     **** 
 794:.\modem.c     ****             }
 795:.\modem.c     **** 			*/
 796:.\modem.c     **** 			
 797:.\modem.c     ****             /* Write to SD Card debugger
 798:.\modem.c     ****             else {
 799:.\modem.c     ****                 debug_write("(at_write_command(sendBuffer,\"OK\"...) Data sent unsuccessfully.");
 800:.\modem.c     ****             }
 801:.\modem.c     ****             */
 802:.\modem.c     **** 
 803:.\modem.c     ****             //uint8 disconnected = modem_disconnect();
 804:.\modem.c     ****         }
 805:.\modem.c     ****             /* Write to SD Card debugger
 806:.\modem.c     ****             else {
 807:.\modem.c     ****                 debug_write("(AT#SD=1,0,80,\"api.xively.com\",0,0,1) Could not connect to server.")
 808:.\modem.c     ****             }
 809:.\modem.c     ****             */
 810:.\modem.c     ****         /*}
 811:.\modem.c     ****         
 812:.\modem.c     ****         if (attempts < MAX_GET_ATTEMPTS-1) { // Don't reset the modem on the last attempt since it 
 813:.\modem.c     ****             modem_reset();
 814:.\modem.c     ****         }
 815:.\modem.c     ****         */
ARM GAS  C:\Users\cps\AppData\Local\Temp\ccCypFl7.s 			page 60


 816:.\modem.c     ****     }
 817:.\modem.c     ****     //modem_disconnect();
 818:.\modem.c     ****     return 0u;   // return 0 if failure to send sms
 2420              		.loc 1 818 0
 2421 00da 0023     		movs	r3, #0
 2422              	.L168:
 819:.\modem.c     **** }
 2423              		.loc 1 819 0
 2424 00dc 1846     		mov	r0, r3
 2425 00de 07F25C47 		addw	r7, r7, #1116
 2426              		.cfi_def_cfa_offset 12
 2427 00e2 BD46     		mov	sp, r7
 2428              		.cfi_def_cfa_register 13
 2429              		@ sp needed
 2430 00e4 90BD     		pop	{r4, r7, pc}
 2431              	.L172:
 2432 00e6 00BF     		.align	2
 2433              	.L171:
 2434 00e8 00000000 		.word	modem_state
 2435 00ec D0020000 		.word	.LC43
 2436 00f0 1C000000 		.word	.LC2
 2437 00f4 FC010000 		.word	.LC32
 2438 00f8 08020000 		.word	.LC33
 2439 00fc 00000000 		.word	feed_id
 2440 0100 F8020000 		.word	.LC44
 2441 0104 00000000 		.word	api_key
 2442 0108 28030000 		.word	.LC45
 2443 010c 44030000 		.word	.LC47
 2444 0110 5C030000 		.word	.LC48
 2445 0114 70030000 		.word	.LC49
 2446 0118 38030000 		.word	.LC46
 2447 011c A8020000 		.word	.LC40
 2448 0120 B4020000 		.word	.LC41
 2449 0124 00000000 		.word	uart_received_string
 2450 0128 9C020000 		.word	.LC38
 2451              		.cfi_endproc
 2452              	.LFE89:
 2453              		.size	modem_get_packet, .-modem_get_packet
 2454              		.section	.rodata
 2455 0375 000000   		.align	2
 2456              	.LC50:
 2457 0378 6C6F636B 		.ascii	"lock\000"
 2457      00
 2458 037d 000000   		.align	2
 2459              	.LC51:
 2460 0380 7B226D65 		.ascii	"{\"method\":\"put\",\"resource\":\"/feeds/%lu\",\"h"
 2460      74686F64 
 2460      223A2270 
 2460      7574222C 
 2460      22726573 
 2461 03aa 65616465 		.ascii	"eaders\":{\"X-ApiKey\":\"%s\"},\"body\":{\"version\""
 2461      7273223A 
 2461      7B22582D 
 2461      4170694B 
 2461      6579223A 
 2462 03d5 3A22312E 		.ascii	":\"1.0.0\",\"datastreams\":[{ \"id\" : \"lock\", \""
 2462      302E3022 
ARM GAS  C:\Users\cps\AppData\Local\Temp\ccCypFl7.s 			page 61


 2462      2C226461 
 2462      74617374 
 2462      7265616D 
 2463 03ff 63757272 		.ascii	"current_value\" : \"%u\"}]}}\000"
 2463      656E745F 
 2463      76616C75 
 2463      6522203A 
 2463      20222575 
 2464 0419 000000   		.section	.text.modem_acquire_lock,"ax",%progbits
 2465              		.align	2
 2466              		.global	modem_acquire_lock
 2467              		.thumb
 2468              		.thumb_func
 2469              		.type	modem_acquire_lock, %function
 2470              	modem_acquire_lock:
 2471              	.LFB90:
 820:.\modem.c     **** 
 821:.\modem.c     **** uint8 modem_acquire_lock(){
 2472              		.loc 1 821 0
 2473              		.cfi_startproc
 2474              		@ args = 0, pretend = 0, frame = 320
 2475              		@ frame_needed = 1, uses_anonymous_args = 0
 2476 0000 90B5     		push	{r4, r7, lr}
 2477              		.cfi_def_cfa_offset 12
 2478              		.cfi_offset 4, -12
 2479              		.cfi_offset 7, -8
 2480              		.cfi_offset 14, -4
 2481 0002 D3B0     		sub	sp, sp, #332
 2482              		.cfi_def_cfa_offset 344
 2483 0004 02AF     		add	r7, sp, #8
 2484              		.cfi_def_cfa 7, 336
 822:.\modem.c     ****     
 823:.\modem.c     ****     /*
 824:.\modem.c     ****     if (lock_acquired == 1u) {
 825:.\modem.c     ****         return 1u;
 826:.\modem.c     ****     }
 827:.\modem.c     ****     */
 828:.\modem.c     ****     
 829:.\modem.c     ****     uint8 lock = 0u;
 2485              		.loc 1 829 0
 2486 0006 0023     		movs	r3, #0
 2487 0008 87F83331 		strb	r3, [r7, #307]
 830:.\modem.c     ****     uint32 i = 0u, delay = 100u, lock_attempts = 2u;    
 2488              		.loc 1 830 0
 2489 000c 0023     		movs	r3, #0
 2490 000e C7F83C31 		str	r3, [r7, #316]
 2491 0012 6423     		movs	r3, #100
 2492 0014 C7F83831 		str	r3, [r7, #312]
 2493 0018 0223     		movs	r3, #2
 2494 001a C7F83431 		str	r3, [r7, #308]
 831:.\modem.c     ****     char data_packet[300] = {0};
 2495              		.loc 1 831 0
 2496 001e 3B1D     		adds	r3, r7, #4
 2497 0020 1A46     		mov	r2, r3
 2498 0022 4FF49673 		mov	r3, #300
 2499 0026 1046     		mov	r0, r2
 2500 0028 0021     		movs	r1, #0
ARM GAS  C:\Users\cps\AppData\Local\Temp\ccCypFl7.s 			page 62


 2501 002a 1A46     		mov	r2, r3
 2502 002c FFF7FEFF 		bl	memset
 832:.\modem.c     ****             
 833:.\modem.c     ****     for(i=0u; i < lock_attempts; i++) {
 2503              		.loc 1 833 0
 2504 0030 0023     		movs	r3, #0
 2505 0032 C7F83C31 		str	r3, [r7, #316]
 2506 0036 3EE0     		b	.L174
 2507              	.L177:
 834:.\modem.c     ****         if(modem_get_packet(data_packet,"lock")){
 2508              		.loc 1 834 0
 2509 0038 3B1D     		adds	r3, r7, #4
 2510 003a 1846     		mov	r0, r3
 2511 003c 2449     		ldr	r1, .L179
 2512 003e FFF7FEFF 		bl	modem_get_packet
 2513 0042 0346     		mov	r3, r0
 2514 0044 002B     		cmp	r3, #0
 2515 0046 2DD0     		beq	.L175
 835:.\modem.c     ****             if(packet_get_uint8(data_packet, "lock", &lock) && lock == 0u){
 2516              		.loc 1 835 0
 2517 0048 3A1D     		adds	r2, r7, #4
 2518 004a 07F23313 		addw	r3, r7, #307
 2519 004e 1046     		mov	r0, r2
 2520 0050 1F49     		ldr	r1, .L179
 2521 0052 1A46     		mov	r2, r3
 2522 0054 FFF7FEFF 		bl	packet_get_uint8
 2523 0058 0346     		mov	r3, r0
 2524 005a 002B     		cmp	r3, #0
 2525 005c 22D0     		beq	.L175
 2526              		.loc 1 835 0 is_stmt 0 discriminator 1
 2527 005e 97F83331 		ldrb	r3, [r7, #307]	@ zero_extendqisi2
 2528 0062 002B     		cmp	r3, #0
 2529 0064 1ED1     		bne	.L175
 836:.\modem.c     ****             
 837:.\modem.c     ****                 memset(&data_packet[0],0,sizeof(data_packet));
 2530              		.loc 1 837 0 is_stmt 1
 2531 0066 3B1D     		adds	r3, r7, #4
 2532 0068 1846     		mov	r0, r3
 2533 006a 0021     		movs	r1, #0
 2534 006c 4FF49672 		mov	r2, #300
 2535 0070 FFF7FEFF 		bl	memset
 838:.\modem.c     ****                 sprintf(data_packet, "{"
 2536              		.loc 1 838 0
 2537 0074 174B     		ldr	r3, .L179+4
 2538 0076 1A68     		ldr	r2, [r3]
 2539 0078 174B     		ldr	r3, .L179+8
 2540 007a 1C68     		ldr	r4, [r3]
 2541 007c 391D     		adds	r1, r7, #4
 2542 007e 0123     		movs	r3, #1
 2543 0080 0093     		str	r3, [sp]
 2544 0082 0846     		mov	r0, r1
 2545 0084 1549     		ldr	r1, .L179+12
 2546 0086 2346     		mov	r3, r4
 2547 0088 FFF7FEFF 		bl	sprintf
 839:.\modem.c     ****                       "\"method\":\"put\","
 840:.\modem.c     ****                       "\"resource\":\"/feeds/%lu\","
 841:.\modem.c     ****                       "\"headers\":{\"X-ApiKey\":\"%s\"},"
ARM GAS  C:\Users\cps\AppData\Local\Temp\ccCypFl7.s 			page 63


 842:.\modem.c     ****                       "\"body\":{\"version\":\"1.0.0\",\"datastreams\":["
 843:.\modem.c     ****                             "{ \"id\" : \"lock\", \"current_value\" : \"%u\"}"
 844:.\modem.c     ****                       "]}}",
 845:.\modem.c     ****                       feed_id,api_key,1u);
 846:.\modem.c     ****                       
 847:.\modem.c     ****                 if(modem_send_packet(data_packet)) {
 2548              		.loc 1 847 0
 2549 008c 3B1D     		adds	r3, r7, #4
 2550 008e 1846     		mov	r0, r3
 2551 0090 FFF7FEFF 		bl	modem_send_packet
 2552 0094 0346     		mov	r3, r0
 2553 0096 002B     		cmp	r3, #0
 2554 0098 04D0     		beq	.L175
 848:.\modem.c     ****                     lock_acquired = 1u;
 2555              		.loc 1 848 0
 2556 009a 114B     		ldr	r3, .L179+16
 2557 009c 0122     		movs	r2, #1
 2558 009e 1A70     		strb	r2, [r3]
 849:.\modem.c     ****                     return 1u;
 2559              		.loc 1 849 0
 2560 00a0 0123     		movs	r3, #1
 2561 00a2 0FE0     		b	.L178
 2562              	.L175:
 850:.\modem.c     ****                 }
 851:.\modem.c     ****             }  
 852:.\modem.c     ****         }
 853:.\modem.c     ****         CyDelay(delay);
 2563              		.loc 1 853 0 discriminator 2
 2564 00a4 D7F83801 		ldr	r0, [r7, #312]
 2565 00a8 FFF7FEFF 		bl	CyDelay
 833:.\modem.c     ****         if(modem_get_packet(data_packet,"lock")){
 2566              		.loc 1 833 0 discriminator 2
 2567 00ac D7F83C31 		ldr	r3, [r7, #316]
 2568 00b0 0133     		adds	r3, r3, #1
 2569 00b2 C7F83C31 		str	r3, [r7, #316]
 2570              	.L174:
 833:.\modem.c     ****         if(modem_get_packet(data_packet,"lock")){
 2571              		.loc 1 833 0 is_stmt 0 discriminator 1
 2572 00b6 D7F83C21 		ldr	r2, [r7, #316]
 2573 00ba D7F83431 		ldr	r3, [r7, #308]
 2574 00be 9A42     		cmp	r2, r3
 2575 00c0 BAD3     		bcc	.L177
 854:.\modem.c     ****     }
 855:.\modem.c     ****          
 856:.\modem.c     ****     return 0u;
 2576              		.loc 1 856 0 is_stmt 1
 2577 00c2 0023     		movs	r3, #0
 2578              	.L178:
 857:.\modem.c     **** }
 2579              		.loc 1 857 0 discriminator 1
 2580 00c4 1846     		mov	r0, r3
 2581 00c6 07F5A277 		add	r7, r7, #324
 2582              		.cfi_def_cfa_offset 12
 2583 00ca BD46     		mov	sp, r7
 2584              		.cfi_def_cfa_register 13
 2585              		@ sp needed
 2586 00cc 90BD     		pop	{r4, r7, pc}
ARM GAS  C:\Users\cps\AppData\Local\Temp\ccCypFl7.s 			page 64


 2587              	.L180:
 2588 00ce 00BF     		.align	2
 2589              	.L179:
 2590 00d0 78030000 		.word	.LC50
 2591 00d4 00000000 		.word	feed_id
 2592 00d8 00000000 		.word	api_key
 2593 00dc 80030000 		.word	.LC51
 2594 00e0 00000000 		.word	lock_acquired
 2595              		.cfi_endproc
 2596              	.LFE90:
 2597              		.size	modem_acquire_lock, .-modem_acquire_lock
 2598              		.section	.text.modem_release_lock,"ax",%progbits
 2599              		.align	2
 2600              		.global	modem_release_lock
 2601              		.thumb
 2602              		.thumb_func
 2603              		.type	modem_release_lock, %function
 2604              	modem_release_lock:
 2605              	.LFB91:
 858:.\modem.c     **** 
 859:.\modem.c     **** uint8 modem_release_lock(){
 2606              		.loc 1 859 0
 2607              		.cfi_startproc
 2608              		@ args = 0, pretend = 0, frame = 312
 2609              		@ frame_needed = 1, uses_anonymous_args = 0
 2610 0000 90B5     		push	{r4, r7, lr}
 2611              		.cfi_def_cfa_offset 12
 2612              		.cfi_offset 4, -12
 2613              		.cfi_offset 7, -8
 2614              		.cfi_offset 14, -4
 2615 0002 D1B0     		sub	sp, sp, #324
 2616              		.cfi_def_cfa_offset 336
 2617 0004 02AF     		add	r7, sp, #8
 2618              		.cfi_def_cfa 7, 328
 860:.\modem.c     ****     /*
 861:.\modem.c     ****     if (lock_acquired == 0u) {
 862:.\modem.c     ****         return 1u;
 863:.\modem.c     ****     }
 864:.\modem.c     ****     */
 865:.\modem.c     ****     
 866:.\modem.c     ****     uint32 i = 0u, delay = 100u, lock_attempts = 2u;    
 2619              		.loc 1 866 0
 2620 0006 0023     		movs	r3, #0
 2621 0008 C7F83431 		str	r3, [r7, #308]
 2622 000c 6423     		movs	r3, #100
 2623 000e C7F83031 		str	r3, [r7, #304]
 2624 0012 0223     		movs	r3, #2
 2625 0014 C7F82C31 		str	r3, [r7, #300]
 867:.\modem.c     ****     char data_packet[300] = {0};
 2626              		.loc 1 867 0
 2627 0018 3B46     		mov	r3, r7
 2628 001a 1A46     		mov	r2, r3
 2629 001c 4FF49673 		mov	r3, #300
 2630 0020 1046     		mov	r0, r2
 2631 0022 0021     		movs	r1, #0
 2632 0024 1A46     		mov	r2, r3
 2633 0026 FFF7FEFF 		bl	memset
ARM GAS  C:\Users\cps\AppData\Local\Temp\ccCypFl7.s 			page 65


 868:.\modem.c     ****     
 869:.\modem.c     ****     sprintf(data_packet, "{"
 2634              		.loc 1 869 0
 2635 002a 184B     		ldr	r3, .L187
 2636 002c 1A68     		ldr	r2, [r3]
 2637 002e 184B     		ldr	r3, .L187+4
 2638 0030 1C68     		ldr	r4, [r3]
 2639 0032 3946     		mov	r1, r7
 2640 0034 0023     		movs	r3, #0
 2641 0036 0093     		str	r3, [sp]
 2642 0038 0846     		mov	r0, r1
 2643 003a 1649     		ldr	r1, .L187+8
 2644 003c 2346     		mov	r3, r4
 2645 003e FFF7FEFF 		bl	sprintf
 870:.\modem.c     ****           "\"method\":\"put\","
 871:.\modem.c     ****           "\"resource\":\"/feeds/%lu\","
 872:.\modem.c     ****           "\"headers\":{\"X-ApiKey\":\"%s\"},"
 873:.\modem.c     ****           "\"body\":{\"version\":\"1.0.0\",\"datastreams\":["
 874:.\modem.c     ****                 "{ \"id\" : \"lock\", \"current_value\" : \"%u\"}"
 875:.\modem.c     ****           "]}}",
 876:.\modem.c     ****           feed_id, api_key, 0u);
 877:.\modem.c     ****         
 878:.\modem.c     ****     for(i=0u; i < lock_attempts; i++) {
 2646              		.loc 1 878 0
 2647 0042 0023     		movs	r3, #0
 2648 0044 C7F83431 		str	r3, [r7, #308]
 2649 0048 14E0     		b	.L182
 2650              	.L185:
 879:.\modem.c     **** 
 880:.\modem.c     ****         if(modem_send_packet(data_packet)) {
 2651              		.loc 1 880 0
 2652 004a 3B46     		mov	r3, r7
 2653 004c 1846     		mov	r0, r3
 2654 004e FFF7FEFF 		bl	modem_send_packet
 2655 0052 0346     		mov	r3, r0
 2656 0054 002B     		cmp	r3, #0
 2657 0056 04D0     		beq	.L183
 881:.\modem.c     ****             lock_acquired = 0u;
 2658              		.loc 1 881 0
 2659 0058 0F4B     		ldr	r3, .L187+12
 2660 005a 0022     		movs	r2, #0
 2661 005c 1A70     		strb	r2, [r3]
 882:.\modem.c     ****             return 1u;
 2662              		.loc 1 882 0
 2663 005e 0123     		movs	r3, #1
 2664 0060 0FE0     		b	.L186
 2665              	.L183:
 883:.\modem.c     ****         }
 884:.\modem.c     ****         
 885:.\modem.c     ****         CyDelay(delay);
 2666              		.loc 1 885 0 discriminator 2
 2667 0062 D7F83001 		ldr	r0, [r7, #304]
 2668 0066 FFF7FEFF 		bl	CyDelay
 878:.\modem.c     **** 
 2669              		.loc 1 878 0 discriminator 2
 2670 006a D7F83431 		ldr	r3, [r7, #308]
 2671 006e 0133     		adds	r3, r3, #1
ARM GAS  C:\Users\cps\AppData\Local\Temp\ccCypFl7.s 			page 66


 2672 0070 C7F83431 		str	r3, [r7, #308]
 2673              	.L182:
 878:.\modem.c     **** 
 2674              		.loc 1 878 0 is_stmt 0 discriminator 1
 2675 0074 D7F83421 		ldr	r2, [r7, #308]
 2676 0078 D7F82C31 		ldr	r3, [r7, #300]
 2677 007c 9A42     		cmp	r2, r3
 2678 007e E4D3     		bcc	.L185
 886:.\modem.c     ****     }
 887:.\modem.c     ****          
 888:.\modem.c     ****     return 0u;
 2679              		.loc 1 888 0 is_stmt 1
 2680 0080 0023     		movs	r3, #0
 2681              	.L186:
 889:.\modem.c     **** }
 2682              		.loc 1 889 0 discriminator 1
 2683 0082 1846     		mov	r0, r3
 2684 0084 07F59E77 		add	r7, r7, #316
 2685              		.cfi_def_cfa_offset 12
 2686 0088 BD46     		mov	sp, r7
 2687              		.cfi_def_cfa_register 13
 2688              		@ sp needed
 2689 008a 90BD     		pop	{r4, r7, pc}
 2690              	.L188:
 2691              		.align	2
 2692              	.L187:
 2693 008c 00000000 		.word	feed_id
 2694 0090 00000000 		.word	api_key
 2695 0094 80030000 		.word	.LC51
 2696 0098 00000000 		.word	lock_acquired
 2697              		.cfi_endproc
 2698              	.LFE91:
 2699              		.size	modem_release_lock, .-modem_release_lock
 2700              		.section	.text.uart_string_reset,"ax",%progbits
 2701              		.align	2
 2702              		.global	uart_string_reset
 2703              		.thumb
 2704              		.thumb_func
 2705              		.type	uart_string_reset, %function
 2706              	uart_string_reset:
 2707              	.LFB92:
 890:.\modem.c     **** 
 891:.\modem.c     **** void uart_string_reset(){
 2708              		.loc 1 891 0
 2709              		.cfi_startproc
 2710              		@ args = 0, pretend = 0, frame = 0
 2711              		@ frame_needed = 1, uses_anonymous_args = 0
 2712 0000 80B5     		push	{r7, lr}
 2713              		.cfi_def_cfa_offset 8
 2714              		.cfi_offset 7, -8
 2715              		.cfi_offset 14, -4
 2716 0002 00AF     		add	r7, sp, #0
 2717              		.cfi_def_cfa_register 7
 892:.\modem.c     ****     // reset uart_received_string to zero
 893:.\modem.c     ****     /*
 894:.\modem.c     ****     uint16 i = 0;
 895:.\modem.c     ****     
ARM GAS  C:\Users\cps\AppData\Local\Temp\ccCypFl7.s 			page 67


 896:.\modem.c     ****     for(i = 0; i < 700; i++){
 897:.\modem.c     ****         uart_received_string[i] = 0;
 898:.\modem.c     ****     }
 899:.\modem.c     ****     */
 900:.\modem.c     ****     memset(&uart_received_string[0],0,sizeof(uart_received_string));
 2718              		.loc 1 900 0
 2719 0004 0548     		ldr	r0, .L190
 2720 0006 0021     		movs	r1, #0
 2721 0008 4FF47A72 		mov	r2, #1000
 2722 000c FFF7FEFF 		bl	memset
 901:.\modem.c     ****     uart_string_index = 0;
 2723              		.loc 1 901 0
 2724 0010 034B     		ldr	r3, .L190+4
 2725 0012 0022     		movs	r2, #0
 2726 0014 1A80     		strh	r2, [r3]	@ movhi
 902:.\modem.c     ****     Telit_UART_ClearRxBuffer();
 2727              		.loc 1 902 0
 2728 0016 FFF7FEFF 		bl	Telit_UART_ClearRxBuffer
 903:.\modem.c     **** //    uart_ClearTxBuffer();
 904:.\modem.c     **** }
 2729              		.loc 1 904 0
 2730 001a 80BD     		pop	{r7, pc}
 2731              	.L191:
 2732              		.align	2
 2733              	.L190:
 2734 001c 00000000 		.word	uart_received_string
 2735 0020 00000000 		.word	uart_string_index
 2736              		.cfi_endproc
 2737              	.LFE92:
 2738              		.size	uart_string_reset, .-uart_string_reset
 2739              		.section	.text.modem_sleep,"ax",%progbits
 2740              		.align	2
 2741              		.global	modem_sleep
 2742              		.thumb
 2743              		.thumb_func
 2744              		.type	modem_sleep, %function
 2745              	modem_sleep:
 2746              	.LFB93:
 905:.\modem.c     **** 
 906:.\modem.c     **** void modem_sleep(){
 2747              		.loc 1 906 0
 2748              		.cfi_startproc
 2749              		@ args = 0, pretend = 0, frame = 0
 2750              		@ frame_needed = 1, uses_anonymous_args = 0
 2751 0000 80B5     		push	{r7, lr}
 2752              		.cfi_def_cfa_offset 8
 2753              		.cfi_offset 7, -8
 2754              		.cfi_offset 14, -4
 2755 0002 00AF     		add	r7, sp, #0
 2756              		.cfi_def_cfa_register 7
 907:.\modem.c     **** 	Telit_UART_Sleep();
 2757              		.loc 1 907 0
 2758 0004 FFF7FEFF 		bl	Telit_UART_Sleep
 908:.\modem.c     **** }
 2759              		.loc 1 908 0
 2760 0008 80BD     		pop	{r7, pc}
 2761              		.cfi_endproc
ARM GAS  C:\Users\cps\AppData\Local\Temp\ccCypFl7.s 			page 68


 2762              	.LFE93:
 2763              		.size	modem_sleep, .-modem_sleep
 2764 000a 00BF     		.section	.text.modem_wakeup,"ax",%progbits
 2765              		.align	2
 2766              		.global	modem_wakeup
 2767              		.thumb
 2768              		.thumb_func
 2769              		.type	modem_wakeup, %function
 2770              	modem_wakeup:
 2771              	.LFB94:
 909:.\modem.c     **** 
 910:.\modem.c     **** void modem_wakeup(){
 2772              		.loc 1 910 0
 2773              		.cfi_startproc
 2774              		@ args = 0, pretend = 0, frame = 0
 2775              		@ frame_needed = 1, uses_anonymous_args = 0
 2776 0000 80B5     		push	{r7, lr}
 2777              		.cfi_def_cfa_offset 8
 2778              		.cfi_offset 7, -8
 2779              		.cfi_offset 14, -4
 2780 0002 00AF     		add	r7, sp, #0
 2781              		.cfi_def_cfa_register 7
 911:.\modem.c     **** 	Telit_UART_Wakeup();
 2782              		.loc 1 911 0
 2783 0004 FFF7FEFF 		bl	Telit_UART_Wakeup
 912:.\modem.c     **** }
 2784              		.loc 1 912 0
 2785 0008 80BD     		pop	{r7, pc}
 2786              		.cfi_endproc
 2787              	.LFE94:
 2788              		.size	modem_wakeup, .-modem_wakeup
 2789 000a 00BF     		.section	.text.Telit_isr_rx,"ax",%progbits
 2790              		.align	2
 2791              		.global	Telit_isr_rx
 2792              		.thumb
 2793              		.thumb_func
 2794              		.type	Telit_isr_rx, %function
 2795              	Telit_isr_rx:
 2796              	.LFB95:
 913:.\modem.c     **** 
 914:.\modem.c     **** 
 915:.\modem.c     **** // this function fires when uart rx receives bytes (when modem is sending bytes)
 916:.\modem.c     **** CY_ISR(Telit_isr_rx){
 2797              		.loc 1 916 0
 2798              		.cfi_startproc
 2799              		@ args = 0, pretend = 0, frame = 8
 2800              		@ frame_needed = 1, uses_anonymous_args = 0
 2801 0000 80B5     		push	{r7, lr}
 2802              		.cfi_def_cfa_offset 8
 2803              		.cfi_offset 7, -8
 2804              		.cfi_offset 14, -4
 2805 0002 82B0     		sub	sp, sp, #8
 2806              		.cfi_def_cfa_offset 16
 2807 0004 00AF     		add	r7, sp, #0
 2808              		.cfi_def_cfa_register 7
 917:.\modem.c     ****     while (Telit_UART_GetRxBufferSize()){
 2809              		.loc 1 917 0
ARM GAS  C:\Users\cps\AppData\Local\Temp\ccCypFl7.s 			page 69


 2810 0006 12E0     		b	.L195
 2811              	.L196:
 2812              	.LBB6:
 918:.\modem.c     ****         // hold the next char in the rx register as a temporary variable
 919:.\modem.c     ****         char rx_char_hold = Telit_UART_GetChar();
 2813              		.loc 1 919 0
 2814 0008 FFF7FEFF 		bl	Telit_UART_GetChar
 2815 000c 0346     		mov	r3, r0
 2816 000e FB71     		strb	r3, [r7, #7]
 920:.\modem.c     ****         
 921:.\modem.c     ****         // store the char in uart_received_string
 922:.\modem.c     ****         if(rx_char_hold){
 2817              		.loc 1 922 0
 2818 0010 FB79     		ldrb	r3, [r7, #7]	@ zero_extendqisi2
 2819 0012 002B     		cmp	r3, #0
 2820 0014 0BD0     		beq	.L195
 923:.\modem.c     ****             uart_received_string[uart_string_index] = rx_char_hold;
 2821              		.loc 1 923 0
 2822 0016 0A4B     		ldr	r3, .L197
 2823 0018 1B88     		ldrh	r3, [r3]
 2824 001a 1946     		mov	r1, r3
 2825 001c 094A     		ldr	r2, .L197+4
 2826 001e FB79     		ldrb	r3, [r7, #7]
 2827 0020 5354     		strb	r3, [r2, r1]
 924:.\modem.c     ****             uart_string_index++;
 2828              		.loc 1 924 0
 2829 0022 074B     		ldr	r3, .L197
 2830 0024 1B88     		ldrh	r3, [r3]
 2831 0026 0133     		adds	r3, r3, #1
 2832 0028 9AB2     		uxth	r2, r3
 2833 002a 054B     		ldr	r3, .L197
 2834 002c 1A80     		strh	r2, [r3]	@ movhi
 2835              	.L195:
 2836              	.LBE6:
 917:.\modem.c     ****         // hold the next char in the rx register as a temporary variable
 2837              		.loc 1 917 0
 2838 002e FFF7FEFF 		bl	Telit_UART_GetRxBufferSize
 2839 0032 0346     		mov	r3, r0
 2840 0034 002B     		cmp	r3, #0
 2841 0036 E7D1     		bne	.L196
 925:.\modem.c     ****         }
 926:.\modem.c     ****     }
 927:.\modem.c     **** }
 2842              		.loc 1 927 0
 2843 0038 0837     		adds	r7, r7, #8
 2844              		.cfi_def_cfa_offset 8
 2845 003a BD46     		mov	sp, r7
 2846              		.cfi_def_cfa_register 13
 2847              		@ sp needed
 2848 003c 80BD     		pop	{r7, pc}
 2849              	.L198:
 2850 003e 00BF     		.align	2
 2851              	.L197:
 2852 0040 00000000 		.word	uart_string_index
 2853 0044 00000000 		.word	uart_received_string
 2854              		.cfi_endproc
 2855              	.LFE95:
ARM GAS  C:\Users\cps\AppData\Local\Temp\ccCypFl7.s 			page 70


 2856              		.size	Telit_isr_rx, .-Telit_isr_rx
 2857              		.text
 2858              	.Letext0:
 2859              		.file 2 "c:\\program files (x86)\\cypress\\psoc creator\\3.3\\psoc creator\\import\\gnu\\arm\\4.9.
 2860              		.file 3 "c:\\program files (x86)\\cypress\\psoc creator\\3.3\\psoc creator\\import\\gnu\\arm\\4.9.
 2861              		.file 4 "Generated_Source\\PSoC5/cytypes.h"
 2862              		.file 5 "c:\\program files (x86)\\cypress\\psoc creator\\3.3\\psoc creator\\import\\gnu\\arm\\4.9.
 2863              		.file 6 "c:\\program files (x86)\\cypress\\psoc creator\\3.3\\psoc creator\\import\\gnu\\arm\\4.9.
 2864              		.file 7 "Generated_Source\\PSoC5/core_cm3.h"
 2865              		.file 8 ".\\modem.h"
 2866              		.section	.debug_info,"",%progbits
 2867              	.Ldebug_info0:
 2868 0000 1E090000 		.4byte	0x91e
 2869 0004 0400     		.2byte	0x4
 2870 0006 00000000 		.4byte	.Ldebug_abbrev0
 2871 000a 04       		.byte	0x4
 2872 000b 01       		.uleb128 0x1
 2873 000c 35020000 		.4byte	.LASF105
 2874 0010 01       		.byte	0x1
 2875 0011 B3000000 		.4byte	.LASF106
 2876 0015 3F030000 		.4byte	.LASF107
 2877 0019 00000000 		.4byte	.Ldebug_ranges0+0
 2878 001d 00000000 		.4byte	0
 2879 0021 00000000 		.4byte	.Ldebug_line0
 2880 0025 02       		.uleb128 0x2
 2881 0026 01       		.byte	0x1
 2882 0027 06       		.byte	0x6
 2883 0028 C9030000 		.4byte	.LASF0
 2884 002c 02       		.uleb128 0x2
 2885 002d 01       		.byte	0x1
 2886 002e 08       		.byte	0x8
 2887 002f 9C030000 		.4byte	.LASF1
 2888 0033 02       		.uleb128 0x2
 2889 0034 02       		.byte	0x2
 2890 0035 05       		.byte	0x5
 2891 0036 38010000 		.4byte	.LASF2
 2892 003a 02       		.uleb128 0x2
 2893 003b 02       		.byte	0x2
 2894 003c 07       		.byte	0x7
 2895 003d 48040000 		.4byte	.LASF3
 2896 0041 03       		.uleb128 0x3
 2897 0042 78050000 		.4byte	.LASF9
 2898 0046 02       		.byte	0x2
 2899 0047 3F       		.byte	0x3f
 2900 0048 4C000000 		.4byte	0x4c
 2901 004c 02       		.uleb128 0x2
 2902 004d 04       		.byte	0x4
 2903 004e 05       		.byte	0x5
 2904 004f 7C040000 		.4byte	.LASF4
 2905 0053 02       		.uleb128 0x2
 2906 0054 04       		.byte	0x4
 2907 0055 07       		.byte	0x7
 2908 0056 11050000 		.4byte	.LASF5
 2909 005a 02       		.uleb128 0x2
 2910 005b 08       		.byte	0x8
 2911 005c 05       		.byte	0x5
 2912 005d 00010000 		.4byte	.LASF6
ARM GAS  C:\Users\cps\AppData\Local\Temp\ccCypFl7.s 			page 71


 2913 0061 02       		.uleb128 0x2
 2914 0062 08       		.byte	0x8
 2915 0063 07       		.byte	0x7
 2916 0064 DD030000 		.4byte	.LASF7
 2917 0068 04       		.uleb128 0x4
 2918 0069 04       		.byte	0x4
 2919 006a 05       		.byte	0x5
 2920 006b 696E7400 		.ascii	"int\000"
 2921 006f 02       		.uleb128 0x2
 2922 0070 04       		.byte	0x4
 2923 0071 07       		.byte	0x7
 2924 0072 FC030000 		.4byte	.LASF8
 2925 0076 03       		.uleb128 0x3
 2926 0077 9E040000 		.4byte	.LASF10
 2927 007b 03       		.byte	0x3
 2928 007c 2C       		.byte	0x2c
 2929 007d 41000000 		.4byte	0x41
 2930 0081 03       		.uleb128 0x3
 2931 0082 C1040000 		.4byte	.LASF11
 2932 0086 04       		.byte	0x4
 2933 0087 A1       		.byte	0xa1
 2934 0088 2C000000 		.4byte	0x2c
 2935 008c 03       		.uleb128 0x3
 2936 008d 61010000 		.4byte	.LASF12
 2937 0091 04       		.byte	0x4
 2938 0092 A2       		.byte	0xa2
 2939 0093 3A000000 		.4byte	0x3a
 2940 0097 03       		.uleb128 0x3
 2941 0098 0A050000 		.4byte	.LASF13
 2942 009c 04       		.byte	0x4
 2943 009d A3       		.byte	0xa3
 2944 009e 53000000 		.4byte	0x53
 2945 00a2 02       		.uleb128 0x2
 2946 00a3 04       		.byte	0x4
 2947 00a4 04       		.byte	0x4
 2948 00a5 D6010000 		.4byte	.LASF14
 2949 00a9 02       		.uleb128 0x2
 2950 00aa 08       		.byte	0x8
 2951 00ab 04       		.byte	0x4
 2952 00ac 2C050000 		.4byte	.LASF15
 2953 00b0 02       		.uleb128 0x2
 2954 00b1 01       		.byte	0x1
 2955 00b2 08       		.byte	0x8
 2956 00b3 6A040000 		.4byte	.LASF16
 2957 00b7 02       		.uleb128 0x2
 2958 00b8 04       		.byte	0x4
 2959 00b9 07       		.byte	0x7
 2960 00ba C3020000 		.4byte	.LASF17
 2961 00be 05       		.uleb128 0x5
 2962 00bf 04       		.byte	0x4
 2963 00c0 B0000000 		.4byte	0xb0
 2964 00c4 03       		.uleb128 0x3
 2965 00c5 B6030000 		.4byte	.LASF18
 2966 00c9 05       		.byte	0x5
 2967 00ca 7A       		.byte	0x7a
 2968 00cb 4C000000 		.4byte	0x4c
 2969 00cf 06       		.uleb128 0x6
ARM GAS  C:\Users\cps\AppData\Local\Temp\ccCypFl7.s 			page 72


 2970 00d0 746D00   		.ascii	"tm\000"
 2971 00d3 24       		.byte	0x24
 2972 00d4 06       		.byte	0x6
 2973 00d5 1F       		.byte	0x1f
 2974 00d6 47010000 		.4byte	0x147
 2975 00da 07       		.uleb128 0x7
 2976 00db FF050000 		.4byte	.LASF19
 2977 00df 06       		.byte	0x6
 2978 00e0 21       		.byte	0x21
 2979 00e1 68000000 		.4byte	0x68
 2980 00e5 00       		.byte	0
 2981 00e6 07       		.uleb128 0x7
 2982 00e7 03050000 		.4byte	.LASF20
 2983 00eb 06       		.byte	0x6
 2984 00ec 22       		.byte	0x22
 2985 00ed 68000000 		.4byte	0x68
 2986 00f1 04       		.byte	0x4
 2987 00f2 07       		.uleb128 0x7
 2988 00f3 CE010000 		.4byte	.LASF21
 2989 00f7 06       		.byte	0x6
 2990 00f8 23       		.byte	0x23
 2991 00f9 68000000 		.4byte	0x68
 2992 00fd 08       		.byte	0x8
 2993 00fe 07       		.uleb128 0x7
 2994 00ff 09040000 		.4byte	.LASF22
 2995 0103 06       		.byte	0x6
 2996 0104 24       		.byte	0x24
 2997 0105 68000000 		.4byte	0x68
 2998 0109 0C       		.byte	0xc
 2999 010a 07       		.uleb128 0x7
 3000 010b F0010000 		.4byte	.LASF23
 3001 010f 06       		.byte	0x6
 3002 0110 25       		.byte	0x25
 3003 0111 68000000 		.4byte	0x68
 3004 0115 10       		.byte	0x10
 3005 0116 07       		.uleb128 0x7
 3006 0117 D5030000 		.4byte	.LASF24
 3007 011b 06       		.byte	0x6
 3008 011c 26       		.byte	0x26
 3009 011d 68000000 		.4byte	0x68
 3010 0121 14       		.byte	0x14
 3011 0122 07       		.uleb128 0x7
 3012 0123 F8000000 		.4byte	.LASF25
 3013 0127 06       		.byte	0x6
 3014 0128 27       		.byte	0x27
 3015 0129 68000000 		.4byte	0x68
 3016 012d 18       		.byte	0x18
 3017 012e 07       		.uleb128 0x7
 3018 012f AB040000 		.4byte	.LASF26
 3019 0133 06       		.byte	0x6
 3020 0134 28       		.byte	0x28
 3021 0135 68000000 		.4byte	0x68
 3022 0139 1C       		.byte	0x1c
 3023 013a 07       		.uleb128 0x7
 3024 013b 5D060000 		.4byte	.LASF27
 3025 013f 06       		.byte	0x6
 3026 0140 29       		.byte	0x29
ARM GAS  C:\Users\cps\AppData\Local\Temp\ccCypFl7.s 			page 73


 3027 0141 68000000 		.4byte	0x68
 3028 0145 20       		.byte	0x20
 3029 0146 00       		.byte	0
 3030 0147 08       		.uleb128 0x8
 3031 0148 14030000 		.4byte	.LASF33
 3032 014c 01       		.byte	0x1
 3033 014d 22       		.byte	0x22
 3034 014e 81000000 		.4byte	0x81
 3035 0152 00000000 		.4byte	.LFB56
 3036 0156 2C000000 		.4byte	.LFE56-.LFB56
 3037 015a 01       		.uleb128 0x1
 3038 015b 9C       		.byte	0x9c
 3039 015c 7C010000 		.4byte	0x17c
 3040 0160 09       		.uleb128 0x9
 3041 0161 696400   		.ascii	"id\000"
 3042 0164 01       		.byte	0x1
 3043 0165 22       		.byte	0x22
 3044 0166 97000000 		.4byte	0x97
 3045 016a 02       		.uleb128 0x2
 3046 016b 91       		.byte	0x91
 3047 016c 74       		.sleb128 -12
 3048 016d 09       		.uleb128 0x9
 3049 016e 6B657900 		.ascii	"key\000"
 3050 0172 01       		.byte	0x1
 3051 0173 22       		.byte	0x22
 3052 0174 BE000000 		.4byte	0xbe
 3053 0178 02       		.uleb128 0x2
 3054 0179 91       		.byte	0x91
 3055 017a 70       		.sleb128 -16
 3056 017b 00       		.byte	0
 3057 017c 0A       		.uleb128 0xa
 3058 017d 57050000 		.4byte	.LASF28
 3059 0181 01       		.byte	0x1
 3060 0182 42       		.byte	0x42
 3061 0183 81000000 		.4byte	0x81
 3062 0187 00000000 		.4byte	.LFB57
 3063 018b 28000000 		.4byte	.LFE57-.LFB57
 3064 018f 01       		.uleb128 0x1
 3065 0190 9C       		.byte	0x9c
 3066 0191 0B       		.uleb128 0xb
 3067 0192 22040000 		.4byte	.LASF29
 3068 0196 01       		.byte	0x1
 3069 0197 49       		.byte	0x49
 3070 0198 81000000 		.4byte	0x81
 3071 019c 00000000 		.4byte	.LFB58
 3072 01a0 10000000 		.4byte	.LFE58-.LFB58
 3073 01a4 01       		.uleb128 0x1
 3074 01a5 9C       		.byte	0x9c
 3075 01a6 0A       		.uleb128 0xa
 3076 01a7 F9020000 		.4byte	.LASF30
 3077 01ab 01       		.byte	0x1
 3078 01ac 4E       		.byte	0x4e
 3079 01ad 81000000 		.4byte	0x81
 3080 01b1 00000000 		.4byte	.LFB59
 3081 01b5 28000000 		.4byte	.LFE59-.LFB59
 3082 01b9 01       		.uleb128 0x1
 3083 01ba 9C       		.byte	0x9c
ARM GAS  C:\Users\cps\AppData\Local\Temp\ccCypFl7.s 			page 74


 3084 01bb 0C       		.uleb128 0xc
 3085 01bc F7040000 		.4byte	.LASF31
 3086 01c0 01       		.byte	0x1
 3087 01c1 57       		.byte	0x57
 3088 01c2 00000000 		.4byte	.LFB60
 3089 01c6 38000000 		.4byte	.LFE60-.LFB60
 3090 01ca 01       		.uleb128 0x1
 3091 01cb 9C       		.byte	0x9c
 3092 01cc 0C       		.uleb128 0xc
 3093 01cd C7040000 		.4byte	.LASF32
 3094 01d1 01       		.byte	0x1
 3095 01d2 64       		.byte	0x64
 3096 01d3 00000000 		.4byte	.LFB61
 3097 01d7 24000000 		.4byte	.LFE61-.LFB61
 3098 01db 01       		.uleb128 0x1
 3099 01dc 9C       		.byte	0x9c
 3100 01dd 0D       		.uleb128 0xd
 3101 01de D1020000 		.4byte	.LASF34
 3102 01e2 01       		.byte	0x1
 3103 01e3 6E       		.byte	0x6e
 3104 01e4 81000000 		.4byte	0x81
 3105 01e8 00000000 		.4byte	.LFB62
 3106 01ec 78000000 		.4byte	.LFE62-.LFB62
 3107 01f0 01       		.uleb128 0x1
 3108 01f1 9C       		.byte	0x9c
 3109 01f2 6F020000 		.4byte	0x26f
 3110 01f6 0E       		.uleb128 0xe
 3111 01f7 A6050000 		.4byte	.LASF35
 3112 01fb 01       		.byte	0x1
 3113 01fc 6E       		.byte	0x6e
 3114 01fd BE000000 		.4byte	0xbe
 3115 0201 02       		.uleb128 0x2
 3116 0202 91       		.byte	0x91
 3117 0203 5C       		.sleb128 -36
 3118 0204 0E       		.uleb128 0xe
 3119 0205 52000000 		.4byte	.LASF36
 3120 0209 01       		.byte	0x1
 3121 020a 6E       		.byte	0x6e
 3122 020b BE000000 		.4byte	0xbe
 3123 020f 02       		.uleb128 0x2
 3124 0210 91       		.byte	0x91
 3125 0211 58       		.sleb128 -40
 3126 0212 0E       		.uleb128 0xe
 3127 0213 50060000 		.4byte	.LASF37
 3128 0217 01       		.byte	0x1
 3129 0218 6E       		.byte	0x6e
 3130 0219 97000000 		.4byte	0x97
 3131 021d 02       		.uleb128 0x2
 3132 021e 91       		.byte	0x91
 3133 021f 54       		.sleb128 -44
 3134 0220 0F       		.uleb128 0xf
 3135 0221 4E050000 		.4byte	.LASF38
 3136 0225 01       		.byte	0x1
 3137 0226 6F       		.byte	0x6f
 3138 0227 81000000 		.4byte	0x81
 3139 022b 02       		.uleb128 0x2
 3140 022c 91       		.byte	0x91
ARM GAS  C:\Users\cps\AppData\Local\Temp\ccCypFl7.s 			page 75


 3141 022d 77       		.sleb128 -9
 3142 022e 10       		.uleb128 0x10
 3143 022f 6900     		.ascii	"i\000"
 3144 0231 01       		.byte	0x1
 3145 0232 70       		.byte	0x70
 3146 0233 97000000 		.4byte	0x97
 3147 0237 02       		.uleb128 0x2
 3148 0238 91       		.byte	0x91
 3149 0239 70       		.sleb128 -16
 3150 023a 0F       		.uleb128 0xf
 3151 023b 0E010000 		.4byte	.LASF39
 3152 023f 01       		.byte	0x1
 3153 0240 70       		.byte	0x70
 3154 0241 97000000 		.4byte	0x97
 3155 0245 02       		.uleb128 0x2
 3156 0246 91       		.byte	0x91
 3157 0247 6C       		.sleb128 -20
 3158 0248 0F       		.uleb128 0xf
 3159 0249 33050000 		.4byte	.LASF40
 3160 024d 01       		.byte	0x1
 3161 024e 70       		.byte	0x70
 3162 024f 97000000 		.4byte	0x97
 3163 0253 02       		.uleb128 0x2
 3164 0254 91       		.byte	0x91
 3165 0255 68       		.sleb128 -24
 3166 0256 11       		.uleb128 0x11
 3167 0257 3C000000 		.4byte	.LBB2
 3168 025b 1E000000 		.4byte	.LBE2-.LBB2
 3169 025f 0F       		.uleb128 0xf
 3170 0260 00000000 		.4byte	.LASF41
 3171 0264 01       		.byte	0x1
 3172 0265 76       		.byte	0x76
 3173 0266 BE000000 		.4byte	0xbe
 3174 026a 02       		.uleb128 0x2
 3175 026b 91       		.byte	0x91
 3176 026c 64       		.sleb128 -28
 3177 026d 00       		.byte	0
 3178 026e 00       		.byte	0
 3179 026f 0A       		.uleb128 0xa
 3180 0270 5B040000 		.4byte	.LASF42
 3181 0274 01       		.byte	0x1
 3182 0275 82       		.byte	0x82
 3183 0276 81000000 		.4byte	0x81
 3184 027a 00000000 		.4byte	.LFB63
 3185 027e 68000000 		.4byte	.LFE63-.LFB63
 3186 0282 01       		.uleb128 0x1
 3187 0283 9C       		.byte	0x9c
 3188 0284 0A       		.uleb128 0xa
 3189 0285 19010000 		.4byte	.LASF43
 3190 0289 01       		.byte	0x1
 3191 028a A5       		.byte	0xa5
 3192 028b 81000000 		.4byte	0x81
 3193 028f 00000000 		.4byte	.LFB64
 3194 0293 48000000 		.4byte	.LFE64-.LFB64
 3195 0297 01       		.uleb128 0x1
 3196 0298 9C       		.byte	0x9c
 3197 0299 0A       		.uleb128 0xa
ARM GAS  C:\Users\cps\AppData\Local\Temp\ccCypFl7.s 			page 76


 3198 029a AA030000 		.4byte	.LASF44
 3199 029e 01       		.byte	0x1
 3200 029f C3       		.byte	0xc3
 3201 02a0 81000000 		.4byte	0x81
 3202 02a4 00000000 		.4byte	.LFB65
 3203 02a8 3C000000 		.4byte	.LFE65-.LFB65
 3204 02ac 01       		.uleb128 0x1
 3205 02ad 9C       		.byte	0x9c
 3206 02ae 0A       		.uleb128 0xa
 3207 02af 95000000 		.4byte	.LASF45
 3208 02b3 01       		.byte	0x1
 3209 02b4 D1       		.byte	0xd1
 3210 02b5 81000000 		.4byte	0x81
 3211 02b9 00000000 		.4byte	.LFB66
 3212 02bd 1A000000 		.4byte	.LFE66-.LFB66
 3213 02c1 01       		.uleb128 0x1
 3214 02c2 9C       		.byte	0x9c
 3215 02c3 12       		.uleb128 0x12
 3216 02c4 7A030000 		.4byte	.LASF49
 3217 02c8 01       		.byte	0x1
 3218 02c9 E7       		.byte	0xe7
 3219 02ca 81000000 		.4byte	0x81
 3220 02ce 00000000 		.4byte	.LFB67
 3221 02d2 78000000 		.4byte	.LFE67-.LFB67
 3222 02d6 01       		.uleb128 0x1
 3223 02d7 9C       		.byte	0x9c
 3224 02d8 F9020000 		.4byte	0x2f9
 3225 02dc 0F       		.uleb128 0xf
 3226 02dd 89010000 		.4byte	.LASF46
 3227 02e1 01       		.byte	0x1
 3228 02e2 E9       		.byte	0xe9
 3229 02e3 81000000 		.4byte	0x81
 3230 02e7 02       		.uleb128 0x2
 3231 02e8 91       		.byte	0x91
 3232 02e9 77       		.sleb128 -9
 3233 02ea 0F       		.uleb128 0xf
 3234 02eb 0F020000 		.4byte	.LASF47
 3235 02ef 01       		.byte	0x1
 3236 02f0 E9       		.byte	0xe9
 3237 02f1 81000000 		.4byte	0x81
 3238 02f5 02       		.uleb128 0x2
 3239 02f6 91       		.byte	0x91
 3240 02f7 76       		.sleb128 -10
 3241 02f8 00       		.byte	0
 3242 02f9 13       		.uleb128 0x13
 3243 02fa 82050000 		.4byte	.LASF48
 3244 02fe 01       		.byte	0x1
 3245 02ff 3201     		.2byte	0x132
 3246 0301 81000000 		.4byte	0x81
 3247 0305 00000000 		.4byte	.LFB68
 3248 0309 38000000 		.4byte	.LFE68-.LFB68
 3249 030d 01       		.uleb128 0x1
 3250 030e 9C       		.byte	0x9c
 3251 030f 14       		.uleb128 0x14
 3252 0310 BD000000 		.4byte	.LASF50
 3253 0314 01       		.byte	0x1
 3254 0315 5B01     		.2byte	0x15b
ARM GAS  C:\Users\cps\AppData\Local\Temp\ccCypFl7.s 			page 77


 3255 0317 81000000 		.4byte	0x81
 3256 031b 00000000 		.4byte	.LFB69
 3257 031f 44000000 		.4byte	.LFE69-.LFB69
 3258 0323 01       		.uleb128 0x1
 3259 0324 9C       		.byte	0x9c
 3260 0325 3A030000 		.4byte	0x33a
 3261 0329 15       		.uleb128 0x15
 3262 032a 636D6400 		.ascii	"cmd\000"
 3263 032e 01       		.byte	0x1
 3264 032f 6101     		.2byte	0x161
 3265 0331 3A030000 		.4byte	0x33a
 3266 0335 03       		.uleb128 0x3
 3267 0336 91       		.byte	0x91
 3268 0337 947F     		.sleb128 -108
 3269 0339 00       		.byte	0
 3270 033a 16       		.uleb128 0x16
 3271 033b B0000000 		.4byte	0xb0
 3272 033f 4A030000 		.4byte	0x34a
 3273 0343 17       		.uleb128 0x17
 3274 0344 B7000000 		.4byte	0xb7
 3275 0348 63       		.byte	0x63
 3276 0349 00       		.byte	0
 3277 034a 18       		.uleb128 0x18
 3278 034b 88030000 		.4byte	.LASF51
 3279 034f 01       		.byte	0x1
 3280 0350 6D01     		.2byte	0x16d
 3281 0352 81000000 		.4byte	0x81
 3282 0356 00000000 		.4byte	.LFB70
 3283 035a 48000000 		.4byte	.LFE70-.LFB70
 3284 035e 01       		.uleb128 0x1
 3285 035f 9C       		.byte	0x9c
 3286 0360 85030000 		.4byte	0x385
 3287 0364 19       		.uleb128 0x19
 3288 0365 3E040000 		.4byte	.LASF52
 3289 0369 01       		.byte	0x1
 3290 036a 6D01     		.2byte	0x16d
 3291 036c 81000000 		.4byte	0x81
 3292 0370 03       		.uleb128 0x3
 3293 0371 91       		.byte	0x91
 3294 0372 8F7F     		.sleb128 -113
 3295 0374 15       		.uleb128 0x15
 3296 0375 636D6400 		.ascii	"cmd\000"
 3297 0379 01       		.byte	0x1
 3298 037a 7301     		.2byte	0x173
 3299 037c 3A030000 		.4byte	0x33a
 3300 0380 03       		.uleb128 0x3
 3301 0381 91       		.byte	0x91
 3302 0382 947F     		.sleb128 -108
 3303 0384 00       		.byte	0
 3304 0385 14       		.uleb128 0x14
 3305 0386 BA050000 		.4byte	.LASF53
 3306 038a 01       		.byte	0x1
 3307 038b 7F01     		.2byte	0x17f
 3308 038d CF000000 		.4byte	0xcf
 3309 0391 00000000 		.4byte	.LFB71
 3310 0395 AC000000 		.4byte	.LFE71-.LFB71
 3311 0399 01       		.uleb128 0x1
ARM GAS  C:\Users\cps\AppData\Local\Temp\ccCypFl7.s 			page 78


 3312 039a 9C       		.byte	0x9c
 3313 039b C8030000 		.4byte	0x3c8
 3314 039f 15       		.uleb128 0x15
 3315 03a0 63616C00 		.ascii	"cal\000"
 3316 03a4 01       		.byte	0x1
 3317 03a5 8101     		.2byte	0x181
 3318 03a7 CF000000 		.4byte	0xcf
 3319 03ab 02       		.uleb128 0x2
 3320 03ac 91       		.byte	0x91
 3321 03ad 48       		.sleb128 -56
 3322 03ae 11       		.uleb128 0x11
 3323 03af 5A000000 		.4byte	.LBB3
 3324 03b3 22000000 		.4byte	.LBE3-.LBB3
 3325 03b7 1A       		.uleb128 0x1a
 3326 03b8 14010000 		.4byte	.LASF54
 3327 03bc 01       		.byte	0x1
 3328 03bd 8501     		.2byte	0x185
 3329 03bf BE000000 		.4byte	0xbe
 3330 03c3 02       		.uleb128 0x2
 3331 03c4 91       		.byte	0x91
 3332 03c5 6C       		.sleb128 -20
 3333 03c6 00       		.byte	0
 3334 03c7 00       		.byte	0
 3335 03c8 14       		.uleb128 0x14
 3336 03c9 11040000 		.4byte	.LASF55
 3337 03cd 01       		.byte	0x1
 3338 03ce 8E01     		.2byte	0x18e
 3339 03d0 81000000 		.4byte	0x81
 3340 03d4 00000000 		.4byte	.LFB72
 3341 03d8 52000000 		.4byte	.LFE72-.LFB72
 3342 03dc 01       		.uleb128 0x1
 3343 03dd 9C       		.byte	0x9c
 3344 03de F2030000 		.4byte	0x3f2
 3345 03e2 15       		.uleb128 0x15
 3346 03e3 63616C00 		.ascii	"cal\000"
 3347 03e7 01       		.byte	0x1
 3348 03e8 8F01     		.2byte	0x18f
 3349 03ea CF000000 		.4byte	0xcf
 3350 03ee 02       		.uleb128 0x2
 3351 03ef 91       		.byte	0x91
 3352 03f0 54       		.sleb128 -44
 3353 03f1 00       		.byte	0
 3354 03f2 1B       		.uleb128 0x1b
 3355 03f3 2C000000 		.4byte	.LASF108
 3356 03f7 01       		.byte	0x1
 3357 03f8 9401     		.2byte	0x194
 3358 03fa 00000000 		.4byte	.LFB73
 3359 03fe 18010000 		.4byte	.LFE73-.LFB73
 3360 0402 01       		.uleb128 0x1
 3361 0403 9C       		.byte	0x9c
 3362 0404 65040000 		.4byte	0x465
 3363 0408 15       		.uleb128 0x15
 3364 0409 63616C00 		.ascii	"cal\000"
 3365 040d 01       		.byte	0x1
 3366 040e 9801     		.2byte	0x198
 3367 0410 CF000000 		.4byte	0xcf
 3368 0414 02       		.uleb128 0x2
ARM GAS  C:\Users\cps\AppData\Local\Temp\ccCypFl7.s 			page 79


 3369 0415 91       		.byte	0x91
 3370 0416 40       		.sleb128 -64
 3371 0417 1A       		.uleb128 0x1a
 3372 0418 24000000 		.4byte	.LASF56
 3373 041c 01       		.byte	0x1
 3374 041d 9A01     		.2byte	0x19a
 3375 041f C4000000 		.4byte	0xc4
 3376 0423 02       		.uleb128 0x2
 3377 0424 91       		.byte	0x91
 3378 0425 6C       		.sleb128 -20
 3379 0426 1A       		.uleb128 0x1a
 3380 0427 F4030000 		.4byte	.LASF57
 3381 042b 01       		.byte	0x1
 3382 042c 9D01     		.2byte	0x19d
 3383 042e C4000000 		.4byte	0xc4
 3384 0432 02       		.uleb128 0x2
 3385 0433 91       		.byte	0x91
 3386 0434 68       		.sleb128 -24
 3387 0435 1A       		.uleb128 0x1a
 3388 0436 23050000 		.4byte	.LASF58
 3389 043a 01       		.byte	0x1
 3390 043b 9E01     		.2byte	0x19e
 3391 043d C4000000 		.4byte	0xc4
 3392 0441 03       		.uleb128 0x3
 3393 0442 91       		.byte	0x91
 3394 0443 BC7F     		.sleb128 -68
 3395 0445 1A       		.uleb128 0x1a
 3396 0446 29010000 		.4byte	.LASF59
 3397 044a 01       		.byte	0x1
 3398 044b 9F01     		.2byte	0x19f
 3399 044d 65040000 		.4byte	0x465
 3400 0451 02       		.uleb128 0x2
 3401 0452 91       		.byte	0x91
 3402 0453 64       		.sleb128 -28
 3403 0454 1A       		.uleb128 0x1a
 3404 0455 C1010000 		.4byte	.LASF60
 3405 0459 01       		.byte	0x1
 3406 045a A301     		.2byte	0x1a3
 3407 045c 6B040000 		.4byte	0x46b
 3408 0460 03       		.uleb128 0x3
 3409 0461 91       		.byte	0x91
 3410 0462 EC7E     		.sleb128 -148
 3411 0464 00       		.byte	0
 3412 0465 05       		.uleb128 0x5
 3413 0466 04       		.byte	0x4
 3414 0467 CF000000 		.4byte	0xcf
 3415 046b 16       		.uleb128 0x16
 3416 046c B0000000 		.4byte	0xb0
 3417 0470 7B040000 		.4byte	0x47b
 3418 0474 17       		.uleb128 0x17
 3419 0475 B7000000 		.4byte	0xb7
 3420 0479 4F       		.byte	0x4f
 3421 047a 00       		.byte	0
 3422 047b 1C       		.uleb128 0x1c
 3423 047c D2040000 		.4byte	.LASF61
 3424 0480 01       		.byte	0x1
 3425 0481 AF01     		.2byte	0x1af
ARM GAS  C:\Users\cps\AppData\Local\Temp\ccCypFl7.s 			page 80


 3426 0483 00000000 		.4byte	.LFB74
 3427 0487 20000000 		.4byte	.LFE74-.LFB74
 3428 048b 01       		.uleb128 0x1
 3429 048c 9C       		.byte	0x9c
 3430 048d A1040000 		.4byte	0x4a1
 3431 0491 19       		.uleb128 0x19
 3432 0492 33050000 		.4byte	.LASF40
 3433 0496 01       		.byte	0x1
 3434 0497 AF01     		.2byte	0x1af
 3435 0499 81000000 		.4byte	0x81
 3436 049d 02       		.uleb128 0x2
 3437 049e 91       		.byte	0x91
 3438 049f 77       		.sleb128 -9
 3439 04a0 00       		.byte	0
 3440 04a1 13       		.uleb128 0x13
 3441 04a2 27030000 		.4byte	.LASF62
 3442 04a6 01       		.byte	0x1
 3443 04a7 B501     		.2byte	0x1b5
 3444 04a9 81000000 		.4byte	0x81
 3445 04ad 00000000 		.4byte	.LFB75
 3446 04b1 28000000 		.4byte	.LFE75-.LFB75
 3447 04b5 01       		.uleb128 0x1
 3448 04b6 9C       		.byte	0x9c
 3449 04b7 13       		.uleb128 0x13
 3450 04b8 1A060000 		.4byte	.LASF63
 3451 04bc 01       		.byte	0x1
 3452 04bd C201     		.2byte	0x1c2
 3453 04bf 81000000 		.4byte	0x81
 3454 04c3 00000000 		.4byte	.LFB76
 3455 04c7 28000000 		.4byte	.LFE76-.LFB76
 3456 04cb 01       		.uleb128 0x1
 3457 04cc 9C       		.byte	0x9c
 3458 04cd 13       		.uleb128 0x13
 3459 04ce 85040000 		.4byte	.LASF64
 3460 04d2 01       		.byte	0x1
 3461 04d3 CE01     		.2byte	0x1ce
 3462 04d5 81000000 		.4byte	0x81
 3463 04d9 00000000 		.4byte	.LFB77
 3464 04dd 28000000 		.4byte	.LFE77-.LFB77
 3465 04e1 01       		.uleb128 0x1
 3466 04e2 9C       		.byte	0x9c
 3467 04e3 14       		.uleb128 0x14
 3468 04e4 F7010000 		.4byte	.LASF65
 3469 04e8 01       		.byte	0x1
 3470 04e9 DB01     		.2byte	0x1db
 3471 04eb 81000000 		.4byte	0x81
 3472 04ef 00000000 		.4byte	.LFB78
 3473 04f3 34000000 		.4byte	.LFE78-.LFB78
 3474 04f7 01       		.uleb128 0x1
 3475 04f8 9C       		.byte	0x9c
 3476 04f9 0B050000 		.4byte	0x50b
 3477 04fd 15       		.uleb128 0x15
 3478 04fe 7800     		.ascii	"x\000"
 3479 0500 01       		.byte	0x1
 3480 0501 E201     		.2byte	0x1e2
 3481 0503 81000000 		.4byte	0x81
 3482 0507 02       		.uleb128 0x2
ARM GAS  C:\Users\cps\AppData\Local\Temp\ccCypFl7.s 			page 81


 3483 0508 91       		.byte	0x91
 3484 0509 77       		.sleb128 -9
 3485 050a 00       		.byte	0
 3486 050b 13       		.uleb128 0x13
 3487 050c D5050000 		.4byte	.LASF66
 3488 0510 01       		.byte	0x1
 3489 0511 E701     		.2byte	0x1e7
 3490 0513 81000000 		.4byte	0x81
 3491 0517 00000000 		.4byte	.LFB79
 3492 051b 28000000 		.4byte	.LFE79-.LFB79
 3493 051f 01       		.uleb128 0x1
 3494 0520 9C       		.byte	0x9c
 3495 0521 18       		.uleb128 0x18
 3496 0522 E2020000 		.4byte	.LASF67
 3497 0526 01       		.byte	0x1
 3498 0527 F201     		.2byte	0x1f2
 3499 0529 81000000 		.4byte	0x81
 3500 052d 00000000 		.4byte	.LFB80
 3501 0531 48000000 		.4byte	.LFE80-.LFB80
 3502 0535 01       		.uleb128 0x1
 3503 0536 9C       		.byte	0x9c
 3504 0537 5C050000 		.4byte	0x55c
 3505 053b 19       		.uleb128 0x19
 3506 053c 38040000 		.4byte	.LASF68
 3507 0540 01       		.byte	0x1
 3508 0541 F201     		.2byte	0x1f2
 3509 0543 81000000 		.4byte	0x81
 3510 0547 03       		.uleb128 0x3
 3511 0548 91       		.byte	0x91
 3512 0549 8F7F     		.sleb128 -113
 3513 054b 15       		.uleb128 0x15
 3514 054c 636D6400 		.ascii	"cmd\000"
 3515 0550 01       		.byte	0x1
 3516 0551 F301     		.2byte	0x1f3
 3517 0553 3A030000 		.4byte	0x33a
 3518 0557 03       		.uleb128 0x3
 3519 0558 91       		.byte	0x91
 3520 0559 947F     		.sleb128 -108
 3521 055b 00       		.byte	0
 3522 055c 18       		.uleb128 0x18
 3523 055d E7050000 		.4byte	.LASF69
 3524 0561 01       		.byte	0x1
 3525 0562 FF01     		.2byte	0x1ff
 3526 0564 81000000 		.4byte	0x81
 3527 0568 00000000 		.4byte	.LFB81
 3528 056c 48000000 		.4byte	.LFE81-.LFB81
 3529 0570 01       		.uleb128 0x1
 3530 0571 9C       		.byte	0x9c
 3531 0572 97050000 		.4byte	0x597
 3532 0576 19       		.uleb128 0x19
 3533 0577 38040000 		.4byte	.LASF68
 3534 057b 01       		.byte	0x1
 3535 057c FF01     		.2byte	0x1ff
 3536 057e 81000000 		.4byte	0x81
 3537 0582 03       		.uleb128 0x3
 3538 0583 91       		.byte	0x91
 3539 0584 8F7F     		.sleb128 -113
ARM GAS  C:\Users\cps\AppData\Local\Temp\ccCypFl7.s 			page 82


 3540 0586 15       		.uleb128 0x15
 3541 0587 636D6400 		.ascii	"cmd\000"
 3542 058b 01       		.byte	0x1
 3543 058c 0D02     		.2byte	0x20d
 3544 058e 3A030000 		.4byte	0x33a
 3545 0592 03       		.uleb128 0x3
 3546 0593 91       		.byte	0x91
 3547 0594 947F     		.sleb128 -108
 3548 0596 00       		.byte	0
 3549 0597 13       		.uleb128 0x13
 3550 0598 4C010000 		.4byte	.LASF70
 3551 059c 01       		.byte	0x1
 3552 059d 1902     		.2byte	0x219
 3553 059f 81000000 		.4byte	0x81
 3554 05a3 00000000 		.4byte	.LFB82
 3555 05a7 28000000 		.4byte	.LFE82-.LFB82
 3556 05ab 01       		.uleb128 0x1
 3557 05ac 9C       		.byte	0x9c
 3558 05ad 18       		.uleb128 0x18
 3559 05ae 71000000 		.4byte	.LASF71
 3560 05b2 01       		.byte	0x1
 3561 05b3 2402     		.2byte	0x224
 3562 05b5 81000000 		.4byte	0x81
 3563 05b9 00000000 		.4byte	.LFB83
 3564 05bd 48000000 		.4byte	.LFE83-.LFB83
 3565 05c1 01       		.uleb128 0x1
 3566 05c2 9C       		.byte	0x9c
 3567 05c3 E8050000 		.4byte	0x5e8
 3568 05c7 19       		.uleb128 0x19
 3569 05c8 38040000 		.4byte	.LASF68
 3570 05cc 01       		.byte	0x1
 3571 05cd 2402     		.2byte	0x224
 3572 05cf 81000000 		.4byte	0x81
 3573 05d3 03       		.uleb128 0x3
 3574 05d4 91       		.byte	0x91
 3575 05d5 8F7F     		.sleb128 -113
 3576 05d7 15       		.uleb128 0x15
 3577 05d8 636D6400 		.ascii	"cmd\000"
 3578 05dc 01       		.byte	0x1
 3579 05dd 2B02     		.2byte	0x22b
 3580 05df 3A030000 		.4byte	0x33a
 3581 05e3 03       		.uleb128 0x3
 3582 05e4 91       		.byte	0x91
 3583 05e5 947F     		.sleb128 -108
 3584 05e7 00       		.byte	0
 3585 05e8 13       		.uleb128 0x13
 3586 05e9 9D010000 		.4byte	.LASF72
 3587 05ed 01       		.byte	0x1
 3588 05ee 3702     		.2byte	0x237
 3589 05f0 81000000 		.4byte	0x81
 3590 05f4 00000000 		.4byte	.LFB84
 3591 05f8 28000000 		.4byte	.LFE84-.LFB84
 3592 05fc 01       		.uleb128 0x1
 3593 05fd 9C       		.byte	0x9c
 3594 05fe 18       		.uleb128 0x18
 3595 05ff 41060000 		.4byte	.LASF73
 3596 0603 01       		.byte	0x1
ARM GAS  C:\Users\cps\AppData\Local\Temp\ccCypFl7.s 			page 83


 3597 0604 4302     		.2byte	0x243
 3598 0606 81000000 		.4byte	0x81
 3599 060a 00000000 		.4byte	.LFB85
 3600 060e 44000000 		.4byte	.LFE85-.LFB85
 3601 0612 01       		.uleb128 0x1
 3602 0613 9C       		.byte	0x9c
 3603 0614 39060000 		.4byte	0x639
 3604 0618 19       		.uleb128 0x19
 3605 0619 43040000 		.4byte	.LASF74
 3606 061d 01       		.byte	0x1
 3607 061e 4302     		.2byte	0x243
 3608 0620 BE000000 		.4byte	0xbe
 3609 0624 03       		.uleb128 0x3
 3610 0625 91       		.byte	0x91
 3611 0626 8C7F     		.sleb128 -116
 3612 0628 15       		.uleb128 0x15
 3613 0629 636D6400 		.ascii	"cmd\000"
 3614 062d 01       		.byte	0x1
 3615 062e 4502     		.2byte	0x245
 3616 0630 3A030000 		.4byte	0x33a
 3617 0634 03       		.uleb128 0x3
 3618 0635 91       		.byte	0x91
 3619 0636 947F     		.sleb128 -108
 3620 0638 00       		.byte	0
 3621 0639 18       		.uleb128 0x18
 3622 063a CB000000 		.4byte	.LASF75
 3623 063e 01       		.byte	0x1
 3624 063f 5202     		.2byte	0x252
 3625 0641 81000000 		.4byte	0x81
 3626 0645 00000000 		.4byte	.LFB86
 3627 0649 44000000 		.4byte	.LFE86-.LFB86
 3628 064d 01       		.uleb128 0x1
 3629 064e 9C       		.byte	0x9c
 3630 064f 74060000 		.4byte	0x674
 3631 0653 19       		.uleb128 0x19
 3632 0654 97030000 		.4byte	.LASF76
 3633 0658 01       		.byte	0x1
 3634 0659 5202     		.2byte	0x252
 3635 065b BE000000 		.4byte	0xbe
 3636 065f 03       		.uleb128 0x3
 3637 0660 91       		.byte	0x91
 3638 0661 8C7F     		.sleb128 -116
 3639 0663 15       		.uleb128 0x15
 3640 0664 636D6400 		.ascii	"cmd\000"
 3641 0668 01       		.byte	0x1
 3642 0669 5402     		.2byte	0x254
 3643 066b 3A030000 		.4byte	0x33a
 3644 066f 03       		.uleb128 0x3
 3645 0670 91       		.byte	0x91
 3646 0671 947F     		.sleb128 -108
 3647 0673 00       		.byte	0
 3648 0674 13       		.uleb128 0x13
 3649 0675 1E020000 		.4byte	.LASF77
 3650 0679 01       		.byte	0x1
 3651 067a 6002     		.2byte	0x260
 3652 067c 81000000 		.4byte	0x81
 3653 0680 00000000 		.4byte	.LFB87
ARM GAS  C:\Users\cps\AppData\Local\Temp\ccCypFl7.s 			page 84


 3654 0684 90000000 		.4byte	.LFE87-.LFB87
 3655 0688 01       		.uleb128 0x1
 3656 0689 9C       		.byte	0x9c
 3657 068a 18       		.uleb128 0x18
 3658 068b 66050000 		.4byte	.LASF78
 3659 068f 01       		.byte	0x1
 3660 0690 9802     		.2byte	0x298
 3661 0692 81000000 		.4byte	0x81
 3662 0696 00000000 		.4byte	.LFB88
 3663 069a F8000000 		.4byte	.LFE88-.LFB88
 3664 069e 01       		.uleb128 0x1
 3665 069f 9C       		.byte	0x9c
 3666 06a0 CF060000 		.4byte	0x6cf
 3667 06a4 19       		.uleb128 0x19
 3668 06a5 CC020000 		.4byte	.LASF79
 3669 06a9 01       		.byte	0x1
 3670 06aa 9802     		.2byte	0x298
 3671 06ac BE000000 		.4byte	0xbe
 3672 06b0 03       		.uleb128 0x3
 3673 06b1 91       		.byte	0x91
 3674 06b2 8478     		.sleb128 -1020
 3675 06b4 11       		.uleb128 0x11
 3676 06b5 3C000000 		.4byte	.LBB4
 3677 06b9 76000000 		.4byte	.LBE4-.LBB4
 3678 06bd 1A       		.uleb128 0x1a
 3679 06be CD050000 		.4byte	.LASF80
 3680 06c2 01       		.byte	0x1
 3681 06c3 AA02     		.2byte	0x2aa
 3682 06c5 CF060000 		.4byte	0x6cf
 3683 06c9 03       		.uleb128 0x3
 3684 06ca 91       		.byte	0x91
 3685 06cb 8878     		.sleb128 -1016
 3686 06cd 00       		.byte	0
 3687 06ce 00       		.byte	0
 3688 06cf 16       		.uleb128 0x16
 3689 06d0 B0000000 		.4byte	0xb0
 3690 06d4 E0060000 		.4byte	0x6e0
 3691 06d8 1D       		.uleb128 0x1d
 3692 06d9 B7000000 		.4byte	0xb7
 3693 06dd E703     		.2byte	0x3e7
 3694 06df 00       		.byte	0
 3695 06e0 18       		.uleb128 0x18
 3696 06e1 13000000 		.4byte	.LASF81
 3697 06e5 01       		.byte	0x1
 3698 06e6 D802     		.2byte	0x2d8
 3699 06e8 81000000 		.4byte	0x81
 3700 06ec 00000000 		.4byte	.LFB89
 3701 06f0 2C010000 		.4byte	.LFE89-.LFB89
 3702 06f4 01       		.uleb128 0x1
 3703 06f5 9C       		.byte	0x9c
 3704 06f6 45070000 		.4byte	0x745
 3705 06fa 19       		.uleb128 0x19
 3706 06fb B2010000 		.4byte	.LASF82
 3707 06ff 01       		.byte	0x1
 3708 0700 D802     		.2byte	0x2d8
 3709 0702 BE000000 		.4byte	0xbe
 3710 0706 03       		.uleb128 0x3
ARM GAS  C:\Users\cps\AppData\Local\Temp\ccCypFl7.s 			page 85


 3711 0707 91       		.byte	0x91
 3712 0708 9C77     		.sleb128 -1124
 3713 070a 1E       		.uleb128 0x1e
 3714 070b 63737600 		.ascii	"csv\000"
 3715 070f 01       		.byte	0x1
 3716 0710 D802     		.2byte	0x2d8
 3717 0712 BE000000 		.4byte	0xbe
 3718 0716 03       		.uleb128 0x3
 3719 0717 91       		.byte	0x91
 3720 0718 9877     		.sleb128 -1128
 3721 071a 11       		.uleb128 0x11
 3722 071b 4E000000 		.4byte	.LBB5
 3723 071f 8C000000 		.4byte	.LBE5-.LBB5
 3724 0723 1A       		.uleb128 0x1a
 3725 0724 DE000000 		.4byte	.LASF83
 3726 0728 01       		.byte	0x1
 3727 0729 EC02     		.2byte	0x2ec
 3728 072b CF060000 		.4byte	0x6cf
 3729 072f 03       		.uleb128 0x3
 3730 0730 91       		.byte	0x91
 3731 0731 8878     		.sleb128 -1016
 3732 0733 1A       		.uleb128 0x1a
 3733 0734 B9010000 		.4byte	.LASF84
 3734 0738 01       		.byte	0x1
 3735 0739 EC02     		.2byte	0x2ec
 3736 073b 3A030000 		.4byte	0x33a
 3737 073f 03       		.uleb128 0x3
 3738 0740 91       		.byte	0x91
 3739 0741 A477     		.sleb128 -1116
 3740 0743 00       		.byte	0
 3741 0744 00       		.byte	0
 3742 0745 14       		.uleb128 0x14
 3743 0746 93050000 		.4byte	.LASF85
 3744 074a 01       		.byte	0x1
 3745 074b 3503     		.2byte	0x335
 3746 074d 81000000 		.4byte	0x81
 3747 0751 00000000 		.4byte	.LFB90
 3748 0755 E4000000 		.4byte	.LFE90-.LFB90
 3749 0759 01       		.uleb128 0x1
 3750 075a 9C       		.byte	0x9c
 3751 075b AA070000 		.4byte	0x7aa
 3752 075f 1A       		.uleb128 0x1a
 3753 0760 A6040000 		.4byte	.LASF86
 3754 0764 01       		.byte	0x1
 3755 0765 3D03     		.2byte	0x33d
 3756 0767 81000000 		.4byte	0x81
 3757 076b 02       		.uleb128 0x2
 3758 076c 91       		.byte	0x91
 3759 076d 63       		.sleb128 -29
 3760 076e 15       		.uleb128 0x15
 3761 076f 6900     		.ascii	"i\000"
 3762 0771 01       		.byte	0x1
 3763 0772 3E03     		.2byte	0x33e
 3764 0774 97000000 		.4byte	0x97
 3765 0778 02       		.uleb128 0x2
 3766 0779 91       		.byte	0x91
 3767 077a 6C       		.sleb128 -20
ARM GAS  C:\Users\cps\AppData\Local\Temp\ccCypFl7.s 			page 86


 3768 077b 1A       		.uleb128 0x1a
 3769 077c 0E010000 		.4byte	.LASF39
 3770 0780 01       		.byte	0x1
 3771 0781 3E03     		.2byte	0x33e
 3772 0783 97000000 		.4byte	0x97
 3773 0787 02       		.uleb128 0x2
 3774 0788 91       		.byte	0x91
 3775 0789 68       		.sleb128 -24
 3776 078a 1A       		.uleb128 0x1a
 3777 078b B3040000 		.4byte	.LASF87
 3778 078f 01       		.byte	0x1
 3779 0790 3E03     		.2byte	0x33e
 3780 0792 97000000 		.4byte	0x97
 3781 0796 02       		.uleb128 0x2
 3782 0797 91       		.byte	0x91
 3783 0798 64       		.sleb128 -28
 3784 0799 1A       		.uleb128 0x1a
 3785 079a 0E060000 		.4byte	.LASF88
 3786 079e 01       		.byte	0x1
 3787 079f 3F03     		.2byte	0x33f
 3788 07a1 AA070000 		.4byte	0x7aa
 3789 07a5 03       		.uleb128 0x3
 3790 07a6 91       		.byte	0x91
 3791 07a7 B47D     		.sleb128 -332
 3792 07a9 00       		.byte	0
 3793 07aa 16       		.uleb128 0x16
 3794 07ab B0000000 		.4byte	0xb0
 3795 07af BB070000 		.4byte	0x7bb
 3796 07b3 1D       		.uleb128 0x1d
 3797 07b4 B7000000 		.4byte	0xb7
 3798 07b8 2B01     		.2byte	0x12b
 3799 07ba 00       		.byte	0
 3800 07bb 14       		.uleb128 0x14
 3801 07bc 2E060000 		.4byte	.LASF89
 3802 07c0 01       		.byte	0x1
 3803 07c1 5B03     		.2byte	0x35b
 3804 07c3 81000000 		.4byte	0x81
 3805 07c7 00000000 		.4byte	.LFB91
 3806 07cb 9C000000 		.4byte	.LFE91-.LFB91
 3807 07cf 01       		.uleb128 0x1
 3808 07d0 9C       		.byte	0x9c
 3809 07d1 11080000 		.4byte	0x811
 3810 07d5 15       		.uleb128 0x15
 3811 07d6 6900     		.ascii	"i\000"
 3812 07d8 01       		.byte	0x1
 3813 07d9 6203     		.2byte	0x362
 3814 07db 97000000 		.4byte	0x97
 3815 07df 02       		.uleb128 0x2
 3816 07e0 91       		.byte	0x91
 3817 07e1 6C       		.sleb128 -20
 3818 07e2 1A       		.uleb128 0x1a
 3819 07e3 0E010000 		.4byte	.LASF39
 3820 07e7 01       		.byte	0x1
 3821 07e8 6203     		.2byte	0x362
 3822 07ea 97000000 		.4byte	0x97
 3823 07ee 02       		.uleb128 0x2
 3824 07ef 91       		.byte	0x91
ARM GAS  C:\Users\cps\AppData\Local\Temp\ccCypFl7.s 			page 87


 3825 07f0 68       		.sleb128 -24
 3826 07f1 1A       		.uleb128 0x1a
 3827 07f2 B3040000 		.4byte	.LASF87
 3828 07f6 01       		.byte	0x1
 3829 07f7 6203     		.2byte	0x362
 3830 07f9 97000000 		.4byte	0x97
 3831 07fd 02       		.uleb128 0x2
 3832 07fe 91       		.byte	0x91
 3833 07ff 64       		.sleb128 -28
 3834 0800 1A       		.uleb128 0x1a
 3835 0801 0E060000 		.4byte	.LASF88
 3836 0805 01       		.byte	0x1
 3837 0806 6303     		.2byte	0x363
 3838 0808 AA070000 		.4byte	0x7aa
 3839 080c 03       		.uleb128 0x3
 3840 080d 91       		.byte	0x91
 3841 080e B87D     		.sleb128 -328
 3842 0810 00       		.byte	0
 3843 0811 1F       		.uleb128 0x1f
 3844 0812 E6000000 		.4byte	.LASF90
 3845 0816 01       		.byte	0x1
 3846 0817 7B03     		.2byte	0x37b
 3847 0819 00000000 		.4byte	.LFB92
 3848 081d 24000000 		.4byte	.LFE92-.LFB92
 3849 0821 01       		.uleb128 0x1
 3850 0822 9C       		.byte	0x9c
 3851 0823 1F       		.uleb128 0x1f
 3852 0824 68010000 		.4byte	.LASF91
 3853 0828 01       		.byte	0x1
 3854 0829 8A03     		.2byte	0x38a
 3855 082b 00000000 		.4byte	.LFB93
 3856 082f 0A000000 		.4byte	.LFE93-.LFB93
 3857 0833 01       		.uleb128 0x1
 3858 0834 9C       		.byte	0x9c
 3859 0835 1F       		.uleb128 0x1f
 3860 0836 06000000 		.4byte	.LASF92
 3861 083a 01       		.byte	0x1
 3862 083b 8E03     		.2byte	0x38e
 3863 083d 00000000 		.4byte	.LFB94
 3864 0841 0A000000 		.4byte	.LFE94-.LFB94
 3865 0845 01       		.uleb128 0x1
 3866 0846 9C       		.byte	0x9c
 3867 0847 1C       		.uleb128 0x1c
 3868 0848 88000000 		.4byte	.LASF93
 3869 084c 01       		.byte	0x1
 3870 084d 9403     		.2byte	0x394
 3871 084f 00000000 		.4byte	.LFB95
 3872 0853 48000000 		.4byte	.LFE95-.LFB95
 3873 0857 01       		.uleb128 0x1
 3874 0858 9C       		.byte	0x9c
 3875 0859 77080000 		.4byte	0x877
 3876 085d 11       		.uleb128 0x11
 3877 085e 08000000 		.4byte	.LBB6
 3878 0862 26000000 		.4byte	.LBE6-.LBB6
 3879 0866 1A       		.uleb128 0x1a
 3880 0867 64000000 		.4byte	.LASF94
 3881 086b 01       		.byte	0x1
ARM GAS  C:\Users\cps\AppData\Local\Temp\ccCypFl7.s 			page 88


 3882 086c 9703     		.2byte	0x397
 3883 086e B0000000 		.4byte	0xb0
 3884 0872 02       		.uleb128 0x2
 3885 0873 91       		.byte	0x91
 3886 0874 77       		.sleb128 -9
 3887 0875 00       		.byte	0
 3888 0876 00       		.byte	0
 3889 0877 20       		.uleb128 0x20
 3890 0878 6F040000 		.4byte	.LASF95
 3891 087c 07       		.byte	0x7
 3892 087d 1606     		.2byte	0x616
 3893 087f 83080000 		.4byte	0x883
 3894 0883 21       		.uleb128 0x21
 3895 0884 76000000 		.4byte	0x76
 3896 0888 22       		.uleb128 0x22
 3897 0889 BD030000 		.4byte	.LASF96
 3898 088d 01       		.byte	0x1
 3899 088e 16       		.byte	0x16
 3900 088f 81000000 		.4byte	0x81
 3901 0893 05       		.uleb128 0x5
 3902 0894 03       		.byte	0x3
 3903 0895 00000000 		.4byte	modem_state
 3904 0899 22       		.uleb128 0x22
 3905 089a 8F010000 		.4byte	.LASF97
 3906 089e 01       		.byte	0x1
 3907 089f 16       		.byte	0x16
 3908 08a0 81000000 		.4byte	0x81
 3909 08a4 05       		.uleb128 0x5
 3910 08a5 03       		.byte	0x3
 3911 08a6 00000000 		.4byte	lock_acquired
 3912 08aa 22       		.uleb128 0x22
 3913 08ab 06060000 		.4byte	.LASF98
 3914 08af 01       		.byte	0x1
 3915 08b0 18       		.byte	0x18
 3916 08b1 97000000 		.4byte	0x97
 3917 08b5 05       		.uleb128 0x5
 3918 08b6 03       		.byte	0x3
 3919 08b7 00000000 		.4byte	feed_id
 3920 08bb 22       		.uleb128 0x22
 3921 08bc B2050000 		.4byte	.LASF99
 3922 08c0 01       		.byte	0x1
 3923 08c1 19       		.byte	0x19
 3924 08c2 BE000000 		.4byte	0xbe
 3925 08c6 05       		.uleb128 0x5
 3926 08c7 03       		.byte	0x3
 3927 08c8 00000000 		.4byte	api_key
 3928 08cc 22       		.uleb128 0x22
 3929 08cd DC010000 		.4byte	.LASF100
 3930 08d1 08       		.byte	0x8
 3931 08d2 1B       		.byte	0x1b
 3932 08d3 81000000 		.4byte	0x81
 3933 08d7 05       		.uleb128 0x5
 3934 08d8 03       		.byte	0x3
 3935 08d9 00000000 		.4byte	minuteAlarmInterval
 3936 08dd 22       		.uleb128 0x22
 3937 08de 2F020000 		.4byte	.LASF101
 3938 08e2 01       		.byte	0x1
ARM GAS  C:\Users\cps\AppData\Local\Temp\ccCypFl7.s 			page 89


 3939 08e3 16       		.byte	0x16
 3940 08e4 81000000 		.4byte	0x81
 3941 08e8 05       		.uleb128 0x5
 3942 08e9 03       		.byte	0x3
 3943 08ea 00000000 		.4byte	ready
 3944 08ee 22       		.uleb128 0x22
 3945 08ef 3C050000 		.4byte	.LASF102
 3946 08f3 01       		.byte	0x1
 3947 08f4 17       		.byte	0x17
 3948 08f5 8C000000 		.4byte	0x8c
 3949 08f9 05       		.uleb128 0x5
 3950 08fa 03       		.byte	0x3
 3951 08fb 00000000 		.4byte	uart_string_index
 3952 08ff 22       		.uleb128 0x22
 3953 0900 74010000 		.4byte	.LASF103
 3954 0904 01       		.byte	0x1
 3955 0905 19       		.byte	0x19
 3956 0906 CF060000 		.4byte	0x6cf
 3957 090a 05       		.uleb128 0x5
 3958 090b 03       		.byte	0x3
 3959 090c 00000000 		.4byte	uart_received_string
 3960 0910 22       		.uleb128 0x22
 3961 0911 42010000 		.4byte	.LASF104
 3962 0915 01       		.byte	0x1
 3963 0916 1A       		.byte	0x1a
 3964 0917 BE000000 		.4byte	0xbe
 3965 091b 05       		.uleb128 0x5
 3966 091c 03       		.byte	0x3
 3967 091d 00000000 		.4byte	modem_apn
 3968 0921 00       		.byte	0
 3969              		.section	.debug_abbrev,"",%progbits
 3970              	.Ldebug_abbrev0:
 3971 0000 01       		.uleb128 0x1
 3972 0001 11       		.uleb128 0x11
 3973 0002 01       		.byte	0x1
 3974 0003 25       		.uleb128 0x25
 3975 0004 0E       		.uleb128 0xe
 3976 0005 13       		.uleb128 0x13
 3977 0006 0B       		.uleb128 0xb
 3978 0007 03       		.uleb128 0x3
 3979 0008 0E       		.uleb128 0xe
 3980 0009 1B       		.uleb128 0x1b
 3981 000a 0E       		.uleb128 0xe
 3982 000b 55       		.uleb128 0x55
 3983 000c 17       		.uleb128 0x17
 3984 000d 11       		.uleb128 0x11
 3985 000e 01       		.uleb128 0x1
 3986 000f 10       		.uleb128 0x10
 3987 0010 17       		.uleb128 0x17
 3988 0011 00       		.byte	0
 3989 0012 00       		.byte	0
 3990 0013 02       		.uleb128 0x2
 3991 0014 24       		.uleb128 0x24
 3992 0015 00       		.byte	0
 3993 0016 0B       		.uleb128 0xb
 3994 0017 0B       		.uleb128 0xb
 3995 0018 3E       		.uleb128 0x3e
ARM GAS  C:\Users\cps\AppData\Local\Temp\ccCypFl7.s 			page 90


 3996 0019 0B       		.uleb128 0xb
 3997 001a 03       		.uleb128 0x3
 3998 001b 0E       		.uleb128 0xe
 3999 001c 00       		.byte	0
 4000 001d 00       		.byte	0
 4001 001e 03       		.uleb128 0x3
 4002 001f 16       		.uleb128 0x16
 4003 0020 00       		.byte	0
 4004 0021 03       		.uleb128 0x3
 4005 0022 0E       		.uleb128 0xe
 4006 0023 3A       		.uleb128 0x3a
 4007 0024 0B       		.uleb128 0xb
 4008 0025 3B       		.uleb128 0x3b
 4009 0026 0B       		.uleb128 0xb
 4010 0027 49       		.uleb128 0x49
 4011 0028 13       		.uleb128 0x13
 4012 0029 00       		.byte	0
 4013 002a 00       		.byte	0
 4014 002b 04       		.uleb128 0x4
 4015 002c 24       		.uleb128 0x24
 4016 002d 00       		.byte	0
 4017 002e 0B       		.uleb128 0xb
 4018 002f 0B       		.uleb128 0xb
 4019 0030 3E       		.uleb128 0x3e
 4020 0031 0B       		.uleb128 0xb
 4021 0032 03       		.uleb128 0x3
 4022 0033 08       		.uleb128 0x8
 4023 0034 00       		.byte	0
 4024 0035 00       		.byte	0
 4025 0036 05       		.uleb128 0x5
 4026 0037 0F       		.uleb128 0xf
 4027 0038 00       		.byte	0
 4028 0039 0B       		.uleb128 0xb
 4029 003a 0B       		.uleb128 0xb
 4030 003b 49       		.uleb128 0x49
 4031 003c 13       		.uleb128 0x13
 4032 003d 00       		.byte	0
 4033 003e 00       		.byte	0
 4034 003f 06       		.uleb128 0x6
 4035 0040 13       		.uleb128 0x13
 4036 0041 01       		.byte	0x1
 4037 0042 03       		.uleb128 0x3
 4038 0043 08       		.uleb128 0x8
 4039 0044 0B       		.uleb128 0xb
 4040 0045 0B       		.uleb128 0xb
 4041 0046 3A       		.uleb128 0x3a
 4042 0047 0B       		.uleb128 0xb
 4043 0048 3B       		.uleb128 0x3b
 4044 0049 0B       		.uleb128 0xb
 4045 004a 01       		.uleb128 0x1
 4046 004b 13       		.uleb128 0x13
 4047 004c 00       		.byte	0
 4048 004d 00       		.byte	0
 4049 004e 07       		.uleb128 0x7
 4050 004f 0D       		.uleb128 0xd
 4051 0050 00       		.byte	0
 4052 0051 03       		.uleb128 0x3
ARM GAS  C:\Users\cps\AppData\Local\Temp\ccCypFl7.s 			page 91


 4053 0052 0E       		.uleb128 0xe
 4054 0053 3A       		.uleb128 0x3a
 4055 0054 0B       		.uleb128 0xb
 4056 0055 3B       		.uleb128 0x3b
 4057 0056 0B       		.uleb128 0xb
 4058 0057 49       		.uleb128 0x49
 4059 0058 13       		.uleb128 0x13
 4060 0059 38       		.uleb128 0x38
 4061 005a 0B       		.uleb128 0xb
 4062 005b 00       		.byte	0
 4063 005c 00       		.byte	0
 4064 005d 08       		.uleb128 0x8
 4065 005e 2E       		.uleb128 0x2e
 4066 005f 01       		.byte	0x1
 4067 0060 3F       		.uleb128 0x3f
 4068 0061 19       		.uleb128 0x19
 4069 0062 03       		.uleb128 0x3
 4070 0063 0E       		.uleb128 0xe
 4071 0064 3A       		.uleb128 0x3a
 4072 0065 0B       		.uleb128 0xb
 4073 0066 3B       		.uleb128 0x3b
 4074 0067 0B       		.uleb128 0xb
 4075 0068 27       		.uleb128 0x27
 4076 0069 19       		.uleb128 0x19
 4077 006a 49       		.uleb128 0x49
 4078 006b 13       		.uleb128 0x13
 4079 006c 11       		.uleb128 0x11
 4080 006d 01       		.uleb128 0x1
 4081 006e 12       		.uleb128 0x12
 4082 006f 06       		.uleb128 0x6
 4083 0070 40       		.uleb128 0x40
 4084 0071 18       		.uleb128 0x18
 4085 0072 9742     		.uleb128 0x2117
 4086 0074 19       		.uleb128 0x19
 4087 0075 01       		.uleb128 0x1
 4088 0076 13       		.uleb128 0x13
 4089 0077 00       		.byte	0
 4090 0078 00       		.byte	0
 4091 0079 09       		.uleb128 0x9
 4092 007a 05       		.uleb128 0x5
 4093 007b 00       		.byte	0
 4094 007c 03       		.uleb128 0x3
 4095 007d 08       		.uleb128 0x8
 4096 007e 3A       		.uleb128 0x3a
 4097 007f 0B       		.uleb128 0xb
 4098 0080 3B       		.uleb128 0x3b
 4099 0081 0B       		.uleb128 0xb
 4100 0082 49       		.uleb128 0x49
 4101 0083 13       		.uleb128 0x13
 4102 0084 02       		.uleb128 0x2
 4103 0085 18       		.uleb128 0x18
 4104 0086 00       		.byte	0
 4105 0087 00       		.byte	0
 4106 0088 0A       		.uleb128 0xa
 4107 0089 2E       		.uleb128 0x2e
 4108 008a 00       		.byte	0
 4109 008b 3F       		.uleb128 0x3f
ARM GAS  C:\Users\cps\AppData\Local\Temp\ccCypFl7.s 			page 92


 4110 008c 19       		.uleb128 0x19
 4111 008d 03       		.uleb128 0x3
 4112 008e 0E       		.uleb128 0xe
 4113 008f 3A       		.uleb128 0x3a
 4114 0090 0B       		.uleb128 0xb
 4115 0091 3B       		.uleb128 0x3b
 4116 0092 0B       		.uleb128 0xb
 4117 0093 49       		.uleb128 0x49
 4118 0094 13       		.uleb128 0x13
 4119 0095 11       		.uleb128 0x11
 4120 0096 01       		.uleb128 0x1
 4121 0097 12       		.uleb128 0x12
 4122 0098 06       		.uleb128 0x6
 4123 0099 40       		.uleb128 0x40
 4124 009a 18       		.uleb128 0x18
 4125 009b 9642     		.uleb128 0x2116
 4126 009d 19       		.uleb128 0x19
 4127 009e 00       		.byte	0
 4128 009f 00       		.byte	0
 4129 00a0 0B       		.uleb128 0xb
 4130 00a1 2E       		.uleb128 0x2e
 4131 00a2 00       		.byte	0
 4132 00a3 3F       		.uleb128 0x3f
 4133 00a4 19       		.uleb128 0x19
 4134 00a5 03       		.uleb128 0x3
 4135 00a6 0E       		.uleb128 0xe
 4136 00a7 3A       		.uleb128 0x3a
 4137 00a8 0B       		.uleb128 0xb
 4138 00a9 3B       		.uleb128 0x3b
 4139 00aa 0B       		.uleb128 0xb
 4140 00ab 49       		.uleb128 0x49
 4141 00ac 13       		.uleb128 0x13
 4142 00ad 11       		.uleb128 0x11
 4143 00ae 01       		.uleb128 0x1
 4144 00af 12       		.uleb128 0x12
 4145 00b0 06       		.uleb128 0x6
 4146 00b1 40       		.uleb128 0x40
 4147 00b2 18       		.uleb128 0x18
 4148 00b3 9742     		.uleb128 0x2117
 4149 00b5 19       		.uleb128 0x19
 4150 00b6 00       		.byte	0
 4151 00b7 00       		.byte	0
 4152 00b8 0C       		.uleb128 0xc
 4153 00b9 2E       		.uleb128 0x2e
 4154 00ba 00       		.byte	0
 4155 00bb 3F       		.uleb128 0x3f
 4156 00bc 19       		.uleb128 0x19
 4157 00bd 03       		.uleb128 0x3
 4158 00be 0E       		.uleb128 0xe
 4159 00bf 3A       		.uleb128 0x3a
 4160 00c0 0B       		.uleb128 0xb
 4161 00c1 3B       		.uleb128 0x3b
 4162 00c2 0B       		.uleb128 0xb
 4163 00c3 11       		.uleb128 0x11
 4164 00c4 01       		.uleb128 0x1
 4165 00c5 12       		.uleb128 0x12
 4166 00c6 06       		.uleb128 0x6
ARM GAS  C:\Users\cps\AppData\Local\Temp\ccCypFl7.s 			page 93


 4167 00c7 40       		.uleb128 0x40
 4168 00c8 18       		.uleb128 0x18
 4169 00c9 9642     		.uleb128 0x2116
 4170 00cb 19       		.uleb128 0x19
 4171 00cc 00       		.byte	0
 4172 00cd 00       		.byte	0
 4173 00ce 0D       		.uleb128 0xd
 4174 00cf 2E       		.uleb128 0x2e
 4175 00d0 01       		.byte	0x1
 4176 00d1 3F       		.uleb128 0x3f
 4177 00d2 19       		.uleb128 0x19
 4178 00d3 03       		.uleb128 0x3
 4179 00d4 0E       		.uleb128 0xe
 4180 00d5 3A       		.uleb128 0x3a
 4181 00d6 0B       		.uleb128 0xb
 4182 00d7 3B       		.uleb128 0x3b
 4183 00d8 0B       		.uleb128 0xb
 4184 00d9 27       		.uleb128 0x27
 4185 00da 19       		.uleb128 0x19
 4186 00db 49       		.uleb128 0x49
 4187 00dc 13       		.uleb128 0x13
 4188 00dd 11       		.uleb128 0x11
 4189 00de 01       		.uleb128 0x1
 4190 00df 12       		.uleb128 0x12
 4191 00e0 06       		.uleb128 0x6
 4192 00e1 40       		.uleb128 0x40
 4193 00e2 18       		.uleb128 0x18
 4194 00e3 9642     		.uleb128 0x2116
 4195 00e5 19       		.uleb128 0x19
 4196 00e6 01       		.uleb128 0x1
 4197 00e7 13       		.uleb128 0x13
 4198 00e8 00       		.byte	0
 4199 00e9 00       		.byte	0
 4200 00ea 0E       		.uleb128 0xe
 4201 00eb 05       		.uleb128 0x5
 4202 00ec 00       		.byte	0
 4203 00ed 03       		.uleb128 0x3
 4204 00ee 0E       		.uleb128 0xe
 4205 00ef 3A       		.uleb128 0x3a
 4206 00f0 0B       		.uleb128 0xb
 4207 00f1 3B       		.uleb128 0x3b
 4208 00f2 0B       		.uleb128 0xb
 4209 00f3 49       		.uleb128 0x49
 4210 00f4 13       		.uleb128 0x13
 4211 00f5 02       		.uleb128 0x2
 4212 00f6 18       		.uleb128 0x18
 4213 00f7 00       		.byte	0
 4214 00f8 00       		.byte	0
 4215 00f9 0F       		.uleb128 0xf
 4216 00fa 34       		.uleb128 0x34
 4217 00fb 00       		.byte	0
 4218 00fc 03       		.uleb128 0x3
 4219 00fd 0E       		.uleb128 0xe
 4220 00fe 3A       		.uleb128 0x3a
 4221 00ff 0B       		.uleb128 0xb
 4222 0100 3B       		.uleb128 0x3b
 4223 0101 0B       		.uleb128 0xb
ARM GAS  C:\Users\cps\AppData\Local\Temp\ccCypFl7.s 			page 94


 4224 0102 49       		.uleb128 0x49
 4225 0103 13       		.uleb128 0x13
 4226 0104 02       		.uleb128 0x2
 4227 0105 18       		.uleb128 0x18
 4228 0106 00       		.byte	0
 4229 0107 00       		.byte	0
 4230 0108 10       		.uleb128 0x10
 4231 0109 34       		.uleb128 0x34
 4232 010a 00       		.byte	0
 4233 010b 03       		.uleb128 0x3
 4234 010c 08       		.uleb128 0x8
 4235 010d 3A       		.uleb128 0x3a
 4236 010e 0B       		.uleb128 0xb
 4237 010f 3B       		.uleb128 0x3b
 4238 0110 0B       		.uleb128 0xb
 4239 0111 49       		.uleb128 0x49
 4240 0112 13       		.uleb128 0x13
 4241 0113 02       		.uleb128 0x2
 4242 0114 18       		.uleb128 0x18
 4243 0115 00       		.byte	0
 4244 0116 00       		.byte	0
 4245 0117 11       		.uleb128 0x11
 4246 0118 0B       		.uleb128 0xb
 4247 0119 01       		.byte	0x1
 4248 011a 11       		.uleb128 0x11
 4249 011b 01       		.uleb128 0x1
 4250 011c 12       		.uleb128 0x12
 4251 011d 06       		.uleb128 0x6
 4252 011e 00       		.byte	0
 4253 011f 00       		.byte	0
 4254 0120 12       		.uleb128 0x12
 4255 0121 2E       		.uleb128 0x2e
 4256 0122 01       		.byte	0x1
 4257 0123 3F       		.uleb128 0x3f
 4258 0124 19       		.uleb128 0x19
 4259 0125 03       		.uleb128 0x3
 4260 0126 0E       		.uleb128 0xe
 4261 0127 3A       		.uleb128 0x3a
 4262 0128 0B       		.uleb128 0xb
 4263 0129 3B       		.uleb128 0x3b
 4264 012a 0B       		.uleb128 0xb
 4265 012b 49       		.uleb128 0x49
 4266 012c 13       		.uleb128 0x13
 4267 012d 11       		.uleb128 0x11
 4268 012e 01       		.uleb128 0x1
 4269 012f 12       		.uleb128 0x12
 4270 0130 06       		.uleb128 0x6
 4271 0131 40       		.uleb128 0x40
 4272 0132 18       		.uleb128 0x18
 4273 0133 9642     		.uleb128 0x2116
 4274 0135 19       		.uleb128 0x19
 4275 0136 01       		.uleb128 0x1
 4276 0137 13       		.uleb128 0x13
 4277 0138 00       		.byte	0
 4278 0139 00       		.byte	0
 4279 013a 13       		.uleb128 0x13
 4280 013b 2E       		.uleb128 0x2e
ARM GAS  C:\Users\cps\AppData\Local\Temp\ccCypFl7.s 			page 95


 4281 013c 00       		.byte	0
 4282 013d 3F       		.uleb128 0x3f
 4283 013e 19       		.uleb128 0x19
 4284 013f 03       		.uleb128 0x3
 4285 0140 0E       		.uleb128 0xe
 4286 0141 3A       		.uleb128 0x3a
 4287 0142 0B       		.uleb128 0xb
 4288 0143 3B       		.uleb128 0x3b
 4289 0144 05       		.uleb128 0x5
 4290 0145 49       		.uleb128 0x49
 4291 0146 13       		.uleb128 0x13
 4292 0147 11       		.uleb128 0x11
 4293 0148 01       		.uleb128 0x1
 4294 0149 12       		.uleb128 0x12
 4295 014a 06       		.uleb128 0x6
 4296 014b 40       		.uleb128 0x40
 4297 014c 18       		.uleb128 0x18
 4298 014d 9642     		.uleb128 0x2116
 4299 014f 19       		.uleb128 0x19
 4300 0150 00       		.byte	0
 4301 0151 00       		.byte	0
 4302 0152 14       		.uleb128 0x14
 4303 0153 2E       		.uleb128 0x2e
 4304 0154 01       		.byte	0x1
 4305 0155 3F       		.uleb128 0x3f
 4306 0156 19       		.uleb128 0x19
 4307 0157 03       		.uleb128 0x3
 4308 0158 0E       		.uleb128 0xe
 4309 0159 3A       		.uleb128 0x3a
 4310 015a 0B       		.uleb128 0xb
 4311 015b 3B       		.uleb128 0x3b
 4312 015c 05       		.uleb128 0x5
 4313 015d 49       		.uleb128 0x49
 4314 015e 13       		.uleb128 0x13
 4315 015f 11       		.uleb128 0x11
 4316 0160 01       		.uleb128 0x1
 4317 0161 12       		.uleb128 0x12
 4318 0162 06       		.uleb128 0x6
 4319 0163 40       		.uleb128 0x40
 4320 0164 18       		.uleb128 0x18
 4321 0165 9642     		.uleb128 0x2116
 4322 0167 19       		.uleb128 0x19
 4323 0168 01       		.uleb128 0x1
 4324 0169 13       		.uleb128 0x13
 4325 016a 00       		.byte	0
 4326 016b 00       		.byte	0
 4327 016c 15       		.uleb128 0x15
 4328 016d 34       		.uleb128 0x34
 4329 016e 00       		.byte	0
 4330 016f 03       		.uleb128 0x3
 4331 0170 08       		.uleb128 0x8
 4332 0171 3A       		.uleb128 0x3a
 4333 0172 0B       		.uleb128 0xb
 4334 0173 3B       		.uleb128 0x3b
 4335 0174 05       		.uleb128 0x5
 4336 0175 49       		.uleb128 0x49
 4337 0176 13       		.uleb128 0x13
ARM GAS  C:\Users\cps\AppData\Local\Temp\ccCypFl7.s 			page 96


 4338 0177 02       		.uleb128 0x2
 4339 0178 18       		.uleb128 0x18
 4340 0179 00       		.byte	0
 4341 017a 00       		.byte	0
 4342 017b 16       		.uleb128 0x16
 4343 017c 01       		.uleb128 0x1
 4344 017d 01       		.byte	0x1
 4345 017e 49       		.uleb128 0x49
 4346 017f 13       		.uleb128 0x13
 4347 0180 01       		.uleb128 0x1
 4348 0181 13       		.uleb128 0x13
 4349 0182 00       		.byte	0
 4350 0183 00       		.byte	0
 4351 0184 17       		.uleb128 0x17
 4352 0185 21       		.uleb128 0x21
 4353 0186 00       		.byte	0
 4354 0187 49       		.uleb128 0x49
 4355 0188 13       		.uleb128 0x13
 4356 0189 2F       		.uleb128 0x2f
 4357 018a 0B       		.uleb128 0xb
 4358 018b 00       		.byte	0
 4359 018c 00       		.byte	0
 4360 018d 18       		.uleb128 0x18
 4361 018e 2E       		.uleb128 0x2e
 4362 018f 01       		.byte	0x1
 4363 0190 3F       		.uleb128 0x3f
 4364 0191 19       		.uleb128 0x19
 4365 0192 03       		.uleb128 0x3
 4366 0193 0E       		.uleb128 0xe
 4367 0194 3A       		.uleb128 0x3a
 4368 0195 0B       		.uleb128 0xb
 4369 0196 3B       		.uleb128 0x3b
 4370 0197 05       		.uleb128 0x5
 4371 0198 27       		.uleb128 0x27
 4372 0199 19       		.uleb128 0x19
 4373 019a 49       		.uleb128 0x49
 4374 019b 13       		.uleb128 0x13
 4375 019c 11       		.uleb128 0x11
 4376 019d 01       		.uleb128 0x1
 4377 019e 12       		.uleb128 0x12
 4378 019f 06       		.uleb128 0x6
 4379 01a0 40       		.uleb128 0x40
 4380 01a1 18       		.uleb128 0x18
 4381 01a2 9642     		.uleb128 0x2116
 4382 01a4 19       		.uleb128 0x19
 4383 01a5 01       		.uleb128 0x1
 4384 01a6 13       		.uleb128 0x13
 4385 01a7 00       		.byte	0
 4386 01a8 00       		.byte	0
 4387 01a9 19       		.uleb128 0x19
 4388 01aa 05       		.uleb128 0x5
 4389 01ab 00       		.byte	0
 4390 01ac 03       		.uleb128 0x3
 4391 01ad 0E       		.uleb128 0xe
 4392 01ae 3A       		.uleb128 0x3a
 4393 01af 0B       		.uleb128 0xb
 4394 01b0 3B       		.uleb128 0x3b
ARM GAS  C:\Users\cps\AppData\Local\Temp\ccCypFl7.s 			page 97


 4395 01b1 05       		.uleb128 0x5
 4396 01b2 49       		.uleb128 0x49
 4397 01b3 13       		.uleb128 0x13
 4398 01b4 02       		.uleb128 0x2
 4399 01b5 18       		.uleb128 0x18
 4400 01b6 00       		.byte	0
 4401 01b7 00       		.byte	0
 4402 01b8 1A       		.uleb128 0x1a
 4403 01b9 34       		.uleb128 0x34
 4404 01ba 00       		.byte	0
 4405 01bb 03       		.uleb128 0x3
 4406 01bc 0E       		.uleb128 0xe
 4407 01bd 3A       		.uleb128 0x3a
 4408 01be 0B       		.uleb128 0xb
 4409 01bf 3B       		.uleb128 0x3b
 4410 01c0 05       		.uleb128 0x5
 4411 01c1 49       		.uleb128 0x49
 4412 01c2 13       		.uleb128 0x13
 4413 01c3 02       		.uleb128 0x2
 4414 01c4 18       		.uleb128 0x18
 4415 01c5 00       		.byte	0
 4416 01c6 00       		.byte	0
 4417 01c7 1B       		.uleb128 0x1b
 4418 01c8 2E       		.uleb128 0x2e
 4419 01c9 01       		.byte	0x1
 4420 01ca 3F       		.uleb128 0x3f
 4421 01cb 19       		.uleb128 0x19
 4422 01cc 03       		.uleb128 0x3
 4423 01cd 0E       		.uleb128 0xe
 4424 01ce 3A       		.uleb128 0x3a
 4425 01cf 0B       		.uleb128 0xb
 4426 01d0 3B       		.uleb128 0x3b
 4427 01d1 05       		.uleb128 0x5
 4428 01d2 11       		.uleb128 0x11
 4429 01d3 01       		.uleb128 0x1
 4430 01d4 12       		.uleb128 0x12
 4431 01d5 06       		.uleb128 0x6
 4432 01d6 40       		.uleb128 0x40
 4433 01d7 18       		.uleb128 0x18
 4434 01d8 9642     		.uleb128 0x2116
 4435 01da 19       		.uleb128 0x19
 4436 01db 01       		.uleb128 0x1
 4437 01dc 13       		.uleb128 0x13
 4438 01dd 00       		.byte	0
 4439 01de 00       		.byte	0
 4440 01df 1C       		.uleb128 0x1c
 4441 01e0 2E       		.uleb128 0x2e
 4442 01e1 01       		.byte	0x1
 4443 01e2 3F       		.uleb128 0x3f
 4444 01e3 19       		.uleb128 0x19
 4445 01e4 03       		.uleb128 0x3
 4446 01e5 0E       		.uleb128 0xe
 4447 01e6 3A       		.uleb128 0x3a
 4448 01e7 0B       		.uleb128 0xb
 4449 01e8 3B       		.uleb128 0x3b
 4450 01e9 05       		.uleb128 0x5
 4451 01ea 27       		.uleb128 0x27
ARM GAS  C:\Users\cps\AppData\Local\Temp\ccCypFl7.s 			page 98


 4452 01eb 19       		.uleb128 0x19
 4453 01ec 11       		.uleb128 0x11
 4454 01ed 01       		.uleb128 0x1
 4455 01ee 12       		.uleb128 0x12
 4456 01ef 06       		.uleb128 0x6
 4457 01f0 40       		.uleb128 0x40
 4458 01f1 18       		.uleb128 0x18
 4459 01f2 9642     		.uleb128 0x2116
 4460 01f4 19       		.uleb128 0x19
 4461 01f5 01       		.uleb128 0x1
 4462 01f6 13       		.uleb128 0x13
 4463 01f7 00       		.byte	0
 4464 01f8 00       		.byte	0
 4465 01f9 1D       		.uleb128 0x1d
 4466 01fa 21       		.uleb128 0x21
 4467 01fb 00       		.byte	0
 4468 01fc 49       		.uleb128 0x49
 4469 01fd 13       		.uleb128 0x13
 4470 01fe 2F       		.uleb128 0x2f
 4471 01ff 05       		.uleb128 0x5
 4472 0200 00       		.byte	0
 4473 0201 00       		.byte	0
 4474 0202 1E       		.uleb128 0x1e
 4475 0203 05       		.uleb128 0x5
 4476 0204 00       		.byte	0
 4477 0205 03       		.uleb128 0x3
 4478 0206 08       		.uleb128 0x8
 4479 0207 3A       		.uleb128 0x3a
 4480 0208 0B       		.uleb128 0xb
 4481 0209 3B       		.uleb128 0x3b
 4482 020a 05       		.uleb128 0x5
 4483 020b 49       		.uleb128 0x49
 4484 020c 13       		.uleb128 0x13
 4485 020d 02       		.uleb128 0x2
 4486 020e 18       		.uleb128 0x18
 4487 020f 00       		.byte	0
 4488 0210 00       		.byte	0
 4489 0211 1F       		.uleb128 0x1f
 4490 0212 2E       		.uleb128 0x2e
 4491 0213 00       		.byte	0
 4492 0214 3F       		.uleb128 0x3f
 4493 0215 19       		.uleb128 0x19
 4494 0216 03       		.uleb128 0x3
 4495 0217 0E       		.uleb128 0xe
 4496 0218 3A       		.uleb128 0x3a
 4497 0219 0B       		.uleb128 0xb
 4498 021a 3B       		.uleb128 0x3b
 4499 021b 05       		.uleb128 0x5
 4500 021c 11       		.uleb128 0x11
 4501 021d 01       		.uleb128 0x1
 4502 021e 12       		.uleb128 0x12
 4503 021f 06       		.uleb128 0x6
 4504 0220 40       		.uleb128 0x40
 4505 0221 18       		.uleb128 0x18
 4506 0222 9642     		.uleb128 0x2116
 4507 0224 19       		.uleb128 0x19
 4508 0225 00       		.byte	0
ARM GAS  C:\Users\cps\AppData\Local\Temp\ccCypFl7.s 			page 99


 4509 0226 00       		.byte	0
 4510 0227 20       		.uleb128 0x20
 4511 0228 34       		.uleb128 0x34
 4512 0229 00       		.byte	0
 4513 022a 03       		.uleb128 0x3
 4514 022b 0E       		.uleb128 0xe
 4515 022c 3A       		.uleb128 0x3a
 4516 022d 0B       		.uleb128 0xb
 4517 022e 3B       		.uleb128 0x3b
 4518 022f 05       		.uleb128 0x5
 4519 0230 49       		.uleb128 0x49
 4520 0231 13       		.uleb128 0x13
 4521 0232 3F       		.uleb128 0x3f
 4522 0233 19       		.uleb128 0x19
 4523 0234 3C       		.uleb128 0x3c
 4524 0235 19       		.uleb128 0x19
 4525 0236 00       		.byte	0
 4526 0237 00       		.byte	0
 4527 0238 21       		.uleb128 0x21
 4528 0239 35       		.uleb128 0x35
 4529 023a 00       		.byte	0
 4530 023b 49       		.uleb128 0x49
 4531 023c 13       		.uleb128 0x13
 4532 023d 00       		.byte	0
 4533 023e 00       		.byte	0
 4534 023f 22       		.uleb128 0x22
 4535 0240 34       		.uleb128 0x34
 4536 0241 00       		.byte	0
 4537 0242 03       		.uleb128 0x3
 4538 0243 0E       		.uleb128 0xe
 4539 0244 3A       		.uleb128 0x3a
 4540 0245 0B       		.uleb128 0xb
 4541 0246 3B       		.uleb128 0x3b
 4542 0247 0B       		.uleb128 0xb
 4543 0248 49       		.uleb128 0x49
 4544 0249 13       		.uleb128 0x13
 4545 024a 3F       		.uleb128 0x3f
 4546 024b 19       		.uleb128 0x19
 4547 024c 02       		.uleb128 0x2
 4548 024d 18       		.uleb128 0x18
 4549 024e 00       		.byte	0
 4550 024f 00       		.byte	0
 4551 0250 00       		.byte	0
 4552              		.section	.debug_aranges,"",%progbits
 4553 0000 54010000 		.4byte	0x154
 4554 0004 0200     		.2byte	0x2
 4555 0006 00000000 		.4byte	.Ldebug_info0
 4556 000a 04       		.byte	0x4
 4557 000b 00       		.byte	0
 4558 000c 0000     		.2byte	0
 4559 000e 0000     		.2byte	0
 4560 0010 00000000 		.4byte	.LFB56
 4561 0014 2C000000 		.4byte	.LFE56-.LFB56
 4562 0018 00000000 		.4byte	.LFB57
 4563 001c 28000000 		.4byte	.LFE57-.LFB57
 4564 0020 00000000 		.4byte	.LFB58
 4565 0024 10000000 		.4byte	.LFE58-.LFB58
ARM GAS  C:\Users\cps\AppData\Local\Temp\ccCypFl7.s 			page 100


 4566 0028 00000000 		.4byte	.LFB59
 4567 002c 28000000 		.4byte	.LFE59-.LFB59
 4568 0030 00000000 		.4byte	.LFB60
 4569 0034 38000000 		.4byte	.LFE60-.LFB60
 4570 0038 00000000 		.4byte	.LFB61
 4571 003c 24000000 		.4byte	.LFE61-.LFB61
 4572 0040 00000000 		.4byte	.LFB62
 4573 0044 78000000 		.4byte	.LFE62-.LFB62
 4574 0048 00000000 		.4byte	.LFB63
 4575 004c 68000000 		.4byte	.LFE63-.LFB63
 4576 0050 00000000 		.4byte	.LFB64
 4577 0054 48000000 		.4byte	.LFE64-.LFB64
 4578 0058 00000000 		.4byte	.LFB65
 4579 005c 3C000000 		.4byte	.LFE65-.LFB65
 4580 0060 00000000 		.4byte	.LFB66
 4581 0064 1A000000 		.4byte	.LFE66-.LFB66
 4582 0068 00000000 		.4byte	.LFB67
 4583 006c 78000000 		.4byte	.LFE67-.LFB67
 4584 0070 00000000 		.4byte	.LFB68
 4585 0074 38000000 		.4byte	.LFE68-.LFB68
 4586 0078 00000000 		.4byte	.LFB69
 4587 007c 44000000 		.4byte	.LFE69-.LFB69
 4588 0080 00000000 		.4byte	.LFB70
 4589 0084 48000000 		.4byte	.LFE70-.LFB70
 4590 0088 00000000 		.4byte	.LFB71
 4591 008c AC000000 		.4byte	.LFE71-.LFB71
 4592 0090 00000000 		.4byte	.LFB72
 4593 0094 52000000 		.4byte	.LFE72-.LFB72
 4594 0098 00000000 		.4byte	.LFB73
 4595 009c 18010000 		.4byte	.LFE73-.LFB73
 4596 00a0 00000000 		.4byte	.LFB74
 4597 00a4 20000000 		.4byte	.LFE74-.LFB74
 4598 00a8 00000000 		.4byte	.LFB75
 4599 00ac 28000000 		.4byte	.LFE75-.LFB75
 4600 00b0 00000000 		.4byte	.LFB76
 4601 00b4 28000000 		.4byte	.LFE76-.LFB76
 4602 00b8 00000000 		.4byte	.LFB77
 4603 00bc 28000000 		.4byte	.LFE77-.LFB77
 4604 00c0 00000000 		.4byte	.LFB78
 4605 00c4 34000000 		.4byte	.LFE78-.LFB78
 4606 00c8 00000000 		.4byte	.LFB79
 4607 00cc 28000000 		.4byte	.LFE79-.LFB79
 4608 00d0 00000000 		.4byte	.LFB80
 4609 00d4 48000000 		.4byte	.LFE80-.LFB80
 4610 00d8 00000000 		.4byte	.LFB81
 4611 00dc 48000000 		.4byte	.LFE81-.LFB81
 4612 00e0 00000000 		.4byte	.LFB82
 4613 00e4 28000000 		.4byte	.LFE82-.LFB82
 4614 00e8 00000000 		.4byte	.LFB83
 4615 00ec 48000000 		.4byte	.LFE83-.LFB83
 4616 00f0 00000000 		.4byte	.LFB84
 4617 00f4 28000000 		.4byte	.LFE84-.LFB84
 4618 00f8 00000000 		.4byte	.LFB85
 4619 00fc 44000000 		.4byte	.LFE85-.LFB85
 4620 0100 00000000 		.4byte	.LFB86
 4621 0104 44000000 		.4byte	.LFE86-.LFB86
 4622 0108 00000000 		.4byte	.LFB87
ARM GAS  C:\Users\cps\AppData\Local\Temp\ccCypFl7.s 			page 101


 4623 010c 90000000 		.4byte	.LFE87-.LFB87
 4624 0110 00000000 		.4byte	.LFB88
 4625 0114 F8000000 		.4byte	.LFE88-.LFB88
 4626 0118 00000000 		.4byte	.LFB89
 4627 011c 2C010000 		.4byte	.LFE89-.LFB89
 4628 0120 00000000 		.4byte	.LFB90
 4629 0124 E4000000 		.4byte	.LFE90-.LFB90
 4630 0128 00000000 		.4byte	.LFB91
 4631 012c 9C000000 		.4byte	.LFE91-.LFB91
 4632 0130 00000000 		.4byte	.LFB92
 4633 0134 24000000 		.4byte	.LFE92-.LFB92
 4634 0138 00000000 		.4byte	.LFB93
 4635 013c 0A000000 		.4byte	.LFE93-.LFB93
 4636 0140 00000000 		.4byte	.LFB94
 4637 0144 0A000000 		.4byte	.LFE94-.LFB94
 4638 0148 00000000 		.4byte	.LFB95
 4639 014c 48000000 		.4byte	.LFE95-.LFB95
 4640 0150 00000000 		.4byte	0
 4641 0154 00000000 		.4byte	0
 4642              		.section	.debug_ranges,"",%progbits
 4643              	.Ldebug_ranges0:
 4644 0000 00000000 		.4byte	.LFB56
 4645 0004 2C000000 		.4byte	.LFE56
 4646 0008 00000000 		.4byte	.LFB57
 4647 000c 28000000 		.4byte	.LFE57
 4648 0010 00000000 		.4byte	.LFB58
 4649 0014 10000000 		.4byte	.LFE58
 4650 0018 00000000 		.4byte	.LFB59
 4651 001c 28000000 		.4byte	.LFE59
 4652 0020 00000000 		.4byte	.LFB60
 4653 0024 38000000 		.4byte	.LFE60
 4654 0028 00000000 		.4byte	.LFB61
 4655 002c 24000000 		.4byte	.LFE61
 4656 0030 00000000 		.4byte	.LFB62
 4657 0034 78000000 		.4byte	.LFE62
 4658 0038 00000000 		.4byte	.LFB63
 4659 003c 68000000 		.4byte	.LFE63
 4660 0040 00000000 		.4byte	.LFB64
 4661 0044 48000000 		.4byte	.LFE64
 4662 0048 00000000 		.4byte	.LFB65
 4663 004c 3C000000 		.4byte	.LFE65
 4664 0050 00000000 		.4byte	.LFB66
 4665 0054 1A000000 		.4byte	.LFE66
 4666 0058 00000000 		.4byte	.LFB67
 4667 005c 78000000 		.4byte	.LFE67
 4668 0060 00000000 		.4byte	.LFB68
 4669 0064 38000000 		.4byte	.LFE68
 4670 0068 00000000 		.4byte	.LFB69
 4671 006c 44000000 		.4byte	.LFE69
 4672 0070 00000000 		.4byte	.LFB70
 4673 0074 48000000 		.4byte	.LFE70
 4674 0078 00000000 		.4byte	.LFB71
 4675 007c AC000000 		.4byte	.LFE71
 4676 0080 00000000 		.4byte	.LFB72
 4677 0084 52000000 		.4byte	.LFE72
 4678 0088 00000000 		.4byte	.LFB73
 4679 008c 18010000 		.4byte	.LFE73
ARM GAS  C:\Users\cps\AppData\Local\Temp\ccCypFl7.s 			page 102


 4680 0090 00000000 		.4byte	.LFB74
 4681 0094 20000000 		.4byte	.LFE74
 4682 0098 00000000 		.4byte	.LFB75
 4683 009c 28000000 		.4byte	.LFE75
 4684 00a0 00000000 		.4byte	.LFB76
 4685 00a4 28000000 		.4byte	.LFE76
 4686 00a8 00000000 		.4byte	.LFB77
 4687 00ac 28000000 		.4byte	.LFE77
 4688 00b0 00000000 		.4byte	.LFB78
 4689 00b4 34000000 		.4byte	.LFE78
 4690 00b8 00000000 		.4byte	.LFB79
 4691 00bc 28000000 		.4byte	.LFE79
 4692 00c0 00000000 		.4byte	.LFB80
 4693 00c4 48000000 		.4byte	.LFE80
 4694 00c8 00000000 		.4byte	.LFB81
 4695 00cc 48000000 		.4byte	.LFE81
 4696 00d0 00000000 		.4byte	.LFB82
 4697 00d4 28000000 		.4byte	.LFE82
 4698 00d8 00000000 		.4byte	.LFB83
 4699 00dc 48000000 		.4byte	.LFE83
 4700 00e0 00000000 		.4byte	.LFB84
 4701 00e4 28000000 		.4byte	.LFE84
 4702 00e8 00000000 		.4byte	.LFB85
 4703 00ec 44000000 		.4byte	.LFE85
 4704 00f0 00000000 		.4byte	.LFB86
 4705 00f4 44000000 		.4byte	.LFE86
 4706 00f8 00000000 		.4byte	.LFB87
 4707 00fc 90000000 		.4byte	.LFE87
 4708 0100 00000000 		.4byte	.LFB88
 4709 0104 F8000000 		.4byte	.LFE88
 4710 0108 00000000 		.4byte	.LFB89
 4711 010c 2C010000 		.4byte	.LFE89
 4712 0110 00000000 		.4byte	.LFB90
 4713 0114 E4000000 		.4byte	.LFE90
 4714 0118 00000000 		.4byte	.LFB91
 4715 011c 9C000000 		.4byte	.LFE91
 4716 0120 00000000 		.4byte	.LFB92
 4717 0124 24000000 		.4byte	.LFE92
 4718 0128 00000000 		.4byte	.LFB93
 4719 012c 0A000000 		.4byte	.LFE93
 4720 0130 00000000 		.4byte	.LFB94
 4721 0134 0A000000 		.4byte	.LFE94
 4722 0138 00000000 		.4byte	.LFB95
 4723 013c 48000000 		.4byte	.LFE95
 4724 0140 00000000 		.4byte	0
 4725 0144 00000000 		.4byte	0
 4726              		.section	.debug_line,"",%progbits
 4727              	.Ldebug_line0:
 4728 0000 FC050000 		.section	.debug_str,"MS",%progbits,1
 4728      0200D801 
 4728      00000201 
 4728      FB0E0D00 
 4728      01010101 
 4729              	.LASF41:
 4730 0000 76616C69 		.ascii	"valid\000"
 4730      6400
 4731              	.LASF92:
ARM GAS  C:\Users\cps\AppData\Local\Temp\ccCypFl7.s 			page 103


 4732 0006 6D6F6465 		.ascii	"modem_wakeup\000"
 4732      6D5F7761 
 4732      6B657570 
 4732      00
 4733              	.LASF81:
 4734 0013 6D6F6465 		.ascii	"modem_get_packet\000"
 4734      6D5F6765 
 4734      745F7061 
 4734      636B6574 
 4734      00
 4735              	.LASF56:
 4736 0024 63757254 		.ascii	"curTime\000"
 4736      696D6500 
 4737              	.LASF108:
 4738 002c 6D6F6465 		.ascii	"modem_set_next_repeating_minute_alarm\000"
 4738      6D5F7365 
 4738      745F6E65 
 4738      78745F72 
 4738      65706561 
 4739              	.LASF36:
 4740 0052 65787065 		.ascii	"expected_response\000"
 4740      63746564 
 4740      5F726573 
 4740      706F6E73 
 4740      6500
 4741              	.LASF94:
 4742 0064 72785F63 		.ascii	"rx_char_hold\000"
 4742      6861725F 
 4742      686F6C64 
 4742      00
 4743              	.LASF71:
 4744 0071 6D6F6465 		.ascii	"modem_enable_CDMA_data\000"
 4744      6D5F656E 
 4744      61626C65 
 4744      5F43444D 
 4744      415F6461 
 4745              	.LASF93:
 4746 0088 54656C69 		.ascii	"Telit_isr_rx\000"
 4746      745F6973 
 4746      725F7278 
 4746      00
 4747              	.LASF45:
 4748 0095 68617264 		.ascii	"hardware_specific_modem_setup\000"
 4748      77617265 
 4748      5F737065 
 4748      63696669 
 4748      635F6D6F 
 4749              	.LASF106:
 4750 00b3 2E5C6D6F 		.ascii	".\\modem.c\000"
 4750      64656D2E 
 4750      6300
 4751              	.LASF50:
 4752 00bd 6D6F6465 		.ascii	"modem_set_apn\000"
 4752      6D5F7365 
 4752      745F6170 
 4752      6E00
 4753              	.LASF75:
ARM GAS  C:\Users\cps\AppData\Local\Temp\ccCypFl7.s 			page 104


 4754 00cb 6D6F6465 		.ascii	"modem_set_password\000"
 4754      6D5F7365 
 4754      745F7061 
 4754      7373776F 
 4754      726400
 4755              	.LASF83:
 4756 00de 6765745F 		.ascii	"get_str\000"
 4756      73747200 
 4757              	.LASF90:
 4758 00e6 75617274 		.ascii	"uart_string_reset\000"
 4758      5F737472 
 4758      696E675F 
 4758      72657365 
 4758      7400
 4759              	.LASF25:
 4760 00f8 746D5F77 		.ascii	"tm_wday\000"
 4760      64617900 
 4761              	.LASF6:
 4762 0100 6C6F6E67 		.ascii	"long long int\000"
 4762      206C6F6E 
 4762      6720696E 
 4762      7400
 4763              	.LASF39:
 4764 010e 64656C61 		.ascii	"delay\000"
 4764      7900
 4765              	.LASF54:
 4766 0114 72657370 		.ascii	"resp\000"
 4766      00
 4767              	.LASF43:
 4768 0119 6D6F6465 		.ascii	"modem_power_off\000"
 4768      6D5F706F 
 4768      7765725F 
 4768      6F666600 
 4769              	.LASF59:
 4770 0129 6E657874 		.ascii	"nextTimeStruct\000"
 4770      54696D65 
 4770      53747275 
 4770      637400
 4771              	.LASF2:
 4772 0138 73686F72 		.ascii	"short int\000"
 4772      7420696E 
 4772      7400
 4773              	.LASF104:
 4774 0142 6D6F6465 		.ascii	"modem_apn\000"
 4774      6D5F6170 
 4774      6E00
 4775              	.LASF70:
 4776 014c 6D6F6465 		.ascii	"modem_get_sw_version\000"
 4776      6D5F6765 
 4776      745F7377 
 4776      5F766572 
 4776      73696F6E 
 4777              	.LASF12:
 4778 0161 75696E74 		.ascii	"uint16\000"
 4778      313600
 4779              	.LASF91:
 4780 0168 6D6F6465 		.ascii	"modem_sleep\000"
ARM GAS  C:\Users\cps\AppData\Local\Temp\ccCypFl7.s 			page 105


 4780      6D5F736C 
 4780      65657000 
 4781              	.LASF103:
 4782 0174 75617274 		.ascii	"uart_received_string\000"
 4782      5F726563 
 4782      65697665 
 4782      645F7374 
 4782      72696E67 
 4783              	.LASF46:
 4784 0189 636F756E 		.ascii	"count\000"
 4784      7400
 4785              	.LASF97:
 4786 018f 6C6F636B 		.ascii	"lock_acquired\000"
 4786      5F616371 
 4786      75697265 
 4786      6400
 4787              	.LASF72:
 4788 019d 6D6F6465 		.ascii	"modem_test_CDMA_data\000"
 4788      6D5F7465 
 4788      73745F43 
 4788      444D415F 
 4788      64617461 
 4789              	.LASF82:
 4790 01b2 7061636B 		.ascii	"packet\000"
 4790      657400
 4791              	.LASF84:
 4792 01b9 6B65795F 		.ascii	"key_str\000"
 4792      73747200 
 4793              	.LASF60:
 4794 01c1 616C6172 		.ascii	"alarmCommand\000"
 4794      6D436F6D 
 4794      6D616E64 
 4794      00
 4795              	.LASF21:
 4796 01ce 746D5F68 		.ascii	"tm_hour\000"
 4796      6F757200 
 4797              	.LASF14:
 4798 01d6 666C6F61 		.ascii	"float\000"
 4798      7400
 4799              	.LASF100:
 4800 01dc 6D696E75 		.ascii	"minuteAlarmInterval\000"
 4800      7465416C 
 4800      61726D49 
 4800      6E746572 
 4800      76616C00 
 4801              	.LASF23:
 4802 01f0 746D5F6D 		.ascii	"tm_mon\000"
 4802      6F6E00
 4803              	.LASF65:
 4804 01f7 6D6F6465 		.ascii	"modem_get_serial_number\000"
 4804      6D5F6765 
 4804      745F7365 
 4804      7269616C 
 4804      5F6E756D 
 4805              	.LASF47:
 4806 020f 6E657477 		.ascii	"network_status\000"
 4806      6F726B5F 
ARM GAS  C:\Users\cps\AppData\Local\Temp\ccCypFl7.s 			page 106


 4806      73746174 
 4806      757300
 4807              	.LASF77:
 4808 021e 6D6F6465 		.ascii	"modem_get_google\000"
 4808      6D5F6765 
 4808      745F676F 
 4808      6F676C65 
 4808      00
 4809              	.LASF101:
 4810 022f 72656164 		.ascii	"ready\000"
 4810      7900
 4811              	.LASF105:
 4812 0235 474E5520 		.ascii	"GNU C 4.9.3 20150303 (release) [ARM/embedded-4_9-br"
 4812      4320342E 
 4812      392E3320 
 4812      32303135 
 4812      30333033 
 4813 0268 616E6368 		.ascii	"anch revision 221220] -mcpu=cortex-m3 -mthumb -g -O"
 4813      20726576 
 4813      6973696F 
 4813      6E203232 
 4813      31323230 
 4814 029b 30202D66 		.ascii	"0 -ffunction-sections -ffat-lto-objects\000"
 4814      66756E63 
 4814      74696F6E 
 4814      2D736563 
 4814      74696F6E 
 4815              	.LASF17:
 4816 02c3 73697A65 		.ascii	"sizetype\000"
 4816      74797065 
 4816      00
 4817              	.LASF79:
 4818 02cc 626F6479 		.ascii	"body\000"
 4818      00
 4819              	.LASF34:
 4820 02d1 61745F77 		.ascii	"at_write_command\000"
 4820      72697465 
 4820      5F636F6D 
 4820      6D616E64 
 4820      00
 4821              	.LASF67:
 4822 02e2 6D6F6465 		.ascii	"modem_set_flow_control\000"
 4822      6D5F7365 
 4822      745F666C 
 4822      6F775F63 
 4822      6F6E7472 
 4823              	.LASF30:
 4824 02f9 6D6F6465 		.ascii	"modem_set_non_cyclic_sleep\000"
 4824      6D5F7365 
 4824      745F6E6F 
 4824      6E5F6379 
 4824      636C6963 
 4825              	.LASF33:
 4826 0314 6D6F6465 		.ascii	"modem_set_api_feed\000"
 4826      6D5F7365 
 4826      745F6170 
 4826      695F6665 
ARM GAS  C:\Users\cps\AppData\Local\Temp\ccCypFl7.s 			page 107


 4826      656400
 4827              	.LASF62:
 4828 0327 6D6F6465 		.ascii	"modem_get_nertwork_time\000"
 4828      6D5F6765 
 4828      745F6E65 
 4828      7274776F 
 4828      726B5F74 
 4829              	.LASF107:
 4830 033f 433A5C55 		.ascii	"C:\\Users\\cps\\Documents\\kLab\\IoT\\CellBoard\\Ce"
 4830      73657273 
 4830      5C637073 
 4830      5C446F63 
 4830      756D656E 
 4831 036b 6C6C2042 		.ascii	"ll Board.cydsn\000"
 4831      6F617264 
 4831      2E637964 
 4831      736E00
 4832              	.LASF49:
 4833 037a 6D6F6465 		.ascii	"modem_connect\000"
 4833      6D5F636F 
 4833      6E6E6563 
 4833      7400
 4834              	.LASF51:
 4835 0388 6D6F6465 		.ascii	"modem_set_band\000"
 4835      6D5F7365 
 4835      745F6261 
 4835      6E6400
 4836              	.LASF76:
 4837 0397 70617373 		.ascii	"pass\000"
 4837      00
 4838              	.LASF1:
 4839 039c 756E7369 		.ascii	"unsigned char\000"
 4839      676E6564 
 4839      20636861 
 4839      7200
 4840              	.LASF44:
 4841 03aa 6D6F6465 		.ascii	"modem_reset\000"
 4841      6D5F7265 
 4841      73657400 
 4842              	.LASF18:
 4843 03b6 74696D65 		.ascii	"time_t\000"
 4843      5F7400
 4844              	.LASF96:
 4845 03bd 6D6F6465 		.ascii	"modem_state\000"
 4845      6D5F7374 
 4845      61746500 
 4846              	.LASF0:
 4847 03c9 7369676E 		.ascii	"signed char\000"
 4847      65642063 
 4847      68617200 
 4848              	.LASF24:
 4849 03d5 746D5F79 		.ascii	"tm_year\000"
 4849      65617200 
 4850              	.LASF7:
 4851 03dd 6C6F6E67 		.ascii	"long long unsigned int\000"
 4851      206C6F6E 
 4851      6720756E 
ARM GAS  C:\Users\cps\AppData\Local\Temp\ccCypFl7.s 			page 108


 4851      7369676E 
 4851      65642069 
 4852              	.LASF57:
 4853 03f4 6375724D 		.ascii	"curMins\000"
 4853      696E7300 
 4854              	.LASF8:
 4855 03fc 756E7369 		.ascii	"unsigned int\000"
 4855      676E6564 
 4855      20696E74 
 4855      00
 4856              	.LASF22:
 4857 0409 746D5F6D 		.ascii	"tm_mday\000"
 4857      64617900 
 4858              	.LASF55:
 4859 0411 7274635F 		.ascii	"rtc_read_minutes\000"
 4859      72656164 
 4859      5F6D696E 
 4859      75746573 
 4859      00
 4860              	.LASF29:
 4861 0422 6D6F6465 		.ascii	"modem_rtc_alert_fired\000"
 4861      6D5F7274 
 4861      635F616C 
 4861      6572745F 
 4861      66697265 
 4862              	.LASF68:
 4863 0438 70617261 		.ascii	"param\000"
 4863      6D00
 4864              	.LASF52:
 4865 043e 62616E64 		.ascii	"band\000"
 4865      00
 4866              	.LASF74:
 4867 0443 75736572 		.ascii	"user\000"
 4867      00
 4868              	.LASF3:
 4869 0448 73686F72 		.ascii	"short unsigned int\000"
 4869      7420756E 
 4869      7369676E 
 4869      65642069 
 4869      6E7400
 4870              	.LASF42:
 4871 045b 6D6F6465 		.ascii	"modem_power_on\000"
 4871      6D5F706F 
 4871      7765725F 
 4871      6F6E00
 4872              	.LASF16:
 4873 046a 63686172 		.ascii	"char\000"
 4873      00
 4874              	.LASF95:
 4875 046f 49544D5F 		.ascii	"ITM_RxBuffer\000"
 4875      52784275 
 4875      66666572 
 4875      00
 4876              	.LASF4:
 4877 047c 6C6F6E67 		.ascii	"long int\000"
 4877      20696E74 
 4877      00
ARM GAS  C:\Users\cps\AppData\Local\Temp\ccCypFl7.s 			page 109


 4878              	.LASF64:
 4879 0485 6D6F6465 		.ascii	"modem_get_signal_quality\000"
 4879      6D5F6765 
 4879      745F7369 
 4879      676E616C 
 4879      5F717561 
 4880              	.LASF10:
 4881 049e 696E7433 		.ascii	"int32_t\000"
 4881      325F7400 
 4882              	.LASF86:
 4883 04a6 6C6F636B 		.ascii	"lock\000"
 4883      00
 4884              	.LASF26:
 4885 04ab 746D5F79 		.ascii	"tm_yday\000"
 4885      64617900 
 4886              	.LASF87:
 4887 04b3 6C6F636B 		.ascii	"lock_attempts\000"
 4887      5F617474 
 4887      656D7074 
 4887      7300
 4888              	.LASF11:
 4889 04c1 75696E74 		.ascii	"uint8\000"
 4889      3800
 4890              	.LASF32:
 4891 04c7 6D6F6465 		.ascii	"modem_stop\000"
 4891      6D5F7374 
 4891      6F7000
 4892              	.LASF61:
 4893 04d2 6D6F6465 		.ascii	"modem_rtc_set_repeating_minute_alarm\000"
 4893      6D5F7274 
 4893      635F7365 
 4893      745F7265 
 4893      70656174 
 4894              	.LASF31:
 4895 04f7 6D6F6465 		.ascii	"modem_start\000"
 4895      6D5F7374 
 4895      61727400 
 4896              	.LASF20:
 4897 0503 746D5F6D 		.ascii	"tm_min\000"
 4897      696E00
 4898              	.LASF13:
 4899 050a 75696E74 		.ascii	"uint32\000"
 4899      333200
 4900              	.LASF5:
 4901 0511 6C6F6E67 		.ascii	"long unsigned int\000"
 4901      20756E73 
 4901      69676E65 
 4901      6420696E 
 4901      7400
 4902              	.LASF58:
 4903 0523 6E657874 		.ascii	"nextTime\000"
 4903      54696D65 
 4903      00
 4904              	.LASF15:
 4905 052c 646F7562 		.ascii	"double\000"
 4905      6C6500
 4906              	.LASF40:
ARM GAS  C:\Users\cps\AppData\Local\Temp\ccCypFl7.s 			page 110


 4907 0533 696E7465 		.ascii	"interval\000"
 4907      7276616C 
 4907      00
 4908              	.LASF102:
 4909 053c 75617274 		.ascii	"uart_string_index\000"
 4909      5F737472 
 4909      696E675F 
 4909      696E6465 
 4909      7800
 4910              	.LASF38:
 4911 054e 72657370 		.ascii	"response\000"
 4911      6F6E7365 
 4911      00
 4912              	.LASF28:
 4913 0557 6D6F6465 		.ascii	"modem_shutdown\000"
 4913      6D5F7368 
 4913      7574646F 
 4913      776E00
 4914              	.LASF78:
 4915 0566 6D6F6465 		.ascii	"modem_send_packet\000"
 4915      6D5F7365 
 4915      6E645F70 
 4915      61636B65 
 4915      7400
 4916              	.LASF9:
 4917 0578 5F5F696E 		.ascii	"__int32_t\000"
 4917      7433325F 
 4917      7400
 4918              	.LASF48:
 4919 0582 6D6F6465 		.ascii	"modem_disconnect\000"
 4919      6D5F6469 
 4919      73636F6E 
 4919      6E656374 
 4919      00
 4920              	.LASF85:
 4921 0593 6D6F6465 		.ascii	"modem_acquire_lock\000"
 4921      6D5F6163 
 4921      71756972 
 4921      655F6C6F 
 4921      636B00
 4922              	.LASF35:
 4923 05a6 75617274 		.ascii	"uart_string\000"
 4923      5F737472 
 4923      696E6700 
 4924              	.LASF99:
 4925 05b2 6170695F 		.ascii	"api_key\000"
 4925      6B657900 
 4926              	.LASF53:
 4927 05ba 6D6F6465 		.ascii	"modem_get_rtc_time\000"
 4927      6D5F6765 
 4927      745F7274 
 4927      635F7469 
 4927      6D6500
 4928              	.LASF80:
 4929 05cd 7075745F 		.ascii	"put_str\000"
 4929      73747200 
 4930              	.LASF66:
ARM GAS  C:\Users\cps\AppData\Local\Temp\ccCypFl7.s 			page 111


 4931 05d5 6D6F6465 		.ascii	"modem_get_profile\000"
 4931      6D5F6765 
 4931      745F7072 
 4931      6F66696C 
 4931      6500
 4932              	.LASF69:
 4933 05e7 6D6F6465 		.ascii	"modem_set_error_reports\000"
 4933      6D5F7365 
 4933      745F6572 
 4933      726F725F 
 4933      7265706F 
 4934              	.LASF19:
 4935 05ff 746D5F73 		.ascii	"tm_sec\000"
 4935      656300
 4936              	.LASF98:
 4937 0606 66656564 		.ascii	"feed_id\000"
 4937      5F696400 
 4938              	.LASF88:
 4939 060e 64617461 		.ascii	"data_packet\000"
 4939      5F706163 
 4939      6B657400 
 4940              	.LASF63:
 4941 061a 6D6F6465 		.ascii	"modem_check_network\000"
 4941      6D5F6368 
 4941      65636B5F 
 4941      6E657477 
 4941      6F726B00 
 4942              	.LASF89:
 4943 062e 6D6F6465 		.ascii	"modem_release_lock\000"
 4943      6D5F7265 
 4943      6C656173 
 4943      655F6C6F 
 4943      636B00
 4944              	.LASF73:
 4945 0641 6D6F6465 		.ascii	"modem_set_user\000"
 4945      6D5F7365 
 4945      745F7573 
 4945      657200
 4946              	.LASF37:
 4947 0650 75617274 		.ascii	"uart_timeout\000"
 4947      5F74696D 
 4947      656F7574 
 4947      00
 4948              	.LASF27:
 4949 065d 746D5F69 		.ascii	"tm_isdst\000"
 4949      73647374 
 4949      00
 4950              		.ident	"GCC: (GNU Tools for ARM Embedded Processors) 4.9.3 20150303 (release) [ARM/embedded-4_9-br
