ARM GAS  C:\Users\cps\AppData\Local\Temp\ccch2zri.s 			page 1


   1              		.syntax unified
   2              		.cpu cortex-m3
   3              		.fpu softvfp
   4              		.eabi_attribute 20, 1
   5              		.eabi_attribute 21, 1
   6              		.eabi_attribute 23, 3
   7              		.eabi_attribute 24, 1
   8              		.eabi_attribute 25, 1
   9              		.eabi_attribute 26, 1
  10              		.eabi_attribute 30, 6
  11              		.eabi_attribute 34, 1
  12              		.eabi_attribute 18, 4
  13              		.thumb
  14              		.file	"Telit_isr_rx.c"
  15              		.text
  16              	.Ltext0:
  17              		.cfi_sections	.debug_frame
  18              		.section	.text.Telit_isr_rx_Start,"ax",%progbits
  19              		.align	2
  20              		.global	Telit_isr_rx_Start
  21              		.thumb
  22              		.thumb_func
  23              		.type	Telit_isr_rx_Start, %function
  24              	Telit_isr_rx_Start:
  25              	.LFB0:
  26              		.file 1 ".\\Generated_Source\\PSoC5\\Telit_isr_rx.c"
   1:.\Generated_Source\PSoC5/Telit_isr_rx.c **** /*******************************************************************************
   2:.\Generated_Source\PSoC5/Telit_isr_rx.c **** * File Name: Telit_isr_rx.c  
   3:.\Generated_Source\PSoC5/Telit_isr_rx.c **** * Version 1.70
   4:.\Generated_Source\PSoC5/Telit_isr_rx.c **** *
   5:.\Generated_Source\PSoC5/Telit_isr_rx.c **** *  Description:
   6:.\Generated_Source\PSoC5/Telit_isr_rx.c **** *   API for controlling the state of an interrupt.
   7:.\Generated_Source\PSoC5/Telit_isr_rx.c **** *
   8:.\Generated_Source\PSoC5/Telit_isr_rx.c **** *
   9:.\Generated_Source\PSoC5/Telit_isr_rx.c **** *  Note:
  10:.\Generated_Source\PSoC5/Telit_isr_rx.c **** *
  11:.\Generated_Source\PSoC5/Telit_isr_rx.c **** ********************************************************************************
  12:.\Generated_Source\PSoC5/Telit_isr_rx.c **** * Copyright 2008-2015, Cypress Semiconductor Corporation.  All rights reserved.
  13:.\Generated_Source\PSoC5/Telit_isr_rx.c **** * You may use this file only in accordance with the license, terms, conditions, 
  14:.\Generated_Source\PSoC5/Telit_isr_rx.c **** * disclaimers, and limitations in the end user license agreement accompanying 
  15:.\Generated_Source\PSoC5/Telit_isr_rx.c **** * the software package with which this file was provided.
  16:.\Generated_Source\PSoC5/Telit_isr_rx.c **** *******************************************************************************/
  17:.\Generated_Source\PSoC5/Telit_isr_rx.c **** 
  18:.\Generated_Source\PSoC5/Telit_isr_rx.c **** 
  19:.\Generated_Source\PSoC5/Telit_isr_rx.c **** #include <cydevice_trm.h>
  20:.\Generated_Source\PSoC5/Telit_isr_rx.c **** #include <CyLib.h>
  21:.\Generated_Source\PSoC5/Telit_isr_rx.c **** #include <Telit_isr_rx.h>
  22:.\Generated_Source\PSoC5/Telit_isr_rx.c **** 
  23:.\Generated_Source\PSoC5/Telit_isr_rx.c **** 
  24:.\Generated_Source\PSoC5/Telit_isr_rx.c **** #if !defined(Telit_isr_rx__REMOVED) /* Check for removal by optimization */
  25:.\Generated_Source\PSoC5/Telit_isr_rx.c **** 
  26:.\Generated_Source\PSoC5/Telit_isr_rx.c **** /*******************************************************************************
  27:.\Generated_Source\PSoC5/Telit_isr_rx.c **** *  Place your includes, defines and code here 
  28:.\Generated_Source\PSoC5/Telit_isr_rx.c **** ********************************************************************************/
  29:.\Generated_Source\PSoC5/Telit_isr_rx.c **** /* `#START Telit_isr_rx_intc` */
  30:.\Generated_Source\PSoC5/Telit_isr_rx.c **** 
  31:.\Generated_Source\PSoC5/Telit_isr_rx.c **** /* `#END` */
ARM GAS  C:\Users\cps\AppData\Local\Temp\ccch2zri.s 			page 2


  32:.\Generated_Source\PSoC5/Telit_isr_rx.c **** 
  33:.\Generated_Source\PSoC5/Telit_isr_rx.c **** #ifndef CYINT_IRQ_BASE
  34:.\Generated_Source\PSoC5/Telit_isr_rx.c **** #define CYINT_IRQ_BASE      16
  35:.\Generated_Source\PSoC5/Telit_isr_rx.c **** #endif /* CYINT_IRQ_BASE */
  36:.\Generated_Source\PSoC5/Telit_isr_rx.c **** #ifndef CYINT_VECT_TABLE
  37:.\Generated_Source\PSoC5/Telit_isr_rx.c **** #define CYINT_VECT_TABLE    ((cyisraddress **) CYREG_NVIC_VECT_OFFSET)
  38:.\Generated_Source\PSoC5/Telit_isr_rx.c **** #endif /* CYINT_VECT_TABLE */
  39:.\Generated_Source\PSoC5/Telit_isr_rx.c **** 
  40:.\Generated_Source\PSoC5/Telit_isr_rx.c **** /* Declared in startup, used to set unused interrupts to. */
  41:.\Generated_Source\PSoC5/Telit_isr_rx.c **** CY_ISR_PROTO(IntDefaultHandler);
  42:.\Generated_Source\PSoC5/Telit_isr_rx.c **** 
  43:.\Generated_Source\PSoC5/Telit_isr_rx.c **** 
  44:.\Generated_Source\PSoC5/Telit_isr_rx.c **** /*******************************************************************************
  45:.\Generated_Source\PSoC5/Telit_isr_rx.c **** * Function Name: Telit_isr_rx_Start
  46:.\Generated_Source\PSoC5/Telit_isr_rx.c **** ********************************************************************************
  47:.\Generated_Source\PSoC5/Telit_isr_rx.c **** *
  48:.\Generated_Source\PSoC5/Telit_isr_rx.c **** * Summary:
  49:.\Generated_Source\PSoC5/Telit_isr_rx.c **** *  Set up the interrupt and enable it. This function disables the interrupt, 
  50:.\Generated_Source\PSoC5/Telit_isr_rx.c **** *  sets the default interrupt vector, sets the priority from the value in the
  51:.\Generated_Source\PSoC5/Telit_isr_rx.c **** *  Design Wide Resources Interrupt Editor, then enables the interrupt to the 
  52:.\Generated_Source\PSoC5/Telit_isr_rx.c **** *  interrupt controller.
  53:.\Generated_Source\PSoC5/Telit_isr_rx.c **** *
  54:.\Generated_Source\PSoC5/Telit_isr_rx.c **** * Parameters:  
  55:.\Generated_Source\PSoC5/Telit_isr_rx.c **** *   None
  56:.\Generated_Source\PSoC5/Telit_isr_rx.c **** *
  57:.\Generated_Source\PSoC5/Telit_isr_rx.c **** * Return:
  58:.\Generated_Source\PSoC5/Telit_isr_rx.c **** *   None
  59:.\Generated_Source\PSoC5/Telit_isr_rx.c **** *
  60:.\Generated_Source\PSoC5/Telit_isr_rx.c **** *******************************************************************************/
  61:.\Generated_Source\PSoC5/Telit_isr_rx.c **** void Telit_isr_rx_Start(void)
  62:.\Generated_Source\PSoC5/Telit_isr_rx.c **** {
  27              		.loc 1 62 0
  28              		.cfi_startproc
  29              		@ args = 0, pretend = 0, frame = 0
  30              		@ frame_needed = 1, uses_anonymous_args = 0
  31 0000 80B5     		push	{r7, lr}
  32              		.cfi_def_cfa_offset 8
  33              		.cfi_offset 7, -8
  34              		.cfi_offset 14, -4
  35 0002 00AF     		add	r7, sp, #0
  36              		.cfi_def_cfa_register 7
  63:.\Generated_Source\PSoC5/Telit_isr_rx.c ****     /* For all we know the interrupt is active. */
  64:.\Generated_Source\PSoC5/Telit_isr_rx.c ****     Telit_isr_rx_Disable();
  37              		.loc 1 64 0
  38 0004 FFF7FEFF 		bl	Telit_isr_rx_Disable
  65:.\Generated_Source\PSoC5/Telit_isr_rx.c **** 
  66:.\Generated_Source\PSoC5/Telit_isr_rx.c ****     /* Set the ISR to point to the Telit_isr_rx Interrupt. */
  67:.\Generated_Source\PSoC5/Telit_isr_rx.c ****     Telit_isr_rx_SetVector(&Telit_isr_rx_Interrupt);
  39              		.loc 1 67 0
  40 0008 0448     		ldr	r0, .L2
  41 000a FFF7FEFF 		bl	Telit_isr_rx_SetVector
  68:.\Generated_Source\PSoC5/Telit_isr_rx.c **** 
  69:.\Generated_Source\PSoC5/Telit_isr_rx.c ****     /* Set the priority. */
  70:.\Generated_Source\PSoC5/Telit_isr_rx.c ****     Telit_isr_rx_SetPriority((uint8)Telit_isr_rx_INTC_PRIOR_NUMBER);
  42              		.loc 1 70 0
  43 000e 0720     		movs	r0, #7
  44 0010 FFF7FEFF 		bl	Telit_isr_rx_SetPriority
ARM GAS  C:\Users\cps\AppData\Local\Temp\ccch2zri.s 			page 3


  71:.\Generated_Source\PSoC5/Telit_isr_rx.c **** 
  72:.\Generated_Source\PSoC5/Telit_isr_rx.c ****     /* Enable it. */
  73:.\Generated_Source\PSoC5/Telit_isr_rx.c ****     Telit_isr_rx_Enable();
  45              		.loc 1 73 0
  46 0014 FFF7FEFF 		bl	Telit_isr_rx_Enable
  74:.\Generated_Source\PSoC5/Telit_isr_rx.c **** }
  47              		.loc 1 74 0
  48 0018 80BD     		pop	{r7, pc}
  49              	.L3:
  50 001a 00BF     		.align	2
  51              	.L2:
  52 001c 00000000 		.word	Telit_isr_rx_Interrupt
  53              		.cfi_endproc
  54              	.LFE0:
  55              		.size	Telit_isr_rx_Start, .-Telit_isr_rx_Start
  56              		.section	.text.Telit_isr_rx_StartEx,"ax",%progbits
  57              		.align	2
  58              		.global	Telit_isr_rx_StartEx
  59              		.thumb
  60              		.thumb_func
  61              		.type	Telit_isr_rx_StartEx, %function
  62              	Telit_isr_rx_StartEx:
  63              	.LFB1:
  75:.\Generated_Source\PSoC5/Telit_isr_rx.c **** 
  76:.\Generated_Source\PSoC5/Telit_isr_rx.c **** 
  77:.\Generated_Source\PSoC5/Telit_isr_rx.c **** /*******************************************************************************
  78:.\Generated_Source\PSoC5/Telit_isr_rx.c **** * Function Name: Telit_isr_rx_StartEx
  79:.\Generated_Source\PSoC5/Telit_isr_rx.c **** ********************************************************************************
  80:.\Generated_Source\PSoC5/Telit_isr_rx.c **** *
  81:.\Generated_Source\PSoC5/Telit_isr_rx.c **** * Summary:
  82:.\Generated_Source\PSoC5/Telit_isr_rx.c **** *  Sets up the interrupt and enables it. This function disables the interrupt,
  83:.\Generated_Source\PSoC5/Telit_isr_rx.c **** *  sets the interrupt vector based on the address passed in, sets the priority 
  84:.\Generated_Source\PSoC5/Telit_isr_rx.c **** *  from the value in the Design Wide Resources Interrupt Editor, then enables 
  85:.\Generated_Source\PSoC5/Telit_isr_rx.c **** *  the interrupt to the interrupt controller.
  86:.\Generated_Source\PSoC5/Telit_isr_rx.c **** *  
  87:.\Generated_Source\PSoC5/Telit_isr_rx.c **** *  When defining ISR functions, the CY_ISR and CY_ISR_PROTO macros should be 
  88:.\Generated_Source\PSoC5/Telit_isr_rx.c **** *  used to provide consistent definition across compilers:
  89:.\Generated_Source\PSoC5/Telit_isr_rx.c **** *  
  90:.\Generated_Source\PSoC5/Telit_isr_rx.c **** *  Function definition example:
  91:.\Generated_Source\PSoC5/Telit_isr_rx.c **** *   CY_ISR(MyISR)
  92:.\Generated_Source\PSoC5/Telit_isr_rx.c **** *   {
  93:.\Generated_Source\PSoC5/Telit_isr_rx.c **** *   }
  94:.\Generated_Source\PSoC5/Telit_isr_rx.c **** *   Function prototype example:
  95:.\Generated_Source\PSoC5/Telit_isr_rx.c **** *   CY_ISR_PROTO(MyISR);
  96:.\Generated_Source\PSoC5/Telit_isr_rx.c **** *
  97:.\Generated_Source\PSoC5/Telit_isr_rx.c **** * Parameters:  
  98:.\Generated_Source\PSoC5/Telit_isr_rx.c **** *   address: Address of the ISR to set in the interrupt vector table.
  99:.\Generated_Source\PSoC5/Telit_isr_rx.c **** *
 100:.\Generated_Source\PSoC5/Telit_isr_rx.c **** * Return:
 101:.\Generated_Source\PSoC5/Telit_isr_rx.c **** *   None
 102:.\Generated_Source\PSoC5/Telit_isr_rx.c **** *
 103:.\Generated_Source\PSoC5/Telit_isr_rx.c **** *******************************************************************************/
 104:.\Generated_Source\PSoC5/Telit_isr_rx.c **** void Telit_isr_rx_StartEx(cyisraddress address)
 105:.\Generated_Source\PSoC5/Telit_isr_rx.c **** {
  64              		.loc 1 105 0
  65              		.cfi_startproc
  66              		@ args = 0, pretend = 0, frame = 8
ARM GAS  C:\Users\cps\AppData\Local\Temp\ccch2zri.s 			page 4


  67              		@ frame_needed = 1, uses_anonymous_args = 0
  68 0000 80B5     		push	{r7, lr}
  69              		.cfi_def_cfa_offset 8
  70              		.cfi_offset 7, -8
  71              		.cfi_offset 14, -4
  72 0002 82B0     		sub	sp, sp, #8
  73              		.cfi_def_cfa_offset 16
  74 0004 00AF     		add	r7, sp, #0
  75              		.cfi_def_cfa_register 7
  76 0006 7860     		str	r0, [r7, #4]
 106:.\Generated_Source\PSoC5/Telit_isr_rx.c ****     /* For all we know the interrupt is active. */
 107:.\Generated_Source\PSoC5/Telit_isr_rx.c ****     Telit_isr_rx_Disable();
  77              		.loc 1 107 0
  78 0008 FFF7FEFF 		bl	Telit_isr_rx_Disable
 108:.\Generated_Source\PSoC5/Telit_isr_rx.c **** 
 109:.\Generated_Source\PSoC5/Telit_isr_rx.c ****     /* Set the ISR to point to the Telit_isr_rx Interrupt. */
 110:.\Generated_Source\PSoC5/Telit_isr_rx.c ****     Telit_isr_rx_SetVector(address);
  79              		.loc 1 110 0
  80 000c 7868     		ldr	r0, [r7, #4]
  81 000e FFF7FEFF 		bl	Telit_isr_rx_SetVector
 111:.\Generated_Source\PSoC5/Telit_isr_rx.c **** 
 112:.\Generated_Source\PSoC5/Telit_isr_rx.c ****     /* Set the priority. */
 113:.\Generated_Source\PSoC5/Telit_isr_rx.c ****     Telit_isr_rx_SetPriority((uint8)Telit_isr_rx_INTC_PRIOR_NUMBER);
  82              		.loc 1 113 0
  83 0012 0720     		movs	r0, #7
  84 0014 FFF7FEFF 		bl	Telit_isr_rx_SetPriority
 114:.\Generated_Source\PSoC5/Telit_isr_rx.c **** 
 115:.\Generated_Source\PSoC5/Telit_isr_rx.c ****     /* Enable it. */
 116:.\Generated_Source\PSoC5/Telit_isr_rx.c ****     Telit_isr_rx_Enable();
  85              		.loc 1 116 0
  86 0018 FFF7FEFF 		bl	Telit_isr_rx_Enable
 117:.\Generated_Source\PSoC5/Telit_isr_rx.c **** }
  87              		.loc 1 117 0
  88 001c 0837     		adds	r7, r7, #8
  89              		.cfi_def_cfa_offset 8
  90 001e BD46     		mov	sp, r7
  91              		.cfi_def_cfa_register 13
  92              		@ sp needed
  93 0020 80BD     		pop	{r7, pc}
  94              		.cfi_endproc
  95              	.LFE1:
  96              		.size	Telit_isr_rx_StartEx, .-Telit_isr_rx_StartEx
  97 0022 00BF     		.section	.text.Telit_isr_rx_Stop,"ax",%progbits
  98              		.align	2
  99              		.global	Telit_isr_rx_Stop
 100              		.thumb
 101              		.thumb_func
 102              		.type	Telit_isr_rx_Stop, %function
 103              	Telit_isr_rx_Stop:
 104              	.LFB2:
 118:.\Generated_Source\PSoC5/Telit_isr_rx.c **** 
 119:.\Generated_Source\PSoC5/Telit_isr_rx.c **** 
 120:.\Generated_Source\PSoC5/Telit_isr_rx.c **** /*******************************************************************************
 121:.\Generated_Source\PSoC5/Telit_isr_rx.c **** * Function Name: Telit_isr_rx_Stop
 122:.\Generated_Source\PSoC5/Telit_isr_rx.c **** ********************************************************************************
 123:.\Generated_Source\PSoC5/Telit_isr_rx.c **** *
 124:.\Generated_Source\PSoC5/Telit_isr_rx.c **** * Summary:
ARM GAS  C:\Users\cps\AppData\Local\Temp\ccch2zri.s 			page 5


 125:.\Generated_Source\PSoC5/Telit_isr_rx.c **** *   Disables and removes the interrupt.
 126:.\Generated_Source\PSoC5/Telit_isr_rx.c **** *
 127:.\Generated_Source\PSoC5/Telit_isr_rx.c **** * Parameters:  
 128:.\Generated_Source\PSoC5/Telit_isr_rx.c **** *   None
 129:.\Generated_Source\PSoC5/Telit_isr_rx.c **** *
 130:.\Generated_Source\PSoC5/Telit_isr_rx.c **** * Return:
 131:.\Generated_Source\PSoC5/Telit_isr_rx.c **** *   None
 132:.\Generated_Source\PSoC5/Telit_isr_rx.c **** *
 133:.\Generated_Source\PSoC5/Telit_isr_rx.c **** *******************************************************************************/
 134:.\Generated_Source\PSoC5/Telit_isr_rx.c **** void Telit_isr_rx_Stop(void)
 135:.\Generated_Source\PSoC5/Telit_isr_rx.c **** {
 105              		.loc 1 135 0
 106              		.cfi_startproc
 107              		@ args = 0, pretend = 0, frame = 0
 108              		@ frame_needed = 1, uses_anonymous_args = 0
 109 0000 80B5     		push	{r7, lr}
 110              		.cfi_def_cfa_offset 8
 111              		.cfi_offset 7, -8
 112              		.cfi_offset 14, -4
 113 0002 00AF     		add	r7, sp, #0
 114              		.cfi_def_cfa_register 7
 136:.\Generated_Source\PSoC5/Telit_isr_rx.c ****     /* Disable this interrupt. */
 137:.\Generated_Source\PSoC5/Telit_isr_rx.c ****     Telit_isr_rx_Disable();
 115              		.loc 1 137 0
 116 0004 FFF7FEFF 		bl	Telit_isr_rx_Disable
 138:.\Generated_Source\PSoC5/Telit_isr_rx.c **** 
 139:.\Generated_Source\PSoC5/Telit_isr_rx.c ****     /* Set the ISR to point to the passive one. */
 140:.\Generated_Source\PSoC5/Telit_isr_rx.c ****     Telit_isr_rx_SetVector(&IntDefaultHandler);
 117              		.loc 1 140 0
 118 0008 0148     		ldr	r0, .L6
 119 000a FFF7FEFF 		bl	Telit_isr_rx_SetVector
 141:.\Generated_Source\PSoC5/Telit_isr_rx.c **** }
 120              		.loc 1 141 0
 121 000e 80BD     		pop	{r7, pc}
 122              	.L7:
 123              		.align	2
 124              	.L6:
 125 0010 00000000 		.word	IntDefaultHandler
 126              		.cfi_endproc
 127              	.LFE2:
 128              		.size	Telit_isr_rx_Stop, .-Telit_isr_rx_Stop
 129              		.section	.text.Telit_isr_rx_Interrupt,"ax",%progbits
 130              		.align	2
 131              		.global	Telit_isr_rx_Interrupt
 132              		.thumb
 133              		.thumb_func
 134              		.type	Telit_isr_rx_Interrupt, %function
 135              	Telit_isr_rx_Interrupt:
 136              	.LFB3:
 142:.\Generated_Source\PSoC5/Telit_isr_rx.c **** 
 143:.\Generated_Source\PSoC5/Telit_isr_rx.c **** 
 144:.\Generated_Source\PSoC5/Telit_isr_rx.c **** /*******************************************************************************
 145:.\Generated_Source\PSoC5/Telit_isr_rx.c **** * Function Name: Telit_isr_rx_Interrupt
 146:.\Generated_Source\PSoC5/Telit_isr_rx.c **** ********************************************************************************
 147:.\Generated_Source\PSoC5/Telit_isr_rx.c **** *
 148:.\Generated_Source\PSoC5/Telit_isr_rx.c **** * Summary:
 149:.\Generated_Source\PSoC5/Telit_isr_rx.c **** *   The default Interrupt Service Routine for Telit_isr_rx.
ARM GAS  C:\Users\cps\AppData\Local\Temp\ccch2zri.s 			page 6


 150:.\Generated_Source\PSoC5/Telit_isr_rx.c **** *
 151:.\Generated_Source\PSoC5/Telit_isr_rx.c **** *   Add custom code between the coments to keep the next version of this file
 152:.\Generated_Source\PSoC5/Telit_isr_rx.c **** *   from over writting your code.
 153:.\Generated_Source\PSoC5/Telit_isr_rx.c **** *
 154:.\Generated_Source\PSoC5/Telit_isr_rx.c **** * Parameters:  
 155:.\Generated_Source\PSoC5/Telit_isr_rx.c **** *
 156:.\Generated_Source\PSoC5/Telit_isr_rx.c **** * Return:
 157:.\Generated_Source\PSoC5/Telit_isr_rx.c **** *   None
 158:.\Generated_Source\PSoC5/Telit_isr_rx.c **** *
 159:.\Generated_Source\PSoC5/Telit_isr_rx.c **** *******************************************************************************/
 160:.\Generated_Source\PSoC5/Telit_isr_rx.c **** CY_ISR(Telit_isr_rx_Interrupt)
 161:.\Generated_Source\PSoC5/Telit_isr_rx.c **** {
 137              		.loc 1 161 0
 138              		.cfi_startproc
 139              		@ args = 0, pretend = 0, frame = 0
 140              		@ frame_needed = 1, uses_anonymous_args = 0
 141              		@ link register save eliminated.
 142 0000 80B4     		push	{r7}
 143              		.cfi_def_cfa_offset 4
 144              		.cfi_offset 7, -4
 145 0002 00AF     		add	r7, sp, #0
 146              		.cfi_def_cfa_register 7
 162:.\Generated_Source\PSoC5/Telit_isr_rx.c ****     #ifdef Telit_isr_rx_INTERRUPT_INTERRUPT_CALLBACK
 163:.\Generated_Source\PSoC5/Telit_isr_rx.c ****         Telit_isr_rx_Interrupt_InterruptCallback();
 164:.\Generated_Source\PSoC5/Telit_isr_rx.c ****     #endif /* Telit_isr_rx_INTERRUPT_INTERRUPT_CALLBACK */ 
 165:.\Generated_Source\PSoC5/Telit_isr_rx.c **** 
 166:.\Generated_Source\PSoC5/Telit_isr_rx.c ****     /*  Place your Interrupt code here. */
 167:.\Generated_Source\PSoC5/Telit_isr_rx.c ****     /* `#START Telit_isr_rx_Interrupt` */
 168:.\Generated_Source\PSoC5/Telit_isr_rx.c **** 
 169:.\Generated_Source\PSoC5/Telit_isr_rx.c ****     /* `#END` */
 170:.\Generated_Source\PSoC5/Telit_isr_rx.c **** }
 147              		.loc 1 170 0
 148 0004 BD46     		mov	sp, r7
 149              		.cfi_def_cfa_register 13
 150              		@ sp needed
 151 0006 5DF8047B 		ldr	r7, [sp], #4
 152              		.cfi_restore 7
 153              		.cfi_def_cfa_offset 0
 154 000a 7047     		bx	lr
 155              		.cfi_endproc
 156              	.LFE3:
 157              		.size	Telit_isr_rx_Interrupt, .-Telit_isr_rx_Interrupt
 158              		.section	.text.Telit_isr_rx_SetVector,"ax",%progbits
 159              		.align	2
 160              		.global	Telit_isr_rx_SetVector
 161              		.thumb
 162              		.thumb_func
 163              		.type	Telit_isr_rx_SetVector, %function
 164              	Telit_isr_rx_SetVector:
 165              	.LFB4:
 171:.\Generated_Source\PSoC5/Telit_isr_rx.c **** 
 172:.\Generated_Source\PSoC5/Telit_isr_rx.c **** 
 173:.\Generated_Source\PSoC5/Telit_isr_rx.c **** /*******************************************************************************
 174:.\Generated_Source\PSoC5/Telit_isr_rx.c **** * Function Name: Telit_isr_rx_SetVector
 175:.\Generated_Source\PSoC5/Telit_isr_rx.c **** ********************************************************************************
 176:.\Generated_Source\PSoC5/Telit_isr_rx.c **** *
 177:.\Generated_Source\PSoC5/Telit_isr_rx.c **** * Summary:
ARM GAS  C:\Users\cps\AppData\Local\Temp\ccch2zri.s 			page 7


 178:.\Generated_Source\PSoC5/Telit_isr_rx.c **** *   Change the ISR vector for the Interrupt. Note calling Telit_isr_rx_Start
 179:.\Generated_Source\PSoC5/Telit_isr_rx.c **** *   will override any effect this method would have had. To set the vector 
 180:.\Generated_Source\PSoC5/Telit_isr_rx.c **** *   before the component has been started use Telit_isr_rx_StartEx instead.
 181:.\Generated_Source\PSoC5/Telit_isr_rx.c **** * 
 182:.\Generated_Source\PSoC5/Telit_isr_rx.c **** *   When defining ISR functions, the CY_ISR and CY_ISR_PROTO macros should be 
 183:.\Generated_Source\PSoC5/Telit_isr_rx.c **** *   used to provide consistent definition across compilers:
 184:.\Generated_Source\PSoC5/Telit_isr_rx.c **** *
 185:.\Generated_Source\PSoC5/Telit_isr_rx.c **** *   Function definition example:
 186:.\Generated_Source\PSoC5/Telit_isr_rx.c **** *   CY_ISR(MyISR)
 187:.\Generated_Source\PSoC5/Telit_isr_rx.c **** *   {
 188:.\Generated_Source\PSoC5/Telit_isr_rx.c **** *   }
 189:.\Generated_Source\PSoC5/Telit_isr_rx.c **** *
 190:.\Generated_Source\PSoC5/Telit_isr_rx.c **** *   Function prototype example:
 191:.\Generated_Source\PSoC5/Telit_isr_rx.c **** *     CY_ISR_PROTO(MyISR);
 192:.\Generated_Source\PSoC5/Telit_isr_rx.c **** *
 193:.\Generated_Source\PSoC5/Telit_isr_rx.c **** * Parameters:
 194:.\Generated_Source\PSoC5/Telit_isr_rx.c **** *   address: Address of the ISR to set in the interrupt vector table.
 195:.\Generated_Source\PSoC5/Telit_isr_rx.c **** *
 196:.\Generated_Source\PSoC5/Telit_isr_rx.c **** * Return:
 197:.\Generated_Source\PSoC5/Telit_isr_rx.c **** *   None
 198:.\Generated_Source\PSoC5/Telit_isr_rx.c **** *
 199:.\Generated_Source\PSoC5/Telit_isr_rx.c **** *******************************************************************************/
 200:.\Generated_Source\PSoC5/Telit_isr_rx.c **** void Telit_isr_rx_SetVector(cyisraddress address)
 201:.\Generated_Source\PSoC5/Telit_isr_rx.c **** {
 166              		.loc 1 201 0
 167              		.cfi_startproc
 168              		@ args = 0, pretend = 0, frame = 16
 169              		@ frame_needed = 1, uses_anonymous_args = 0
 170              		@ link register save eliminated.
 171 0000 80B4     		push	{r7}
 172              		.cfi_def_cfa_offset 4
 173              		.cfi_offset 7, -4
 174 0002 85B0     		sub	sp, sp, #20
 175              		.cfi_def_cfa_offset 24
 176 0004 00AF     		add	r7, sp, #0
 177              		.cfi_def_cfa_register 7
 178 0006 7860     		str	r0, [r7, #4]
 202:.\Generated_Source\PSoC5/Telit_isr_rx.c ****     cyisraddress * ramVectorTable;
 203:.\Generated_Source\PSoC5/Telit_isr_rx.c **** 
 204:.\Generated_Source\PSoC5/Telit_isr_rx.c ****     ramVectorTable = (cyisraddress *) *CYINT_VECT_TABLE;
 179              		.loc 1 204 0
 180 0008 054B     		ldr	r3, .L10
 181 000a 1B68     		ldr	r3, [r3]
 182 000c FB60     		str	r3, [r7, #12]
 205:.\Generated_Source\PSoC5/Telit_isr_rx.c **** 
 206:.\Generated_Source\PSoC5/Telit_isr_rx.c ****     ramVectorTable[CYINT_IRQ_BASE + (uint32)Telit_isr_rx__INTC_NUMBER] = address;
 183              		.loc 1 206 0
 184 000e FB68     		ldr	r3, [r7, #12]
 185 0010 4033     		adds	r3, r3, #64
 186 0012 7A68     		ldr	r2, [r7, #4]
 187 0014 1A60     		str	r2, [r3]
 207:.\Generated_Source\PSoC5/Telit_isr_rx.c **** }
 188              		.loc 1 207 0
 189 0016 1437     		adds	r7, r7, #20
 190              		.cfi_def_cfa_offset 4
 191 0018 BD46     		mov	sp, r7
 192              		.cfi_def_cfa_register 13
ARM GAS  C:\Users\cps\AppData\Local\Temp\ccch2zri.s 			page 8


 193              		@ sp needed
 194 001a 5DF8047B 		ldr	r7, [sp], #4
 195              		.cfi_restore 7
 196              		.cfi_def_cfa_offset 0
 197 001e 7047     		bx	lr
 198              	.L11:
 199              		.align	2
 200              	.L10:
 201 0020 08ED00E0 		.word	-536810232
 202              		.cfi_endproc
 203              	.LFE4:
 204              		.size	Telit_isr_rx_SetVector, .-Telit_isr_rx_SetVector
 205              		.section	.text.Telit_isr_rx_GetVector,"ax",%progbits
 206              		.align	2
 207              		.global	Telit_isr_rx_GetVector
 208              		.thumb
 209              		.thumb_func
 210              		.type	Telit_isr_rx_GetVector, %function
 211              	Telit_isr_rx_GetVector:
 212              	.LFB5:
 208:.\Generated_Source\PSoC5/Telit_isr_rx.c **** 
 209:.\Generated_Source\PSoC5/Telit_isr_rx.c **** 
 210:.\Generated_Source\PSoC5/Telit_isr_rx.c **** /*******************************************************************************
 211:.\Generated_Source\PSoC5/Telit_isr_rx.c **** * Function Name: Telit_isr_rx_GetVector
 212:.\Generated_Source\PSoC5/Telit_isr_rx.c **** ********************************************************************************
 213:.\Generated_Source\PSoC5/Telit_isr_rx.c **** *
 214:.\Generated_Source\PSoC5/Telit_isr_rx.c **** * Summary:
 215:.\Generated_Source\PSoC5/Telit_isr_rx.c **** *   Gets the "address" of the current ISR vector for the Interrupt.
 216:.\Generated_Source\PSoC5/Telit_isr_rx.c **** *
 217:.\Generated_Source\PSoC5/Telit_isr_rx.c **** * Parameters:
 218:.\Generated_Source\PSoC5/Telit_isr_rx.c **** *   None
 219:.\Generated_Source\PSoC5/Telit_isr_rx.c **** *
 220:.\Generated_Source\PSoC5/Telit_isr_rx.c **** * Return:
 221:.\Generated_Source\PSoC5/Telit_isr_rx.c **** *   Address of the ISR in the interrupt vector table.
 222:.\Generated_Source\PSoC5/Telit_isr_rx.c **** *
 223:.\Generated_Source\PSoC5/Telit_isr_rx.c **** *******************************************************************************/
 224:.\Generated_Source\PSoC5/Telit_isr_rx.c **** cyisraddress Telit_isr_rx_GetVector(void)
 225:.\Generated_Source\PSoC5/Telit_isr_rx.c **** {
 213              		.loc 1 225 0
 214              		.cfi_startproc
 215              		@ args = 0, pretend = 0, frame = 8
 216              		@ frame_needed = 1, uses_anonymous_args = 0
 217              		@ link register save eliminated.
 218 0000 80B4     		push	{r7}
 219              		.cfi_def_cfa_offset 4
 220              		.cfi_offset 7, -4
 221 0002 83B0     		sub	sp, sp, #12
 222              		.cfi_def_cfa_offset 16
 223 0004 00AF     		add	r7, sp, #0
 224              		.cfi_def_cfa_register 7
 226:.\Generated_Source\PSoC5/Telit_isr_rx.c ****     cyisraddress * ramVectorTable;
 227:.\Generated_Source\PSoC5/Telit_isr_rx.c **** 
 228:.\Generated_Source\PSoC5/Telit_isr_rx.c ****     ramVectorTable = (cyisraddress *) *CYINT_VECT_TABLE;
 225              		.loc 1 228 0
 226 0006 054B     		ldr	r3, .L14
 227 0008 1B68     		ldr	r3, [r3]
 228 000a 7B60     		str	r3, [r7, #4]
ARM GAS  C:\Users\cps\AppData\Local\Temp\ccch2zri.s 			page 9


 229:.\Generated_Source\PSoC5/Telit_isr_rx.c **** 
 230:.\Generated_Source\PSoC5/Telit_isr_rx.c ****     return ramVectorTable[CYINT_IRQ_BASE + (uint32)Telit_isr_rx__INTC_NUMBER];
 229              		.loc 1 230 0
 230 000c 7B68     		ldr	r3, [r7, #4]
 231 000e 1B6C     		ldr	r3, [r3, #64]
 231:.\Generated_Source\PSoC5/Telit_isr_rx.c **** }
 232              		.loc 1 231 0
 233 0010 1846     		mov	r0, r3
 234 0012 0C37     		adds	r7, r7, #12
 235              		.cfi_def_cfa_offset 4
 236 0014 BD46     		mov	sp, r7
 237              		.cfi_def_cfa_register 13
 238              		@ sp needed
 239 0016 5DF8047B 		ldr	r7, [sp], #4
 240              		.cfi_restore 7
 241              		.cfi_def_cfa_offset 0
 242 001a 7047     		bx	lr
 243              	.L15:
 244              		.align	2
 245              	.L14:
 246 001c 08ED00E0 		.word	-536810232
 247              		.cfi_endproc
 248              	.LFE5:
 249              		.size	Telit_isr_rx_GetVector, .-Telit_isr_rx_GetVector
 250              		.section	.text.Telit_isr_rx_SetPriority,"ax",%progbits
 251              		.align	2
 252              		.global	Telit_isr_rx_SetPriority
 253              		.thumb
 254              		.thumb_func
 255              		.type	Telit_isr_rx_SetPriority, %function
 256              	Telit_isr_rx_SetPriority:
 257              	.LFB6:
 232:.\Generated_Source\PSoC5/Telit_isr_rx.c **** 
 233:.\Generated_Source\PSoC5/Telit_isr_rx.c **** 
 234:.\Generated_Source\PSoC5/Telit_isr_rx.c **** /*******************************************************************************
 235:.\Generated_Source\PSoC5/Telit_isr_rx.c **** * Function Name: Telit_isr_rx_SetPriority
 236:.\Generated_Source\PSoC5/Telit_isr_rx.c **** ********************************************************************************
 237:.\Generated_Source\PSoC5/Telit_isr_rx.c **** *
 238:.\Generated_Source\PSoC5/Telit_isr_rx.c **** * Summary:
 239:.\Generated_Source\PSoC5/Telit_isr_rx.c **** *   Sets the Priority of the Interrupt. 
 240:.\Generated_Source\PSoC5/Telit_isr_rx.c **** *
 241:.\Generated_Source\PSoC5/Telit_isr_rx.c **** *   Note calling Telit_isr_rx_Start or Telit_isr_rx_StartEx will 
 242:.\Generated_Source\PSoC5/Telit_isr_rx.c **** *   override any effect this API would have had. This API should only be called
 243:.\Generated_Source\PSoC5/Telit_isr_rx.c **** *   after Telit_isr_rx_Start or Telit_isr_rx_StartEx has been called. 
 244:.\Generated_Source\PSoC5/Telit_isr_rx.c **** *   To set the initial priority for the component, use the Design-Wide Resources
 245:.\Generated_Source\PSoC5/Telit_isr_rx.c **** *   Interrupt Editor.
 246:.\Generated_Source\PSoC5/Telit_isr_rx.c **** *
 247:.\Generated_Source\PSoC5/Telit_isr_rx.c **** *   Note This API has no effect on Non-maskable interrupt NMI).
 248:.\Generated_Source\PSoC5/Telit_isr_rx.c **** *
 249:.\Generated_Source\PSoC5/Telit_isr_rx.c **** * Parameters:
 250:.\Generated_Source\PSoC5/Telit_isr_rx.c **** *   priority: Priority of the interrupt, 0 being the highest priority
 251:.\Generated_Source\PSoC5/Telit_isr_rx.c **** *             PSoC 3 and PSoC 5LP: Priority is from 0 to 7.
 252:.\Generated_Source\PSoC5/Telit_isr_rx.c **** *             PSoC 4: Priority is from 0 to 3.
 253:.\Generated_Source\PSoC5/Telit_isr_rx.c **** *
 254:.\Generated_Source\PSoC5/Telit_isr_rx.c **** * Return:
 255:.\Generated_Source\PSoC5/Telit_isr_rx.c **** *   None
 256:.\Generated_Source\PSoC5/Telit_isr_rx.c **** *
ARM GAS  C:\Users\cps\AppData\Local\Temp\ccch2zri.s 			page 10


 257:.\Generated_Source\PSoC5/Telit_isr_rx.c **** *******************************************************************************/
 258:.\Generated_Source\PSoC5/Telit_isr_rx.c **** void Telit_isr_rx_SetPriority(uint8 priority)
 259:.\Generated_Source\PSoC5/Telit_isr_rx.c **** {
 258              		.loc 1 259 0
 259              		.cfi_startproc
 260              		@ args = 0, pretend = 0, frame = 8
 261              		@ frame_needed = 1, uses_anonymous_args = 0
 262              		@ link register save eliminated.
 263 0000 80B4     		push	{r7}
 264              		.cfi_def_cfa_offset 4
 265              		.cfi_offset 7, -4
 266 0002 83B0     		sub	sp, sp, #12
 267              		.cfi_def_cfa_offset 16
 268 0004 00AF     		add	r7, sp, #0
 269              		.cfi_def_cfa_register 7
 270 0006 0346     		mov	r3, r0
 271 0008 FB71     		strb	r3, [r7, #7]
 260:.\Generated_Source\PSoC5/Telit_isr_rx.c ****     *Telit_isr_rx_INTC_PRIOR = priority << 5;
 272              		.loc 1 260 0
 273 000a 054A     		ldr	r2, .L17
 274 000c FB79     		ldrb	r3, [r7, #7]
 275 000e 5B01     		lsls	r3, r3, #5
 276 0010 DBB2     		uxtb	r3, r3
 277 0012 1370     		strb	r3, [r2]
 261:.\Generated_Source\PSoC5/Telit_isr_rx.c **** }
 278              		.loc 1 261 0
 279 0014 0C37     		adds	r7, r7, #12
 280              		.cfi_def_cfa_offset 4
 281 0016 BD46     		mov	sp, r7
 282              		.cfi_def_cfa_register 13
 283              		@ sp needed
 284 0018 5DF8047B 		ldr	r7, [sp], #4
 285              		.cfi_restore 7
 286              		.cfi_def_cfa_offset 0
 287 001c 7047     		bx	lr
 288              	.L18:
 289 001e 00BF     		.align	2
 290              	.L17:
 291 0020 00E400E0 		.word	-536812544
 292              		.cfi_endproc
 293              	.LFE6:
 294              		.size	Telit_isr_rx_SetPriority, .-Telit_isr_rx_SetPriority
 295              		.section	.text.Telit_isr_rx_GetPriority,"ax",%progbits
 296              		.align	2
 297              		.global	Telit_isr_rx_GetPriority
 298              		.thumb
 299              		.thumb_func
 300              		.type	Telit_isr_rx_GetPriority, %function
 301              	Telit_isr_rx_GetPriority:
 302              	.LFB7:
 262:.\Generated_Source\PSoC5/Telit_isr_rx.c **** 
 263:.\Generated_Source\PSoC5/Telit_isr_rx.c **** 
 264:.\Generated_Source\PSoC5/Telit_isr_rx.c **** /*******************************************************************************
 265:.\Generated_Source\PSoC5/Telit_isr_rx.c **** * Function Name: Telit_isr_rx_GetPriority
 266:.\Generated_Source\PSoC5/Telit_isr_rx.c **** ********************************************************************************
 267:.\Generated_Source\PSoC5/Telit_isr_rx.c **** *
 268:.\Generated_Source\PSoC5/Telit_isr_rx.c **** * Summary:
ARM GAS  C:\Users\cps\AppData\Local\Temp\ccch2zri.s 			page 11


 269:.\Generated_Source\PSoC5/Telit_isr_rx.c **** *   Gets the Priority of the Interrupt.
 270:.\Generated_Source\PSoC5/Telit_isr_rx.c **** *
 271:.\Generated_Source\PSoC5/Telit_isr_rx.c **** * Parameters:
 272:.\Generated_Source\PSoC5/Telit_isr_rx.c **** *   None
 273:.\Generated_Source\PSoC5/Telit_isr_rx.c **** *
 274:.\Generated_Source\PSoC5/Telit_isr_rx.c **** * Return:
 275:.\Generated_Source\PSoC5/Telit_isr_rx.c **** *   Priority of the interrupt, 0 being the highest priority
 276:.\Generated_Source\PSoC5/Telit_isr_rx.c **** *    PSoC 3 and PSoC 5LP: Priority is from 0 to 7.
 277:.\Generated_Source\PSoC5/Telit_isr_rx.c **** *    PSoC 4: Priority is from 0 to 3.
 278:.\Generated_Source\PSoC5/Telit_isr_rx.c **** *
 279:.\Generated_Source\PSoC5/Telit_isr_rx.c **** *******************************************************************************/
 280:.\Generated_Source\PSoC5/Telit_isr_rx.c **** uint8 Telit_isr_rx_GetPriority(void)
 281:.\Generated_Source\PSoC5/Telit_isr_rx.c **** {
 303              		.loc 1 281 0
 304              		.cfi_startproc
 305              		@ args = 0, pretend = 0, frame = 8
 306              		@ frame_needed = 1, uses_anonymous_args = 0
 307              		@ link register save eliminated.
 308 0000 80B4     		push	{r7}
 309              		.cfi_def_cfa_offset 4
 310              		.cfi_offset 7, -4
 311 0002 83B0     		sub	sp, sp, #12
 312              		.cfi_def_cfa_offset 16
 313 0004 00AF     		add	r7, sp, #0
 314              		.cfi_def_cfa_register 7
 282:.\Generated_Source\PSoC5/Telit_isr_rx.c ****     uint8 priority;
 283:.\Generated_Source\PSoC5/Telit_isr_rx.c **** 
 284:.\Generated_Source\PSoC5/Telit_isr_rx.c **** 
 285:.\Generated_Source\PSoC5/Telit_isr_rx.c ****     priority = *Telit_isr_rx_INTC_PRIOR >> 5;
 315              		.loc 1 285 0
 316 0006 064B     		ldr	r3, .L21
 317 0008 1B78     		ldrb	r3, [r3]
 318 000a DBB2     		uxtb	r3, r3
 319 000c 5B09     		lsrs	r3, r3, #5
 320 000e FB71     		strb	r3, [r7, #7]
 286:.\Generated_Source\PSoC5/Telit_isr_rx.c **** 
 287:.\Generated_Source\PSoC5/Telit_isr_rx.c ****     return priority;
 321              		.loc 1 287 0
 322 0010 FB79     		ldrb	r3, [r7, #7]	@ zero_extendqisi2
 288:.\Generated_Source\PSoC5/Telit_isr_rx.c **** }
 323              		.loc 1 288 0
 324 0012 1846     		mov	r0, r3
 325 0014 0C37     		adds	r7, r7, #12
 326              		.cfi_def_cfa_offset 4
 327 0016 BD46     		mov	sp, r7
 328              		.cfi_def_cfa_register 13
 329              		@ sp needed
 330 0018 5DF8047B 		ldr	r7, [sp], #4
 331              		.cfi_restore 7
 332              		.cfi_def_cfa_offset 0
 333 001c 7047     		bx	lr
 334              	.L22:
 335 001e 00BF     		.align	2
 336              	.L21:
 337 0020 00E400E0 		.word	-536812544
 338              		.cfi_endproc
 339              	.LFE7:
ARM GAS  C:\Users\cps\AppData\Local\Temp\ccch2zri.s 			page 12


 340              		.size	Telit_isr_rx_GetPriority, .-Telit_isr_rx_GetPriority
 341              		.section	.text.Telit_isr_rx_Enable,"ax",%progbits
 342              		.align	2
 343              		.global	Telit_isr_rx_Enable
 344              		.thumb
 345              		.thumb_func
 346              		.type	Telit_isr_rx_Enable, %function
 347              	Telit_isr_rx_Enable:
 348              	.LFB8:
 289:.\Generated_Source\PSoC5/Telit_isr_rx.c **** 
 290:.\Generated_Source\PSoC5/Telit_isr_rx.c **** 
 291:.\Generated_Source\PSoC5/Telit_isr_rx.c **** /*******************************************************************************
 292:.\Generated_Source\PSoC5/Telit_isr_rx.c **** * Function Name: Telit_isr_rx_Enable
 293:.\Generated_Source\PSoC5/Telit_isr_rx.c **** ********************************************************************************
 294:.\Generated_Source\PSoC5/Telit_isr_rx.c **** *
 295:.\Generated_Source\PSoC5/Telit_isr_rx.c **** * Summary:
 296:.\Generated_Source\PSoC5/Telit_isr_rx.c **** *   Enables the interrupt to the interrupt controller. Do not call this function
 297:.\Generated_Source\PSoC5/Telit_isr_rx.c **** *   unless ISR_Start() has been called or the functionality of the ISR_Start() 
 298:.\Generated_Source\PSoC5/Telit_isr_rx.c **** *   function, which sets the vector and the priority, has been called.
 299:.\Generated_Source\PSoC5/Telit_isr_rx.c **** *
 300:.\Generated_Source\PSoC5/Telit_isr_rx.c **** * Parameters:
 301:.\Generated_Source\PSoC5/Telit_isr_rx.c **** *   None
 302:.\Generated_Source\PSoC5/Telit_isr_rx.c **** *
 303:.\Generated_Source\PSoC5/Telit_isr_rx.c **** * Return:
 304:.\Generated_Source\PSoC5/Telit_isr_rx.c **** *   None
 305:.\Generated_Source\PSoC5/Telit_isr_rx.c **** *
 306:.\Generated_Source\PSoC5/Telit_isr_rx.c **** *******************************************************************************/
 307:.\Generated_Source\PSoC5/Telit_isr_rx.c **** void Telit_isr_rx_Enable(void)
 308:.\Generated_Source\PSoC5/Telit_isr_rx.c **** {
 349              		.loc 1 308 0
 350              		.cfi_startproc
 351              		@ args = 0, pretend = 0, frame = 0
 352              		@ frame_needed = 1, uses_anonymous_args = 0
 353              		@ link register save eliminated.
 354 0000 80B4     		push	{r7}
 355              		.cfi_def_cfa_offset 4
 356              		.cfi_offset 7, -4
 357 0002 00AF     		add	r7, sp, #0
 358              		.cfi_def_cfa_register 7
 309:.\Generated_Source\PSoC5/Telit_isr_rx.c ****     /* Enable the general interrupt. */
 310:.\Generated_Source\PSoC5/Telit_isr_rx.c ****     *Telit_isr_rx_INTC_SET_EN = Telit_isr_rx__INTC_MASK;
 359              		.loc 1 310 0
 360 0004 034B     		ldr	r3, .L24
 361 0006 0122     		movs	r2, #1
 362 0008 1A60     		str	r2, [r3]
 311:.\Generated_Source\PSoC5/Telit_isr_rx.c **** }
 363              		.loc 1 311 0
 364 000a BD46     		mov	sp, r7
 365              		.cfi_def_cfa_register 13
 366              		@ sp needed
 367 000c 5DF8047B 		ldr	r7, [sp], #4
 368              		.cfi_restore 7
 369              		.cfi_def_cfa_offset 0
 370 0010 7047     		bx	lr
 371              	.L25:
 372 0012 00BF     		.align	2
 373              	.L24:
ARM GAS  C:\Users\cps\AppData\Local\Temp\ccch2zri.s 			page 13


 374 0014 00E100E0 		.word	-536813312
 375              		.cfi_endproc
 376              	.LFE8:
 377              		.size	Telit_isr_rx_Enable, .-Telit_isr_rx_Enable
 378              		.section	.text.Telit_isr_rx_GetState,"ax",%progbits
 379              		.align	2
 380              		.global	Telit_isr_rx_GetState
 381              		.thumb
 382              		.thumb_func
 383              		.type	Telit_isr_rx_GetState, %function
 384              	Telit_isr_rx_GetState:
 385              	.LFB9:
 312:.\Generated_Source\PSoC5/Telit_isr_rx.c **** 
 313:.\Generated_Source\PSoC5/Telit_isr_rx.c **** 
 314:.\Generated_Source\PSoC5/Telit_isr_rx.c **** /*******************************************************************************
 315:.\Generated_Source\PSoC5/Telit_isr_rx.c **** * Function Name: Telit_isr_rx_GetState
 316:.\Generated_Source\PSoC5/Telit_isr_rx.c **** ********************************************************************************
 317:.\Generated_Source\PSoC5/Telit_isr_rx.c **** *
 318:.\Generated_Source\PSoC5/Telit_isr_rx.c **** * Summary:
 319:.\Generated_Source\PSoC5/Telit_isr_rx.c **** *   Gets the state (enabled, disabled) of the Interrupt.
 320:.\Generated_Source\PSoC5/Telit_isr_rx.c **** *
 321:.\Generated_Source\PSoC5/Telit_isr_rx.c **** * Parameters:
 322:.\Generated_Source\PSoC5/Telit_isr_rx.c **** *   None
 323:.\Generated_Source\PSoC5/Telit_isr_rx.c **** *
 324:.\Generated_Source\PSoC5/Telit_isr_rx.c **** * Return:
 325:.\Generated_Source\PSoC5/Telit_isr_rx.c **** *   1 if enabled, 0 if disabled.
 326:.\Generated_Source\PSoC5/Telit_isr_rx.c **** *
 327:.\Generated_Source\PSoC5/Telit_isr_rx.c **** *******************************************************************************/
 328:.\Generated_Source\PSoC5/Telit_isr_rx.c **** uint8 Telit_isr_rx_GetState(void)
 329:.\Generated_Source\PSoC5/Telit_isr_rx.c **** {
 386              		.loc 1 329 0
 387              		.cfi_startproc
 388              		@ args = 0, pretend = 0, frame = 0
 389              		@ frame_needed = 1, uses_anonymous_args = 0
 390              		@ link register save eliminated.
 391 0000 80B4     		push	{r7}
 392              		.cfi_def_cfa_offset 4
 393              		.cfi_offset 7, -4
 394 0002 00AF     		add	r7, sp, #0
 395              		.cfi_def_cfa_register 7
 330:.\Generated_Source\PSoC5/Telit_isr_rx.c ****     /* Get the state of the general interrupt. */
 331:.\Generated_Source\PSoC5/Telit_isr_rx.c ****     return ((*Telit_isr_rx_INTC_SET_EN & (uint32)Telit_isr_rx__INTC_MASK) != 0u) ? 1u:0u;
 396              		.loc 1 331 0
 397 0004 054B     		ldr	r3, .L28
 398 0006 1B68     		ldr	r3, [r3]
 399 0008 DBB2     		uxtb	r3, r3
 400 000a 03F00103 		and	r3, r3, #1
 401 000e DBB2     		uxtb	r3, r3
 332:.\Generated_Source\PSoC5/Telit_isr_rx.c **** }
 402              		.loc 1 332 0
 403 0010 1846     		mov	r0, r3
 404 0012 BD46     		mov	sp, r7
 405              		.cfi_def_cfa_register 13
 406              		@ sp needed
 407 0014 5DF8047B 		ldr	r7, [sp], #4
 408              		.cfi_restore 7
 409              		.cfi_def_cfa_offset 0
ARM GAS  C:\Users\cps\AppData\Local\Temp\ccch2zri.s 			page 14


 410 0018 7047     		bx	lr
 411              	.L29:
 412 001a 00BF     		.align	2
 413              	.L28:
 414 001c 00E100E0 		.word	-536813312
 415              		.cfi_endproc
 416              	.LFE9:
 417              		.size	Telit_isr_rx_GetState, .-Telit_isr_rx_GetState
 418              		.section	.text.Telit_isr_rx_Disable,"ax",%progbits
 419              		.align	2
 420              		.global	Telit_isr_rx_Disable
 421              		.thumb
 422              		.thumb_func
 423              		.type	Telit_isr_rx_Disable, %function
 424              	Telit_isr_rx_Disable:
 425              	.LFB10:
 333:.\Generated_Source\PSoC5/Telit_isr_rx.c **** 
 334:.\Generated_Source\PSoC5/Telit_isr_rx.c **** 
 335:.\Generated_Source\PSoC5/Telit_isr_rx.c **** /*******************************************************************************
 336:.\Generated_Source\PSoC5/Telit_isr_rx.c **** * Function Name: Telit_isr_rx_Disable
 337:.\Generated_Source\PSoC5/Telit_isr_rx.c **** ********************************************************************************
 338:.\Generated_Source\PSoC5/Telit_isr_rx.c **** *
 339:.\Generated_Source\PSoC5/Telit_isr_rx.c **** * Summary:
 340:.\Generated_Source\PSoC5/Telit_isr_rx.c **** *   Disables the Interrupt in the interrupt controller.
 341:.\Generated_Source\PSoC5/Telit_isr_rx.c **** *
 342:.\Generated_Source\PSoC5/Telit_isr_rx.c **** * Parameters:
 343:.\Generated_Source\PSoC5/Telit_isr_rx.c **** *   None
 344:.\Generated_Source\PSoC5/Telit_isr_rx.c **** *
 345:.\Generated_Source\PSoC5/Telit_isr_rx.c **** * Return:
 346:.\Generated_Source\PSoC5/Telit_isr_rx.c **** *   None
 347:.\Generated_Source\PSoC5/Telit_isr_rx.c **** *
 348:.\Generated_Source\PSoC5/Telit_isr_rx.c **** *******************************************************************************/
 349:.\Generated_Source\PSoC5/Telit_isr_rx.c **** void Telit_isr_rx_Disable(void)
 350:.\Generated_Source\PSoC5/Telit_isr_rx.c **** {
 426              		.loc 1 350 0
 427              		.cfi_startproc
 428              		@ args = 0, pretend = 0, frame = 0
 429              		@ frame_needed = 1, uses_anonymous_args = 0
 430              		@ link register save eliminated.
 431 0000 80B4     		push	{r7}
 432              		.cfi_def_cfa_offset 4
 433              		.cfi_offset 7, -4
 434 0002 00AF     		add	r7, sp, #0
 435              		.cfi_def_cfa_register 7
 351:.\Generated_Source\PSoC5/Telit_isr_rx.c ****     /* Disable the general interrupt. */
 352:.\Generated_Source\PSoC5/Telit_isr_rx.c ****     *Telit_isr_rx_INTC_CLR_EN = Telit_isr_rx__INTC_MASK;
 436              		.loc 1 352 0
 437 0004 034B     		ldr	r3, .L31
 438 0006 0122     		movs	r2, #1
 439 0008 1A60     		str	r2, [r3]
 353:.\Generated_Source\PSoC5/Telit_isr_rx.c **** }
 440              		.loc 1 353 0
 441 000a BD46     		mov	sp, r7
 442              		.cfi_def_cfa_register 13
 443              		@ sp needed
 444 000c 5DF8047B 		ldr	r7, [sp], #4
 445              		.cfi_restore 7
ARM GAS  C:\Users\cps\AppData\Local\Temp\ccch2zri.s 			page 15


 446              		.cfi_def_cfa_offset 0
 447 0010 7047     		bx	lr
 448              	.L32:
 449 0012 00BF     		.align	2
 450              	.L31:
 451 0014 80E100E0 		.word	-536813184
 452              		.cfi_endproc
 453              	.LFE10:
 454              		.size	Telit_isr_rx_Disable, .-Telit_isr_rx_Disable
 455              		.section	.text.Telit_isr_rx_SetPending,"ax",%progbits
 456              		.align	2
 457              		.global	Telit_isr_rx_SetPending
 458              		.thumb
 459              		.thumb_func
 460              		.type	Telit_isr_rx_SetPending, %function
 461              	Telit_isr_rx_SetPending:
 462              	.LFB11:
 354:.\Generated_Source\PSoC5/Telit_isr_rx.c **** 
 355:.\Generated_Source\PSoC5/Telit_isr_rx.c **** 
 356:.\Generated_Source\PSoC5/Telit_isr_rx.c **** /*******************************************************************************
 357:.\Generated_Source\PSoC5/Telit_isr_rx.c **** * Function Name: Telit_isr_rx_SetPending
 358:.\Generated_Source\PSoC5/Telit_isr_rx.c **** ********************************************************************************
 359:.\Generated_Source\PSoC5/Telit_isr_rx.c **** *
 360:.\Generated_Source\PSoC5/Telit_isr_rx.c **** * Summary:
 361:.\Generated_Source\PSoC5/Telit_isr_rx.c **** *   Causes the Interrupt to enter the pending state, a software method of
 362:.\Generated_Source\PSoC5/Telit_isr_rx.c **** *   generating the interrupt.
 363:.\Generated_Source\PSoC5/Telit_isr_rx.c **** *
 364:.\Generated_Source\PSoC5/Telit_isr_rx.c **** * Parameters:
 365:.\Generated_Source\PSoC5/Telit_isr_rx.c **** *   None
 366:.\Generated_Source\PSoC5/Telit_isr_rx.c **** *
 367:.\Generated_Source\PSoC5/Telit_isr_rx.c **** * Return:
 368:.\Generated_Source\PSoC5/Telit_isr_rx.c **** *   None
 369:.\Generated_Source\PSoC5/Telit_isr_rx.c **** *
 370:.\Generated_Source\PSoC5/Telit_isr_rx.c **** * Side Effects:
 371:.\Generated_Source\PSoC5/Telit_isr_rx.c **** *   If interrupts are enabled and the interrupt is set up properly, the ISR is
 372:.\Generated_Source\PSoC5/Telit_isr_rx.c **** *   entered (depending on the priority of this interrupt and other pending 
 373:.\Generated_Source\PSoC5/Telit_isr_rx.c **** *   interrupts).
 374:.\Generated_Source\PSoC5/Telit_isr_rx.c **** *
 375:.\Generated_Source\PSoC5/Telit_isr_rx.c **** *******************************************************************************/
 376:.\Generated_Source\PSoC5/Telit_isr_rx.c **** void Telit_isr_rx_SetPending(void)
 377:.\Generated_Source\PSoC5/Telit_isr_rx.c **** {
 463              		.loc 1 377 0
 464              		.cfi_startproc
 465              		@ args = 0, pretend = 0, frame = 0
 466              		@ frame_needed = 1, uses_anonymous_args = 0
 467              		@ link register save eliminated.
 468 0000 80B4     		push	{r7}
 469              		.cfi_def_cfa_offset 4
 470              		.cfi_offset 7, -4
 471 0002 00AF     		add	r7, sp, #0
 472              		.cfi_def_cfa_register 7
 378:.\Generated_Source\PSoC5/Telit_isr_rx.c ****     *Telit_isr_rx_INTC_SET_PD = Telit_isr_rx__INTC_MASK;
 473              		.loc 1 378 0
 474 0004 034B     		ldr	r3, .L34
 475 0006 0122     		movs	r2, #1
 476 0008 1A60     		str	r2, [r3]
 379:.\Generated_Source\PSoC5/Telit_isr_rx.c **** }
ARM GAS  C:\Users\cps\AppData\Local\Temp\ccch2zri.s 			page 16


 477              		.loc 1 379 0
 478 000a BD46     		mov	sp, r7
 479              		.cfi_def_cfa_register 13
 480              		@ sp needed
 481 000c 5DF8047B 		ldr	r7, [sp], #4
 482              		.cfi_restore 7
 483              		.cfi_def_cfa_offset 0
 484 0010 7047     		bx	lr
 485              	.L35:
 486 0012 00BF     		.align	2
 487              	.L34:
 488 0014 00E200E0 		.word	-536813056
 489              		.cfi_endproc
 490              	.LFE11:
 491              		.size	Telit_isr_rx_SetPending, .-Telit_isr_rx_SetPending
 492              		.section	.text.Telit_isr_rx_ClearPending,"ax",%progbits
 493              		.align	2
 494              		.global	Telit_isr_rx_ClearPending
 495              		.thumb
 496              		.thumb_func
 497              		.type	Telit_isr_rx_ClearPending, %function
 498              	Telit_isr_rx_ClearPending:
 499              	.LFB12:
 380:.\Generated_Source\PSoC5/Telit_isr_rx.c **** 
 381:.\Generated_Source\PSoC5/Telit_isr_rx.c **** 
 382:.\Generated_Source\PSoC5/Telit_isr_rx.c **** /*******************************************************************************
 383:.\Generated_Source\PSoC5/Telit_isr_rx.c **** * Function Name: Telit_isr_rx_ClearPending
 384:.\Generated_Source\PSoC5/Telit_isr_rx.c **** ********************************************************************************
 385:.\Generated_Source\PSoC5/Telit_isr_rx.c **** *
 386:.\Generated_Source\PSoC5/Telit_isr_rx.c **** * Summary:
 387:.\Generated_Source\PSoC5/Telit_isr_rx.c **** *   Clears a pending interrupt in the interrupt controller.
 388:.\Generated_Source\PSoC5/Telit_isr_rx.c **** *
 389:.\Generated_Source\PSoC5/Telit_isr_rx.c **** *   Note Some interrupt sources are clear-on-read and require the block 
 390:.\Generated_Source\PSoC5/Telit_isr_rx.c **** *   interrupt/status register to be read/cleared with the appropriate block API 
 391:.\Generated_Source\PSoC5/Telit_isr_rx.c **** *   (GPIO, UART, and so on). Otherwise the ISR will continue to remain in 
 392:.\Generated_Source\PSoC5/Telit_isr_rx.c **** *   pending state even though the interrupt itself is cleared using this API.
 393:.\Generated_Source\PSoC5/Telit_isr_rx.c **** *
 394:.\Generated_Source\PSoC5/Telit_isr_rx.c **** * Parameters:
 395:.\Generated_Source\PSoC5/Telit_isr_rx.c **** *   None
 396:.\Generated_Source\PSoC5/Telit_isr_rx.c **** *
 397:.\Generated_Source\PSoC5/Telit_isr_rx.c **** * Return:
 398:.\Generated_Source\PSoC5/Telit_isr_rx.c **** *   None
 399:.\Generated_Source\PSoC5/Telit_isr_rx.c **** *
 400:.\Generated_Source\PSoC5/Telit_isr_rx.c **** *******************************************************************************/
 401:.\Generated_Source\PSoC5/Telit_isr_rx.c **** void Telit_isr_rx_ClearPending(void)
 402:.\Generated_Source\PSoC5/Telit_isr_rx.c **** {
 500              		.loc 1 402 0
 501              		.cfi_startproc
 502              		@ args = 0, pretend = 0, frame = 0
 503              		@ frame_needed = 1, uses_anonymous_args = 0
 504              		@ link register save eliminated.
 505 0000 80B4     		push	{r7}
 506              		.cfi_def_cfa_offset 4
 507              		.cfi_offset 7, -4
 508 0002 00AF     		add	r7, sp, #0
 509              		.cfi_def_cfa_register 7
 403:.\Generated_Source\PSoC5/Telit_isr_rx.c ****     *Telit_isr_rx_INTC_CLR_PD = Telit_isr_rx__INTC_MASK;
ARM GAS  C:\Users\cps\AppData\Local\Temp\ccch2zri.s 			page 17


 510              		.loc 1 403 0
 511 0004 034B     		ldr	r3, .L37
 512 0006 0122     		movs	r2, #1
 513 0008 1A60     		str	r2, [r3]
 404:.\Generated_Source\PSoC5/Telit_isr_rx.c **** }
 514              		.loc 1 404 0
 515 000a BD46     		mov	sp, r7
 516              		.cfi_def_cfa_register 13
 517              		@ sp needed
 518 000c 5DF8047B 		ldr	r7, [sp], #4
 519              		.cfi_restore 7
 520              		.cfi_def_cfa_offset 0
 521 0010 7047     		bx	lr
 522              	.L38:
 523 0012 00BF     		.align	2
 524              	.L37:
 525 0014 80E200E0 		.word	-536812928
 526              		.cfi_endproc
 527              	.LFE12:
 528              		.size	Telit_isr_rx_ClearPending, .-Telit_isr_rx_ClearPending
 529              		.text
 530              	.Letext0:
 531              		.file 2 "Generated_Source\\PSoC5/cytypes.h"