ARM GAS  C:\Users\karunmj\AppData\Local\Temp\ccSLdOKF.s 			page 1


   1              		.syntax unified
   2              		.cpu cortex-m3
   3              		.fpu softvfp
   4              		.eabi_attribute 20, 1
   5              		.eabi_attribute 21, 1
   6              		.eabi_attribute 23, 3
   7              		.eabi_attribute 24, 1
   8              		.eabi_attribute 25, 1
   9              		.eabi_attribute 26, 1
  10              		.eabi_attribute 30, 6
  11              		.eabi_attribute 18, 4
  12              		.thumb
  13              		.file	"main.c"
  20 0000 96010000 		.text
  20      0200C400 
  20      00000201 
  20      FB0E0D00 
  20      01010101 
  21              	.Ltext0:
  22              		.cfi_sections	.debug_frame
  23              		.global	API_KEY
  24              		.section	.rodata
  25              		.align	2
  26              	.LC0:
  27 0000 37696E6B 		.ascii	"7inkCfgjLCcSq6t2E3RC7OnmZykBUXEU8Yv7K56c7JYUOxdn\000"
  27      4366676A 
  27      4C436353 
  27      71367432 
  27      45335243 
  28              		.data
  29              		.align	2
  30              		.type	API_KEY, %object
  31              		.size	API_KEY, 4
  32              	API_KEY:
  33 0000 00000000 		.word	.LC0
  34              		.global	data_packet
  35              		.bss
  36              		.align	2
  37              		.type	data_packet, %object
  38              		.size	data_packet, 1000
  39              	data_packet:
  40 0000 00000000 		.space	1000
  40      00000000 
  40      00000000 
  40      00000000 
  40      00000000 
  41              		.global	debug_packet
  42              		.align	2
  43              		.type	debug_packet, %object
  44              		.size	debug_packet, 1000
  45              	debug_packet:
ARM GAS  C:\Users\karunmj\AppData\Local\Temp\ccSLdOKF.s 			page 2


  46 03e8 00000000 		.space	1000
  46      00000000 
  46      00000000 
  46      00000000 
  46      00000000 
  47              		.comm	packet_ready,1,1
  48              		.comm	take_reading,1,1
  49              		.comm	vBattery,4,4
  50              		.global	moteID
  51              		.data
  52              		.type	moteID, %object
  53              		.size	moteID, 1
  54              	moteID:
  55 0004 02       		.byte	2
  56              		.comm	t_sample,1,1
  57              		.comm	trigger_sampler,1,1
  58              		.comm	bottle_count,1,1
  59              		.comm	tmp,1,1
  60              		.global	ultrasonic_reading
  61 0005 000000   		.bss
  62              		.align	2
  63              		.type	ultrasonic_reading, %object
  64              		.size	ultrasonic_reading, 12
  65              	ultrasonic_reading:
  66 07d0 00000000 		.space	12
  66      00000000 
  66      00000000 
  67              		.global	solinst_reading
  68              		.align	2
  69              		.type	solinst_reading, %object
  70              		.size	solinst_reading, 12
  71              	solinst_reading:
  72 07dc 00000000 		.space	12
  72      00000000 
  72      00000000 
  73              		.section	.rodata
  74 0031 000000   		.align	2
  75              	.LC1:
  76 0034 745F7361 		.ascii	"t_sample,trigger_sampler\000"
  76      6D706C65 
  76      2C747269 
  76      67676572 
  76      5F73616D 
  77 004d 000000   		.align	2
  78              	.LC2:
  79 0050 745F7361 		.ascii	"t_sample\000"
  79      6D706C65 
  79      00
  80 0059 000000   		.align	2
  81              	.LC3:
  82 005c 74726967 		.ascii	"trigger_sampler\000"
  82      6765725F 
  82      73616D70 
  82      6C657200 
  83              		.align	2
  84              	.LC4:
  85 006c 74726967 		.ascii	"trigger_sampler, 0\000"
ARM GAS  C:\Users\karunmj\AppData\Local\Temp\ccSLdOKF.s 			page 3


  85      6765725F 
  85      73616D70 
  85      6C65722C 
  85      203000
  86 007f 00       		.align	2
  87              	.LC5:
  88 0080 626F7474 		.ascii	"bottle_count >= MAX_BOTTLE_COUNT\000"
  88      6C655F63 
  88      6F756E74 
  88      203E3D20 
  88      4D41585F 
  89 00a1 000000   		.align	2
  90              	.LC6:
  91 00a4 25732C20 		.ascii	"%s, %u\015\012\000"
  91      25750D0A 
  91      00
  92 00ad 000000   		.align	2
  93              	.LC7:
  94 00b0 626F7474 		.ascii	"bottle\000"
  94      6C6500
  95              		.global	__aeabi_f2d
  96 00b7 00       		.align	2
  97              	.LC8:
  98 00b8 25732573 		.ascii	"%s%s, %f\015\012\000"
  98      2C202566 
  98      0D0A00
  99 00c3 00       		.align	2
 100              	.LC9:
 101 00c4 64657074 		.ascii	"depth_press\000"
 101      685F7072 
 101      65737300 
 102              		.align	2
 103              	.LC10:
 104 00d0 74656D70 		.ascii	"temp_press\000"
 104      5F707265 
 104      737300
 105 00db 00       		.align	2
 106              	.LC11:
 107 00dc 64657074 		.ascii	"depth_sonic\000"
 107      685F736F 
 107      6E696300 
 108              		.align	2
 109              	.LC12:
 110 00e8 565F6261 		.ascii	"V_batt\000"
 110      747400
 111 00ef 00       		.align	2
 112              	.LC13:
 113 00f0 0D0A2564 		.ascii	"\015\012%d:%d:%d %d/%d/%d -- [ID %d] u_d=%f s_d=%f "
 113      3A25643A 
 113      25642025 
 113      642F2564 
 113      2F256420 
 114 011d 735F743D 		.ascii	"s_t=%f bottle=%d v_b=%f\000"
 114      25662062 
 114      6F74746C 
 114      653D2564 
 114      20765F62 
ARM GAS  C:\Users\karunmj\AppData\Local\Temp\ccSLdOKF.s 			page 4


 115 0135 000000   		.align	2
 116              	.LC14:
 117 0138 64617461 		.ascii	"data.txt\000"
 117      2E747874 
 117      00
 118 0141 000000   		.align	2
 119              	.LC15:
 120 0144 6100     		.ascii	"a\000"
 121 0146 0000     		.section	.text.main,"ax",%progbits
 122              		.align	2
 123              		.global	main
 124              		.thumb
 125              		.thumb_func
 126              		.type	main, %function
 127              	main:
 128              	.LFB29:
 129              		.file 1 ".\\main.c"
   1:.\main.c      **** /* M2M SMS Datalogger */ 
   2:.\main.c      **** 
   3:.\main.c      **** #include <device.h>
   4:.\main.c      **** #include <stdio.h>
   5:.\main.c      **** #include <string.h>
   6:.\main.c      **** #include <FS.h>
   7:.\main.c      **** #include "neomote.h"
   8:.\main.c      **** #include "sleep.h"
   9:.\main.c      **** #include "modem.h"
  10:.\main.c      **** #include "packet.h"
  11:.\main.c      **** #include "ultrasonic.h"
  12:.\main.c      **** #include "solinst_depth.h"
  13:.\main.c      **** #include "autosampler.h"
  14:.\main.c      **** #include "BatteryVoltage.h"
  15:.\main.c      **** #include "debug.h"
  16:.\main.c      **** 
  17:.\main.c      **** // define global variables
  18:.\main.c      **** #define WRITE_DEBUG 1
  19:.\main.c      **** #define FEED_ID 966630999
  20:.\main.c      **** 
  21:.\main.c      **** const char *API_KEY = "7inkCfgjLCcSq6t2E3RC7OnmZykBUXEU8Yv7K56c7JYUOxdn";
  22:.\main.c      **** char   data_packet[MAX_PACKET_LENGTH] = {0}, debug_packet[MAX_PACKET_LENGTH] = {0};
  23:.\main.c      **** uint8   packet_ready, take_reading;
  24:.\main.c      **** float   vBattery;
  25:.\main.c      **** 
  26:.\main.c      **** // Set NeoMote ID Number
  27:.\main.c      **** uint8 moteID = 2;
  28:.\main.c      **** 
  29:.\main.c      **** uint8 t_sample, trigger_sampler, bottle_count, tmp;
  30:.\main.c      **** UltrasonicReading ultrasonic_reading = {.valid = 0};    // Initialize UltrasonicReading.valid to 0
  31:.\main.c      **** SolinstReading solinst_reading = {.valid = 0};          // Initialize SolinstReading.valid to 0
  32:.\main.c      **** 
  33:.\main.c      **** // callback definitions
  34:.\main.c      **** void rtcCallBackReceived(uint8 alarmType);
  35:.\main.c      **** 
  36:.\main.c      **** // prototype functions
  37:.\main.c      **** //void read_packet(uint8* packet, uint8 size);
  38:.\main.c      **** //void write_packet(uint8* dest, uint8* src_ultrasonic, uint8* src_pressure, uint8 size);
  39:.\main.c      **** //void clear_packet(char* packet);
  40:.\main.c      **** void Write_To_SD_Card(const char* fileName, const char* pMode, const void* pData, U32 NumBytes);
ARM GAS  C:\Users\karunmj\AppData\Local\Temp\ccSLdOKF.s 			page 5


  41:.\main.c      **** CY_ISR_PROTO(isr_timer);
  42:.\main.c      **** void Goto_Low_Power_Mode();
  43:.\main.c      **** void debugLog(const void *pData);
  44:.\main.c      **** 
  45:.\main.c      **** 
  46:.\main.c      **** void main(){
 130              		.loc 1 46 0
 131              		.cfi_startproc
 132              		@ args = 0, pretend = 0, frame = 40
 133              		@ frame_needed = 1, uses_anonymous_args = 0
 134 0000 2DE9F04F 		push	{r4, r5, r6, r7, r8, r9, sl, fp, lr}
 135              	.LCFI0:
 136              		.cfi_def_cfa_offset 36
 137 0004 9BB0     		sub	sp, sp, #108
 138              	.LCFI1:
 139              		.cfi_def_cfa_offset 144
 140 0006 10AF     		add	r7, sp, #64
 141              		.cfi_offset 14, -4
 142              		.cfi_offset 11, -8
 143              		.cfi_offset 10, -12
 144              		.cfi_offset 9, -16
 145              		.cfi_offset 8, -20
 146              		.cfi_offset 7, -24
 147              		.cfi_offset 6, -28
 148              		.cfi_offset 5, -32
 149              		.cfi_offset 4, -36
 150              	.LCFI2:
 151              		.cfi_def_cfa 7, 80
  47:.\main.c      **** 
  48:.\main.c      ****     CyGlobalIntEnable;
 152              		.loc 1 48 0
 153              	@ 48 ".\main.c" 1
 154 0008 62B6     		CPSIE   i
 155              	@ 0 "" 2
  49:.\main.c      ****     SleepTimer_Start();
 156              		.loc 1 49 0
 157              		.thumb
 158 000a FFF7FEFF 		bl	SleepTimer_Start
  50:.\main.c      ****     isr_SleepTimer_StartEx(sleepTimerWake_INT);
 159              		.loc 1 50 0
 160 000e 40F20000 		movw	r0, #:lower16:sleepTimerWake_INT
 161 0012 C0F20000 		movt	r0, #:upper16:sleepTimerWake_INT
 162 0016 FFF7FEFF 		bl	isr_SleepTimer_StartEx
  51:.\main.c      ****     FS_Init();
 163              		.loc 1 51 0
 164 001a FFF7FEFF 		bl	FS_Init
  52:.\main.c      ****     modem_set_api_feed(FEED_ID, API_KEY);
 165              		.loc 1 52 0
 166 001e 40F20003 		movw	r3, #:lower16:API_KEY
 167 0022 C0F20003 		movt	r3, #:upper16:API_KEY
 168 0026 1B68     		ldr	r3, [r3, #0]
 169 0028 49F65760 		movw	r0, #:lower16:966630999
 170 002c C3F69D10 		movt	r0, #:upper16:966630999
 171 0030 1946     		mov	r1, r3
 172 0032 FFF7FEFF 		bl	modem_set_api_feed
  53:.\main.c      ****     modem_start();
 173              		.loc 1 53 0
ARM GAS  C:\Users\karunmj\AppData\Local\Temp\ccSLdOKF.s 			page 6


 174 0036 FFF7FEFF 		bl	modem_start
  54:.\main.c      ****     //modem_power_off();
  55:.\main.c      ****     ultrasonic_start();
 175              		.loc 1 55 0
 176 003a FFF7FEFF 		bl	ultrasonic_start
  56:.\main.c      ****     solinst_start();
 177              		.loc 1 56 0
 178 003e FFF7FEFF 		bl	solinst_start
  57:.\main.c      ****     ADC_SAR_1_Start();
 179              		.loc 1 57 0
 180 0042 FFF7FEFF 		bl	ADC_SAR_1_Start
  58:.\main.c      ****     
  59:.\main.c      ****     packet_ready = 0u; 
 181              		.loc 1 59 0
 182 0046 40F20003 		movw	r3, #:lower16:packet_ready
 183 004a C0F20003 		movt	r3, #:upper16:packet_ready
 184 004e 4FF00002 		mov	r2, #0
 185 0052 1A70     		strb	r2, [r3, #0]
  60:.\main.c      ****     take_reading = 1u;
 186              		.loc 1 60 0
 187 0054 40F20003 		movw	r3, #:lower16:take_reading
 188 0058 C0F20003 		movt	r3, #:upper16:take_reading
 189 005c 4FF00102 		mov	r2, #1
 190 0060 1A70     		strb	r2, [r3, #0]
  61:.\main.c      ****     t_sample = 2u;                                  // Initialize Sample Period to 2 minutes
 191              		.loc 1 61 0
 192 0062 40F20003 		movw	r3, #:lower16:t_sample
 193 0066 C0F20003 		movt	r3, #:upper16:t_sample
 194 006a 4FF00202 		mov	r2, #2
 195 006e 1A70     		strb	r2, [r3, #0]
  62:.\main.c      ****     trigger_sampler = 0u;                           // Initialize automated sampler to not take a s
 196              		.loc 1 62 0
 197 0070 40F20003 		movw	r3, #:lower16:trigger_sampler
 198 0074 C0F20003 		movt	r3, #:upper16:trigger_sampler
 199 0078 4FF00002 		mov	r2, #0
 200 007c 1A70     		strb	r2, [r3, #0]
  63:.\main.c      ****     bottle_count = 0u;                              // Initialize bottle count to zero
 201              		.loc 1 63 0
 202 007e 40F20003 		movw	r3, #:lower16:bottle_count
 203 0082 C0F20003 		movt	r3, #:upper16:bottle_count
 204 0086 4FF00002 		mov	r2, #0
 205 008a 1A70     		strb	r2, [r3, #0]
  64:.\main.c      **** 
  65:.\main.c      ****     NeoRTC_Start(rtcCallBackReceived);              // Start and enable the RTC.   
 206              		.loc 1 65 0
 207 008c 40F20000 		movw	r0, #:lower16:rtcCallBackReceived
 208 0090 C0F20000 		movt	r0, #:upper16:rtcCallBackReceived
 209 0094 FFF7FEFF 		bl	NeoRTC_Start
  66:.\main.c      ****     NeoRTC_Set_Repeating_Minute_Alarm(t_sample);    // Set 1-minute alarm
 210              		.loc 1 66 0
 211 0098 40F20003 		movw	r3, #:lower16:t_sample
 212 009c C0F20003 		movt	r3, #:upper16:t_sample
 213 00a0 1B78     		ldrb	r3, [r3, #0]	@ zero_extendqisi2
 214 00a2 1846     		mov	r0, r3
 215 00a4 FFF7FEFF 		bl	NeoRTC_Set_Repeating_Minute_Alarm
 216              	.L14:
  67:.\main.c      ****    
ARM GAS  C:\Users\karunmj\AppData\Local\Temp\ccSLdOKF.s 			page 7


  68:.\main.c      ****     
  69:.\main.c      ****     //  Uncomment below to set RTC
  70:.\main.c      ****     /*
  71:.\main.c      ****     NeoRtcTimeStruct tm = {
  72:.\main.c      ****       .second = 00,
  73:.\main.c      ****       .minute = 54,
  74:.\main.c      ****       .hour = 18,
  75:.\main.c      ****       .day = 27,
  76:.\main.c      ****       .weekday = 2,
  77:.\main.c      ****       .month = 5,
  78:.\main.c      ****       .year = 2014,
  79:.\main.c      ****     } ;
  80:.\main.c      ****     RTC_WriteTime(tm); //sets time
  81:.\main.c      ****     */
  82:.\main.c      **** 
  83:.\main.c      ****     for(;;){
  84:.\main.c      ****     
  85:.\main.c      ****         RTC_Process_Tasks();
 217              		.loc 1 85 0
 218 00a8 FFF7FEFF 		bl	RTC_Process_Tasks
  86:.\main.c      ****          
  87:.\main.c      ****         if(take_reading){ 
 219              		.loc 1 87 0
 220 00ac 40F20003 		movw	r3, #:lower16:take_reading
 221 00b0 C0F20003 		movt	r3, #:upper16:take_reading
 222 00b4 1B78     		ldrb	r3, [r3, #0]	@ zero_extendqisi2
 223 00b6 002B     		cmp	r3, #0
 224 00b8 00F03C81 		beq	.L2
  88:.\main.c      **** 
  89:.\main.c      ****             modem_power_on();   
 225              		.loc 1 89 0
 226 00bc FFF7FEFF 		bl	modem_power_on
  90:.\main.c      ****            
  91:.\main.c      ****             if (clear_packet(data_packet)) {
 227              		.loc 1 91 0
 228 00c0 40F20000 		movw	r0, #:lower16:data_packet
 229 00c4 C0F20000 		movt	r0, #:upper16:data_packet
 230 00c8 FFF7FEFF 		bl	clear_packet
 231 00cc 0346     		mov	r3, r0
 232 00ce 002B     		cmp	r3, #0
 233 00d0 06D0     		beq	.L3
  92:.\main.c      ****                 packet_ready = 0u;
 234              		.loc 1 92 0
 235 00d2 40F20003 		movw	r3, #:lower16:packet_ready
 236 00d6 C0F20003 		movt	r3, #:upper16:packet_ready
 237 00da 4FF00002 		mov	r2, #0
 238 00de 1A70     		strb	r2, [r3, #0]
 239              	.L3:
  93:.\main.c      ****             }
  94:.\main.c      ****                         
  95:.\main.c      ****             // modem_get_packet(data_packet);
  96:.\main.c      ****             if (modem_get_packet(data_packet,"t_sample,trigger_sampler")) {
 240              		.loc 1 96 0
 241 00e0 40F20000 		movw	r0, #:lower16:data_packet
 242 00e4 C0F20000 		movt	r0, #:upper16:data_packet
 243 00e8 40F20001 		movw	r1, #:lower16:.LC1
 244 00ec C0F20001 		movt	r1, #:upper16:.LC1
ARM GAS  C:\Users\karunmj\AppData\Local\Temp\ccSLdOKF.s 			page 8


 245 00f0 FFF7FEFF 		bl	modem_get_packet
 246 00f4 0346     		mov	r3, r0
 247 00f6 002B     		cmp	r3, #0
 248 00f8 35D0     		beq	.L4
  97:.\main.c      ****                 
  98:.\main.c      ****                 // Read in any updated values
  99:.\main.c      ****                 if(packet_get_uint8(data_packet, "t_sample", &tmp)){
 249              		.loc 1 99 0
 250 00fa 40F20000 		movw	r0, #:lower16:data_packet
 251 00fe C0F20000 		movt	r0, #:upper16:data_packet
 252 0102 40F20001 		movw	r1, #:lower16:.LC2
 253 0106 C0F20001 		movt	r1, #:upper16:.LC2
 254 010a 40F20002 		movw	r2, #:lower16:tmp
 255 010e C0F20002 		movt	r2, #:upper16:tmp
 256 0112 FFF7FEFF 		bl	packet_get_uint8
 257 0116 0346     		mov	r3, r0
 258 0118 002B     		cmp	r3, #0
 259 011a 09D0     		beq	.L5
 100:.\main.c      ****                     t_sample = tmp;
 260              		.loc 1 100 0
 261 011c 40F20003 		movw	r3, #:lower16:tmp
 262 0120 C0F20003 		movt	r3, #:upper16:tmp
 263 0124 1A78     		ldrb	r2, [r3, #0]	@ zero_extendqisi2
 264 0126 40F20003 		movw	r3, #:lower16:t_sample
 265 012a C0F20003 		movt	r3, #:upper16:t_sample
 266 012e 1A70     		strb	r2, [r3, #0]
 267              	.L5:
 101:.\main.c      ****                 }
 102:.\main.c      ****                 if(packet_get_uint8(data_packet, "trigger_sampler", &tmp)){
 268              		.loc 1 102 0
 269 0130 40F20000 		movw	r0, #:lower16:data_packet
 270 0134 C0F20000 		movt	r0, #:upper16:data_packet
 271 0138 40F20001 		movw	r1, #:lower16:.LC3
 272 013c C0F20001 		movt	r1, #:upper16:.LC3
 273 0140 40F20002 		movw	r2, #:lower16:tmp
 274 0144 C0F20002 		movt	r2, #:upper16:tmp
 275 0148 FFF7FEFF 		bl	packet_get_uint8
 276 014c 0346     		mov	r3, r0
 277 014e 002B     		cmp	r3, #0
 278 0150 09D0     		beq	.L4
 103:.\main.c      ****                     trigger_sampler = tmp;
 279              		.loc 1 103 0
 280 0152 40F20003 		movw	r3, #:lower16:tmp
 281 0156 C0F20003 		movt	r3, #:upper16:tmp
 282 015a 1A78     		ldrb	r2, [r3, #0]	@ zero_extendqisi2
 283 015c 40F20003 		movw	r3, #:lower16:trigger_sampler
 284 0160 C0F20003 		movt	r3, #:upper16:trigger_sampler
 285 0164 1A70     		strb	r2, [r3, #0]
 286              	.L4:
 104:.\main.c      ****                 }
 105:.\main.c      ****             }
 106:.\main.c      **** 
 107:.\main.c      **** 
 108:.\main.c      ****             /*
 109:.\main.c      ****             if (send_attempts > 0) {
 110:.\main.c      ****                 debug_write("New reading taken before previous packet was sent");
 111:.\main.c      ****             }
ARM GAS  C:\Users\karunmj\AppData\Local\Temp\ccSLdOKF.s 			page 9


 112:.\main.c      ****             */
 113:.\main.c      ****             if (trigger_sampler){
 287              		.loc 1 113 0
 288 0166 40F20003 		movw	r3, #:lower16:trigger_sampler
 289 016a C0F20003 		movt	r3, #:upper16:trigger_sampler
 290 016e 1B78     		ldrb	r3, [r3, #0]	@ zero_extendqisi2
 291 0170 002B     		cmp	r3, #0
 292 0172 2AD0     		beq	.L6
 114:.\main.c      ****                 
 115:.\main.c      ****                 // Send in acknowledgement that packet containing
 116:.\main.c      ****                 // info re:automated sampler has been received:
 117:.\main.c      ****                 modem_send_packet("trigger_sampler, 0");
 293              		.loc 1 117 0
 294 0174 40F20000 		movw	r0, #:lower16:.LC4
 295 0178 C0F20000 		movt	r0, #:upper16:.LC4
 296 017c FFF7FEFF 		bl	modem_send_packet
 118:.\main.c      ****                 
 119:.\main.c      ****                 trigger_sampler = 0; // Update the value locally
 297              		.loc 1 119 0
 298 0180 40F20003 		movw	r3, #:lower16:trigger_sampler
 299 0184 C0F20003 		movt	r3, #:upper16:trigger_sampler
 300 0188 4FF00002 		mov	r2, #0
 301 018c 1A70     		strb	r2, [r3, #0]
 120:.\main.c      ****                 
 121:.\main.c      ****                 if (bottle_count < MAX_BOTTLE_COUNT) {
 302              		.loc 1 121 0
 303 018e 40F20003 		movw	r3, #:lower16:bottle_count
 304 0192 C0F20003 		movt	r3, #:upper16:bottle_count
 305 0196 1B78     		ldrb	r3, [r3, #0]	@ zero_extendqisi2
 306 0198 172B     		cmp	r3, #23
 307 019a 10D8     		bhi	.L7
 122:.\main.c      ****                     // Turn off modem to conserve energy
 123:.\main.c      ****                     modem_power_off();
 308              		.loc 1 123 0
 309 019c FFF7FEFF 		bl	modem_power_off
 124:.\main.c      ****                     
 125:.\main.c      ****                     autosampler_start();
 310              		.loc 1 125 0
 311 01a0 FFF7FEFF 		bl	autosampler_start
 126:.\main.c      ****                     autosampler_power_on();
 312              		.loc 1 126 0
 313 01a4 FFF7FEFF 		bl	autosampler_power_on
 127:.\main.c      ****                     
 128:.\main.c      ****                     /*
 129:.\main.c      ****                     if (autosampler_take_sample(&bottle_count) ) {
 130:.\main.c      ****                         sprintf(data_packet,"%s, %u\r\n",
 131:.\main.c      ****                             "bottle", bottle_count);
 132:.\main.c      ****                     }
 133:.\main.c      ****                     */ 
 134:.\main.c      ****                     
 135:.\main.c      ****                     autosampler_take_sample(&bottle_count);
 314              		.loc 1 135 0
 315 01a8 40F20000 		movw	r0, #:lower16:bottle_count
 316 01ac C0F20000 		movt	r0, #:upper16:bottle_count
 317 01b0 FFF7FEFF 		bl	autosampler_take_sample
 136:.\main.c      ****                     
 137:.\main.c      ****                     autosampler_power_off(); 
ARM GAS  C:\Users\karunmj\AppData\Local\Temp\ccSLdOKF.s 			page 10


 318              		.loc 1 137 0
 319 01b4 FFF7FEFF 		bl	autosampler_power_off
 138:.\main.c      ****                     autosampler_stop();    
 320              		.loc 1 138 0
 321 01b8 FFF7FEFF 		bl	autosampler_stop
 322 01bc 05E0     		b	.L6
 323              	.L7:
 139:.\main.c      ****                 }
 140:.\main.c      ****                 else {
 141:.\main.c      ****                     debug_write("bottle_count >= MAX_BOTTLE_COUNT");
 324              		.loc 1 141 0
 325 01be 40F20000 		movw	r0, #:lower16:.LC5
 326 01c2 C0F20000 		movt	r0, #:upper16:.LC5
 327 01c6 FFF7FEFF 		bl	debug_write
 328              	.L6:
 142:.\main.c      ****                 }
 143:.\main.c      ****             }
 144:.\main.c      ****             
 145:.\main.c      ****             // Get Readings for:
 146:.\main.c      ****             // depth, pressure, temp
 147:.\main.c      ****             // conductivity.
 148:.\main.c      ****             sprintf(data_packet,"%s, %u\r\n",
 329              		.loc 1 148 0
 330 01ca 40F20003 		movw	r3, #:lower16:bottle_count
 331 01ce C0F20003 		movt	r3, #:upper16:bottle_count
 332 01d2 1B78     		ldrb	r3, [r3, #0]	@ zero_extendqisi2
 333 01d4 40F20000 		movw	r0, #:lower16:data_packet
 334 01d8 C0F20000 		movt	r0, #:upper16:data_packet
 335 01dc 40F20001 		movw	r1, #:lower16:.LC6
 336 01e0 C0F20001 		movt	r1, #:upper16:.LC6
 337 01e4 40F20002 		movw	r2, #:lower16:.LC7
 338 01e8 C0F20002 		movt	r2, #:upper16:.LC7
 339 01ec FFF7FEFF 		bl	sprintf
 149:.\main.c      ****                 "bottle", bottle_count);
 150:.\main.c      ****                 
 151:.\main.c      ****             if (solinst_get_reading(&solinst_reading)){
 340              		.loc 1 151 0
 341 01f0 40F20000 		movw	r0, #:lower16:solinst_reading
 342 01f4 C0F20000 		movt	r0, #:upper16:solinst_reading
 343 01f8 FFF7FEFF 		bl	solinst_get_reading
 344 01fc 0346     		mov	r3, r0
 345 01fe 002B     		cmp	r3, #0
 346 0200 3BD0     		beq	.L8
 152:.\main.c      ****                 sprintf(data_packet,"%s%s, %f\r\n", data_packet,
 153:.\main.c      ****                     "depth_press", solinst_reading.depth);            
 347              		.loc 1 153 0
 348 0202 40F20003 		movw	r3, #:lower16:solinst_reading
 349 0206 C0F20003 		movt	r3, #:upper16:solinst_reading
 350 020a 5B68     		ldr	r3, [r3, #4]	@ float
 351              		.loc 1 152 0
 352 020c 1846     		mov	r0, r3
 353 020e FFF7FEFF 		bl	__aeabi_f2d
 354 0212 0246     		mov	r2, r0
 355 0214 0B46     		mov	r3, r1
 356 0216 CDE90023 		strd	r2, [sp]
 357 021a 40F20000 		movw	r0, #:lower16:data_packet
 358 021e C0F20000 		movt	r0, #:upper16:data_packet
ARM GAS  C:\Users\karunmj\AppData\Local\Temp\ccSLdOKF.s 			page 11


 359 0222 40F20001 		movw	r1, #:lower16:.LC8
 360 0226 C0F20001 		movt	r1, #:upper16:.LC8
 361 022a 40F20002 		movw	r2, #:lower16:data_packet
 362 022e C0F20002 		movt	r2, #:upper16:data_packet
 363 0232 40F20003 		movw	r3, #:lower16:.LC9
 364 0236 C0F20003 		movt	r3, #:upper16:.LC9
 365 023a FFF7FEFF 		bl	sprintf
 154:.\main.c      ****                     
 155:.\main.c      ****                 sprintf(data_packet,"%s%s, %f\r\n", data_packet,
 156:.\main.c      ****                     "temp_press", solinst_reading.temp);                      
 366              		.loc 1 156 0
 367 023e 40F20003 		movw	r3, #:lower16:solinst_reading
 368 0242 C0F20003 		movt	r3, #:upper16:solinst_reading
 369 0246 1B68     		ldr	r3, [r3, #0]	@ float
 370              		.loc 1 155 0
 371 0248 1846     		mov	r0, r3
 372 024a FFF7FEFF 		bl	__aeabi_f2d
 373 024e 0246     		mov	r2, r0
 374 0250 0B46     		mov	r3, r1
 375 0252 CDE90023 		strd	r2, [sp]
 376 0256 40F20000 		movw	r0, #:lower16:data_packet
 377 025a C0F20000 		movt	r0, #:upper16:data_packet
 378 025e 40F20001 		movw	r1, #:lower16:.LC8
 379 0262 C0F20001 		movt	r1, #:upper16:.LC8
 380 0266 40F20002 		movw	r2, #:lower16:data_packet
 381 026a C0F20002 		movt	r2, #:upper16:data_packet
 382 026e 40F20003 		movw	r3, #:lower16:.LC10
 383 0272 C0F20003 		movt	r3, #:upper16:.LC10
 384 0276 FFF7FEFF 		bl	sprintf
 385              	.L8:
 157:.\main.c      ****             }
 158:.\main.c      ****             
 159:.\main.c      ****             if (ultrasonic_get_reading(&ultrasonic_reading)){
 386              		.loc 1 159 0
 387 027a 40F20000 		movw	r0, #:lower16:ultrasonic_reading
 388 027e C0F20000 		movt	r0, #:upper16:ultrasonic_reading
 389 0282 FFF7FEFF 		bl	ultrasonic_get_reading
 390 0286 0346     		mov	r3, r0
 391 0288 002B     		cmp	r3, #0
 392 028a 1DD0     		beq	.L9
 160:.\main.c      ****                 sprintf(data_packet,"%s%s, %f\r\n", data_packet,
 161:.\main.c      ****                     "depth_sonic", ultrasonic_reading.depth);              
 393              		.loc 1 161 0
 394 028c 40F20003 		movw	r3, #:lower16:ultrasonic_reading
 395 0290 C0F20003 		movt	r3, #:upper16:ultrasonic_reading
 396 0294 5B68     		ldr	r3, [r3, #4]	@ float
 397              		.loc 1 160 0
 398 0296 1846     		mov	r0, r3
 399 0298 FFF7FEFF 		bl	__aeabi_f2d
 400 029c 0246     		mov	r2, r0
 401 029e 0B46     		mov	r3, r1
 402 02a0 CDE90023 		strd	r2, [sp]
 403 02a4 40F20000 		movw	r0, #:lower16:data_packet
 404 02a8 C0F20000 		movt	r0, #:upper16:data_packet
 405 02ac 40F20001 		movw	r1, #:lower16:.LC8
 406 02b0 C0F20001 		movt	r1, #:upper16:.LC8
 407 02b4 40F20002 		movw	r2, #:lower16:data_packet
ARM GAS  C:\Users\karunmj\AppData\Local\Temp\ccSLdOKF.s 			page 12


 408 02b8 C0F20002 		movt	r2, #:upper16:data_packet
 409 02bc 40F20003 		movw	r3, #:lower16:.LC11
 410 02c0 C0F20003 		movt	r3, #:upper16:.LC11
 411 02c4 FFF7FEFF 		bl	sprintf
 412              	.L9:
 162:.\main.c      ****             }
 163:.\main.c      ****             if (ReadBatteryVoltage(&vBattery)){
 413              		.loc 1 163 0
 414 02c8 40F20000 		movw	r0, #:lower16:vBattery
 415 02cc C0F20000 		movt	r0, #:upper16:vBattery
 416 02d0 FFF7FEFF 		bl	ReadBatteryVoltage
 417 02d4 0346     		mov	r3, r0
 418 02d6 002B     		cmp	r3, #0
 419 02d8 1DD0     		beq	.L10
 164:.\main.c      ****                 sprintf(data_packet,"%s%s, %f\r\n", data_packet,
 420              		.loc 1 164 0
 421 02da 40F20003 		movw	r3, #:lower16:vBattery
 422 02de C0F20003 		movt	r3, #:upper16:vBattery
 423 02e2 1B68     		ldr	r3, [r3, #0]	@ float
 424 02e4 1846     		mov	r0, r3
 425 02e6 FFF7FEFF 		bl	__aeabi_f2d
 426 02ea 0246     		mov	r2, r0
 427 02ec 0B46     		mov	r3, r1
 428 02ee CDE90023 		strd	r2, [sp]
 429 02f2 40F20000 		movw	r0, #:lower16:data_packet
 430 02f6 C0F20000 		movt	r0, #:upper16:data_packet
 431 02fa 40F20001 		movw	r1, #:lower16:.LC8
 432 02fe C0F20001 		movt	r1, #:upper16:.LC8
 433 0302 40F20002 		movw	r2, #:lower16:data_packet
 434 0306 C0F20002 		movt	r2, #:upper16:data_packet
 435 030a 40F20003 		movw	r3, #:lower16:.LC12
 436 030e C0F20003 		movt	r3, #:upper16:.LC12
 437 0312 FFF7FEFF 		bl	sprintf
 438              	.L10:
 165:.\main.c      ****                     "V_batt", vBattery);              
 166:.\main.c      ****             }
 167:.\main.c      ****             
 168:.\main.c      ****             /* Moved to after packet is written to server
 169:.\main.c      ****             NeoRtcTimeStruct tm_neo = NeoRTC_Read_Time();
 170:.\main.c      **** 
 171:.\main.c      ****             sprintf(data_packet, "\r\n%d:%d:%d %d/%d/%d -- [ID %d] u_d=%f s_d=%f s_t=%f v_b=%f", tm
 172:.\main.c      ****                              tm_neo.second, tm_neo.day, tm_neo.month, tm_neo.year, moteID,
 173:.\main.c      ****                              ultrasonic_reading.depth, solinst_reading.depth, solinst_reading.temp,
 174:.\main.c      ****             
 175:.\main.c      ****             Write_To_SD_Card("data.txt","a",data_packet,strlen(data_packet));
 176:.\main.c      ****             */
 177:.\main.c      ****             /* Old AWS packet
 178:.\main.c      ****             sprintf(data_packet, "\n%d:%d:%d %d/%d/%d -- [ID %d] u_d=%f s_d=%f s_t=%f v_b=%f", tm_n
 179:.\main.c      ****                              tm_neo.second, tm_neo.day, tm_neo.month, tm_neo.year, moteID,
 180:.\main.c      ****                              ultrasonic_reading.depth, solinst_reading.depth, solinst_reading.temp,
 181:.\main.c      ****             */
 182:.\main.c      ****    
 183:.\main.c      ****             /* Create Xively Packet */
 184:.\main.c      ****             /*
 185:.\main.c      ****             sprintf(data_packet, "{"
 186:.\main.c      ****                       "\"method\":\"put\","
 187:.\main.c      ****                       "\"resource\":\"/feeds/%d\","
ARM GAS  C:\Users\karunmj\AppData\Local\Temp\ccSLdOKF.s 			page 13


 188:.\main.c      ****                       "\"headers\":{\"X-ApiKey\":\"%s\"},"
 189:.\main.c      ****                       "\"body\":{\"version\":\"1.0.0\",\"datastreams\":["
 190:.\main.c      ****                             "{ \"id\" : \"depth_sonic\", \"current_value\" : \"%f\"},"
 191:.\main.c      ****                             "{ \"id\" : \"depth_press\", \"current_value\" : \"%f\"},"
 192:.\main.c      ****                             "{ \"id\" : \"temp_press\", \"current_value\" : \"%f\"},"
 193:.\main.c      ****                             "{ \"id\" : \"trigger_sampler\", \"current_value\" : \"%d\"},"
 194:.\main.c      ****                             "{ \"id\" : \"V_batt\",  \"current_value\" : \"%f\"}"
 195:.\main.c      ****                       "]}}",
 196:.\main.c      ****                       FEED_ID,API_KEY,
 197:.\main.c      ****                       ultrasonic_reading.depth, solinst_reading.depth, solinst_reading.temp,0u,vBat
 198:.\main.c      ****             */
 199:.\main.c      ****             /*
 200:.\main.c      ****             sprintf(data_packet, "%s, %f\r\n%s, %f\r\n%s, %f\r\n%s, %f",
 201:.\main.c      ****                 "depth_sonic", ultrasonic_reading.depth,
 202:.\main.c      ****                 "depth_press", solinst_reading.depth,
 203:.\main.c      ****                 "temp_press", solinst_reading.temp,
 204:.\main.c      ****                 "V_batt", vBattery
 205:.\main.c      ****                 );
 206:.\main.c      ****             */
 207:.\main.c      ****             packet_ready = 1u;
 439              		.loc 1 207 0
 440 0316 40F20003 		movw	r3, #:lower16:packet_ready
 441 031a C0F20003 		movt	r3, #:upper16:packet_ready
 442 031e 4FF00102 		mov	r2, #1
 443 0322 1A70     		strb	r2, [r3, #0]
 208:.\main.c      ****             //send_attempts = 0u;
 209:.\main.c      ****             take_reading = 0u;
 444              		.loc 1 209 0
 445 0324 40F20003 		movw	r3, #:lower16:take_reading
 446 0328 C0F20003 		movt	r3, #:upper16:take_reading
 447 032c 4FF00002 		mov	r2, #0
 448 0330 1A70     		strb	r2, [r3, #0]
 449 0332 ACE0     		b	.L11
 450              	.L2:
 210:.\main.c      ****             
 211:.\main.c      ****   
 212:.\main.c      ****         } else if(packet_ready){
 451              		.loc 1 212 0
 452 0334 40F20003 		movw	r3, #:lower16:packet_ready
 453 0338 C0F20003 		movt	r3, #:upper16:packet_ready
 454 033c 1B78     		ldrb	r3, [r3, #0]	@ zero_extendqisi2
 455 033e 002B     		cmp	r3, #0
 456 0340 00F09980 		beq	.L12
 457              	.LBB2:
 213:.\main.c      ****             isr_SleepTimer_Stop;  //  <============= ADDRESS THIS WITH B.K.
 214:.\main.c      ****             
 215:.\main.c      ****             // Power on the modem in case it was turned off
 216:.\main.c      ****             modem_power_on();
 458              		.loc 1 216 0
 459 0344 FFF7FEFF 		bl	modem_power_on
 217:.\main.c      ****             
 218:.\main.c      ****             // modem_state should now be IDLE or READY
 219:.\main.c      ****             modem_send_packet(data_packet);
 460              		.loc 1 219 0
 461 0348 40F20000 		movw	r0, #:lower16:data_packet
 462 034c C0F20000 		movt	r0, #:upper16:data_packet
 463 0350 FFF7FEFF 		bl	modem_send_packet
ARM GAS  C:\Users\karunmj\AppData\Local\Temp\ccSLdOKF.s 			page 14


 220:.\main.c      ****             
 221:.\main.c      ****             modem_power_off();
 464              		.loc 1 221 0
 465 0354 FFF7FEFF 		bl	modem_power_off
 222:.\main.c      ****             
 223:.\main.c      ****             // Backup data to SD Card
 224:.\main.c      ****             NeoRtcTimeStruct tm_neo = NeoRTC_Read_Time();
 466              		.loc 1 224 0
 467 0358 07F12003 		add	r3, r7, #32
 468 035c 1846     		mov	r0, r3
 469 035e FFF7FEFF 		bl	NeoRTC_Read_Time
 225:.\main.c      **** 
 226:.\main.c      ****             sprintf(data_packet, "\r\n%d:%d:%d %d/%d/%d -- [ID %d] u_d=%f s_d=%f s_t=%f bottle=%d v
 470              		.loc 1 226 0
 471 0362 97F82230 		ldrb	r3, [r7, #34]	@ zero_extendqisi2
 472 0366 7B60     		str	r3, [r7, #4]
 473 0368 97F82130 		ldrb	r3, [r7, #33]	@ zero_extendqisi2
 474 036c BB60     		str	r3, [r7, #8]
 227:.\main.c      ****                              tm_neo.second, tm_neo.day, tm_neo.month, tm_neo.year, moteID,
 475              		.loc 1 227 0
 476 036e 97F82030 		ldrb	r3, [r7, #32]	@ zero_extendqisi2
 477              		.loc 1 226 0
 478 0372 FB60     		str	r3, [r7, #12]
 479              		.loc 1 227 0
 480 0374 97F82330 		ldrb	r3, [r7, #35]	@ zero_extendqisi2
 481              		.loc 1 226 0
 482 0378 3B61     		str	r3, [r7, #16]
 483              		.loc 1 227 0
 484 037a 97F82530 		ldrb	r3, [r7, #37]	@ zero_extendqisi2
 485              		.loc 1 226 0
 486 037e 7B61     		str	r3, [r7, #20]
 487              		.loc 1 227 0
 488 0380 FB8C     		ldrh	r3, [r7, #38]
 489              		.loc 1 226 0
 490 0382 BB61     		str	r3, [r7, #24]
 491 0384 40F20003 		movw	r3, #:lower16:moteID
 492 0388 C0F20003 		movt	r3, #:upper16:moteID
 493 038c 1B78     		ldrb	r3, [r3, #0]	@ zero_extendqisi2
 494 038e FB61     		str	r3, [r7, #28]
 228:.\main.c      ****                              ultrasonic_reading.depth, solinst_reading.depth, solinst_reading.temp,
 495              		.loc 1 228 0
 496 0390 40F20003 		movw	r3, #:lower16:ultrasonic_reading
 497 0394 C0F20003 		movt	r3, #:upper16:ultrasonic_reading
 498 0398 5B68     		ldr	r3, [r3, #4]	@ float
 499              		.loc 1 226 0
 500 039a 1846     		mov	r0, r3
 501 039c FFF7FEFF 		bl	__aeabi_f2d
 502 03a0 8246     		mov	sl, r0
 503 03a2 8B46     		mov	fp, r1
 504              		.loc 1 228 0
 505 03a4 40F20003 		movw	r3, #:lower16:solinst_reading
 506 03a8 C0F20003 		movt	r3, #:upper16:solinst_reading
 507 03ac 5B68     		ldr	r3, [r3, #4]	@ float
 508              		.loc 1 226 0
 509 03ae 1846     		mov	r0, r3
 510 03b0 FFF7FEFF 		bl	__aeabi_f2d
 511 03b4 8046     		mov	r8, r0
ARM GAS  C:\Users\karunmj\AppData\Local\Temp\ccSLdOKF.s 			page 15


 512 03b6 8946     		mov	r9, r1
 513              		.loc 1 228 0
 514 03b8 40F20003 		movw	r3, #:lower16:solinst_reading
 515 03bc C0F20003 		movt	r3, #:upper16:solinst_reading
 516 03c0 1B68     		ldr	r3, [r3, #0]	@ float
 517              		.loc 1 226 0
 518 03c2 1846     		mov	r0, r3
 519 03c4 FFF7FEFF 		bl	__aeabi_f2d
 520 03c8 0446     		mov	r4, r0
 521 03ca 0D46     		mov	r5, r1
 522 03cc 40F20003 		movw	r3, #:lower16:bottle_count
 523 03d0 C0F20003 		movt	r3, #:upper16:bottle_count
 524 03d4 1B78     		ldrb	r3, [r3, #0]	@ zero_extendqisi2
 525 03d6 1E46     		mov	r6, r3
 526 03d8 40F20003 		movw	r3, #:lower16:vBattery
 527 03dc C0F20003 		movt	r3, #:upper16:vBattery
 528 03e0 1B68     		ldr	r3, [r3, #0]	@ float
 529 03e2 1846     		mov	r0, r3
 530 03e4 FFF7FEFF 		bl	__aeabi_f2d
 531 03e8 0246     		mov	r2, r0
 532 03ea 0B46     		mov	r3, r1
 533 03ec F968     		ldr	r1, [r7, #12]
 534 03ee 0091     		str	r1, [sp, #0]
 535 03f0 3969     		ldr	r1, [r7, #16]
 536 03f2 0191     		str	r1, [sp, #4]
 537 03f4 7969     		ldr	r1, [r7, #20]
 538 03f6 0291     		str	r1, [sp, #8]
 539 03f8 B969     		ldr	r1, [r7, #24]
 540 03fa 0391     		str	r1, [sp, #12]
 541 03fc F969     		ldr	r1, [r7, #28]
 542 03fe 0491     		str	r1, [sp, #16]
 543 0400 CDE906AB 		strd	sl, [sp, #24]
 544 0404 CDE90889 		strd	r8, [sp, #32]
 545 0408 CDE90A45 		strd	r4, [sp, #40]
 546 040c 0C96     		str	r6, [sp, #48]
 547 040e CDE90E23 		strd	r2, [sp, #56]
 548 0412 40F20000 		movw	r0, #:lower16:data_packet
 549 0416 C0F20000 		movt	r0, #:upper16:data_packet
 550 041a 40F20001 		movw	r1, #:lower16:.LC13
 551 041e C0F20001 		movt	r1, #:upper16:.LC13
 552 0422 7A68     		ldr	r2, [r7, #4]
 553 0424 BB68     		ldr	r3, [r7, #8]
 554 0426 FFF7FEFF 		bl	sprintf
 229:.\main.c      ****             
 230:.\main.c      ****             Write_To_SD_Card("data.txt","a",data_packet,strlen(data_packet));
 555              		.loc 1 230 0
 556 042a 40F20000 		movw	r0, #:lower16:data_packet
 557 042e C0F20000 		movt	r0, #:upper16:data_packet
 558 0432 FFF7FEFF 		bl	strlen
 559 0436 0346     		mov	r3, r0
 560 0438 40F20000 		movw	r0, #:lower16:.LC14
 561 043c C0F20000 		movt	r0, #:upper16:.LC14
 562 0440 40F20001 		movw	r1, #:lower16:.LC15
 563 0444 C0F20001 		movt	r1, #:upper16:.LC15
 564 0448 40F20002 		movw	r2, #:lower16:data_packet
 565 044c C0F20002 		movt	r2, #:upper16:data_packet
 566 0450 FFF7FEFF 		bl	Write_To_SD_Card
ARM GAS  C:\Users\karunmj\AppData\Local\Temp\ccSLdOKF.s 			page 16


 231:.\main.c      ****             
 232:.\main.c      ****             if (clear_packet(data_packet)) {
 567              		.loc 1 232 0
 568 0454 40F20000 		movw	r0, #:lower16:data_packet
 569 0458 C0F20000 		movt	r0, #:upper16:data_packet
 570 045c FFF7FEFF 		bl	clear_packet
 571 0460 0346     		mov	r3, r0
 572 0462 002B     		cmp	r3, #0
 573 0464 12D0     		beq	.L16
 233:.\main.c      ****                 packet_ready = 0u;
 574              		.loc 1 233 0
 575 0466 40F20003 		movw	r3, #:lower16:packet_ready
 576 046a C0F20003 		movt	r3, #:upper16:packet_ready
 577 046e 4FF00002 		mov	r2, #0
 578 0472 1A70     		strb	r2, [r3, #0]
 579 0474 0BE0     		b	.L11
 580              	.L12:
 581              	.LBE2:
 234:.\main.c      ****             }
 235:.\main.c      ****             
 236:.\main.c      ****             /*
 237:.\main.c      ****             // else if(modem_state == MODEM_STATE_IDLE){
 238:.\main.c      ****             else { // modem state is ON (aka IDLE or READY)
 239:.\main.c      ****                 
 240:.\main.c      ****                 
 241:.\main.c      ****                 ////if(modem_send_packet(data_packet)){     // if packet sent
 242:.\main.c      ****                 //if(modem_send_packet(data_packet)){     // if packet sent
 243:.\main.c      ****                 //    modem_power_off();
 244:.\main.c      ****                 //    clear_packet(data_packet);
 245:.\main.c      ****                 //}
 246:.\main.c      ****                 //else{                                   // if packet not sent
 247:.\main.c      ****                 //    modem_reset();
 248:.\main.c      ****                 //    modem_power_off();
 249:.\main.c      ****                 //}
 250:.\main.c      ****                 
 251:.\main.c      ****                 if(send_attempts < MAX_SEND_ATTEMPTS){
 252:.\main.c      ****                     
 253:.\main.c      ****                     send_attempts++;
 254:.\main.c      ****                     
 255:.\main.c      ****                     if (modem_send_packet(data_packet)){     
 256:.\main.c      ****                     // the packet is sent within the number of maximum attempts allowed
 257:.\main.c      ****                         //debug_write("Packet sent within max attempts.");
 258:.\main.c      ****                         modem_power_off();
 259:.\main.c      ****                         //debug_write("Modem powered off.");
 260:.\main.c      ****                         clear_packet(data_packet);
 261:.\main.c      ****                         send_attempts = 0u;
 262:.\main.c      ****                     }
 263:.\main.c      ****                     else {
 264:.\main.c      ****                         //modem_reset();
 265:.\main.c      ****                     }
 266:.\main.c      ****                     
 267:.\main.c      ****                 } 
 268:.\main.c      ****                 else {
 269:.\main.c      ****                 // SEND ATTEMPTS MOVED TO modem.c
 270:.\main.c      ****                 // the number of maximum attempts allowed has been exceeded
 271:.\main.c      ****                     modem_power_off();
 272:.\main.c      ****                     clear_packet(data_packet);
ARM GAS  C:\Users\karunmj\AppData\Local\Temp\ccSLdOKF.s 			page 17


 273:.\main.c      ****                     send_attempts = 0u;
 274:.\main.c      ****                     debug_write("MAX_SEND_ATTEMPTS Exceeded");     
 275:.\main.c      ****                 
 276:.\main.c      ****                 }                
 277:.\main.c      ****                  
 278:.\main.c      ****             }
 279:.\main.c      ****             */
 280:.\main.c      ****         }else{
 281:.\main.c      ****             NeoRTC_Set_Repeating_Minute_Alarm(t_sample);  // Set 1-minute alarm
 582              		.loc 1 281 0
 583 0476 40F20003 		movw	r3, #:lower16:t_sample
 584 047a C0F20003 		movt	r3, #:upper16:t_sample
 585 047e 1B78     		ldrb	r3, [r3, #0]	@ zero_extendqisi2
 586 0480 1846     		mov	r0, r3
 587 0482 FFF7FEFF 		bl	NeoRTC_Set_Repeating_Minute_Alarm
 282:.\main.c      ****             Goto_Low_Power_Mode();
 588              		.loc 1 282 0
 589 0486 FFF7FEFF 		bl	Goto_Low_Power_Mode
 590 048a 00E0     		b	.L11
 591              	.L16:
 592              	.LBB3:
 593              		.loc 1 233 0
 594 048c 00BF     		nop
 595              	.L11:
 596              	.LBE3:
 283:.\main.c      ****         }
 284:.\main.c      ****     CyDelay(1u);  // Quick Pause to prevent locking
 597              		.loc 1 284 0
 598 048e 4FF00100 		mov	r0, #1
 599 0492 FFF7FEFF 		bl	CyDelay
 285:.\main.c      ****     }
 600              		.loc 1 285 0
 601 0496 07E6     		b	.L14
 602              		.cfi_endproc
 603              	.LFE29:
 604              		.size	main, .-main
 605              		.section	.text.killMotePower,"ax",%progbits
 606              		.align	2
 607              		.global	killMotePower
 608              		.thumb
 609              		.thumb_func
 610              		.type	killMotePower, %function
 611              	killMotePower:
 612              	.LFB30:
 286:.\main.c      **** }
 287:.\main.c      **** 
 288:.\main.c      **** //pulls down all pins relatd to mote to save power since we're nousing it
 289:.\main.c      **** void killMotePower(){
 613              		.loc 1 289 0
 614              		.cfi_startproc
 615              		@ args = 0, pretend = 0, frame = 0
 616              		@ frame_needed = 1, uses_anonymous_args = 0
 617 0000 80B5     		push	{r7, lr}
 618              	.LCFI3:
 619              		.cfi_def_cfa_offset 8
 620 0002 00AF     		add	r7, sp, #0
 621              		.cfi_offset 14, -4
ARM GAS  C:\Users\karunmj\AppData\Local\Temp\ccSLdOKF.s 			page 18


 622              		.cfi_offset 7, -8
 623              	.LCFI4:
 624              		.cfi_def_cfa_register 7
 290:.\main.c      ****     NEOMOTE_1_RX_RTS_n_Write(0u);
 625              		.loc 1 290 0
 626 0004 4FF00000 		mov	r0, #0
 627 0008 FFF7FEFF 		bl	NEOMOTE_1_RX_RTS_n_Write
 291:.\main.c      ****     NEOMOTE_1_RX_CTS_n_Write(0u);
 628              		.loc 1 291 0
 629 000c 4FF00000 		mov	r0, #0
 630 0010 FFF7FEFF 		bl	NEOMOTE_1_RX_CTS_n_Write
 292:.\main.c      ****     NEOMOTE_1_TX_RTS_n_Write(0u);
 631              		.loc 1 292 0
 632 0014 4FF00000 		mov	r0, #0
 633 0018 FFF7FEFF 		bl	NEOMOTE_1_TX_RTS_n_Write
 293:.\main.c      ****     NEOMOTE_1_TX_CTS_n_Write(0u);
 634              		.loc 1 293 0
 635 001c 4FF00000 		mov	r0, #0
 636 0020 FFF7FEFF 		bl	NEOMOTE_1_TX_CTS_n_Write
 294:.\main.c      ****     NEOMOTE_1_RX_Pin_Write(0u);
 637              		.loc 1 294 0
 638 0024 4FF00000 		mov	r0, #0
 639 0028 FFF7FEFF 		bl	NEOMOTE_1_RX_Pin_Write
 295:.\main.c      ****     NEOMOTE_1_TX_Pin_Write(0u);
 640              		.loc 1 295 0
 641 002c 4FF00000 		mov	r0, #0
 642 0030 FFF7FEFF 		bl	NEOMOTE_1_TX_Pin_Write
 296:.\main.c      ****     NEOMOTE_1_TimeN_Write(0u);
 643              		.loc 1 296 0
 644 0034 4FF00000 		mov	r0, #0
 645 0038 FFF7FEFF 		bl	NEOMOTE_1_TimeN_Write
 297:.\main.c      **** }
 646              		.loc 1 297 0
 647 003c 80BD     		pop	{r7, pc}
 648              		.cfi_endproc
 649              	.LFE30:
 650              		.size	killMotePower, .-killMotePower
 651 003e 00BF     		.section	.text.isr_timer,"ax",%progbits
 652              		.align	2
 653              		.global	isr_timer
 654              		.thumb
 655              		.thumb_func
 656              		.type	isr_timer, %function
 657              	isr_timer:
 658              	.LFB31:
 298:.\main.c      **** 
 299:.\main.c      **** 
 300:.\main.c      **** 
 301:.\main.c      **** CY_ISR(isr_timer){
 659              		.loc 1 301 0
 660              		.cfi_startproc
 661              		@ args = 0, pretend = 0, frame = 0
 662              		@ frame_needed = 1, uses_anonymous_args = 0
 663              		@ link register save eliminated.
 664 0000 80B4     		push	{r7}
 665              	.LCFI5:
 666              		.cfi_def_cfa_offset 4
ARM GAS  C:\Users\karunmj\AppData\Local\Temp\ccSLdOKF.s 			page 19


 667 0002 00AF     		add	r7, sp, #0
 668              		.cfi_offset 7, -4
 669              	.LCFI6:
 670              		.cfi_def_cfa_register 7
 302:.\main.c      ****     //take_reading = 1u;
 303:.\main.c      ****     //timer_ReadStatusRegister();
 304:.\main.c      **** }
 671              		.loc 1 304 0
 672 0004 BD46     		mov	sp, r7
 673 0006 80BC     		pop	{r7}
 674 0008 7047     		bx	lr
 675              		.cfi_endproc
 676              	.LFE31:
 677              		.size	isr_timer, .-isr_timer
 678 000a 00BF     		.section	.text.rtcCallBackReceived,"ax",%progbits
 679              		.align	2
 680              		.global	rtcCallBackReceived
 681              		.thumb
 682              		.thumb_func
 683              		.type	rtcCallBackReceived, %function
 684              	rtcCallBackReceived:
 685              	.LFB32:
 305:.\main.c      **** 
 306:.\main.c      **** //void read_packet(){
 307:.\main.c      **** //}
 308:.\main.c      **** 
 309:.\main.c      **** /*
 310:.\main.c      **** void clear_packet(char* packet){
 311:.\main.c      ****     
 312:.\main.c      ****     //uint8 i;
 313:.\main.c      ****     //for(i = 0u; i < packet_size; i++){
 314:.\main.c      ****     //    packet[i] = 0u;
 315:.\main.c      ****     //}
 316:.\main.c      ****     
 317:.\main.c      ****     memset(packet,0,sizeof(packet));
 318:.\main.c      ****     packet_ready = 0u;
 319:.\main.c      **** }
 320:.\main.c      **** */
 321:.\main.c      **** void rtcCallBackReceived(uint8 alarmType){ // RTC Event Handler.
 686              		.loc 1 321 0
 687              		.cfi_startproc
 688              		@ args = 0, pretend = 0, frame = 8
 689              		@ frame_needed = 1, uses_anonymous_args = 0
 690              		@ link register save eliminated.
 691 0000 80B4     		push	{r7}
 692              	.LCFI7:
 693              		.cfi_def_cfa_offset 4
 694 0002 83B0     		sub	sp, sp, #12
 695              	.LCFI8:
 696              		.cfi_def_cfa_offset 16
 697 0004 00AF     		add	r7, sp, #0
 698              		.cfi_offset 7, -4
 699              	.LCFI9:
 700              		.cfi_def_cfa_register 7
 701 0006 0346     		mov	r3, r0
 702 0008 FB71     		strb	r3, [r7, #7]
 322:.\main.c      ****       
ARM GAS  C:\Users\karunmj\AppData\Local\Temp\ccSLdOKF.s 			page 20


 323:.\main.c      ****     if(alarmType == RTC_MINUTE_ALARM){
 703              		.loc 1 323 0
 704 000a FB79     		ldrb	r3, [r7, #7]	@ zero_extendqisi2
 705 000c 012B     		cmp	r3, #1
 706 000e 06D1     		bne	.L23
 324:.\main.c      ****          
 325:.\main.c      ****         take_reading = 1u;
 707              		.loc 1 325 0
 708 0010 40F20003 		movw	r3, #:lower16:take_reading
 709 0014 C0F20003 		movt	r3, #:upper16:take_reading
 710 0018 4FF00102 		mov	r2, #1
 711 001c 1A70     		strb	r2, [r3, #0]
 712              	.L23:
 326:.\main.c      ****         
 327:.\main.c      ****     }   
 328:.\main.c      **** }
 713              		.loc 1 328 0
 714 001e 07F10C07 		add	r7, r7, #12
 715 0022 BD46     		mov	sp, r7
 716 0024 80BC     		pop	{r7}
 717 0026 7047     		bx	lr
 718              		.cfi_endproc
 719              	.LFE32:
 720              		.size	rtcCallBackReceived, .-rtcCallBackReceived
 721              		.section	.text.Write_To_SD_Card,"ax",%progbits
 722              		.align	2
 723              		.global	Write_To_SD_Card
 724              		.thumb
 725              		.thumb_func
 726              		.type	Write_To_SD_Card, %function
 727              	Write_To_SD_Card:
 728              	.LFB33:
 329:.\main.c      **** 
 330:.\main.c      **** 
 331:.\main.c      **** void Write_To_SD_Card(const char* fileName, const char* pMode, const void* pData, U32 NumBytes) {
 729              		.loc 1 331 0
 730              		.cfi_startproc
 731              		@ args = 0, pretend = 0, frame = 32
 732              		@ frame_needed = 1, uses_anonymous_args = 0
 733 0000 80B5     		push	{r7, lr}
 734              	.LCFI10:
 735              		.cfi_def_cfa_offset 8
 736 0002 88B0     		sub	sp, sp, #32
 737              	.LCFI11:
 738              		.cfi_def_cfa_offset 40
 739 0004 00AF     		add	r7, sp, #0
 740              		.cfi_offset 14, -4
 741              		.cfi_offset 7, -8
 742              	.LCFI12:
 743              		.cfi_def_cfa_register 7
 744 0006 F860     		str	r0, [r7, #12]
 745 0008 B960     		str	r1, [r7, #8]
 746 000a 7A60     		str	r2, [r7, #4]
 747 000c 3B60     		str	r3, [r7, #0]
 332:.\main.c      **** // Remember to add line below to rtcCallBack Function
 333:.\main.c      **** // Write_To_SD_Card("myData.txt","a",sendBuffer,strlen(sendBuffer));
 334:.\main.c      **** 
ARM GAS  C:\Users\karunmj\AppData\Local\Temp\ccSLdOKF.s 			page 21


 335:.\main.c      ****     NEOMOTE_1_SD_Card_Power_Write(0u); // Power on the SD Card
 748              		.loc 1 335 0
 749 000e 4FF00000 		mov	r0, #0
 750 0012 FFF7FEFF 		bl	NEOMOTE_1_SD_Card_Power_Write
 336:.\main.c      ****     
 337:.\main.c      ****     FS_FILE *  pFile;
 338:.\main.c      ****     char sdVolName[10];  // Buffer that will hold SD card Volume name
 339:.\main.c      ****     
 340:.\main.c      ****     if (0 != FS_GetVolumeName(0, &sdVolName[0], 9)) {
 751              		.loc 1 340 0
 752 0016 07F11003 		add	r3, r7, #16
 753 001a 4FF00000 		mov	r0, #0
 754 001e 1946     		mov	r1, r3
 755 0020 4FF00902 		mov	r2, #9
 756 0024 FFF7FEFF 		bl	FS_GetVolumeName
 757 0028 0346     		mov	r3, r0
 758 002a 002B     		cmp	r3, #0
 759 002c 1AD0     		beq	.L25
 341:.\main.c      ****         pFile = FS_FOpen(fileName, pMode);
 760              		.loc 1 341 0
 761 002e F868     		ldr	r0, [r7, #12]
 762 0030 B968     		ldr	r1, [r7, #8]
 763 0032 FFF7FEFF 		bl	FS_FOpen
 764 0036 0346     		mov	r3, r0
 765 0038 FB61     		str	r3, [r7, #28]
 342:.\main.c      ****         if (pFile == 0){
 766              		.loc 1 342 0
 767 003a FB69     		ldr	r3, [r7, #28]
 768 003c 002B     		cmp	r3, #0
 769 003e 09D1     		bne	.L26
 343:.\main.c      ****             FS_DeInit();
 770              		.loc 1 343 0
 771 0040 FFF7FEFF 		bl	FS_DeInit
 344:.\main.c      ****             FS_Init(); //poipoi debug error
 772              		.loc 1 344 0
 773 0044 FFF7FEFF 		bl	FS_Init
 345:.\main.c      ****             pFile = FS_FOpen(fileName, pMode);
 774              		.loc 1 345 0
 775 0048 F868     		ldr	r0, [r7, #12]
 776 004a B968     		ldr	r1, [r7, #8]
 777 004c FFF7FEFF 		bl	FS_FOpen
 778 0050 0346     		mov	r3, r0
 779 0052 FB61     		str	r3, [r7, #28]
 780              	.L26:
 346:.\main.c      ****         }
 347:.\main.c      ****         FS_Write(pFile, pData, NumBytes);
 781              		.loc 1 347 0
 782 0054 F869     		ldr	r0, [r7, #28]
 783 0056 7968     		ldr	r1, [r7, #4]
 784 0058 3A68     		ldr	r2, [r7, #0]
 785 005a FFF7FEFF 		bl	FS_Write
 348:.\main.c      ****         FS_FClose(pFile);
 786              		.loc 1 348 0
 787 005e F869     		ldr	r0, [r7, #28]
 788 0060 FFF7FEFF 		bl	FS_FClose
 789              	.L25:
 349:.\main.c      ****     }
ARM GAS  C:\Users\karunmj\AppData\Local\Temp\ccSLdOKF.s 			page 22


 350:.\main.c      ****     
 351:.\main.c      ****     NEOMOTE_1_SD_Card_Power_Write(1u); // Power off the SD Card
 790              		.loc 1 351 0
 791 0064 4FF00100 		mov	r0, #1
 792 0068 FFF7FEFF 		bl	NEOMOTE_1_SD_Card_Power_Write
 352:.\main.c      **** 
 353:.\main.c      **** }
 793              		.loc 1 353 0
 794 006c 07F12007 		add	r7, r7, #32
 795 0070 BD46     		mov	sp, r7
 796 0072 80BD     		pop	{r7, pc}
 797              		.cfi_endproc
 798              	.LFE33:
 799              		.size	Write_To_SD_Card, .-Write_To_SD_Card
 800              		.text
 801              	.Letext0: