ARM GAS  C:\Users\karunmj\AppData\Local\Temp\ccGaaAqA.s 			page 1


   1              		.syntax unified
   2              		.cpu cortex-m3
   3              		.fpu softvfp
   4              		.eabi_attribute 20, 1
   5              		.eabi_attribute 21, 1
   6              		.eabi_attribute 23, 3
   7              		.eabi_attribute 24, 1
   8              		.eabi_attribute 25, 1
   9              		.eabi_attribute 26, 1
  10              		.eabi_attribute 30, 6
  11              		.eabi_attribute 18, 4
  12              		.thumb
  13              		.file	"modem.c"
  14              		.section	.debug_abbrev,"",%progbits
  15              	.Ldebug_abbrev0:
  16              		.section	.debug_info,"",%progbits
  17              	.Ldebug_info0:
  18              		.section	.debug_line,"",%progbits
  19              	.Ldebug_line0:
  20 0000 08020000 		.text
  20      02005400 
  20      00000201 
  20      FB0E0D00 
  20      01010101 
  21              	.Ltext0:
  22              		.cfi_sections	.debug_frame
  23              		.comm	modem_state,1,1
  24              		.global	lock_acquired
  25              		.bss
  26              		.type	lock_acquired, %object
  27              		.size	lock_acquired, 1
  28              	lock_acquired:
  29 0000 00       		.space	1
  30              		.global	uart_string_index
  31 0001 00       		.align	1
  32              		.type	uart_string_index, %object
  33              		.size	uart_string_index, 2
  34              	uart_string_index:
  35 0002 0000     		.space	2
  36              		.comm	feed_id,4,4
  37              		.global	uart_received_string
  38              		.align	2
  39              		.type	uart_received_string, %object
  40              		.size	uart_received_string, 700
  41              	uart_received_string:
  42 0004 00000000 		.space	700
  42      00000000 
  42      00000000 
  42      00000000 
  42      00000000 
  43              		.comm	api_key,4,4
  44              		.section	.text.modem_set_api_feed,"ax",%progbits
  45              		.align	2
  46              		.global	modem_set_api_feed
  47              		.thumb
  48              		.thumb_func
  49              		.type	modem_set_api_feed, %function
ARM GAS  C:\Users\karunmj\AppData\Local\Temp\ccGaaAqA.s 			page 2


  50              	modem_set_api_feed:
  51              	.LFB29:
  52              		.file 1 ".\\modem.c"
   1:.\modem.c     **** ///* ========================================
   2:.\modem.c     **** // *
   3:.\modem.c     **** // * Copyright YOUR COMPANY, THE YEAR
   4:.\modem.c     **** // * All Rights Reserved
   5:.\modem.c     **** // * UNPUBLISHED, LICENSED SOFTWARE.
   6:.\modem.c     **** // *
   7:.\modem.c     **** // * CONFIDENTIAL AND PROPRIETARY INFORMATION
   8:.\modem.c     **** // * WHICH IS THE PROPERTY OF your company.
   9:.\modem.c     **** // *
  10:.\modem.c     **** // * ========================================
  11:.\modem.c     **** //*/
  12:.\modem.c     **** //
  13:.\modem.c     **** 
  14:.\modem.c     **** #include <device.h>
  15:.\modem.c     **** #include <string.h>
  16:.\modem.c     **** #include "modem.h"
  17:.\modem.c     **** #include "packet.h"
  18:.\modem.c     **** #include "debug.h"
  19:.\modem.c     **** 
  20:.\modem.c     **** // declare varaiables
  21:.\modem.c     **** uint8 modem_state, lock_acquired = 0u;
  22:.\modem.c     **** uint16 uart_string_index = 0u;
  23:.\modem.c     **** uint32 feed_id;
  24:.\modem.c     **** char uart_received_string[700] = {0}, *api_key;
  25:.\modem.c     **** 
  26:.\modem.c     **** 
  27:.\modem.c     **** 
  28:.\modem.c     **** // prototype modem interrupt
  29:.\modem.c     **** CY_ISR_PROTO(isr_byte_rx);
  30:.\modem.c     **** void uart_string_reset();
  31:.\modem.c     **** 
  32:.\modem.c     **** uint8 modem_set_api_feed(uint32 id, char* key){
  53              		.loc 1 32 0
  54              		.cfi_startproc
  55              		@ args = 0, pretend = 0, frame = 8
  56              		@ frame_needed = 1, uses_anonymous_args = 0
  57              		@ link register save eliminated.
  58 0000 80B4     		push	{r7}
  59              	.LCFI0:
  60              		.cfi_def_cfa_offset 4
  61 0002 83B0     		sub	sp, sp, #12
  62              	.LCFI1:
  63              		.cfi_def_cfa_offset 16
  64 0004 00AF     		add	r7, sp, #0
  65              		.cfi_offset 7, -4
  66              	.LCFI2:
  67              		.cfi_def_cfa_register 7
  68 0006 7860     		str	r0, [r7, #4]
  69 0008 3960     		str	r1, [r7, #0]
  33:.\modem.c     ****     feed_id = id;
  70              		.loc 1 33 0
  71 000a 40F20003 		movw	r3, #:lower16:feed_id
  72 000e C0F20003 		movt	r3, #:upper16:feed_id
  73 0012 7A68     		ldr	r2, [r7, #4]
ARM GAS  C:\Users\karunmj\AppData\Local\Temp\ccGaaAqA.s 			page 3


  74 0014 1A60     		str	r2, [r3, #0]
  34:.\modem.c     ****     api_key = key;
  75              		.loc 1 34 0
  76 0016 40F20003 		movw	r3, #:lower16:api_key
  77 001a C0F20003 		movt	r3, #:upper16:api_key
  78 001e 3A68     		ldr	r2, [r7, #0]
  79 0020 1A60     		str	r2, [r3, #0]
  35:.\modem.c     ****     return 1u;
  80              		.loc 1 35 0
  81 0022 4FF00103 		mov	r3, #1
  36:.\modem.c     **** }
  82              		.loc 1 36 0
  83 0026 1846     		mov	r0, r3
  84 0028 07F10C07 		add	r7, r7, #12
  85 002c BD46     		mov	sp, r7
  86 002e 80BC     		pop	{r7}
  87 0030 7047     		bx	lr
  88              		.cfi_endproc
  89              	.LFE29:
  90              		.size	modem_set_api_feed, .-modem_set_api_feed
  91 0032 00BF     		.section	.text.modem_start,"ax",%progbits
  92              		.align	2
  93              		.global	modem_start
  94              		.thumb
  95              		.thumb_func
  96              		.type	modem_start, %function
  97              	modem_start:
  98              	.LFB30:
  37:.\modem.c     **** 
  38:.\modem.c     **** // initialize modem
  39:.\modem.c     **** void modem_start(){
  99              		.loc 1 39 0
 100              		.cfi_startproc
 101              		@ args = 0, pretend = 0, frame = 0
 102              		@ frame_needed = 1, uses_anonymous_args = 0
 103 0000 80B5     		push	{r7, lr}
 104              	.LCFI3:
 105              		.cfi_def_cfa_offset 8
 106 0002 00AF     		add	r7, sp, #0
 107              		.cfi_offset 14, -4
 108              		.cfi_offset 7, -8
 109              	.LCFI4:
 110              		.cfi_def_cfa_register 7
  40:.\modem.c     ****     uart_Start();
 111              		.loc 1 40 0
 112 0004 FFF7FEFF 		bl	uart_Start
  41:.\modem.c     ****     ControlReg_Modem_Write(0u);
 113              		.loc 1 41 0
 114 0008 4FF00000 		mov	r0, #0
 115 000c FFF7FEFF 		bl	ControlReg_Modem_Write
  42:.\modem.c     ****     modem_power_pin_Write(0u);
 116              		.loc 1 42 0
 117 0010 4FF00000 		mov	r0, #0
 118 0014 FFF7FEFF 		bl	modem_power_pin_Write
  43:.\modem.c     ****     isr_byte_rx_StartEx(isr_byte_rx);
 119              		.loc 1 43 0
 120 0018 40F20000 		movw	r0, #:lower16:isr_byte_rx
ARM GAS  C:\Users\karunmj\AppData\Local\Temp\ccGaaAqA.s 			page 4


 121 001c C0F20000 		movt	r0, #:upper16:isr_byte_rx
 122 0020 FFF7FEFF 		bl	isr_byte_rx_StartEx
  44:.\modem.c     ****     modem_state = MODEM_STATE_OFF;
 123              		.loc 1 44 0
 124 0024 40F20003 		movw	r3, #:lower16:modem_state
 125 0028 C0F20003 		movt	r3, #:upper16:modem_state
 126 002c 4FF00002 		mov	r2, #0
 127 0030 1A70     		strb	r2, [r3, #0]
  45:.\modem.c     **** }
 128              		.loc 1 45 0
 129 0032 80BD     		pop	{r7, pc}
 130              		.cfi_endproc
 131              	.LFE30:
 132              		.size	modem_start, .-modem_start
 133              		.section	.text.at_write_command,"ax",%progbits
 134              		.align	2
 135              		.global	at_write_command
 136              		.thumb
 137              		.thumb_func
 138              		.type	at_write_command, %function
 139              	at_write_command:
 140              	.LFB31:
  46:.\modem.c     **** 
  47:.\modem.c     **** // send at-command to modem
  48:.\modem.c     **** uint8 at_write_command(char* uart_string, char* expected_response, uint32 uart_timeout){
 141              		.loc 1 48 0
 142              		.cfi_startproc
 143              		@ args = 0, pretend = 0, frame = 40
 144              		@ frame_needed = 1, uses_anonymous_args = 0
 145 0000 80B5     		push	{r7, lr}
 146              	.LCFI5:
 147              		.cfi_def_cfa_offset 8
 148 0002 8AB0     		sub	sp, sp, #40
 149              	.LCFI6:
 150              		.cfi_def_cfa_offset 48
 151 0004 00AF     		add	r7, sp, #0
 152              		.cfi_offset 14, -4
 153              		.cfi_offset 7, -8
 154              	.LCFI7:
 155              		.cfi_def_cfa_register 7
 156 0006 F860     		str	r0, [r7, #12]
 157 0008 B960     		str	r1, [r7, #8]
 158 000a 7A60     		str	r2, [r7, #4]
  49:.\modem.c     ****     uint8 response = 0u;
 159              		.loc 1 49 0
 160 000c 4FF00003 		mov	r3, #0
 161 0010 FB75     		strb	r3, [r7, #23]
  50:.\modem.c     ****     uint32 i = 0u, delay = 100u, interval = uart_timeout/delay;
 162              		.loc 1 50 0
 163 0012 4FF00003 		mov	r3, #0
 164 0016 BB61     		str	r3, [r7, #24]
 165 0018 4FF06403 		mov	r3, #100
 166 001c FB61     		str	r3, [r7, #28]
 167 001e 7A68     		ldr	r2, [r7, #4]
 168 0020 FB69     		ldr	r3, [r7, #28]
 169 0022 B2FBF3F3 		udiv	r3, r2, r3
 170 0026 3B62     		str	r3, [r7, #32]
ARM GAS  C:\Users\karunmj\AppData\Local\Temp\ccGaaAqA.s 			page 5


  51:.\modem.c     ****     
  52:.\modem.c     ****     uart_string_reset();
 171              		.loc 1 52 0
 172 0028 FFF7FEFF 		bl	uart_string_reset
  53:.\modem.c     ****     uart_PutString(uart_string);
 173              		.loc 1 53 0
 174 002c F868     		ldr	r0, [r7, #12]
 175 002e FFF7FEFF 		bl	uart_PutString
  54:.\modem.c     ****     
  55:.\modem.c     ****     if( strcmp(expected_response, "") != 0){
 176              		.loc 1 55 0
 177 0032 BB68     		ldr	r3, [r7, #8]
 178 0034 1B78     		ldrb	r3, [r3, #0]	@ zero_extendqisi2
 179 0036 002B     		cmp	r3, #0
 180 0038 1ED0     		beq	.L6
  56:.\modem.c     ****         for(i=0;i<interval;i++){
 181              		.loc 1 56 0
 182 003a 4FF00003 		mov	r3, #0
 183 003e BB61     		str	r3, [r7, #24]
 184 0040 16E0     		b	.L7
 185              	.L9:
 186              	.LBB2:
  57:.\modem.c     ****             char* valid = strstr(uart_received_string, expected_response);
 187              		.loc 1 57 0
 188 0042 40F20000 		movw	r0, #:lower16:uart_received_string
 189 0046 C0F20000 		movt	r0, #:upper16:uart_received_string
 190 004a B968     		ldr	r1, [r7, #8]
 191 004c FFF7FEFF 		bl	strstr
 192 0050 0346     		mov	r3, r0
 193 0052 7B62     		str	r3, [r7, #36]
  58:.\modem.c     ****             if(valid != NULL){
 194              		.loc 1 58 0
 195 0054 7B6A     		ldr	r3, [r7, #36]
 196 0056 002B     		cmp	r3, #0
 197 0058 03D0     		beq	.L8
  59:.\modem.c     ****                 response = 1u;
 198              		.loc 1 59 0
 199 005a 4FF00103 		mov	r3, #1
 200 005e FB75     		strb	r3, [r7, #23]
  60:.\modem.c     ****                 break;
 201              		.loc 1 60 0
 202 0060 0AE0     		b	.L6
 203              	.L8:
  61:.\modem.c     ****             }
  62:.\modem.c     ****             CyDelay(delay);
 204              		.loc 1 62 0
 205 0062 F869     		ldr	r0, [r7, #28]
 206 0064 FFF7FEFF 		bl	CyDelay
 207              	.LBE2:
 208              		.loc 1 56 0
 209 0068 BB69     		ldr	r3, [r7, #24]
 210 006a 03F10103 		add	r3, r3, #1
 211 006e BB61     		str	r3, [r7, #24]
 212              	.L7:
 213 0070 BA69     		ldr	r2, [r7, #24]
 214 0072 3B6A     		ldr	r3, [r7, #32]
 215 0074 9A42     		cmp	r2, r3
ARM GAS  C:\Users\karunmj\AppData\Local\Temp\ccGaaAqA.s 			page 6


 216 0076 E4D3     		bcc	.L9
 217              	.L6:
  63:.\modem.c     ****         }
  64:.\modem.c     ****     }
  65:.\modem.c     ****     
  66:.\modem.c     ****     return response;
 218              		.loc 1 66 0
 219 0078 FB7D     		ldrb	r3, [r7, #23]	@ zero_extendqisi2
  67:.\modem.c     **** }
 220              		.loc 1 67 0
 221 007a 1846     		mov	r0, r3
 222 007c 07F12807 		add	r7, r7, #40
 223 0080 BD46     		mov	sp, r7
 224 0082 80BD     		pop	{r7, pc}
 225              		.cfi_endproc
 226              	.LFE31:
 227              		.size	at_write_command, .-at_write_command
 228              		.section	.text.modem_power_on,"ax",%progbits
 229              		.align	2
 230              		.global	modem_power_on
 231              		.thumb
 232              		.thumb_func
 233              		.type	modem_power_on, %function
 234              	modem_power_on:
 235              	.LFB32:
  68:.\modem.c     **** 
  69:.\modem.c     **** uint8 modem_power_on(){
 236              		.loc 1 69 0
 237              		.cfi_startproc
 238              		@ args = 0, pretend = 0, frame = 0
 239              		@ frame_needed = 1, uses_anonymous_args = 0
 240 0000 80B5     		push	{r7, lr}
 241              	.LCFI8:
 242              		.cfi_def_cfa_offset 8
 243 0002 00AF     		add	r7, sp, #0
 244              		.cfi_offset 14, -4
 245              		.cfi_offset 7, -8
 246              	.LCFI9:
 247              		.cfi_def_cfa_register 7
  70:.\modem.c     **** 
  71:.\modem.c     ****     if (modem_state != MODEM_STATE_OFF) {
 248              		.loc 1 71 0
 249 0004 40F20003 		movw	r3, #:lower16:modem_state
 250 0008 C0F20003 		movt	r3, #:upper16:modem_state
 251 000c 1B78     		ldrb	r3, [r3, #0]	@ zero_extendqisi2
 252 000e 002B     		cmp	r3, #0
 253 0010 02D0     		beq	.L12
  72:.\modem.c     ****         // Modem is already on
  73:.\modem.c     ****         return 1u;
 254              		.loc 1 73 0
 255 0012 4FF00103 		mov	r3, #1
 256 0016 2BE0     		b	.L13
 257              	.L12:
  74:.\modem.c     ****     }
  75:.\modem.c     **** 
  76:.\modem.c     ****     modem_power_pin_Write(1u);
 258              		.loc 1 76 0
ARM GAS  C:\Users\karunmj\AppData\Local\Temp\ccGaaAqA.s 			page 7


 259 0018 4FF00100 		mov	r0, #1
 260 001c FFF7FEFF 		bl	modem_power_pin_Write
  77:.\modem.c     ****     modem_reset_pin_Write(1u);
 261              		.loc 1 77 0
 262 0020 4FF00100 		mov	r0, #1
 263 0024 FFF7FEFF 		bl	modem_reset_pin_Write
  78:.\modem.c     ****     modem_voltage_pin_Write(0u); //provide power to modem
 264              		.loc 1 78 0
 265 0028 4FF00000 		mov	r0, #0
 266 002c FFF7FEFF 		bl	modem_voltage_pin_Write
  79:.\modem.c     ****     ControlReg_Modem_Write(1u);
 267              		.loc 1 79 0
 268 0030 4FF00100 		mov	r0, #1
 269 0034 FFF7FEFF 		bl	ControlReg_Modem_Write
  80:.\modem.c     ****     modem_power_pin_Write(0u);
 270              		.loc 1 80 0
 271 0038 4FF00000 		mov	r0, #0
 272 003c FFF7FEFF 		bl	modem_power_pin_Write
  81:.\modem.c     ****     CyDelay(2000u);  // the pad ON# must be tied low for at least 1 second and then released.
 273              		.loc 1 81 0
 274 0040 4FF4FA60 		mov	r0, #2000
 275 0044 FFF7FEFF 		bl	CyDelay
  82:.\modem.c     ****     modem_power_pin_Write(1u);
 276              		.loc 1 82 0
 277 0048 4FF00100 		mov	r0, #1
 278 004c FFF7FEFF 		bl	modem_power_pin_Write
  83:.\modem.c     ****     CyDelay(10000u);  
 279              		.loc 1 83 0
 280 0050 42F21070 		movw	r0, #10000
 281 0054 FFF7FEFF 		bl	CyDelay
  84:.\modem.c     ****     /* changed from CyDelay(5000u);?
  85:.\modem.c     ****         "To get the desirable stability, 
  86:.\modem.c     ****         CC864-DUAL needs at least 10 seconds 
  87:.\modem.c     ****         after the PWRMON goes HIGH.*/
  88:.\modem.c     ****     modem_state = MODEM_STATE_IDLE;
 282              		.loc 1 88 0
 283 0058 40F20003 		movw	r3, #:lower16:modem_state
 284 005c C0F20003 		movt	r3, #:upper16:modem_state
 285 0060 4FF00102 		mov	r2, #1
 286 0064 1A70     		strb	r2, [r3, #0]
  89:.\modem.c     ****     return modem_state;
 287              		.loc 1 89 0
 288 0066 40F20003 		movw	r3, #:lower16:modem_state
 289 006a C0F20003 		movt	r3, #:upper16:modem_state
 290 006e 1B78     		ldrb	r3, [r3, #0]	@ zero_extendqisi2
 291              	.L13:
  90:.\modem.c     **** }
 292              		.loc 1 90 0
 293 0070 1846     		mov	r0, r3
 294 0072 80BD     		pop	{r7, pc}
 295              		.cfi_endproc
 296              	.LFE32:
 297              		.size	modem_power_on, .-modem_power_on
 298              		.section	.text.modem_power_off,"ax",%progbits
 299              		.align	2
 300              		.global	modem_power_off
 301              		.thumb
ARM GAS  C:\Users\karunmj\AppData\Local\Temp\ccGaaAqA.s 			page 8


 302              		.thumb_func
 303              		.type	modem_power_off, %function
 304              	modem_power_off:
 305              	.LFB33:
  91:.\modem.c     **** 
  92:.\modem.c     **** uint8 modem_power_off(){
 306              		.loc 1 92 0
 307              		.cfi_startproc
 308              		@ args = 0, pretend = 0, frame = 0
 309              		@ frame_needed = 1, uses_anonymous_args = 0
 310 0000 80B5     		push	{r7, lr}
 311              	.LCFI10:
 312              		.cfi_def_cfa_offset 8
 313 0002 00AF     		add	r7, sp, #0
 314              		.cfi_offset 14, -4
 315              		.cfi_offset 7, -8
 316              	.LCFI11:
 317              		.cfi_def_cfa_register 7
  93:.\modem.c     **** 
  94:.\modem.c     ****     if (modem_state == MODEM_STATE_OFF) {
 318              		.loc 1 94 0
 319 0004 40F20003 		movw	r3, #:lower16:modem_state
 320 0008 C0F20003 		movt	r3, #:upper16:modem_state
 321 000c 1B78     		ldrb	r3, [r3, #0]	@ zero_extendqisi2
 322 000e 002B     		cmp	r3, #0
 323 0010 02D1     		bne	.L16
  95:.\modem.c     ****         // Modem is already off
  96:.\modem.c     ****         return 1u;
 324              		.loc 1 96 0
 325 0012 4FF00103 		mov	r3, #1
 326 0016 2DE0     		b	.L17
 327              	.L16:
  97:.\modem.c     ****     }
  98:.\modem.c     **** 
  99:.\modem.c     ****     // Try to disconnect the modem.  
 100:.\modem.c     ****     // Continue whether or not disconnect is successful
 101:.\modem.c     ****     modem_disconnect();
 328              		.loc 1 101 0
 329 0018 FFF7FEFF 		bl	modem_disconnect
 102:.\modem.c     ****     
 103:.\modem.c     ****     modem_power_pin_Write(0u);
 330              		.loc 1 103 0
 331 001c 4FF00000 		mov	r0, #0
 332 0020 FFF7FEFF 		bl	modem_power_pin_Write
 104:.\modem.c     ****     CyDelay(2500u);  // To turn the CC864-DUAL off, the ON/OFF Pin must be tied low for 2 second an
 333              		.loc 1 104 0
 334 0024 40F6C410 		movw	r0, #2500
 335 0028 FFF7FEFF 		bl	CyDelay
 105:.\modem.c     ****     modem_power_pin_Write(1u);
 336              		.loc 1 105 0
 337 002c 4FF00100 		mov	r0, #1
 338 0030 FFF7FEFF 		bl	modem_power_pin_Write
 106:.\modem.c     ****     CyDelay(5000u); 
 339              		.loc 1 106 0
 340 0034 41F28830 		movw	r0, #5000
 341 0038 FFF7FEFF 		bl	CyDelay
 107:.\modem.c     ****     /* CyDelay(5000u); // wait for module to turn off
ARM GAS  C:\Users\karunmj\AppData\Local\Temp\ccGaaAqA.s 			page 9


 108:.\modem.c     ****         "Normally it will be above 10 seconds later from releasing
 109:.\modem.c     ****         ON/OFF# and DTE should monitor the status of PWRMON to see the
 110:.\modem.c     ****         actual power off."  */
 111:.\modem.c     ****     ControlReg_Modem_Write(0u);
 342              		.loc 1 111 0
 343 003c 4FF00000 		mov	r0, #0
 344 0040 FFF7FEFF 		bl	ControlReg_Modem_Write
 112:.\modem.c     ****     modem_voltage_pin_Write(1u); // cut power to modem
 345              		.loc 1 112 0
 346 0044 4FF00100 		mov	r0, #1
 347 0048 FFF7FEFF 		bl	modem_voltage_pin_Write
 113:.\modem.c     ****     modem_power_pin_Write(0u); //kill modem power pin as well
 348              		.loc 1 113 0
 349 004c 4FF00000 		mov	r0, #0
 350 0050 FFF7FEFF 		bl	modem_power_pin_Write
 114:.\modem.c     ****     modem_reset_pin_Write(0u);
 351              		.loc 1 114 0
 352 0054 4FF00000 		mov	r0, #0
 353 0058 FFF7FEFF 		bl	modem_reset_pin_Write
 115:.\modem.c     ****     modem_state = MODEM_STATE_OFF;
 354              		.loc 1 115 0
 355 005c 40F20003 		movw	r3, #:lower16:modem_state
 356 0060 C0F20003 		movt	r3, #:upper16:modem_state
 357 0064 4FF00002 		mov	r2, #0
 358 0068 1A70     		strb	r2, [r3, #0]
 116:.\modem.c     ****     return modem_state;
 359              		.loc 1 116 0
 360 006a 40F20003 		movw	r3, #:lower16:modem_state
 361 006e C0F20003 		movt	r3, #:upper16:modem_state
 362 0072 1B78     		ldrb	r3, [r3, #0]	@ zero_extendqisi2
 363              	.L17:
 117:.\modem.c     **** }
 364              		.loc 1 117 0
 365 0074 1846     		mov	r0, r3
 366 0076 80BD     		pop	{r7, pc}
 367              		.cfi_endproc
 368              	.LFE33:
 369              		.size	modem_power_off, .-modem_power_off
 370              		.section	.text.modem_reset,"ax",%progbits
 371              		.align	2
 372              		.global	modem_reset
 373              		.thumb
 374              		.thumb_func
 375              		.type	modem_reset, %function
 376              	modem_reset:
 377              	.LFB34:
 118:.\modem.c     **** 
 119:.\modem.c     **** uint8 modem_reset(){
 378              		.loc 1 119 0
 379              		.cfi_startproc
 380              		@ args = 0, pretend = 0, frame = 0
 381              		@ frame_needed = 1, uses_anonymous_args = 0
 382 0000 80B5     		push	{r7, lr}
 383              	.LCFI12:
 384              		.cfi_def_cfa_offset 8
 385 0002 00AF     		add	r7, sp, #0
 386              		.cfi_offset 14, -4
ARM GAS  C:\Users\karunmj\AppData\Local\Temp\ccGaaAqA.s 			page 10


 387              		.cfi_offset 7, -8
 388              	.LCFI13:
 389              		.cfi_def_cfa_register 7
 120:.\modem.c     ****     if (modem_state != MODEM_STATE_OFF) { // The modem is idle/ready (powered on)
 390              		.loc 1 120 0
 391 0004 40F20003 		movw	r3, #:lower16:modem_state
 392 0008 C0F20003 		movt	r3, #:upper16:modem_state
 393 000c 1B78     		ldrb	r3, [r3, #0]	@ zero_extendqisi2
 394 000e 002B     		cmp	r3, #0
 395 0010 16D0     		beq	.L20
 121:.\modem.c     ****         //modem_reset_pin_Write(0u); //provide power to modem
 122:.\modem.c     ****         modem_reset_pin_Write(0u);
 396              		.loc 1 122 0
 397 0012 4FF00000 		mov	r0, #0
 398 0016 FFF7FEFF 		bl	modem_reset_pin_Write
 123:.\modem.c     ****         CyDelay(500u);  // To reset and to reboot the module, 
 399              		.loc 1 123 0
 400 001a 4FF4FA70 		mov	r0, #500
 401 001e FFF7FEFF 		bl	CyDelay
 124:.\modem.c     ****                          // the RESET pin must be tied low for at least 200 milliseconds and then r
 125:.\modem.c     ****         modem_reset_pin_Write(1u);
 402              		.loc 1 125 0
 403 0022 4FF00100 		mov	r0, #1
 404 0026 FFF7FEFF 		bl	modem_reset_pin_Write
 126:.\modem.c     ****         //CyDelay(5000u);
 127:.\modem.c     ****         CyDelay(10000u);
 405              		.loc 1 127 0
 406 002a 42F21070 		movw	r0, #10000
 407 002e FFF7FEFF 		bl	CyDelay
 128:.\modem.c     ****         modem_state = MODEM_STATE_IDLE;
 408              		.loc 1 128 0
 409 0032 40F20003 		movw	r3, #:lower16:modem_state
 410 0036 C0F20003 		movt	r3, #:upper16:modem_state
 411 003a 4FF00102 		mov	r2, #1
 412 003e 1A70     		strb	r2, [r3, #0]
 413              	.L20:
 129:.\modem.c     ****     }
 130:.\modem.c     ****     return modem_state;
 414              		.loc 1 130 0
 415 0040 40F20003 		movw	r3, #:lower16:modem_state
 416 0044 C0F20003 		movt	r3, #:upper16:modem_state
 417 0048 1B78     		ldrb	r3, [r3, #0]	@ zero_extendqisi2
 131:.\modem.c     **** }
 418              		.loc 1 131 0
 419 004a 1846     		mov	r0, r3
 420 004c 80BD     		pop	{r7, pc}
 421              		.cfi_endproc
 422              	.LFE34:
 423              		.size	modem_reset, .-modem_reset
 424 004e 00BF     		.section	.rodata
 425              		.align	2
 426              	.LC0:
 427 0000 41542353 		.ascii	"AT#SGACT=1,1\015\000"
 427      47414354 
 427      3D312C31 
 427      0D00
 428 000e 0000     		.align	2
ARM GAS  C:\Users\karunmj\AppData\Local\Temp\ccGaaAqA.s 			page 11


 429              	.LC1:
 430 0010 4F4B00   		.ascii	"OK\000"
 431 0013 00       		.align	2
 432              	.LC2:
 433 0014 28415423 		.ascii	"(AT#SGACT=1,1) No IP Address Assigned.\000"
 433      53474143 
 433      543D312C 
 433      3129204E 
 433      6F204950 
 434              		.section	.text.modem_connect,"ax",%progbits
 435              		.align	2
 436              		.global	modem_connect
 437              		.thumb
 438              		.thumb_func
 439              		.type	modem_connect, %function
 440              	modem_connect:
 441              	.LFB35:
 132:.\modem.c     **** 
 133:.\modem.c     **** uint8 modem_connect(){
 442              		.loc 1 133 0
 443              		.cfi_startproc
 444              		@ args = 0, pretend = 0, frame = 0
 445              		@ frame_needed = 1, uses_anonymous_args = 0
 446 0000 80B5     		push	{r7, lr}
 447              	.LCFI14:
 448              		.cfi_def_cfa_offset 8
 449 0002 00AF     		add	r7, sp, #0
 450              		.cfi_offset 14, -4
 451              		.cfi_offset 7, -8
 452              	.LCFI15:
 453              		.cfi_def_cfa_register 7
 134:.\modem.c     ****     if(at_write_command("AT#SGACT=1,1\r","OK",15000u) == 1){
 454              		.loc 1 134 0
 455 0004 40F20000 		movw	r0, #:lower16:.LC0
 456 0008 C0F20000 		movt	r0, #:upper16:.LC0
 457 000c 40F20001 		movw	r1, #:lower16:.LC1
 458 0010 C0F20001 		movt	r1, #:upper16:.LC1
 459 0014 43F69822 		movw	r2, #15000
 460 0018 FFF7FEFF 		bl	at_write_command
 461 001c 0346     		mov	r3, r0
 462 001e 012B     		cmp	r3, #1
 463 0020 07D1     		bne	.L23
 135:.\modem.c     ****         modem_state = MODEM_STATE_READY;
 464              		.loc 1 135 0
 465 0022 40F20003 		movw	r3, #:lower16:modem_state
 466 0026 C0F20003 		movt	r3, #:upper16:modem_state
 467 002a 4FF00302 		mov	r2, #3
 468 002e 1A70     		strb	r2, [r3, #0]
 469 0030 05E0     		b	.L24
 470              	.L23:
 136:.\modem.c     ****         //return 1u; // connected to network
 137:.\modem.c     ****     }
 138:.\modem.c     ****     else debug_write("(AT#SGACT=1,1) No IP Address Assigned.");
 471              		.loc 1 138 0
 472 0032 40F20000 		movw	r0, #:lower16:.LC2
 473 0036 C0F20000 		movt	r0, #:upper16:.LC2
 474 003a FFF7FEFF 		bl	debug_write
ARM GAS  C:\Users\karunmj\AppData\Local\Temp\ccGaaAqA.s 			page 12


 475              	.L24:
 139:.\modem.c     **** 
 140:.\modem.c     ****     return modem_state;
 476              		.loc 1 140 0
 477 003e 40F20003 		movw	r3, #:lower16:modem_state
 478 0042 C0F20003 		movt	r3, #:upper16:modem_state
 479 0046 1B78     		ldrb	r3, [r3, #0]	@ zero_extendqisi2
 141:.\modem.c     ****     
 142:.\modem.c     **** /*
 143:.\modem.c     ****     if(at_write_command("AT+CREG=1\r","OK",5000u)){
 144:.\modem.c     ****         if(at_write_command("AT+CREG?\r","OK",5000u)){
 145:.\modem.c     ****         //if(!at_write_command("AT#CGPADDR=1\r","\"",5000u)){
 146:.\modem.c     ****             if(at_write_command("AT#SGACT=1,1\r","OK",30000u)){
 147:.\modem.c     ****                 modem_state = MODEM_STATE_READY;
 148:.\modem.c     ****                 //return 1u; // connected to network
 149:.\modem.c     ****             }
 150:.\modem.c     ****             else debug_write("(AT#SGACT=1,1) No IP Address Assigned.");
 151:.\modem.c     ****         }
 152:.\modem.c     ****        else debug_write("(AT#CGPADDR=1) No IP Address Exists.");   Returns IP address.. should be c
 153:.\modem.c     ****     }
 154:.\modem.c     ****     else debug_write("(AT+CREG=1) Could not register to network."); CREG reports registration statu
 155:.\modem.c     ****     
 156:.\modem.c     ****     return 0u;
 157:.\modem.c     **** */
 158:.\modem.c     **** /*
 159:.\modem.c     ****     at_write_command("AT+CSQ\r","OK",5000u); // get signal strength
 160:.\modem.c     ****     
 161:.\modem.c     ****     if (!at_write_command("AT+CREG=1\r","OK",5000u)) { // look for network
 162:.\modem.c     ****         debug_write("(AT+CREG=1) Could not register to network.");
 163:.\modem.c     ****     }
 164:.\modem.c     ****     
 165:.\modem.c     ****     at_write_command("AT#SCFG=1,1,0,0,1200,0\r","OK",5000u); // config parameter
 166:.\modem.c     ****     
 167:.\modem.c     ****     if (at_write_command("AT#CGPADDR=1\r","OK",5000u)) {// check if ip address exists
 168:.\modem.c     ****         debug_write("(AT#CGPADDR=1) No IP Address Exists.");    
 169:.\modem.c     ****     }
 170:.\modem.c     ****     
 171:.\modem.c     ****     at_write_command("AT#SGACT?","OK",30000u);
 172:.\modem.c     ****     
 173:.\modem.c     ****     uint8 success  = at_write_command("AT#SGACT=1,1\r","OK",30000u); // This command should return 
 174:.\modem.c     ****     //success = at_write_command("AT#SD=1,0,50000,\"141.212.136.222\",0,0,1\r","OK",5000u); // conn
 175:.\modem.c     ****     
 176:.\modem.c     ****     if (!success) {
 177:.\modem.c     ****         debug_write("(AT#SGACT=1,1) No IP Address Assigned.");
 178:.\modem.c     ****     }
 179:.\modem.c     ****     
 180:.\modem.c     ****     return success;
 181:.\modem.c     ****     */
 182:.\modem.c     ****     
 183:.\modem.c     **** }
 480              		.loc 1 183 0
 481 0048 1846     		mov	r0, r3
 482 004a 80BD     		pop	{r7, pc}
 483              		.cfi_endproc
 484              	.LFE35:
 485              		.size	modem_connect, .-modem_connect
 486              		.section	.rodata
ARM GAS  C:\Users\karunmj\AppData\Local\Temp\ccGaaAqA.s 			page 13


 487 003b 00       		.align	2
 488              	.LC3:
 489 003c 41542353 		.ascii	"AT#SH=1\000"
 489      483D3100 
 490              		.align	2
 491              	.LC4:
 492 0044 41542353 		.ascii	"AT#SGACT=1,0\000"
 492      47414354 
 492      3D312C30 
 492      00
 493 0051 000000   		.align	2
 494              	.LC5:
 495 0054 28415423 		.ascii	"(AT#SGACT=1,0) Could not disconnect.\000"
 495      53474143 
 495      543D312C 
 495      30292043 
 495      6F756C64 
 496 0079 000000   		.align	2
 497              	.LC6:
 498 007c 28415423 		.ascii	"(AT#SH=1) Could not close socket.\000"
 498      53483D31 
 498      2920436F 
 498      756C6420 
 498      6E6F7420 
 499 009e 0000     		.align	2
 500              	.LC7:
 501 00a0 286D6F64 		.ascii	"(modem_state != MODEM_STATE_READY) modem_state = MO"
 501      656D5F73 
 501      74617465 
 501      20213D20 
 501      4D4F4445 
 502 00d3 44454D5F 		.ascii	"DEM_STATE_OFF\000"
 502      53544154 
 502      455F4F46 
 502      4600
 503 00e1 000000   		.align	2
 504              	.LC8:
 505 00e4 286D6F64 		.ascii	"(modem_state != MODEM_STATE_READY) modem_state = MO"
 505      656D5F73 
 505      74617465 
 505      20213D20 
 505      4D4F4445 
 506 0117 44454D5F 		.ascii	"DEM_STATE_IDLE\000"
 506      53544154 
 506      455F4944 
 506      4C4500
 507              		.section	.text.modem_disconnect,"ax",%progbits
 508              		.align	2
 509              		.global	modem_disconnect
 510              		.thumb
 511              		.thumb_func
 512              		.type	modem_disconnect, %function
 513              	modem_disconnect:
 514              	.LFB36:
 184:.\modem.c     **** 
 185:.\modem.c     **** uint8 modem_disconnect(){
 515              		.loc 1 185 0
ARM GAS  C:\Users\karunmj\AppData\Local\Temp\ccGaaAqA.s 			page 14


 516              		.cfi_startproc
 517              		@ args = 0, pretend = 0, frame = 0
 518              		@ frame_needed = 1, uses_anonymous_args = 0
 519 0000 80B5     		push	{r7, lr}
 520              	.LCFI16:
 521              		.cfi_def_cfa_offset 8
 522 0002 00AF     		add	r7, sp, #0
 523              		.cfi_offset 14, -4
 524              		.cfi_offset 7, -8
 525              	.LCFI17:
 526              		.cfi_def_cfa_register 7
 186:.\modem.c     ****     // Proceed if modem is not connected to network.  Otherwise, try to disconnect from the network
 187:.\modem.c     ****     if(modem_state != MODEM_STATE_READY) {
 527              		.loc 1 187 0
 528 0004 40F20003 		movw	r3, #:lower16:modem_state
 529 0008 C0F20003 		movt	r3, #:upper16:modem_state
 530 000c 1B78     		ldrb	r3, [r3, #0]	@ zero_extendqisi2
 531 000e 032B     		cmp	r3, #3
 532 0010 35D0     		beq	.L27
 188:.\modem.c     ****         if(at_write_command("AT#SH=1","OK",10000u) == 1){
 533              		.loc 1 188 0
 534 0012 40F20000 		movw	r0, #:lower16:.LC3
 535 0016 C0F20000 		movt	r0, #:upper16:.LC3
 536 001a 40F20001 		movw	r1, #:lower16:.LC1
 537 001e C0F20001 		movt	r1, #:upper16:.LC1
 538 0022 42F21072 		movw	r2, #10000
 539 0026 FFF7FEFF 		bl	at_write_command
 540 002a 0346     		mov	r3, r0
 541 002c 012B     		cmp	r3, #1
 542 002e 1FD1     		bne	.L28
 189:.\modem.c     ****             if(at_write_command("AT#SGACT=1,0","OK",10000u) == 1){
 543              		.loc 1 189 0
 544 0030 40F20000 		movw	r0, #:lower16:.LC4
 545 0034 C0F20000 		movt	r0, #:upper16:.LC4
 546 0038 40F20001 		movw	r1, #:lower16:.LC1
 547 003c C0F20001 		movt	r1, #:upper16:.LC1
 548 0040 42F21072 		movw	r2, #10000
 549 0044 FFF7FEFF 		bl	at_write_command
 550 0048 0346     		mov	r3, r0
 551 004a 012B     		cmp	r3, #1
 552 004c 09D1     		bne	.L29
 190:.\modem.c     ****                 modem_state = MODEM_STATE_IDLE;
 553              		.loc 1 190 0
 554 004e 40F20003 		movw	r3, #:lower16:modem_state
 555 0052 C0F20003 		movt	r3, #:upper16:modem_state
 556 0056 4FF00102 		mov	r2, #1
 557 005a 1A70     		strb	r2, [r3, #0]
 191:.\modem.c     ****                 return 1u;
 558              		.loc 1 191 0
 559 005c 4FF00103 		mov	r3, #1
 560 0060 2AE0     		b	.L30
 561              	.L29:
 192:.\modem.c     ****             }
 193:.\modem.c     ****             else {
 194:.\modem.c     ****                 debug_write("(AT#SGACT=1,0) Could not disconnect.");
 562              		.loc 1 194 0
 563 0062 40F20000 		movw	r0, #:lower16:.LC5
ARM GAS  C:\Users\karunmj\AppData\Local\Temp\ccGaaAqA.s 			page 15


 564 0066 C0F20000 		movt	r0, #:upper16:.LC5
 565 006a FFF7FEFF 		bl	debug_write
 195:.\modem.c     ****             }
 196:.\modem.c     ****         }
 197:.\modem.c     ****         else {
 198:.\modem.c     ****             debug_write("(AT#SH=1) Could not close socket.");
 566              		.loc 1 198 0
 567 006e 21E0     		b	.L32
 568              	.L28:
 569 0070 40F20000 		movw	r0, #:lower16:.LC6
 570 0074 C0F20000 		movt	r0, #:upper16:.LC6
 571 0078 FFF7FEFF 		bl	debug_write
 572 007c 1AE0     		b	.L32
 573              	.L27:
 199:.\modem.c     ****         }
 200:.\modem.c     ****     }
 201:.\modem.c     ****     else {
 202:.\modem.c     ****         if (modem_state == MODEM_STATE_OFF) {
 574              		.loc 1 202 0
 575 007e 40F20003 		movw	r3, #:lower16:modem_state
 576 0082 C0F20003 		movt	r3, #:upper16:modem_state
 577 0086 1B78     		ldrb	r3, [r3, #0]	@ zero_extendqisi2
 578 0088 002B     		cmp	r3, #0
 579 008a 06D1     		bne	.L33
 203:.\modem.c     ****             debug_write( "(modem_state != MODEM_STATE_READY) modem_state = MODEM_STATE_OFF" );
 580              		.loc 1 203 0
 581 008c 40F20000 		movw	r0, #:lower16:.LC7
 582 0090 C0F20000 		movt	r0, #:upper16:.LC7
 583 0094 FFF7FEFF 		bl	debug_write
 584 0098 0CE0     		b	.L32
 585              	.L33:
 204:.\modem.c     ****         }
 205:.\modem.c     ****         else if (modem_state == MODEM_STATE_IDLE) {
 586              		.loc 1 205 0
 587 009a 40F20003 		movw	r3, #:lower16:modem_state
 588 009e C0F20003 		movt	r3, #:upper16:modem_state
 589 00a2 1B78     		ldrb	r3, [r3, #0]	@ zero_extendqisi2
 590 00a4 012B     		cmp	r3, #1
 591 00a6 05D1     		bne	.L32
 206:.\modem.c     ****             debug_write( "(modem_state != MODEM_STATE_READY) modem_state = MODEM_STATE_IDLE" );
 592              		.loc 1 206 0
 593 00a8 40F20000 		movw	r0, #:lower16:.LC8
 594 00ac C0F20000 		movt	r0, #:upper16:.LC8
 595 00b0 FFF7FEFF 		bl	debug_write
 596              	.L32:
 207:.\modem.c     ****         }
 208:.\modem.c     ****     }
 209:.\modem.c     ****     
 210:.\modem.c     ****     return 0u; // failed to disconnect
 597              		.loc 1 210 0
 598 00b4 4FF00003 		mov	r3, #0
 599              	.L30:
 211:.\modem.c     **** }
 600              		.loc 1 211 0
 601 00b8 1846     		mov	r0, r3
 602 00ba 80BD     		pop	{r7, pc}
 603              		.cfi_endproc
ARM GAS  C:\Users\karunmj\AppData\Local\Temp\ccGaaAqA.s 			page 16


 604              	.LFE36:
 605              		.size	modem_disconnect, .-modem_disconnect
 606              		.section	.rodata
 607 0126 0000     		.align	2
 608              	.LC9:
 609 0128 41542353 		.ascii	"AT#SD=1,0,80,\"api.xively.com\",0,0,1\015\000"
 609      443D312C 
 609      302C3830 
 609      2C226170 
 609      692E7869 
 610 014d 000000   		.align	2
 611              	.LC10:
 612 0150 41542353 		.ascii	"AT#SSEND=1\015\000"
 612      53454E44 
 612      3D310D00 
 613              		.align	2
 614              	.LC11:
 615 015c 3E00     		.ascii	">\000"
 616 015e 0000     		.align	2
 617              	.LC12:
 618 0160 50555420 		.ascii	"PUT /v2/feeds/%lu.csv HTTP/1.0\015\012\000"
 618      2F76322F 
 618      66656564 
 618      732F256C 
 618      752E6373 
 619 0181 000000   		.align	2
 620              	.LC13:
 621 0184 582D4170 		.ascii	"X-ApiKey: %s\015\012\000"
 621      694B6579 
 621      3A202573 
 621      0D0A00
 622 0193 00       		.align	2
 623              	.LC14:
 624 0194 25732573 		.ascii	"%s%s%s%s%d%s%s%s\000"
 624      25732573 
 624      25642573 
 624      25732573 
 624      00
 625 01a5 000000   		.align	2
 626              	.LC15:
 627 01a8 486F7374 		.ascii	"Host: api.xively.com\015\012\000"
 627      3A206170 
 627      692E7869 
 627      76656C79 
 627      2E636F6D 
 628 01bf 00       		.align	2
 629              	.LC16:
 630 01c0 436F6E74 		.ascii	"Content-Length: \000"
 630      656E742D 
 630      4C656E67 
 630      74683A20 
 630      00
 631 01d1 000000   		.align	2
 632              	.LC17:
 633 01d4 0D0A0D0A 		.ascii	"\015\012\015\012\000"
 633      00
 634 01d9 000000   		.align	2
ARM GAS  C:\Users\karunmj\AppData\Local\Temp\ccGaaAqA.s 			page 17


 635              	.LC18:
 636 01dc 1A0D00   		.ascii	"\032\015\000"
 637 01df 00       		.align	2
 638              	.LC19:
 639 01e0 2861745F 		.ascii	"(at_write_command(sendBuffer,\"OK\"...) Data sent u"
 639      77726974 
 639      655F636F 
 639      6D6D616E 
 639      64287365 
 640 0211 6E737563 		.ascii	"nsuccessfully.\000"
 640      63657373 
 640      66756C6C 
 640      792E00
 641              		.align	2
 642              	.LC20:
 643 0220 28415423 		.ascii	"(AT#SSEND=1) Could not send data through connected "
 643      5353454E 
 643      443D3129 
 643      20436F75 
 643      6C64206E 
 644 0253 736F636B 		.ascii	"socket.\000"
 644      65742E00 
 645 025b 00       		.align	2
 646              	.LC21:
 647 025c 28415423 		.ascii	"(AT#SD=1,0,8081,\"api.xively.com\",0,0,1\015) Could"
 647      53443D31 
 647      2C302C38 
 647      3038312C 
 647      22617069 
 648 028a 206E6F74 		.ascii	" not connect to server.\000"
 648      20636F6E 
 648      6E656374 
 648      20746F20 
 648      73657276 
 649 02a2 0000     		.align	2
 650              	.LC22:
 651 02a4 4D41585F 		.ascii	"MAX_SEND_ATTEMPTS Exceeded.\000"
 651      53454E44 
 651      5F415454 
 651      454D5054 
 651      53204578 
 652              		.section	.text.modem_send_packet,"ax",%progbits
 653              		.align	2
 654              		.global	modem_send_packet
 655              		.thumb
 656              		.thumb_func
 657              		.type	modem_send_packet, %function
 658              	modem_send_packet:
 659              	.LFB37:
 212:.\modem.c     **** 
 213:.\modem.c     **** // send packet to Xively server
 214:.\modem.c     **** uint8 modem_send_packet(char* body){
 660              		.loc 1 214 0
 661              		.cfi_startproc
 662              		@ args = 0, pretend = 0, frame = 1112
 663              		@ frame_needed = 1, uses_anonymous_args = 0
 664 0000 80B5     		push	{r7, lr}
ARM GAS  C:\Users\karunmj\AppData\Local\Temp\ccGaaAqA.s 			page 18


 665              	.LCFI18:
 666              		.cfi_def_cfa_offset 8
 667 0002 ADF58E6D 		sub	sp, sp, #1136
 668              	.LCFI19:
 669              		.cfi_def_cfa_offset 1144
 670 0006 06AF     		add	r7, sp, #24
 671              		.cfi_offset 14, -4
 672              		.cfi_offset 7, -8
 673              	.LCFI20:
 674              		.cfi_def_cfa 7, 1120
 675 0008 07F10803 		add	r3, r7, #8
 676 000c A3F10403 		sub	r3, r3, #4
 677 0010 1860     		str	r0, [r3, #0]
 215:.\modem.c     **** 
 216:.\modem.c     ****     
 217:.\modem.c     ****     /*
 218:.\modem.c     ****     // provide power to rx and tx pins
 219:.\modem.c     ****     //uart_rx_voltage_pin_Write(0u);
 220:.\modem.c     ****     //uart_tx_voltage_pin_Write(0u);
 221:.\modem.c     ****     
 222:.\modem.c     ****     // join network
 223:.\modem.c     ****     uint8 connected = modem_connect();
 224:.\modem.c     ****     */
 225:.\modem.c     ****     uint8 attempts = 0;
 678              		.loc 1 225 0
 679 0012 4FF00003 		mov	r3, #0
 680 0016 87F85734 		strb	r3, [r7, #1111]
 226:.\modem.c     ****     //char put_str[MAX_PACKET_LENGTH] = {0}, key_str[100]={0};
 227:.\modem.c     ****     
 228:.\modem.c     ****     for(attempts = 0; attempts < MAX_SEND_ATTEMPTS; attempts++) {
 681              		.loc 1 228 0
 682 001a 4FF00003 		mov	r3, #0
 683 001e 87F85734 		strb	r3, [r7, #1111]
 684 0022 B7E0     		b	.L36
 685              	.L45:
 229:.\modem.c     ****         
 230:.\modem.c     ****         // Proceed if modem is already connected.  Otherwise, try to join the network and proceed
 231:.\modem.c     ****         if( modem_state == MODEM_STATE_READY || modem_connect() != 0){ 
 686              		.loc 1 231 0
 687 0024 40F20003 		movw	r3, #:lower16:modem_state
 688 0028 C0F20003 		movt	r3, #:upper16:modem_state
 689 002c 1B78     		ldrb	r3, [r3, #0]	@ zero_extendqisi2
 690 002e 032B     		cmp	r3, #3
 691 0030 05D0     		beq	.L37
 692 0032 FFF7FEFF 		bl	modem_connect
 693 0036 0346     		mov	r3, r0
 694 0038 002B     		cmp	r3, #0
 695 003a 00F09F80 		beq	.L38
 696              	.L37:
 232:.\modem.c     ****             // write to AWS server  - 184.72.228.61\",0,0,1
 233:.\modem.c     ****             //if(at_write_command("AT#SD=1,0,50030,\"184.72.228.61\",0,0,1\r","OK",5000u) != 0){
 234:.\modem.c     ****             if(at_write_command("AT#SD=1,0,80,\"api.xively.com\",0,0,1\r","OK",10000u) != 0){
 697              		.loc 1 234 0
 698 003e 40F20000 		movw	r0, #:lower16:.LC9
 699 0042 C0F20000 		movt	r0, #:upper16:.LC9
 700 0046 40F20001 		movw	r1, #:lower16:.LC1
 701 004a C0F20001 		movt	r1, #:upper16:.LC1
ARM GAS  C:\Users\karunmj\AppData\Local\Temp\ccGaaAqA.s 			page 19


 702 004e 42F21072 		movw	r2, #10000
 703 0052 FFF7FEFF 		bl	at_write_command
 704 0056 0346     		mov	r3, r0
 705 0058 002B     		cmp	r3, #0
 706 005a 00F08980 		beq	.L39
 235:.\modem.c     ****                 if(at_write_command("AT#SSEND=1\r",">",10000u) != 0){
 707              		.loc 1 235 0
 708 005e 40F20000 		movw	r0, #:lower16:.LC10
 709 0062 C0F20000 		movt	r0, #:upper16:.LC10
 710 0066 40F20001 		movw	r1, #:lower16:.LC11
 711 006a C0F20001 		movt	r1, #:upper16:.LC11
 712 006e 42F21072 		movw	r2, #10000
 713 0072 FFF7FEFF 		bl	at_write_command
 714 0076 0346     		mov	r3, r0
 715 0078 002B     		cmp	r3, #0
 716 007a 72D0     		beq	.L40
 717              	.LBB3:
 236:.\modem.c     ****                     //if(at_write_command(packet,"OK",20000u) != 0){
 237:.\modem.c     ****                     //char sendBuffer[MAX_PACKET_LENGTH];
 238:.\modem.c     ****                     char put_str[MAX_PACKET_LENGTH], key_str[100];
 239:.\modem.c     ****                     
 240:.\modem.c     ****                     sprintf(put_str,"PUT /v2/feeds/%lu.csv HTTP/1.0\r\n", feed_id);
 718              		.loc 1 240 0
 719 007c 40F20003 		movw	r3, #:lower16:feed_id
 720 0080 C0F20003 		movt	r3, #:upper16:feed_id
 721 0084 1B68     		ldr	r3, [r3, #0]
 722 0086 07F10802 		add	r2, r7, #8
 723 008a 1046     		mov	r0, r2
 724 008c 40F20001 		movw	r1, #:lower16:.LC12
 725 0090 C0F20001 		movt	r1, #:upper16:.LC12
 726 0094 1A46     		mov	r2, r3
 727 0096 FFF7FEFF 		bl	sprintf
 241:.\modem.c     ****                     sprintf(key_str,"X-ApiKey: %s\r\n", api_key);
 728              		.loc 1 241 0
 729 009a 40F20003 		movw	r3, #:lower16:api_key
 730 009e C0F20003 		movt	r3, #:upper16:api_key
 731 00a2 1B68     		ldr	r3, [r3, #0]
 732 00a4 07F57C72 		add	r2, r7, #1008
 733 00a8 1046     		mov	r0, r2
 734 00aa 40F20001 		movw	r1, #:lower16:.LC13
 735 00ae C0F20001 		movt	r1, #:upper16:.LC13
 736 00b2 1A46     		mov	r2, r3
 737 00b4 FFF7FEFF 		bl	sprintf
 242:.\modem.c     ****                     sprintf(put_str,"%s%s%s%s%d%s%s%s",
 738              		.loc 1 242 0
 739 00b8 07F10803 		add	r3, r7, #8
 740 00bc A3F10403 		sub	r3, r3, #4
 741 00c0 1868     		ldr	r0, [r3, #0]
 742 00c2 FFF7FEFF 		bl	strlen
 743 00c6 0346     		mov	r3, r0
 744 00c8 1846     		mov	r0, r3
 745 00ca 07F10801 		add	r1, r7, #8
 746 00ce 07F10802 		add	r2, r7, #8
 747 00d2 07F57C7C 		add	ip, r7, #1008
 748 00d6 40F20003 		movw	r3, #:lower16:.LC15
 749 00da C0F20003 		movt	r3, #:upper16:.LC15
 750 00de 0093     		str	r3, [sp, #0]
ARM GAS  C:\Users\karunmj\AppData\Local\Temp\ccGaaAqA.s 			page 20


 751 00e0 40F20003 		movw	r3, #:lower16:.LC16
 752 00e4 C0F20003 		movt	r3, #:upper16:.LC16
 753 00e8 0193     		str	r3, [sp, #4]
 754 00ea 0290     		str	r0, [sp, #8]
 755 00ec 40F20003 		movw	r3, #:lower16:.LC17
 756 00f0 C0F20003 		movt	r3, #:upper16:.LC17
 757 00f4 0393     		str	r3, [sp, #12]
 758 00f6 07F10803 		add	r3, r7, #8
 759 00fa A3F10403 		sub	r3, r3, #4
 760 00fe 1B68     		ldr	r3, [r3, #0]
 761 0100 0493     		str	r3, [sp, #16]
 762 0102 40F20003 		movw	r3, #:lower16:.LC18
 763 0106 C0F20003 		movt	r3, #:upper16:.LC18
 764 010a 0593     		str	r3, [sp, #20]
 765 010c 0846     		mov	r0, r1
 766 010e 40F20001 		movw	r1, #:lower16:.LC14
 767 0112 C0F20001 		movt	r1, #:upper16:.LC14
 768 0116 6346     		mov	r3, ip
 769 0118 FFF7FEFF 		bl	sprintf
 243:.\modem.c     ****                         put_str,
 244:.\modem.c     ****                         key_str,
 245:.\modem.c     ****                         "Host: api.xively.com\r\n",
 246:.\modem.c     ****                         "Content-Length: ", strlen(body),
 247:.\modem.c     ****                         "\r\n\r\n", body, "\032\r");
 248:.\modem.c     ****                         
 249:.\modem.c     ****                     //sprintf(sendBuffer, "%s\032", packet);
 250:.\modem.c     ****                     if(at_write_command(put_str,"OK",15000u) != 0){
 770              		.loc 1 250 0
 771 011c 07F10803 		add	r3, r7, #8
 772 0120 1846     		mov	r0, r3
 773 0122 40F20001 		movw	r1, #:lower16:.LC1
 774 0126 C0F20001 		movt	r1, #:upper16:.LC1
 775 012a 43F69822 		movw	r2, #15000
 776 012e FFF7FEFF 		bl	at_write_command
 777 0132 0346     		mov	r3, r0
 778 0134 002B     		cmp	r3, #0
 779 0136 0DD0     		beq	.L41
 251:.\modem.c     ****                         modem_state = MODEM_STATE_IDLE;
 780              		.loc 1 251 0
 781 0138 40F20003 		movw	r3, #:lower16:modem_state
 782 013c C0F20003 		movt	r3, #:upper16:modem_state
 783 0140 4FF00102 		mov	r2, #1
 784 0144 1A70     		strb	r2, [r3, #0]
 252:.\modem.c     ****                         CyDelay(1000u); //debug_write("Packet sent successfully.");
 785              		.loc 1 252 0
 786 0146 4FF47A70 		mov	r0, #1000
 787 014a FFF7FEFF 		bl	CyDelay
 253:.\modem.c     ****                         return 1u;   // return 1 if succesfully sent sms
 788              		.loc 1 253 0
 789 014e 4FF00103 		mov	r3, #1
 790 0152 2EE0     		b	.L42
 791              	.L41:
 254:.\modem.c     ****                     }
 255:.\modem.c     ****                     else {
 256:.\modem.c     ****                         debug_write("(at_write_command(sendBuffer,\"OK\"...) Data sent unsuccessful
 792              		.loc 1 256 0
 793 0154 40F20000 		movw	r0, #:lower16:.LC19
ARM GAS  C:\Users\karunmj\AppData\Local\Temp\ccGaaAqA.s 			page 21


 794 0158 C0F20000 		movt	r0, #:upper16:.LC19
 795 015c FFF7FEFF 		bl	debug_write
 796              	.LBE3:
 257:.\modem.c     ****                     }
 258:.\modem.c     ****                 }
 259:.\modem.c     ****                 else {
 260:.\modem.c     ****                     debug_write("(AT#SSEND=1) Could not send data through connected socket.");
 797              		.loc 1 260 0
 798 0160 0CE0     		b	.L38
 799              	.L40:
 800 0162 40F20000 		movw	r0, #:lower16:.LC20
 801 0166 C0F20000 		movt	r0, #:upper16:.LC20
 802 016a FFF7FEFF 		bl	debug_write
 803 016e 05E0     		b	.L38
 804              	.L39:
 261:.\modem.c     ****                 }
 262:.\modem.c     ****             }
 263:.\modem.c     ****             else {
 264:.\modem.c     ****                 debug_write("(AT#SD=1,0,8081,\"api.xively.com\",0,0,1\r) Could not connect to serve
 805              		.loc 1 264 0
 806 0170 40F20000 		movw	r0, #:lower16:.LC21
 807 0174 C0F20000 		movt	r0, #:upper16:.LC21
 808 0178 FFF7FEFF 		bl	debug_write
 809              	.L38:
 265:.\modem.c     ****             }
 266:.\modem.c     ****         }
 267:.\modem.c     ****     
 268:.\modem.c     ****         if (attempts < MAX_SEND_ATTEMPTS-1) { // Don't reset the modem on the last attempt since it
 810              		.loc 1 268 0
 811 017c 97F85734 		ldrb	r3, [r7, #1111]	@ zero_extendqisi2
 812 0180 002B     		cmp	r3, #0
 813 0182 01D1     		bne	.L44
 269:.\modem.c     ****             modem_reset();
 814              		.loc 1 269 0
 815 0184 FFF7FEFF 		bl	modem_reset
 816              	.L44:
 817              		.loc 1 228 0
 818 0188 97F85734 		ldrb	r3, [r7, #1111]
 819 018c 03F10103 		add	r3, r3, #1
 820 0190 87F85734 		strb	r3, [r7, #1111]
 821              	.L36:
 822 0194 97F85734 		ldrb	r3, [r7, #1111]	@ zero_extendqisi2
 823 0198 012B     		cmp	r3, #1
 824 019a 7FF643AF 		bls	.L45
 270:.\modem.c     ****         }
 271:.\modem.c     ****         
 272:.\modem.c     ****     }    
 273:.\modem.c     ****     
 274:.\modem.c     ****     // cut power to rx and tx pins
 275:.\modem.c     ****     //uart_rx_voltage_pin_Write(1u);
 276:.\modem.c     ****     //uart_rx_voltage_pin_Write(1u);
 277:.\modem.c     ****     debug_write("MAX_SEND_ATTEMPTS Exceeded.");
 825              		.loc 1 277 0
 826 019e 40F20000 		movw	r0, #:lower16:.LC22
 827 01a2 C0F20000 		movt	r0, #:upper16:.LC22
 828 01a6 FFF7FEFF 		bl	debug_write
 278:.\modem.c     ****     modem_disconnect();
ARM GAS  C:\Users\karunmj\AppData\Local\Temp\ccGaaAqA.s 			page 22


 829              		.loc 1 278 0
 830 01aa FFF7FEFF 		bl	modem_disconnect
 279:.\modem.c     ****     return 0u;   // return 0 if failure to send sms
 831              		.loc 1 279 0
 832 01ae 4FF00003 		mov	r3, #0
 833              	.L42:
 280:.\modem.c     **** }
 834              		.loc 1 280 0
 835 01b2 1846     		mov	r0, r3
 836 01b4 07F15807 		add	r7, r7, #88
 837 01b8 07F58067 		add	r7, r7, #1024
 838 01bc BD46     		mov	sp, r7
 839 01be 80BD     		pop	{r7, pc}
 840              		.cfi_endproc
 841              	.LFE37:
 842              		.size	modem_send_packet, .-modem_send_packet
 843              		.section	.rodata
 844              		.align	2
 845              	.LC23:
 846 02c0 6D6F6465 		.ascii	"modem_get_packet(): csv length > 100\000"
 846      6D5F6765 
 846      745F7061 
 846      636B6574 
 846      28293A20 
 847 02e5 000000   		.align	2
 848              	.LC24:
 849 02e8 47455420 		.ascii	"GET /v2/feeds/%lu.csv?datastreams=%s HTTP/1.0\015\012"
 849      2F76322F 
 849      66656564 
 849      732F256C 
 849      752E6373 
 850 0317 00       		.ascii	"\000"
 851              		.align	2
 852              	.LC25:
 853 0318 25732573 		.ascii	"%s%s%s%s%s\000"
 853      25732573 
 853      257300
 854 0323 00       		.align	2
 855              	.LC26:
 856 0324 41636365 		.ascii	"Accept: text/csv\015\012\000"
 856      70743A20 
 856      74657874 
 856      2F637376 
 856      0D0A00
 857 0337 00       		.align	2
 858              	.LC27:
 859 0338 0D0A1A0D 		.ascii	"\015\012\032\015\000"
 859      00
 860 033d 000000   		.align	2
 861              	.LC28:
 862 0340 5352494E 		.ascii	"SRING: 1\000"
 862      473A2031 
 862      00
 863 0349 000000   		.align	2
 864              	.LC29:
 865 034c 41542353 		.ascii	"AT#SRECV=1,700\015\000"
 865      52454356 
ARM GAS  C:\Users\karunmj\AppData\Local\Temp\ccGaaAqA.s 			page 23


 865      3D312C37 
 865      30300D00 
 866              		.align	2
 867              	.LC30:
 868 035c 28415423 		.ascii	"(AT#SD=1,0,80,\"api.xively.com\",0,0,1) Could not c"
 868      53443D31 
 868      2C302C38 
 868      302C2261 
 868      70692E78 
 869 038d 6F6E6E65 		.ascii	"onnect to server.\000"
 869      63742074 
 869      6F207365 
 869      72766572 
 869      2E00
 870 039f 00       		.align	2
 871              	.LC31:
 872 03a0 4D41585F 		.ascii	"MAX_GET_ATTEMPTS Exceeded.\000"
 872      4745545F 
 872      41545445 
 872      4D505453 
 872      20457863 
 873              		.section	.text.modem_get_packet,"ax",%progbits
 874              		.align	2
 875              		.global	modem_get_packet
 876              		.thumb
 877              		.thumb_func
 878              		.type	modem_get_packet, %function
 879              	modem_get_packet:
 880              	.LFB38:
 281:.\modem.c     **** 
 282:.\modem.c     **** 
 283:.\modem.c     **** // read packet from Xively server
 284:.\modem.c     **** uint8 modem_get_packet(char* packet, char* csv){
 881              		.loc 1 284 0
 882              		.cfi_startproc
 883              		@ args = 0, pretend = 0, frame = 1112
 884              		@ frame_needed = 1, uses_anonymous_args = 0
 885 0000 80B5     		push	{r7, lr}
 886              	.LCFI21:
 887              		.cfi_def_cfa_offset 8
 888 0002 ADF58D6D 		sub	sp, sp, #1128
 889              	.LCFI22:
 890              		.cfi_def_cfa_offset 1136
 891 0006 04AF     		add	r7, sp, #16
 892              		.cfi_offset 14, -4
 893              		.cfi_offset 7, -8
 894              	.LCFI23:
 895              		.cfi_def_cfa 7, 1120
 896 0008 07F10803 		add	r3, r7, #8
 897 000c A3F10403 		sub	r3, r3, #4
 898 0010 1860     		str	r0, [r3, #0]
 899 0012 3B46     		mov	r3, r7
 900 0014 1960     		str	r1, [r3, #0]
 285:.\modem.c     ****     
 286:.\modem.c     ****     /*
 287:.\modem.c     ****     // provide power to rx and tx pins
 288:.\modem.c     ****     //uart_rx_voltage_pin_Write(0u);
ARM GAS  C:\Users\karunmj\AppData\Local\Temp\ccGaaAqA.s 			page 24


 289:.\modem.c     ****     //uart_tx_voltage_pin_Write(0u);    
 290:.\modem.c     ****     
 291:.\modem.c     ****     // join network
 292:.\modem.c     ****     uint8 connected = modem_connect();
 293:.\modem.c     ****     */
 294:.\modem.c     ****     //char get_str[MAX_PACKET_LENGTH]={0}, key_str[100]={0};
 295:.\modem.c     ****     uint8 attempts = 0;
 901              		.loc 1 295 0
 902 0016 4FF00003 		mov	r3, #0
 903 001a 87F85734 		strb	r3, [r7, #1111]
 296:.\modem.c     ****     
 297:.\modem.c     ****     if (strlen(csv) > 125) {
 904              		.loc 1 297 0
 905 001e 3B46     		mov	r3, r7
 906 0020 1868     		ldr	r0, [r3, #0]
 907 0022 FFF7FEFF 		bl	strlen
 908 0026 0346     		mov	r3, r0
 909 0028 7D2B     		cmp	r3, #125
 910 002a 08D9     		bls	.L48
 298:.\modem.c     ****         debug_write("modem_get_packet(): csv length > 100");
 911              		.loc 1 298 0
 912 002c 40F20000 		movw	r0, #:lower16:.LC23
 913 0030 C0F20000 		movt	r0, #:upper16:.LC23
 914 0034 FFF7FEFF 		bl	debug_write
 299:.\modem.c     ****         return 0u;
 915              		.loc 1 299 0
 916 0038 4FF00003 		mov	r3, #0
 917 003c D5E0     		b	.L49
 918              	.L48:
 300:.\modem.c     ****     }
 301:.\modem.c     ****             
 302:.\modem.c     ****     for(attempts = 0; attempts < MAX_GET_ATTEMPTS; attempts++) {
 919              		.loc 1 302 0
 920 003e 4FF00003 		mov	r3, #0
 921 0042 87F85734 		strb	r3, [r7, #1111]
 922 0046 C1E0     		b	.L50
 923              	.L58:
 303:.\modem.c     ****         // Proceed if modem is already connected.  Otherwise, try to join the network and proceed
 304:.\modem.c     ****         if( modem_state == MODEM_STATE_READY || modem_connect() != 0 ){ 
 924              		.loc 1 304 0
 925 0048 40F20003 		movw	r3, #:lower16:modem_state
 926 004c C0F20003 		movt	r3, #:upper16:modem_state
 927 0050 1B78     		ldrb	r3, [r3, #0]	@ zero_extendqisi2
 928 0052 032B     		cmp	r3, #3
 929 0054 05D0     		beq	.L51
 930 0056 FFF7FEFF 		bl	modem_connect
 931 005a 0346     		mov	r3, r0
 932 005c 002B     		cmp	r3, #0
 933 005e 00F0A980 		beq	.L52
 934              	.L51:
 305:.\modem.c     ****             // write to AWS server  - 184.72.228.61\",0,0,1
 306:.\modem.c     ****             //if(at_write_command("AT#SD=1,0,50030,\"184.72.228.61\",0,0,1\r","OK",5000u) != 0){
 307:.\modem.c     ****             if(at_write_command("AT#SD=1,0,80,\"api.xively.com\",0,0,1\r","OK",10000u) != 0){
 935              		.loc 1 307 0
 936 0062 40F20000 		movw	r0, #:lower16:.LC9
 937 0066 C0F20000 		movt	r0, #:upper16:.LC9
 938 006a 40F20001 		movw	r1, #:lower16:.LC1
ARM GAS  C:\Users\karunmj\AppData\Local\Temp\ccGaaAqA.s 			page 25


 939 006e C0F20001 		movt	r1, #:upper16:.LC1
 940 0072 42F21072 		movw	r2, #10000
 941 0076 FFF7FEFF 		bl	at_write_command
 942 007a 0346     		mov	r3, r0
 943 007c 002B     		cmp	r3, #0
 944 007e 00F09380 		beq	.L53
 308:.\modem.c     ****                 if(at_write_command("AT#SSEND=1\r",">",10000u) != 0){
 945              		.loc 1 308 0
 946 0082 40F20000 		movw	r0, #:lower16:.LC10
 947 0086 C0F20000 		movt	r0, #:upper16:.LC10
 948 008a 40F20001 		movw	r1, #:lower16:.LC11
 949 008e C0F20001 		movt	r1, #:upper16:.LC11
 950 0092 42F21072 		movw	r2, #10000
 951 0096 FFF7FEFF 		bl	at_write_command
 952 009a 0346     		mov	r3, r0
 953 009c 002B     		cmp	r3, #0
 954 009e 7CD0     		beq	.L54
 955              	.LBB4:
 309:.\modem.c     ****                     char get_str[MAX_PACKET_LENGTH], key_str[100];
 310:.\modem.c     ****                     sprintf(get_str,"GET /v2/feeds/%lu.csv?datastreams=%s HTTP/1.0\r\n", feed_id, c
 956              		.loc 1 310 0
 957 00a0 40F20003 		movw	r3, #:lower16:feed_id
 958 00a4 C0F20003 		movt	r3, #:upper16:feed_id
 959 00a8 1A68     		ldr	r2, [r3, #0]
 960 00aa 07F10801 		add	r1, r7, #8
 961 00ae 3B46     		mov	r3, r7
 962 00b0 0846     		mov	r0, r1
 963 00b2 40F20001 		movw	r1, #:lower16:.LC24
 964 00b6 C0F20001 		movt	r1, #:upper16:.LC24
 965 00ba 1B68     		ldr	r3, [r3, #0]
 966 00bc FFF7FEFF 		bl	sprintf
 311:.\modem.c     ****                     sprintf(key_str,"X-ApiKey: %s\r\n", api_key);
 967              		.loc 1 311 0
 968 00c0 40F20003 		movw	r3, #:lower16:api_key
 969 00c4 C0F20003 		movt	r3, #:upper16:api_key
 970 00c8 1B68     		ldr	r3, [r3, #0]
 971 00ca 07F57C72 		add	r2, r7, #1008
 972 00ce 1046     		mov	r0, r2
 973 00d0 40F20001 		movw	r1, #:lower16:.LC13
 974 00d4 C0F20001 		movt	r1, #:upper16:.LC13
 975 00d8 1A46     		mov	r2, r3
 976 00da FFF7FEFF 		bl	sprintf
 312:.\modem.c     ****                     sprintf(get_str,"%s%s%s%s%s",
 977              		.loc 1 312 0
 978 00de 07F10801 		add	r1, r7, #8
 979 00e2 07F10802 		add	r2, r7, #8
 980 00e6 07F57C7C 		add	ip, r7, #1008
 981 00ea 40F20003 		movw	r3, #:lower16:.LC15
 982 00ee C0F20003 		movt	r3, #:upper16:.LC15
 983 00f2 0093     		str	r3, [sp, #0]
 984 00f4 40F20003 		movw	r3, #:lower16:.LC26
 985 00f8 C0F20003 		movt	r3, #:upper16:.LC26
 986 00fc 0193     		str	r3, [sp, #4]
 987 00fe 40F20003 		movw	r3, #:lower16:.LC27
 988 0102 C0F20003 		movt	r3, #:upper16:.LC27
 989 0106 0293     		str	r3, [sp, #8]
 990 0108 0846     		mov	r0, r1
ARM GAS  C:\Users\karunmj\AppData\Local\Temp\ccGaaAqA.s 			page 26


 991 010a 40F20001 		movw	r1, #:lower16:.LC25
 992 010e C0F20001 		movt	r1, #:upper16:.LC25
 993 0112 6346     		mov	r3, ip
 994 0114 FFF7FEFF 		bl	sprintf
 313:.\modem.c     ****                         get_str,
 314:.\modem.c     ****                         key_str,
 315:.\modem.c     ****                         "Host: api.xively.com\r\n",
 316:.\modem.c     ****                         "Accept: text/csv\r\n",
 317:.\modem.c     ****                         "\r\n\032\r");
 318:.\modem.c     ****                     //at_write_command(get_str,">",10000u);// CyDelay(500u);
 319:.\modem.c     ****                     
 320:.\modem.c     ****                     uart_string_reset();
 995              		.loc 1 320 0
 996 0118 FFF7FEFF 		bl	uart_string_reset
 321:.\modem.c     ****                     
 322:.\modem.c     ****                     /*
 323:.\modem.c     ****                     at_write_command(get_str,">",10000u);// CyDelay(500u);
 324:.\modem.c     ****                     at_write_command("Host: api.xively.com\r\n",">",10000u);// CyDelay(500u);
 325:.\modem.c     ****                     at_write_command("Accept: text/csv\r\n",">",10000u);// CyDelay(500u);
 326:.\modem.c     ****                     at_write_command(key_str,">",10000u);// CyDelay(500u);
 327:.\modem.c     ****                     */
 328:.\modem.c     ****                     // Successfully Sent AT-Commands for GET Request
 329:.\modem.c     ****                     //if(at_write_command("\032\r","OK",15000u) != 0){
 330:.\modem.c     ****                     
 331:.\modem.c     ****                     if(at_write_command(get_str,"SRING: 1",15000u) != 0){
 997              		.loc 1 331 0
 998 011c 07F10803 		add	r3, r7, #8
 999 0120 1846     		mov	r0, r3
 1000 0122 40F20001 		movw	r1, #:lower16:.LC28
 1001 0126 C0F20001 		movt	r1, #:upper16:.LC28
 1002 012a 43F69822 		movw	r2, #15000
 1003 012e FFF7FEFF 		bl	at_write_command
 1004 0132 0346     		mov	r3, r0
 1005 0134 002B     		cmp	r3, #0
 1006 0136 29D0     		beq	.L55
 332:.\modem.c     ****                         // Read GET response from the buffer
 333:.\modem.c     ****                         uart_string_reset();
 1007              		.loc 1 333 0
 1008 0138 FFF7FEFF 		bl	uart_string_reset
 334:.\modem.c     ****                         //CyDelay(5000u);
 335:.\modem.c     ****                         at_write_command("AT#SRECV=1,700\r","OK",15000u);
 1009              		.loc 1 335 0
 1010 013c 40F20000 		movw	r0, #:lower16:.LC29
 1011 0140 C0F20000 		movt	r0, #:upper16:.LC29
 1012 0144 40F20001 		movw	r1, #:lower16:.LC1
 1013 0148 C0F20001 		movt	r1, #:upper16:.LC1
 1014 014c 43F69822 		movw	r2, #15000
 1015 0150 FFF7FEFF 		bl	at_write_command
 336:.\modem.c     ****                         //strcpy(packet, uart_received_string);
 337:.\modem.c     ****                         strcpy(packet, strstr(uart_received_string, "\r\n\r\n")+strlen("\r\n\r\n"))
 1016              		.loc 1 337 0
 1017 0154 40F20000 		movw	r0, #:lower16:uart_received_string
 1018 0158 C0F20000 		movt	r0, #:upper16:uart_received_string
 1019 015c 40F20001 		movw	r1, #:lower16:.LC17
 1020 0160 C0F20001 		movt	r1, #:upper16:.LC17
 1021 0164 FFF7FEFF 		bl	strstr
 1022 0168 0346     		mov	r3, r0
ARM GAS  C:\Users\karunmj\AppData\Local\Temp\ccGaaAqA.s 			page 27


 1023 016a 03F10402 		add	r2, r3, #4
 1024 016e 07F10803 		add	r3, r7, #8
 1025 0172 A3F10403 		sub	r3, r3, #4
 1026 0176 1868     		ldr	r0, [r3, #0]
 1027 0178 1146     		mov	r1, r2
 1028 017a FFF7FEFF 		bl	strcpy
 338:.\modem.c     ****                         
 339:.\modem.c     ****                         CyDelay(1000u); //debug_write("Packet received successfully.");
 1029              		.loc 1 339 0
 1030 017e 4FF47A70 		mov	r0, #1000
 1031 0182 FFF7FEFF 		bl	CyDelay
 340:.\modem.c     ****                         return 1u;   // return 1 if succesfully sent sms
 1032              		.loc 1 340 0
 1033 0186 4FF00103 		mov	r3, #1
 1034 018a 2EE0     		b	.L49
 1035              	.L55:
 341:.\modem.c     **** 
 342:.\modem.c     ****                     }
 343:.\modem.c     ****                     else {
 344:.\modem.c     ****                         debug_write("(at_write_command(sendBuffer,\"OK\"...) Data sent unsuccessful
 1036              		.loc 1 344 0
 1037 018c 40F20000 		movw	r0, #:lower16:.LC19
 1038 0190 C0F20000 		movt	r0, #:upper16:.LC19
 1039 0194 FFF7FEFF 		bl	debug_write
 1040              	.LBE4:
 345:.\modem.c     ****                     }
 346:.\modem.c     ****                 }
 347:.\modem.c     ****                 else {
 348:.\modem.c     ****                     debug_write("(AT#SSEND=1) Could not send data through connected socket.");
 1041              		.loc 1 348 0
 1042 0198 0CE0     		b	.L52
 1043              	.L54:
 1044 019a 40F20000 		movw	r0, #:lower16:.LC20
 1045 019e C0F20000 		movt	r0, #:upper16:.LC20
 1046 01a2 FFF7FEFF 		bl	debug_write
 1047 01a6 05E0     		b	.L52
 1048              	.L53:
 349:.\modem.c     ****                 }
 350:.\modem.c     ****                 //uint8 disconnected = modem_disconnect();
 351:.\modem.c     ****             }
 352:.\modem.c     ****             else {
 353:.\modem.c     ****                 debug_write("(AT#SD=1,0,80,\"api.xively.com\",0,0,1) Could not connect to server.")
 1049              		.loc 1 353 0
 1050 01a8 40F20000 		movw	r0, #:lower16:.LC30
 1051 01ac C0F20000 		movt	r0, #:upper16:.LC30
 1052 01b0 FFF7FEFF 		bl	debug_write
 1053              	.L52:
 354:.\modem.c     ****             }
 355:.\modem.c     ****         }
 356:.\modem.c     ****         
 357:.\modem.c     ****         if (attempts < MAX_GET_ATTEMPTS-1) { // Don't reset the modem on the last attempt since it 
 1054              		.loc 1 357 0
 1055 01b4 97F85734 		ldrb	r3, [r7, #1111]	@ zero_extendqisi2
 1056 01b8 002B     		cmp	r3, #0
 1057 01ba 01D1     		bne	.L57
 358:.\modem.c     ****             modem_reset();
 1058              		.loc 1 358 0
ARM GAS  C:\Users\karunmj\AppData\Local\Temp\ccGaaAqA.s 			page 28


 1059 01bc FFF7FEFF 		bl	modem_reset
 1060              	.L57:
 1061              		.loc 1 302 0
 1062 01c0 97F85734 		ldrb	r3, [r7, #1111]
 1063 01c4 03F10103 		add	r3, r3, #1
 1064 01c8 87F85734 		strb	r3, [r7, #1111]
 1065              	.L50:
 1066 01cc 97F85734 		ldrb	r3, [r7, #1111]	@ zero_extendqisi2
 1067 01d0 012B     		cmp	r3, #1
 1068 01d2 7FF639AF 		bls	.L58
 359:.\modem.c     ****         }
 360:.\modem.c     ****         
 361:.\modem.c     ****     }
 362:.\modem.c     ****     // cut power to rx and tx pins
 363:.\modem.c     ****     //uart_rx_voltage_pin_Write(1u);
 364:.\modem.c     ****     //uart_rx_voltage_pin_Write(1u);
 365:.\modem.c     ****     debug_write("MAX_GET_ATTEMPTS Exceeded.");
 1069              		.loc 1 365 0
 1070 01d6 40F20000 		movw	r0, #:lower16:.LC31
 1071 01da C0F20000 		movt	r0, #:upper16:.LC31
 1072 01de FFF7FEFF 		bl	debug_write
 366:.\modem.c     ****     modem_disconnect();
 1073              		.loc 1 366 0
 1074 01e2 FFF7FEFF 		bl	modem_disconnect
 367:.\modem.c     ****     return 0u;   // return 0 if failure to send sms
 1075              		.loc 1 367 0
 1076 01e6 4FF00003 		mov	r3, #0
 1077              	.L49:
 368:.\modem.c     **** }
 1078              		.loc 1 368 0
 1079 01ea 1846     		mov	r0, r3
 1080 01ec 07F15807 		add	r7, r7, #88
 1081 01f0 07F58067 		add	r7, r7, #1024
 1082 01f4 BD46     		mov	sp, r7
 1083 01f6 80BD     		pop	{r7, pc}
 1084              		.cfi_endproc
 1085              	.LFE38:
 1086              		.size	modem_get_packet, .-modem_get_packet
 1087              		.section	.rodata
 1088 03bb 00       		.align	2
 1089              	.LC32:
 1090 03bc 6C6F636B 		.ascii	"lock\000"
 1090      00
 1091 03c1 000000   		.align	2
 1092              	.LC33:
 1093 03c4 7B226D65 		.ascii	"{\"method\":\"put\",\"resource\":\"/feeds/%lu\",\"h"
 1093      74686F64 
 1093      223A2270 
 1093      7574222C 
 1093      22726573 
 1094 03ee 65616465 		.ascii	"eaders\":{\"X-ApiKey\":\"%s\"},\"body\":{\"version\""
 1094      7273223A 
 1094      7B22582D 
 1094      4170694B 
 1094      6579223A 
 1095 0419 3A22312E 		.ascii	":\"1.0.0\",\"datastreams\":[{ \"id\" : \"lock\", \""
 1095      302E3022 
ARM GAS  C:\Users\karunmj\AppData\Local\Temp\ccGaaAqA.s 			page 29


 1095      2C226461 
 1095      74617374 
 1095      7265616D 
 1096 0443 63757272 		.ascii	"current_value\" : \"%u\"}]}}\000"
 1096      656E745F 
 1096      76616C75 
 1096      6522203A 
 1096      20222575 
 1097 045d 000000   		.section	.text.modem_acquire_lock,"ax",%progbits
 1098              		.align	2
 1099              		.global	modem_acquire_lock
 1100              		.thumb
 1101              		.thumb_func
 1102              		.type	modem_acquire_lock, %function
 1103              	modem_acquire_lock:
 1104              	.LFB39:
 369:.\modem.c     **** 
 370:.\modem.c     **** uint8 modem_acquire_lock(){
 1105              		.loc 1 370 0
 1106              		.cfi_startproc
 1107              		@ args = 0, pretend = 0, frame = 320
 1108              		@ frame_needed = 1, uses_anonymous_args = 0
 1109 0000 80B5     		push	{r7, lr}
 1110              	.LCFI24:
 1111              		.cfi_def_cfa_offset 8
 1112 0002 D2B0     		sub	sp, sp, #328
 1113              	.LCFI25:
 1114              		.cfi_def_cfa_offset 336
 1115 0004 02AF     		add	r7, sp, #8
 1116              		.cfi_offset 14, -4
 1117              		.cfi_offset 7, -8
 1118              	.LCFI26:
 1119              		.cfi_def_cfa 7, 328
 371:.\modem.c     ****     
 372:.\modem.c     ****     /*
 373:.\modem.c     ****     if (lock_acquired == 1u) {
 374:.\modem.c     ****         return 1u;
 375:.\modem.c     ****     }
 376:.\modem.c     ****     */
 377:.\modem.c     ****     
 378:.\modem.c     ****     uint8 lock = 0u;
 1120              		.loc 1 378 0
 1121 0006 4FF00003 		mov	r3, #0
 1122 000a 87F83331 		strb	r3, [r7, #307]
 379:.\modem.c     ****     uint32 i = 0u, delay = 100u, lock_attempts = 2u;    
 1123              		.loc 1 379 0
 1124 000e 4FF00003 		mov	r3, #0
 1125 0012 C7F83431 		str	r3, [r7, #308]
 1126 0016 4FF06403 		mov	r3, #100
 1127 001a C7F83831 		str	r3, [r7, #312]
 1128 001e 4FF00203 		mov	r3, #2
 1129 0022 C7F83C31 		str	r3, [r7, #316]
 380:.\modem.c     ****     char data_packet[300] = {0};
 1130              		.loc 1 380 0
 1131 0026 07F10403 		add	r3, r7, #4
 1132 002a 1A46     		mov	r2, r3
 1133 002c 4FF49673 		mov	r3, #300
ARM GAS  C:\Users\karunmj\AppData\Local\Temp\ccGaaAqA.s 			page 30


 1134 0030 1046     		mov	r0, r2
 1135 0032 4FF00001 		mov	r1, #0
 1136 0036 1A46     		mov	r2, r3
 1137 0038 FFF7FEFF 		bl	memset
 381:.\modem.c     ****             
 382:.\modem.c     ****     for(i=0u; i < lock_attempts; i++) {
 1138              		.loc 1 382 0
 1139 003c 4FF00003 		mov	r3, #0
 1140 0040 C7F83431 		str	r3, [r7, #308]
 1141 0044 5BE0     		b	.L61
 1142              	.L64:
 383:.\modem.c     ****         if(modem_get_packet(data_packet,"lock")){
 1143              		.loc 1 383 0
 1144 0046 07F10403 		add	r3, r7, #4
 1145 004a 1846     		mov	r0, r3
 1146 004c 40F20001 		movw	r1, #:lower16:.LC32
 1147 0050 C0F20001 		movt	r1, #:upper16:.LC32
 1148 0054 FFF7FEFF 		bl	modem_get_packet
 1149 0058 0346     		mov	r3, r0
 1150 005a 002B     		cmp	r3, #0
 1151 005c 45D0     		beq	.L62
 384:.\modem.c     ****             if(packet_get_uint8(data_packet, "lock", &lock) && lock == 0u){
 1152              		.loc 1 384 0
 1153 005e 07F10402 		add	r2, r7, #4
 1154 0062 07F59873 		add	r3, r7, #304
 1155 0066 03F10303 		add	r3, r3, #3
 1156 006a 1046     		mov	r0, r2
 1157 006c 40F20001 		movw	r1, #:lower16:.LC32
 1158 0070 C0F20001 		movt	r1, #:upper16:.LC32
 1159 0074 1A46     		mov	r2, r3
 1160 0076 FFF7FEFF 		bl	packet_get_uint8
 1161 007a 0346     		mov	r3, r0
 1162 007c 002B     		cmp	r3, #0
 1163 007e 34D0     		beq	.L62
 1164 0080 97F83331 		ldrb	r3, [r7, #307]	@ zero_extendqisi2
 1165 0084 002B     		cmp	r3, #0
 1166 0086 30D1     		bne	.L62
 385:.\modem.c     ****             
 386:.\modem.c     ****                 memset(&data_packet[0],0,sizeof(data_packet));
 1167              		.loc 1 386 0
 1168 0088 07F10403 		add	r3, r7, #4
 1169 008c 1846     		mov	r0, r3
 1170 008e 4FF00001 		mov	r1, #0
 1171 0092 4FF49672 		mov	r2, #300
 1172 0096 FFF7FEFF 		bl	memset
 387:.\modem.c     ****                 sprintf(data_packet, "{"
 1173              		.loc 1 387 0
 1174 009a 40F20003 		movw	r3, #:lower16:feed_id
 1175 009e C0F20003 		movt	r3, #:upper16:feed_id
 1176 00a2 1A68     		ldr	r2, [r3, #0]
 1177 00a4 40F20003 		movw	r3, #:lower16:api_key
 1178 00a8 C0F20003 		movt	r3, #:upper16:api_key
 1179 00ac 1B68     		ldr	r3, [r3, #0]
 1180 00ae 07F10401 		add	r1, r7, #4
 1181 00b2 4FF00100 		mov	r0, #1
 1182 00b6 0090     		str	r0, [sp, #0]
 1183 00b8 0846     		mov	r0, r1
ARM GAS  C:\Users\karunmj\AppData\Local\Temp\ccGaaAqA.s 			page 31


 1184 00ba 40F20001 		movw	r1, #:lower16:.LC33
 1185 00be C0F20001 		movt	r1, #:upper16:.LC33
 1186 00c2 FFF7FEFF 		bl	sprintf
 388:.\modem.c     ****                       "\"method\":\"put\","
 389:.\modem.c     ****                       "\"resource\":\"/feeds/%lu\","
 390:.\modem.c     ****                       "\"headers\":{\"X-ApiKey\":\"%s\"},"
 391:.\modem.c     ****                       "\"body\":{\"version\":\"1.0.0\",\"datastreams\":["
 392:.\modem.c     ****                             "{ \"id\" : \"lock\", \"current_value\" : \"%u\"}"
 393:.\modem.c     ****                       "]}}",
 394:.\modem.c     ****                       feed_id,api_key,1u);
 395:.\modem.c     ****                       
 396:.\modem.c     ****                 if(modem_send_packet(data_packet)) {
 1187              		.loc 1 396 0
 1188 00c6 07F10403 		add	r3, r7, #4
 1189 00ca 1846     		mov	r0, r3
 1190 00cc FFF7FEFF 		bl	modem_send_packet
 1191 00d0 0346     		mov	r3, r0
 1192 00d2 002B     		cmp	r3, #0
 1193 00d4 09D0     		beq	.L62
 397:.\modem.c     ****                     lock_acquired = 1u;
 1194              		.loc 1 397 0
 1195 00d6 40F20003 		movw	r3, #:lower16:lock_acquired
 1196 00da C0F20003 		movt	r3, #:upper16:lock_acquired
 1197 00de 4FF00102 		mov	r2, #1
 1198 00e2 1A70     		strb	r2, [r3, #0]
 398:.\modem.c     ****                     return 1u;
 1199              		.loc 1 398 0
 1200 00e4 4FF00103 		mov	r3, #1
 1201 00e8 11E0     		b	.L63
 1202              	.L62:
 399:.\modem.c     ****                 }
 400:.\modem.c     ****             }  
 401:.\modem.c     ****         }
 402:.\modem.c     ****         CyDelay(delay);
 1203              		.loc 1 402 0
 1204 00ea D7F83801 		ldr	r0, [r7, #312]
 1205 00ee FFF7FEFF 		bl	CyDelay
 1206              		.loc 1 382 0
 1207 00f2 D7F83431 		ldr	r3, [r7, #308]
 1208 00f6 03F10103 		add	r3, r3, #1
 1209 00fa C7F83431 		str	r3, [r7, #308]
 1210              	.L61:
 1211 00fe D7F83421 		ldr	r2, [r7, #308]
 1212 0102 D7F83C31 		ldr	r3, [r7, #316]
 1213 0106 9A42     		cmp	r2, r3
 1214 0108 9DD3     		bcc	.L64
 403:.\modem.c     ****     }
 404:.\modem.c     ****          
 405:.\modem.c     ****     return 0u;
 1215              		.loc 1 405 0
 1216 010a 4FF00003 		mov	r3, #0
 1217              	.L63:
 406:.\modem.c     **** }
 1218              		.loc 1 406 0
 1219 010e 1846     		mov	r0, r3
 1220 0110 07F5A077 		add	r7, r7, #320
 1221 0114 BD46     		mov	sp, r7
ARM GAS  C:\Users\karunmj\AppData\Local\Temp\ccGaaAqA.s 			page 32


 1222 0116 80BD     		pop	{r7, pc}
 1223              		.cfi_endproc
 1224              	.LFE39:
 1225              		.size	modem_acquire_lock, .-modem_acquire_lock
 1226              		.section	.text.modem_release_lock,"ax",%progbits
 1227              		.align	2
 1228              		.global	modem_release_lock
 1229              		.thumb
 1230              		.thumb_func
 1231              		.type	modem_release_lock, %function
 1232              	modem_release_lock:
 1233              	.LFB40:
 407:.\modem.c     **** 
 408:.\modem.c     **** uint8 modem_release_lock(){
 1234              		.loc 1 408 0
 1235              		.cfi_startproc
 1236              		@ args = 0, pretend = 0, frame = 312
 1237              		@ frame_needed = 1, uses_anonymous_args = 0
 1238 0000 80B5     		push	{r7, lr}
 1239              	.LCFI27:
 1240              		.cfi_def_cfa_offset 8
 1241 0002 D0B0     		sub	sp, sp, #320
 1242              	.LCFI28:
 1243              		.cfi_def_cfa_offset 328
 1244 0004 02AF     		add	r7, sp, #8
 1245              		.cfi_offset 14, -4
 1246              		.cfi_offset 7, -8
 1247              	.LCFI29:
 1248              		.cfi_def_cfa 7, 320
 409:.\modem.c     ****     /*
 410:.\modem.c     ****     if (lock_acquired == 0u) {
 411:.\modem.c     ****         return 1u;
 412:.\modem.c     ****     }
 413:.\modem.c     ****     */
 414:.\modem.c     ****     
 415:.\modem.c     ****     uint32 i = 0u, delay = 100u, lock_attempts = 2u;    
 1249              		.loc 1 415 0
 1250 0006 4FF00003 		mov	r3, #0
 1251 000a C7F82C31 		str	r3, [r7, #300]
 1252 000e 4FF06403 		mov	r3, #100
 1253 0012 C7F83031 		str	r3, [r7, #304]
 1254 0016 4FF00203 		mov	r3, #2
 1255 001a C7F83431 		str	r3, [r7, #308]
 416:.\modem.c     ****     char data_packet[300] = {0};
 1256              		.loc 1 416 0
 1257 001e 3B46     		mov	r3, r7
 1258 0020 1A46     		mov	r2, r3
 1259 0022 4FF49673 		mov	r3, #300
 1260 0026 1046     		mov	r0, r2
 1261 0028 4FF00001 		mov	r1, #0
 1262 002c 1A46     		mov	r2, r3
 1263 002e FFF7FEFF 		bl	memset
 417:.\modem.c     ****     
 418:.\modem.c     ****     sprintf(data_packet, "{"
 1264              		.loc 1 418 0
 1265 0032 40F20003 		movw	r3, #:lower16:feed_id
 1266 0036 C0F20003 		movt	r3, #:upper16:feed_id
ARM GAS  C:\Users\karunmj\AppData\Local\Temp\ccGaaAqA.s 			page 33


 1267 003a 1A68     		ldr	r2, [r3, #0]
 1268 003c 40F20003 		movw	r3, #:lower16:api_key
 1269 0040 C0F20003 		movt	r3, #:upper16:api_key
 1270 0044 1B68     		ldr	r3, [r3, #0]
 1271 0046 3946     		mov	r1, r7
 1272 0048 4FF00000 		mov	r0, #0
 1273 004c 0090     		str	r0, [sp, #0]
 1274 004e 0846     		mov	r0, r1
 1275 0050 40F20001 		movw	r1, #:lower16:.LC33
 1276 0054 C0F20001 		movt	r1, #:upper16:.LC33
 1277 0058 FFF7FEFF 		bl	sprintf
 419:.\modem.c     ****           "\"method\":\"put\","
 420:.\modem.c     ****           "\"resource\":\"/feeds/%lu\","
 421:.\modem.c     ****           "\"headers\":{\"X-ApiKey\":\"%s\"},"
 422:.\modem.c     ****           "\"body\":{\"version\":\"1.0.0\",\"datastreams\":["
 423:.\modem.c     ****                 "{ \"id\" : \"lock\", \"current_value\" : \"%u\"}"
 424:.\modem.c     ****           "]}}",
 425:.\modem.c     ****           feed_id, api_key, 0u);
 426:.\modem.c     ****         
 427:.\modem.c     ****     for(i=0u; i < lock_attempts; i++) {
 1278              		.loc 1 427 0
 1279 005c 4FF00003 		mov	r3, #0
 1280 0060 C7F82C31 		str	r3, [r7, #300]
 1281 0064 1AE0     		b	.L67
 1282              	.L70:
 428:.\modem.c     **** 
 429:.\modem.c     ****         if(modem_send_packet(data_packet)) {
 1283              		.loc 1 429 0
 1284 0066 3B46     		mov	r3, r7
 1285 0068 1846     		mov	r0, r3
 1286 006a FFF7FEFF 		bl	modem_send_packet
 1287 006e 0346     		mov	r3, r0
 1288 0070 002B     		cmp	r3, #0
 1289 0072 09D0     		beq	.L68
 430:.\modem.c     ****             lock_acquired = 0u;
 1290              		.loc 1 430 0
 1291 0074 40F20003 		movw	r3, #:lower16:lock_acquired
 1292 0078 C0F20003 		movt	r3, #:upper16:lock_acquired
 1293 007c 4FF00002 		mov	r2, #0
 1294 0080 1A70     		strb	r2, [r3, #0]
 431:.\modem.c     ****             return 1u;
 1295              		.loc 1 431 0
 1296 0082 4FF00103 		mov	r3, #1
 1297 0086 11E0     		b	.L69
 1298              	.L68:
 432:.\modem.c     ****         }
 433:.\modem.c     ****         
 434:.\modem.c     ****         CyDelay(delay);
 1299              		.loc 1 434 0
 1300 0088 D7F83001 		ldr	r0, [r7, #304]
 1301 008c FFF7FEFF 		bl	CyDelay
 1302              		.loc 1 427 0
 1303 0090 D7F82C31 		ldr	r3, [r7, #300]
 1304 0094 03F10103 		add	r3, r3, #1
 1305 0098 C7F82C31 		str	r3, [r7, #300]
 1306              	.L67:
 1307 009c D7F82C21 		ldr	r2, [r7, #300]
ARM GAS  C:\Users\karunmj\AppData\Local\Temp\ccGaaAqA.s 			page 34


 1308 00a0 D7F83431 		ldr	r3, [r7, #308]
 1309 00a4 9A42     		cmp	r2, r3
 1310 00a6 DED3     		bcc	.L70
 435:.\modem.c     ****     }
 436:.\modem.c     ****          
 437:.\modem.c     ****     return 0u;
 1311              		.loc 1 437 0
 1312 00a8 4FF00003 		mov	r3, #0
 1313              	.L69:
 438:.\modem.c     **** }
 1314              		.loc 1 438 0
 1315 00ac 1846     		mov	r0, r3
 1316 00ae 07F59C77 		add	r7, r7, #312
 1317 00b2 BD46     		mov	sp, r7
 1318 00b4 80BD     		pop	{r7, pc}
 1319              		.cfi_endproc
 1320              	.LFE40:
 1321              		.size	modem_release_lock, .-modem_release_lock
 1322 00b6 00BF     		.section	.text.uart_string_reset,"ax",%progbits
 1323              		.align	2
 1324              		.global	uart_string_reset
 1325              		.thumb
 1326              		.thumb_func
 1327              		.type	uart_string_reset, %function
 1328              	uart_string_reset:
 1329              	.LFB41:
 439:.\modem.c     **** 
 440:.\modem.c     **** void uart_string_reset(){
 1330              		.loc 1 440 0
 1331              		.cfi_startproc
 1332              		@ args = 0, pretend = 0, frame = 0
 1333              		@ frame_needed = 1, uses_anonymous_args = 0
 1334 0000 80B5     		push	{r7, lr}
 1335              	.LCFI30:
 1336              		.cfi_def_cfa_offset 8
 1337 0002 00AF     		add	r7, sp, #0
 1338              		.cfi_offset 14, -4
 1339              		.cfi_offset 7, -8
 1340              	.LCFI31:
 1341              		.cfi_def_cfa_register 7
 441:.\modem.c     ****     // reset uart_received_string to zero
 442:.\modem.c     ****     /*
 443:.\modem.c     ****     uint16 i = 0;
 444:.\modem.c     ****     
 445:.\modem.c     ****     for(i = 0; i < 700; i++){
 446:.\modem.c     ****         uart_received_string[i] = 0;
 447:.\modem.c     ****     }
 448:.\modem.c     ****     */
 449:.\modem.c     ****     memset(&uart_received_string[0],0,sizeof(uart_received_string));
 1342              		.loc 1 449 0
 1343 0004 40F20000 		movw	r0, #:lower16:uart_received_string
 1344 0008 C0F20000 		movt	r0, #:upper16:uart_received_string
 1345 000c 4FF00001 		mov	r1, #0
 1346 0010 4FF42F72 		mov	r2, #700
 1347 0014 FFF7FEFF 		bl	memset
 450:.\modem.c     ****     uart_string_index = 0;
 1348              		.loc 1 450 0
ARM GAS  C:\Users\karunmj\AppData\Local\Temp\ccGaaAqA.s 			page 35


 1349 0018 40F20003 		movw	r3, #:lower16:uart_string_index
 1350 001c C0F20003 		movt	r3, #:upper16:uart_string_index
 1351 0020 4FF00002 		mov	r2, #0
 1352 0024 1A80     		strh	r2, [r3, #0]	@ movhi
 451:.\modem.c     ****     uart_ClearRxBuffer();
 1353              		.loc 1 451 0
 1354 0026 FFF7FEFF 		bl	uart_ClearRxBuffer
 452:.\modem.c     **** //    uart_ClearTxBuffer();
 453:.\modem.c     **** }
 1355              		.loc 1 453 0
 1356 002a 80BD     		pop	{r7, pc}
 1357              		.cfi_endproc
 1358              	.LFE41:
 1359              		.size	uart_string_reset, .-uart_string_reset
 1360              		.section	.text.isr_byte_rx,"ax",%progbits
 1361              		.align	2
 1362              		.global	isr_byte_rx
 1363              		.thumb
 1364              		.thumb_func
 1365              		.type	isr_byte_rx, %function
 1366              	isr_byte_rx:
 1367              	.LFB42:
 454:.\modem.c     **** 
 455:.\modem.c     **** // this function fires when uart rx receives bytes (when modem is sending bytes)
 456:.\modem.c     **** CY_ISR(isr_byte_rx){
 1368              		.loc 1 456 0
 1369              		.cfi_startproc
 1370              		@ args = 0, pretend = 0, frame = 8
 1371              		@ frame_needed = 1, uses_anonymous_args = 0
 1372 0000 80B5     		push	{r7, lr}
 1373              	.LCFI32:
 1374              		.cfi_def_cfa_offset 8
 1375 0002 82B0     		sub	sp, sp, #8
 1376              	.LCFI33:
 1377              		.cfi_def_cfa_offset 16
 1378 0004 00AF     		add	r7, sp, #0
 1379              		.cfi_offset 14, -4
 1380              		.cfi_offset 7, -8
 1381              	.LCFI34:
 1382              		.cfi_def_cfa_register 7
 457:.\modem.c     ****     while (uart_GetRxBufferSize()){
 1383              		.loc 1 457 0
 1384 0006 1FE0     		b	.L75
 1385              	.L76:
 1386              	.LBB5:
 458:.\modem.c     ****         // hold the next char in the rx register as a temporary variable
 459:.\modem.c     ****         char rx_char_hold = uart_GetChar();
 1387              		.loc 1 459 0
 1388 0008 FFF7FEFF 		bl	uart_GetChar
 1389 000c 0346     		mov	r3, r0
 1390 000e FB71     		strb	r3, [r7, #7]
 460:.\modem.c     ****         
 461:.\modem.c     ****         // store the char in uart_received_string
 462:.\modem.c     ****         if(rx_char_hold){
 1391              		.loc 1 462 0
 1392 0010 FB79     		ldrb	r3, [r7, #7]	@ zero_extendqisi2
 1393 0012 002B     		cmp	r3, #0
ARM GAS  C:\Users\karunmj\AppData\Local\Temp\ccGaaAqA.s 			page 36


 1394 0014 18D0     		beq	.L75
 463:.\modem.c     ****             uart_received_string[uart_string_index] = rx_char_hold;
 1395              		.loc 1 463 0
 1396 0016 40F20003 		movw	r3, #:lower16:uart_string_index
 1397 001a C0F20003 		movt	r3, #:upper16:uart_string_index
 1398 001e 1B88     		ldrh	r3, [r3, #0]
 1399 0020 1A46     		mov	r2, r3
 1400 0022 40F20003 		movw	r3, #:lower16:uart_received_string
 1401 0026 C0F20003 		movt	r3, #:upper16:uart_received_string
 1402 002a F979     		ldrb	r1, [r7, #7]
 1403 002c 9954     		strb	r1, [r3, r2]
 464:.\modem.c     ****             uart_string_index++;
 1404              		.loc 1 464 0
 1405 002e 40F20003 		movw	r3, #:lower16:uart_string_index
 1406 0032 C0F20003 		movt	r3, #:upper16:uart_string_index
 1407 0036 1B88     		ldrh	r3, [r3, #0]
 1408 0038 03F10103 		add	r3, r3, #1
 1409 003c 9AB2     		uxth	r2, r3
 1410 003e 40F20003 		movw	r3, #:lower16:uart_string_index
 1411 0042 C0F20003 		movt	r3, #:upper16:uart_string_index
 1412 0046 1A80     		strh	r2, [r3, #0]	@ movhi
 1413              	.L75:
 1414              	.LBE5:
 1415              		.loc 1 457 0
 1416 0048 FFF7FEFF 		bl	uart_GetRxBufferSize
 1417 004c 0346     		mov	r3, r0
 1418 004e 002B     		cmp	r3, #0
 1419 0050 DAD1     		bne	.L76
 465:.\modem.c     ****         }
 466:.\modem.c     ****     }
 467:.\modem.c     **** }
 1420              		.loc 1 467 0
 1421 0052 07F10807 		add	r7, r7, #8
 1422 0056 BD46     		mov	sp, r7
 1423 0058 80BD     		pop	{r7, pc}
 1424              		.cfi_endproc
 1425              	.LFE42:
 1426              		.size	isr_byte_rx, .-isr_byte_rx
 1427 005a 00BF     		.text
 1428              	.Letext0:
 1429              		.section	.debug_loc,"",%progbits
 1430              	.Ldebug_loc0:
 1431              	.LLST0:
 1432 0000 00000000 		.4byte	.LFB29
 1433 0004 02000000 		.4byte	.LCFI0
 1434 0008 0100     		.2byte	0x1
 1435 000a 5D       		.byte	0x5d
 1436 000b 02000000 		.4byte	.LCFI0
 1437 000f 04000000 		.4byte	.LCFI1
 1438 0013 0200     		.2byte	0x2
 1439 0015 7D       		.byte	0x7d
 1440 0016 04       		.sleb128 4
 1441 0017 04000000 		.4byte	.LCFI1
 1442 001b 06000000 		.4byte	.LCFI2
 1443 001f 0200     		.2byte	0x2
 1444 0021 7D       		.byte	0x7d
 1445 0022 10       		.sleb128 16
ARM GAS  C:\Users\karunmj\AppData\Local\Temp\ccGaaAqA.s 			page 37


 1446 0023 06000000 		.4byte	.LCFI2
 1447 0027 32000000 		.4byte	.LFE29
 1448 002b 0200     		.2byte	0x2
 1449 002d 77       		.byte	0x77
 1450 002e 10       		.sleb128 16
 1451 002f 00000000 		.4byte	0x0
 1452 0033 00000000 		.4byte	0x0
 1453              	.LLST1:
 1454 0037 00000000 		.4byte	.LFB30
 1455 003b 02000000 		.4byte	.LCFI3
 1456 003f 0100     		.2byte	0x1
 1457 0041 5D       		.byte	0x5d
 1458 0042 02000000 		.4byte	.LCFI3
 1459 0046 04000000 		.4byte	.LCFI4
 1460 004a 0200     		.2byte	0x2
 1461 004c 7D       		.byte	0x7d
 1462 004d 08       		.sleb128 8
 1463 004e 04000000 		.4byte	.LCFI4
 1464 0052 34000000 		.4byte	.LFE30
 1465 0056 0200     		.2byte	0x2
 1466 0058 77       		.byte	0x77
 1467 0059 08       		.sleb128 8
 1468 005a 00000000 		.4byte	0x0
 1469 005e 00000000 		.4byte	0x0
 1470              	.LLST2:
 1471 0062 00000000 		.4byte	.LFB31
 1472 0066 02000000 		.4byte	.LCFI5
 1473 006a 0100     		.2byte	0x1
 1474 006c 5D       		.byte	0x5d
 1475 006d 02000000 		.4byte	.LCFI5
 1476 0071 04000000 		.4byte	.LCFI6
 1477 0075 0200     		.2byte	0x2
 1478 0077 7D       		.byte	0x7d
 1479 0078 08       		.sleb128 8
 1480 0079 04000000 		.4byte	.LCFI6
 1481 007d 06000000 		.4byte	.LCFI7
 1482 0081 0200     		.2byte	0x2
 1483 0083 7D       		.byte	0x7d
 1484 0084 30       		.sleb128 48
 1485 0085 06000000 		.4byte	.LCFI7
 1486 0089 84000000 		.4byte	.LFE31
 1487 008d 0200     		.2byte	0x2
 1488 008f 77       		.byte	0x77
 1489 0090 30       		.sleb128 48
 1490 0091 00000000 		.4byte	0x0
 1491 0095 00000000 		.4byte	0x0
 1492              	.LLST3:
 1493 0099 00000000 		.4byte	.LFB32
 1494 009d 02000000 		.4byte	.LCFI8
 1495 00a1 0100     		.2byte	0x1
 1496 00a3 5D       		.byte	0x5d
 1497 00a4 02000000 		.4byte	.LCFI8
 1498 00a8 04000000 		.4byte	.LCFI9
 1499 00ac 0200     		.2byte	0x2
 1500 00ae 7D       		.byte	0x7d
 1501 00af 08       		.sleb128 8
 1502 00b0 04000000 		.4byte	.LCFI9
ARM GAS  C:\Users\karunmj\AppData\Local\Temp\ccGaaAqA.s 			page 38


 1503 00b4 74000000 		.4byte	.LFE32
 1504 00b8 0200     		.2byte	0x2
 1505 00ba 77       		.byte	0x77
 1506 00bb 08       		.sleb128 8
 1507 00bc 00000000 		.4byte	0x0
 1508 00c0 00000000 		.4byte	0x0
 1509              	.LLST4:
 1510 00c4 00000000 		.4byte	.LFB33
 1511 00c8 02000000 		.4byte	.LCFI10
 1512 00cc 0100     		.2byte	0x1
 1513 00ce 5D       		.byte	0x5d
 1514 00cf 02000000 		.4byte	.LCFI10
 1515 00d3 04000000 		.4byte	.LCFI11
 1516 00d7 0200     		.2byte	0x2
 1517 00d9 7D       		.byte	0x7d
 1518 00da 08       		.sleb128 8
 1519 00db 04000000 		.4byte	.LCFI11
 1520 00df 78000000 		.4byte	.LFE33
 1521 00e3 0200     		.2byte	0x2
 1522 00e5 77       		.byte	0x77
 1523 00e6 08       		.sleb128 8
 1524 00e7 00000000 		.4byte	0x0
 1525 00eb 00000000 		.4byte	0x0
 1526              	.LLST5:
 1527 00ef 00000000 		.4byte	.LFB34
 1528 00f3 02000000 		.4byte	.LCFI12
 1529 00f7 0100     		.2byte	0x1
 1530 00f9 5D       		.byte	0x5d
 1531 00fa 02000000 		.4byte	.LCFI12
 1532 00fe 04000000 		.4byte	.LCFI13
 1533 0102 0200     		.2byte	0x2
 1534 0104 7D       		.byte	0x7d
 1535 0105 08       		.sleb128 8
 1536 0106 04000000 		.4byte	.LCFI13
 1537 010a 4E000000 		.4byte	.LFE34
 1538 010e 0200     		.2byte	0x2
 1539 0110 77       		.byte	0x77
 1540 0111 08       		.sleb128 8
 1541 0112 00000000 		.4byte	0x0
 1542 0116 00000000 		.4byte	0x0
 1543              	.LLST6:
 1544 011a 00000000 		.4byte	.LFB35
 1545 011e 02000000 		.4byte	.LCFI14
 1546 0122 0100     		.2byte	0x1
 1547 0124 5D       		.byte	0x5d
 1548 0125 02000000 		.4byte	.LCFI14
 1549 0129 04000000 		.4byte	.LCFI15
 1550 012d 0200     		.2byte	0x2
 1551 012f 7D       		.byte	0x7d
 1552 0130 08       		.sleb128 8
 1553 0131 04000000 		.4byte	.LCFI15
 1554 0135 4C000000 		.4byte	.LFE35
 1555 0139 0200     		.2byte	0x2
 1556 013b 77       		.byte	0x77
 1557 013c 08       		.sleb128 8
 1558 013d 00000000 		.4byte	0x0
 1559 0141 00000000 		.4byte	0x0
ARM GAS  C:\Users\karunmj\AppData\Local\Temp\ccGaaAqA.s 			page 39


 1560              	.LLST7:
 1561 0145 00000000 		.4byte	.LFB36
 1562 0149 02000000 		.4byte	.LCFI16
 1563 014d 0100     		.2byte	0x1
 1564 014f 5D       		.byte	0x5d
 1565 0150 02000000 		.4byte	.LCFI16
 1566 0154 04000000 		.4byte	.LCFI17
 1567 0158 0200     		.2byte	0x2
 1568 015a 7D       		.byte	0x7d
 1569 015b 08       		.sleb128 8
 1570 015c 04000000 		.4byte	.LCFI17
 1571 0160 BC000000 		.4byte	.LFE36
 1572 0164 0200     		.2byte	0x2
 1573 0166 77       		.byte	0x77
 1574 0167 08       		.sleb128 8
 1575 0168 00000000 		.4byte	0x0
 1576 016c 00000000 		.4byte	0x0
 1577              	.LLST8:
 1578 0170 00000000 		.4byte	.LFB37
 1579 0174 02000000 		.4byte	.LCFI18
 1580 0178 0100     		.2byte	0x1
 1581 017a 5D       		.byte	0x5d
 1582 017b 02000000 		.4byte	.LCFI18
 1583 017f 06000000 		.4byte	.LCFI19
 1584 0183 0200     		.2byte	0x2
 1585 0185 7D       		.byte	0x7d
 1586 0186 08       		.sleb128 8
 1587 0187 06000000 		.4byte	.LCFI19
 1588 018b 08000000 		.4byte	.LCFI20
 1589 018f 0300     		.2byte	0x3
 1590 0191 7D       		.byte	0x7d
 1591 0192 F808     		.sleb128 1144
 1592 0194 08000000 		.4byte	.LCFI20
 1593 0198 C0010000 		.4byte	.LFE37
 1594 019c 0300     		.2byte	0x3
 1595 019e 77       		.byte	0x77
 1596 019f E008     		.sleb128 1120
 1597 01a1 00000000 		.4byte	0x0
 1598 01a5 00000000 		.4byte	0x0
 1599              	.LLST9:
 1600 01a9 00000000 		.4byte	.LFB38
 1601 01ad 02000000 		.4byte	.LCFI21
 1602 01b1 0100     		.2byte	0x1
 1603 01b3 5D       		.byte	0x5d
 1604 01b4 02000000 		.4byte	.LCFI21
 1605 01b8 06000000 		.4byte	.LCFI22
 1606 01bc 0200     		.2byte	0x2
 1607 01be 7D       		.byte	0x7d
 1608 01bf 08       		.sleb128 8
 1609 01c0 06000000 		.4byte	.LCFI22
 1610 01c4 08000000 		.4byte	.LCFI23
 1611 01c8 0300     		.2byte	0x3
 1612 01ca 7D       		.byte	0x7d
 1613 01cb F008     		.sleb128 1136
 1614 01cd 08000000 		.4byte	.LCFI23
 1615 01d1 F8010000 		.4byte	.LFE38
 1616 01d5 0300     		.2byte	0x3
ARM GAS  C:\Users\karunmj\AppData\Local\Temp\ccGaaAqA.s 			page 40


 1617 01d7 77       		.byte	0x77
 1618 01d8 E008     		.sleb128 1120
 1619 01da 00000000 		.4byte	0x0
 1620 01de 00000000 		.4byte	0x0
 1621              	.LLST10:
 1622 01e2 00000000 		.4byte	.LFB39
 1623 01e6 02000000 		.4byte	.LCFI24
 1624 01ea 0100     		.2byte	0x1
 1625 01ec 5D       		.byte	0x5d
 1626 01ed 02000000 		.4byte	.LCFI24
 1627 01f1 04000000 		.4byte	.LCFI25
 1628 01f5 0200     		.2byte	0x2
 1629 01f7 7D       		.byte	0x7d
 1630 01f8 08       		.sleb128 8
 1631 01f9 04000000 		.4byte	.LCFI25
 1632 01fd 06000000 		.4byte	.LCFI26
 1633 0201 0300     		.2byte	0x3
 1634 0203 7D       		.byte	0x7d
 1635 0204 D002     		.sleb128 336
 1636 0206 06000000 		.4byte	.LCFI26
 1637 020a 18010000 		.4byte	.LFE39
 1638 020e 0300     		.2byte	0x3
 1639 0210 77       		.byte	0x77
 1640 0211 C802     		.sleb128 328
 1641 0213 00000000 		.4byte	0x0
 1642 0217 00000000 		.4byte	0x0
 1643              	.LLST11:
 1644 021b 00000000 		.4byte	.LFB40
 1645 021f 02000000 		.4byte	.LCFI27
 1646 0223 0100     		.2byte	0x1
 1647 0225 5D       		.byte	0x5d
 1648 0226 02000000 		.4byte	.LCFI27
 1649 022a 04000000 		.4byte	.LCFI28
 1650 022e 0200     		.2byte	0x2
 1651 0230 7D       		.byte	0x7d
 1652 0231 08       		.sleb128 8
 1653 0232 04000000 		.4byte	.LCFI28
 1654 0236 06000000 		.4byte	.LCFI29
 1655 023a 0300     		.2byte	0x3
 1656 023c 7D       		.byte	0x7d
 1657 023d C802     		.sleb128 328
 1658 023f 06000000 		.4byte	.LCFI29
 1659 0243 B6000000 		.4byte	.LFE40
 1660 0247 0300     		.2byte	0x3
 1661 0249 77       		.byte	0x77
 1662 024a C002     		.sleb128 320
 1663 024c 00000000 		.4byte	0x0
 1664 0250 00000000 		.4byte	0x0
 1665              	.LLST12:
 1666 0254 00000000 		.4byte	.LFB41
 1667 0258 02000000 		.4byte	.LCFI30
 1668 025c 0100     		.2byte	0x1
 1669 025e 5D       		.byte	0x5d
 1670 025f 02000000 		.4byte	.LCFI30
 1671 0263 04000000 		.4byte	.LCFI31
 1672 0267 0200     		.2byte	0x2
 1673 0269 7D       		.byte	0x7d
ARM GAS  C:\Users\karunmj\AppData\Local\Temp\ccGaaAqA.s 			page 41


 1674 026a 08       		.sleb128 8
 1675 026b 04000000 		.4byte	.LCFI31
 1676 026f 2C000000 		.4byte	.LFE41
 1677 0273 0200     		.2byte	0x2
 1678 0275 77       		.byte	0x77
 1679 0276 08       		.sleb128 8
 1680 0277 00000000 		.4byte	0x0
 1681 027b 00000000 		.4byte	0x0
 1682              	.LLST13:
 1683 027f 00000000 		.4byte	.LFB42
 1684 0283 02000000 		.4byte	.LCFI32
 1685 0287 0100     		.2byte	0x1
 1686 0289 5D       		.byte	0x5d
 1687 028a 02000000 		.4byte	.LCFI32
 1688 028e 04000000 		.4byte	.LCFI33
 1689 0292 0200     		.2byte	0x2
 1690 0294 7D       		.byte	0x7d
 1691 0295 08       		.sleb128 8
 1692 0296 04000000 		.4byte	.LCFI33
 1693 029a 06000000 		.4byte	.LCFI34
 1694 029e 0200     		.2byte	0x2
 1695 02a0 7D       		.byte	0x7d
 1696 02a1 10       		.sleb128 16
 1697 02a2 06000000 		.4byte	.LCFI34
 1698 02a6 5A000000 		.4byte	.LFE42
 1699 02aa 0200     		.2byte	0x2
 1700 02ac 77       		.byte	0x77
 1701 02ad 10       		.sleb128 16
 1702 02ae 00000000 		.4byte	0x0
 1703 02b2 00000000 		.4byte	0x0
 1704              		.file 2 "./Generated_Source/PSoC5/cytypes.h"
 1705              		.file 3 "./Generated_Source/PSoC5/core_cm3.h"
 1706              		.section	.debug_info
 1707 0000 AD040000 		.4byte	0x4ad
 1708 0004 0200     		.2byte	0x2
 1709 0006 00000000 		.4byte	.Ldebug_abbrev0
 1710 000a 04       		.byte	0x4
 1711 000b 01       		.uleb128 0x1
 1712 000c 00020000 		.4byte	.LASF53
 1713 0010 01       		.byte	0x1
 1714 0011 ED010000 		.4byte	.LASF54
 1715 0015 D1000000 		.4byte	.LASF55
 1716 0019 00000000 		.4byte	0x0
 1717 001d 00000000 		.4byte	0x0
 1718 0021 00000000 		.4byte	.Ldebug_ranges0+0x0
 1719 0025 00000000 		.4byte	.Ldebug_line0
 1720 0029 02       		.uleb128 0x2
 1721 002a 01       		.byte	0x1
 1722 002b 06       		.byte	0x6
 1723 002c BA020000 		.4byte	.LASF0
 1724 0030 02       		.uleb128 0x2
 1725 0031 01       		.byte	0x1
 1726 0032 08       		.byte	0x8
 1727 0033 20010000 		.4byte	.LASF1
 1728 0037 02       		.uleb128 0x2
 1729 0038 02       		.byte	0x2
 1730 0039 05       		.byte	0x5
ARM GAS  C:\Users\karunmj\AppData\Local\Temp\ccGaaAqA.s 			page 42


 1731 003a A2010000 		.4byte	.LASF2
 1732 003e 02       		.uleb128 0x2
 1733 003f 02       		.byte	0x2
 1734 0040 07       		.byte	0x7
 1735 0041 7C000000 		.4byte	.LASF3
 1736 0045 02       		.uleb128 0x2
 1737 0046 04       		.byte	0x4
 1738 0047 05       		.byte	0x5
 1739 0048 97020000 		.4byte	.LASF4
 1740 004c 02       		.uleb128 0x2
 1741 004d 04       		.byte	0x4
 1742 004e 07       		.byte	0x7
 1743 004f 40010000 		.4byte	.LASF5
 1744 0053 02       		.uleb128 0x2
 1745 0054 08       		.byte	0x8
 1746 0055 05       		.byte	0x5
 1747 0056 00000000 		.4byte	.LASF6
 1748 005a 02       		.uleb128 0x2
 1749 005b 08       		.byte	0x8
 1750 005c 07       		.byte	0x7
 1751 005d CE010000 		.4byte	.LASF7
 1752 0061 03       		.uleb128 0x3
 1753 0062 04       		.byte	0x4
 1754 0063 05       		.byte	0x5
 1755 0064 696E7400 		.ascii	"int\000"
 1756 0068 02       		.uleb128 0x2
 1757 0069 04       		.byte	0x4
 1758 006a 07       		.byte	0x7
 1759 006b C1010000 		.4byte	.LASF8
 1760 006f 04       		.uleb128 0x4
 1761 0070 A1000000 		.4byte	.LASF9
 1762 0074 02       		.byte	0x2
 1763 0075 4C       		.byte	0x4c
 1764 0076 30000000 		.4byte	0x30
 1765 007a 04       		.uleb128 0x4
 1766 007b B3010000 		.4byte	.LASF10
 1767 007f 02       		.byte	0x2
 1768 0080 4D       		.byte	0x4d
 1769 0081 3E000000 		.4byte	0x3e
 1770 0085 04       		.uleb128 0x4
 1771 0086 BA010000 		.4byte	.LASF11
 1772 008a 02       		.byte	0x2
 1773 008b 4E       		.byte	0x4e
 1774 008c 4C000000 		.4byte	0x4c
 1775 0090 02       		.uleb128 0x2
 1776 0091 04       		.byte	0x4
 1777 0092 04       		.byte	0x4
 1778 0093 C5000000 		.4byte	.LASF12
 1779 0097 02       		.uleb128 0x2
 1780 0098 08       		.byte	0x8
 1781 0099 04       		.byte	0x4
 1782 009a C6020000 		.4byte	.LASF13
 1783 009e 02       		.uleb128 0x2
 1784 009f 01       		.byte	0x1
 1785 00a0 08       		.byte	0x8
 1786 00a1 0C020000 		.4byte	.LASF14
 1787 00a5 05       		.uleb128 0x5
ARM GAS  C:\Users\karunmj\AppData\Local\Temp\ccGaaAqA.s 			page 43


 1788 00a6 04       		.byte	0x4
 1789 00a7 07       		.byte	0x7
 1790 00a8 06       		.uleb128 0x6
 1791 00a9 04       		.byte	0x4
 1792 00aa 9E000000 		.4byte	0x9e
 1793 00ae 07       		.uleb128 0x7
 1794 00af 01       		.byte	0x1
 1795 00b0 42000000 		.4byte	.LASF15
 1796 00b4 01       		.byte	0x1
 1797 00b5 20       		.byte	0x20
 1798 00b6 01       		.byte	0x1
 1799 00b7 6F000000 		.4byte	0x6f
 1800 00bb 00000000 		.4byte	.LFB29
 1801 00bf 32000000 		.4byte	.LFE29
 1802 00c3 00000000 		.4byte	.LLST0
 1803 00c7 E7000000 		.4byte	0xe7
 1804 00cb 08       		.uleb128 0x8
 1805 00cc 696400   		.ascii	"id\000"
 1806 00cf 01       		.byte	0x1
 1807 00d0 20       		.byte	0x20
 1808 00d1 85000000 		.4byte	0x85
 1809 00d5 02       		.byte	0x2
 1810 00d6 91       		.byte	0x91
 1811 00d7 74       		.sleb128 -12
 1812 00d8 08       		.uleb128 0x8
 1813 00d9 6B657900 		.ascii	"key\000"
 1814 00dd 01       		.byte	0x1
 1815 00de 20       		.byte	0x20
 1816 00df A8000000 		.4byte	0xa8
 1817 00e3 02       		.byte	0x2
 1818 00e4 91       		.byte	0x91
 1819 00e5 70       		.sleb128 -16
 1820 00e6 00       		.byte	0x0
 1821 00e7 09       		.uleb128 0x9
 1822 00e8 01       		.byte	0x1
 1823 00e9 D2020000 		.4byte	.LASF42
 1824 00ed 01       		.byte	0x1
 1825 00ee 27       		.byte	0x27
 1826 00ef 00000000 		.4byte	.LFB30
 1827 00f3 34000000 		.4byte	.LFE30
 1828 00f7 37000000 		.4byte	.LLST1
 1829 00fb 07       		.uleb128 0x7
 1830 00fc 01       		.byte	0x1
 1831 00fd 1D000000 		.4byte	.LASF16
 1832 0101 01       		.byte	0x1
 1833 0102 30       		.byte	0x30
 1834 0103 01       		.byte	0x1
 1835 0104 6F000000 		.4byte	0x6f
 1836 0108 00000000 		.4byte	.LFB31
 1837 010c 84000000 		.4byte	.LFE31
 1838 0110 62000000 		.4byte	.LLST2
 1839 0114 91010000 		.4byte	0x191
 1840 0118 0A       		.uleb128 0xa
 1841 0119 96010000 		.4byte	.LASF17
 1842 011d 01       		.byte	0x1
 1843 011e 30       		.byte	0x30
 1844 011f A8000000 		.4byte	0xa8
ARM GAS  C:\Users\karunmj\AppData\Local\Temp\ccGaaAqA.s 			page 44


 1845 0123 02       		.byte	0x2
 1846 0124 91       		.byte	0x91
 1847 0125 5C       		.sleb128 -36
 1848 0126 0A       		.uleb128 0xa
 1849 0127 2E010000 		.4byte	.LASF18
 1850 012b 01       		.byte	0x1
 1851 012c 30       		.byte	0x30
 1852 012d A8000000 		.4byte	0xa8
 1853 0131 02       		.byte	0x2
 1854 0132 91       		.byte	0x91
 1855 0133 58       		.sleb128 -40
 1856 0134 0A       		.uleb128 0xa
 1857 0135 8A020000 		.4byte	.LASF19
 1858 0139 01       		.byte	0x1
 1859 013a 30       		.byte	0x30
 1860 013b 85000000 		.4byte	0x85
 1861 013f 02       		.byte	0x2
 1862 0140 91       		.byte	0x91
 1863 0141 54       		.sleb128 -44
 1864 0142 0B       		.uleb128 0xb
 1865 0143 F7010000 		.4byte	.LASF20
 1866 0147 01       		.byte	0x1
 1867 0148 31       		.byte	0x31
 1868 0149 6F000000 		.4byte	0x6f
 1869 014d 02       		.byte	0x2
 1870 014e 91       		.byte	0x91
 1871 014f 67       		.sleb128 -25
 1872 0150 0C       		.uleb128 0xc
 1873 0151 6900     		.ascii	"i\000"
 1874 0153 01       		.byte	0x1
 1875 0154 32       		.byte	0x32
 1876 0155 85000000 		.4byte	0x85
 1877 0159 02       		.byte	0x2
 1878 015a 91       		.byte	0x91
 1879 015b 68       		.sleb128 -24
 1880 015c 0B       		.uleb128 0xb
 1881 015d CB000000 		.4byte	.LASF21
 1882 0161 01       		.byte	0x1
 1883 0162 32       		.byte	0x32
 1884 0163 85000000 		.4byte	0x85
 1885 0167 02       		.byte	0x2
 1886 0168 91       		.byte	0x91
 1887 0169 6C       		.sleb128 -20
 1888 016a 0B       		.uleb128 0xb
 1889 016b 65020000 		.4byte	.LASF22
 1890 016f 01       		.byte	0x1
 1891 0170 32       		.byte	0x32
 1892 0171 85000000 		.4byte	0x85
 1893 0175 02       		.byte	0x2
 1894 0176 91       		.byte	0x91
 1895 0177 70       		.sleb128 -16
 1896 0178 0D       		.uleb128 0xd
 1897 0179 42000000 		.4byte	.LBB2
 1898 017d 68000000 		.4byte	.LBE2
 1899 0181 0B       		.uleb128 0xb
 1900 0182 21020000 		.4byte	.LASF23
 1901 0186 01       		.byte	0x1
ARM GAS  C:\Users\karunmj\AppData\Local\Temp\ccGaaAqA.s 			page 45


 1902 0187 39       		.byte	0x39
 1903 0188 A8000000 		.4byte	0xa8
 1904 018c 02       		.byte	0x2
 1905 018d 91       		.byte	0x91
 1906 018e 74       		.sleb128 -12
 1907 018f 00       		.byte	0x0
 1908 0190 00       		.byte	0x0
 1909 0191 0E       		.uleb128 0xe
 1910 0192 01       		.byte	0x1
 1911 0193 0E000000 		.4byte	.LASF24
 1912 0197 01       		.byte	0x1
 1913 0198 45       		.byte	0x45
 1914 0199 6F000000 		.4byte	0x6f
 1915 019d 00000000 		.4byte	.LFB32
 1916 01a1 74000000 		.4byte	.LFE32
 1917 01a5 99000000 		.4byte	.LLST3
 1918 01a9 0E       		.uleb128 0xe
 1919 01aa 01       		.byte	0x1
 1920 01ab 11020000 		.4byte	.LASF25
 1921 01af 01       		.byte	0x1
 1922 01b0 5C       		.byte	0x5c
 1923 01b1 6F000000 		.4byte	0x6f
 1924 01b5 00000000 		.4byte	.LFB33
 1925 01b9 78000000 		.4byte	.LFE33
 1926 01bd C4000000 		.4byte	.LLST4
 1927 01c1 0E       		.uleb128 0xe
 1928 01c2 01       		.byte	0x1
 1929 01c3 2E000000 		.4byte	.LASF26
 1930 01c7 01       		.byte	0x1
 1931 01c8 77       		.byte	0x77
 1932 01c9 6F000000 		.4byte	0x6f
 1933 01cd 00000000 		.4byte	.LFB34
 1934 01d1 4E000000 		.4byte	.LFE34
 1935 01d5 EF000000 		.4byte	.LLST5
 1936 01d9 0E       		.uleb128 0xe
 1937 01da 01       		.byte	0x1
 1938 01db A7000000 		.4byte	.LASF27
 1939 01df 01       		.byte	0x1
 1940 01e0 85       		.byte	0x85
 1941 01e1 6F000000 		.4byte	0x6f
 1942 01e5 00000000 		.4byte	.LFB35
 1943 01e9 4C000000 		.4byte	.LFE35
 1944 01ed 1A010000 		.4byte	.LLST6
 1945 01f1 0E       		.uleb128 0xe
 1946 01f2 01       		.byte	0x1
 1947 01f3 6B010000 		.4byte	.LASF28
 1948 01f7 01       		.byte	0x1
 1949 01f8 B9       		.byte	0xb9
 1950 01f9 6F000000 		.4byte	0x6f
 1951 01fd 00000000 		.4byte	.LFB36
 1952 0201 BC000000 		.4byte	.LFE36
 1953 0205 45010000 		.4byte	.LLST7
 1954 0209 07       		.uleb128 0x7
 1955 020a 01       		.byte	0x1
 1956 020b DE020000 		.4byte	.LASF29
 1957 020f 01       		.byte	0x1
 1958 0210 D6       		.byte	0xd6
ARM GAS  C:\Users\karunmj\AppData\Local\Temp\ccGaaAqA.s 			page 46


 1959 0211 01       		.byte	0x1
 1960 0212 6F000000 		.4byte	0x6f
 1961 0216 00000000 		.4byte	.LFB37
 1962 021a C0010000 		.4byte	.LFE37
 1963 021e 70010000 		.4byte	.LLST8
 1964 0222 6C020000 		.4byte	0x26c
 1965 0226 0A       		.uleb128 0xa
 1966 0227 91010000 		.4byte	.LASF30
 1967 022b 01       		.byte	0x1
 1968 022c D6       		.byte	0xd6
 1969 022d A8000000 		.4byte	0xa8
 1970 0231 03       		.byte	0x3
 1971 0232 91       		.byte	0x91
 1972 0233 A477     		.sleb128 -1116
 1973 0235 0B       		.uleb128 0xb
 1974 0236 6E020000 		.4byte	.LASF31
 1975 023a 01       		.byte	0x1
 1976 023b E1       		.byte	0xe1
 1977 023c 6F000000 		.4byte	0x6f
 1978 0240 02       		.byte	0x2
 1979 0241 91       		.byte	0x91
 1980 0242 77       		.sleb128 -9
 1981 0243 0D       		.uleb128 0xd
 1982 0244 7C000000 		.4byte	.LBB3
 1983 0248 60010000 		.4byte	.LBE3
 1984 024c 0B       		.uleb128 0xb
 1985 024d 7C010000 		.4byte	.LASF32
 1986 0251 01       		.byte	0x1
 1987 0252 EE       		.byte	0xee
 1988 0253 6C020000 		.4byte	0x26c
 1989 0257 03       		.byte	0x3
 1990 0258 91       		.byte	0x91
 1991 0259 A877     		.sleb128 -1112
 1992 025b 0B       		.uleb128 0xb
 1993 025c B5000000 		.4byte	.LASF33
 1994 0260 01       		.byte	0x1
 1995 0261 EE       		.byte	0xee
 1996 0262 7D020000 		.4byte	0x27d
 1997 0266 03       		.byte	0x3
 1998 0267 91       		.byte	0x91
 1999 0268 907F     		.sleb128 -112
 2000 026a 00       		.byte	0x0
 2001 026b 00       		.byte	0x0
 2002 026c 0F       		.uleb128 0xf
 2003 026d 9E000000 		.4byte	0x9e
 2004 0271 7D020000 		.4byte	0x27d
 2005 0275 10       		.uleb128 0x10
 2006 0276 A5000000 		.4byte	0xa5
 2007 027a E703     		.2byte	0x3e7
 2008 027c 00       		.byte	0x0
 2009 027d 0F       		.uleb128 0xf
 2010 027e 9E000000 		.4byte	0x9e
 2011 0282 8D020000 		.4byte	0x28d
 2012 0286 11       		.uleb128 0x11
 2013 0287 A5000000 		.4byte	0xa5
 2014 028b 63       		.byte	0x63
 2015 028c 00       		.byte	0x0
ARM GAS  C:\Users\karunmj\AppData\Local\Temp\ccGaaAqA.s 			page 47


 2016 028d 12       		.uleb128 0x12
 2017 028e 01       		.byte	0x1
 2018 028f 41020000 		.4byte	.LASF34
 2019 0293 01       		.byte	0x1
 2020 0294 1C01     		.2byte	0x11c
 2021 0296 01       		.byte	0x1
 2022 0297 6F000000 		.4byte	0x6f
 2023 029b 00000000 		.4byte	.LFB38
 2024 029f F8010000 		.4byte	.LFE38
 2025 02a3 A9010000 		.4byte	.LLST9
 2026 02a7 05030000 		.4byte	0x305
 2027 02ab 13       		.uleb128 0x13
 2028 02ac AC010000 		.4byte	.LASF35
 2029 02b0 01       		.byte	0x1
 2030 02b1 1C01     		.2byte	0x11c
 2031 02b3 A8000000 		.4byte	0xa8
 2032 02b7 03       		.byte	0x3
 2033 02b8 91       		.byte	0x91
 2034 02b9 A477     		.sleb128 -1116
 2035 02bb 14       		.uleb128 0x14
 2036 02bc 63737600 		.ascii	"csv\000"
 2037 02c0 01       		.byte	0x1
 2038 02c1 1C01     		.2byte	0x11c
 2039 02c3 A8000000 		.4byte	0xa8
 2040 02c7 03       		.byte	0x3
 2041 02c8 91       		.byte	0x91
 2042 02c9 A077     		.sleb128 -1120
 2043 02cb 15       		.uleb128 0x15
 2044 02cc 6E020000 		.4byte	.LASF31
 2045 02d0 01       		.byte	0x1
 2046 02d1 2701     		.2byte	0x127
 2047 02d3 6F000000 		.4byte	0x6f
 2048 02d7 02       		.byte	0x2
 2049 02d8 91       		.byte	0x91
 2050 02d9 77       		.sleb128 -9
 2051 02da 0D       		.uleb128 0xd
 2052 02db A0000000 		.4byte	.LBB4
 2053 02df 98010000 		.4byte	.LBE4
 2054 02e3 15       		.uleb128 0x15
 2055 02e4 E5010000 		.4byte	.LASF36
 2056 02e8 01       		.byte	0x1
 2057 02e9 3501     		.2byte	0x135
 2058 02eb 6C020000 		.4byte	0x26c
 2059 02ef 03       		.byte	0x3
 2060 02f0 91       		.byte	0x91
 2061 02f1 A877     		.sleb128 -1112
 2062 02f3 15       		.uleb128 0x15
 2063 02f4 B5000000 		.4byte	.LASF33
 2064 02f8 01       		.byte	0x1
 2065 02f9 3501     		.2byte	0x135
 2066 02fb 7D020000 		.4byte	0x27d
 2067 02ff 03       		.byte	0x3
 2068 0300 91       		.byte	0x91
 2069 0301 907F     		.sleb128 -112
 2070 0303 00       		.byte	0x0
 2071 0304 00       		.byte	0x0
 2072 0305 16       		.uleb128 0x16
ARM GAS  C:\Users\karunmj\AppData\Local\Temp\ccGaaAqA.s 			page 48


 2073 0306 01       		.byte	0x1
 2074 0307 52020000 		.4byte	.LASF40
 2075 030b 01       		.byte	0x1
 2076 030c 7201     		.2byte	0x172
 2077 030e 6F000000 		.4byte	0x6f
 2078 0312 00000000 		.4byte	.LFB39
 2079 0316 18010000 		.4byte	.LFE39
 2080 031a E2010000 		.4byte	.LLST10
 2081 031e 6D030000 		.4byte	0x36d
 2082 0322 15       		.uleb128 0x15
 2083 0323 CD020000 		.4byte	.LASF37
 2084 0327 01       		.byte	0x1
 2085 0328 7A01     		.2byte	0x17a
 2086 032a 6F000000 		.4byte	0x6f
 2087 032e 02       		.byte	0x2
 2088 032f 91       		.byte	0x91
 2089 0330 6B       		.sleb128 -21
 2090 0331 17       		.uleb128 0x17
 2091 0332 6900     		.ascii	"i\000"
 2092 0334 01       		.byte	0x1
 2093 0335 7B01     		.2byte	0x17b
 2094 0337 85000000 		.4byte	0x85
 2095 033b 02       		.byte	0x2
 2096 033c 91       		.byte	0x91
 2097 033d 6C       		.sleb128 -20
 2098 033e 15       		.uleb128 0x15
 2099 033f CB000000 		.4byte	.LASF21
 2100 0343 01       		.byte	0x1
 2101 0344 7B01     		.2byte	0x17b
 2102 0346 85000000 		.4byte	0x85
 2103 034a 02       		.byte	0x2
 2104 034b 91       		.byte	0x91
 2105 034c 70       		.sleb128 -16
 2106 034d 15       		.uleb128 0x15
 2107 034e 27020000 		.4byte	.LASF38
 2108 0352 01       		.byte	0x1
 2109 0353 7B01     		.2byte	0x17b
 2110 0355 85000000 		.4byte	0x85
 2111 0359 02       		.byte	0x2
 2112 035a 91       		.byte	0x91
 2113 035b 74       		.sleb128 -12
 2114 035c 15       		.uleb128 0x15
 2115 035d 52010000 		.4byte	.LASF39
 2116 0361 01       		.byte	0x1
 2117 0362 7C01     		.2byte	0x17c
 2118 0364 6D030000 		.4byte	0x36d
 2119 0368 03       		.byte	0x3
 2120 0369 91       		.byte	0x91
 2121 036a BC7D     		.sleb128 -324
 2122 036c 00       		.byte	0x0
 2123 036d 0F       		.uleb128 0xf
 2124 036e 9E000000 		.4byte	0x9e
 2125 0372 7E030000 		.4byte	0x37e
 2126 0376 10       		.uleb128 0x10
 2127 0377 A5000000 		.4byte	0xa5
 2128 037b 2B01     		.2byte	0x12b
 2129 037d 00       		.byte	0x0
ARM GAS  C:\Users\karunmj\AppData\Local\Temp\ccGaaAqA.s 			page 49


 2130 037e 16       		.uleb128 0x16
 2131 037f 01       		.byte	0x1
 2132 0380 77020000 		.4byte	.LASF41
 2133 0384 01       		.byte	0x1
 2134 0385 9801     		.2byte	0x198
 2135 0387 6F000000 		.4byte	0x6f
 2136 038b 00000000 		.4byte	.LFB40
 2137 038f B6000000 		.4byte	.LFE40
 2138 0393 1B020000 		.4byte	.LLST11
 2139 0397 D7030000 		.4byte	0x3d7
 2140 039b 17       		.uleb128 0x17
 2141 039c 6900     		.ascii	"i\000"
 2142 039e 01       		.byte	0x1
 2143 039f 9F01     		.2byte	0x19f
 2144 03a1 85000000 		.4byte	0x85
 2145 03a5 02       		.byte	0x2
 2146 03a6 91       		.byte	0x91
 2147 03a7 6C       		.sleb128 -20
 2148 03a8 15       		.uleb128 0x15
 2149 03a9 CB000000 		.4byte	.LASF21
 2150 03ad 01       		.byte	0x1
 2151 03ae 9F01     		.2byte	0x19f
 2152 03b0 85000000 		.4byte	0x85
 2153 03b4 02       		.byte	0x2
 2154 03b5 91       		.byte	0x91
 2155 03b6 70       		.sleb128 -16
 2156 03b7 15       		.uleb128 0x15
 2157 03b8 27020000 		.4byte	.LASF38
 2158 03bc 01       		.byte	0x1
 2159 03bd 9F01     		.2byte	0x19f
 2160 03bf 85000000 		.4byte	0x85
 2161 03c3 02       		.byte	0x2
 2162 03c4 91       		.byte	0x91
 2163 03c5 74       		.sleb128 -12
 2164 03c6 15       		.uleb128 0x15
 2165 03c7 52010000 		.4byte	.LASF39
 2166 03cb 01       		.byte	0x1
 2167 03cc A001     		.2byte	0x1a0
 2168 03ce 6D030000 		.4byte	0x36d
 2169 03d2 03       		.byte	0x3
 2170 03d3 91       		.byte	0x91
 2171 03d4 C07D     		.sleb128 -320
 2172 03d6 00       		.byte	0x0
 2173 03d7 18       		.uleb128 0x18
 2174 03d8 01       		.byte	0x1
 2175 03d9 8F000000 		.4byte	.LASF43
 2176 03dd 01       		.byte	0x1
 2177 03de B801     		.2byte	0x1b8
 2178 03e0 00000000 		.4byte	.LFB41
 2179 03e4 2C000000 		.4byte	.LFE41
 2180 03e8 54020000 		.4byte	.LLST12
 2181 03ec 19       		.uleb128 0x19
 2182 03ed 01       		.byte	0x1
 2183 03ee 35020000 		.4byte	.LASF44
 2184 03f2 01       		.byte	0x1
 2185 03f3 C801     		.2byte	0x1c8
 2186 03f5 01       		.byte	0x1
ARM GAS  C:\Users\karunmj\AppData\Local\Temp\ccGaaAqA.s 			page 50


 2187 03f6 00000000 		.4byte	.LFB42
 2188 03fa 5A000000 		.4byte	.LFE42
 2189 03fe 7F020000 		.4byte	.LLST13
 2190 0402 20040000 		.4byte	0x420
 2191 0406 0D       		.uleb128 0xd
 2192 0407 08000000 		.4byte	.LBB5
 2193 040b 48000000 		.4byte	.LBE5
 2194 040f 15       		.uleb128 0x15
 2195 0410 5E010000 		.4byte	.LASF45
 2196 0414 01       		.byte	0x1
 2197 0415 CB01     		.2byte	0x1cb
 2198 0417 9E000000 		.4byte	0x9e
 2199 041b 02       		.byte	0x2
 2200 041c 91       		.byte	0x91
 2201 041d 77       		.sleb128 -9
 2202 041e 00       		.byte	0x0
 2203 041f 00       		.byte	0x0
 2204 0420 1A       		.uleb128 0x1a
 2205 0421 84010000 		.4byte	.LASF46
 2206 0425 03       		.byte	0x3
 2207 0426 CE06     		.2byte	0x6ce
 2208 0428 2E040000 		.4byte	0x42e
 2209 042c 01       		.byte	0x1
 2210 042d 01       		.byte	0x1
 2211 042e 1B       		.uleb128 0x1b
 2212 042f 61000000 		.4byte	0x61
 2213 0433 1C       		.uleb128 0x1c
 2214 0434 A0020000 		.4byte	.LASF47
 2215 0438 01       		.byte	0x1
 2216 0439 15       		.byte	0x15
 2217 043a 6F000000 		.4byte	0x6f
 2218 043e 01       		.byte	0x1
 2219 043f 05       		.byte	0x5
 2220 0440 03       		.byte	0x3
 2221 0441 00000000 		.4byte	modem_state
 2222 0445 1C       		.uleb128 0x1c
 2223 0446 AC020000 		.4byte	.LASF48
 2224 044a 01       		.byte	0x1
 2225 044b 15       		.byte	0x15
 2226 044c 6F000000 		.4byte	0x6f
 2227 0450 01       		.byte	0x1
 2228 0451 05       		.byte	0x5
 2229 0452 03       		.byte	0x3
 2230 0453 00000000 		.4byte	lock_acquired
 2231 0457 1C       		.uleb128 0x1c
 2232 0458 3A000000 		.4byte	.LASF49
 2233 045c 01       		.byte	0x1
 2234 045d 17       		.byte	0x17
 2235 045e 85000000 		.4byte	0x85
 2236 0462 01       		.byte	0x1
 2237 0463 05       		.byte	0x5
 2238 0464 03       		.byte	0x3
 2239 0465 00000000 		.4byte	feed_id
 2240 0469 1C       		.uleb128 0x1c
 2241 046a BD000000 		.4byte	.LASF50
 2242 046e 01       		.byte	0x1
 2243 046f 18       		.byte	0x18
ARM GAS  C:\Users\karunmj\AppData\Local\Temp\ccGaaAqA.s 			page 51


 2244 0470 A8000000 		.4byte	0xa8
 2245 0474 01       		.byte	0x1
 2246 0475 05       		.byte	0x5
 2247 0476 03       		.byte	0x3
 2248 0477 00000000 		.4byte	api_key
 2249 047b 1C       		.uleb128 0x1c
 2250 047c 55000000 		.4byte	.LASF51
 2251 0480 01       		.byte	0x1
 2252 0481 16       		.byte	0x16
 2253 0482 7A000000 		.4byte	0x7a
 2254 0486 01       		.byte	0x1
 2255 0487 05       		.byte	0x5
 2256 0488 03       		.byte	0x3
 2257 0489 00000000 		.4byte	uart_string_index
 2258 048d 0F       		.uleb128 0xf
 2259 048e 9E000000 		.4byte	0x9e
 2260 0492 9E040000 		.4byte	0x49e
 2261 0496 10       		.uleb128 0x10
 2262 0497 A5000000 		.4byte	0xa5
 2263 049b BB02     		.2byte	0x2bb
 2264 049d 00       		.byte	0x0
 2265 049e 1C       		.uleb128 0x1c
 2266 049f 67000000 		.4byte	.LASF52
 2267 04a3 01       		.byte	0x1
 2268 04a4 18       		.byte	0x18
 2269 04a5 8D040000 		.4byte	0x48d
 2270 04a9 01       		.byte	0x1
 2271 04aa 05       		.byte	0x5
 2272 04ab 03       		.byte	0x3
 2273 04ac 00000000 		.4byte	uart_received_string
 2274 04b0 00       		.byte	0x0
 2275              		.section	.debug_abbrev
 2276 0000 01       		.uleb128 0x1
 2277 0001 11       		.uleb128 0x11
 2278 0002 01       		.byte	0x1
 2279 0003 25       		.uleb128 0x25
 2280 0004 0E       		.uleb128 0xe
 2281 0005 13       		.uleb128 0x13
 2282 0006 0B       		.uleb128 0xb
 2283 0007 03       		.uleb128 0x3
 2284 0008 0E       		.uleb128 0xe
 2285 0009 1B       		.uleb128 0x1b
 2286 000a 0E       		.uleb128 0xe
 2287 000b 11       		.uleb128 0x11
 2288 000c 01       		.uleb128 0x1
 2289 000d 52       		.uleb128 0x52
 2290 000e 01       		.uleb128 0x1
 2291 000f 55       		.uleb128 0x55
 2292 0010 06       		.uleb128 0x6
 2293 0011 10       		.uleb128 0x10
 2294 0012 06       		.uleb128 0x6
 2295 0013 00       		.byte	0x0
 2296 0014 00       		.byte	0x0
 2297 0015 02       		.uleb128 0x2
 2298 0016 24       		.uleb128 0x24
 2299 0017 00       		.byte	0x0
 2300 0018 0B       		.uleb128 0xb
ARM GAS  C:\Users\karunmj\AppData\Local\Temp\ccGaaAqA.s 			page 52


 2301 0019 0B       		.uleb128 0xb
 2302 001a 3E       		.uleb128 0x3e
 2303 001b 0B       		.uleb128 0xb
 2304 001c 03       		.uleb128 0x3
 2305 001d 0E       		.uleb128 0xe
 2306 001e 00       		.byte	0x0
 2307 001f 00       		.byte	0x0
 2308 0020 03       		.uleb128 0x3
 2309 0021 24       		.uleb128 0x24
 2310 0022 00       		.byte	0x0
 2311 0023 0B       		.uleb128 0xb
 2312 0024 0B       		.uleb128 0xb
 2313 0025 3E       		.uleb128 0x3e
 2314 0026 0B       		.uleb128 0xb
 2315 0027 03       		.uleb128 0x3
 2316 0028 08       		.uleb128 0x8
 2317 0029 00       		.byte	0x0
 2318 002a 00       		.byte	0x0
 2319 002b 04       		.uleb128 0x4
 2320 002c 16       		.uleb128 0x16
 2321 002d 00       		.byte	0x0
 2322 002e 03       		.uleb128 0x3
 2323 002f 0E       		.uleb128 0xe
 2324 0030 3A       		.uleb128 0x3a
 2325 0031 0B       		.uleb128 0xb
 2326 0032 3B       		.uleb128 0x3b
 2327 0033 0B       		.uleb128 0xb
 2328 0034 49       		.uleb128 0x49
 2329 0035 13       		.uleb128 0x13
 2330 0036 00       		.byte	0x0
 2331 0037 00       		.byte	0x0
 2332 0038 05       		.uleb128 0x5
 2333 0039 24       		.uleb128 0x24
 2334 003a 00       		.byte	0x0
 2335 003b 0B       		.uleb128 0xb
 2336 003c 0B       		.uleb128 0xb
 2337 003d 3E       		.uleb128 0x3e
 2338 003e 0B       		.uleb128 0xb
 2339 003f 00       		.byte	0x0
 2340 0040 00       		.byte	0x0
 2341 0041 06       		.uleb128 0x6
 2342 0042 0F       		.uleb128 0xf
 2343 0043 00       		.byte	0x0
 2344 0044 0B       		.uleb128 0xb
 2345 0045 0B       		.uleb128 0xb
 2346 0046 49       		.uleb128 0x49
 2347 0047 13       		.uleb128 0x13
 2348 0048 00       		.byte	0x0
 2349 0049 00       		.byte	0x0
 2350 004a 07       		.uleb128 0x7
 2351 004b 2E       		.uleb128 0x2e
 2352 004c 01       		.byte	0x1
 2353 004d 3F       		.uleb128 0x3f
 2354 004e 0C       		.uleb128 0xc
 2355 004f 03       		.uleb128 0x3
 2356 0050 0E       		.uleb128 0xe
 2357 0051 3A       		.uleb128 0x3a
ARM GAS  C:\Users\karunmj\AppData\Local\Temp\ccGaaAqA.s 			page 53


 2358 0052 0B       		.uleb128 0xb
 2359 0053 3B       		.uleb128 0x3b
 2360 0054 0B       		.uleb128 0xb
 2361 0055 27       		.uleb128 0x27
 2362 0056 0C       		.uleb128 0xc
 2363 0057 49       		.uleb128 0x49
 2364 0058 13       		.uleb128 0x13
 2365 0059 11       		.uleb128 0x11
 2366 005a 01       		.uleb128 0x1
 2367 005b 12       		.uleb128 0x12
 2368 005c 01       		.uleb128 0x1
 2369 005d 40       		.uleb128 0x40
 2370 005e 06       		.uleb128 0x6
 2371 005f 01       		.uleb128 0x1
 2372 0060 13       		.uleb128 0x13
 2373 0061 00       		.byte	0x0
 2374 0062 00       		.byte	0x0
 2375 0063 08       		.uleb128 0x8
 2376 0064 05       		.uleb128 0x5
 2377 0065 00       		.byte	0x0
 2378 0066 03       		.uleb128 0x3
 2379 0067 08       		.uleb128 0x8
 2380 0068 3A       		.uleb128 0x3a
 2381 0069 0B       		.uleb128 0xb
 2382 006a 3B       		.uleb128 0x3b
 2383 006b 0B       		.uleb128 0xb
 2384 006c 49       		.uleb128 0x49
 2385 006d 13       		.uleb128 0x13
 2386 006e 02       		.uleb128 0x2
 2387 006f 0A       		.uleb128 0xa
 2388 0070 00       		.byte	0x0
 2389 0071 00       		.byte	0x0
 2390 0072 09       		.uleb128 0x9
 2391 0073 2E       		.uleb128 0x2e
 2392 0074 00       		.byte	0x0
 2393 0075 3F       		.uleb128 0x3f
 2394 0076 0C       		.uleb128 0xc
 2395 0077 03       		.uleb128 0x3
 2396 0078 0E       		.uleb128 0xe
 2397 0079 3A       		.uleb128 0x3a
 2398 007a 0B       		.uleb128 0xb
 2399 007b 3B       		.uleb128 0x3b
 2400 007c 0B       		.uleb128 0xb
 2401 007d 11       		.uleb128 0x11
 2402 007e 01       		.uleb128 0x1
 2403 007f 12       		.uleb128 0x12
 2404 0080 01       		.uleb128 0x1
 2405 0081 40       		.uleb128 0x40
 2406 0082 06       		.uleb128 0x6
 2407 0083 00       		.byte	0x0
 2408 0084 00       		.byte	0x0
 2409 0085 0A       		.uleb128 0xa
 2410 0086 05       		.uleb128 0x5
 2411 0087 00       		.byte	0x0
 2412 0088 03       		.uleb128 0x3
 2413 0089 0E       		.uleb128 0xe
 2414 008a 3A       		.uleb128 0x3a
ARM GAS  C:\Users\karunmj\AppData\Local\Temp\ccGaaAqA.s 			page 54


 2415 008b 0B       		.uleb128 0xb
 2416 008c 3B       		.uleb128 0x3b
 2417 008d 0B       		.uleb128 0xb
 2418 008e 49       		.uleb128 0x49
 2419 008f 13       		.uleb128 0x13
 2420 0090 02       		.uleb128 0x2
 2421 0091 0A       		.uleb128 0xa
 2422 0092 00       		.byte	0x0
 2423 0093 00       		.byte	0x0
 2424 0094 0B       		.uleb128 0xb
 2425 0095 34       		.uleb128 0x34
 2426 0096 00       		.byte	0x0
 2427 0097 03       		.uleb128 0x3
 2428 0098 0E       		.uleb128 0xe
 2429 0099 3A       		.uleb128 0x3a
 2430 009a 0B       		.uleb128 0xb
 2431 009b 3B       		.uleb128 0x3b
 2432 009c 0B       		.uleb128 0xb
 2433 009d 49       		.uleb128 0x49
 2434 009e 13       		.uleb128 0x13
 2435 009f 02       		.uleb128 0x2
 2436 00a0 0A       		.uleb128 0xa
 2437 00a1 00       		.byte	0x0
 2438 00a2 00       		.byte	0x0
 2439 00a3 0C       		.uleb128 0xc
 2440 00a4 34       		.uleb128 0x34
 2441 00a5 00       		.byte	0x0
 2442 00a6 03       		.uleb128 0x3
 2443 00a7 08       		.uleb128 0x8
 2444 00a8 3A       		.uleb128 0x3a
 2445 00a9 0B       		.uleb128 0xb
 2446 00aa 3B       		.uleb128 0x3b
 2447 00ab 0B       		.uleb128 0xb
 2448 00ac 49       		.uleb128 0x49
 2449 00ad 13       		.uleb128 0x13
 2450 00ae 02       		.uleb128 0x2
 2451 00af 0A       		.uleb128 0xa
 2452 00b0 00       		.byte	0x0
 2453 00b1 00       		.byte	0x0
 2454 00b2 0D       		.uleb128 0xd
 2455 00b3 0B       		.uleb128 0xb
 2456 00b4 01       		.byte	0x1
 2457 00b5 11       		.uleb128 0x11
 2458 00b6 01       		.uleb128 0x1
 2459 00b7 12       		.uleb128 0x12
 2460 00b8 01       		.uleb128 0x1
 2461 00b9 00       		.byte	0x0
 2462 00ba 00       		.byte	0x0
 2463 00bb 0E       		.uleb128 0xe
 2464 00bc 2E       		.uleb128 0x2e
 2465 00bd 00       		.byte	0x0
 2466 00be 3F       		.uleb128 0x3f
 2467 00bf 0C       		.uleb128 0xc
 2468 00c0 03       		.uleb128 0x3
 2469 00c1 0E       		.uleb128 0xe
 2470 00c2 3A       		.uleb128 0x3a
 2471 00c3 0B       		.uleb128 0xb
ARM GAS  C:\Users\karunmj\AppData\Local\Temp\ccGaaAqA.s 			page 55


 2472 00c4 3B       		.uleb128 0x3b
 2473 00c5 0B       		.uleb128 0xb
 2474 00c6 49       		.uleb128 0x49
 2475 00c7 13       		.uleb128 0x13
 2476 00c8 11       		.uleb128 0x11
 2477 00c9 01       		.uleb128 0x1
 2478 00ca 12       		.uleb128 0x12
 2479 00cb 01       		.uleb128 0x1
 2480 00cc 40       		.uleb128 0x40
 2481 00cd 06       		.uleb128 0x6
 2482 00ce 00       		.byte	0x0
 2483 00cf 00       		.byte	0x0
 2484 00d0 0F       		.uleb128 0xf
 2485 00d1 01       		.uleb128 0x1
 2486 00d2 01       		.byte	0x1
 2487 00d3 49       		.uleb128 0x49
 2488 00d4 13       		.uleb128 0x13
 2489 00d5 01       		.uleb128 0x1
 2490 00d6 13       		.uleb128 0x13
 2491 00d7 00       		.byte	0x0
 2492 00d8 00       		.byte	0x0
 2493 00d9 10       		.uleb128 0x10
 2494 00da 21       		.uleb128 0x21
 2495 00db 00       		.byte	0x0
 2496 00dc 49       		.uleb128 0x49
 2497 00dd 13       		.uleb128 0x13
 2498 00de 2F       		.uleb128 0x2f
 2499 00df 05       		.uleb128 0x5
 2500 00e0 00       		.byte	0x0
 2501 00e1 00       		.byte	0x0
 2502 00e2 11       		.uleb128 0x11
 2503 00e3 21       		.uleb128 0x21
 2504 00e4 00       		.byte	0x0
 2505 00e5 49       		.uleb128 0x49
 2506 00e6 13       		.uleb128 0x13
 2507 00e7 2F       		.uleb128 0x2f
 2508 00e8 0B       		.uleb128 0xb
 2509 00e9 00       		.byte	0x0
 2510 00ea 00       		.byte	0x0
 2511 00eb 12       		.uleb128 0x12
 2512 00ec 2E       		.uleb128 0x2e
 2513 00ed 01       		.byte	0x1
 2514 00ee 3F       		.uleb128 0x3f
 2515 00ef 0C       		.uleb128 0xc
 2516 00f0 03       		.uleb128 0x3
 2517 00f1 0E       		.uleb128 0xe
 2518 00f2 3A       		.uleb128 0x3a
 2519 00f3 0B       		.uleb128 0xb
 2520 00f4 3B       		.uleb128 0x3b
 2521 00f5 05       		.uleb128 0x5
 2522 00f6 27       		.uleb128 0x27
 2523 00f7 0C       		.uleb128 0xc
 2524 00f8 49       		.uleb128 0x49
 2525 00f9 13       		.uleb128 0x13
 2526 00fa 11       		.uleb128 0x11
 2527 00fb 01       		.uleb128 0x1
 2528 00fc 12       		.uleb128 0x12
ARM GAS  C:\Users\karunmj\AppData\Local\Temp\ccGaaAqA.s 			page 56


 2529 00fd 01       		.uleb128 0x1
 2530 00fe 40       		.uleb128 0x40
 2531 00ff 06       		.uleb128 0x6
 2532 0100 01       		.uleb128 0x1
 2533 0101 13       		.uleb128 0x13
 2534 0102 00       		.byte	0x0
 2535 0103 00       		.byte	0x0
 2536 0104 13       		.uleb128 0x13
 2537 0105 05       		.uleb128 0x5
 2538 0106 00       		.byte	0x0
 2539 0107 03       		.uleb128 0x3
 2540 0108 0E       		.uleb128 0xe
 2541 0109 3A       		.uleb128 0x3a
 2542 010a 0B       		.uleb128 0xb
 2543 010b 3B       		.uleb128 0x3b
 2544 010c 05       		.uleb128 0x5
 2545 010d 49       		.uleb128 0x49
 2546 010e 13       		.uleb128 0x13
 2547 010f 02       		.uleb128 0x2
 2548 0110 0A       		.uleb128 0xa
 2549 0111 00       		.byte	0x0
 2550 0112 00       		.byte	0x0
 2551 0113 14       		.uleb128 0x14
 2552 0114 05       		.uleb128 0x5
 2553 0115 00       		.byte	0x0
 2554 0116 03       		.uleb128 0x3
 2555 0117 08       		.uleb128 0x8
 2556 0118 3A       		.uleb128 0x3a
 2557 0119 0B       		.uleb128 0xb
 2558 011a 3B       		.uleb128 0x3b
 2559 011b 05       		.uleb128 0x5
 2560 011c 49       		.uleb128 0x49
 2561 011d 13       		.uleb128 0x13
 2562 011e 02       		.uleb128 0x2
 2563 011f 0A       		.uleb128 0xa
 2564 0120 00       		.byte	0x0
 2565 0121 00       		.byte	0x0
 2566 0122 15       		.uleb128 0x15
 2567 0123 34       		.uleb128 0x34
 2568 0124 00       		.byte	0x0
 2569 0125 03       		.uleb128 0x3
 2570 0126 0E       		.uleb128 0xe
 2571 0127 3A       		.uleb128 0x3a
 2572 0128 0B       		.uleb128 0xb
 2573 0129 3B       		.uleb128 0x3b
 2574 012a 05       		.uleb128 0x5
 2575 012b 49       		.uleb128 0x49
 2576 012c 13       		.uleb128 0x13
 2577 012d 02       		.uleb128 0x2
 2578 012e 0A       		.uleb128 0xa
 2579 012f 00       		.byte	0x0
 2580 0130 00       		.byte	0x0
 2581 0131 16       		.uleb128 0x16
 2582 0132 2E       		.uleb128 0x2e
 2583 0133 01       		.byte	0x1
 2584 0134 3F       		.uleb128 0x3f
 2585 0135 0C       		.uleb128 0xc
ARM GAS  C:\Users\karunmj\AppData\Local\Temp\ccGaaAqA.s 			page 57


 2586 0136 03       		.uleb128 0x3
 2587 0137 0E       		.uleb128 0xe
 2588 0138 3A       		.uleb128 0x3a
 2589 0139 0B       		.uleb128 0xb
 2590 013a 3B       		.uleb128 0x3b
 2591 013b 05       		.uleb128 0x5
 2592 013c 49       		.uleb128 0x49
 2593 013d 13       		.uleb128 0x13
 2594 013e 11       		.uleb128 0x11
 2595 013f 01       		.uleb128 0x1
 2596 0140 12       		.uleb128 0x12
 2597 0141 01       		.uleb128 0x1
 2598 0142 40       		.uleb128 0x40
 2599 0143 06       		.uleb128 0x6
 2600 0144 01       		.uleb128 0x1
 2601 0145 13       		.uleb128 0x13
 2602 0146 00       		.byte	0x0
 2603 0147 00       		.byte	0x0
 2604 0148 17       		.uleb128 0x17
 2605 0149 34       		.uleb128 0x34
 2606 014a 00       		.byte	0x0
 2607 014b 03       		.uleb128 0x3
 2608 014c 08       		.uleb128 0x8
 2609 014d 3A       		.uleb128 0x3a
 2610 014e 0B       		.uleb128 0xb
 2611 014f 3B       		.uleb128 0x3b
 2612 0150 05       		.uleb128 0x5
 2613 0151 49       		.uleb128 0x49
 2614 0152 13       		.uleb128 0x13
 2615 0153 02       		.uleb128 0x2
 2616 0154 0A       		.uleb128 0xa
 2617 0155 00       		.byte	0x0
 2618 0156 00       		.byte	0x0
 2619 0157 18       		.uleb128 0x18
 2620 0158 2E       		.uleb128 0x2e
 2621 0159 00       		.byte	0x0
 2622 015a 3F       		.uleb128 0x3f
 2623 015b 0C       		.uleb128 0xc
 2624 015c 03       		.uleb128 0x3
 2625 015d 0E       		.uleb128 0xe
 2626 015e 3A       		.uleb128 0x3a
 2627 015f 0B       		.uleb128 0xb
 2628 0160 3B       		.uleb128 0x3b
 2629 0161 05       		.uleb128 0x5
 2630 0162 11       		.uleb128 0x11
 2631 0163 01       		.uleb128 0x1
 2632 0164 12       		.uleb128 0x12
 2633 0165 01       		.uleb128 0x1
 2634 0166 40       		.uleb128 0x40
 2635 0167 06       		.uleb128 0x6
 2636 0168 00       		.byte	0x0
 2637 0169 00       		.byte	0x0
 2638 016a 19       		.uleb128 0x19
 2639 016b 2E       		.uleb128 0x2e
 2640 016c 01       		.byte	0x1
 2641 016d 3F       		.uleb128 0x3f
 2642 016e 0C       		.uleb128 0xc
ARM GAS  C:\Users\karunmj\AppData\Local\Temp\ccGaaAqA.s 			page 58


 2643 016f 03       		.uleb128 0x3
 2644 0170 0E       		.uleb128 0xe
 2645 0171 3A       		.uleb128 0x3a
 2646 0172 0B       		.uleb128 0xb
 2647 0173 3B       		.uleb128 0x3b
 2648 0174 05       		.uleb128 0x5
 2649 0175 27       		.uleb128 0x27
 2650 0176 0C       		.uleb128 0xc
 2651 0177 11       		.uleb128 0x11
 2652 0178 01       		.uleb128 0x1
 2653 0179 12       		.uleb128 0x12
 2654 017a 01       		.uleb128 0x1
 2655 017b 40       		.uleb128 0x40
 2656 017c 06       		.uleb128 0x6
 2657 017d 01       		.uleb128 0x1
 2658 017e 13       		.uleb128 0x13
 2659 017f 00       		.byte	0x0
 2660 0180 00       		.byte	0x0
 2661 0181 1A       		.uleb128 0x1a
 2662 0182 34       		.uleb128 0x34
 2663 0183 00       		.byte	0x0
 2664 0184 03       		.uleb128 0x3
 2665 0185 0E       		.uleb128 0xe
 2666 0186 3A       		.uleb128 0x3a
 2667 0187 0B       		.uleb128 0xb
 2668 0188 3B       		.uleb128 0x3b
 2669 0189 05       		.uleb128 0x5
 2670 018a 49       		.uleb128 0x49
 2671 018b 13       		.uleb128 0x13
 2672 018c 3F       		.uleb128 0x3f
 2673 018d 0C       		.uleb128 0xc
 2674 018e 3C       		.uleb128 0x3c
 2675 018f 0C       		.uleb128 0xc
 2676 0190 00       		.byte	0x0
 2677 0191 00       		.byte	0x0
 2678 0192 1B       		.uleb128 0x1b
 2679 0193 35       		.uleb128 0x35
 2680 0194 00       		.byte	0x0
 2681 0195 49       		.uleb128 0x49
 2682 0196 13       		.uleb128 0x13
 2683 0197 00       		.byte	0x0
 2684 0198 00       		.byte	0x0
 2685 0199 1C       		.uleb128 0x1c
 2686 019a 34       		.uleb128 0x34
 2687 019b 00       		.byte	0x0
 2688 019c 03       		.uleb128 0x3
 2689 019d 0E       		.uleb128 0xe
 2690 019e 3A       		.uleb128 0x3a
 2691 019f 0B       		.uleb128 0xb
 2692 01a0 3B       		.uleb128 0x3b
 2693 01a1 0B       		.uleb128 0xb
 2694 01a2 49       		.uleb128 0x49
 2695 01a3 13       		.uleb128 0x13
 2696 01a4 3F       		.uleb128 0x3f
 2697 01a5 0C       		.uleb128 0xc
 2698 01a6 02       		.uleb128 0x2
 2699 01a7 0A       		.uleb128 0xa
ARM GAS  C:\Users\karunmj\AppData\Local\Temp\ccGaaAqA.s 			page 59


 2700 01a8 00       		.byte	0x0
 2701 01a9 00       		.byte	0x0
 2702 01aa 00       		.byte	0x0
 2703              		.section	.debug_pubnames,"",%progbits
 2704 0000 90010000 		.4byte	0x190
 2705 0004 0200     		.2byte	0x2
 2706 0006 00000000 		.4byte	.Ldebug_info0
 2707 000a B1040000 		.4byte	0x4b1
 2708 000e AE000000 		.4byte	0xae
 2709 0012 6D6F6465 		.ascii	"modem_set_api_feed\000"
 2709      6D5F7365 
 2709      745F6170 
 2709      695F6665 
 2709      656400
 2710 0025 E7000000 		.4byte	0xe7
 2711 0029 6D6F6465 		.ascii	"modem_start\000"
 2711      6D5F7374 
 2711      61727400 
 2712 0035 FB000000 		.4byte	0xfb
 2713 0039 61745F77 		.ascii	"at_write_command\000"
 2713      72697465 
 2713      5F636F6D 
 2713      6D616E64 
 2713      00
 2714 004a 91010000 		.4byte	0x191
 2715 004e 6D6F6465 		.ascii	"modem_power_on\000"
 2715      6D5F706F 
 2715      7765725F 
 2715      6F6E00
 2716 005d A9010000 		.4byte	0x1a9
 2717 0061 6D6F6465 		.ascii	"modem_power_off\000"
 2717      6D5F706F 
 2717      7765725F 
 2717      6F666600 
 2718 0071 C1010000 		.4byte	0x1c1
 2719 0075 6D6F6465 		.ascii	"modem_reset\000"
 2719      6D5F7265 
 2719      73657400 
 2720 0081 D9010000 		.4byte	0x1d9
 2721 0085 6D6F6465 		.ascii	"modem_connect\000"
 2721      6D5F636F 
 2721      6E6E6563 
 2721      7400
 2722 0093 F1010000 		.4byte	0x1f1
 2723 0097 6D6F6465 		.ascii	"modem_disconnect\000"
 2723      6D5F6469 
 2723      73636F6E 
 2723      6E656374 
 2723      00
 2724 00a8 09020000 		.4byte	0x209
 2725 00ac 6D6F6465 		.ascii	"modem_send_packet\000"
 2725      6D5F7365 
 2725      6E645F70 
 2725      61636B65 
 2725      7400
 2726 00be 8D020000 		.4byte	0x28d
 2727 00c2 6D6F6465 		.ascii	"modem_get_packet\000"
ARM GAS  C:\Users\karunmj\AppData\Local\Temp\ccGaaAqA.s 			page 60


 2727      6D5F6765 
 2727      745F7061 
 2727      636B6574 
 2727      00
 2728 00d3 05030000 		.4byte	0x305
 2729 00d7 6D6F6465 		.ascii	"modem_acquire_lock\000"
 2729      6D5F6163 
 2729      71756972 
 2729      655F6C6F 
 2729      636B00
 2730 00ea 7E030000 		.4byte	0x37e
 2731 00ee 6D6F6465 		.ascii	"modem_release_lock\000"
 2731      6D5F7265 
 2731      6C656173 
 2731      655F6C6F 
 2731      636B00
 2732 0101 D7030000 		.4byte	0x3d7
 2733 0105 75617274 		.ascii	"uart_string_reset\000"
 2733      5F737472 
 2733      696E675F 
 2733      72657365 
 2733      7400
 2734 0117 EC030000 		.4byte	0x3ec
 2735 011b 6973725F 		.ascii	"isr_byte_rx\000"
 2735      62797465 
 2735      5F727800 
 2736 0127 33040000 		.4byte	0x433
 2737 012b 6D6F6465 		.ascii	"modem_state\000"
 2737      6D5F7374 
 2737      61746500 
 2738 0137 45040000 		.4byte	0x445
 2739 013b 6C6F636B 		.ascii	"lock_acquired\000"
 2739      5F616371 
 2739      75697265 
 2739      6400
 2740 0149 57040000 		.4byte	0x457
 2741 014d 66656564 		.ascii	"feed_id\000"
 2741      5F696400 
 2742 0155 69040000 		.4byte	0x469
 2743 0159 6170695F 		.ascii	"api_key\000"
 2743      6B657900 
 2744 0161 7B040000 		.4byte	0x47b
 2745 0165 75617274 		.ascii	"uart_string_index\000"
 2745      5F737472 
 2745      696E675F 
 2745      696E6465 
 2745      7800
 2746 0177 9E040000 		.4byte	0x49e
 2747 017b 75617274 		.ascii	"uart_received_string\000"
 2747      5F726563 
 2747      65697665 
 2747      645F7374 
 2747      72696E67 
 2748 0190 00000000 		.4byte	0x0
 2749              		.section	.debug_aranges,"",%progbits
 2750 0000 84000000 		.4byte	0x84
 2751 0004 0200     		.2byte	0x2
ARM GAS  C:\Users\karunmj\AppData\Local\Temp\ccGaaAqA.s 			page 61


 2752 0006 00000000 		.4byte	.Ldebug_info0
 2753 000a 04       		.byte	0x4
 2754 000b 00       		.byte	0x0
 2755 000c 0000     		.2byte	0x0
 2756 000e 0000     		.2byte	0x0
 2757 0010 00000000 		.4byte	.LFB29
 2758 0014 32000000 		.4byte	.LFE29-.LFB29
 2759 0018 00000000 		.4byte	.LFB30
 2760 001c 34000000 		.4byte	.LFE30-.LFB30
 2761 0020 00000000 		.4byte	.LFB31
 2762 0024 84000000 		.4byte	.LFE31-.LFB31
 2763 0028 00000000 		.4byte	.LFB32
 2764 002c 74000000 		.4byte	.LFE32-.LFB32
 2765 0030 00000000 		.4byte	.LFB33
 2766 0034 78000000 		.4byte	.LFE33-.LFB33
 2767 0038 00000000 		.4byte	.LFB34
 2768 003c 4E000000 		.4byte	.LFE34-.LFB34
 2769 0040 00000000 		.4byte	.LFB35
 2770 0044 4C000000 		.4byte	.LFE35-.LFB35
 2771 0048 00000000 		.4byte	.LFB36
 2772 004c BC000000 		.4byte	.LFE36-.LFB36
 2773 0050 00000000 		.4byte	.LFB37
 2774 0054 C0010000 		.4byte	.LFE37-.LFB37
 2775 0058 00000000 		.4byte	.LFB38
 2776 005c F8010000 		.4byte	.LFE38-.LFB38
 2777 0060 00000000 		.4byte	.LFB39
 2778 0064 18010000 		.4byte	.LFE39-.LFB39
 2779 0068 00000000 		.4byte	.LFB40
 2780 006c B6000000 		.4byte	.LFE40-.LFB40
 2781 0070 00000000 		.4byte	.LFB41
 2782 0074 2C000000 		.4byte	.LFE41-.LFB41
 2783 0078 00000000 		.4byte	.LFB42
 2784 007c 5A000000 		.4byte	.LFE42-.LFB42
 2785 0080 00000000 		.4byte	0x0
 2786 0084 00000000 		.4byte	0x0
 2787              		.section	.debug_ranges,"",%progbits
 2788              	.Ldebug_ranges0:
 2789 0000 00000000 		.4byte	.Ltext0
 2790 0004 00000000 		.4byte	.Letext0
 2791 0008 00000000 		.4byte	.LFB29
 2792 000c 32000000 		.4byte	.LFE29
 2793 0010 00000000 		.4byte	.LFB30
 2794 0014 34000000 		.4byte	.LFE30
 2795 0018 00000000 		.4byte	.LFB31
 2796 001c 84000000 		.4byte	.LFE31
 2797 0020 00000000 		.4byte	.LFB32
 2798 0024 74000000 		.4byte	.LFE32
 2799 0028 00000000 		.4byte	.LFB33
 2800 002c 78000000 		.4byte	.LFE33
 2801 0030 00000000 		.4byte	.LFB34
 2802 0034 4E000000 		.4byte	.LFE34
 2803 0038 00000000 		.4byte	.LFB35
 2804 003c 4C000000 		.4byte	.LFE35
 2805 0040 00000000 		.4byte	.LFB36
 2806 0044 BC000000 		.4byte	.LFE36
 2807 0048 00000000 		.4byte	.LFB37
 2808 004c C0010000 		.4byte	.LFE37
ARM GAS  C:\Users\karunmj\AppData\Local\Temp\ccGaaAqA.s 			page 62


 2809 0050 00000000 		.4byte	.LFB38
 2810 0054 F8010000 		.4byte	.LFE38
 2811 0058 00000000 		.4byte	.LFB39
 2812 005c 18010000 		.4byte	.LFE39
 2813 0060 00000000 		.4byte	.LFB40
 2814 0064 B6000000 		.4byte	.LFE40
 2815 0068 00000000 		.4byte	.LFB41
 2816 006c 2C000000 		.4byte	.LFE41
 2817 0070 00000000 		.4byte	.LFB42
 2818 0074 5A000000 		.4byte	.LFE42
 2819 0078 00000000 		.4byte	0x0
 2820 007c 00000000 		.4byte	0x0
 2821              		.section	.debug_str,"MS",%progbits,1
 2822              	.LASF6:
 2823 0000 6C6F6E67 		.ascii	"long long int\000"
 2823      206C6F6E 
 2823      6720696E 
 2823      7400
 2824              	.LASF24:
 2825 000e 6D6F6465 		.ascii	"modem_power_on\000"
 2825      6D5F706F 
 2825      7765725F 
 2825      6F6E00
 2826              	.LASF16:
 2827 001d 61745F77 		.ascii	"at_write_command\000"
 2827      72697465 
 2827      5F636F6D 
 2827      6D616E64 
 2827      00
 2828              	.LASF26:
 2829 002e 6D6F6465 		.ascii	"modem_reset\000"
 2829      6D5F7265 
 2829      73657400 
 2830              	.LASF49:
 2831 003a 66656564 		.ascii	"feed_id\000"
 2831      5F696400 
 2832              	.LASF15:
 2833 0042 6D6F6465 		.ascii	"modem_set_api_feed\000"
 2833      6D5F7365 
 2833      745F6170 
 2833      695F6665 
 2833      656400
 2834              	.LASF51:
 2835 0055 75617274 		.ascii	"uart_string_index\000"
 2835      5F737472 
 2835      696E675F 
 2835      696E6465 
 2835      7800
 2836              	.LASF52:
 2837 0067 75617274 		.ascii	"uart_received_string\000"
 2837      5F726563 
 2837      65697665 
 2837      645F7374 
 2837      72696E67 
 2838              	.LASF3:
 2839 007c 73686F72 		.ascii	"short unsigned int\000"
 2839      7420756E 
ARM GAS  C:\Users\karunmj\AppData\Local\Temp\ccGaaAqA.s 			page 63


 2839      7369676E 
 2839      65642069 
 2839      6E7400
 2840              	.LASF43:
 2841 008f 75617274 		.ascii	"uart_string_reset\000"
 2841      5F737472 
 2841      696E675F 
 2841      72657365 
 2841      7400
 2842              	.LASF9:
 2843 00a1 75696E74 		.ascii	"uint8\000"
 2843      3800
 2844              	.LASF27:
 2845 00a7 6D6F6465 		.ascii	"modem_connect\000"
 2845      6D5F636F 
 2845      6E6E6563 
 2845      7400
 2846              	.LASF33:
 2847 00b5 6B65795F 		.ascii	"key_str\000"
 2847      73747200 
 2848              	.LASF50:
 2849 00bd 6170695F 		.ascii	"api_key\000"
 2849      6B657900 
 2850              	.LASF12:
 2851 00c5 666C6F61 		.ascii	"float\000"
 2851      7400
 2852              	.LASF21:
 2853 00cb 64656C61 		.ascii	"delay\000"
 2853      7900
 2854              	.LASF55:
 2855 00d1 433A5C55 		.ascii	"C:\\Users\\karunmj\\Documents\\GitHub\\m2m\\hardwar"
 2855      73657273 
 2855      5C6B6172 
 2855      756E6D6A 
 2855      5C446F63 
 2856 00fe 655C7073 		.ascii	"e\\psoc5\\PSoC_Datalogger_SMS.cydsn\000"
 2856      6F63355C 
 2856      50536F43 
 2856      5F446174 
 2856      616C6F67 
 2857              	.LASF1:
 2858 0120 756E7369 		.ascii	"unsigned char\000"
 2858      676E6564 
 2858      20636861 
 2858      7200
 2859              	.LASF18:
 2860 012e 65787065 		.ascii	"expected_response\000"
 2860      63746564 
 2860      5F726573 
 2860      706F6E73 
 2860      6500
 2861              	.LASF5:
 2862 0140 6C6F6E67 		.ascii	"long unsigned int\000"
 2862      20756E73 
 2862      69676E65 
 2862      6420696E 
 2862      7400
ARM GAS  C:\Users\karunmj\AppData\Local\Temp\ccGaaAqA.s 			page 64


 2863              	.LASF39:
 2864 0152 64617461 		.ascii	"data_packet\000"
 2864      5F706163 
 2864      6B657400 
 2865              	.LASF45:
 2866 015e 72785F63 		.ascii	"rx_char_hold\000"
 2866      6861725F 
 2866      686F6C64 
 2866      00
 2867              	.LASF28:
 2868 016b 6D6F6465 		.ascii	"modem_disconnect\000"
 2868      6D5F6469 
 2868      73636F6E 
 2868      6E656374 
 2868      00
 2869              	.LASF32:
 2870 017c 7075745F 		.ascii	"put_str\000"
 2870      73747200 
 2871              	.LASF46:
 2872 0184 49544D5F 		.ascii	"ITM_RxBuffer\000"
 2872      52784275 
 2872      66666572 
 2872      00
 2873              	.LASF30:
 2874 0191 626F6479 		.ascii	"body\000"
 2874      00
 2875              	.LASF17:
 2876 0196 75617274 		.ascii	"uart_string\000"
 2876      5F737472 
 2876      696E6700 
 2877              	.LASF2:
 2878 01a2 73686F72 		.ascii	"short int\000"
 2878      7420696E 
 2878      7400
 2879              	.LASF35:
 2880 01ac 7061636B 		.ascii	"packet\000"
 2880      657400
 2881              	.LASF10:
 2882 01b3 75696E74 		.ascii	"uint16\000"
 2882      313600
 2883              	.LASF11:
 2884 01ba 75696E74 		.ascii	"uint32\000"
 2884      333200
 2885              	.LASF8:
 2886 01c1 756E7369 		.ascii	"unsigned int\000"
 2886      676E6564 
 2886      20696E74 
 2886      00
 2887              	.LASF7:
 2888 01ce 6C6F6E67 		.ascii	"long long unsigned int\000"
 2888      206C6F6E 
 2888      6720756E 
 2888      7369676E 
 2888      65642069 
 2889              	.LASF36:
 2890 01e5 6765745F 		.ascii	"get_str\000"
 2890      73747200 
ARM GAS  C:\Users\karunmj\AppData\Local\Temp\ccGaaAqA.s 			page 65


 2891              	.LASF54:
 2892 01ed 2E5C6D6F 		.ascii	".\\modem.c\000"
 2892      64656D2E 
 2892      6300
 2893              	.LASF20:
 2894 01f7 72657370 		.ascii	"response\000"
 2894      6F6E7365 
 2894      00
 2895              	.LASF53:
 2896 0200 474E5520 		.ascii	"GNU C 4.4.1\000"
 2896      4320342E 
 2896      342E3100 
 2897              	.LASF14:
 2898 020c 63686172 		.ascii	"char\000"
 2898      00
 2899              	.LASF25:
 2900 0211 6D6F6465 		.ascii	"modem_power_off\000"
 2900      6D5F706F 
 2900      7765725F 
 2900      6F666600 
 2901              	.LASF23:
 2902 0221 76616C69 		.ascii	"valid\000"
 2902      6400
 2903              	.LASF38:
 2904 0227 6C6F636B 		.ascii	"lock_attempts\000"
 2904      5F617474 
 2904      656D7074 
 2904      7300
 2905              	.LASF44:
 2906 0235 6973725F 		.ascii	"isr_byte_rx\000"
 2906      62797465 
 2906      5F727800 
 2907              	.LASF34:
 2908 0241 6D6F6465 		.ascii	"modem_get_packet\000"
 2908      6D5F6765 
 2908      745F7061 
 2908      636B6574 
 2908      00
 2909              	.LASF40:
 2910 0252 6D6F6465 		.ascii	"modem_acquire_lock\000"
 2910      6D5F6163 
 2910      71756972 
 2910      655F6C6F 
 2910      636B00
 2911              	.LASF22:
 2912 0265 696E7465 		.ascii	"interval\000"
 2912      7276616C 
 2912      00
 2913              	.LASF31:
 2914 026e 61747465 		.ascii	"attempts\000"
 2914      6D707473 
 2914      00
 2915              	.LASF41:
 2916 0277 6D6F6465 		.ascii	"modem_release_lock\000"
 2916      6D5F7265 
 2916      6C656173 
 2916      655F6C6F 
ARM GAS  C:\Users\karunmj\AppData\Local\Temp\ccGaaAqA.s 			page 66


 2916      636B00
 2917              	.LASF19:
 2918 028a 75617274 		.ascii	"uart_timeout\000"
 2918      5F74696D 
 2918      656F7574 
 2918      00
 2919              	.LASF4:
 2920 0297 6C6F6E67 		.ascii	"long int\000"
 2920      20696E74 
 2920      00
 2921              	.LASF47:
 2922 02a0 6D6F6465 		.ascii	"modem_state\000"
 2922      6D5F7374 
 2922      61746500 
 2923              	.LASF48:
 2924 02ac 6C6F636B 		.ascii	"lock_acquired\000"
 2924      5F616371 
 2924      75697265 
 2924      6400
 2925              	.LASF0:
 2926 02ba 7369676E 		.ascii	"signed char\000"
 2926      65642063 
 2926      68617200 
 2927              	.LASF13:
 2928 02c6 646F7562 		.ascii	"double\000"
 2928      6C6500
 2929              	.LASF37:
 2930 02cd 6C6F636B 		.ascii	"lock\000"
 2930      00
 2931              	.LASF42:
 2932 02d2 6D6F6465 		.ascii	"modem_start\000"
 2932      6D5F7374 
 2932      61727400 
 2933              	.LASF29:
 2934 02de 6D6F6465 		.ascii	"modem_send_packet\000"
 2934      6D5F7365 
 2934      6E645F70 
 2934      61636B65 
 2934      7400
 2935              		.ident	"GCC: (Sourcery G++ Lite 2010q1-188) 4.4.1"
