ARM GAS  C:\Users\karunmj\AppData\Local\Temp\ccGaaAqA.s 			page 1


   1              		.syntax unified
   2              		.cpu cortex-m3
   3              		.fpu softvfp
   4              		.eabi_attribute 20, 1
   5              		.eabi_attribute 21, 1
   6              		.eabi_attribute 23, 3
   7              		.eabi_attribute 24, 1
   8              		.eabi_attribute 25, 1
   9              		.eabi_attribute 26, 1
  10              		.eabi_attribute 30, 6
  11              		.eabi_attribute 18, 4
  12              		.thumb
  13              		.file	"modem.c"
  20 0000 08020000 		.text
  20      02005400 
  20      00000201 
  20      FB0E0D00 
  20      01010101 
  21              	.Ltext0:
  22              		.cfi_sections	.debug_frame
  23              		.comm	modem_state,1,1
  24              		.global	lock_acquired
  25              		.bss
  26              		.type	lock_acquired, %object
  27              		.size	lock_acquired, 1
  28              	lock_acquired:
  29 0000 00       		.space	1
  30              		.global	uart_string_index
  31 0001 00       		.align	1
  32              		.type	uart_string_index, %object
  33              		.size	uart_string_index, 2
  34              	uart_string_index:
  35 0002 0000     		.space	2
  36              		.comm	feed_id,4,4
  37              		.global	uart_received_string
  38              		.align	2
  39              		.type	uart_received_string, %object
  40              		.size	uart_received_string, 700
  41              	uart_received_string:
  42 0004 00000000 		.space	700
  42      00000000 
  42      00000000 
  42      00000000 
  42      00000000 
  43              		.comm	api_key,4,4
  44              		.section	.text.modem_set_api_feed,"ax",%progbits
  45              		.align	2
  46              		.global	modem_set_api_feed
  47              		.thumb
  48              		.thumb_func
  49              		.type	modem_set_api_feed, %function
ARM GAS  C:\Users\karunmj\AppData\Local\Temp\ccGaaAqA.s 			page 2


  50              	modem_set_api_feed:
  51              	.LFB29:
  52              		.file 1 ".\\modem.c"
   1:.\modem.c     **** ///* ========================================
   2:.\modem.c     **** // *
   3:.\modem.c     **** // * Copyright YOUR COMPANY, THE YEAR
   4:.\modem.c     **** // * All Rights Reserved
   5:.\modem.c     **** // * UNPUBLISHED, LICENSED SOFTWARE.
   6:.\modem.c     **** // *
   7:.\modem.c     **** // * CONFIDENTIAL AND PROPRIETARY INFORMATION
   8:.\modem.c     **** // * WHICH IS THE PROPERTY OF your company.
   9:.\modem.c     **** // *
  10:.\modem.c     **** // * ========================================
  11:.\modem.c     **** //*/
  12:.\modem.c     **** //
  13:.\modem.c     **** 
  14:.\modem.c     **** #include <device.h>
  15:.\modem.c     **** #include <string.h>
  16:.\modem.c     **** #include "modem.h"
  17:.\modem.c     **** #include "packet.h"
  18:.\modem.c     **** #include "debug.h"
  19:.\modem.c     **** 
  20:.\modem.c     **** // declare varaiables
  21:.\modem.c     **** uint8 modem_state, lock_acquired = 0u;
  22:.\modem.c     **** uint16 uart_string_index = 0u;
  23:.\modem.c     **** uint32 feed_id;
  24:.\modem.c     **** char uart_received_string[700] = {0}, *api_key;
  25:.\modem.c     **** 
  26:.\modem.c     **** 
  27:.\modem.c     **** 
  28:.\modem.c     **** // prototype modem interrupt
  29:.\modem.c     **** CY_ISR_PROTO(isr_byte_rx);
  30:.\modem.c     **** void uart_string_reset();
  31:.\modem.c     **** 
  32:.\modem.c     **** uint8 modem_set_api_feed(uint32 id, char* key){
  53              		.loc 1 32 0
  54              		.cfi_startproc
  55              		@ args = 0, pretend = 0, frame = 8
  56              		@ frame_needed = 1, uses_anonymous_args = 0
  57              		@ link register save eliminated.
  58 0000 80B4     		push	{r7}
  59              	.LCFI0:
  60              		.cfi_def_cfa_offset 4
  61 0002 83B0     		sub	sp, sp, #12
  62              	.LCFI1:
  63              		.cfi_def_cfa_offset 16
  64 0004 00AF     		add	r7, sp, #0
  65              		.cfi_offset 7, -4
  66              	.LCFI2:
  67              		.cfi_def_cfa_register 7
  68 0006 7860     		str	r0, [r7, #4]
  69 0008 3960     		str	r1, [r7, #0]
  33:.\modem.c     ****     feed_id = id;
  70              		.loc 1 33 0
  71 000a 40F20003 		movw	r3, #:lower16:feed_id
  72 000e C0F20003 		movt	r3, #:upper16:feed_id
  73 0012 7A68     		ldr	r2, [r7, #4]
ARM GAS  C:\Users\karunmj\AppData\Local\Temp\ccGaaAqA.s 			page 3


  74 0014 1A60     		str	r2, [r3, #0]
  34:.\modem.c     ****     api_key = key;
  75              		.loc 1 34 0
  76 0016 40F20003 		movw	r3, #:lower16:api_key
  77 001a C0F20003 		movt	r3, #:upper16:api_key
  78 001e 3A68     		ldr	r2, [r7, #0]
  79 0020 1A60     		str	r2, [r3, #0]
  35:.\modem.c     ****     return 1u;
  80              		.loc 1 35 0
  81 0022 4FF00103 		mov	r3, #1
  36:.\modem.c     **** }
  82              		.loc 1 36 0
  83 0026 1846     		mov	r0, r3
  84 0028 07F10C07 		add	r7, r7, #12
  85 002c BD46     		mov	sp, r7
  86 002e 80BC     		pop	{r7}
  87 0030 7047     		bx	lr
  88              		.cfi_endproc
  89              	.LFE29:
  90              		.size	modem_set_api_feed, .-modem_set_api_feed
  91 0032 00BF     		.section	.text.modem_start,"ax",%progbits
  92              		.align	2
  93              		.global	modem_start
  94              		.thumb
  95              		.thumb_func
  96              		.type	modem_start, %function
  97              	modem_start:
  98              	.LFB30:
  37:.\modem.c     **** 
  38:.\modem.c     **** // initialize modem
  39:.\modem.c     **** void modem_start(){
  99              		.loc 1 39 0
 100              		.cfi_startproc
 101              		@ args = 0, pretend = 0, frame = 0
 102              		@ frame_needed = 1, uses_anonymous_args = 0
 103 0000 80B5     		push	{r7, lr}
 104              	.LCFI3:
 105              		.cfi_def_cfa_offset 8
 106 0002 00AF     		add	r7, sp, #0
 107              		.cfi_offset 14, -4
 108              		.cfi_offset 7, -8
 109              	.LCFI4:
 110              		.cfi_def_cfa_register 7
  40:.\modem.c     ****     uart_Start();
 111              		.loc 1 40 0
 112 0004 FFF7FEFF 		bl	uart_Start
  41:.\modem.c     ****     ControlReg_Modem_Write(0u);
 113              		.loc 1 41 0
 114 0008 4FF00000 		mov	r0, #0
 115 000c FFF7FEFF 		bl	ControlReg_Modem_Write
  42:.\modem.c     ****     modem_power_pin_Write(0u);
 116              		.loc 1 42 0
 117 0010 4FF00000 		mov	r0, #0
 118 0014 FFF7FEFF 		bl	modem_power_pin_Write
  43:.\modem.c     ****     isr_byte_rx_StartEx(isr_byte_rx);
 119              		.loc 1 43 0
 120 0018 40F20000 		movw	r0, #:lower16:isr_byte_rx
ARM GAS  C:\Users\karunmj\AppData\Local\Temp\ccGaaAqA.s 			page 4


 121 001c C0F20000 		movt	r0, #:upper16:isr_byte_rx
 122 0020 FFF7FEFF 		bl	isr_byte_rx_StartEx
  44:.\modem.c     ****     modem_state = MODEM_STATE_OFF;
 123              		.loc 1 44 0
 124 0024 40F20003 		movw	r3, #:lower16:modem_state
 125 0028 C0F20003 		movt	r3, #:upper16:modem_state
 126 002c 4FF00002 		mov	r2, #0
 127 0030 1A70     		strb	r2, [r3, #0]
  45:.\modem.c     **** }
 128              		.loc 1 45 0
 129 0032 80BD     		pop	{r7, pc}
 130              		.cfi_endproc
 131              	.LFE30:
 132              		.size	modem_start, .-modem_start
 133              		.section	.text.at_write_command,"ax",%progbits
 134              		.align	2
 135              		.global	at_write_command
 136              		.thumb
 137              		.thumb_func
 138              		.type	at_write_command, %function
 139              	at_write_command:
 140              	.LFB31:
  46:.\modem.c     **** 
  47:.\modem.c     **** // send at-command to modem
  48:.\modem.c     **** uint8 at_write_command(char* uart_string, char* expected_response, uint32 uart_timeout){
 141              		.loc 1 48 0
 142              		.cfi_startproc
 143              		@ args = 0, pretend = 0, frame = 40
 144              		@ frame_needed = 1, uses_anonymous_args = 0
 145 0000 80B5     		push	{r7, lr}
 146              	.LCFI5:
 147              		.cfi_def_cfa_offset 8
 148 0002 8AB0     		sub	sp, sp, #40
 149              	.LCFI6:
 150              		.cfi_def_cfa_offset 48
 151 0004 00AF     		add	r7, sp, #0
 152              		.cfi_offset 14, -4
 153              		.cfi_offset 7, -8
 154              	.LCFI7:
 155              		.cfi_def_cfa_register 7
 156 0006 F860     		str	r0, [r7, #12]
 157 0008 B960     		str	r1, [r7, #8]
 158 000a 7A60     		str	r2, [r7, #4]
  49:.\modem.c     ****     uint8 response = 0u;
 159              		.loc 1 49 0
 160 000c 4FF00003 		mov	r3, #0
 161 0010 FB75     		strb	r3, [r7, #23]
  50:.\modem.c     ****     uint32 i = 0u, delay = 100u, interval = uart_timeout/delay;
 162              		.loc 1 50 0
 163 0012 4FF00003 		mov	r3, #0
 164 0016 BB61     		str	r3, [r7, #24]
 165 0018 4FF06403 		mov	r3, #100
 166 001c FB61     		str	r3, [r7, #28]
 167 001e 7A68     		ldr	r2, [r7, #4]
 168 0020 FB69     		ldr	r3, [r7, #28]
 169 0022 B2FBF3F3 		udiv	r3, r2, r3
 170 0026 3B62     		str	r3, [r7, #32]
ARM GAS  C:\Users\karunmj\AppData\Local\Temp\ccGaaAqA.s 			page 5


  51:.\modem.c     ****     
  52:.\modem.c     ****     uart_string_reset();
 171              		.loc 1 52 0
 172 0028 FFF7FEFF 		bl	uart_string_reset
  53:.\modem.c     ****     uart_PutString(uart_string);
 173              		.loc 1 53 0
 174 002c F868     		ldr	r0, [r7, #12]
 175 002e FFF7FEFF 		bl	uart_PutString
  54:.\modem.c     ****     
  55:.\modem.c     ****     if( strcmp(expected_response, "") != 0){
 176              		.loc 1 55 0
 177 0032 BB68     		ldr	r3, [r7, #8]
 178 0034 1B78     		ldrb	r3, [r3, #0]	@ zero_extendqisi2
 179 0036 002B     		cmp	r3, #0
 180 0038 1ED0     		beq	.L6
  56:.\modem.c     ****         for(i=0;i<interval;i++){
 181              		.loc 1 56 0
 182 003a 4FF00003 		mov	r3, #0
 183 003e BB61     		str	r3, [r7, #24]
 184 0040 16E0     		b	.L7
 185              	.L9:
 186              	.LBB2:
  57:.\modem.c     ****             char* valid = strstr(uart_received_string, expected_response);
 187              		.loc 1 57 0
 188 0042 40F20000 		movw	r0, #:lower16:uart_received_string
 189 0046 C0F20000 		movt	r0, #:upper16:uart_received_string
 190 004a B968     		ldr	r1, [r7, #8]
 191 004c FFF7FEFF 		bl	strstr
 192 0050 0346     		mov	r3, r0
 193 0052 7B62     		str	r3, [r7, #36]
  58:.\modem.c     ****             if(valid != NULL){
 194              		.loc 1 58 0
 195 0054 7B6A     		ldr	r3, [r7, #36]
 196 0056 002B     		cmp	r3, #0
 197 0058 03D0     		beq	.L8
  59:.\modem.c     ****                 response = 1u;
 198              		.loc 1 59 0
 199 005a 4FF00103 		mov	r3, #1
 200 005e FB75     		strb	r3, [r7, #23]
  60:.\modem.c     ****                 break;
 201              		.loc 1 60 0
 202 0060 0AE0     		b	.L6
 203              	.L8:
  61:.\modem.c     ****             }
  62:.\modem.c     ****             CyDelay(delay);
 204              		.loc 1 62 0
 205 0062 F869     		ldr	r0, [r7, #28]
 206 0064 FFF7FEFF 		bl	CyDelay
 207              	.LBE2:
 208              		.loc 1 56 0
 209 0068 BB69     		ldr	r3, [r7, #24]
 210 006a 03F10103 		add	r3, r3, #1
 211 006e BB61     		str	r3, [r7, #24]
 212              	.L7:
 213 0070 BA69     		ldr	r2, [r7, #24]
 214 0072 3B6A     		ldr	r3, [r7, #32]
 215 0074 9A42     		cmp	r2, r3
ARM GAS  C:\Users\karunmj\AppData\Local\Temp\ccGaaAqA.s 			page 6


 216 0076 E4D3     		bcc	.L9
 217              	.L6:
  63:.\modem.c     ****         }
  64:.\modem.c     ****     }
  65:.\modem.c     ****     
  66:.\modem.c     ****     return response;
 218              		.loc 1 66 0
 219 0078 FB7D     		ldrb	r3, [r7, #23]	@ zero_extendqisi2
  67:.\modem.c     **** }
 220              		.loc 1 67 0
 221 007a 1846     		mov	r0, r3
 222 007c 07F12807 		add	r7, r7, #40
 223 0080 BD46     		mov	sp, r7
 224 0082 80BD     		pop	{r7, pc}
 225              		.cfi_endproc
 226              	.LFE31:
 227              		.size	at_write_command, .-at_write_command
 228              		.section	.text.modem_power_on,"ax",%progbits
 229              		.align	2
 230              		.global	modem_power_on
 231              		.thumb
 232              		.thumb_func
 233              		.type	modem_power_on, %function
 234              	modem_power_on:
 235              	.LFB32:
  68:.\modem.c     **** 
  69:.\modem.c     **** uint8 modem_power_on(){
 236              		.loc 1 69 0
 237              		.cfi_startproc
 238              		@ args = 0, pretend = 0, frame = 0
 239              		@ frame_needed = 1, uses_anonymous_args = 0
 240 0000 80B5     		push	{r7, lr}
 241              	.LCFI8:
 242              		.cfi_def_cfa_offset 8
 243 0002 00AF     		add	r7, sp, #0
 244              		.cfi_offset 14, -4
 245              		.cfi_offset 7, -8
 246              	.LCFI9:
 247              		.cfi_def_cfa_register 7
  70:.\modem.c     **** 
  71:.\modem.c     ****     if (modem_state != MODEM_STATE_OFF) {
 248              		.loc 1 71 0
 249 0004 40F20003 		movw	r3, #:lower16:modem_state
 250 0008 C0F20003 		movt	r3, #:upper16:modem_state
 251 000c 1B78     		ldrb	r3, [r3, #0]	@ zero_extendqisi2
 252 000e 002B     		cmp	r3, #0
 253 0010 02D0     		beq	.L12
  72:.\modem.c     ****         // Modem is already on
  73:.\modem.c     ****         return 1u;
 254              		.loc 1 73 0
 255 0012 4FF00103 		mov	r3, #1
 256 0016 2BE0     		b	.L13
 257              	.L12:
  74:.\modem.c     ****     }
  75:.\modem.c     **** 
  76:.\modem.c     ****     modem_power_pin_Write(1u);
 258              		.loc 1 76 0
ARM GAS  C:\Users\karunmj\AppData\Local\Temp\ccGaaAqA.s 			page 7


 259 0018 4FF00100 		mov	r0, #1
 260 001c FFF7FEFF 		bl	modem_power_pin_Write
  77:.\modem.c     ****     modem_reset_pin_Write(1u);
 261              		.loc 1 77 0
 262 0020 4FF00100 		mov	r0, #1
 263 0024 FFF7FEFF 		bl	modem_reset_pin_Write
  78:.\modem.c     ****     modem_voltage_pin_Write(0u); //provide power to modem
 264              		.loc 1 78 0
 265 0028 4FF00000 		mov	r0, #0
 266 002c FFF7FEFF 		bl	modem_voltage_pin_Write
  79:.\modem.c     ****     ControlReg_Modem_Write(1u);
 267              		.loc 1 79 0
 268 0030 4FF00100 		mov	r0, #1
 269 0034 FFF7FEFF 		bl	ControlReg_Modem_Write
  80:.\modem.c     ****     modem_power_pin_Write(0u);
 270              		.loc 1 80 0
 271 0038 4FF00000 		mov	r0, #0
 272 003c FFF7FEFF 		bl	modem_power_pin_Write
  81:.\modem.c     ****     CyDelay(2000u);  // the pad ON# must be tied low for at least 1 second and then released.
 273              		.loc 1 81 0
 274 0040 4FF4FA60 		mov	r0, #2000
 275 0044 FFF7FEFF 		bl	CyDelay
  82:.\modem.c     ****     modem_power_pin_Write(1u);
 276              		.loc 1 82 0
 277 0048 4FF00100 		mov	r0, #1
 278 004c FFF7FEFF 		bl	modem_power_pin_Write
  83:.\modem.c     ****     CyDelay(10000u);  
 279              		.loc 1 83 0
 280 0050 42F21070 		movw	r0, #10000
 281 0054 FFF7FEFF 		bl	CyDelay
  84:.\modem.c     ****     /* changed from CyDelay(5000u);?
  85:.\modem.c     ****         "To get the desirable stability, 
  86:.\modem.c     ****         CC864-DUAL needs at least 10 seconds 
  87:.\modem.c     ****         after the PWRMON goes HIGH.*/
  88:.\modem.c     ****     modem_state = MODEM_STATE_IDLE;
 282              		.loc 1 88 0
 283 0058 40F20003 		movw	r3, #:lower16:modem_state
 284 005c C0F20003 		movt	r3, #:upper16:modem_state
 285 0060 4FF00102 		mov	r2, #1
 286 0064 1A70     		strb	r2, [r3, #0]
  89:.\modem.c     ****     return modem_state;
 287              		.loc 1 89 0
 288 0066 40F20003 		movw	r3, #:lower16:modem_state
 289 006a C0F20003 		movt	r3, #:upper16:modem_state
 290 006e 1B78     		ldrb	r3, [r3, #0]	@ zero_extendqisi2
 291              	.L13:
  90:.\modem.c     **** }
 292              		.loc 1 90 0
 293 0070 1846     		mov	r0, r3
 294 0072 80BD     		pop	{r7, pc}
 295              		.cfi_endproc
 296              	.LFE32:
 297              		.size	modem_power_on, .-modem_power_on
 298              		.section	.text.modem_power_off,"ax",%progbits
 299              		.align	2
 300              		.global	modem_power_off
 301              		.thumb
ARM GAS  C:\Users\karunmj\AppData\Local\Temp\ccGaaAqA.s 			page 8


 302              		.thumb_func
 303              		.type	modem_power_off, %function
 304              	modem_power_off:
 305              	.LFB33:
  91:.\modem.c     **** 
  92:.\modem.c     **** uint8 modem_power_off(){
 306              		.loc 1 92 0
 307              		.cfi_startproc
 308              		@ args = 0, pretend = 0, frame = 0
 309              		@ frame_needed = 1, uses_anonymous_args = 0
 310 0000 80B5     		push	{r7, lr}
 311              	.LCFI10:
 312              		.cfi_def_cfa_offset 8
 313 0002 00AF     		add	r7, sp, #0
 314              		.cfi_offset 14, -4
 315              		.cfi_offset 7, -8
 316              	.LCFI11:
 317              		.cfi_def_cfa_register 7
  93:.\modem.c     **** 
  94:.\modem.c     ****     if (modem_state == MODEM_STATE_OFF) {
 318              		.loc 1 94 0
 319 0004 40F20003 		movw	r3, #:lower16:modem_state
 320 0008 C0F20003 		movt	r3, #:upper16:modem_state
 321 000c 1B78     		ldrb	r3, [r3, #0]	@ zero_extendqisi2
 322 000e 002B     		cmp	r3, #0
 323 0010 02D1     		bne	.L16
  95:.\modem.c     ****         // Modem is already off
  96:.\modem.c     ****         return 1u;
 324              		.loc 1 96 0
 325 0012 4FF00103 		mov	r3, #1
 326 0016 2DE0     		b	.L17
 327              	.L16:
  97:.\modem.c     ****     }
  98:.\modem.c     **** 
  99:.\modem.c     ****     // Try to disconnect the modem.  
 100:.\modem.c     ****     // Continue whether or not disconnect is successful
 101:.\modem.c     ****     modem_disconnect();
 328              		.loc 1 101 0
 329 0018 FFF7FEFF 		bl	modem_disconnect
 102:.\modem.c     ****     
 103:.\modem.c     ****     modem_power_pin_Write(0u);
 330              		.loc 1 103 0
 331 001c 4FF00000 		mov	r0, #0
 332 0020 FFF7FEFF 		bl	modem_power_pin_Write
 104:.\modem.c     ****     CyDelay(2500u);  // To turn the CC864-DUAL off, the ON/OFF Pin must be tied low for 2 second an
 333              		.loc 1 104 0
 334 0024 40F6C410 		movw	r0, #2500
 335 0028 FFF7FEFF 		bl	CyDelay
 105:.\modem.c     ****     modem_power_pin_Write(1u);
 336              		.loc 1 105 0
 337 002c 4FF00100 		mov	r0, #1
 338 0030 FFF7FEFF 		bl	modem_power_pin_Write
 106:.\modem.c     ****     CyDelay(5000u); 
 339              		.loc 1 106 0
 340 0034 41F28830 		movw	r0, #5000
 341 0038 FFF7FEFF 		bl	CyDelay
 107:.\modem.c     ****     /* CyDelay(5000u); // wait for module to turn off
ARM GAS  C:\Users\karunmj\AppData\Local\Temp\ccGaaAqA.s 			page 9


 108:.\modem.c     ****         "Normally it will be above 10 seconds later from releasing
 109:.\modem.c     ****         ON/OFF# and DTE should monitor the status of PWRMON to see the
 110:.\modem.c     ****         actual power off."  */
 111:.\modem.c     ****     ControlReg_Modem_Write(0u);
 342              		.loc 1 111 0
 343 003c 4FF00000 		mov	r0, #0
 344 0040 FFF7FEFF 		bl	ControlReg_Modem_Write
 112:.\modem.c     ****     modem_voltage_pin_Write(1u); // cut power to modem
 345              		.loc 1 112 0
 346 0044 4FF00100 		mov	r0, #1
 347 0048 FFF7FEFF 		bl	modem_voltage_pin_Write
 113:.\modem.c     ****     modem_power_pin_Write(0u); //kill modem power pin as well
 348              		.loc 1 113 0
 349 004c 4FF00000 		mov	r0, #0
 350 0050 FFF7FEFF 		bl	modem_power_pin_Write
 114:.\modem.c     ****     modem_reset_pin_Write(0u);
 351              		.loc 1 114 0
 352 0054 4FF00000 		mov	r0, #0
 353 0058 FFF7FEFF 		bl	modem_reset_pin_Write
 115:.\modem.c     ****     modem_state = MODEM_STATE_OFF;
 354              		.loc 1 115 0
 355 005c 40F20003 		movw	r3, #:lower16:modem_state
 356 0060 C0F20003 		movt	r3, #:upper16:modem_state
 357 0064 4FF00002 		mov	r2, #0
 358 0068 1A70     		strb	r2, [r3, #0]
 116:.\modem.c     ****     return modem_state;
 359              		.loc 1 116 0
 360 006a 40F20003 		movw	r3, #:lower16:modem_state
 361 006e C0F20003 		movt	r3, #:upper16:modem_state
 362 0072 1B78     		ldrb	r3, [r3, #0]	@ zero_extendqisi2
 363              	.L17:
 117:.\modem.c     **** }
 364              		.loc 1 117 0
 365 0074 1846     		mov	r0, r3
 366 0076 80BD     		pop	{r7, pc}
 367              		.cfi_endproc
 368              	.LFE33:
 369              		.size	modem_power_off, .-modem_power_off
 370              		.section	.text.modem_reset,"ax",%progbits
 371              		.align	2
 372              		.global	modem_reset
 373              		.thumb
 374              		.thumb_func
 375              		.type	modem_reset, %function
 376              	modem_reset:
 377              	.LFB34:
 118:.\modem.c     **** 
 119:.\modem.c     **** uint8 modem_reset(){
 378              		.loc 1 119 0
 379              		.cfi_startproc
 380              		@ args = 0, pretend = 0, frame = 0
 381              		@ frame_needed = 1, uses_anonymous_args = 0
 382 0000 80B5     		push	{r7, lr}
 383              	.LCFI12:
 384              		.cfi_def_cfa_offset 8
 385 0002 00AF     		add	r7, sp, #0
 386              		.cfi_offset 14, -4
ARM GAS  C:\Users\karunmj\AppData\Local\Temp\ccGaaAqA.s 			page 10


 387              		.cfi_offset 7, -8
 388              	.LCFI13:
 389              		.cfi_def_cfa_register 7
 120:.\modem.c     ****     if (modem_state != MODEM_STATE_OFF) { // The modem is idle/ready (powered on)
 390              		.loc 1 120 0
 391 0004 40F20003 		movw	r3, #:lower16:modem_state
 392 0008 C0F20003 		movt	r3, #:upper16:modem_state
 393 000c 1B78     		ldrb	r3, [r3, #0]	@ zero_extendqisi2
 394 000e 002B     		cmp	r3, #0
 395 0010 16D0     		beq	.L20
 121:.\modem.c     ****         //modem_reset_pin_Write(0u); //provide power to modem
 122:.\modem.c     ****         modem_reset_pin_Write(0u);
 396              		.loc 1 122 0
 397 0012 4FF00000 		mov	r0, #0
 398 0016 FFF7FEFF 		bl	modem_reset_pin_Write
 123:.\modem.c     ****         CyDelay(500u);  // To reset and to reboot the module, 
 399              		.loc 1 123 0
 400 001a 4FF4FA70 		mov	r0, #500
 401 001e FFF7FEFF 		bl	CyDelay
 124:.\modem.c     ****                          // the RESET pin must be tied low for at least 200 milliseconds and then r
 125:.\modem.c     ****         modem_reset_pin_Write(1u);
 402              		.loc 1 125 0
 403 0022 4FF00100 		mov	r0, #1
 404 0026 FFF7FEFF 		bl	modem_reset_pin_Write
 126:.\modem.c     ****         //CyDelay(5000u);
 127:.\modem.c     ****         CyDelay(10000u);
 405              		.loc 1 127 0
 406 002a 42F21070 		movw	r0, #10000
 407 002e FFF7FEFF 		bl	CyDelay
 128:.\modem.c     ****         modem_state = MODEM_STATE_IDLE;
 408              		.loc 1 128 0
 409 0032 40F20003 		movw	r3, #:lower16:modem_state
 410 0036 C0F20003 		movt	r3, #:upper16:modem_state
 411 003a 4FF00102 		mov	r2, #1
 412 003e 1A70     		strb	r2, [r3, #0]
 413              	.L20:
 129:.\modem.c     ****     }
 130:.\modem.c     ****     return modem_state;
 414              		.loc 1 130 0
 415 0040 40F20003 		movw	r3, #:lower16:modem_state
 416 0044 C0F20003 		movt	r3, #:upper16:modem_state
 417 0048 1B78     		ldrb	r3, [r3, #0]	@ zero_extendqisi2
 131:.\modem.c     **** }
 418              		.loc 1 131 0
 419 004a 1846     		mov	r0, r3
 420 004c 80BD     		pop	{r7, pc}
 421              		.cfi_endproc
 422              	.LFE34:
 423              		.size	modem_reset, .-modem_reset
 424 004e 00BF     		.section	.rodata
 425              		.align	2
 426              	.LC0:
 427 0000 41542353 		.ascii	"AT#SGACT=1,1\015\000"
 427      47414354 
 427      3D312C31 
 427      0D00
 428 000e 0000     		.align	2
ARM GAS  C:\Users\karunmj\AppData\Local\Temp\ccGaaAqA.s 			page 11


 429              	.LC1:
 430 0010 4F4B00   		.ascii	"OK\000"
 431 0013 00       		.align	2
 432              	.LC2:
 433 0014 28415423 		.ascii	"(AT#SGACT=1,1) No IP Address Assigned.\000"
 433      53474143 
 433      543D312C 
 433      3129204E 
 433      6F204950 
 434              		.section	.text.modem_connect,"ax",%progbits
 435              		.align	2
 436              		.global	modem_connect
 437              		.thumb
 438              		.thumb_func
 439              		.type	modem_connect, %function
 440              	modem_connect:
 441              	.LFB35:
 132:.\modem.c     **** 
 133:.\modem.c     **** uint8 modem_connect(){
 442              		.loc 1 133 0
 443              		.cfi_startproc
 444              		@ args = 0, pretend = 0, frame = 0
 445              		@ frame_needed = 1, uses_anonymous_args = 0
 446 0000 80B5     		push	{r7, lr}
 447              	.LCFI14:
 448              		.cfi_def_cfa_offset 8
 449 0002 00AF     		add	r7, sp, #0
 450              		.cfi_offset 14, -4
 451              		.cfi_offset 7, -8
 452              	.LCFI15:
 453              		.cfi_def_cfa_register 7
 134:.\modem.c     ****     if(at_write_command("AT#SGACT=1,1\r","OK",15000u) == 1){
 454              		.loc 1 134 0
 455 0004 40F20000 		movw	r0, #:lower16:.LC0
 456 0008 C0F20000 		movt	r0, #:upper16:.LC0
 457 000c 40F20001 		movw	r1, #:lower16:.LC1
 458 0010 C0F20001 		movt	r1, #:upper16:.LC1
 459 0014 43F69822 		movw	r2, #15000
 460 0018 FFF7FEFF 		bl	at_write_command
 461 001c 0346     		mov	r3, r0
 462 001e 012B     		cmp	r3, #1
 463 0020 07D1     		bne	.L23
 135:.\modem.c     ****         modem_state = MODEM_STATE_READY;
 464              		.loc 1 135 0
 465 0022 40F20003 		movw	r3, #:lower16:modem_state
 466 0026 C0F20003 		movt	r3, #:upper16:modem_state
 467 002a 4FF00302 		mov	r2, #3
 468 002e 1A70     		strb	r2, [r3, #0]
 469 0030 05E0     		b	.L24
 470              	.L23:
 136:.\modem.c     ****         //return 1u; // connected to network
 137:.\modem.c     ****     }
 138:.\modem.c     ****     else debug_write("(AT#SGACT=1,1) No IP Address Assigned.");
 471              		.loc 1 138 0
 472 0032 40F20000 		movw	r0, #:lower16:.LC2
 473 0036 C0F20000 		movt	r0, #:upper16:.LC2
 474 003a FFF7FEFF 		bl	debug_write
ARM GAS  C:\Users\karunmj\AppData\Local\Temp\ccGaaAqA.s 			page 12


 475              	.L24:
 139:.\modem.c     **** 
 140:.\modem.c     ****     return modem_state;
 476              		.loc 1 140 0
 477 003e 40F20003 		movw	r3, #:lower16:modem_state
 478 0042 C0F20003 		movt	r3, #:upper16:modem_state
 479 0046 1B78     		ldrb	r3, [r3, #0]	@ zero_extendqisi2
 141:.\modem.c     ****     
 142:.\modem.c     **** /*
 143:.\modem.c     ****     if(at_write_command("AT+CREG=1\r","OK",5000u)){
 144:.\modem.c     ****         if(at_write_command("AT+CREG?\r","OK",5000u)){
 145:.\modem.c     ****         //if(!at_write_command("AT#CGPADDR=1\r","\"",5000u)){
 146:.\modem.c     ****             if(at_write_command("AT#SGACT=1,1\r","OK",30000u)){
 147:.\modem.c     ****                 modem_state = MODEM_STATE_READY;
 148:.\modem.c     ****                 //return 1u; // connected to network
 149:.\modem.c     ****             }
 150:.\modem.c     ****             else debug_write("(AT#SGACT=1,1) No IP Address Assigned.");
 151:.\modem.c     ****         }
 152:.\modem.c     ****        else debug_write("(AT#CGPADDR=1) No IP Address Exists.");   Returns IP address.. should be c
 153:.\modem.c     ****     }
 154:.\modem.c     ****     else debug_write("(AT+CREG=1) Could not register to network."); CREG reports registration statu
 155:.\modem.c     ****     
 156:.\modem.c     ****     return 0u;
 157:.\modem.c     **** */
 158:.\modem.c     **** /*
 159:.\modem.c     ****     at_write_command("AT+CSQ\r","OK",5000u); // get signal strength
 160:.\modem.c     ****     
 161:.\modem.c     ****     if (!at_write_command("AT+CREG=1\r","OK",5000u)) { // look for network
 162:.\modem.c     ****         debug_write("(AT+CREG=1) Could not register to network.");
 163:.\modem.c     ****     }
 164:.\modem.c     ****     
 165:.\modem.c     ****     at_write_command("AT#SCFG=1,1,0,0,1200,0\r","OK",5000u); // config parameter
 166:.\modem.c     ****     
 167:.\modem.c     ****     if (at_write_command("AT#CGPADDR=1\r","OK",5000u)) {// check if ip address exists
 168:.\modem.c     ****         debug_write("(AT#CGPADDR=1) No IP Address Exists.");    
 169:.\modem.c     ****     }
 170:.\modem.c     ****     
 171:.\modem.c     ****     at_write_command("AT#SGACT?","OK",30000u);
 172:.\modem.c     ****     
 173:.\modem.c     ****     uint8 success  = at_write_command("AT#SGACT=1,1\r","OK",30000u); // This command should return 
 174:.\modem.c     ****     //success = at_write_command("AT#SD=1,0,50000,\"141.212.136.222\",0,0,1\r","OK",5000u); // conn
 175:.\modem.c     ****     
 176:.\modem.c     ****     if (!success) {
 177:.\modem.c     ****         debug_write("(AT#SGACT=1,1) No IP Address Assigned.");
 178:.\modem.c     ****     }
 179:.\modem.c     ****     
 180:.\modem.c     ****     return success;
 181:.\modem.c     ****     */
 182:.\modem.c     ****     
 183:.\modem.c     **** }
 480              		.loc 1 183 0
 481 0048 1846     		mov	r0, r3
 482 004a 80BD     		pop	{r7, pc}
 483              		.cfi_endproc
 484              	.LFE35:
 485              		.size	modem_connect, .-modem_connect
 486              		.section	.rodata
ARM GAS  C:\Users\karunmj\AppData\Local\Temp\ccGaaAqA.s 			page 13


 487 003b 00       		.align	2
 488              	.LC3:
 489 003c 41542353 		.ascii	"AT#SH=1\000"
 489      483D3100 
 490              		.align	2
 491              	.LC4:
 492 0044 41542353 		.ascii	"AT#SGACT=1,0\000"
 492      47414354 
 492      3D312C30 
 492      00
 493 0051 000000   		.align	2
 494              	.LC5:
 495 0054 28415423 		.ascii	"(AT#SGACT=1,0) Could not disconnect.\000"
 495      53474143 
 495      543D312C 
 495      30292043 
 495      6F756C64 
 496 0079 000000   		.align	2
 497              	.LC6:
 498 007c 28415423 		.ascii	"(AT#SH=1) Could not close socket.\000"
 498      53483D31 
 498      2920436F 
 498      756C6420 
 498      6E6F7420 
 499 009e 0000     		.align	2
 500              	.LC7:
 501 00a0 286D6F64 		.ascii	"(modem_state != MODEM_STATE_READY) modem_state = MO"
 501      656D5F73 
 501      74617465 
 501      20213D20 
 501      4D4F4445 
 502 00d3 44454D5F 		.ascii	"DEM_STATE_OFF\000"
 502      53544154 
 502      455F4F46 
 502      4600
 503 00e1 000000   		.align	2
 504              	.LC8:
 505 00e4 286D6F64 		.ascii	"(modem_state != MODEM_STATE_READY) modem_state = MO"
 505      656D5F73 
 505      74617465 
 505      20213D20 
 505      4D4F4445 
 506 0117 44454D5F 		.ascii	"DEM_STATE_IDLE\000"
 506      53544154 
 506      455F4944 
 506      4C4500
 507              		.section	.text.modem_disconnect,"ax",%progbits
 508              		.align	2
 509              		.global	modem_disconnect
 510              		.thumb
 511              		.thumb_func
 512              		.type	modem_disconnect, %function
 513              	modem_disconnect:
 514              	.LFB36:
 184:.\modem.c     **** 
 185:.\modem.c     **** uint8 modem_disconnect(){
 515              		.loc 1 185 0
ARM GAS  C:\Users\karunmj\AppData\Local\Temp\ccGaaAqA.s 			page 14


 516              		.cfi_startproc
 517              		@ args = 0, pretend = 0, frame = 0
 518              		@ frame_needed = 1, uses_anonymous_args = 0
 519 0000 80B5     		push	{r7, lr}
 520              	.LCFI16:
 521              		.cfi_def_cfa_offset 8
 522 0002 00AF     		add	r7, sp, #0
 523              		.cfi_offset 14, -4
 524              		.cfi_offset 7, -8
 525              	.LCFI17:
 526              		.cfi_def_cfa_register 7
 186:.\modem.c     ****     // Proceed if modem is not connected to network.  Otherwise, try to disconnect from the network
 187:.\modem.c     ****     if(modem_state != MODEM_STATE_READY) {
 527              		.loc 1 187 0
 528 0004 40F20003 		movw	r3, #:lower16:modem_state
 529 0008 C0F20003 		movt	r3, #:upper16:modem_state
 530 000c 1B78     		ldrb	r3, [r3, #0]	@ zero_extendqisi2
 531 000e 032B     		cmp	r3, #3
 532 0010 35D0     		beq	.L27
 188:.\modem.c     ****         if(at_write_command("AT#SH=1","OK",10000u) == 1){
 533              		.loc 1 188 0
 534 0012 40F20000 		movw	r0, #:lower16:.LC3
 535 0016 C0F20000 		movt	r0, #:upper16:.LC3
 536 001a 40F20001 		movw	r1, #:lower16:.LC1
 537 001e C0F20001 		movt	r1, #:upper16:.LC1
 538 0022 42F21072 		movw	r2, #10000
 539 0026 FFF7FEFF 		bl	at_write_command
 540 002a 0346     		mov	r3, r0
 541 002c 012B     		cmp	r3, #1
 542 002e 1FD1     		bne	.L28
 189:.\modem.c     ****             if(at_write_command("AT#SGACT=1,0","OK",10000u) == 1){
 543              		.loc 1 189 0
 544 0030 40F20000 		movw	r0, #:lower16:.LC4
 545 0034 C0F20000 		movt	r0, #:upper16:.LC4
 546 0038 40F20001 		movw	r1, #:lower16:.LC1
 547 003c C0F20001 		movt	r1, #:upper16:.LC1
 548 0040 42F21072 		movw	r2, #10000
 549 0044 FFF7FEFF 		bl	at_write_command
 550 0048 0346     		mov	r3, r0
 551 004a 012B     		cmp	r3, #1
 552 004c 09D1     		bne	.L29
 190:.\modem.c     ****                 modem_state = MODEM_STATE_IDLE;
 553              		.loc 1 190 0
 554 004e 40F20003 		movw	r3, #:lower16:modem_state
 555 0052 C0F20003 		movt	r3, #:upper16:modem_state
 556 0056 4FF00102 		mov	r2, #1
 557 005a 1A70     		strb	r2, [r3, #0]
 191:.\modem.c     ****                 return 1u;
 558              		.loc 1 191 0
 559 005c 4FF00103 		mov	r3, #1
 560 0060 2AE0     		b	.L30
 561              	.L29:
 192:.\modem.c     ****             }
 193:.\modem.c     ****             else {
 194:.\modem.c     ****                 debug_write("(AT#SGACT=1,0) Could not disconnect.");
 562              		.loc 1 194 0
 563 0062 40F20000 		movw	r0, #:lower16:.LC5
ARM GAS  C:\Users\karunmj\AppData\Local\Temp\ccGaaAqA.s 			page 15


 564 0066 C0F20000 		movt	r0, #:upper16:.LC5
 565 006a FFF7FEFF 		bl	debug_write
 195:.\modem.c     ****             }
 196:.\modem.c     ****         }
 197:.\modem.c     ****         else {
 198:.\modem.c     ****             debug_write("(AT#SH=1) Could not close socket.");
 566              		.loc 1 198 0
 567 006e 21E0     		b	.L32
 568              	.L28:
 569 0070 40F20000 		movw	r0, #:lower16:.LC6
 570 0074 C0F20000 		movt	r0, #:upper16:.LC6
 571 0078 FFF7FEFF 		bl	debug_write
 572 007c 1AE0     		b	.L32
 573              	.L27:
 199:.\modem.c     ****         }
 200:.\modem.c     ****     }
 201:.\modem.c     ****     else {
 202:.\modem.c     ****         if (modem_state == MODEM_STATE_OFF) {
 574              		.loc 1 202 0
 575 007e 40F20003 		movw	r3, #:lower16:modem_state
 576 0082 C0F20003 		movt	r3, #:upper16:modem_state
 577 0086 1B78     		ldrb	r3, [r3, #0]	@ zero_extendqisi2
 578 0088 002B     		cmp	r3, #0
 579 008a 06D1     		bne	.L33
 203:.\modem.c     ****             debug_write( "(modem_state != MODEM_STATE_READY) modem_state = MODEM_STATE_OFF" );
 580              		.loc 1 203 0
 581 008c 40F20000 		movw	r0, #:lower16:.LC7
 582 0090 C0F20000 		movt	r0, #:upper16:.LC7
 583 0094 FFF7FEFF 		bl	debug_write
 584 0098 0CE0     		b	.L32
 585              	.L33:
 204:.\modem.c     ****         }
 205:.\modem.c     ****         else if (modem_state == MODEM_STATE_IDLE) {
 586              		.loc 1 205 0
 587 009a 40F20003 		movw	r3, #:lower16:modem_state
 588 009e C0F20003 		movt	r3, #:upper16:modem_state
 589 00a2 1B78     		ldrb	r3, [r3, #0]	@ zero_extendqisi2
 590 00a4 012B     		cmp	r3, #1
 591 00a6 05D1     		bne	.L32
 206:.\modem.c     ****             debug_write( "(modem_state != MODEM_STATE_READY) modem_state = MODEM_STATE_IDLE" );
 592              		.loc 1 206 0
 593 00a8 40F20000 		movw	r0, #:lower16:.LC8
 594 00ac C0F20000 		movt	r0, #:upper16:.LC8
 595 00b0 FFF7FEFF 		bl	debug_write
 596              	.L32:
 207:.\modem.c     ****         }
 208:.\modem.c     ****     }
 209:.\modem.c     ****     
 210:.\modem.c     ****     return 0u; // failed to disconnect
 597              		.loc 1 210 0
 598 00b4 4FF00003 		mov	r3, #0
 599              	.L30:
 211:.\modem.c     **** }
 600              		.loc 1 211 0
 601 00b8 1846     		mov	r0, r3
 602 00ba 80BD     		pop	{r7, pc}
 603              		.cfi_endproc
ARM GAS  C:\Users\karunmj\AppData\Local\Temp\ccGaaAqA.s 			page 16


 604              	.LFE36:
 605              		.size	modem_disconnect, .-modem_disconnect
 606              		.section	.rodata
 607 0126 0000     		.align	2
 608              	.LC9:
 609 0128 41542353 		.ascii	"AT#SD=1,0,80,\"api.xively.com\",0,0,1\015\000"
 609      443D312C 
 609      302C3830 
 609      2C226170 
 609      692E7869 
 610 014d 000000   		.align	2
 611              	.LC10:
 612 0150 41542353 		.ascii	"AT#SSEND=1\015\000"
 612      53454E44 
 612      3D310D00 
 613              		.align	2
 614              	.LC11:
 615 015c 3E00     		.ascii	">\000"
 616 015e 0000     		.align	2
 617              	.LC12:
 618 0160 50555420 		.ascii	"PUT /v2/feeds/%lu.csv HTTP/1.0\015\012\000"
 618      2F76322F 
 618      66656564 
 618      732F256C 
 618      752E6373 
 619 0181 000000   		.align	2
 620              	.LC13:
 621 0184 582D4170 		.ascii	"X-ApiKey: %s\015\012\000"
 621      694B6579 
 621      3A202573 
 621      0D0A00
 622 0193 00       		.align	2
 623              	.LC14:
 624 0194 25732573 		.ascii	"%s%s%s%s%d%s%s%s\000"
 624      25732573 
 624      25642573 
 624      25732573 
 624      00
 625 01a5 000000   		.align	2
 626              	.LC15:
 627 01a8 486F7374 		.ascii	"Host: api.xively.com\015\012\000"
 627      3A206170 
 627      692E7869 
 627      76656C79 
 627      2E636F6D 
 628 01bf 00       		.align	2
 629              	.LC16:
 630 01c0 436F6E74 		.ascii	"Content-Length: \000"
 630      656E742D 
 630      4C656E67 
 630      74683A20 
 630      00
 631 01d1 000000   		.align	2
 632              	.LC17:
 633 01d4 0D0A0D0A 		.ascii	"\015\012\015\012\000"
 633      00
 634 01d9 000000   		.align	2
ARM GAS  C:\Users\karunmj\AppData\Local\Temp\ccGaaAqA.s 			page 17


 635              	.LC18:
 636 01dc 1A0D00   		.ascii	"\032\015\000"
 637 01df 00       		.align	2
 638              	.LC19:
 639 01e0 2861745F 		.ascii	"(at_write_command(sendBuffer,\"OK\"...) Data sent u"
 639      77726974 
 639      655F636F 
 639      6D6D616E 
 639      64287365 
 640 0211 6E737563 		.ascii	"nsuccessfully.\000"
 640      63657373 
 640      66756C6C 
 640      792E00
 641              		.align	2
 642              	.LC20:
 643 0220 28415423 		.ascii	"(AT#SSEND=1) Could not send data through connected "
 643      5353454E 
 643      443D3129 
 643      20436F75 
 643      6C64206E 
 644 0253 736F636B 		.ascii	"socket.\000"
 644      65742E00 
 645 025b 00       		.align	2
 646              	.LC21:
 647 025c 28415423 		.ascii	"(AT#SD=1,0,8081,\"api.xively.com\",0,0,1\015) Could"
 647      53443D31 
 647      2C302C38 
 647      3038312C 
 647      22617069 
 648 028a 206E6F74 		.ascii	" not connect to server.\000"
 648      20636F6E 
 648      6E656374 
 648      20746F20 
 648      73657276 
 649 02a2 0000     		.align	2
 650              	.LC22:
 651 02a4 4D41585F 		.ascii	"MAX_SEND_ATTEMPTS Exceeded.\000"
 651      53454E44 
 651      5F415454 
 651      454D5054 
 651      53204578 
 652              		.section	.text.modem_send_packet,"ax",%progbits
 653              		.align	2
 654              		.global	modem_send_packet
 655              		.thumb
 656              		.thumb_func
 657              		.type	modem_send_packet, %function
 658              	modem_send_packet:
 659              	.LFB37:
 212:.\modem.c     **** 
 213:.\modem.c     **** // send packet to Xively server
 214:.\modem.c     **** uint8 modem_send_packet(char* body){
 660              		.loc 1 214 0
 661              		.cfi_startproc
 662              		@ args = 0, pretend = 0, frame = 1112
 663              		@ frame_needed = 1, uses_anonymous_args = 0
 664 0000 80B5     		push	{r7, lr}
ARM GAS  C:\Users\karunmj\AppData\Local\Temp\ccGaaAqA.s 			page 18


 665              	.LCFI18:
 666              		.cfi_def_cfa_offset 8
 667 0002 ADF58E6D 		sub	sp, sp, #1136
 668              	.LCFI19:
 669              		.cfi_def_cfa_offset 1144
 670 0006 06AF     		add	r7, sp, #24
 671              		.cfi_offset 14, -4
 672              		.cfi_offset 7, -8
 673              	.LCFI20:
 674              		.cfi_def_cfa 7, 1120
 675 0008 07F10803 		add	r3, r7, #8
 676 000c A3F10403 		sub	r3, r3, #4
 677 0010 1860     		str	r0, [r3, #0]
 215:.\modem.c     **** 
 216:.\modem.c     ****     
 217:.\modem.c     ****     /*
 218:.\modem.c     ****     // provide power to rx and tx pins
 219:.\modem.c     ****     //uart_rx_voltage_pin_Write(0u);
 220:.\modem.c     ****     //uart_tx_voltage_pin_Write(0u);
 221:.\modem.c     ****     
 222:.\modem.c     ****     // join network
 223:.\modem.c     ****     uint8 connected = modem_connect();
 224:.\modem.c     ****     */
 225:.\modem.c     ****     uint8 attempts = 0;
 678              		.loc 1 225 0
 679 0012 4FF00003 		mov	r3, #0
 680 0016 87F85734 		strb	r3, [r7, #1111]
 226:.\modem.c     ****     //char put_str[MAX_PACKET_LENGTH] = {0}, key_str[100]={0};
 227:.\modem.c     ****     
 228:.\modem.c     ****     for(attempts = 0; attempts < MAX_SEND_ATTEMPTS; attempts++) {
 681              		.loc 1 228 0
 682 001a 4FF00003 		mov	r3, #0
 683 001e 87F85734 		strb	r3, [r7, #1111]
 684 0022 B7E0     		b	.L36
 685              	.L45:
 229:.\modem.c     ****         
 230:.\modem.c     ****         // Proceed if modem is already connected.  Otherwise, try to join the network and proceed
 231:.\modem.c     ****         if( modem_state == MODEM_STATE_READY || modem_connect() != 0){ 
 686              		.loc 1 231 0
 687 0024 40F20003 		movw	r3, #:lower16:modem_state
 688 0028 C0F20003 		movt	r3, #:upper16:modem_state
 689 002c 1B78     		ldrb	r3, [r3, #0]	@ zero_extendqisi2
 690 002e 032B     		cmp	r3, #3
 691 0030 05D0     		beq	.L37
 692 0032 FFF7FEFF 		bl	modem_connect
 693 0036 0346     		mov	r3, r0
 694 0038 002B     		cmp	r3, #0
 695 003a 00F09F80 		beq	.L38
 696              	.L37:
 232:.\modem.c     ****             // write to AWS server  - 184.72.228.61\",0,0,1
 233:.\modem.c     ****             //if(at_write_command("AT#SD=1,0,50030,\"184.72.228.61\",0,0,1\r","OK",5000u) != 0){
 234:.\modem.c     ****             if(at_write_command("AT#SD=1,0,80,\"api.xively.com\",0,0,1\r","OK",10000u) != 0){
 697              		.loc 1 234 0
 698 003e 40F20000 		movw	r0, #:lower16:.LC9
 699 0042 C0F20000 		movt	r0, #:upper16:.LC9
 700 0046 40F20001 		movw	r1, #:lower16:.LC1
 701 004a C0F20001 		movt	r1, #:upper16:.LC1
ARM GAS  C:\Users\karunmj\AppData\Local\Temp\ccGaaAqA.s 			page 19


 702 004e 42F21072 		movw	r2, #10000
 703 0052 FFF7FEFF 		bl	at_write_command
 704 0056 0346     		mov	r3, r0
 705 0058 002B     		cmp	r3, #0
 706 005a 00F08980 		beq	.L39
 235:.\modem.c     ****                 if(at_write_command("AT#SSEND=1\r",">",10000u) != 0){
 707              		.loc 1 235 0
 708 005e 40F20000 		movw	r0, #:lower16:.LC10
 709 0062 C0F20000 		movt	r0, #:upper16:.LC10
 710 0066 40F20001 		movw	r1, #:lower16:.LC11
 711 006a C0F20001 		movt	r1, #:upper16:.LC11
 712 006e 42F21072 		movw	r2, #10000
 713 0072 FFF7FEFF 		bl	at_write_command
 714 0076 0346     		mov	r3, r0
 715 0078 002B     		cmp	r3, #0
 716 007a 72D0     		beq	.L40
 717              	.LBB3:
 236:.\modem.c     ****                     //if(at_write_command(packet,"OK",20000u) != 0){
 237:.\modem.c     ****                     //char sendBuffer[MAX_PACKET_LENGTH];
 238:.\modem.c     ****                     char put_str[MAX_PACKET_LENGTH], key_str[100];
 239:.\modem.c     ****                     
 240:.\modem.c     ****                     sprintf(put_str,"PUT /v2/feeds/%lu.csv HTTP/1.0\r\n", feed_id);
 718              		.loc 1 240 0
 719 007c 40F20003 		movw	r3, #:lower16:feed_id
 720 0080 C0F20003 		movt	r3, #:upper16:feed_id
 721 0084 1B68     		ldr	r3, [r3, #0]
 722 0086 07F10802 		add	r2, r7, #8
 723 008a 1046     		mov	r0, r2
 724 008c 40F20001 		movw	r1, #:lower16:.LC12
 725 0090 C0F20001 		movt	r1, #:upper16:.LC12
 726 0094 1A46     		mov	r2, r3
 727 0096 FFF7FEFF 		bl	sprintf
 241:.\modem.c     ****                     sprintf(key_str,"X-ApiKey: %s\r\n", api_key);
 728              		.loc 1 241 0
 729 009a 40F20003 		movw	r3, #:lower16:api_key
 730 009e C0F20003 		movt	r3, #:upper16:api_key
 731 00a2 1B68     		ldr	r3, [r3, #0]
 732 00a4 07F57C72 		add	r2, r7, #1008
 733 00a8 1046     		mov	r0, r2
 734 00aa 40F20001 		movw	r1, #:lower16:.LC13
 735 00ae C0F20001 		movt	r1, #:upper16:.LC13
 736 00b2 1A46     		mov	r2, r3
 737 00b4 FFF7FEFF 		bl	sprintf
 242:.\modem.c     ****                     sprintf(put_str,"%s%s%s%s%d%s%s%s",
 738              		.loc 1 242 0
 739 00b8 07F10803 		add	r3, r7, #8
 740 00bc A3F10403 		sub	r3, r3, #4
 741 00c0 1868     		ldr	r0, [r3, #0]
 742 00c2 FFF7FEFF 		bl	strlen
 743 00c6 0346     		mov	r3, r0
 744 00c8 1846     		mov	r0, r3
 745 00ca 07F10801 		add	r1, r7, #8
 746 00ce 07F10802 		add	r2, r7, #8
 747 00d2 07F57C7C 		add	ip, r7, #1008
 748 00d6 40F20003 		movw	r3, #:lower16:.LC15
 749 00da C0F20003 		movt	r3, #:upper16:.LC15
 750 00de 0093     		str	r3, [sp, #0]
ARM GAS  C:\Users\karunmj\AppData\Local\Temp\ccGaaAqA.s 			page 20


 751 00e0 40F20003 		movw	r3, #:lower16:.LC16
 752 00e4 C0F20003 		movt	r3, #:upper16:.LC16
 753 00e8 0193     		str	r3, [sp, #4]
 754 00ea 0290     		str	r0, [sp, #8]
 755 00ec 40F20003 		movw	r3, #:lower16:.LC17
 756 00f0 C0F20003 		movt	r3, #:upper16:.LC17
 757 00f4 0393     		str	r3, [sp, #12]
 758 00f6 07F10803 		add	r3, r7, #8
 759 00fa A3F10403 		sub	r3, r3, #4
 760 00fe 1B68     		ldr	r3, [r3, #0]
 761 0100 0493     		str	r3, [sp, #16]
 762 0102 40F20003 		movw	r3, #:lower16:.LC18
 763 0106 C0F20003 		movt	r3, #:upper16:.LC18
 764 010a 0593     		str	r3, [sp, #20]
 765 010c 0846     		mov	r0, r1
 766 010e 40F20001 		movw	r1, #:lower16:.LC14
 767 0112 C0F20001 		movt	r1, #:upper16:.LC14
 768 0116 6346     		mov	r3, ip
 769 0118 FFF7FEFF 		bl	sprintf
 243:.\modem.c     ****                         put_str,
 244:.\modem.c     ****                         key_str,
 245:.\modem.c     ****                         "Host: api.xively.com\r\n",
 246:.\modem.c     ****                         "Content-Length: ", strlen(body),
 247:.\modem.c     ****                         "\r\n\r\n", body, "\032\r");
 248:.\modem.c     ****                         
 249:.\modem.c     ****                     //sprintf(sendBuffer, "%s\032", packet);
 250:.\modem.c     ****                     if(at_write_command(put_str,"OK",15000u) != 0){
 770              		.loc 1 250 0
 771 011c 07F10803 		add	r3, r7, #8
 772 0120 1846     		mov	r0, r3
 773 0122 40F20001 		movw	r1, #:lower16:.LC1
 774 0126 C0F20001 		movt	r1, #:upper16:.LC1
 775 012a 43F69822 		movw	r2, #15000
 776 012e FFF7FEFF 		bl	at_write_command
 777 0132 0346     		mov	r3, r0
 778 0134 002B     		cmp	r3, #0
 779 0136 0DD0     		beq	.L41
 251:.\modem.c     ****                         modem_state = MODEM_STATE_IDLE;
 780              		.loc 1 251 0
 781 0138 40F20003 		movw	r3, #:lower16:modem_state
 782 013c C0F20003 		movt	r3, #:upper16:modem_state
 783 0140 4FF00102 		mov	r2, #1
 784 0144 1A70     		strb	r2, [r3, #0]
 252:.\modem.c     ****                         CyDelay(1000u); //debug_write("Packet sent successfully.");
 785              		.loc 1 252 0
 786 0146 4FF47A70 		mov	r0, #1000
 787 014a FFF7FEFF 		bl	CyDelay
 253:.\modem.c     ****                         return 1u;   // return 1 if succesfully sent sms
 788              		.loc 1 253 0
 789 014e 4FF00103 		mov	r3, #1
 790 0152 2EE0     		b	.L42
 791              	.L41:
 254:.\modem.c     ****                     }
 255:.\modem.c     ****                     else {
 256:.\modem.c     ****                         debug_write("(at_write_command(sendBuffer,\"OK\"...) Data sent unsuccessful
 792              		.loc 1 256 0
 793 0154 40F20000 		movw	r0, #:lower16:.LC19
ARM GAS  C:\Users\karunmj\AppData\Local\Temp\ccGaaAqA.s 			page 21


 794 0158 C0F20000 		movt	r0, #:upper16:.LC19
 795 015c FFF7FEFF 		bl	debug_write
 796              	.LBE3:
 257:.\modem.c     ****                     }
 258:.\modem.c     ****                 }
 259:.\modem.c     ****                 else {
 260:.\modem.c     ****                     debug_write("(AT#SSEND=1) Could not send data through connected socket.");
 797              		.loc 1 260 0
 798 0160 0CE0     		b	.L38
 799              	.L40:
 800 0162 40F20000 		movw	r0, #:lower16:.LC20
 801 0166 C0F20000 		movt	r0, #:upper16:.LC20
 802 016a FFF7FEFF 		bl	debug_write
 803 016e 05E0     		b	.L38
 804              	.L39:
 261:.\modem.c     ****                 }
 262:.\modem.c     ****             }
 263:.\modem.c     ****             else {
 264:.\modem.c     ****                 debug_write("(AT#SD=1,0,8081,\"api.xively.com\",0,0,1\r) Could not connect to serve
 805              		.loc 1 264 0
 806 0170 40F20000 		movw	r0, #:lower16:.LC21
 807 0174 C0F20000 		movt	r0, #:upper16:.LC21
 808 0178 FFF7FEFF 		bl	debug_write
 809              	.L38:
 265:.\modem.c     ****             }
 266:.\modem.c     ****         }
 267:.\modem.c     ****     
 268:.\modem.c     ****         if (attempts < MAX_SEND_ATTEMPTS-1) { // Don't reset the modem on the last attempt since it
 810              		.loc 1 268 0
 811 017c 97F85734 		ldrb	r3, [r7, #1111]	@ zero_extendqisi2
 812 0180 002B     		cmp	r3, #0
 813 0182 01D1     		bne	.L44
 269:.\modem.c     ****             modem_reset();
 814              		.loc 1 269 0
 815 0184 FFF7FEFF 		bl	modem_reset
 816              	.L44:
 817              		.loc 1 228 0
 818 0188 97F85734 		ldrb	r3, [r7, #1111]
 819 018c 03F10103 		add	r3, r3, #1
 820 0190 87F85734 		strb	r3, [r7, #1111]
 821              	.L36:
 822 0194 97F85734 		ldrb	r3, [r7, #1111]	@ zero_extendqisi2
 823 0198 012B     		cmp	r3, #1
 824 019a 7FF643AF 		bls	.L45
 270:.\modem.c     ****         }
 271:.\modem.c     ****         
 272:.\modem.c     ****     }    
 273:.\modem.c     ****     
 274:.\modem.c     ****     // cut power to rx and tx pins
 275:.\modem.c     ****     //uart_rx_voltage_pin_Write(1u);
 276:.\modem.c     ****     //uart_rx_voltage_pin_Write(1u);
 277:.\modem.c     ****     debug_write("MAX_SEND_ATTEMPTS Exceeded.");
 825              		.loc 1 277 0
 826 019e 40F20000 		movw	r0, #:lower16:.LC22
 827 01a2 C0F20000 		movt	r0, #:upper16:.LC22
 828 01a6 FFF7FEFF 		bl	debug_write
 278:.\modem.c     ****     modem_disconnect();
ARM GAS  C:\Users\karunmj\AppData\Local\Temp\ccGaaAqA.s 			page 22


 829              		.loc 1 278 0
 830 01aa FFF7FEFF 		bl	modem_disconnect
 279:.\modem.c     ****     return 0u;   // return 0 if failure to send sms
 831              		.loc 1 279 0
 832 01ae 4FF00003 		mov	r3, #0
 833              	.L42:
 280:.\modem.c     **** }
 834              		.loc 1 280 0
 835 01b2 1846     		mov	r0, r3
 836 01b4 07F15807 		add	r7, r7, #88
 837 01b8 07F58067 		add	r7, r7, #1024
 838 01bc BD46     		mov	sp, r7
 839 01be 80BD     		pop	{r7, pc}
 840              		.cfi_endproc
 841              	.LFE37:
 842              		.size	modem_send_packet, .-modem_send_packet
 843              		.section	.rodata
 844              		.align	2
 845              	.LC23:
 846 02c0 6D6F6465 		.ascii	"modem_get_packet(): csv length > 100\000"
 846      6D5F6765 
 846      745F7061 
 846      636B6574 
 846      28293A20 
 847 02e5 000000   		.align	2
 848              	.LC24:
 849 02e8 47455420 		.ascii	"GET /v2/feeds/%lu.csv?datastreams=%s HTTP/1.0\015\012"
 849      2F76322F 
 849      66656564 
 849      732F256C 
 849      752E6373 
 850 0317 00       		.ascii	"\000"
 851              		.align	2
 852              	.LC25:
 853 0318 25732573 		.ascii	"%s%s%s%s%s\000"
 853      25732573 
 853      257300
 854 0323 00       		.align	2
 855              	.LC26:
 856 0324 41636365 		.ascii	"Accept: text/csv\015\012\000"
 856      70743A20 
 856      74657874 
 856      2F637376 
 856      0D0A00
 857 0337 00       		.align	2
 858              	.LC27:
 859 0338 0D0A1A0D 		.ascii	"\015\012\032\015\000"
 859      00
 860 033d 000000   		.align	2
 861              	.LC28:
 862 0340 5352494E 		.ascii	"SRING: 1\000"
 862      473A2031 
 862      00
 863 0349 000000   		.align	2
 864              	.LC29:
 865 034c 41542353 		.ascii	"AT#SRECV=1,700\015\000"
 865      52454356 
ARM GAS  C:\Users\karunmj\AppData\Local\Temp\ccGaaAqA.s 			page 23


 865      3D312C37 
 865      30300D00 
 866              		.align	2
 867              	.LC30:
 868 035c 28415423 		.ascii	"(AT#SD=1,0,80,\"api.xively.com\",0,0,1) Could not c"
 868      53443D31 
 868      2C302C38 
 868      302C2261 
 868      70692E78 
 869 038d 6F6E6E65 		.ascii	"onnect to server.\000"
 869      63742074 
 869      6F207365 
 869      72766572 
 869      2E00
 870 039f 00       		.align	2
 871              	.LC31:
 872 03a0 4D41585F 		.ascii	"MAX_GET_ATTEMPTS Exceeded.\000"
 872      4745545F 
 872      41545445 
 872      4D505453 
 872      20457863 
 873              		.section	.text.modem_get_packet,"ax",%progbits
 874              		.align	2
 875              		.global	modem_get_packet
 876              		.thumb
 877              		.thumb_func
 878              		.type	modem_get_packet, %function
 879              	modem_get_packet:
 880              	.LFB38:
 281:.\modem.c     **** 
 282:.\modem.c     **** 
 283:.\modem.c     **** // read packet from Xively server
 284:.\modem.c     **** uint8 modem_get_packet(char* packet, char* csv){
 881              		.loc 1 284 0
 882              		.cfi_startproc
 883              		@ args = 0, pretend = 0, frame = 1112
 884              		@ frame_needed = 1, uses_anonymous_args = 0
 885 0000 80B5     		push	{r7, lr}
 886              	.LCFI21:
 887              		.cfi_def_cfa_offset 8
 888 0002 ADF58D6D 		sub	sp, sp, #1128
 889              	.LCFI22:
 890              		.cfi_def_cfa_offset 1136
 891 0006 04AF     		add	r7, sp, #16
 892              		.cfi_offset 14, -4
 893              		.cfi_offset 7, -8
 894              	.LCFI23:
 895              		.cfi_def_cfa 7, 1120
 896 0008 07F10803 		add	r3, r7, #8
 897 000c A3F10403 		sub	r3, r3, #4
 898 0010 1860     		str	r0, [r3, #0]
 899 0012 3B46     		mov	r3, r7
 900 0014 1960     		str	r1, [r3, #0]
 285:.\modem.c     ****     
 286:.\modem.c     ****     /*
 287:.\modem.c     ****     // provide power to rx and tx pins
 288:.\modem.c     ****     //uart_rx_voltage_pin_Write(0u);
ARM GAS  C:\Users\karunmj\AppData\Local\Temp\ccGaaAqA.s 			page 24


 289:.\modem.c     ****     //uart_tx_voltage_pin_Write(0u);    
 290:.\modem.c     ****     
 291:.\modem.c     ****     // join network
 292:.\modem.c     ****     uint8 connected = modem_connect();
 293:.\modem.c     ****     */
 294:.\modem.c     ****     //char get_str[MAX_PACKET_LENGTH]={0}, key_str[100]={0};
 295:.\modem.c     ****     uint8 attempts = 0;
 901              		.loc 1 295 0
 902 0016 4FF00003 		mov	r3, #0
 903 001a 87F85734 		strb	r3, [r7, #1111]
 296:.\modem.c     ****     
 297:.\modem.c     ****     if (strlen(csv) > 125) {
 904              		.loc 1 297 0
 905 001e 3B46     		mov	r3, r7
 906 0020 1868     		ldr	r0, [r3, #0]
 907 0022 FFF7FEFF 		bl	strlen
 908 0026 0346     		mov	r3, r0
 909 0028 7D2B     		cmp	r3, #125
 910 002a 08D9     		bls	.L48
 298:.\modem.c     ****         debug_write("modem_get_packet(): csv length > 100");
 911              		.loc 1 298 0
 912 002c 40F20000 		movw	r0, #:lower16:.LC23
 913 0030 C0F20000 		movt	r0, #:upper16:.LC23
 914 0034 FFF7FEFF 		bl	debug_write
 299:.\modem.c     ****         return 0u;
 915              		.loc 1 299 0
 916 0038 4FF00003 		mov	r3, #0
 917 003c D5E0     		b	.L49
 918              	.L48:
 300:.\modem.c     ****     }
 301:.\modem.c     ****             
 302:.\modem.c     ****     for(attempts = 0; attempts < MAX_GET_ATTEMPTS; attempts++) {
 919              		.loc 1 302 0
 920 003e 4FF00003 		mov	r3, #0
 921 0042 87F85734 		strb	r3, [r7, #1111]
 922 0046 C1E0     		b	.L50
 923              	.L58:
 303:.\modem.c     ****         // Proceed if modem is already connected.  Otherwise, try to join the network and proceed
 304:.\modem.c     ****         if( modem_state == MODEM_STATE_READY || modem_connect() != 0 ){ 
 924              		.loc 1 304 0
 925 0048 40F20003 		movw	r3, #:lower16:modem_state
 926 004c C0F20003 		movt	r3, #:upper16:modem_state
 927 0050 1B78     		ldrb	r3, [r3, #0]	@ zero_extendqisi2
 928 0052 032B     		cmp	r3, #3
 929 0054 05D0     		beq	.L51
 930 0056 FFF7FEFF 		bl	modem_connect
 931 005a 0346     		mov	r3, r0
 932 005c 002B     		cmp	r3, #0
 933 005e 00F0A980 		beq	.L52
 934              	.L51:
 305:.\modem.c     ****             // write to AWS server  - 184.72.228.61\",0,0,1
 306:.\modem.c     ****             //if(at_write_command("AT#SD=1,0,50030,\"184.72.228.61\",0,0,1\r","OK",5000u) != 0){
 307:.\modem.c     ****             if(at_write_command("AT#SD=1,0,80,\"api.xively.com\",0,0,1\r","OK",10000u) != 0){
 935              		.loc 1 307 0
 936 0062 40F20000 		movw	r0, #:lower16:.LC9
 937 0066 C0F20000 		movt	r0, #:upper16:.LC9
 938 006a 40F20001 		movw	r1, #:lower16:.LC1
ARM GAS  C:\Users\karunmj\AppData\Local\Temp\ccGaaAqA.s 			page 25


 939 006e C0F20001 		movt	r1, #:upper16:.LC1
 940 0072 42F21072 		movw	r2, #10000
 941 0076 FFF7FEFF 		bl	at_write_command
 942 007a 0346     		mov	r3, r0
 943 007c 002B     		cmp	r3, #0
 944 007e 00F09380 		beq	.L53
 308:.\modem.c     ****                 if(at_write_command("AT#SSEND=1\r",">",10000u) != 0){
 945              		.loc 1 308 0
 946 0082 40F20000 		movw	r0, #:lower16:.LC10
 947 0086 C0F20000 		movt	r0, #:upper16:.LC10
 948 008a 40F20001 		movw	r1, #:lower16:.LC11
 949 008e C0F20001 		movt	r1, #:upper16:.LC11
 950 0092 42F21072 		movw	r2, #10000
 951 0096 FFF7FEFF 		bl	at_write_command
 952 009a 0346     		mov	r3, r0
 953 009c 002B     		cmp	r3, #0
 954 009e 7CD0     		beq	.L54
 955              	.LBB4:
 309:.\modem.c     ****                     char get_str[MAX_PACKET_LENGTH], key_str[100];
 310:.\modem.c     ****                     sprintf(get_str,"GET /v2/feeds/%lu.csv?datastreams=%s HTTP/1.0\r\n", feed_id, c
 956              		.loc 1 310 0
 957 00a0 40F20003 		movw	r3, #:lower16:feed_id
 958 00a4 C0F20003 		movt	r3, #:upper16:feed_id
 959 00a8 1A68     		ldr	r2, [r3, #0]
 960 00aa 07F10801 		add	r1, r7, #8
 961 00ae 3B46     		mov	r3, r7
 962 00b0 0846     		mov	r0, r1
 963 00b2 40F20001 		movw	r1, #:lower16:.LC24
 964 00b6 C0F20001 		movt	r1, #:upper16:.LC24
 965 00ba 1B68     		ldr	r3, [r3, #0]
 966 00bc FFF7FEFF 		bl	sprintf
 311:.\modem.c     ****                     sprintf(key_str,"X-ApiKey: %s\r\n", api_key);
 967              		.loc 1 311 0
 968 00c0 40F20003 		movw	r3, #:lower16:api_key
 969 00c4 C0F20003 		movt	r3, #:upper16:api_key
 970 00c8 1B68     		ldr	r3, [r3, #0]
 971 00ca 07F57C72 		add	r2, r7, #1008
 972 00ce 1046     		mov	r0, r2
 973 00d0 40F20001 		movw	r1, #:lower16:.LC13
 974 00d4 C0F20001 		movt	r1, #:upper16:.LC13
 975 00d8 1A46     		mov	r2, r3
 976 00da FFF7FEFF 		bl	sprintf
 312:.\modem.c     ****                     sprintf(get_str,"%s%s%s%s%s",
 977              		.loc 1 312 0
 978 00de 07F10801 		add	r1, r7, #8
 979 00e2 07F10802 		add	r2, r7, #8
 980 00e6 07F57C7C 		add	ip, r7, #1008
 981 00ea 40F20003 		movw	r3, #:lower16:.LC15
 982 00ee C0F20003 		movt	r3, #:upper16:.LC15
 983 00f2 0093     		str	r3, [sp, #0]
 984 00f4 40F20003 		movw	r3, #:lower16:.LC26
 985 00f8 C0F20003 		movt	r3, #:upper16:.LC26
 986 00fc 0193     		str	r3, [sp, #4]
 987 00fe 40F20003 		movw	r3, #:lower16:.LC27
 988 0102 C0F20003 		movt	r3, #:upper16:.LC27
 989 0106 0293     		str	r3, [sp, #8]
 990 0108 0846     		mov	r0, r1
ARM GAS  C:\Users\karunmj\AppData\Local\Temp\ccGaaAqA.s 			page 26


 991 010a 40F20001 		movw	r1, #:lower16:.LC25
 992 010e C0F20001 		movt	r1, #:upper16:.LC25
 993 0112 6346     		mov	r3, ip
 994 0114 FFF7FEFF 		bl	sprintf
 313:.\modem.c     ****                         get_str,
 314:.\modem.c     ****                         key_str,
 315:.\modem.c     ****                         "Host: api.xively.com\r\n",
 316:.\modem.c     ****                         "Accept: text/csv\r\n",
 317:.\modem.c     ****                         "\r\n\032\r");
 318:.\modem.c     ****                     //at_write_command(get_str,">",10000u);// CyDelay(500u);
 319:.\modem.c     ****                     
 320:.\modem.c     ****                     uart_string_reset();
 995              		.loc 1 320 0
 996 0118 FFF7FEFF 		bl	uart_string_reset
 321:.\modem.c     ****                     
 322:.\modem.c     ****                     /*
 323:.\modem.c     ****                     at_write_command(get_str,">",10000u);// CyDelay(500u);
 324:.\modem.c     ****                     at_write_command("Host: api.xively.com\r\n",">",10000u);// CyDelay(500u);
 325:.\modem.c     ****                     at_write_command("Accept: text/csv\r\n",">",10000u);// CyDelay(500u);
 326:.\modem.c     ****                     at_write_command(key_str,">",10000u);// CyDelay(500u);
 327:.\modem.c     ****                     */
 328:.\modem.c     ****                     // Successfully Sent AT-Commands for GET Request
 329:.\modem.c     ****                     //if(at_write_command("\032\r","OK",15000u) != 0){
 330:.\modem.c     ****                     
 331:.\modem.c     ****                     if(at_write_command(get_str,"SRING: 1",15000u) != 0){
 997              		.loc 1 331 0
 998 011c 07F10803 		add	r3, r7, #8
 999 0120 1846     		mov	r0, r3
 1000 0122 40F20001 		movw	r1, #:lower16:.LC28
 1001 0126 C0F20001 		movt	r1, #:upper16:.LC28
 1002 012a 43F69822 		movw	r2, #15000
 1003 012e FFF7FEFF 		bl	at_write_command
 1004 0132 0346     		mov	r3, r0
 1005 0134 002B     		cmp	r3, #0
 1006 0136 29D0     		beq	.L55
 332:.\modem.c     ****                         // Read GET response from the buffer
 333:.\modem.c     ****                         uart_string_reset();
 1007              		.loc 1 333 0
 1008 0138 FFF7FEFF 		bl	uart_string_reset
 334:.\modem.c     ****                         //CyDelay(5000u);
 335:.\modem.c     ****                         at_write_command("AT#SRECV=1,700\r","OK",15000u);
 1009              		.loc 1 335 0
 1010 013c 40F20000 		movw	r0, #:lower16:.LC29
 1011 0140 C0F20000 		movt	r0, #:upper16:.LC29
 1012 0144 40F20001 		movw	r1, #:lower16:.LC1
 1013 0148 C0F20001 		movt	r1, #:upper16:.LC1
 1014 014c 43F69822 		movw	r2, #15000
 1015 0150 FFF7FEFF 		bl	at_write_command
 336:.\modem.c     ****                         //strcpy(packet, uart_received_string);
 337:.\modem.c     ****                         strcpy(packet, strstr(uart_received_string, "\r\n\r\n")+strlen("\r\n\r\n"))
 1016              		.loc 1 337 0
 1017 0154 40F20000 		movw	r0, #:lower16:uart_received_string
 1018 0158 C0F20000 		movt	r0, #:upper16:uart_received_string
 1019 015c 40F20001 		movw	r1, #:lower16:.LC17
 1020 0160 C0F20001 		movt	r1, #:upper16:.LC17
 1021 0164 FFF7FEFF 		bl	strstr
 1022 0168 0346     		mov	r3, r0
ARM GAS  C:\Users\karunmj\AppData\Local\Temp\ccGaaAqA.s 			page 27


 1023 016a 03F10402 		add	r2, r3, #4
 1024 016e 07F10803 		add	r3, r7, #8
 1025 0172 A3F10403 		sub	r3, r3, #4
 1026 0176 1868     		ldr	r0, [r3, #0]
 1027 0178 1146     		mov	r1, r2
 1028 017a FFF7FEFF 		bl	strcpy
 338:.\modem.c     ****                         
 339:.\modem.c     ****                         CyDelay(1000u); //debug_write("Packet received successfully.");
 1029              		.loc 1 339 0
 1030 017e 4FF47A70 		mov	r0, #1000
 1031 0182 FFF7FEFF 		bl	CyDelay
 340:.\modem.c     ****                         return 1u;   // return 1 if succesfully sent sms
 1032              		.loc 1 340 0
 1033 0186 4FF00103 		mov	r3, #1
 1034 018a 2EE0     		b	.L49
 1035              	.L55:
 341:.\modem.c     **** 
 342:.\modem.c     ****                     }
 343:.\modem.c     ****                     else {
 344:.\modem.c     ****                         debug_write("(at_write_command(sendBuffer,\"OK\"...) Data sent unsuccessful
 1036              		.loc 1 344 0
 1037 018c 40F20000 		movw	r0, #:lower16:.LC19
 1038 0190 C0F20000 		movt	r0, #:upper16:.LC19
 1039 0194 FFF7FEFF 		bl	debug_write
 1040              	.LBE4:
 345:.\modem.c     ****                     }
 346:.\modem.c     ****                 }
 347:.\modem.c     ****                 else {
 348:.\modem.c     ****                     debug_write("(AT#SSEND=1) Could not send data through connected socket.");
 1041              		.loc 1 348 0
 1042 0198 0CE0     		b	.L52
 1043              	.L54:
 1044 019a 40F20000 		movw	r0, #:lower16:.LC20
 1045 019e C0F20000 		movt	r0, #:upper16:.LC20
 1046 01a2 FFF7FEFF 		bl	debug_write
 1047 01a6 05E0     		b	.L52
 1048              	.L53:
 349:.\modem.c     ****                 }
 350:.\modem.c     ****                 //uint8 disconnected = modem_disconnect();
 351:.\modem.c     ****             }
 352:.\modem.c     ****             else {
 353:.\modem.c     ****                 debug_write("(AT#SD=1,0,80,\"api.xively.com\",0,0,1) Could not connect to server.")
 1049              		.loc 1 353 0
 1050 01a8 40F20000 		movw	r0, #:lower16:.LC30
 1051 01ac C0F20000 		movt	r0, #:upper16:.LC30
 1052 01b0 FFF7FEFF 		bl	debug_write
 1053              	.L52:
 354:.\modem.c     ****             }
 355:.\modem.c     ****         }
 356:.\modem.c     ****         
 357:.\modem.c     ****         if (attempts < MAX_GET_ATTEMPTS-1) { // Don't reset the modem on the last attempt since it 
 1054              		.loc 1 357 0
 1055 01b4 97F85734 		ldrb	r3, [r7, #1111]	@ zero_extendqisi2
 1056 01b8 002B     		cmp	r3, #0
 1057 01ba 01D1     		bne	.L57
 358:.\modem.c     ****             modem_reset();
 1058              		.loc 1 358 0
ARM GAS  C:\Users\karunmj\AppData\Local\Temp\ccGaaAqA.s 			page 28


 1059 01bc FFF7FEFF 		bl	modem_reset
 1060              	.L57:
 1061              		.loc 1 302 0
 1062 01c0 97F85734 		ldrb	r3, [r7, #1111]
 1063 01c4 03F10103 		add	r3, r3, #1
 1064 01c8 87F85734 		strb	r3, [r7, #1111]
 1065              	.L50:
 1066 01cc 97F85734 		ldrb	r3, [r7, #1111]	@ zero_extendqisi2
 1067 01d0 012B     		cmp	r3, #1
 1068 01d2 7FF639AF 		bls	.L58
 359:.\modem.c     ****         }
 360:.\modem.c     ****         
 361:.\modem.c     ****     }
 362:.\modem.c     ****     // cut power to rx and tx pins
 363:.\modem.c     ****     //uart_rx_voltage_pin_Write(1u);
 364:.\modem.c     ****     //uart_rx_voltage_pin_Write(1u);
 365:.\modem.c     ****     debug_write("MAX_GET_ATTEMPTS Exceeded.");
 1069              		.loc 1 365 0
 1070 01d6 40F20000 		movw	r0, #:lower16:.LC31
 1071 01da C0F20000 		movt	r0, #:upper16:.LC31
 1072 01de FFF7FEFF 		bl	debug_write
 366:.\modem.c     ****     modem_disconnect();
 1073              		.loc 1 366 0
 1074 01e2 FFF7FEFF 		bl	modem_disconnect
 367:.\modem.c     ****     return 0u;   // return 0 if failure to send sms
 1075              		.loc 1 367 0
 1076 01e6 4FF00003 		mov	r3, #0
 1077              	.L49:
 368:.\modem.c     **** }
 1078              		.loc 1 368 0
 1079 01ea 1846     		mov	r0, r3
 1080 01ec 07F15807 		add	r7, r7, #88
 1081 01f0 07F58067 		add	r7, r7, #1024
 1082 01f4 BD46     		mov	sp, r7
 1083 01f6 80BD     		pop	{r7, pc}
 1084              		.cfi_endproc
 1085              	.LFE38:
 1086              		.size	modem_get_packet, .-modem_get_packet
 1087              		.section	.rodata
 1088 03bb 00       		.align	2
 1089              	.LC32:
 1090 03bc 6C6F636B 		.ascii	"lock\000"
 1090      00
 1091 03c1 000000   		.align	2
 1092              	.LC33:
 1093 03c4 7B226D65 		.ascii	"{\"method\":\"put\",\"resource\":\"/feeds/%lu\",\"h"
 1093      74686F64 
 1093      223A2270 
 1093      7574222C 
 1093      22726573 
 1094 03ee 65616465 		.ascii	"eaders\":{\"X-ApiKey\":\"%s\"},\"body\":{\"version\""
 1094      7273223A 
 1094      7B22582D 
 1094      4170694B 
 1094      6579223A 
 1095 0419 3A22312E 		.ascii	":\"1.0.0\",\"datastreams\":[{ \"id\" : \"lock\", \""
 1095      302E3022 
ARM GAS  C:\Users\karunmj\AppData\Local\Temp\ccGaaAqA.s 			page 29


 1095      2C226461 
 1095      74617374 
 1095      7265616D 
 1096 0443 63757272 		.ascii	"current_value\" : \"%u\"}]}}\000"
 1096      656E745F 
 1096      76616C75 
 1096      6522203A 
 1096      20222575 
 1097 045d 000000   		.section	.text.modem_acquire_lock,"ax",%progbits
 1098              		.align	2
 1099              		.global	modem_acquire_lock
 1100              		.thumb
 1101              		.thumb_func
 1102              		.type	modem_acquire_lock, %function
 1103              	modem_acquire_lock:
 1104              	.LFB39:
 369:.\modem.c     **** 
 370:.\modem.c     **** uint8 modem_acquire_lock(){
 1105              		.loc 1 370 0
 1106              		.cfi_startproc
 1107              		@ args = 0, pretend = 0, frame = 320
 1108              		@ frame_needed = 1, uses_anonymous_args = 0
 1109 0000 80B5     		push	{r7, lr}
 1110              	.LCFI24:
 1111              		.cfi_def_cfa_offset 8
 1112 0002 D2B0     		sub	sp, sp, #328
 1113              	.LCFI25:
 1114              		.cfi_def_cfa_offset 336
 1115 0004 02AF     		add	r7, sp, #8
 1116              		.cfi_offset 14, -4
 1117              		.cfi_offset 7, -8
 1118              	.LCFI26:
 1119              		.cfi_def_cfa 7, 328
 371:.\modem.c     ****     
 372:.\modem.c     ****     /*
 373:.\modem.c     ****     if (lock_acquired == 1u) {
 374:.\modem.c     ****         return 1u;
 375:.\modem.c     ****     }
 376:.\modem.c     ****     */
 377:.\modem.c     ****     
 378:.\modem.c     ****     uint8 lock = 0u;
 1120              		.loc 1 378 0
 1121 0006 4FF00003 		mov	r3, #0
 1122 000a 87F83331 		strb	r3, [r7, #307]
 379:.\modem.c     ****     uint32 i = 0u, delay = 100u, lock_attempts = 2u;    
 1123              		.loc 1 379 0
 1124 000e 4FF00003 		mov	r3, #0
 1125 0012 C7F83431 		str	r3, [r7, #308]
 1126 0016 4FF06403 		mov	r3, #100
 1127 001a C7F83831 		str	r3, [r7, #312]
 1128 001e 4FF00203 		mov	r3, #2
 1129 0022 C7F83C31 		str	r3, [r7, #316]
 380:.\modem.c     ****     char data_packet[300] = {0};
 1130              		.loc 1 380 0
 1131 0026 07F10403 		add	r3, r7, #4
 1132 002a 1A46     		mov	r2, r3
 1133 002c 4FF49673 		mov	r3, #300
ARM GAS  C:\Users\karunmj\AppData\Local\Temp\ccGaaAqA.s 			page 30


 1134 0030 1046     		mov	r0, r2
 1135 0032 4FF00001 		mov	r1, #0
 1136 0036 1A46     		mov	r2, r3
 1137 0038 FFF7FEFF 		bl	memset
 381:.\modem.c     ****             
 382:.\modem.c     ****     for(i=0u; i < lock_attempts; i++) {
 1138              		.loc 1 382 0
 1139 003c 4FF00003 		mov	r3, #0
 1140 0040 C7F83431 		str	r3, [r7, #308]
 1141 0044 5BE0     		b	.L61
 1142              	.L64:
 383:.\modem.c     ****         if(modem_get_packet(data_packet,"lock")){
 1143              		.loc 1 383 0
 1144 0046 07F10403 		add	r3, r7, #4
 1145 004a 1846     		mov	r0, r3
 1146 004c 40F20001 		movw	r1, #:lower16:.LC32
 1147 0050 C0F20001 		movt	r1, #:upper16:.LC32
 1148 0054 FFF7FEFF 		bl	modem_get_packet
 1149 0058 0346     		mov	r3, r0
 1150 005a 002B     		cmp	r3, #0
 1151 005c 45D0     		beq	.L62
 384:.\modem.c     ****             if(packet_get_uint8(data_packet, "lock", &lock) && lock == 0u){
 1152              		.loc 1 384 0
 1153 005e 07F10402 		add	r2, r7, #4
 1154 0062 07F59873 		add	r3, r7, #304
 1155 0066 03F10303 		add	r3, r3, #3
 1156 006a 1046     		mov	r0, r2
 1157 006c 40F20001 		movw	r1, #:lower16:.LC32
 1158 0070 C0F20001 		movt	r1, #:upper16:.LC32
 1159 0074 1A46     		mov	r2, r3
 1160 0076 FFF7FEFF 		bl	packet_get_uint8
 1161 007a 0346     		mov	r3, r0
 1162 007c 002B     		cmp	r3, #0
 1163 007e 34D0     		beq	.L62
 1164 0080 97F83331 		ldrb	r3, [r7, #307]	@ zero_extendqisi2
 1165 0084 002B     		cmp	r3, #0
 1166 0086 30D1     		bne	.L62
 385:.\modem.c     ****             
 386:.\modem.c     ****                 memset(&data_packet[0],0,sizeof(data_packet));
 1167              		.loc 1 386 0
 1168 0088 07F10403 		add	r3, r7, #4
 1169 008c 1846     		mov	r0, r3
 1170 008e 4FF00001 		mov	r1, #0
 1171 0092 4FF49672 		mov	r2, #300
 1172 0096 FFF7FEFF 		bl	memset
 387:.\modem.c     ****                 sprintf(data_packet, "{"
 1173              		.loc 1 387 0
 1174 009a 40F20003 		movw	r3, #:lower16:feed_id
 1175 009e C0F20003 		movt	r3, #:upper16:feed_id
 1176 00a2 1A68     		ldr	r2, [r3, #0]
 1177 00a4 40F20003 		movw	r3, #:lower16:api_key
 1178 00a8 C0F20003 		movt	r3, #:upper16:api_key
 1179 00ac 1B68     		ldr	r3, [r3, #0]
 1180 00ae 07F10401 		add	r1, r7, #4
 1181 00b2 4FF00100 		mov	r0, #1
 1182 00b6 0090     		str	r0, [sp, #0]
 1183 00b8 0846     		mov	r0, r1
ARM GAS  C:\Users\karunmj\AppData\Local\Temp\ccGaaAqA.s 			page 31


 1184 00ba 40F20001 		movw	r1, #:lower16:.LC33
 1185 00be C0F20001 		movt	r1, #:upper16:.LC33
 1186 00c2 FFF7FEFF 		bl	sprintf
 388:.\modem.c     ****                       "\"method\":\"put\","
 389:.\modem.c     ****                       "\"resource\":\"/feeds/%lu\","
 390:.\modem.c     ****                       "\"headers\":{\"X-ApiKey\":\"%s\"},"
 391:.\modem.c     ****                       "\"body\":{\"version\":\"1.0.0\",\"datastreams\":["
 392:.\modem.c     ****                             "{ \"id\" : \"lock\", \"current_value\" : \"%u\"}"
 393:.\modem.c     ****                       "]}}",
 394:.\modem.c     ****                       feed_id,api_key,1u);
 395:.\modem.c     ****                       
 396:.\modem.c     ****                 if(modem_send_packet(data_packet)) {
 1187              		.loc 1 396 0
 1188 00c6 07F10403 		add	r3, r7, #4
 1189 00ca 1846     		mov	r0, r3
 1190 00cc FFF7FEFF 		bl	modem_send_packet
 1191 00d0 0346     		mov	r3, r0
 1192 00d2 002B     		cmp	r3, #0
 1193 00d4 09D0     		beq	.L62
 397:.\modem.c     ****                     lock_acquired = 1u;
 1194              		.loc 1 397 0
 1195 00d6 40F20003 		movw	r3, #:lower16:lock_acquired
 1196 00da C0F20003 		movt	r3, #:upper16:lock_acquired
 1197 00de 4FF00102 		mov	r2, #1
 1198 00e2 1A70     		strb	r2, [r3, #0]
 398:.\modem.c     ****                     return 1u;
 1199              		.loc 1 398 0
 1200 00e4 4FF00103 		mov	r3, #1
 1201 00e8 11E0     		b	.L63
 1202              	.L62:
 399:.\modem.c     ****                 }
 400:.\modem.c     ****             }  
 401:.\modem.c     ****         }
 402:.\modem.c     ****         CyDelay(delay);
 1203              		.loc 1 402 0
 1204 00ea D7F83801 		ldr	r0, [r7, #312]
 1205 00ee FFF7FEFF 		bl	CyDelay
 1206              		.loc 1 382 0
 1207 00f2 D7F83431 		ldr	r3, [r7, #308]
 1208 00f6 03F10103 		add	r3, r3, #1
 1209 00fa C7F83431 		str	r3, [r7, #308]
 1210              	.L61:
 1211 00fe D7F83421 		ldr	r2, [r7, #308]
 1212 0102 D7F83C31 		ldr	r3, [r7, #316]
 1213 0106 9A42     		cmp	r2, r3
 1214 0108 9DD3     		bcc	.L64
 403:.\modem.c     ****     }
 404:.\modem.c     ****          
 405:.\modem.c     ****     return 0u;
 1215              		.loc 1 405 0
 1216 010a 4FF00003 		mov	r3, #0
 1217              	.L63:
 406:.\modem.c     **** }
 1218              		.loc 1 406 0
 1219 010e 1846     		mov	r0, r3
 1220 0110 07F5A077 		add	r7, r7, #320
 1221 0114 BD46     		mov	sp, r7
ARM GAS  C:\Users\karunmj\AppData\Local\Temp\ccGaaAqA.s 			page 32


 1222 0116 80BD     		pop	{r7, pc}
 1223              		.cfi_endproc
 1224              	.LFE39:
 1225              		.size	modem_acquire_lock, .-modem_acquire_lock
 1226              		.section	.text.modem_release_lock,"ax",%progbits
 1227              		.align	2
 1228              		.global	modem_release_lock
 1229              		.thumb
 1230              		.thumb_func
 1231              		.type	modem_release_lock, %function
 1232              	modem_release_lock:
 1233              	.LFB40:
 407:.\modem.c     **** 
 408:.\modem.c     **** uint8 modem_release_lock(){
 1234              		.loc 1 408 0
 1235              		.cfi_startproc
 1236              		@ args = 0, pretend = 0, frame = 312
 1237              		@ frame_needed = 1, uses_anonymous_args = 0
 1238 0000 80B5     		push	{r7, lr}
 1239              	.LCFI27:
 1240              		.cfi_def_cfa_offset 8
 1241 0002 D0B0     		sub	sp, sp, #320
 1242              	.LCFI28:
 1243              		.cfi_def_cfa_offset 328
 1244 0004 02AF     		add	r7, sp, #8
 1245              		.cfi_offset 14, -4
 1246              		.cfi_offset 7, -8
 1247              	.LCFI29:
 1248              		.cfi_def_cfa 7, 320
 409:.\modem.c     ****     /*
 410:.\modem.c     ****     if (lock_acquired == 0u) {
 411:.\modem.c     ****         return 1u;
 412:.\modem.c     ****     }
 413:.\modem.c     ****     */
 414:.\modem.c     ****     
 415:.\modem.c     ****     uint32 i = 0u, delay = 100u, lock_attempts = 2u;    
 1249              		.loc 1 415 0
 1250 0006 4FF00003 		mov	r3, #0
 1251 000a C7F82C31 		str	r3, [r7, #300]
 1252 000e 4FF06403 		mov	r3, #100
 1253 0012 C7F83031 		str	r3, [r7, #304]
 1254 0016 4FF00203 		mov	r3, #2
 1255 001a C7F83431 		str	r3, [r7, #308]
 416:.\modem.c     ****     char data_packet[300] = {0};
 1256              		.loc 1 416 0
 1257 001e 3B46     		mov	r3, r7
 1258 0020 1A46     		mov	r2, r3
 1259 0022 4FF49673 		mov	r3, #300
 1260 0026 1046     		mov	r0, r2
 1261 0028 4FF00001 		mov	r1, #0
 1262 002c 1A46     		mov	r2, r3
 1263 002e FFF7FEFF 		bl	memset
 417:.\modem.c     ****     
 418:.\modem.c     ****     sprintf(data_packet, "{"
 1264              		.loc 1 418 0
 1265 0032 40F20003 		movw	r3, #:lower16:feed_id
 1266 0036 C0F20003 		movt	r3, #:upper16:feed_id
ARM GAS  C:\Users\karunmj\AppData\Local\Temp\ccGaaAqA.s 			page 33


 1267 003a 1A68     		ldr	r2, [r3, #0]
 1268 003c 40F20003 		movw	r3, #:lower16:api_key
 1269 0040 C0F20003 		movt	r3, #:upper16:api_key
 1270 0044 1B68     		ldr	r3, [r3, #0]
 1271 0046 3946     		mov	r1, r7
 1272 0048 4FF00000 		mov	r0, #0
 1273 004c 0090     		str	r0, [sp, #0]
 1274 004e 0846     		mov	r0, r1
 1275 0050 40F20001 		movw	r1, #:lower16:.LC33
 1276 0054 C0F20001 		movt	r1, #:upper16:.LC33
 1277 0058 FFF7FEFF 		bl	sprintf
 419:.\modem.c     ****           "\"method\":\"put\","
 420:.\modem.c     ****           "\"resource\":\"/feeds/%lu\","
 421:.\modem.c     ****           "\"headers\":{\"X-ApiKey\":\"%s\"},"
 422:.\modem.c     ****           "\"body\":{\"version\":\"1.0.0\",\"datastreams\":["
 423:.\modem.c     ****                 "{ \"id\" : \"lock\", \"current_value\" : \"%u\"}"
 424:.\modem.c     ****           "]}}",
 425:.\modem.c     ****           feed_id, api_key, 0u);
 426:.\modem.c     ****         
 427:.\modem.c     ****     for(i=0u; i < lock_attempts; i++) {
 1278              		.loc 1 427 0
 1279 005c 4FF00003 		mov	r3, #0
 1280 0060 C7F82C31 		str	r3, [r7, #300]
 1281 0064 1AE0     		b	.L67
 1282              	.L70:
 428:.\modem.c     **** 
 429:.\modem.c     ****         if(modem_send_packet(data_packet)) {
 1283              		.loc 1 429 0
 1284 0066 3B46     		mov	r3, r7
 1285 0068 1846     		mov	r0, r3
 1286 006a FFF7FEFF 		bl	modem_send_packet
 1287 006e 0346     		mov	r3, r0
 1288 0070 002B     		cmp	r3, #0
 1289 0072 09D0     		beq	.L68
 430:.\modem.c     ****             lock_acquired = 0u;
 1290              		.loc 1 430 0
 1291 0074 40F20003 		movw	r3, #:lower16:lock_acquired
 1292 0078 C0F20003 		movt	r3, #:upper16:lock_acquired
 1293 007c 4FF00002 		mov	r2, #0
 1294 0080 1A70     		strb	r2, [r3, #0]
 431:.\modem.c     ****             return 1u;
 1295              		.loc 1 431 0
 1296 0082 4FF00103 		mov	r3, #1
 1297 0086 11E0     		b	.L69
 1298              	.L68:
 432:.\modem.c     ****         }
 433:.\modem.c     ****         
 434:.\modem.c     ****         CyDelay(delay);
 1299              		.loc 1 434 0
 1300 0088 D7F83001 		ldr	r0, [r7, #304]
 1301 008c FFF7FEFF 		bl	CyDelay
 1302              		.loc 1 427 0
 1303 0090 D7F82C31 		ldr	r3, [r7, #300]
 1304 0094 03F10103 		add	r3, r3, #1
 1305 0098 C7F82C31 		str	r3, [r7, #300]
 1306              	.L67:
 1307 009c D7F82C21 		ldr	r2, [r7, #300]
ARM GAS  C:\Users\karunmj\AppData\Local\Temp\ccGaaAqA.s 			page 34


 1308 00a0 D7F83431 		ldr	r3, [r7, #308]
 1309 00a4 9A42     		cmp	r2, r3
 1310 00a6 DED3     		bcc	.L70
 435:.\modem.c     ****     }
 436:.\modem.c     ****          
 437:.\modem.c     ****     return 0u;
 1311              		.loc 1 437 0
 1312 00a8 4FF00003 		mov	r3, #0
 1313              	.L69:
 438:.\modem.c     **** }
 1314              		.loc 1 438 0
 1315 00ac 1846     		mov	r0, r3
 1316 00ae 07F59C77 		add	r7, r7, #312
 1317 00b2 BD46     		mov	sp, r7
 1318 00b4 80BD     		pop	{r7, pc}
 1319              		.cfi_endproc
 1320              	.LFE40:
 1321              		.size	modem_release_lock, .-modem_release_lock
 1322 00b6 00BF     		.section	.text.uart_string_reset,"ax",%progbits
 1323              		.align	2
 1324              		.global	uart_string_reset
 1325              		.thumb
 1326              		.thumb_func
 1327              		.type	uart_string_reset, %function
 1328              	uart_string_reset:
 1329              	.LFB41:
 439:.\modem.c     **** 
 440:.\modem.c     **** void uart_string_reset(){
 1330              		.loc 1 440 0
 1331              		.cfi_startproc
 1332              		@ args = 0, pretend = 0, frame = 0
 1333              		@ frame_needed = 1, uses_anonymous_args = 0
 1334 0000 80B5     		push	{r7, lr}
 1335              	.LCFI30:
 1336              		.cfi_def_cfa_offset 8
 1337 0002 00AF     		add	r7, sp, #0
 1338              		.cfi_offset 14, -4
 1339              		.cfi_offset 7, -8
 1340              	.LCFI31:
 1341              		.cfi_def_cfa_register 7
 441:.\modem.c     ****     // reset uart_received_string to zero
 442:.\modem.c     ****     /*
 443:.\modem.c     ****     uint16 i = 0;
 444:.\modem.c     ****     
 445:.\modem.c     ****     for(i = 0; i < 700; i++){
 446:.\modem.c     ****         uart_received_string[i] = 0;
 447:.\modem.c     ****     }
 448:.\modem.c     ****     */
 449:.\modem.c     ****     memset(&uart_received_string[0],0,sizeof(uart_received_string));
 1342              		.loc 1 449 0
 1343 0004 40F20000 		movw	r0, #:lower16:uart_received_string
 1344 0008 C0F20000 		movt	r0, #:upper16:uart_received_string
 1345 000c 4FF00001 		mov	r1, #0
 1346 0010 4FF42F72 		mov	r2, #700
 1347 0014 FFF7FEFF 		bl	memset
 450:.\modem.c     ****     uart_string_index = 0;
 1348              		.loc 1 450 0
ARM GAS  C:\Users\karunmj\AppData\Local\Temp\ccGaaAqA.s 			page 35


 1349 0018 40F20003 		movw	r3, #:lower16:uart_string_index
 1350 001c C0F20003 		movt	r3, #:upper16:uart_string_index
 1351 0020 4FF00002 		mov	r2, #0
 1352 0024 1A80     		strh	r2, [r3, #0]	@ movhi
 451:.\modem.c     ****     uart_ClearRxBuffer();
 1353              		.loc 1 451 0
 1354 0026 FFF7FEFF 		bl	uart_ClearRxBuffer
 452:.\modem.c     **** //    uart_ClearTxBuffer();
 453:.\modem.c     **** }
 1355              		.loc 1 453 0
 1356 002a 80BD     		pop	{r7, pc}
 1357              		.cfi_endproc
 1358              	.LFE41:
 1359              		.size	uart_string_reset, .-uart_string_reset
 1360              		.section	.text.isr_byte_rx,"ax",%progbits
 1361              		.align	2
 1362              		.global	isr_byte_rx
 1363              		.thumb
 1364              		.thumb_func
 1365              		.type	isr_byte_rx, %function
 1366              	isr_byte_rx:
 1367              	.LFB42:
 454:.\modem.c     **** 
 455:.\modem.c     **** // this function fires when uart rx receives bytes (when modem is sending bytes)
 456:.\modem.c     **** CY_ISR(isr_byte_rx){
 1368              		.loc 1 456 0
 1369              		.cfi_startproc
 1370              		@ args = 0, pretend = 0, frame = 8
 1371              		@ frame_needed = 1, uses_anonymous_args = 0
 1372 0000 80B5     		push	{r7, lr}
 1373              	.LCFI32:
 1374              		.cfi_def_cfa_offset 8
 1375 0002 82B0     		sub	sp, sp, #8
 1376              	.LCFI33:
 1377              		.cfi_def_cfa_offset 16
 1378 0004 00AF     		add	r7, sp, #0
 1379              		.cfi_offset 14, -4
 1380              		.cfi_offset 7, -8
 1381              	.LCFI34:
 1382              		.cfi_def_cfa_register 7
 457:.\modem.c     ****     while (uart_GetRxBufferSize()){
 1383              		.loc 1 457 0
 1384 0006 1FE0     		b	.L75
 1385              	.L76:
 1386              	.LBB5:
 458:.\modem.c     ****         // hold the next char in the rx register as a temporary variable
 459:.\modem.c     ****         char rx_char_hold = uart_GetChar();
 1387              		.loc 1 459 0
 1388 0008 FFF7FEFF 		bl	uart_GetChar
 1389 000c 0346     		mov	r3, r0
 1390 000e FB71     		strb	r3, [r7, #7]
 460:.\modem.c     ****         
 461:.\modem.c     ****         // store the char in uart_received_string
 462:.\modem.c     ****         if(rx_char_hold){
 1391              		.loc 1 462 0
 1392 0010 FB79     		ldrb	r3, [r7, #7]	@ zero_extendqisi2
 1393 0012 002B     		cmp	r3, #0
ARM GAS  C:\Users\karunmj\AppData\Local\Temp\ccGaaAqA.s 			page 36


 1394 0014 18D0     		beq	.L75
 463:.\modem.c     ****             uart_received_string[uart_string_index] = rx_char_hold;
 1395              		.loc 1 463 0
 1396 0016 40F20003 		movw	r3, #:lower16:uart_string_index
 1397 001a C0F20003 		movt	r3, #:upper16:uart_string_index
 1398 001e 1B88     		ldrh	r3, [r3, #0]
 1399 0020 1A46     		mov	r2, r3
 1400 0022 40F20003 		movw	r3, #:lower16:uart_received_string
 1401 0026 C0F20003 		movt	r3, #:upper16:uart_received_string
 1402 002a F979     		ldrb	r1, [r7, #7]
 1403 002c 9954     		strb	r1, [r3, r2]
 464:.\modem.c     ****             uart_string_index++;
 1404              		.loc 1 464 0
 1405 002e 40F20003 		movw	r3, #:lower16:uart_string_index
 1406 0032 C0F20003 		movt	r3, #:upper16:uart_string_index
 1407 0036 1B88     		ldrh	r3, [r3, #0]
 1408 0038 03F10103 		add	r3, r3, #1
 1409 003c 9AB2     		uxth	r2, r3
 1410 003e 40F20003 		movw	r3, #:lower16:uart_string_index
 1411 0042 C0F20003 		movt	r3, #:upper16:uart_string_index
 1412 0046 1A80     		strh	r2, [r3, #0]	@ movhi
 1413              	.L75:
 1414              	.LBE5:
 1415              		.loc 1 457 0
 1416 0048 FFF7FEFF 		bl	uart_GetRxBufferSize
 1417 004c 0346     		mov	r3, r0
 1418 004e 002B     		cmp	r3, #0
 1419 0050 DAD1     		bne	.L76
 465:.\modem.c     ****         }
 466:.\modem.c     ****     }
 467:.\modem.c     **** }
 1420              		.loc 1 467 0
 1421 0052 07F10807 		add	r7, r7, #8
 1422 0056 BD46     		mov	sp, r7
 1423 0058 80BD     		pop	{r7, pc}
 1424              		.cfi_endproc
 1425              	.LFE42:
 1426              		.size	isr_byte_rx, .-isr_byte_rx
 1427 005a 00BF     		.text
 1428              	.Letext0: