ARM GAS  C:\Users\karunmj\AppData\Local\Temp\cchjzSmY.s 			page 1


   1              		.syntax unified
   2              		.cpu cortex-m3
   3              		.fpu softvfp
   4              		.eabi_attribute 20, 1
   5              		.eabi_attribute 21, 1
   6              		.eabi_attribute 23, 3
   7              		.eabi_attribute 24, 1
   8              		.eabi_attribute 25, 1
   9              		.eabi_attribute 26, 1
  10              		.eabi_attribute 30, 6
  11              		.eabi_attribute 18, 4
  12              		.thumb
  13              		.file	"NEOMOTE_1_I2C_0.c"
  20 0000 0D010000 		.text
  20      02009600 
  20      00000201 
  20      FB0E0D00 
  20      01010101 
  21              	.Ltext0:
  22              		.cfi_sections	.debug_frame
  23              		.global	NEOMOTE_1_I2C_0_initVar
  24              		.bss
  25              		.type	NEOMOTE_1_I2C_0_initVar, %object
  26              		.size	NEOMOTE_1_I2C_0_initVar, 1
  27              	NEOMOTE_1_I2C_0_initVar:
  28 0000 00       		.space	1
  29              		.comm	NEOMOTE_1_I2C_0_state,1,1
  30              		.section	.text.NEOMOTE_1_I2C_0_Init,"ax",%progbits
  31              		.align	2
  32              		.global	NEOMOTE_1_I2C_0_Init
  33              		.thumb
  34              		.thumb_func
  35              		.type	NEOMOTE_1_I2C_0_Init, %function
  36              	NEOMOTE_1_I2C_0_Init:
  37              	.LFB0:
  38              		.file 1 ".\\Generated_Source\\PSoC5\\NEOMOTE_1_I2C_0.c"
   1:.\Generated_Source\PSoC5/NEOMOTE_1_I2C_0.c **** /*******************************************************************************
   2:.\Generated_Source\PSoC5/NEOMOTE_1_I2C_0.c **** * File Name: NEOMOTE_1_I2C_0.c
   3:.\Generated_Source\PSoC5/NEOMOTE_1_I2C_0.c **** * Version 3.30
   4:.\Generated_Source\PSoC5/NEOMOTE_1_I2C_0.c **** *
   5:.\Generated_Source\PSoC5/NEOMOTE_1_I2C_0.c **** * Description:
   6:.\Generated_Source\PSoC5/NEOMOTE_1_I2C_0.c **** *  This file provides the source code of APIs for the I2C component.
   7:.\Generated_Source\PSoC5/NEOMOTE_1_I2C_0.c **** *  Actual protocol and operation code resides in the interrupt service routine
   8:.\Generated_Source\PSoC5/NEOMOTE_1_I2C_0.c **** *  file.
   9:.\Generated_Source\PSoC5/NEOMOTE_1_I2C_0.c **** *
  10:.\Generated_Source\PSoC5/NEOMOTE_1_I2C_0.c **** * Note:
  11:.\Generated_Source\PSoC5/NEOMOTE_1_I2C_0.c **** *
  12:.\Generated_Source\PSoC5/NEOMOTE_1_I2C_0.c **** *******************************************************************************
  13:.\Generated_Source\PSoC5/NEOMOTE_1_I2C_0.c **** * Copyright 2008-2012, Cypress Semiconductor Corporation. All rights reserved.
  14:.\Generated_Source\PSoC5/NEOMOTE_1_I2C_0.c **** * You may use this file only in accordance with the license, terms, conditions,
  15:.\Generated_Source\PSoC5/NEOMOTE_1_I2C_0.c **** * disclaimers, and limitations in the end user license agreement accompanying
ARM GAS  C:\Users\karunmj\AppData\Local\Temp\cchjzSmY.s 			page 2


  16:.\Generated_Source\PSoC5/NEOMOTE_1_I2C_0.c **** * the software package with which this file was provided.
  17:.\Generated_Source\PSoC5/NEOMOTE_1_I2C_0.c **** *******************************************************************************/
  18:.\Generated_Source\PSoC5/NEOMOTE_1_I2C_0.c **** 
  19:.\Generated_Source\PSoC5/NEOMOTE_1_I2C_0.c **** #include "NEOMOTE_1_I2C_0_PVT.h"
  20:.\Generated_Source\PSoC5/NEOMOTE_1_I2C_0.c **** 
  21:.\Generated_Source\PSoC5/NEOMOTE_1_I2C_0.c **** 
  22:.\Generated_Source\PSoC5/NEOMOTE_1_I2C_0.c **** /**********************************
  23:.\Generated_Source\PSoC5/NEOMOTE_1_I2C_0.c **** *      System variables
  24:.\Generated_Source\PSoC5/NEOMOTE_1_I2C_0.c **** **********************************/
  25:.\Generated_Source\PSoC5/NEOMOTE_1_I2C_0.c **** 
  26:.\Generated_Source\PSoC5/NEOMOTE_1_I2C_0.c **** uint8 NEOMOTE_1_I2C_0_initVar = 0u;    /* Defines if component was initialized */
  27:.\Generated_Source\PSoC5/NEOMOTE_1_I2C_0.c **** 
  28:.\Generated_Source\PSoC5/NEOMOTE_1_I2C_0.c **** volatile uint8 NEOMOTE_1_I2C_0_state;  /* Current state of I2C FSM */
  29:.\Generated_Source\PSoC5/NEOMOTE_1_I2C_0.c **** 
  30:.\Generated_Source\PSoC5/NEOMOTE_1_I2C_0.c **** 
  31:.\Generated_Source\PSoC5/NEOMOTE_1_I2C_0.c **** /*******************************************************************************
  32:.\Generated_Source\PSoC5/NEOMOTE_1_I2C_0.c **** * Function Name: NEOMOTE_1_I2C_0_Init
  33:.\Generated_Source\PSoC5/NEOMOTE_1_I2C_0.c **** ********************************************************************************
  34:.\Generated_Source\PSoC5/NEOMOTE_1_I2C_0.c **** *
  35:.\Generated_Source\PSoC5/NEOMOTE_1_I2C_0.c **** * Summary:
  36:.\Generated_Source\PSoC5/NEOMOTE_1_I2C_0.c **** *  Initializes I2C registers with initial values provided from customizer.
  37:.\Generated_Source\PSoC5/NEOMOTE_1_I2C_0.c **** *
  38:.\Generated_Source\PSoC5/NEOMOTE_1_I2C_0.c **** * Parameters:
  39:.\Generated_Source\PSoC5/NEOMOTE_1_I2C_0.c **** *  None
  40:.\Generated_Source\PSoC5/NEOMOTE_1_I2C_0.c **** *
  41:.\Generated_Source\PSoC5/NEOMOTE_1_I2C_0.c **** * Return:
  42:.\Generated_Source\PSoC5/NEOMOTE_1_I2C_0.c **** *  None
  43:.\Generated_Source\PSoC5/NEOMOTE_1_I2C_0.c **** *
  44:.\Generated_Source\PSoC5/NEOMOTE_1_I2C_0.c **** * Global variables:
  45:.\Generated_Source\PSoC5/NEOMOTE_1_I2C_0.c **** *  None
  46:.\Generated_Source\PSoC5/NEOMOTE_1_I2C_0.c **** *
  47:.\Generated_Source\PSoC5/NEOMOTE_1_I2C_0.c **** * Reentrant:
  48:.\Generated_Source\PSoC5/NEOMOTE_1_I2C_0.c **** *  No
  49:.\Generated_Source\PSoC5/NEOMOTE_1_I2C_0.c **** *
  50:.\Generated_Source\PSoC5/NEOMOTE_1_I2C_0.c **** *******************************************************************************/
  51:.\Generated_Source\PSoC5/NEOMOTE_1_I2C_0.c **** void NEOMOTE_1_I2C_0_Init(void) 
  52:.\Generated_Source\PSoC5/NEOMOTE_1_I2C_0.c **** {
  39              		.loc 1 52 0
  40              		.cfi_startproc
  41              		@ args = 0, pretend = 0, frame = 0
  42              		@ frame_needed = 1, uses_anonymous_args = 0
  43 0000 80B5     		push	{r7, lr}
  44              	.LCFI0:
  45              		.cfi_def_cfa_offset 8
  46 0002 00AF     		add	r7, sp, #0
  47              		.cfi_offset 14, -4
  48              		.cfi_offset 7, -8
  49              	.LCFI1:
  50              		.cfi_def_cfa_register 7
  53:.\Generated_Source\PSoC5/NEOMOTE_1_I2C_0.c ****     #if(NEOMOTE_1_I2C_0_FF_IMPLEMENTED)
  54:.\Generated_Source\PSoC5/NEOMOTE_1_I2C_0.c ****         NEOMOTE_1_I2C_0_CFG_REG  = NEOMOTE_1_I2C_0_DEFAULT_CFG;
  51              		.loc 1 54 0
  52 0004 44F6D613 		movw	r3, #:lower16:1073760726
  53 0008 C4F20003 		movt	r3, #:upper16:1073760726
  54 000c 4FF00202 		mov	r2, #2
  55 0010 1A70     		strb	r2, [r3, #0]
  55:.\Generated_Source\PSoC5/NEOMOTE_1_I2C_0.c ****         NEOMOTE_1_I2C_0_XCFG_REG = NEOMOTE_1_I2C_0_DEFAULT_XCFG;
ARM GAS  C:\Users\karunmj\AppData\Local\Temp\cchjzSmY.s 			page 3


  56              		.loc 1 55 0
  57 0012 44F6C813 		movw	r3, #:lower16:1073760712
  58 0016 C4F20003 		movt	r3, #:upper16:1073760712
  59 001a 6FF07E02 		mvn	r2, #126
  60 001e 1A70     		strb	r2, [r3, #0]
  56:.\Generated_Source\PSoC5/NEOMOTE_1_I2C_0.c **** 
  57:.\Generated_Source\PSoC5/NEOMOTE_1_I2C_0.c ****         #if(CY_PSOC5A)
  58:.\Generated_Source\PSoC5/NEOMOTE_1_I2C_0.c ****             NEOMOTE_1_I2C_0_CLKDIV_REG  = LO8(NEOMOTE_1_I2C_0_DEFAULT_DIVIDE_FACTOR);
  59:.\Generated_Source\PSoC5/NEOMOTE_1_I2C_0.c ****         #else
  60:.\Generated_Source\PSoC5/NEOMOTE_1_I2C_0.c ****             NEOMOTE_1_I2C_0_CLKDIV1_REG = LO8(NEOMOTE_1_I2C_0_DEFAULT_DIVIDE_FACTOR);
  61              		.loc 1 60 0
  62 0020 44F6DB13 		movw	r3, #:lower16:1073760731
  63 0024 C4F20003 		movt	r3, #:upper16:1073760731
  64 0028 4FF00F02 		mov	r2, #15
  65 002c 1A70     		strb	r2, [r3, #0]
  61:.\Generated_Source\PSoC5/NEOMOTE_1_I2C_0.c ****             NEOMOTE_1_I2C_0_CLKDIV2_REG = HI8(NEOMOTE_1_I2C_0_DEFAULT_DIVIDE_FACTOR);
  66              		.loc 1 61 0
  67 002e 44F6DC13 		movw	r3, #:lower16:1073760732
  68 0032 C4F20003 		movt	r3, #:upper16:1073760732
  69 0036 4FF00002 		mov	r2, #0
  70 003a 1A70     		strb	r2, [r3, #0]
  62:.\Generated_Source\PSoC5/NEOMOTE_1_I2C_0.c ****         #endif /* (CY_PSOC5A) */
  63:.\Generated_Source\PSoC5/NEOMOTE_1_I2C_0.c **** 
  64:.\Generated_Source\PSoC5/NEOMOTE_1_I2C_0.c ****     #else
  65:.\Generated_Source\PSoC5/NEOMOTE_1_I2C_0.c ****         uint8 enableInterrupts;
  66:.\Generated_Source\PSoC5/NEOMOTE_1_I2C_0.c **** 
  67:.\Generated_Source\PSoC5/NEOMOTE_1_I2C_0.c ****         NEOMOTE_1_I2C_0_CFG_REG      = NEOMOTE_1_I2C_0_DEFAULT_CFG;      /* control  */
  68:.\Generated_Source\PSoC5/NEOMOTE_1_I2C_0.c ****         NEOMOTE_1_I2C_0_INT_MASK_REG = NEOMOTE_1_I2C_0_DEFAULT_INT_MASK; /* int_mask */
  69:.\Generated_Source\PSoC5/NEOMOTE_1_I2C_0.c **** 
  70:.\Generated_Source\PSoC5/NEOMOTE_1_I2C_0.c ****         /* Enable interrupts from block */
  71:.\Generated_Source\PSoC5/NEOMOTE_1_I2C_0.c ****         enableInterrupts = CyEnterCriticalSection();
  72:.\Generated_Source\PSoC5/NEOMOTE_1_I2C_0.c ****         NEOMOTE_1_I2C_0_INT_ENABLE_REG |= NEOMOTE_1_I2C_0_INTR_ENABLE; /* aux_ctl */
  73:.\Generated_Source\PSoC5/NEOMOTE_1_I2C_0.c ****         CyExitCriticalSection(enableInterrupts);
  74:.\Generated_Source\PSoC5/NEOMOTE_1_I2C_0.c **** 
  75:.\Generated_Source\PSoC5/NEOMOTE_1_I2C_0.c ****         #if(NEOMOTE_1_I2C_0_MODE_MASTER_ENABLED)
  76:.\Generated_Source\PSoC5/NEOMOTE_1_I2C_0.c ****             NEOMOTE_1_I2C_0_MCLK_PRD_REG = NEOMOTE_1_I2C_0_DEFAULT_MCLK_PRD;
  77:.\Generated_Source\PSoC5/NEOMOTE_1_I2C_0.c ****             NEOMOTE_1_I2C_0_MCLK_CMP_REG = NEOMOTE_1_I2C_0_DEFAULT_MCLK_CMP;
  78:.\Generated_Source\PSoC5/NEOMOTE_1_I2C_0.c ****          #endif /* (NEOMOTE_1_I2C_0_MODE_MASTER_ENABLED) */
  79:.\Generated_Source\PSoC5/NEOMOTE_1_I2C_0.c **** 
  80:.\Generated_Source\PSoC5/NEOMOTE_1_I2C_0.c ****         #if(NEOMOTE_1_I2C_0_MODE_SLAVE_ENABLED)
  81:.\Generated_Source\PSoC5/NEOMOTE_1_I2C_0.c ****             NEOMOTE_1_I2C_0_PERIOD_REG = NEOMOTE_1_I2C_0_DEFAULT_PERIOD;
  82:.\Generated_Source\PSoC5/NEOMOTE_1_I2C_0.c ****         #endif  /* (NEOMOTE_1_I2C_0_MODE_SLAVE_ENABLED) */
  83:.\Generated_Source\PSoC5/NEOMOTE_1_I2C_0.c **** 
  84:.\Generated_Source\PSoC5/NEOMOTE_1_I2C_0.c ****     #endif /* (NEOMOTE_1_I2C_0_FF_IMPLEMENTED) */
  85:.\Generated_Source\PSoC5/NEOMOTE_1_I2C_0.c **** 
  86:.\Generated_Source\PSoC5/NEOMOTE_1_I2C_0.c ****     #if(NEOMOTE_1_I2C_0_TIMEOUT_ENABLED)
  87:.\Generated_Source\PSoC5/NEOMOTE_1_I2C_0.c ****         NEOMOTE_1_I2C_0_TimeoutInit();
  88:.\Generated_Source\PSoC5/NEOMOTE_1_I2C_0.c ****     #endif /* (NEOMOTE_1_I2C_0_TIMEOUT_ENABLED) */
  89:.\Generated_Source\PSoC5/NEOMOTE_1_I2C_0.c **** 
  90:.\Generated_Source\PSoC5/NEOMOTE_1_I2C_0.c ****     /* Disable Interrupt and set vector and priority */
  91:.\Generated_Source\PSoC5/NEOMOTE_1_I2C_0.c ****     CyIntDisable    (NEOMOTE_1_I2C_0_ISR_NUMBER);
  71              		.loc 1 91 0
  72 003c 4EF28013 		movw	r3, #:lower16:-536813184
  73 0040 CEF20003 		movt	r3, #:upper16:-536813184
  74 0044 4FF40042 		mov	r2, #32768
  75 0048 1A60     		str	r2, [r3, #0]
  92:.\Generated_Source\PSoC5/NEOMOTE_1_I2C_0.c ****     CyIntSetPriority(NEOMOTE_1_I2C_0_ISR_NUMBER, NEOMOTE_1_I2C_0_ISR_PRIORITY);
ARM GAS  C:\Users\karunmj\AppData\Local\Temp\cchjzSmY.s 			page 4


  76              		.loc 1 92 0
  77 004a 4FF00F00 		mov	r0, #15
  78 004e 4FF00701 		mov	r1, #7
  79 0052 FFF7FEFF 		bl	CyIntSetPriority
  93:.\Generated_Source\PSoC5/NEOMOTE_1_I2C_0.c ****     #if(NEOMOTE_1_I2C_0_INTERN_I2C_INTR_HANDLER)
  94:.\Generated_Source\PSoC5/NEOMOTE_1_I2C_0.c ****         (void) CyIntSetVector(NEOMOTE_1_I2C_0_ISR_NUMBER, &NEOMOTE_1_I2C_0_ISR);
  80              		.loc 1 94 0
  81 0056 4FF00F00 		mov	r0, #15
  82 005a 40F20001 		movw	r1, #:lower16:NEOMOTE_1_I2C_0_ISR
  83 005e C0F20001 		movt	r1, #:upper16:NEOMOTE_1_I2C_0_ISR
  84 0062 FFF7FEFF 		bl	CyIntSetVector
  95:.\Generated_Source\PSoC5/NEOMOTE_1_I2C_0.c ****     #endif /* (NEOMOTE_1_I2C_0_INTERN_I2C_INTR_HANDLER) */
  96:.\Generated_Source\PSoC5/NEOMOTE_1_I2C_0.c **** 
  97:.\Generated_Source\PSoC5/NEOMOTE_1_I2C_0.c **** 
  98:.\Generated_Source\PSoC5/NEOMOTE_1_I2C_0.c ****     /* Put state machine in idle state */
  99:.\Generated_Source\PSoC5/NEOMOTE_1_I2C_0.c ****     NEOMOTE_1_I2C_0_state = NEOMOTE_1_I2C_0_SM_IDLE;
  85              		.loc 1 99 0
  86 0066 40F20003 		movw	r3, #:lower16:NEOMOTE_1_I2C_0_state
  87 006a C0F20003 		movt	r3, #:upper16:NEOMOTE_1_I2C_0_state
  88 006e 4FF01002 		mov	r2, #16
  89 0072 1A70     		strb	r2, [r3, #0]
 100:.\Generated_Source\PSoC5/NEOMOTE_1_I2C_0.c **** 
 101:.\Generated_Source\PSoC5/NEOMOTE_1_I2C_0.c ****     #if(NEOMOTE_1_I2C_0_MODE_SLAVE_ENABLED)
 102:.\Generated_Source\PSoC5/NEOMOTE_1_I2C_0.c ****         /* Reset status and buffers index */
 103:.\Generated_Source\PSoC5/NEOMOTE_1_I2C_0.c ****         NEOMOTE_1_I2C_0_SlaveClearReadBuf();
 104:.\Generated_Source\PSoC5/NEOMOTE_1_I2C_0.c ****         NEOMOTE_1_I2C_0_SlaveClearWriteBuf();
 105:.\Generated_Source\PSoC5/NEOMOTE_1_I2C_0.c ****         NEOMOTE_1_I2C_0_slStatus = 0u; /* Reset slave status */
 106:.\Generated_Source\PSoC5/NEOMOTE_1_I2C_0.c **** 
 107:.\Generated_Source\PSoC5/NEOMOTE_1_I2C_0.c ****         /* Set default address */
 108:.\Generated_Source\PSoC5/NEOMOTE_1_I2C_0.c ****         NEOMOTE_1_I2C_0_SlaveSetAddress(NEOMOTE_1_I2C_0_DEFAULT_ADDR);
 109:.\Generated_Source\PSoC5/NEOMOTE_1_I2C_0.c ****     #endif /* (NEOMOTE_1_I2C_0_MODE_SLAVE_ENABLED) */
 110:.\Generated_Source\PSoC5/NEOMOTE_1_I2C_0.c **** 
 111:.\Generated_Source\PSoC5/NEOMOTE_1_I2C_0.c ****     #if(NEOMOTE_1_I2C_0_MODE_MASTER_ENABLED)
 112:.\Generated_Source\PSoC5/NEOMOTE_1_I2C_0.c ****         /* Reset status and buffers index */
 113:.\Generated_Source\PSoC5/NEOMOTE_1_I2C_0.c ****         NEOMOTE_1_I2C_0_MasterClearReadBuf();
  90              		.loc 1 113 0
  91 0074 FFF7FEFF 		bl	NEOMOTE_1_I2C_0_MasterClearReadBuf
 114:.\Generated_Source\PSoC5/NEOMOTE_1_I2C_0.c ****         NEOMOTE_1_I2C_0_MasterClearWriteBuf();
  92              		.loc 1 114 0
  93 0078 FFF7FEFF 		bl	NEOMOTE_1_I2C_0_MasterClearWriteBuf
 115:.\Generated_Source\PSoC5/NEOMOTE_1_I2C_0.c ****         (void) NEOMOTE_1_I2C_0_MasterClearStatus();
  94              		.loc 1 115 0
  95 007c FFF7FEFF 		bl	NEOMOTE_1_I2C_0_MasterClearStatus
 116:.\Generated_Source\PSoC5/NEOMOTE_1_I2C_0.c ****     #endif /* (NEOMOTE_1_I2C_0_MODE_MASTER_ENABLED) */
 117:.\Generated_Source\PSoC5/NEOMOTE_1_I2C_0.c **** }
  96              		.loc 1 117 0
  97 0080 80BD     		pop	{r7, pc}
  98              		.cfi_endproc
  99              	.LFE0:
 100              		.size	NEOMOTE_1_I2C_0_Init, .-NEOMOTE_1_I2C_0_Init
 101 0082 00BF     		.section	.text.NEOMOTE_1_I2C_0_Enable,"ax",%progbits
 102              		.align	2
 103              		.global	NEOMOTE_1_I2C_0_Enable
 104              		.thumb
 105              		.thumb_func
 106              		.type	NEOMOTE_1_I2C_0_Enable, %function
 107              	NEOMOTE_1_I2C_0_Enable:
ARM GAS  C:\Users\karunmj\AppData\Local\Temp\cchjzSmY.s 			page 5


 108              	.LFB1:
 118:.\Generated_Source\PSoC5/NEOMOTE_1_I2C_0.c **** 
 119:.\Generated_Source\PSoC5/NEOMOTE_1_I2C_0.c **** 
 120:.\Generated_Source\PSoC5/NEOMOTE_1_I2C_0.c **** /*******************************************************************************
 121:.\Generated_Source\PSoC5/NEOMOTE_1_I2C_0.c **** * Function Name: NEOMOTE_1_I2C_0_Enable
 122:.\Generated_Source\PSoC5/NEOMOTE_1_I2C_0.c **** ********************************************************************************
 123:.\Generated_Source\PSoC5/NEOMOTE_1_I2C_0.c **** *
 124:.\Generated_Source\PSoC5/NEOMOTE_1_I2C_0.c **** * Summary:
 125:.\Generated_Source\PSoC5/NEOMOTE_1_I2C_0.c **** *  Enables I2C operations.
 126:.\Generated_Source\PSoC5/NEOMOTE_1_I2C_0.c **** *
 127:.\Generated_Source\PSoC5/NEOMOTE_1_I2C_0.c **** * Parameters:
 128:.\Generated_Source\PSoC5/NEOMOTE_1_I2C_0.c **** *  None
 129:.\Generated_Source\PSoC5/NEOMOTE_1_I2C_0.c **** *
 130:.\Generated_Source\PSoC5/NEOMOTE_1_I2C_0.c **** * Return:
 131:.\Generated_Source\PSoC5/NEOMOTE_1_I2C_0.c **** *  None
 132:.\Generated_Source\PSoC5/NEOMOTE_1_I2C_0.c **** *
 133:.\Generated_Source\PSoC5/NEOMOTE_1_I2C_0.c **** * Global variables:
 134:.\Generated_Source\PSoC5/NEOMOTE_1_I2C_0.c **** *  None
 135:.\Generated_Source\PSoC5/NEOMOTE_1_I2C_0.c **** *
 136:.\Generated_Source\PSoC5/NEOMOTE_1_I2C_0.c **** *******************************************************************************/
 137:.\Generated_Source\PSoC5/NEOMOTE_1_I2C_0.c **** void NEOMOTE_1_I2C_0_Enable(void) 
 138:.\Generated_Source\PSoC5/NEOMOTE_1_I2C_0.c **** {
 109              		.loc 1 138 0
 110              		.cfi_startproc
 111              		@ args = 0, pretend = 0, frame = 8
 112              		@ frame_needed = 1, uses_anonymous_args = 0
 113 0000 80B5     		push	{r7, lr}
 114              	.LCFI2:
 115              		.cfi_def_cfa_offset 8
 116 0002 82B0     		sub	sp, sp, #8
 117              	.LCFI3:
 118              		.cfi_def_cfa_offset 16
 119 0004 00AF     		add	r7, sp, #0
 120              		.cfi_offset 14, -4
 121              		.cfi_offset 7, -8
 122              	.LCFI4:
 123              		.cfi_def_cfa_register 7
 139:.\Generated_Source\PSoC5/NEOMOTE_1_I2C_0.c ****     #if(NEOMOTE_1_I2C_0_FF_IMPLEMENTED)
 140:.\Generated_Source\PSoC5/NEOMOTE_1_I2C_0.c ****         uint8 enableInterrupts;
 141:.\Generated_Source\PSoC5/NEOMOTE_1_I2C_0.c **** 
 142:.\Generated_Source\PSoC5/NEOMOTE_1_I2C_0.c ****         /* Enable power to I2C FF block */
 143:.\Generated_Source\PSoC5/NEOMOTE_1_I2C_0.c ****         enableInterrupts = CyEnterCriticalSection();
 124              		.loc 1 143 0
 125 0006 FFF7FEFF 		bl	CyEnterCriticalSection
 126 000a 0346     		mov	r3, r0
 127 000c FB71     		strb	r3, [r7, #7]
 144:.\Generated_Source\PSoC5/NEOMOTE_1_I2C_0.c ****         NEOMOTE_1_I2C_0_ACT_PWRMGR_REG  |= NEOMOTE_1_I2C_0_ACT_PWR_EN;
 128              		.loc 1 144 0
 129 000e 44F2A533 		movw	r3, #:lower16:1073759141
 130 0012 C4F20003 		movt	r3, #:upper16:1073759141
 131 0016 44F2A532 		movw	r2, #:lower16:1073759141
 132 001a C4F20002 		movt	r2, #:upper16:1073759141
 133 001e 1278     		ldrb	r2, [r2, #0]
 134 0020 D2B2     		uxtb	r2, r2
 135 0022 42F00402 		orr	r2, r2, #4
 136 0026 D2B2     		uxtb	r2, r2
 137 0028 1A70     		strb	r2, [r3, #0]
ARM GAS  C:\Users\karunmj\AppData\Local\Temp\cchjzSmY.s 			page 6


 145:.\Generated_Source\PSoC5/NEOMOTE_1_I2C_0.c ****         NEOMOTE_1_I2C_0_STBY_PWRMGR_REG |= NEOMOTE_1_I2C_0_STBY_PWR_EN;
 138              		.loc 1 145 0
 139 002a 44F2B533 		movw	r3, #:lower16:1073759157
 140 002e C4F20003 		movt	r3, #:upper16:1073759157
 141 0032 44F2B532 		movw	r2, #:lower16:1073759157
 142 0036 C4F20002 		movt	r2, #:upper16:1073759157
 143 003a 1278     		ldrb	r2, [r2, #0]
 144 003c D2B2     		uxtb	r2, r2
 145 003e 42F00402 		orr	r2, r2, #4
 146 0042 D2B2     		uxtb	r2, r2
 147 0044 1A70     		strb	r2, [r3, #0]
 146:.\Generated_Source\PSoC5/NEOMOTE_1_I2C_0.c ****         CyExitCriticalSection(enableInterrupts);
 148              		.loc 1 146 0
 149 0046 FB79     		ldrb	r3, [r7, #7]	@ zero_extendqisi2
 150 0048 1846     		mov	r0, r3
 151 004a FFF7FEFF 		bl	CyExitCriticalSection
 147:.\Generated_Source\PSoC5/NEOMOTE_1_I2C_0.c **** 
 148:.\Generated_Source\PSoC5/NEOMOTE_1_I2C_0.c ****     #else
 149:.\Generated_Source\PSoC5/NEOMOTE_1_I2C_0.c **** 
 150:.\Generated_Source\PSoC5/NEOMOTE_1_I2C_0.c ****         #if(NEOMOTE_1_I2C_0_MODE_SLAVE_ENABLED)
 151:.\Generated_Source\PSoC5/NEOMOTE_1_I2C_0.c ****             uint8 enableInterrupts;
 152:.\Generated_Source\PSoC5/NEOMOTE_1_I2C_0.c ****         #endif /* (NEOMOTE_1_I2C_0_MODE_SLAVE_ENABLED) */
 153:.\Generated_Source\PSoC5/NEOMOTE_1_I2C_0.c **** 
 154:.\Generated_Source\PSoC5/NEOMOTE_1_I2C_0.c ****         #if(NEOMOTE_1_I2C_0_MODE_SLAVE_ENABLED)
 155:.\Generated_Source\PSoC5/NEOMOTE_1_I2C_0.c ****             /* Enable slave bit counter */
 156:.\Generated_Source\PSoC5/NEOMOTE_1_I2C_0.c ****             enableInterrupts = CyEnterCriticalSection();
 157:.\Generated_Source\PSoC5/NEOMOTE_1_I2C_0.c ****             NEOMOTE_1_I2C_0_COUNTER_AUX_CTL_REG |= NEOMOTE_1_I2C_0_CNT7_ENABLE;   /* aux_ctl */
 158:.\Generated_Source\PSoC5/NEOMOTE_1_I2C_0.c ****             CyExitCriticalSection(enableInterrupts);
 159:.\Generated_Source\PSoC5/NEOMOTE_1_I2C_0.c ****         #endif /* (NEOMOTE_1_I2C_0_MODE_SLAVE_ENABLED) */
 160:.\Generated_Source\PSoC5/NEOMOTE_1_I2C_0.c **** 
 161:.\Generated_Source\PSoC5/NEOMOTE_1_I2C_0.c ****         NEOMOTE_1_I2C_0_CFG_REG |= NEOMOTE_1_I2C_0_ENABLE_MS;
 162:.\Generated_Source\PSoC5/NEOMOTE_1_I2C_0.c **** 
 163:.\Generated_Source\PSoC5/NEOMOTE_1_I2C_0.c ****     #endif /* (NEOMOTE_1_I2C_0_FF_IMPLEMENTED) */
 164:.\Generated_Source\PSoC5/NEOMOTE_1_I2C_0.c **** 
 165:.\Generated_Source\PSoC5/NEOMOTE_1_I2C_0.c ****     #if(NEOMOTE_1_I2C_0_TIMEOUT_ENABLED)
 166:.\Generated_Source\PSoC5/NEOMOTE_1_I2C_0.c ****         NEOMOTE_1_I2C_0_TimeoutEnable();
 167:.\Generated_Source\PSoC5/NEOMOTE_1_I2C_0.c ****     #endif /* (NEOMOTE_1_I2C_0_TIMEOUT_ENABLED) */
 168:.\Generated_Source\PSoC5/NEOMOTE_1_I2C_0.c **** }
 152              		.loc 1 168 0
 153 004e 07F10807 		add	r7, r7, #8
 154 0052 BD46     		mov	sp, r7
 155 0054 80BD     		pop	{r7, pc}
 156              		.cfi_endproc
 157              	.LFE1:
 158              		.size	NEOMOTE_1_I2C_0_Enable, .-NEOMOTE_1_I2C_0_Enable
 159 0056 00BF     		.section	.text.NEOMOTE_1_I2C_0_Start,"ax",%progbits
 160              		.align	2
 161              		.global	NEOMOTE_1_I2C_0_Start
 162              		.thumb
 163              		.thumb_func
 164              		.type	NEOMOTE_1_I2C_0_Start, %function
 165              	NEOMOTE_1_I2C_0_Start:
 166              	.LFB2:
 169:.\Generated_Source\PSoC5/NEOMOTE_1_I2C_0.c **** 
 170:.\Generated_Source\PSoC5/NEOMOTE_1_I2C_0.c **** 
 171:.\Generated_Source\PSoC5/NEOMOTE_1_I2C_0.c **** /*******************************************************************************
 172:.\Generated_Source\PSoC5/NEOMOTE_1_I2C_0.c **** * Function Name: NEOMOTE_1_I2C_0_Start
ARM GAS  C:\Users\karunmj\AppData\Local\Temp\cchjzSmY.s 			page 7


 173:.\Generated_Source\PSoC5/NEOMOTE_1_I2C_0.c **** ********************************************************************************
 174:.\Generated_Source\PSoC5/NEOMOTE_1_I2C_0.c **** *
 175:.\Generated_Source\PSoC5/NEOMOTE_1_I2C_0.c **** * Summary:
 176:.\Generated_Source\PSoC5/NEOMOTE_1_I2C_0.c **** *  Starts the I2C hardware. Enables Active mode power template bits or clock
 177:.\Generated_Source\PSoC5/NEOMOTE_1_I2C_0.c **** *  gating as appropriate. It is required to be executed before I2C bus
 178:.\Generated_Source\PSoC5/NEOMOTE_1_I2C_0.c **** *  operation.
 179:.\Generated_Source\PSoC5/NEOMOTE_1_I2C_0.c **** *  The I2C interrupt remains disabled after this function call.
 180:.\Generated_Source\PSoC5/NEOMOTE_1_I2C_0.c **** *
 181:.\Generated_Source\PSoC5/NEOMOTE_1_I2C_0.c **** * Parameters:
 182:.\Generated_Source\PSoC5/NEOMOTE_1_I2C_0.c **** *  None
 183:.\Generated_Source\PSoC5/NEOMOTE_1_I2C_0.c **** *
 184:.\Generated_Source\PSoC5/NEOMOTE_1_I2C_0.c **** * Return:
 185:.\Generated_Source\PSoC5/NEOMOTE_1_I2C_0.c **** *  None
 186:.\Generated_Source\PSoC5/NEOMOTE_1_I2C_0.c **** *
 187:.\Generated_Source\PSoC5/NEOMOTE_1_I2C_0.c **** * Side Effects:
 188:.\Generated_Source\PSoC5/NEOMOTE_1_I2C_0.c **** *  This component automatically enables it's interrupt.  If I2C is enabled
 189:.\Generated_Source\PSoC5/NEOMOTE_1_I2C_0.c **** *  without the interrupt enabled, it could lock up the I2C bus.
 190:.\Generated_Source\PSoC5/NEOMOTE_1_I2C_0.c **** *
 191:.\Generated_Source\PSoC5/NEOMOTE_1_I2C_0.c **** * Global variables:
 192:.\Generated_Source\PSoC5/NEOMOTE_1_I2C_0.c **** *  NEOMOTE_1_I2C_0_initVar - used to check initial configuration, modified
 193:.\Generated_Source\PSoC5/NEOMOTE_1_I2C_0.c **** *  on first function call.
 194:.\Generated_Source\PSoC5/NEOMOTE_1_I2C_0.c **** *
 195:.\Generated_Source\PSoC5/NEOMOTE_1_I2C_0.c **** * Reentrant:
 196:.\Generated_Source\PSoC5/NEOMOTE_1_I2C_0.c **** *  No
 197:.\Generated_Source\PSoC5/NEOMOTE_1_I2C_0.c **** *
 198:.\Generated_Source\PSoC5/NEOMOTE_1_I2C_0.c **** *******************************************************************************/
 199:.\Generated_Source\PSoC5/NEOMOTE_1_I2C_0.c **** void NEOMOTE_1_I2C_0_Start(void) 
 200:.\Generated_Source\PSoC5/NEOMOTE_1_I2C_0.c **** {
 167              		.loc 1 200 0
 168              		.cfi_startproc
 169              		@ args = 0, pretend = 0, frame = 0
 170              		@ frame_needed = 1, uses_anonymous_args = 0
 171 0000 80B5     		push	{r7, lr}
 172              	.LCFI5:
 173              		.cfi_def_cfa_offset 8
 174 0002 00AF     		add	r7, sp, #0
 175              		.cfi_offset 14, -4
 176              		.cfi_offset 7, -8
 177              	.LCFI6:
 178              		.cfi_def_cfa_register 7
 201:.\Generated_Source\PSoC5/NEOMOTE_1_I2C_0.c ****     /* Initialize I2C registers, reset I2C buffer index and clears status */
 202:.\Generated_Source\PSoC5/NEOMOTE_1_I2C_0.c ****     if(0u == NEOMOTE_1_I2C_0_initVar)
 179              		.loc 1 202 0
 180 0004 40F20003 		movw	r3, #:lower16:NEOMOTE_1_I2C_0_initVar
 181 0008 C0F20003 		movt	r3, #:upper16:NEOMOTE_1_I2C_0_initVar
 182 000c 1B78     		ldrb	r3, [r3, #0]	@ zero_extendqisi2
 183 000e 002B     		cmp	r3, #0
 184 0010 08D1     		bne	.L6
 203:.\Generated_Source\PSoC5/NEOMOTE_1_I2C_0.c ****     {
 204:.\Generated_Source\PSoC5/NEOMOTE_1_I2C_0.c ****         NEOMOTE_1_I2C_0_Init();
 185              		.loc 1 204 0
 186 0012 FFF7FEFF 		bl	NEOMOTE_1_I2C_0_Init
 205:.\Generated_Source\PSoC5/NEOMOTE_1_I2C_0.c ****         NEOMOTE_1_I2C_0_initVar = 1u; /* Component initialized */
 187              		.loc 1 205 0
 188 0016 40F20003 		movw	r3, #:lower16:NEOMOTE_1_I2C_0_initVar
 189 001a C0F20003 		movt	r3, #:upper16:NEOMOTE_1_I2C_0_initVar
 190 001e 4FF00102 		mov	r2, #1
ARM GAS  C:\Users\karunmj\AppData\Local\Temp\cchjzSmY.s 			page 8


 191 0022 1A70     		strb	r2, [r3, #0]
 192              	.L6:
 206:.\Generated_Source\PSoC5/NEOMOTE_1_I2C_0.c ****     }
 207:.\Generated_Source\PSoC5/NEOMOTE_1_I2C_0.c **** 
 208:.\Generated_Source\PSoC5/NEOMOTE_1_I2C_0.c ****     NEOMOTE_1_I2C_0_Enable();
 193              		.loc 1 208 0
 194 0024 FFF7FEFF 		bl	NEOMOTE_1_I2C_0_Enable
 209:.\Generated_Source\PSoC5/NEOMOTE_1_I2C_0.c ****     NEOMOTE_1_I2C_0_EnableInt();
 195              		.loc 1 209 0
 196 0028 4EF20013 		movw	r3, #:lower16:-536813312
 197 002c CEF20003 		movt	r3, #:upper16:-536813312
 198 0030 4FF40042 		mov	r2, #32768
 199 0034 1A60     		str	r2, [r3, #0]
 210:.\Generated_Source\PSoC5/NEOMOTE_1_I2C_0.c **** }
 200              		.loc 1 210 0
 201 0036 80BD     		pop	{r7, pc}
 202              		.cfi_endproc
 203              	.LFE2:
 204              		.size	NEOMOTE_1_I2C_0_Start, .-NEOMOTE_1_I2C_0_Start
 205              		.section	.text.NEOMOTE_1_I2C_0_Stop,"ax",%progbits
 206              		.align	2
 207              		.global	NEOMOTE_1_I2C_0_Stop
 208              		.thumb
 209              		.thumb_func
 210              		.type	NEOMOTE_1_I2C_0_Stop, %function
 211              	NEOMOTE_1_I2C_0_Stop:
 212              	.LFB3:
 211:.\Generated_Source\PSoC5/NEOMOTE_1_I2C_0.c **** 
 212:.\Generated_Source\PSoC5/NEOMOTE_1_I2C_0.c **** 
 213:.\Generated_Source\PSoC5/NEOMOTE_1_I2C_0.c **** /*******************************************************************************
 214:.\Generated_Source\PSoC5/NEOMOTE_1_I2C_0.c **** * Function Name: NEOMOTE_1_I2C_0_Stop
 215:.\Generated_Source\PSoC5/NEOMOTE_1_I2C_0.c **** ********************************************************************************
 216:.\Generated_Source\PSoC5/NEOMOTE_1_I2C_0.c **** *
 217:.\Generated_Source\PSoC5/NEOMOTE_1_I2C_0.c **** * Summary:
 218:.\Generated_Source\PSoC5/NEOMOTE_1_I2C_0.c **** *  Disables I2C hardware and disables I2C interrupt. Disables Active mode power
 219:.\Generated_Source\PSoC5/NEOMOTE_1_I2C_0.c **** *  template bits or clock gating as appropriate.
 220:.\Generated_Source\PSoC5/NEOMOTE_1_I2C_0.c **** *
 221:.\Generated_Source\PSoC5/NEOMOTE_1_I2C_0.c **** * Parameters:
 222:.\Generated_Source\PSoC5/NEOMOTE_1_I2C_0.c **** *  None
 223:.\Generated_Source\PSoC5/NEOMOTE_1_I2C_0.c **** *
 224:.\Generated_Source\PSoC5/NEOMOTE_1_I2C_0.c **** * Return:
 225:.\Generated_Source\PSoC5/NEOMOTE_1_I2C_0.c **** *  None
 226:.\Generated_Source\PSoC5/NEOMOTE_1_I2C_0.c **** *
 227:.\Generated_Source\PSoC5/NEOMOTE_1_I2C_0.c **** *******************************************************************************/
 228:.\Generated_Source\PSoC5/NEOMOTE_1_I2C_0.c **** void NEOMOTE_1_I2C_0_Stop(void) 
 229:.\Generated_Source\PSoC5/NEOMOTE_1_I2C_0.c **** {
 213              		.loc 1 229 0
 214              		.cfi_startproc
 215              		@ args = 0, pretend = 0, frame = 8
 216              		@ frame_needed = 1, uses_anonymous_args = 0
 217 0000 80B5     		push	{r7, lr}
 218              	.LCFI7:
 219              		.cfi_def_cfa_offset 8
 220 0002 82B0     		sub	sp, sp, #8
 221              	.LCFI8:
 222              		.cfi_def_cfa_offset 16
 223 0004 00AF     		add	r7, sp, #0
ARM GAS  C:\Users\karunmj\AppData\Local\Temp\cchjzSmY.s 			page 9


 224              		.cfi_offset 14, -4
 225              		.cfi_offset 7, -8
 226              	.LCFI9:
 227              		.cfi_def_cfa_register 7
 230:.\Generated_Source\PSoC5/NEOMOTE_1_I2C_0.c ****     #if((NEOMOTE_1_I2C_0_FF_IMPLEMENTED)  || \
 231:.\Generated_Source\PSoC5/NEOMOTE_1_I2C_0.c ****         (NEOMOTE_1_I2C_0_UDB_IMPLEMENTED && NEOMOTE_1_I2C_0_MODE_SLAVE_ENABLED))
 232:.\Generated_Source\PSoC5/NEOMOTE_1_I2C_0.c ****         uint8 enableInterrupts;
 233:.\Generated_Source\PSoC5/NEOMOTE_1_I2C_0.c ****     #endif /* ((NEOMOTE_1_I2C_0_FF_IMPLEMENTED)  || \
 234:.\Generated_Source\PSoC5/NEOMOTE_1_I2C_0.c ****                (NEOMOTE_1_I2C_0_UDB_IMPLEMENTED && NEOMOTE_1_I2C_0_MODE_SLAVE_ENABLED)) */
 235:.\Generated_Source\PSoC5/NEOMOTE_1_I2C_0.c **** 
 236:.\Generated_Source\PSoC5/NEOMOTE_1_I2C_0.c ****     NEOMOTE_1_I2C_0_DisableInt();
 228              		.loc 1 236 0
 229 0006 4EF28013 		movw	r3, #:lower16:-536813184
 230 000a CEF20003 		movt	r3, #:upper16:-536813184
 231 000e 4FF40042 		mov	r2, #32768
 232 0012 1A60     		str	r2, [r3, #0]
 237:.\Generated_Source\PSoC5/NEOMOTE_1_I2C_0.c **** 
 238:.\Generated_Source\PSoC5/NEOMOTE_1_I2C_0.c ****     NEOMOTE_1_I2C_0_DISABLE_INT_ON_STOP;   /* Interrupt on Stop can be enabled by write */
 233              		.loc 1 238 0
 234 0014 44F6D613 		movw	r3, #:lower16:1073760726
 235 0018 C4F20003 		movt	r3, #:upper16:1073760726
 236 001c 44F6D612 		movw	r2, #:lower16:1073760726
 237 0020 C4F20002 		movt	r2, #:upper16:1073760726
 238 0024 1278     		ldrb	r2, [r2, #0]
 239 0026 D2B2     		uxtb	r2, r2
 240 0028 02F0EF02 		and	r2, r2, #239
 241 002c 1A70     		strb	r2, [r3, #0]
 239:.\Generated_Source\PSoC5/NEOMOTE_1_I2C_0.c ****     (void) NEOMOTE_1_I2C_0_CSR_REG;        /* Clear CSR reg */
 242              		.loc 1 239 0
 243 002e 44F6D713 		movw	r3, #:lower16:1073760727
 244 0032 C4F20003 		movt	r3, #:upper16:1073760727
 245 0036 1B78     		ldrb	r3, [r3, #0]
 240:.\Generated_Source\PSoC5/NEOMOTE_1_I2C_0.c ****     
 241:.\Generated_Source\PSoC5/NEOMOTE_1_I2C_0.c ****     #if(NEOMOTE_1_I2C_0_TIMEOUT_ENABLED)
 242:.\Generated_Source\PSoC5/NEOMOTE_1_I2C_0.c ****         NEOMOTE_1_I2C_0_TimeoutStop();
 243:.\Generated_Source\PSoC5/NEOMOTE_1_I2C_0.c ****     #endif  /* End (NEOMOTE_1_I2C_0_TIMEOUT_ENABLED) */
 244:.\Generated_Source\PSoC5/NEOMOTE_1_I2C_0.c **** 
 245:.\Generated_Source\PSoC5/NEOMOTE_1_I2C_0.c ****     #if(NEOMOTE_1_I2C_0_FF_IMPLEMENTED)
 246:.\Generated_Source\PSoC5/NEOMOTE_1_I2C_0.c ****         #if(CY_PSOC3 || CY_PSOC5LP)
 247:.\Generated_Source\PSoC5/NEOMOTE_1_I2C_0.c ****             /* Store registers which are held in reset when Master and Slave bits are cleared */
 248:.\Generated_Source\PSoC5/NEOMOTE_1_I2C_0.c ****             #if(NEOMOTE_1_I2C_0_MODE_SLAVE_ENABLED)
 249:.\Generated_Source\PSoC5/NEOMOTE_1_I2C_0.c ****                 NEOMOTE_1_I2C_0_backup.addr = NEOMOTE_1_I2C_0_ADDR_REG;
 250:.\Generated_Source\PSoC5/NEOMOTE_1_I2C_0.c ****             #endif /* (NEOMOTE_1_I2C_0_MODE_SLAVE_ENABLED) */
 251:.\Generated_Source\PSoC5/NEOMOTE_1_I2C_0.c **** 
 252:.\Generated_Source\PSoC5/NEOMOTE_1_I2C_0.c ****             NEOMOTE_1_I2C_0_backup.clkDiv1  = NEOMOTE_1_I2C_0_CLKDIV1_REG;
 246              		.loc 1 252 0
 247 0038 44F6DB13 		movw	r3, #:lower16:1073760731
 248 003c C4F20003 		movt	r3, #:upper16:1073760731
 249 0040 1B78     		ldrb	r3, [r3, #0]
 250 0042 DAB2     		uxtb	r2, r3
 251 0044 40F20003 		movw	r3, #:lower16:NEOMOTE_1_I2C_0_backup
 252 0048 C0F20003 		movt	r3, #:upper16:NEOMOTE_1_I2C_0_backup
 253 004c DA70     		strb	r2, [r3, #3]
 253:.\Generated_Source\PSoC5/NEOMOTE_1_I2C_0.c ****             NEOMOTE_1_I2C_0_backup.clkDiv2  = NEOMOTE_1_I2C_0_CLKDIV2_REG;
 254              		.loc 1 253 0
 255 004e 44F6DC13 		movw	r3, #:lower16:1073760732
 256 0052 C4F20003 		movt	r3, #:upper16:1073760732
ARM GAS  C:\Users\karunmj\AppData\Local\Temp\cchjzSmY.s 			page 10


 257 0056 1B78     		ldrb	r3, [r3, #0]
 258 0058 DAB2     		uxtb	r2, r3
 259 005a 40F20003 		movw	r3, #:lower16:NEOMOTE_1_I2C_0_backup
 260 005e C0F20003 		movt	r3, #:upper16:NEOMOTE_1_I2C_0_backup
 261 0062 1A71     		strb	r2, [r3, #4]
 254:.\Generated_Source\PSoC5/NEOMOTE_1_I2C_0.c **** 
 255:.\Generated_Source\PSoC5/NEOMOTE_1_I2C_0.c **** 
 256:.\Generated_Source\PSoC5/NEOMOTE_1_I2C_0.c ****             /* Reset FF block */
 257:.\Generated_Source\PSoC5/NEOMOTE_1_I2C_0.c ****             NEOMOTE_1_I2C_0_CFG_REG &= ((uint8) ~NEOMOTE_1_I2C_0_ENABLE_MS);
 262              		.loc 1 257 0
 263 0064 44F6D613 		movw	r3, #:lower16:1073760726
 264 0068 C4F20003 		movt	r3, #:upper16:1073760726
 265 006c 44F6D612 		movw	r2, #:lower16:1073760726
 266 0070 C4F20002 		movt	r2, #:upper16:1073760726
 267 0074 1278     		ldrb	r2, [r2, #0]
 268 0076 D2B2     		uxtb	r2, r2
 269 0078 02F0FD02 		and	r2, r2, #253
 270 007c 1A70     		strb	r2, [r3, #0]
 258:.\Generated_Source\PSoC5/NEOMOTE_1_I2C_0.c ****             CyDelayUs(NEOMOTE_1_I2C_0_FF_RESET_DELAY);
 271              		.loc 1 258 0
 272 007e 4FF00200 		mov	r0, #2
 273 0082 FFF7FEFF 		bl	CyDelayUs
 259:.\Generated_Source\PSoC5/NEOMOTE_1_I2C_0.c ****             NEOMOTE_1_I2C_0_CFG_REG |= ((uint8)  NEOMOTE_1_I2C_0_ENABLE_MS);
 274              		.loc 1 259 0
 275 0086 44F6D613 		movw	r3, #:lower16:1073760726
 276 008a C4F20003 		movt	r3, #:upper16:1073760726
 277 008e 44F6D612 		movw	r2, #:lower16:1073760726
 278 0092 C4F20002 		movt	r2, #:upper16:1073760726
 279 0096 1278     		ldrb	r2, [r2, #0]
 280 0098 D2B2     		uxtb	r2, r2
 281 009a 42F00202 		orr	r2, r2, #2
 282 009e D2B2     		uxtb	r2, r2
 283 00a0 1A70     		strb	r2, [r3, #0]
 260:.\Generated_Source\PSoC5/NEOMOTE_1_I2C_0.c **** 
 261:.\Generated_Source\PSoC5/NEOMOTE_1_I2C_0.c **** 
 262:.\Generated_Source\PSoC5/NEOMOTE_1_I2C_0.c ****             /* Restore registers */
 263:.\Generated_Source\PSoC5/NEOMOTE_1_I2C_0.c ****             #if(NEOMOTE_1_I2C_0_MODE_SLAVE_ENABLED)
 264:.\Generated_Source\PSoC5/NEOMOTE_1_I2C_0.c ****                 NEOMOTE_1_I2C_0_ADDR_REG = NEOMOTE_1_I2C_0_backup.addr;
 265:.\Generated_Source\PSoC5/NEOMOTE_1_I2C_0.c ****             #endif /* (NEOMOTE_1_I2C_0_MODE_SLAVE_ENABLED) */
 266:.\Generated_Source\PSoC5/NEOMOTE_1_I2C_0.c **** 
 267:.\Generated_Source\PSoC5/NEOMOTE_1_I2C_0.c ****             NEOMOTE_1_I2C_0_CLKDIV1_REG = NEOMOTE_1_I2C_0_backup.clkDiv1;
 284              		.loc 1 267 0
 285 00a2 44F6DB13 		movw	r3, #:lower16:1073760731
 286 00a6 C4F20003 		movt	r3, #:upper16:1073760731
 287 00aa 40F20002 		movw	r2, #:lower16:NEOMOTE_1_I2C_0_backup
 288 00ae C0F20002 		movt	r2, #:upper16:NEOMOTE_1_I2C_0_backup
 289 00b2 D278     		ldrb	r2, [r2, #3]	@ zero_extendqisi2
 290 00b4 1A70     		strb	r2, [r3, #0]
 268:.\Generated_Source\PSoC5/NEOMOTE_1_I2C_0.c ****             NEOMOTE_1_I2C_0_CLKDIV2_REG = NEOMOTE_1_I2C_0_backup.clkDiv2;
 291              		.loc 1 268 0
 292 00b6 44F6DC13 		movw	r3, #:lower16:1073760732
 293 00ba C4F20003 		movt	r3, #:upper16:1073760732
 294 00be 40F20002 		movw	r2, #:lower16:NEOMOTE_1_I2C_0_backup
 295 00c2 C0F20002 		movt	r2, #:upper16:NEOMOTE_1_I2C_0_backup
 296 00c6 1279     		ldrb	r2, [r2, #4]	@ zero_extendqisi2
 297 00c8 1A70     		strb	r2, [r3, #0]
 269:.\Generated_Source\PSoC5/NEOMOTE_1_I2C_0.c **** 
ARM GAS  C:\Users\karunmj\AppData\Local\Temp\cchjzSmY.s 			page 11


 270:.\Generated_Source\PSoC5/NEOMOTE_1_I2C_0.c ****         #endif /* (CY_PSOC3 || CY_PSOC5LP) */
 271:.\Generated_Source\PSoC5/NEOMOTE_1_I2C_0.c **** 
 272:.\Generated_Source\PSoC5/NEOMOTE_1_I2C_0.c ****         /* Disable power to I2C block */
 273:.\Generated_Source\PSoC5/NEOMOTE_1_I2C_0.c ****         enableInterrupts = CyEnterCriticalSection();
 298              		.loc 1 273 0
 299 00ca FFF7FEFF 		bl	CyEnterCriticalSection
 300 00ce 0346     		mov	r3, r0
 301 00d0 FB71     		strb	r3, [r7, #7]
 274:.\Generated_Source\PSoC5/NEOMOTE_1_I2C_0.c ****         NEOMOTE_1_I2C_0_ACT_PWRMGR_REG  &= ((uint8) ~NEOMOTE_1_I2C_0_ACT_PWR_EN);
 302              		.loc 1 274 0
 303 00d2 44F2A533 		movw	r3, #:lower16:1073759141
 304 00d6 C4F20003 		movt	r3, #:upper16:1073759141
 305 00da 44F2A532 		movw	r2, #:lower16:1073759141
 306 00de C4F20002 		movt	r2, #:upper16:1073759141
 307 00e2 1278     		ldrb	r2, [r2, #0]
 308 00e4 D2B2     		uxtb	r2, r2
 309 00e6 02F0FB02 		and	r2, r2, #251
 310 00ea 1A70     		strb	r2, [r3, #0]
 275:.\Generated_Source\PSoC5/NEOMOTE_1_I2C_0.c ****         NEOMOTE_1_I2C_0_STBY_PWRMGR_REG &= ((uint8) ~NEOMOTE_1_I2C_0_STBY_PWR_EN);
 311              		.loc 1 275 0
 312 00ec 44F2B533 		movw	r3, #:lower16:1073759157
 313 00f0 C4F20003 		movt	r3, #:upper16:1073759157
 314 00f4 44F2B532 		movw	r2, #:lower16:1073759157
 315 00f8 C4F20002 		movt	r2, #:upper16:1073759157
 316 00fc 1278     		ldrb	r2, [r2, #0]
 317 00fe D2B2     		uxtb	r2, r2
 318 0100 02F0FB02 		and	r2, r2, #251
 319 0104 1A70     		strb	r2, [r3, #0]
 276:.\Generated_Source\PSoC5/NEOMOTE_1_I2C_0.c ****         CyExitCriticalSection(enableInterrupts);
 320              		.loc 1 276 0
 321 0106 FB79     		ldrb	r3, [r7, #7]	@ zero_extendqisi2
 322 0108 1846     		mov	r0, r3
 323 010a FFF7FEFF 		bl	CyExitCriticalSection
 277:.\Generated_Source\PSoC5/NEOMOTE_1_I2C_0.c **** 
 278:.\Generated_Source\PSoC5/NEOMOTE_1_I2C_0.c ****     #else
 279:.\Generated_Source\PSoC5/NEOMOTE_1_I2C_0.c **** 
 280:.\Generated_Source\PSoC5/NEOMOTE_1_I2C_0.c ****         #if(NEOMOTE_1_I2C_0_MODE_SLAVE_ENABLED)
 281:.\Generated_Source\PSoC5/NEOMOTE_1_I2C_0.c ****             /* Disable slave bit counter */
 282:.\Generated_Source\PSoC5/NEOMOTE_1_I2C_0.c ****             enableInterrupts = CyEnterCriticalSection();
 283:.\Generated_Source\PSoC5/NEOMOTE_1_I2C_0.c ****             NEOMOTE_1_I2C_0_COUNTER_AUX_CTL_REG &= ((uint8) ~NEOMOTE_1_I2C_0_CNT7_ENABLE);
 284:.\Generated_Source\PSoC5/NEOMOTE_1_I2C_0.c ****             CyExitCriticalSection(enableInterrupts);
 285:.\Generated_Source\PSoC5/NEOMOTE_1_I2C_0.c ****         #endif /* (NEOMOTE_1_I2C_0_MODE_SLAVE_ENABLED) */
 286:.\Generated_Source\PSoC5/NEOMOTE_1_I2C_0.c **** 
 287:.\Generated_Source\PSoC5/NEOMOTE_1_I2C_0.c ****         NEOMOTE_1_I2C_0_CFG_REG &= ((uint8) ~NEOMOTE_1_I2C_0_ENABLE_MS);
 288:.\Generated_Source\PSoC5/NEOMOTE_1_I2C_0.c **** 
 289:.\Generated_Source\PSoC5/NEOMOTE_1_I2C_0.c ****     #endif /* (NEOMOTE_1_I2C_0_FF_IMPLEMENTED) */
 290:.\Generated_Source\PSoC5/NEOMOTE_1_I2C_0.c **** 
 291:.\Generated_Source\PSoC5/NEOMOTE_1_I2C_0.c ****     NEOMOTE_1_I2C_0_ClearPendingInt();  /* Clear interrupt triggers on reset */
 324              		.loc 1 291 0
 325 010e 4EF28023 		movw	r3, #:lower16:-536812928
 326 0112 CEF20003 		movt	r3, #:upper16:-536812928
 327 0116 4FF40042 		mov	r2, #32768
 328 011a 1A60     		str	r2, [r3, #0]
 292:.\Generated_Source\PSoC5/NEOMOTE_1_I2C_0.c **** 
 293:.\Generated_Source\PSoC5/NEOMOTE_1_I2C_0.c ****     NEOMOTE_1_I2C_0_state = NEOMOTE_1_I2C_0_SM_IDLE;  /* Reset software FSM */
 329              		.loc 1 293 0
 330 011c 40F20003 		movw	r3, #:lower16:NEOMOTE_1_I2C_0_state
ARM GAS  C:\Users\karunmj\AppData\Local\Temp\cchjzSmY.s 			page 12


 331 0120 C0F20003 		movt	r3, #:upper16:NEOMOTE_1_I2C_0_state
 332 0124 4FF01002 		mov	r2, #16
 333 0128 1A70     		strb	r2, [r3, #0]
 294:.\Generated_Source\PSoC5/NEOMOTE_1_I2C_0.c **** }
 334              		.loc 1 294 0
 335 012a 07F10807 		add	r7, r7, #8
 336 012e BD46     		mov	sp, r7
 337 0130 80BD     		pop	{r7, pc}
 338              		.cfi_endproc
 339              	.LFE3:
 340              		.size	NEOMOTE_1_I2C_0_Stop, .-NEOMOTE_1_I2C_0_Stop
 341 0132 00BF     		.text
 342              	.Letext0: