ARM GAS  C:\Users\karunmj\AppData\Local\Temp\ccUsbZik.s 			page 1


   1              		.syntax unified
   2              		.cpu cortex-m3
   3              		.fpu softvfp
   4              		.eabi_attribute 20, 1
   5              		.eabi_attribute 21, 1
   6              		.eabi_attribute 23, 3
   7              		.eabi_attribute 24, 1
   8              		.eabi_attribute 25, 1
   9              		.eabi_attribute 26, 1
  10              		.eabi_attribute 30, 6
  11              		.eabi_attribute 18, 4
  12              		.thumb
  13              		.file	"uart_solinst_PM.c"
  20 0000 D5000000 		.text
  20      02007A00 
  20      00000201 
  20      FB0E0D00 
  20      01010101 
  21              	.Ltext0:
  22              		.cfi_sections	.debug_frame
  23              		.bss
  24              		.align	2
  25              	uart_solinst_backup:
  26 0000 00000000 		.space	4
  27              		.section	.text.uart_solinst_SaveConfig,"ax",%progbits
  28              		.align	2
  29              		.global	uart_solinst_SaveConfig
  30              		.thumb
  31              		.thumb_func
  32              		.type	uart_solinst_SaveConfig, %function
  33              	uart_solinst_SaveConfig:
  34              	.LFB0:
  35              		.file 1 ".\\Generated_Source\\PSoC5\\uart_solinst_PM.c"
   1:.\Generated_Source\PSoC5/uart_solinst_PM.c **** /*******************************************************************************
   2:.\Generated_Source\PSoC5/uart_solinst_PM.c **** * File Name: uart_solinst_PM.c
   3:.\Generated_Source\PSoC5/uart_solinst_PM.c **** * Version 2.30
   4:.\Generated_Source\PSoC5/uart_solinst_PM.c **** *
   5:.\Generated_Source\PSoC5/uart_solinst_PM.c **** * Description:
   6:.\Generated_Source\PSoC5/uart_solinst_PM.c **** *  This file provides Sleep/WakeUp APIs functionality.
   7:.\Generated_Source\PSoC5/uart_solinst_PM.c **** *
   8:.\Generated_Source\PSoC5/uart_solinst_PM.c **** * Note:
   9:.\Generated_Source\PSoC5/uart_solinst_PM.c **** *
  10:.\Generated_Source\PSoC5/uart_solinst_PM.c **** ********************************************************************************
  11:.\Generated_Source\PSoC5/uart_solinst_PM.c **** * Copyright 2008-2012, Cypress Semiconductor Corporation.  All rights reserved.
  12:.\Generated_Source\PSoC5/uart_solinst_PM.c **** * You may use this file only in accordance with the license, terms, conditions,
  13:.\Generated_Source\PSoC5/uart_solinst_PM.c **** * disclaimers, and limitations in the end user license agreement accompanying
  14:.\Generated_Source\PSoC5/uart_solinst_PM.c **** * the software package with which this file was provided.
  15:.\Generated_Source\PSoC5/uart_solinst_PM.c **** *******************************************************************************/
  16:.\Generated_Source\PSoC5/uart_solinst_PM.c **** 
  17:.\Generated_Source\PSoC5/uart_solinst_PM.c **** #include "uart_solinst.h"
  18:.\Generated_Source\PSoC5/uart_solinst_PM.c **** 
ARM GAS  C:\Users\karunmj\AppData\Local\Temp\ccUsbZik.s 			page 2


  19:.\Generated_Source\PSoC5/uart_solinst_PM.c **** 
  20:.\Generated_Source\PSoC5/uart_solinst_PM.c **** /***************************************
  21:.\Generated_Source\PSoC5/uart_solinst_PM.c **** * Local data allocation
  22:.\Generated_Source\PSoC5/uart_solinst_PM.c **** ***************************************/
  23:.\Generated_Source\PSoC5/uart_solinst_PM.c **** 
  24:.\Generated_Source\PSoC5/uart_solinst_PM.c **** static uart_solinst_BACKUP_STRUCT  uart_solinst_backup =
  25:.\Generated_Source\PSoC5/uart_solinst_PM.c **** {
  26:.\Generated_Source\PSoC5/uart_solinst_PM.c ****     /* enableState - disabled */
  27:.\Generated_Source\PSoC5/uart_solinst_PM.c ****     0u,
  28:.\Generated_Source\PSoC5/uart_solinst_PM.c **** };
  29:.\Generated_Source\PSoC5/uart_solinst_PM.c **** 
  30:.\Generated_Source\PSoC5/uart_solinst_PM.c **** 
  31:.\Generated_Source\PSoC5/uart_solinst_PM.c **** 
  32:.\Generated_Source\PSoC5/uart_solinst_PM.c **** /*******************************************************************************
  33:.\Generated_Source\PSoC5/uart_solinst_PM.c **** * Function Name: uart_solinst_SaveConfig
  34:.\Generated_Source\PSoC5/uart_solinst_PM.c **** ********************************************************************************
  35:.\Generated_Source\PSoC5/uart_solinst_PM.c **** *
  36:.\Generated_Source\PSoC5/uart_solinst_PM.c **** * Summary:
  37:.\Generated_Source\PSoC5/uart_solinst_PM.c **** *  Saves the current user configuration.
  38:.\Generated_Source\PSoC5/uart_solinst_PM.c **** *
  39:.\Generated_Source\PSoC5/uart_solinst_PM.c **** * Parameters:
  40:.\Generated_Source\PSoC5/uart_solinst_PM.c **** *  None.
  41:.\Generated_Source\PSoC5/uart_solinst_PM.c **** *
  42:.\Generated_Source\PSoC5/uart_solinst_PM.c **** * Return:
  43:.\Generated_Source\PSoC5/uart_solinst_PM.c **** *  None.
  44:.\Generated_Source\PSoC5/uart_solinst_PM.c **** *
  45:.\Generated_Source\PSoC5/uart_solinst_PM.c **** * Global Variables:
  46:.\Generated_Source\PSoC5/uart_solinst_PM.c **** *  uart_solinst_backup - modified when non-retention registers are saved.
  47:.\Generated_Source\PSoC5/uart_solinst_PM.c **** *
  48:.\Generated_Source\PSoC5/uart_solinst_PM.c **** * Reentrant:
  49:.\Generated_Source\PSoC5/uart_solinst_PM.c **** *  No.
  50:.\Generated_Source\PSoC5/uart_solinst_PM.c **** *
  51:.\Generated_Source\PSoC5/uart_solinst_PM.c **** *******************************************************************************/
  52:.\Generated_Source\PSoC5/uart_solinst_PM.c **** void uart_solinst_SaveConfig(void)
  53:.\Generated_Source\PSoC5/uart_solinst_PM.c **** {
  36              		.loc 1 53 0
  37              		.cfi_startproc
  38              		@ args = 0, pretend = 0, frame = 0
  39              		@ frame_needed = 1, uses_anonymous_args = 0
  40              		@ link register save eliminated.
  41 0000 80B4     		push	{r7}
  42              	.LCFI0:
  43              		.cfi_def_cfa_offset 4
  44 0002 00AF     		add	r7, sp, #0
  45              		.cfi_offset 7, -4
  46              	.LCFI1:
  47              		.cfi_def_cfa_register 7
  54:.\Generated_Source\PSoC5/uart_solinst_PM.c ****     #if (CY_UDB_V0)
  55:.\Generated_Source\PSoC5/uart_solinst_PM.c **** 
  56:.\Generated_Source\PSoC5/uart_solinst_PM.c ****         #if(uart_solinst_CONTROL_REG_REMOVED == 0u)
  57:.\Generated_Source\PSoC5/uart_solinst_PM.c ****             uart_solinst_backup.cr = uart_solinst_CONTROL_REG;
  58:.\Generated_Source\PSoC5/uart_solinst_PM.c ****         #endif /* End uart_solinst_CONTROL_REG_REMOVED */
  59:.\Generated_Source\PSoC5/uart_solinst_PM.c **** 
  60:.\Generated_Source\PSoC5/uart_solinst_PM.c ****         #if( (uart_solinst_RX_ENABLED) || (uart_solinst_HD_ENABLED) )
  61:.\Generated_Source\PSoC5/uart_solinst_PM.c ****             uart_solinst_backup.rx_period = uart_solinst_RXBITCTR_PERIOD_REG;
  62:.\Generated_Source\PSoC5/uart_solinst_PM.c ****             uart_solinst_backup.rx_mask = uart_solinst_RXSTATUS_MASK_REG;
  63:.\Generated_Source\PSoC5/uart_solinst_PM.c ****             #if (uart_solinst_RXHW_ADDRESS_ENABLED)
ARM GAS  C:\Users\karunmj\AppData\Local\Temp\ccUsbZik.s 			page 3


  64:.\Generated_Source\PSoC5/uart_solinst_PM.c ****                 uart_solinst_backup.rx_addr1 = uart_solinst_RXADDRESS1_REG;
  65:.\Generated_Source\PSoC5/uart_solinst_PM.c ****                 uart_solinst_backup.rx_addr2 = uart_solinst_RXADDRESS2_REG;
  66:.\Generated_Source\PSoC5/uart_solinst_PM.c ****             #endif /* End uart_solinst_RXHW_ADDRESS_ENABLED */
  67:.\Generated_Source\PSoC5/uart_solinst_PM.c ****         #endif /* End uart_solinst_RX_ENABLED | uart_solinst_HD_ENABLED*/
  68:.\Generated_Source\PSoC5/uart_solinst_PM.c **** 
  69:.\Generated_Source\PSoC5/uart_solinst_PM.c ****         #if(uart_solinst_TX_ENABLED)
  70:.\Generated_Source\PSoC5/uart_solinst_PM.c ****             #if(uart_solinst_TXCLKGEN_DP)
  71:.\Generated_Source\PSoC5/uart_solinst_PM.c ****                 uart_solinst_backup.tx_clk_ctr = uart_solinst_TXBITCLKGEN_CTR_REG;
  72:.\Generated_Source\PSoC5/uart_solinst_PM.c ****                 uart_solinst_backup.tx_clk_compl = uart_solinst_TXBITCLKTX_COMPLETE_REG;
  73:.\Generated_Source\PSoC5/uart_solinst_PM.c ****             #else
  74:.\Generated_Source\PSoC5/uart_solinst_PM.c ****                 uart_solinst_backup.tx_period = uart_solinst_TXBITCTR_PERIOD_REG;
  75:.\Generated_Source\PSoC5/uart_solinst_PM.c ****             #endif /*End uart_solinst_TXCLKGEN_DP */
  76:.\Generated_Source\PSoC5/uart_solinst_PM.c ****             uart_solinst_backup.tx_mask = uart_solinst_TXSTATUS_MASK_REG;
  77:.\Generated_Source\PSoC5/uart_solinst_PM.c ****         #endif /*End uart_solinst_TX_ENABLED */
  78:.\Generated_Source\PSoC5/uart_solinst_PM.c **** 
  79:.\Generated_Source\PSoC5/uart_solinst_PM.c **** 
  80:.\Generated_Source\PSoC5/uart_solinst_PM.c ****     #else /* CY_UDB_V1 */
  81:.\Generated_Source\PSoC5/uart_solinst_PM.c **** 
  82:.\Generated_Source\PSoC5/uart_solinst_PM.c ****         #if(uart_solinst_CONTROL_REG_REMOVED == 0u)
  83:.\Generated_Source\PSoC5/uart_solinst_PM.c ****             uart_solinst_backup.cr = uart_solinst_CONTROL_REG;
  48              		.loc 1 83 0
  49 0004 46F27943 		movw	r3, #:lower16:1073767545
  50 0008 C4F20003 		movt	r3, #:upper16:1073767545
  51 000c 1B78     		ldrb	r3, [r3, #0]
  52 000e DAB2     		uxtb	r2, r3
  53 0010 40F20003 		movw	r3, #:lower16:uart_solinst_backup
  54 0014 C0F20003 		movt	r3, #:upper16:uart_solinst_backup
  55 0018 5A70     		strb	r2, [r3, #1]
  84:.\Generated_Source\PSoC5/uart_solinst_PM.c ****         #endif /* End uart_solinst_CONTROL_REG_REMOVED */
  85:.\Generated_Source\PSoC5/uart_solinst_PM.c **** 
  86:.\Generated_Source\PSoC5/uart_solinst_PM.c ****     #endif  /* End CY_UDB_V0 */
  87:.\Generated_Source\PSoC5/uart_solinst_PM.c **** }
  56              		.loc 1 87 0
  57 001a BD46     		mov	sp, r7
  58 001c 80BC     		pop	{r7}
  59 001e 7047     		bx	lr
  60              		.cfi_endproc
  61              	.LFE0:
  62              		.size	uart_solinst_SaveConfig, .-uart_solinst_SaveConfig
  63              		.section	.text.uart_solinst_RestoreConfig,"ax",%progbits
  64              		.align	2
  65              		.global	uart_solinst_RestoreConfig
  66              		.thumb
  67              		.thumb_func
  68              		.type	uart_solinst_RestoreConfig, %function
  69              	uart_solinst_RestoreConfig:
  70              	.LFB1:
  88:.\Generated_Source\PSoC5/uart_solinst_PM.c **** 
  89:.\Generated_Source\PSoC5/uart_solinst_PM.c **** 
  90:.\Generated_Source\PSoC5/uart_solinst_PM.c **** /*******************************************************************************
  91:.\Generated_Source\PSoC5/uart_solinst_PM.c **** * Function Name: uart_solinst_RestoreConfig
  92:.\Generated_Source\PSoC5/uart_solinst_PM.c **** ********************************************************************************
  93:.\Generated_Source\PSoC5/uart_solinst_PM.c **** *
  94:.\Generated_Source\PSoC5/uart_solinst_PM.c **** * Summary:
  95:.\Generated_Source\PSoC5/uart_solinst_PM.c **** *  Restores the current user configuration.
  96:.\Generated_Source\PSoC5/uart_solinst_PM.c **** *
  97:.\Generated_Source\PSoC5/uart_solinst_PM.c **** * Parameters:
ARM GAS  C:\Users\karunmj\AppData\Local\Temp\ccUsbZik.s 			page 4


  98:.\Generated_Source\PSoC5/uart_solinst_PM.c **** *  None.
  99:.\Generated_Source\PSoC5/uart_solinst_PM.c **** *
 100:.\Generated_Source\PSoC5/uart_solinst_PM.c **** * Return:
 101:.\Generated_Source\PSoC5/uart_solinst_PM.c **** *  None.
 102:.\Generated_Source\PSoC5/uart_solinst_PM.c **** *
 103:.\Generated_Source\PSoC5/uart_solinst_PM.c **** * Global Variables:
 104:.\Generated_Source\PSoC5/uart_solinst_PM.c **** *  uart_solinst_backup - used when non-retention registers are restored.
 105:.\Generated_Source\PSoC5/uart_solinst_PM.c **** *
 106:.\Generated_Source\PSoC5/uart_solinst_PM.c **** * Reentrant:
 107:.\Generated_Source\PSoC5/uart_solinst_PM.c **** *  No.
 108:.\Generated_Source\PSoC5/uart_solinst_PM.c **** *
 109:.\Generated_Source\PSoC5/uart_solinst_PM.c **** *******************************************************************************/
 110:.\Generated_Source\PSoC5/uart_solinst_PM.c **** void uart_solinst_RestoreConfig(void)
 111:.\Generated_Source\PSoC5/uart_solinst_PM.c **** {
  71              		.loc 1 111 0
  72              		.cfi_startproc
  73              		@ args = 0, pretend = 0, frame = 0
  74              		@ frame_needed = 1, uses_anonymous_args = 0
  75              		@ link register save eliminated.
  76 0000 80B4     		push	{r7}
  77              	.LCFI2:
  78              		.cfi_def_cfa_offset 4
  79 0002 00AF     		add	r7, sp, #0
  80              		.cfi_offset 7, -4
  81              	.LCFI3:
  82              		.cfi_def_cfa_register 7
 112:.\Generated_Source\PSoC5/uart_solinst_PM.c **** 
 113:.\Generated_Source\PSoC5/uart_solinst_PM.c ****     #if (CY_UDB_V0)
 114:.\Generated_Source\PSoC5/uart_solinst_PM.c **** 
 115:.\Generated_Source\PSoC5/uart_solinst_PM.c ****         #if(uart_solinst_CONTROL_REG_REMOVED == 0u)
 116:.\Generated_Source\PSoC5/uart_solinst_PM.c ****             uart_solinst_CONTROL_REG = uart_solinst_backup.cr;
 117:.\Generated_Source\PSoC5/uart_solinst_PM.c ****         #endif /* End uart_solinst_CONTROL_REG_REMOVED */
 118:.\Generated_Source\PSoC5/uart_solinst_PM.c **** 
 119:.\Generated_Source\PSoC5/uart_solinst_PM.c ****         #if( (uart_solinst_RX_ENABLED) || (uart_solinst_HD_ENABLED) )
 120:.\Generated_Source\PSoC5/uart_solinst_PM.c ****             uart_solinst_RXBITCTR_PERIOD_REG = uart_solinst_backup.rx_period;
 121:.\Generated_Source\PSoC5/uart_solinst_PM.c ****             uart_solinst_RXSTATUS_MASK_REG = uart_solinst_backup.rx_mask;
 122:.\Generated_Source\PSoC5/uart_solinst_PM.c ****             #if (uart_solinst_RXHW_ADDRESS_ENABLED)
 123:.\Generated_Source\PSoC5/uart_solinst_PM.c ****                 uart_solinst_RXADDRESS1_REG = uart_solinst_backup.rx_addr1;
 124:.\Generated_Source\PSoC5/uart_solinst_PM.c ****                 uart_solinst_RXADDRESS2_REG = uart_solinst_backup.rx_addr2;
 125:.\Generated_Source\PSoC5/uart_solinst_PM.c ****             #endif /* End uart_solinst_RXHW_ADDRESS_ENABLED */
 126:.\Generated_Source\PSoC5/uart_solinst_PM.c ****         #endif  /* End (uart_solinst_RX_ENABLED) || (uart_solinst_HD_ENABLED) */
 127:.\Generated_Source\PSoC5/uart_solinst_PM.c **** 
 128:.\Generated_Source\PSoC5/uart_solinst_PM.c ****         #if(uart_solinst_TX_ENABLED)
 129:.\Generated_Source\PSoC5/uart_solinst_PM.c ****             #if(uart_solinst_TXCLKGEN_DP)
 130:.\Generated_Source\PSoC5/uart_solinst_PM.c ****                 uart_solinst_TXBITCLKGEN_CTR_REG = uart_solinst_backup.tx_clk_ctr;
 131:.\Generated_Source\PSoC5/uart_solinst_PM.c ****                 uart_solinst_TXBITCLKTX_COMPLETE_REG = uart_solinst_backup.tx_clk_compl;
 132:.\Generated_Source\PSoC5/uart_solinst_PM.c ****             #else
 133:.\Generated_Source\PSoC5/uart_solinst_PM.c ****                 uart_solinst_TXBITCTR_PERIOD_REG = uart_solinst_backup.tx_period;
 134:.\Generated_Source\PSoC5/uart_solinst_PM.c ****             #endif /*End uart_solinst_TXCLKGEN_DP */
 135:.\Generated_Source\PSoC5/uart_solinst_PM.c ****             uart_solinst_TXSTATUS_MASK_REG = uart_solinst_backup.tx_mask;
 136:.\Generated_Source\PSoC5/uart_solinst_PM.c ****         #endif /*End uart_solinst_TX_ENABLED */
 137:.\Generated_Source\PSoC5/uart_solinst_PM.c **** 
 138:.\Generated_Source\PSoC5/uart_solinst_PM.c ****     #else /* CY_UDB_V1 */
 139:.\Generated_Source\PSoC5/uart_solinst_PM.c **** 
 140:.\Generated_Source\PSoC5/uart_solinst_PM.c ****         #if(uart_solinst_CONTROL_REG_REMOVED == 0u)
 141:.\Generated_Source\PSoC5/uart_solinst_PM.c ****             uart_solinst_CONTROL_REG = uart_solinst_backup.cr;
  83              		.loc 1 141 0
ARM GAS  C:\Users\karunmj\AppData\Local\Temp\ccUsbZik.s 			page 5


  84 0004 46F27943 		movw	r3, #:lower16:1073767545
  85 0008 C4F20003 		movt	r3, #:upper16:1073767545
  86 000c 40F20002 		movw	r2, #:lower16:uart_solinst_backup
  87 0010 C0F20002 		movt	r2, #:upper16:uart_solinst_backup
  88 0014 5278     		ldrb	r2, [r2, #1]	@ zero_extendqisi2
  89 0016 1A70     		strb	r2, [r3, #0]
 142:.\Generated_Source\PSoC5/uart_solinst_PM.c ****         #endif /* End uart_solinst_CONTROL_REG_REMOVED */
 143:.\Generated_Source\PSoC5/uart_solinst_PM.c **** 
 144:.\Generated_Source\PSoC5/uart_solinst_PM.c ****     #endif  /* End CY_UDB_V0 */
 145:.\Generated_Source\PSoC5/uart_solinst_PM.c **** }
  90              		.loc 1 145 0
  91 0018 BD46     		mov	sp, r7
  92 001a 80BC     		pop	{r7}
  93 001c 7047     		bx	lr
  94              		.cfi_endproc
  95              	.LFE1:
  96              		.size	uart_solinst_RestoreConfig, .-uart_solinst_RestoreConfig
  97 001e 00BF     		.section	.text.uart_solinst_Sleep,"ax",%progbits
  98              		.align	2
  99              		.global	uart_solinst_Sleep
 100              		.thumb
 101              		.thumb_func
 102              		.type	uart_solinst_Sleep, %function
 103              	uart_solinst_Sleep:
 104              	.LFB2:
 146:.\Generated_Source\PSoC5/uart_solinst_PM.c **** 
 147:.\Generated_Source\PSoC5/uart_solinst_PM.c **** 
 148:.\Generated_Source\PSoC5/uart_solinst_PM.c **** /*******************************************************************************
 149:.\Generated_Source\PSoC5/uart_solinst_PM.c **** * Function Name: uart_solinst_Sleep
 150:.\Generated_Source\PSoC5/uart_solinst_PM.c **** ********************************************************************************
 151:.\Generated_Source\PSoC5/uart_solinst_PM.c **** *
 152:.\Generated_Source\PSoC5/uart_solinst_PM.c **** * Summary:
 153:.\Generated_Source\PSoC5/uart_solinst_PM.c **** *  Stops and saves the user configuration. Should be called
 154:.\Generated_Source\PSoC5/uart_solinst_PM.c **** *  just prior to entering sleep.
 155:.\Generated_Source\PSoC5/uart_solinst_PM.c **** *
 156:.\Generated_Source\PSoC5/uart_solinst_PM.c **** *
 157:.\Generated_Source\PSoC5/uart_solinst_PM.c **** * Parameters:
 158:.\Generated_Source\PSoC5/uart_solinst_PM.c **** *  None.
 159:.\Generated_Source\PSoC5/uart_solinst_PM.c **** *
 160:.\Generated_Source\PSoC5/uart_solinst_PM.c **** * Return:
 161:.\Generated_Source\PSoC5/uart_solinst_PM.c **** *  None.
 162:.\Generated_Source\PSoC5/uart_solinst_PM.c **** *
 163:.\Generated_Source\PSoC5/uart_solinst_PM.c **** * Global Variables:
 164:.\Generated_Source\PSoC5/uart_solinst_PM.c **** *  uart_solinst_backup - modified when non-retention registers are saved.
 165:.\Generated_Source\PSoC5/uart_solinst_PM.c **** *
 166:.\Generated_Source\PSoC5/uart_solinst_PM.c **** * Reentrant:
 167:.\Generated_Source\PSoC5/uart_solinst_PM.c **** *  No.
 168:.\Generated_Source\PSoC5/uart_solinst_PM.c **** *
 169:.\Generated_Source\PSoC5/uart_solinst_PM.c **** *******************************************************************************/
 170:.\Generated_Source\PSoC5/uart_solinst_PM.c **** void uart_solinst_Sleep(void)
 171:.\Generated_Source\PSoC5/uart_solinst_PM.c **** {
 105              		.loc 1 171 0
 106              		.cfi_startproc
 107              		@ args = 0, pretend = 0, frame = 0
 108              		@ frame_needed = 1, uses_anonymous_args = 0
 109 0000 80B5     		push	{r7, lr}
 110              	.LCFI4:
ARM GAS  C:\Users\karunmj\AppData\Local\Temp\ccUsbZik.s 			page 6


 111              		.cfi_def_cfa_offset 8
 112 0002 00AF     		add	r7, sp, #0
 113              		.cfi_offset 14, -4
 114              		.cfi_offset 7, -8
 115              	.LCFI5:
 116              		.cfi_def_cfa_register 7
 172:.\Generated_Source\PSoC5/uart_solinst_PM.c **** 
 173:.\Generated_Source\PSoC5/uart_solinst_PM.c ****     #if(uart_solinst_RX_ENABLED || uart_solinst_HD_ENABLED)
 174:.\Generated_Source\PSoC5/uart_solinst_PM.c ****         if((uart_solinst_RXSTATUS_ACTL_REG  & uart_solinst_INT_ENABLE) != 0u)
 117              		.loc 1 174 0
 118 0004 46F29D43 		movw	r3, #:lower16:1073767581
 119 0008 C4F20003 		movt	r3, #:upper16:1073767581
 120 000c 1B78     		ldrb	r3, [r3, #0]
 121 000e DBB2     		uxtb	r3, r3
 122 0010 03F01003 		and	r3, r3, #16
 123 0014 002B     		cmp	r3, #0
 124 0016 07D0     		beq	.L6
 175:.\Generated_Source\PSoC5/uart_solinst_PM.c ****         {
 176:.\Generated_Source\PSoC5/uart_solinst_PM.c ****             uart_solinst_backup.enableState = 1u;
 125              		.loc 1 176 0
 126 0018 40F20003 		movw	r3, #:lower16:uart_solinst_backup
 127 001c C0F20003 		movt	r3, #:upper16:uart_solinst_backup
 128 0020 4FF00102 		mov	r2, #1
 129 0024 1A70     		strb	r2, [r3, #0]
 130 0026 06E0     		b	.L7
 131              	.L6:
 177:.\Generated_Source\PSoC5/uart_solinst_PM.c ****         }
 178:.\Generated_Source\PSoC5/uart_solinst_PM.c ****         else
 179:.\Generated_Source\PSoC5/uart_solinst_PM.c ****         {
 180:.\Generated_Source\PSoC5/uart_solinst_PM.c ****             uart_solinst_backup.enableState = 0u;
 132              		.loc 1 180 0
 133 0028 40F20003 		movw	r3, #:lower16:uart_solinst_backup
 134 002c C0F20003 		movt	r3, #:upper16:uart_solinst_backup
 135 0030 4FF00002 		mov	r2, #0
 136 0034 1A70     		strb	r2, [r3, #0]
 137              	.L7:
 181:.\Generated_Source\PSoC5/uart_solinst_PM.c ****         }
 182:.\Generated_Source\PSoC5/uart_solinst_PM.c ****     #else
 183:.\Generated_Source\PSoC5/uart_solinst_PM.c ****         if((uart_solinst_TXSTATUS_ACTL_REG  & uart_solinst_INT_ENABLE) !=0u)
 184:.\Generated_Source\PSoC5/uart_solinst_PM.c ****         {
 185:.\Generated_Source\PSoC5/uart_solinst_PM.c ****             uart_solinst_backup.enableState = 1u;
 186:.\Generated_Source\PSoC5/uart_solinst_PM.c ****         }
 187:.\Generated_Source\PSoC5/uart_solinst_PM.c ****         else
 188:.\Generated_Source\PSoC5/uart_solinst_PM.c ****         {
 189:.\Generated_Source\PSoC5/uart_solinst_PM.c ****             uart_solinst_backup.enableState = 0u;
 190:.\Generated_Source\PSoC5/uart_solinst_PM.c ****         }
 191:.\Generated_Source\PSoC5/uart_solinst_PM.c ****     #endif /* End uart_solinst_RX_ENABLED || uart_solinst_HD_ENABLED*/
 192:.\Generated_Source\PSoC5/uart_solinst_PM.c **** 
 193:.\Generated_Source\PSoC5/uart_solinst_PM.c ****     uart_solinst_Stop();
 138              		.loc 1 193 0
 139 0036 FFF7FEFF 		bl	uart_solinst_Stop
 194:.\Generated_Source\PSoC5/uart_solinst_PM.c ****     uart_solinst_SaveConfig();
 140              		.loc 1 194 0
 141 003a FFF7FEFF 		bl	uart_solinst_SaveConfig
 195:.\Generated_Source\PSoC5/uart_solinst_PM.c **** }
 142              		.loc 1 195 0
 143 003e 80BD     		pop	{r7, pc}
ARM GAS  C:\Users\karunmj\AppData\Local\Temp\ccUsbZik.s 			page 7


 144              		.cfi_endproc
 145              	.LFE2:
 146              		.size	uart_solinst_Sleep, .-uart_solinst_Sleep
 147              		.section	.text.uart_solinst_Wakeup,"ax",%progbits
 148              		.align	2
 149              		.global	uart_solinst_Wakeup
 150              		.thumb
 151              		.thumb_func
 152              		.type	uart_solinst_Wakeup, %function
 153              	uart_solinst_Wakeup:
 154              	.LFB3:
 196:.\Generated_Source\PSoC5/uart_solinst_PM.c **** 
 197:.\Generated_Source\PSoC5/uart_solinst_PM.c **** 
 198:.\Generated_Source\PSoC5/uart_solinst_PM.c **** /*******************************************************************************
 199:.\Generated_Source\PSoC5/uart_solinst_PM.c **** * Function Name: uart_solinst_Wakeup
 200:.\Generated_Source\PSoC5/uart_solinst_PM.c **** ********************************************************************************
 201:.\Generated_Source\PSoC5/uart_solinst_PM.c **** *
 202:.\Generated_Source\PSoC5/uart_solinst_PM.c **** * Summary:
 203:.\Generated_Source\PSoC5/uart_solinst_PM.c **** *  Restores and enables the user configuration. Should be called
 204:.\Generated_Source\PSoC5/uart_solinst_PM.c **** *  just after awaking from sleep.
 205:.\Generated_Source\PSoC5/uart_solinst_PM.c **** *
 206:.\Generated_Source\PSoC5/uart_solinst_PM.c **** * Parameters:
 207:.\Generated_Source\PSoC5/uart_solinst_PM.c **** *  None.
 208:.\Generated_Source\PSoC5/uart_solinst_PM.c **** *
 209:.\Generated_Source\PSoC5/uart_solinst_PM.c **** * Return:
 210:.\Generated_Source\PSoC5/uart_solinst_PM.c **** *  None.
 211:.\Generated_Source\PSoC5/uart_solinst_PM.c **** *
 212:.\Generated_Source\PSoC5/uart_solinst_PM.c **** * Global Variables:
 213:.\Generated_Source\PSoC5/uart_solinst_PM.c **** *  uart_solinst_backup - used when non-retention registers are restored.
 214:.\Generated_Source\PSoC5/uart_solinst_PM.c **** *
 215:.\Generated_Source\PSoC5/uart_solinst_PM.c **** * Reentrant:
 216:.\Generated_Source\PSoC5/uart_solinst_PM.c **** *  No.
 217:.\Generated_Source\PSoC5/uart_solinst_PM.c **** *
 218:.\Generated_Source\PSoC5/uart_solinst_PM.c **** *******************************************************************************/
 219:.\Generated_Source\PSoC5/uart_solinst_PM.c **** void uart_solinst_Wakeup(void)
 220:.\Generated_Source\PSoC5/uart_solinst_PM.c **** {
 155              		.loc 1 220 0
 156              		.cfi_startproc
 157              		@ args = 0, pretend = 0, frame = 0
 158              		@ frame_needed = 1, uses_anonymous_args = 0
 159 0000 80B5     		push	{r7, lr}
 160              	.LCFI6:
 161              		.cfi_def_cfa_offset 8
 162 0002 00AF     		add	r7, sp, #0
 163              		.cfi_offset 14, -4
 164              		.cfi_offset 7, -8
 165              	.LCFI7:
 166              		.cfi_def_cfa_register 7
 221:.\Generated_Source\PSoC5/uart_solinst_PM.c ****     uart_solinst_RestoreConfig();
 167              		.loc 1 221 0
 168 0004 FFF7FEFF 		bl	uart_solinst_RestoreConfig
 222:.\Generated_Source\PSoC5/uart_solinst_PM.c ****     #if( (uart_solinst_RX_ENABLED) || (uart_solinst_HD_ENABLED) )
 223:.\Generated_Source\PSoC5/uart_solinst_PM.c ****         uart_solinst_ClearRxBuffer();
 169              		.loc 1 223 0
 170 0008 FFF7FEFF 		bl	uart_solinst_ClearRxBuffer
 224:.\Generated_Source\PSoC5/uart_solinst_PM.c ****     #endif /* End (uart_solinst_RX_ENABLED) || (uart_solinst_HD_ENABLED) */
 225:.\Generated_Source\PSoC5/uart_solinst_PM.c ****     #if(uart_solinst_TX_ENABLED || uart_solinst_HD_ENABLED)
ARM GAS  C:\Users\karunmj\AppData\Local\Temp\ccUsbZik.s 			page 8


 226:.\Generated_Source\PSoC5/uart_solinst_PM.c ****         uart_solinst_ClearTxBuffer();
 171              		.loc 1 226 0
 172 000c FFF7FEFF 		bl	uart_solinst_ClearTxBuffer
 227:.\Generated_Source\PSoC5/uart_solinst_PM.c ****     #endif /* End uart_solinst_TX_ENABLED || uart_solinst_HD_ENABLED */
 228:.\Generated_Source\PSoC5/uart_solinst_PM.c **** 
 229:.\Generated_Source\PSoC5/uart_solinst_PM.c ****     if(uart_solinst_backup.enableState != 0u)
 173              		.loc 1 229 0
 174 0010 40F20003 		movw	r3, #:lower16:uart_solinst_backup
 175 0014 C0F20003 		movt	r3, #:upper16:uart_solinst_backup
 176 0018 1B78     		ldrb	r3, [r3, #0]	@ zero_extendqisi2
 177 001a 002B     		cmp	r3, #0
 178 001c 01D0     		beq	.L11
 230:.\Generated_Source\PSoC5/uart_solinst_PM.c ****     {
 231:.\Generated_Source\PSoC5/uart_solinst_PM.c ****         uart_solinst_Enable();
 179              		.loc 1 231 0
 180 001e FFF7FEFF 		bl	uart_solinst_Enable
 181              	.L11:
 232:.\Generated_Source\PSoC5/uart_solinst_PM.c ****     }
 233:.\Generated_Source\PSoC5/uart_solinst_PM.c **** }
 182              		.loc 1 233 0
 183 0022 80BD     		pop	{r7, pc}
 184              		.cfi_endproc
 185              	.LFE3:
 186              		.size	uart_solinst_Wakeup, .-uart_solinst_Wakeup
 187              		.text
 188              	.Letext0: