ARM GAS  C:\Users\karunmj\AppData\Local\Temp\cc5NDZwb.s 			page 1


   1              		.syntax unified
   2              		.cpu cortex-m3
   3              		.fpu softvfp
   4              		.eabi_attribute 20, 1
   5              		.eabi_attribute 21, 1
   6              		.eabi_attribute 23, 3
   7              		.eabi_attribute 24, 1
   8              		.eabi_attribute 25, 1
   9              		.eabi_attribute 26, 1
  10              		.eabi_attribute 30, 6
  11              		.eabi_attribute 18, 4
  12              		.thumb
  13              		.file	"PumpCycle.c"
  20 0000 66010000 		.text
  20      02007100 
  20      00000201 
  20      FB0E0D00 
  20      01010101 
  21              	.Ltext0:
  22              		.cfi_sections	.debug_frame
  23              		.global	PumpCycle_initVar
  24              		.bss
  25              		.type	PumpCycle_initVar, %object
  26              		.size	PumpCycle_initVar, 1
  27              	PumpCycle_initVar:
  28 0000 00       		.space	1
  29 0001 000000   		.align	2
  30              	PumpCycle_lowPowerBackup:
  31 0004 00       		.space	1
  32              	PumpCycle_restoreReg:
  33 0005 00       		.space	1
  34 0006 0000     		.section	.text.PumpCycle_Init,"ax",%progbits
  35              		.align	2
  36              		.global	PumpCycle_Init
  37              		.thumb
  38              		.thumb_func
  39              		.type	PumpCycle_Init, %function
  40              	PumpCycle_Init:
  41              	.LFB0:
  42              		.file 1 ".\\Generated_Source\\PSoC5\\PumpCycle.c"
   1:.\Generated_Source\PSoC5/PumpCycle.c **** /*******************************************************************************
   2:.\Generated_Source\PSoC5/PumpCycle.c **** * File Name: PumpCycle.c
   3:.\Generated_Source\PSoC5/PumpCycle.c **** * Version 2.0
   4:.\Generated_Source\PSoC5/PumpCycle.c **** *
   5:.\Generated_Source\PSoC5/PumpCycle.c **** * Description:
   6:.\Generated_Source\PSoC5/PumpCycle.c **** *  This file provides the source code to the API for the Comparator component
   7:.\Generated_Source\PSoC5/PumpCycle.c **** *
   8:.\Generated_Source\PSoC5/PumpCycle.c **** * Note:
   9:.\Generated_Source\PSoC5/PumpCycle.c **** *  None
  10:.\Generated_Source\PSoC5/PumpCycle.c **** *
  11:.\Generated_Source\PSoC5/PumpCycle.c **** ********************************************************************************
ARM GAS  C:\Users\karunmj\AppData\Local\Temp\cc5NDZwb.s 			page 2


  12:.\Generated_Source\PSoC5/PumpCycle.c **** * Copyright 2008-2012, Cypress Semiconductor Corporation.  All rights reserved.
  13:.\Generated_Source\PSoC5/PumpCycle.c **** * You may use this file only in accordance with the license, terms, conditions, 
  14:.\Generated_Source\PSoC5/PumpCycle.c **** * disclaimers, and limitations in the end user license agreement accompanying 
  15:.\Generated_Source\PSoC5/PumpCycle.c **** * the software package with which this file was provided.
  16:.\Generated_Source\PSoC5/PumpCycle.c **** *******************************************************************************/
  17:.\Generated_Source\PSoC5/PumpCycle.c **** 
  18:.\Generated_Source\PSoC5/PumpCycle.c **** #include "PumpCycle.h"
  19:.\Generated_Source\PSoC5/PumpCycle.c **** 
  20:.\Generated_Source\PSoC5/PumpCycle.c **** uint8 PumpCycle_initVar = 0u;
  21:.\Generated_Source\PSoC5/PumpCycle.c **** 
  22:.\Generated_Source\PSoC5/PumpCycle.c **** /* Internal functions definitoin */
  23:.\Generated_Source\PSoC5/PumpCycle.c **** static void PumpCycle_trimAdjust(uint8 nibble) ;
  24:.\Generated_Source\PSoC5/PumpCycle.c **** 
  25:.\Generated_Source\PSoC5/PumpCycle.c **** /* static PumpCycle_backupStruct  PumpCycle_backup; */
  26:.\Generated_Source\PSoC5/PumpCycle.c **** #if (CY_PSOC5A)
  27:.\Generated_Source\PSoC5/PumpCycle.c ****     static PumpCycle_LOWPOWER_BACKUP_STRUCT  PumpCycle_lowPowerBackup;
  28:.\Generated_Source\PSoC5/PumpCycle.c **** #endif /* CY_PSOC5A */
  29:.\Generated_Source\PSoC5/PumpCycle.c **** 
  30:.\Generated_Source\PSoC5/PumpCycle.c **** /* variable to decide whether or not to restore the control register in 
  31:.\Generated_Source\PSoC5/PumpCycle.c ****    Enable() API for PSoC5A only */
  32:.\Generated_Source\PSoC5/PumpCycle.c **** #if (CY_PSOC5A)
  33:.\Generated_Source\PSoC5/PumpCycle.c ****     static uint8 PumpCycle_restoreReg = 0u;
  34:.\Generated_Source\PSoC5/PumpCycle.c **** #endif /* CY_PSOC5A */
  35:.\Generated_Source\PSoC5/PumpCycle.c **** 
  36:.\Generated_Source\PSoC5/PumpCycle.c **** 
  37:.\Generated_Source\PSoC5/PumpCycle.c **** /*******************************************************************************
  38:.\Generated_Source\PSoC5/PumpCycle.c **** * Function Name: PumpCycle_Init
  39:.\Generated_Source\PSoC5/PumpCycle.c **** ********************************************************************************
  40:.\Generated_Source\PSoC5/PumpCycle.c **** *
  41:.\Generated_Source\PSoC5/PumpCycle.c **** * Summary:
  42:.\Generated_Source\PSoC5/PumpCycle.c **** *  Initialize to the schematic state
  43:.\Generated_Source\PSoC5/PumpCycle.c **** * 
  44:.\Generated_Source\PSoC5/PumpCycle.c **** * Parameters:
  45:.\Generated_Source\PSoC5/PumpCycle.c **** *  void
  46:.\Generated_Source\PSoC5/PumpCycle.c **** *
  47:.\Generated_Source\PSoC5/PumpCycle.c **** * Return:
  48:.\Generated_Source\PSoC5/PumpCycle.c **** *  void
  49:.\Generated_Source\PSoC5/PumpCycle.c **** *
  50:.\Generated_Source\PSoC5/PumpCycle.c **** *******************************************************************************/
  51:.\Generated_Source\PSoC5/PumpCycle.c **** void PumpCycle_Init(void) 
  52:.\Generated_Source\PSoC5/PumpCycle.c **** {
  43              		.loc 1 52 0
  44              		.cfi_startproc
  45              		@ args = 0, pretend = 0, frame = 0
  46              		@ frame_needed = 1, uses_anonymous_args = 0
  47 0000 80B5     		push	{r7, lr}
  48              	.LCFI0:
  49              		.cfi_def_cfa_offset 8
  50 0002 00AF     		add	r7, sp, #0
  51              		.cfi_offset 14, -4
  52              		.cfi_offset 7, -8
  53              	.LCFI1:
  54              		.cfi_def_cfa_register 7
  53:.\Generated_Source\PSoC5/PumpCycle.c ****     /* Set default speed/power */
  54:.\Generated_Source\PSoC5/PumpCycle.c ****     PumpCycle_SetSpeed(PumpCycle_DEFAULT_SPEED);
  55              		.loc 1 54 0
  56 0004 4FF00100 		mov	r0, #1
ARM GAS  C:\Users\karunmj\AppData\Local\Temp\cc5NDZwb.s 			page 3


  57 0008 FFF7FEFF 		bl	PumpCycle_SetSpeed
  55:.\Generated_Source\PSoC5/PumpCycle.c **** 
  56:.\Generated_Source\PSoC5/PumpCycle.c ****     /* Set default Hysteresis */
  57:.\Generated_Source\PSoC5/PumpCycle.c ****     #if ( PumpCycle_DEFAULT_HYSTERESIS == 0u )
  58:.\Generated_Source\PSoC5/PumpCycle.c ****         PumpCycle_CR |= PumpCycle_HYST_OFF;
  58              		.loc 1 58 0
  59 000c 45F64203 		movw	r3, #:lower16:1073764418
  60 0010 C4F20003 		movt	r3, #:upper16:1073764418
  61 0014 45F64202 		movw	r2, #:lower16:1073764418
  62 0018 C4F20002 		movt	r2, #:upper16:1073764418
  63 001c 1278     		ldrb	r2, [r2, #0]
  64 001e D2B2     		uxtb	r2, r2
  65 0020 42F02002 		orr	r2, r2, #32
  66 0024 D2B2     		uxtb	r2, r2
  67 0026 1A70     		strb	r2, [r3, #0]
  59:.\Generated_Source\PSoC5/PumpCycle.c ****     #else
  60:.\Generated_Source\PSoC5/PumpCycle.c ****         PumpCycle_CR &= (uint8)(~PumpCycle_HYST_OFF);
  61:.\Generated_Source\PSoC5/PumpCycle.c ****     #endif /* PumpCycle_DEFAULT_HYSTERESIS == 0u */
  62:.\Generated_Source\PSoC5/PumpCycle.c ****     /* Power down override feature is not supported for PSoC5A. */
  63:.\Generated_Source\PSoC5/PumpCycle.c ****     #if (CY_PSOC3 || CY_PSOC5LP)
  64:.\Generated_Source\PSoC5/PumpCycle.c ****         /* Set default Power Down Override */
  65:.\Generated_Source\PSoC5/PumpCycle.c ****         #if ( PumpCycle_DEFAULT_PWRDWN_OVRD == 0u )
  66:.\Generated_Source\PSoC5/PumpCycle.c ****             PumpCycle_CR &= (uint8)(~PumpCycle_PWRDWN_OVRD);
  67:.\Generated_Source\PSoC5/PumpCycle.c ****         #else 
  68:.\Generated_Source\PSoC5/PumpCycle.c ****             PumpCycle_CR |= PumpCycle_PWRDWN_OVRD;
  69:.\Generated_Source\PSoC5/PumpCycle.c ****         #endif /* PumpCycle_DEFAULT_PWRDWN_OVRD == 0u */
  70:.\Generated_Source\PSoC5/PumpCycle.c ****     #endif /* CY_PSOC3 || CY_PSOC5LP */
  71:.\Generated_Source\PSoC5/PumpCycle.c ****     
  72:.\Generated_Source\PSoC5/PumpCycle.c ****     /* Set mux always on logic */
  73:.\Generated_Source\PSoC5/PumpCycle.c ****     PumpCycle_CR |= PumpCycle_MX_AO;
  68              		.loc 1 73 0
  69 0028 45F64203 		movw	r3, #:lower16:1073764418
  70 002c C4F20003 		movt	r3, #:upper16:1073764418
  71 0030 45F64202 		movw	r2, #:lower16:1073764418
  72 0034 C4F20002 		movt	r2, #:upper16:1073764418
  73 0038 1278     		ldrb	r2, [r2, #0]
  74 003a D2B2     		uxtb	r2, r2
  75 003c 42F00802 		orr	r2, r2, #8
  76 0040 D2B2     		uxtb	r2, r2
  77 0042 1A70     		strb	r2, [r3, #0]
  74:.\Generated_Source\PSoC5/PumpCycle.c **** 
  75:.\Generated_Source\PSoC5/PumpCycle.c ****     /* Set default sync */
  76:.\Generated_Source\PSoC5/PumpCycle.c ****     PumpCycle_CLK &= (uint8)(~PumpCycle_SYNCCLK_MASK);
  78              		.loc 1 76 0
  79 0044 45F6D723 		movw	r3, #:lower16:1073765079
  80 0048 C4F20003 		movt	r3, #:upper16:1073765079
  81 004c 45F6D722 		movw	r2, #:lower16:1073765079
  82 0050 C4F20002 		movt	r2, #:upper16:1073765079
  83 0054 1278     		ldrb	r2, [r2, #0]
  84 0056 D2B2     		uxtb	r2, r2
  85 0058 02F0E702 		and	r2, r2, #231
  86 005c 1A70     		strb	r2, [r3, #0]
  77:.\Generated_Source\PSoC5/PumpCycle.c ****     #if ( PumpCycle_DEFAULT_BYPASS_SYNC == 0u )
  78:.\Generated_Source\PSoC5/PumpCycle.c ****         PumpCycle_CLK |= PumpCycle_SYNC_CLK_EN;
  79:.\Generated_Source\PSoC5/PumpCycle.c ****     #else
  80:.\Generated_Source\PSoC5/PumpCycle.c ****         PumpCycle_CLK |= PumpCycle_BYPASS_SYNC;
  87              		.loc 1 80 0
ARM GAS  C:\Users\karunmj\AppData\Local\Temp\cc5NDZwb.s 			page 4


  88 005e 45F6D723 		movw	r3, #:lower16:1073765079
  89 0062 C4F20003 		movt	r3, #:upper16:1073765079
  90 0066 45F6D722 		movw	r2, #:lower16:1073765079
  91 006a C4F20002 		movt	r2, #:upper16:1073765079
  92 006e 1278     		ldrb	r2, [r2, #0]
  93 0070 D2B2     		uxtb	r2, r2
  94 0072 42F01002 		orr	r2, r2, #16
  95 0076 D2B2     		uxtb	r2, r2
  96 0078 1A70     		strb	r2, [r3, #0]
  81:.\Generated_Source\PSoC5/PumpCycle.c ****     #endif /* PumpCycle_DEFAULT_BYPASS_SYNC == 0u */
  82:.\Generated_Source\PSoC5/PumpCycle.c **** }
  97              		.loc 1 82 0
  98 007a 80BD     		pop	{r7, pc}
  99              		.cfi_endproc
 100              	.LFE0:
 101              		.size	PumpCycle_Init, .-PumpCycle_Init
 102              		.section	.text.PumpCycle_Enable,"ax",%progbits
 103              		.align	2
 104              		.global	PumpCycle_Enable
 105              		.thumb
 106              		.thumb_func
 107              		.type	PumpCycle_Enable, %function
 108              	PumpCycle_Enable:
 109              	.LFB1:
  83:.\Generated_Source\PSoC5/PumpCycle.c **** 
  84:.\Generated_Source\PSoC5/PumpCycle.c **** 
  85:.\Generated_Source\PSoC5/PumpCycle.c **** /*******************************************************************************
  86:.\Generated_Source\PSoC5/PumpCycle.c **** * Function Name: PumpCycle_Enable
  87:.\Generated_Source\PSoC5/PumpCycle.c **** ********************************************************************************
  88:.\Generated_Source\PSoC5/PumpCycle.c **** *
  89:.\Generated_Source\PSoC5/PumpCycle.c **** * Summary:
  90:.\Generated_Source\PSoC5/PumpCycle.c **** *  Enable the Comparator
  91:.\Generated_Source\PSoC5/PumpCycle.c **** * 
  92:.\Generated_Source\PSoC5/PumpCycle.c **** * Parameters:
  93:.\Generated_Source\PSoC5/PumpCycle.c **** *  void
  94:.\Generated_Source\PSoC5/PumpCycle.c **** *
  95:.\Generated_Source\PSoC5/PumpCycle.c **** * Return:
  96:.\Generated_Source\PSoC5/PumpCycle.c **** *  void
  97:.\Generated_Source\PSoC5/PumpCycle.c **** *
  98:.\Generated_Source\PSoC5/PumpCycle.c **** *******************************************************************************/
  99:.\Generated_Source\PSoC5/PumpCycle.c **** void PumpCycle_Enable(void) 
 100:.\Generated_Source\PSoC5/PumpCycle.c **** {
 110              		.loc 1 100 0
 111              		.cfi_startproc
 112              		@ args = 0, pretend = 0, frame = 0
 113              		@ frame_needed = 1, uses_anonymous_args = 0
 114              		@ link register save eliminated.
 115 0000 80B4     		push	{r7}
 116              	.LCFI2:
 117              		.cfi_def_cfa_offset 4
 118 0002 00AF     		add	r7, sp, #0
 119              		.cfi_offset 7, -4
 120              	.LCFI3:
 121              		.cfi_def_cfa_register 7
 101:.\Generated_Source\PSoC5/PumpCycle.c ****     PumpCycle_PWRMGR |= PumpCycle_ACT_PWR_EN;
 122              		.loc 1 101 0
 123 0004 44F2A733 		movw	r3, #:lower16:1073759143
ARM GAS  C:\Users\karunmj\AppData\Local\Temp\cc5NDZwb.s 			page 5


 124 0008 C4F20003 		movt	r3, #:upper16:1073759143
 125 000c 44F2A732 		movw	r2, #:lower16:1073759143
 126 0010 C4F20002 		movt	r2, #:upper16:1073759143
 127 0014 1278     		ldrb	r2, [r2, #0]
 128 0016 D2B2     		uxtb	r2, r2
 129 0018 42F00202 		orr	r2, r2, #2
 130 001c D2B2     		uxtb	r2, r2
 131 001e 1A70     		strb	r2, [r3, #0]
 102:.\Generated_Source\PSoC5/PumpCycle.c ****     PumpCycle_STBY_PWRMGR |= PumpCycle_STBY_PWR_EN;
 132              		.loc 1 102 0
 133 0020 44F2B733 		movw	r3, #:lower16:1073759159
 134 0024 C4F20003 		movt	r3, #:upper16:1073759159
 135 0028 44F2B732 		movw	r2, #:lower16:1073759159
 136 002c C4F20002 		movt	r2, #:upper16:1073759159
 137 0030 1278     		ldrb	r2, [r2, #0]
 138 0032 D2B2     		uxtb	r2, r2
 139 0034 42F00202 		orr	r2, r2, #2
 140 0038 D2B2     		uxtb	r2, r2
 141 003a 1A70     		strb	r2, [r3, #0]
 103:.\Generated_Source\PSoC5/PumpCycle.c ****      
 104:.\Generated_Source\PSoC5/PumpCycle.c ****      /* This is to restore the value of register CR which is saved 
 105:.\Generated_Source\PSoC5/PumpCycle.c ****     in prior to the modification in stop() API */
 106:.\Generated_Source\PSoC5/PumpCycle.c ****     #if (CY_PSOC5A)
 107:.\Generated_Source\PSoC5/PumpCycle.c ****         if(PumpCycle_restoreReg == 1u)
 142              		.loc 1 107 0
 143 003c 40F20003 		movw	r3, #:lower16:PumpCycle_restoreReg
 144 0040 C0F20003 		movt	r3, #:upper16:PumpCycle_restoreReg
 145 0044 1B78     		ldrb	r3, [r3, #0]	@ zero_extendqisi2
 146 0046 012B     		cmp	r3, #1
 147 0048 10D1     		bne	.L5
 108:.\Generated_Source\PSoC5/PumpCycle.c ****         {
 109:.\Generated_Source\PSoC5/PumpCycle.c ****             PumpCycle_CR = PumpCycle_lowPowerBackup.compCRReg;
 148              		.loc 1 109 0
 149 004a 45F64203 		movw	r3, #:lower16:1073764418
 150 004e C4F20003 		movt	r3, #:upper16:1073764418
 151 0052 40F20002 		movw	r2, #:lower16:PumpCycle_lowPowerBackup
 152 0056 C0F20002 		movt	r2, #:upper16:PumpCycle_lowPowerBackup
 153 005a 1278     		ldrb	r2, [r2, #0]	@ zero_extendqisi2
 154 005c 1A70     		strb	r2, [r3, #0]
 110:.\Generated_Source\PSoC5/PumpCycle.c **** 
 111:.\Generated_Source\PSoC5/PumpCycle.c ****             /* Clear the flag */
 112:.\Generated_Source\PSoC5/PumpCycle.c ****             PumpCycle_restoreReg = 0u;
 155              		.loc 1 112 0
 156 005e 40F20003 		movw	r3, #:lower16:PumpCycle_restoreReg
 157 0062 C0F20003 		movt	r3, #:upper16:PumpCycle_restoreReg
 158 0066 4FF00002 		mov	r2, #0
 159 006a 1A70     		strb	r2, [r3, #0]
 160              	.L5:
 113:.\Generated_Source\PSoC5/PumpCycle.c ****         }
 114:.\Generated_Source\PSoC5/PumpCycle.c ****     #endif /* CY_PSOC5A */
 115:.\Generated_Source\PSoC5/PumpCycle.c **** }
 161              		.loc 1 115 0
 162 006c BD46     		mov	sp, r7
 163 006e 80BC     		pop	{r7}
 164 0070 7047     		bx	lr
 165              		.cfi_endproc
 166              	.LFE1:
ARM GAS  C:\Users\karunmj\AppData\Local\Temp\cc5NDZwb.s 			page 6


 167              		.size	PumpCycle_Enable, .-PumpCycle_Enable
 168 0072 00BF     		.section	.text.PumpCycle_Start,"ax",%progbits
 169              		.align	2
 170              		.global	PumpCycle_Start
 171              		.thumb
 172              		.thumb_func
 173              		.type	PumpCycle_Start, %function
 174              	PumpCycle_Start:
 175              	.LFB2:
 116:.\Generated_Source\PSoC5/PumpCycle.c **** 
 117:.\Generated_Source\PSoC5/PumpCycle.c **** 
 118:.\Generated_Source\PSoC5/PumpCycle.c **** /*******************************************************************************
 119:.\Generated_Source\PSoC5/PumpCycle.c **** * Function Name: PumpCycle_Start
 120:.\Generated_Source\PSoC5/PumpCycle.c **** ********************************************************************************
 121:.\Generated_Source\PSoC5/PumpCycle.c **** *
 122:.\Generated_Source\PSoC5/PumpCycle.c **** * Summary:
 123:.\Generated_Source\PSoC5/PumpCycle.c **** *  The start function initializes the Analog Comparator with the default values.
 124:.\Generated_Source\PSoC5/PumpCycle.c **** *
 125:.\Generated_Source\PSoC5/PumpCycle.c **** * Parameters:
 126:.\Generated_Source\PSoC5/PumpCycle.c **** *  void
 127:.\Generated_Source\PSoC5/PumpCycle.c **** *
 128:.\Generated_Source\PSoC5/PumpCycle.c **** * Return:
 129:.\Generated_Source\PSoC5/PumpCycle.c **** *  void 
 130:.\Generated_Source\PSoC5/PumpCycle.c **** *
 131:.\Generated_Source\PSoC5/PumpCycle.c **** * Global variables:
 132:.\Generated_Source\PSoC5/PumpCycle.c **** *  PumpCycle_initVar: Is modified when this function is called for the 
 133:.\Generated_Source\PSoC5/PumpCycle.c **** *   first time. Is used to ensure that initialization happens only once.
 134:.\Generated_Source\PSoC5/PumpCycle.c **** *  
 135:.\Generated_Source\PSoC5/PumpCycle.c **** *******************************************************************************/
 136:.\Generated_Source\PSoC5/PumpCycle.c **** void PumpCycle_Start(void) 
 137:.\Generated_Source\PSoC5/PumpCycle.c **** {
 176              		.loc 1 137 0
 177              		.cfi_startproc
 178              		@ args = 0, pretend = 0, frame = 0
 179              		@ frame_needed = 1, uses_anonymous_args = 0
 180 0000 80B5     		push	{r7, lr}
 181              	.LCFI4:
 182              		.cfi_def_cfa_offset 8
 183 0002 00AF     		add	r7, sp, #0
 184              		.cfi_offset 14, -4
 185              		.cfi_offset 7, -8
 186              	.LCFI5:
 187              		.cfi_def_cfa_register 7
 138:.\Generated_Source\PSoC5/PumpCycle.c **** 
 139:.\Generated_Source\PSoC5/PumpCycle.c ****     if ( PumpCycle_initVar == 0u )
 188              		.loc 1 139 0
 189 0004 40F20003 		movw	r3, #:lower16:PumpCycle_initVar
 190 0008 C0F20003 		movt	r3, #:upper16:PumpCycle_initVar
 191 000c 1B78     		ldrb	r3, [r3, #0]	@ zero_extendqisi2
 192 000e 002B     		cmp	r3, #0
 193 0010 08D1     		bne	.L7
 140:.\Generated_Source\PSoC5/PumpCycle.c ****     {
 141:.\Generated_Source\PSoC5/PumpCycle.c ****         PumpCycle_Init();
 194              		.loc 1 141 0
 195 0012 FFF7FEFF 		bl	PumpCycle_Init
 142:.\Generated_Source\PSoC5/PumpCycle.c ****         
 143:.\Generated_Source\PSoC5/PumpCycle.c ****         PumpCycle_initVar = 1u;
ARM GAS  C:\Users\karunmj\AppData\Local\Temp\cc5NDZwb.s 			page 7


 196              		.loc 1 143 0
 197 0016 40F20003 		movw	r3, #:lower16:PumpCycle_initVar
 198 001a C0F20003 		movt	r3, #:upper16:PumpCycle_initVar
 199 001e 4FF00102 		mov	r2, #1
 200 0022 1A70     		strb	r2, [r3, #0]
 201              	.L7:
 144:.\Generated_Source\PSoC5/PumpCycle.c ****     }   
 145:.\Generated_Source\PSoC5/PumpCycle.c **** 
 146:.\Generated_Source\PSoC5/PumpCycle.c ****     /* Enable power to comparator */
 147:.\Generated_Source\PSoC5/PumpCycle.c ****     PumpCycle_Enable();    
 202              		.loc 1 147 0
 203 0024 FFF7FEFF 		bl	PumpCycle_Enable
 148:.\Generated_Source\PSoC5/PumpCycle.c **** }
 204              		.loc 1 148 0
 205 0028 80BD     		pop	{r7, pc}
 206              		.cfi_endproc
 207              	.LFE2:
 208              		.size	PumpCycle_Start, .-PumpCycle_Start
 209 002a 00BF     		.section	.text.PumpCycle_Stop,"ax",%progbits
 210              		.align	2
 211              		.global	PumpCycle_Stop
 212              		.thumb
 213              		.thumb_func
 214              		.type	PumpCycle_Stop, %function
 215              	PumpCycle_Stop:
 216              	.LFB3:
 149:.\Generated_Source\PSoC5/PumpCycle.c **** 
 150:.\Generated_Source\PSoC5/PumpCycle.c **** 
 151:.\Generated_Source\PSoC5/PumpCycle.c **** /*******************************************************************************
 152:.\Generated_Source\PSoC5/PumpCycle.c **** * Function Name: PumpCycle_Stop
 153:.\Generated_Source\PSoC5/PumpCycle.c **** ********************************************************************************
 154:.\Generated_Source\PSoC5/PumpCycle.c **** *
 155:.\Generated_Source\PSoC5/PumpCycle.c **** * Summary:
 156:.\Generated_Source\PSoC5/PumpCycle.c **** *  Powers down amplifier to lowest power state.
 157:.\Generated_Source\PSoC5/PumpCycle.c **** *
 158:.\Generated_Source\PSoC5/PumpCycle.c **** * Parameters:
 159:.\Generated_Source\PSoC5/PumpCycle.c **** *  void
 160:.\Generated_Source\PSoC5/PumpCycle.c **** *
 161:.\Generated_Source\PSoC5/PumpCycle.c **** * Return:
 162:.\Generated_Source\PSoC5/PumpCycle.c **** *  void
 163:.\Generated_Source\PSoC5/PumpCycle.c **** *
 164:.\Generated_Source\PSoC5/PumpCycle.c **** *******************************************************************************/
 165:.\Generated_Source\PSoC5/PumpCycle.c **** void PumpCycle_Stop(void) 
 166:.\Generated_Source\PSoC5/PumpCycle.c **** {
 217              		.loc 1 166 0
 218              		.cfi_startproc
 219              		@ args = 0, pretend = 0, frame = 0
 220              		@ frame_needed = 1, uses_anonymous_args = 0
 221              		@ link register save eliminated.
 222 0000 80B4     		push	{r7}
 223              	.LCFI6:
 224              		.cfi_def_cfa_offset 4
 225 0002 00AF     		add	r7, sp, #0
 226              		.cfi_offset 7, -4
 227              	.LCFI7:
 228              		.cfi_def_cfa_register 7
 167:.\Generated_Source\PSoC5/PumpCycle.c ****     /* Disable power to comparator */
ARM GAS  C:\Users\karunmj\AppData\Local\Temp\cc5NDZwb.s 			page 8


 168:.\Generated_Source\PSoC5/PumpCycle.c ****     PumpCycle_PWRMGR &= (uint8)(~PumpCycle_ACT_PWR_EN);
 229              		.loc 1 168 0
 230 0004 44F2A733 		movw	r3, #:lower16:1073759143
 231 0008 C4F20003 		movt	r3, #:upper16:1073759143
 232 000c 44F2A732 		movw	r2, #:lower16:1073759143
 233 0010 C4F20002 		movt	r2, #:upper16:1073759143
 234 0014 1278     		ldrb	r2, [r2, #0]
 235 0016 D2B2     		uxtb	r2, r2
 236 0018 02F0FD02 		and	r2, r2, #253
 237 001c 1A70     		strb	r2, [r3, #0]
 169:.\Generated_Source\PSoC5/PumpCycle.c ****     PumpCycle_STBY_PWRMGR &= (uint8)(~PumpCycle_STBY_PWR_EN);
 238              		.loc 1 169 0
 239 001e 44F2B733 		movw	r3, #:lower16:1073759159
 240 0022 C4F20003 		movt	r3, #:upper16:1073759159
 241 0026 44F2B732 		movw	r2, #:lower16:1073759159
 242 002a C4F20002 		movt	r2, #:upper16:1073759159
 243 002e 1278     		ldrb	r2, [r2, #0]
 244 0030 D2B2     		uxtb	r2, r2
 245 0032 02F0FD02 		and	r2, r2, #253
 246 0036 1A70     		strb	r2, [r3, #0]
 170:.\Generated_Source\PSoC5/PumpCycle.c ****     
 171:.\Generated_Source\PSoC5/PumpCycle.c ****     #if (CY_PSOC5A)
 172:.\Generated_Source\PSoC5/PumpCycle.c ****         /* Enable the variable */
 173:.\Generated_Source\PSoC5/PumpCycle.c ****         PumpCycle_restoreReg = 1u;
 247              		.loc 1 173 0
 248 0038 40F20003 		movw	r3, #:lower16:PumpCycle_restoreReg
 249 003c C0F20003 		movt	r3, #:upper16:PumpCycle_restoreReg
 250 0040 4FF00102 		mov	r2, #1
 251 0044 1A70     		strb	r2, [r3, #0]
 174:.\Generated_Source\PSoC5/PumpCycle.c **** 
 175:.\Generated_Source\PSoC5/PumpCycle.c ****         /* Save the control register before clearing it */
 176:.\Generated_Source\PSoC5/PumpCycle.c ****         PumpCycle_lowPowerBackup.compCRReg = PumpCycle_CR;
 252              		.loc 1 176 0
 253 0046 45F64203 		movw	r3, #:lower16:1073764418
 254 004a C4F20003 		movt	r3, #:upper16:1073764418
 255 004e 1B78     		ldrb	r3, [r3, #0]
 256 0050 DAB2     		uxtb	r2, r3
 257 0052 40F20003 		movw	r3, #:lower16:PumpCycle_lowPowerBackup
 258 0056 C0F20003 		movt	r3, #:upper16:PumpCycle_lowPowerBackup
 259 005a 1A70     		strb	r2, [r3, #0]
 177:.\Generated_Source\PSoC5/PumpCycle.c ****         PumpCycle_CR = PumpCycle_COMP_REG_CLR;
 260              		.loc 1 177 0
 261 005c 45F64203 		movw	r3, #:lower16:1073764418
 262 0060 C4F20003 		movt	r3, #:upper16:1073764418
 263 0064 4FF00002 		mov	r2, #0
 264 0068 1A70     		strb	r2, [r3, #0]
 178:.\Generated_Source\PSoC5/PumpCycle.c ****     #endif /* CY_PSOC5A */
 179:.\Generated_Source\PSoC5/PumpCycle.c **** }
 265              		.loc 1 179 0
 266 006a BD46     		mov	sp, r7
 267 006c 80BC     		pop	{r7}
 268 006e 7047     		bx	lr
 269              		.cfi_endproc
 270              	.LFE3:
 271              		.size	PumpCycle_Stop, .-PumpCycle_Stop
 272              		.section	.text.PumpCycle_SetSpeed,"ax",%progbits
 273              		.align	2
ARM GAS  C:\Users\karunmj\AppData\Local\Temp\cc5NDZwb.s 			page 9


 274              		.global	PumpCycle_SetSpeed
 275              		.thumb
 276              		.thumb_func
 277              		.type	PumpCycle_SetSpeed, %function
 278              	PumpCycle_SetSpeed:
 279              	.LFB4:
 180:.\Generated_Source\PSoC5/PumpCycle.c **** 
 181:.\Generated_Source\PSoC5/PumpCycle.c **** 
 182:.\Generated_Source\PSoC5/PumpCycle.c **** /*******************************************************************************
 183:.\Generated_Source\PSoC5/PumpCycle.c **** * Function Name: PumpCycle_SetSpeed
 184:.\Generated_Source\PSoC5/PumpCycle.c **** ********************************************************************************
 185:.\Generated_Source\PSoC5/PumpCycle.c **** *
 186:.\Generated_Source\PSoC5/PumpCycle.c **** * Summary:
 187:.\Generated_Source\PSoC5/PumpCycle.c **** *  This function sets the speed of the Analog Comparator. The faster the speed
 188:.\Generated_Source\PSoC5/PumpCycle.c **** *  the more power that is used.
 189:.\Generated_Source\PSoC5/PumpCycle.c **** *
 190:.\Generated_Source\PSoC5/PumpCycle.c **** * Parameters:
 191:.\Generated_Source\PSoC5/PumpCycle.c **** *  speed: (uint8) Sets operation mode of Comparator
 192:.\Generated_Source\PSoC5/PumpCycle.c **** *
 193:.\Generated_Source\PSoC5/PumpCycle.c **** * Return:
 194:.\Generated_Source\PSoC5/PumpCycle.c **** *  void
 195:.\Generated_Source\PSoC5/PumpCycle.c **** *
 196:.\Generated_Source\PSoC5/PumpCycle.c **** *******************************************************************************/
 197:.\Generated_Source\PSoC5/PumpCycle.c **** void PumpCycle_SetSpeed(uint8 speed) 
 198:.\Generated_Source\PSoC5/PumpCycle.c **** {
 280              		.loc 1 198 0
 281              		.cfi_startproc
 282              		@ args = 0, pretend = 0, frame = 8
 283              		@ frame_needed = 1, uses_anonymous_args = 0
 284              		@ link register save eliminated.
 285 0000 80B4     		push	{r7}
 286              	.LCFI8:
 287              		.cfi_def_cfa_offset 4
 288 0002 83B0     		sub	sp, sp, #12
 289              	.LCFI9:
 290              		.cfi_def_cfa_offset 16
 291 0004 00AF     		add	r7, sp, #0
 292              		.cfi_offset 7, -4
 293              	.LCFI10:
 294              		.cfi_def_cfa_register 7
 295 0006 0346     		mov	r3, r0
 296 0008 FB71     		strb	r3, [r7, #7]
 199:.\Generated_Source\PSoC5/PumpCycle.c ****     /* Clear and Set power level */    
 200:.\Generated_Source\PSoC5/PumpCycle.c ****     PumpCycle_CR = (PumpCycle_CR & (uint8)(~PumpCycle_PWR_MODE_MASK)) |
 297              		.loc 1 200 0
 298 000a 45F64203 		movw	r3, #:lower16:1073764418
 299 000e C4F20003 		movt	r3, #:upper16:1073764418
 300 0012 45F64202 		movw	r2, #:lower16:1073764418
 301 0016 C4F20002 		movt	r2, #:upper16:1073764418
 302 001a 1278     		ldrb	r2, [r2, #0]
 303 001c D2B2     		uxtb	r2, r2
 304 001e D1B2     		uxtb	r1, r2
 305 0020 01F0FC01 		and	r1, r1, #252
 306 0024 FA79     		ldrb	r2, [r7, #7]	@ zero_extendqisi2
 307 0026 D2B2     		uxtb	r2, r2
 308 0028 02F00302 		and	r2, r2, #3
 309 002c 41EA0202 		orr	r2, r1, r2
ARM GAS  C:\Users\karunmj\AppData\Local\Temp\cc5NDZwb.s 			page 10


 310 0030 D2B2     		uxtb	r2, r2
 311 0032 D2B2     		uxtb	r2, r2
 312 0034 1A70     		strb	r2, [r3, #0]
 201:.\Generated_Source\PSoC5/PumpCycle.c ****                            (speed & PumpCycle_PWR_MODE_MASK);
 202:.\Generated_Source\PSoC5/PumpCycle.c **** 
 203:.\Generated_Source\PSoC5/PumpCycle.c ****     /* Set trim value for high speed comparator */
 204:.\Generated_Source\PSoC5/PumpCycle.c ****     if(speed == PumpCycle_HIGHSPEED)
 313              		.loc 1 204 0
 314 0036 FB79     		ldrb	r3, [r7, #7]	@ zero_extendqisi2
 315 0038 012B     		cmp	r3, #1
 316 003a 0BD1     		bne	.L12
 205:.\Generated_Source\PSoC5/PumpCycle.c ****     {
 206:.\Generated_Source\PSoC5/PumpCycle.c ****         /* PSoC5A */
 207:.\Generated_Source\PSoC5/PumpCycle.c ****         #if (CY_PSOC5A)
 208:.\Generated_Source\PSoC5/PumpCycle.c ****             PumpCycle_TR = PumpCycle_HS_TRIM_TR0;
 317              		.loc 1 208 0
 318 003c 44F20263 		movw	r3, #:lower16:1073759746
 319 0040 C4F20003 		movt	r3, #:upper16:1073759746
 320 0044 40F21212 		movw	r2, #:lower16:1224737042
 321 0048 C4F60012 		movt	r2, #:upper16:1224737042
 322 004c 1278     		ldrb	r2, [r2, #0]
 323 004e D2B2     		uxtb	r2, r2
 324 0050 1A70     		strb	r2, [r3, #0]
 325 0052 0AE0     		b	.L14
 326              	.L12:
 209:.\Generated_Source\PSoC5/PumpCycle.c ****         #endif /* CY_PSOC5A */
 210:.\Generated_Source\PSoC5/PumpCycle.c ****         
 211:.\Generated_Source\PSoC5/PumpCycle.c ****         /* PSoC3, PSoC5LP or later */
 212:.\Generated_Source\PSoC5/PumpCycle.c ****         #if (CY_PSOC3 || CY_PSOC5LP) 
 213:.\Generated_Source\PSoC5/PumpCycle.c ****             PumpCycle_TR0 = PumpCycle_HS_TRIM_TR0;
 214:.\Generated_Source\PSoC5/PumpCycle.c ****             PumpCycle_TR1 = PumpCycle_HS_TRIM_TR1;
 215:.\Generated_Source\PSoC5/PumpCycle.c ****         #endif /* CY_PSOC3 || CY_PSOC5LP */
 216:.\Generated_Source\PSoC5/PumpCycle.c ****     }
 217:.\Generated_Source\PSoC5/PumpCycle.c ****     else
 218:.\Generated_Source\PSoC5/PumpCycle.c ****     {
 219:.\Generated_Source\PSoC5/PumpCycle.c ****     /* PSoC5A */
 220:.\Generated_Source\PSoC5/PumpCycle.c ****         #if (CY_PSOC5A)
 221:.\Generated_Source\PSoC5/PumpCycle.c ****             PumpCycle_TR = PumpCycle_LS_TRIM_TR0;
 327              		.loc 1 221 0
 328 0054 44F20263 		movw	r3, #:lower16:1073759746
 329 0058 C4F20003 		movt	r3, #:upper16:1073759746
 330 005c 40F2AD12 		movw	r2, #:lower16:1224737197
 331 0060 C4F60012 		movt	r2, #:upper16:1224737197
 332 0064 1278     		ldrb	r2, [r2, #0]
 333 0066 D2B2     		uxtb	r2, r2
 334 0068 1A70     		strb	r2, [r3, #0]
 335              	.L14:
 222:.\Generated_Source\PSoC5/PumpCycle.c ****         #endif /* CY_PSOC5A */
 223:.\Generated_Source\PSoC5/PumpCycle.c ****         
 224:.\Generated_Source\PSoC5/PumpCycle.c ****         /* PSoC3, PSoC5LP or later */
 225:.\Generated_Source\PSoC5/PumpCycle.c ****         #if (CY_PSOC3 || CY_PSOC5LP) 
 226:.\Generated_Source\PSoC5/PumpCycle.c ****             PumpCycle_TR0 = PumpCycle_LS_TRIM_TR0;
 227:.\Generated_Source\PSoC5/PumpCycle.c ****             PumpCycle_TR1 = PumpCycle_LS_TRIM_TR1;
 228:.\Generated_Source\PSoC5/PumpCycle.c ****         #endif /* CY_PSOC3 || CY_PSOC5LP */
 229:.\Generated_Source\PSoC5/PumpCycle.c ****     }
 230:.\Generated_Source\PSoC5/PumpCycle.c **** 
 231:.\Generated_Source\PSoC5/PumpCycle.c **** }
ARM GAS  C:\Users\karunmj\AppData\Local\Temp\cc5NDZwb.s 			page 11


 336              		.loc 1 231 0
 337 006a 07F10C07 		add	r7, r7, #12
 338 006e BD46     		mov	sp, r7
 339 0070 80BC     		pop	{r7}
 340 0072 7047     		bx	lr
 341              		.cfi_endproc
 342              	.LFE4:
 343              		.size	PumpCycle_SetSpeed, .-PumpCycle_SetSpeed
 344              		.section	.text.PumpCycle_GetCompare,"ax",%progbits
 345              		.align	2
 346              		.global	PumpCycle_GetCompare
 347              		.thumb
 348              		.thumb_func
 349              		.type	PumpCycle_GetCompare, %function
 350              	PumpCycle_GetCompare:
 351              	.LFB5:
 232:.\Generated_Source\PSoC5/PumpCycle.c **** 
 233:.\Generated_Source\PSoC5/PumpCycle.c **** 
 234:.\Generated_Source\PSoC5/PumpCycle.c **** /*******************************************************************************
 235:.\Generated_Source\PSoC5/PumpCycle.c **** * Function Name: PumpCycle_GetCompare
 236:.\Generated_Source\PSoC5/PumpCycle.c **** ********************************************************************************
 237:.\Generated_Source\PSoC5/PumpCycle.c **** *
 238:.\Generated_Source\PSoC5/PumpCycle.c **** * Summary:
 239:.\Generated_Source\PSoC5/PumpCycle.c **** *  This function returns the comparator output value.
 240:.\Generated_Source\PSoC5/PumpCycle.c **** *  This value is not affected by the Polarity parameter.
 241:.\Generated_Source\PSoC5/PumpCycle.c **** *  This valuea lways reflects a noninverted state.
 242:.\Generated_Source\PSoC5/PumpCycle.c **** *
 243:.\Generated_Source\PSoC5/PumpCycle.c **** * Parameters:
 244:.\Generated_Source\PSoC5/PumpCycle.c **** *   None
 245:.\Generated_Source\PSoC5/PumpCycle.c **** *
 246:.\Generated_Source\PSoC5/PumpCycle.c **** * Return:
 247:.\Generated_Source\PSoC5/PumpCycle.c **** *  (uint8)  0     - if Pos_Input less than Neg_input
 248:.\Generated_Source\PSoC5/PumpCycle.c **** *           non 0 - if Pos_Input greater than Neg_input.
 249:.\Generated_Source\PSoC5/PumpCycle.c **** *
 250:.\Generated_Source\PSoC5/PumpCycle.c **** *******************************************************************************/
 251:.\Generated_Source\PSoC5/PumpCycle.c **** uint8 PumpCycle_GetCompare(void) 
 252:.\Generated_Source\PSoC5/PumpCycle.c **** {
 352              		.loc 1 252 0
 353              		.cfi_startproc
 354              		@ args = 0, pretend = 0, frame = 0
 355              		@ frame_needed = 1, uses_anonymous_args = 0
 356              		@ link register save eliminated.
 357 0000 80B4     		push	{r7}
 358              	.LCFI11:
 359              		.cfi_def_cfa_offset 4
 360 0002 00AF     		add	r7, sp, #0
 361              		.cfi_offset 7, -4
 362              	.LCFI12:
 363              		.cfi_def_cfa_register 7
 253:.\Generated_Source\PSoC5/PumpCycle.c ****     return( PumpCycle_WRK & PumpCycle_CMP_OUT_MASK);
 364              		.loc 1 253 0
 365 0004 45F69033 		movw	r3, #:lower16:1073765264
 366 0008 C4F20003 		movt	r3, #:upper16:1073765264
 367 000c 1B78     		ldrb	r3, [r3, #0]
 368 000e DBB2     		uxtb	r3, r3
 369 0010 03F00403 		and	r3, r3, #4
 254:.\Generated_Source\PSoC5/PumpCycle.c **** }
ARM GAS  C:\Users\karunmj\AppData\Local\Temp\cc5NDZwb.s 			page 12


 370              		.loc 1 254 0
 371 0014 1846     		mov	r0, r3
 372 0016 BD46     		mov	sp, r7
 373 0018 80BC     		pop	{r7}
 374 001a 7047     		bx	lr
 375              		.cfi_endproc
 376              	.LFE5:
 377              		.size	PumpCycle_GetCompare, .-PumpCycle_GetCompare
 378              		.section	.text.PumpCycle_trimAdjust,"ax",%progbits
 379              		.align	2
 380              		.thumb
 381              		.thumb_func
 382              		.type	PumpCycle_trimAdjust, %function
 383              	PumpCycle_trimAdjust:
 384              	.LFB6:
 255:.\Generated_Source\PSoC5/PumpCycle.c **** 
 256:.\Generated_Source\PSoC5/PumpCycle.c **** 
 257:.\Generated_Source\PSoC5/PumpCycle.c **** /*******************************************************************************
 258:.\Generated_Source\PSoC5/PumpCycle.c **** * Function Name: PumpCycle_trimAdjust
 259:.\Generated_Source\PSoC5/PumpCycle.c **** ********************************************************************************
 260:.\Generated_Source\PSoC5/PumpCycle.c **** *
 261:.\Generated_Source\PSoC5/PumpCycle.c **** * Summary:
 262:.\Generated_Source\PSoC5/PumpCycle.c **** *  This function adjusts the value in the low nibble/high nibble of the Analog 
 263:.\Generated_Source\PSoC5/PumpCycle.c **** *  Comparator trim register
 264:.\Generated_Source\PSoC5/PumpCycle.c **** *
 265:.\Generated_Source\PSoC5/PumpCycle.c **** * Parameters:  
 266:.\Generated_Source\PSoC5/PumpCycle.c **** *  nibble:
 267:.\Generated_Source\PSoC5/PumpCycle.c **** *      0 -- adjusts the value in the low nibble
 268:.\Generated_Source\PSoC5/PumpCycle.c **** *      1 -- adjusts the value in the high nibble
 269:.\Generated_Source\PSoC5/PumpCycle.c **** *
 270:.\Generated_Source\PSoC5/PumpCycle.c **** * Return:
 271:.\Generated_Source\PSoC5/PumpCycle.c **** *  None
 272:.\Generated_Source\PSoC5/PumpCycle.c **** *
 273:.\Generated_Source\PSoC5/PumpCycle.c **** * Theory: 
 274:.\Generated_Source\PSoC5/PumpCycle.c **** *  Function assumes comparator block is setup for trim adjust.
 275:.\Generated_Source\PSoC5/PumpCycle.c **** *  Intended to be called from Comp_ZeroCal()
 276:.\Generated_Source\PSoC5/PumpCycle.c **** * 
 277:.\Generated_Source\PSoC5/PumpCycle.c **** * Side Effects:
 278:.\Generated_Source\PSoC5/PumpCycle.c **** *  Routine uses a course 1ms delay following each trim adjustment to allow 
 279:.\Generated_Source\PSoC5/PumpCycle.c **** *  the comparator output to respond.
 280:.\Generated_Source\PSoC5/PumpCycle.c **** *
 281:.\Generated_Source\PSoC5/PumpCycle.c **** *******************************************************************************/
 282:.\Generated_Source\PSoC5/PumpCycle.c **** static void PumpCycle_trimAdjust(uint8 nibble) 
 283:.\Generated_Source\PSoC5/PumpCycle.c **** {
 385              		.loc 1 283 0
 386              		.cfi_startproc
 387              		@ args = 0, pretend = 0, frame = 16
 388              		@ frame_needed = 1, uses_anonymous_args = 0
 389 0000 80B5     		push	{r7, lr}
 390              	.LCFI13:
 391              		.cfi_def_cfa_offset 8
 392 0002 84B0     		sub	sp, sp, #16
 393              	.LCFI14:
 394              		.cfi_def_cfa_offset 24
 395 0004 00AF     		add	r7, sp, #0
 396              		.cfi_offset 14, -4
 397              		.cfi_offset 7, -8
ARM GAS  C:\Users\karunmj\AppData\Local\Temp\cc5NDZwb.s 			page 13


 398              	.LCFI15:
 399              		.cfi_def_cfa_register 7
 400 0006 0346     		mov	r3, r0
 401 0008 FB71     		strb	r3, [r7, #7]
 284:.\Generated_Source\PSoC5/PumpCycle.c ****     uint8 trimCnt, trimCntMax;
 285:.\Generated_Source\PSoC5/PumpCycle.c ****     uint8 cmpState;   
 286:.\Generated_Source\PSoC5/PumpCycle.c **** 
 287:.\Generated_Source\PSoC5/PumpCycle.c ****     /* get current state of comparator output */
 288:.\Generated_Source\PSoC5/PumpCycle.c ****     cmpState = PumpCycle_WRK & PumpCycle_CMP_OUT_MASK;
 402              		.loc 1 288 0
 403 000a 45F69033 		movw	r3, #:lower16:1073765264
 404 000e C4F20003 		movt	r3, #:upper16:1073765264
 405 0012 1B78     		ldrb	r3, [r3, #0]
 406 0014 DBB2     		uxtb	r3, r3
 407 0016 03F00403 		and	r3, r3, #4
 408 001a FB73     		strb	r3, [r7, #15]
 289:.\Generated_Source\PSoC5/PumpCycle.c ****     
 290:.\Generated_Source\PSoC5/PumpCycle.c ****     if (nibble == 0u)
 409              		.loc 1 290 0
 410 001c FB79     		ldrb	r3, [r7, #7]	@ zero_extendqisi2
 411 001e 002B     		cmp	r3, #0
 412 0020 11D1     		bne	.L18
 291:.\Generated_Source\PSoC5/PumpCycle.c ****     {    
 292:.\Generated_Source\PSoC5/PumpCycle.c ****         /* if comparator output is high, negative offset adjust is required */
 293:.\Generated_Source\PSoC5/PumpCycle.c ****         if ( cmpState != 0u )
 413              		.loc 1 293 0
 414 0022 FB7B     		ldrb	r3, [r7, #15]	@ zero_extendqisi2
 415 0024 002B     		cmp	r3, #0
 416 0026 22D0     		beq	.L28
 294:.\Generated_Source\PSoC5/PumpCycle.c ****         {
 295:.\Generated_Source\PSoC5/PumpCycle.c ****             /* PSoC5A */
 296:.\Generated_Source\PSoC5/PumpCycle.c ****             #if (CY_PSOC5A)
 297:.\Generated_Source\PSoC5/PumpCycle.c ****                 PumpCycle_TR |= PumpCycle_CMP_TRIM1_DIR;
 417              		.loc 1 297 0
 418 0028 44F20263 		movw	r3, #:lower16:1073759746
 419 002c C4F20003 		movt	r3, #:upper16:1073759746
 420 0030 44F20262 		movw	r2, #:lower16:1073759746
 421 0034 C4F20002 		movt	r2, #:upper16:1073759746
 422 0038 1278     		ldrb	r2, [r2, #0]
 423 003a D2B2     		uxtb	r2, r2
 424 003c 42F00802 		orr	r2, r2, #8
 425 0040 D2B2     		uxtb	r2, r2
 426 0042 1A70     		strb	r2, [r3, #0]
 427 0044 14E0     		b	.L20
 428              	.L18:
 298:.\Generated_Source\PSoC5/PumpCycle.c ****             #endif /* CY_PSOC5A */
 299:.\Generated_Source\PSoC5/PumpCycle.c ****             
 300:.\Generated_Source\PSoC5/PumpCycle.c ****             /* PSoC3, PSoC5LP or later */
 301:.\Generated_Source\PSoC5/PumpCycle.c ****             #if (CY_PSOC3 || CY_PSOC5LP)
 302:.\Generated_Source\PSoC5/PumpCycle.c ****                 PumpCycle_TR0 |= PumpCycle_CMP_TR0_DIR;
 303:.\Generated_Source\PSoC5/PumpCycle.c ****             #endif /* CY_PSOC3 || CY_PSOC5LP */
 304:.\Generated_Source\PSoC5/PumpCycle.c ****         }
 305:.\Generated_Source\PSoC5/PumpCycle.c ****     }
 306:.\Generated_Source\PSoC5/PumpCycle.c ****     else
 307:.\Generated_Source\PSoC5/PumpCycle.c ****     {
 308:.\Generated_Source\PSoC5/PumpCycle.c ****         /* if comparator output is low, positive offset adjust is required */
 309:.\Generated_Source\PSoC5/PumpCycle.c ****         if ( cmpState == 0u )
ARM GAS  C:\Users\karunmj\AppData\Local\Temp\cc5NDZwb.s 			page 14


 429              		.loc 1 309 0
 430 0046 FB7B     		ldrb	r3, [r7, #15]	@ zero_extendqisi2
 431 0048 002B     		cmp	r3, #0
 432 004a 11D1     		bne	.L20
 310:.\Generated_Source\PSoC5/PumpCycle.c ****         {
 311:.\Generated_Source\PSoC5/PumpCycle.c ****             /* PSoC5A */
 312:.\Generated_Source\PSoC5/PumpCycle.c ****             #if (CY_PSOC5A)
 313:.\Generated_Source\PSoC5/PumpCycle.c ****                 PumpCycle_TR |= PumpCycle_CMP_TRIM2_DIR; 
 433              		.loc 1 313 0
 434 004c 44F20263 		movw	r3, #:lower16:1073759746
 435 0050 C4F20003 		movt	r3, #:upper16:1073759746
 436 0054 44F20262 		movw	r2, #:lower16:1073759746
 437 0058 C4F20002 		movt	r2, #:upper16:1073759746
 438 005c 1278     		ldrb	r2, [r2, #0]
 439 005e D2B2     		uxtb	r2, r2
 440 0060 6FEA4262 		mvn	r2, r2, lsl #25
 441 0064 6FEA5262 		mvn	r2, r2, lsr #25
 442 0068 D2B2     		uxtb	r2, r2
 443 006a 1A70     		strb	r2, [r3, #0]
 444 006c 00E0     		b	.L20
 445              	.L28:
 446              		.loc 1 297 0
 447 006e 00BF     		nop
 448              	.L20:
 314:.\Generated_Source\PSoC5/PumpCycle.c ****             #endif /* CY_PSOC5A */
 315:.\Generated_Source\PSoC5/PumpCycle.c ****             
 316:.\Generated_Source\PSoC5/PumpCycle.c ****             /* PSoC3, PSoC5LP or later */
 317:.\Generated_Source\PSoC5/PumpCycle.c ****             #if (CY_PSOC3 || CY_PSOC5LP)
 318:.\Generated_Source\PSoC5/PumpCycle.c ****                 PumpCycle_TR1 |= PumpCycle_CMP_TR1_DIR;
 319:.\Generated_Source\PSoC5/PumpCycle.c ****             #endif /* CY_PSOC3 || CY_PSOC5LP */
 320:.\Generated_Source\PSoC5/PumpCycle.c ****         }
 321:.\Generated_Source\PSoC5/PumpCycle.c ****     }
 322:.\Generated_Source\PSoC5/PumpCycle.c **** 
 323:.\Generated_Source\PSoC5/PumpCycle.c ****     /* Increment trim value until compare output changes state */
 324:.\Generated_Source\PSoC5/PumpCycle.c **** 	
 325:.\Generated_Source\PSoC5/PumpCycle.c ****     /* PSoC5A */
 326:.\Generated_Source\PSoC5/PumpCycle.c **** 	#if (CY_PSOC5A)
 327:.\Generated_Source\PSoC5/PumpCycle.c **** 	    trimCntMax = 7u;
 449              		.loc 1 327 0
 450 0070 4FF00703 		mov	r3, #7
 451 0074 BB73     		strb	r3, [r7, #14]
 328:.\Generated_Source\PSoC5/PumpCycle.c ****     #endif
 329:.\Generated_Source\PSoC5/PumpCycle.c **** 	
 330:.\Generated_Source\PSoC5/PumpCycle.c **** 	/* PSoC3, PSoC5LP or later */
 331:.\Generated_Source\PSoC5/PumpCycle.c **** 	#if (CY_PSOC3 || CY_PSOC5LP)
 332:.\Generated_Source\PSoC5/PumpCycle.c ****     	if(nibble == 0u)
 333:.\Generated_Source\PSoC5/PumpCycle.c ****     	{
 334:.\Generated_Source\PSoC5/PumpCycle.c ****     		trimCntMax = 15u;
 335:.\Generated_Source\PSoC5/PumpCycle.c ****     	}
 336:.\Generated_Source\PSoC5/PumpCycle.c ****     	else
 337:.\Generated_Source\PSoC5/PumpCycle.c ****     	{
 338:.\Generated_Source\PSoC5/PumpCycle.c ****     		trimCntMax = 7u;
 339:.\Generated_Source\PSoC5/PumpCycle.c ****     	}
 340:.\Generated_Source\PSoC5/PumpCycle.c **** 	#endif
 341:.\Generated_Source\PSoC5/PumpCycle.c **** 	
 342:.\Generated_Source\PSoC5/PumpCycle.c ****     for ( trimCnt = 0u; trimCnt < trimCntMax; trimCnt++ )
 452              		.loc 1 342 0
ARM GAS  C:\Users\karunmj\AppData\Local\Temp\cc5NDZwb.s 			page 15


 453 0076 4FF00003 		mov	r3, #0
 454 007a 7B73     		strb	r3, [r7, #13]
 455 007c 32E0     		b	.L21
 456              	.L26:
 343:.\Generated_Source\PSoC5/PumpCycle.c **** 	{
 344:.\Generated_Source\PSoC5/PumpCycle.c ****         if (nibble == 0u)
 457              		.loc 1 344 0
 458 007e FB79     		ldrb	r3, [r7, #7]	@ zero_extendqisi2
 459 0080 002B     		cmp	r3, #0
 460 0082 0ED1     		bne	.L22
 345:.\Generated_Source\PSoC5/PumpCycle.c ****         {
 346:.\Generated_Source\PSoC5/PumpCycle.c ****             /* PSoC5A */
 347:.\Generated_Source\PSoC5/PumpCycle.c ****             #if (CY_PSOC5A)
 348:.\Generated_Source\PSoC5/PumpCycle.c ****                 PumpCycle_TR += 1u;
 461              		.loc 1 348 0
 462 0084 44F20263 		movw	r3, #:lower16:1073759746
 463 0088 C4F20003 		movt	r3, #:upper16:1073759746
 464 008c 44F20262 		movw	r2, #:lower16:1073759746
 465 0090 C4F20002 		movt	r2, #:upper16:1073759746
 466 0094 1278     		ldrb	r2, [r2, #0]
 467 0096 D2B2     		uxtb	r2, r2
 468 0098 02F10102 		add	r2, r2, #1
 469 009c D2B2     		uxtb	r2, r2
 470 009e 1A70     		strb	r2, [r3, #0]
 471 00a0 0DE0     		b	.L23
 472              	.L22:
 349:.\Generated_Source\PSoC5/PumpCycle.c ****             #endif /* CY_PSOC5A */
 350:.\Generated_Source\PSoC5/PumpCycle.c ****             
 351:.\Generated_Source\PSoC5/PumpCycle.c ****             /* PSoC3, PSoC5LP or later */
 352:.\Generated_Source\PSoC5/PumpCycle.c ****             #if (CY_PSOC3 || CY_PSOC5LP)
 353:.\Generated_Source\PSoC5/PumpCycle.c ****                 PumpCycle_TR0 += 1u;
 354:.\Generated_Source\PSoC5/PumpCycle.c ****             #endif /* CY_PSOC3 || CY_PSOC5LP */
 355:.\Generated_Source\PSoC5/PumpCycle.c ****         }
 356:.\Generated_Source\PSoC5/PumpCycle.c ****         else
 357:.\Generated_Source\PSoC5/PumpCycle.c ****         {
 358:.\Generated_Source\PSoC5/PumpCycle.c ****             /* PSoC5A */
 359:.\Generated_Source\PSoC5/PumpCycle.c ****             #if (CY_PSOC5A)
 360:.\Generated_Source\PSoC5/PumpCycle.c ****                 PumpCycle_TR += 0x10u;
 473              		.loc 1 360 0
 474 00a2 44F20263 		movw	r3, #:lower16:1073759746
 475 00a6 C4F20003 		movt	r3, #:upper16:1073759746
 476 00aa 44F20262 		movw	r2, #:lower16:1073759746
 477 00ae C4F20002 		movt	r2, #:upper16:1073759746
 478 00b2 1278     		ldrb	r2, [r2, #0]
 479 00b4 D2B2     		uxtb	r2, r2
 480 00b6 02F11002 		add	r2, r2, #16
 481 00ba D2B2     		uxtb	r2, r2
 482 00bc 1A70     		strb	r2, [r3, #0]
 483              	.L23:
 361:.\Generated_Source\PSoC5/PumpCycle.c ****             #endif /* CY_PSOC5A */
 362:.\Generated_Source\PSoC5/PumpCycle.c ****             
 363:.\Generated_Source\PSoC5/PumpCycle.c ****             /* PSoC3, PSoC5LP or later */
 364:.\Generated_Source\PSoC5/PumpCycle.c ****             #if (CY_PSOC3 || CY_PSOC5LP)
 365:.\Generated_Source\PSoC5/PumpCycle.c ****                 PumpCycle_TR1 += 1u;
 366:.\Generated_Source\PSoC5/PumpCycle.c ****             #endif /* CY_PSOC3 || CY_PSOC5LP */
 367:.\Generated_Source\PSoC5/PumpCycle.c ****         }
 368:.\Generated_Source\PSoC5/PumpCycle.c ****         
ARM GAS  C:\Users\karunmj\AppData\Local\Temp\cc5NDZwb.s 			page 16


 369:.\Generated_Source\PSoC5/PumpCycle.c ****         CyDelayUs(10u);
 484              		.loc 1 369 0
 485 00be 4FF00A00 		mov	r0, #10
 486 00c2 FFF7FEFF 		bl	CyDelayUs
 370:.\Generated_Source\PSoC5/PumpCycle.c ****         
 371:.\Generated_Source\PSoC5/PumpCycle.c ****         /* Check for change in comparator output */
 372:.\Generated_Source\PSoC5/PumpCycle.c ****         if ((PumpCycle_WRK & PumpCycle_CMP_OUT_MASK) != cmpState)
 487              		.loc 1 372 0
 488 00c6 45F69033 		movw	r3, #:lower16:1073765264
 489 00ca C4F20003 		movt	r3, #:upper16:1073765264
 490 00ce 1B78     		ldrb	r3, [r3, #0]
 491 00d0 DBB2     		uxtb	r3, r3
 492 00d2 03F00402 		and	r2, r3, #4
 493 00d6 FB7B     		ldrb	r3, [r7, #15]	@ zero_extendqisi2
 494 00d8 9A42     		cmp	r2, r3
 495 00da 08D1     		bne	.L29
 496              	.L24:
 497              		.loc 1 342 0
 498 00dc 7B7B     		ldrb	r3, [r7, #13]
 499 00de 03F10103 		add	r3, r3, #1
 500 00e2 7B73     		strb	r3, [r7, #13]
 501              	.L21:
 502 00e4 7A7B     		ldrb	r2, [r7, #13]	@ zero_extendqisi2
 503 00e6 BB7B     		ldrb	r3, [r7, #14]	@ zero_extendqisi2
 504 00e8 9A42     		cmp	r2, r3
 505 00ea C8D3     		bcc	.L26
 506 00ec 00E0     		b	.L27
 507              	.L29:
 373:.\Generated_Source\PSoC5/PumpCycle.c ****         {
 374:.\Generated_Source\PSoC5/PumpCycle.c ****             break;      /* output changed state, trim phase is complete */
 508              		.loc 1 374 0
 509 00ee 00BF     		nop
 510              	.L27:
 375:.\Generated_Source\PSoC5/PumpCycle.c ****         }        
 376:.\Generated_Source\PSoC5/PumpCycle.c ****     }    
 377:.\Generated_Source\PSoC5/PumpCycle.c **** }
 511              		.loc 1 377 0
 512 00f0 07F11007 		add	r7, r7, #16
 513 00f4 BD46     		mov	sp, r7
 514 00f6 80BD     		pop	{r7, pc}
 515              		.cfi_endproc
 516              	.LFE6:
 517              		.size	PumpCycle_trimAdjust, .-PumpCycle_trimAdjust
 518              		.section	.text.PumpCycle_ZeroCal,"ax",%progbits
 519              		.align	2
 520              		.global	PumpCycle_ZeroCal
 521              		.thumb
 522              		.thumb_func
 523              		.type	PumpCycle_ZeroCal, %function
 524              	PumpCycle_ZeroCal:
 525              	.LFB7:
 378:.\Generated_Source\PSoC5/PumpCycle.c **** 
 379:.\Generated_Source\PSoC5/PumpCycle.c **** 
 380:.\Generated_Source\PSoC5/PumpCycle.c **** /*******************************************************************************
 381:.\Generated_Source\PSoC5/PumpCycle.c **** * Function Name: PumpCycle_ZeroCal
 382:.\Generated_Source\PSoC5/PumpCycle.c **** ********************************************************************************
 383:.\Generated_Source\PSoC5/PumpCycle.c **** *
ARM GAS  C:\Users\karunmj\AppData\Local\Temp\cc5NDZwb.s 			page 17


 384:.\Generated_Source\PSoC5/PumpCycle.c **** * Summary:
 385:.\Generated_Source\PSoC5/PumpCycle.c **** *  This function calibrates the offset of the Analog Comparator.
 386:.\Generated_Source\PSoC5/PumpCycle.c **** *
 387:.\Generated_Source\PSoC5/PumpCycle.c **** * Parameters:
 388:.\Generated_Source\PSoC5/PumpCycle.c **** *  None
 389:.\Generated_Source\PSoC5/PumpCycle.c **** *
 390:.\Generated_Source\PSoC5/PumpCycle.c **** * Return:
 391:.\Generated_Source\PSoC5/PumpCycle.c **** *  (uint16)  value written in trim register when calibration complete.
 392:.\Generated_Source\PSoC5/PumpCycle.c **** *
 393:.\Generated_Source\PSoC5/PumpCycle.c **** * Theory: 
 394:.\Generated_Source\PSoC5/PumpCycle.c **** *  This function is used to optimize the calibration for user specific voltage
 395:.\Generated_Source\PSoC5/PumpCycle.c **** *  range.  The comparator trim is adjusted to counter transistor offsets
 396:.\Generated_Source\PSoC5/PumpCycle.c **** *   - offset is defined as positive if the output transitions to high before inP
 397:.\Generated_Source\PSoC5/PumpCycle.c **** *     is greater than inN
 398:.\Generated_Source\PSoC5/PumpCycle.c **** *   - offset is defined as negative if the output transitions to high after inP
 399:.\Generated_Source\PSoC5/PumpCycle.c **** *     is greater than inP
 400:.\Generated_Source\PSoC5/PumpCycle.c **** *
 401:.\Generated_Source\PSoC5/PumpCycle.c **** *  PSoC5A
 402:.\Generated_Source\PSoC5/PumpCycle.c **** *  The Analog Comparator provides 1 byte for offset trim.  The byte contains two
 403:.\Generated_Source\PSoC5/PumpCycle.c **** *  4 bit trim fields - one is a course trim and the other allows smaller
 404:.\Generated_Source\PSoC5/PumpCycle.c **** *  offset adjustments only for slow modes.
 405:.\Generated_Source\PSoC5/PumpCycle.c **** *  - low nibble - fine trim
 406:.\Generated_Source\PSoC5/PumpCycle.c **** *  - high nibble - course trim
 407:.\Generated_Source\PSoC5/PumpCycle.c **** *  PSoC3, PSoC5LP or later
 408:.\Generated_Source\PSoC5/PumpCycle.c **** *  The Analog Comparator provides 2 bytes for offset trim.  The bytes contain two
 409:.\Generated_Source\PSoC5/PumpCycle.c **** *  5 bit trim fields - one is a course trim and the other allows smaller
 410:.\Generated_Source\PSoC5/PumpCycle.c **** *  offset adjustments only for slow modes.
 411:.\Generated_Source\PSoC5/PumpCycle.c **** *  - TR0 - fine trim
 412:.\Generated_Source\PSoC5/PumpCycle.c **** *  - TR1 - course trim
 413:.\Generated_Source\PSoC5/PumpCycle.c **** *
 414:.\Generated_Source\PSoC5/PumpCycle.c **** *  Trim algorithm is a two phase process
 415:.\Generated_Source\PSoC5/PumpCycle.c **** *  The first phase performs course offset adjustment
 416:.\Generated_Source\PSoC5/PumpCycle.c **** *  The second phase serves one of two purposes depending on the outcome of the
 417:.\Generated_Source\PSoC5/PumpCycle.c **** *  first phase
 418:.\Generated_Source\PSoC5/PumpCycle.c **** *  - if the first trim value was maxed out without a comparator output 
 419:.\Generated_Source\PSoC5/PumpCycle.c **** *    transition, more offset will be added by adjusting the second trim value.
 420:.\Generated_Source\PSoC5/PumpCycle.c **** *  - if the first trim phase resulted in a comparator output transition, the
 421:.\Generated_Source\PSoC5/PumpCycle.c **** *    second trim value will serve as fine trim (in the opposite direction)to
 422:.\Generated_Source\PSoC5/PumpCycle.c **** *    ensure the offset is < 1 mV.
 423:.\Generated_Source\PSoC5/PumpCycle.c **** *
 424:.\Generated_Source\PSoC5/PumpCycle.c **** * Trim Process:   
 425:.\Generated_Source\PSoC5/PumpCycle.c **** *  1) User applies a voltage to the negative input.  Voltage should be in the
 426:.\Generated_Source\PSoC5/PumpCycle.c **** *     comparator operating range or an average of the operating voltage range.
 427:.\Generated_Source\PSoC5/PumpCycle.c **** *  2) Clear registers associated with analog routing to the positive input.
 428:.\Generated_Source\PSoC5/PumpCycle.c **** *  3) Disable Hysteresis
 429:.\Generated_Source\PSoC5/PumpCycle.c **** *  4) Set the calibration bit to short the negative and positive inputs to
 430:.\Generated_Source\PSoC5/PumpCycle.c **** *     the users calibration voltage.
 431:.\Generated_Source\PSoC5/PumpCycle.c **** *  5) Clear the TR register  ( TR = 0x00 )
 432:.\Generated_Source\PSoC5/PumpCycle.c **** *  ** LOW MODES
 433:.\Generated_Source\PSoC5/PumpCycle.c **** *  6) Check if compare output is high, if so, set the MSb of course trim field 
 434:.\Generated_Source\PSoC5/PumpCycle.c **** *     to a 1.
 435:.\Generated_Source\PSoC5/PumpCycle.c **** *  7) Increment the course trim field until the compare output changes
 436:.\Generated_Source\PSoC5/PumpCycle.c **** *  8) Check if compare output is low, if so, set the MSb of fine trim field
 437:.\Generated_Source\PSoC5/PumpCycle.c **** *     to a 1.
 438:.\Generated_Source\PSoC5/PumpCycle.c **** *  9) Increment the fine trim field until the compare output changes
 439:.\Generated_Source\PSoC5/PumpCycle.c **** *  ** FAST MODE - skip the steps 8,9
 440:.\Generated_Source\PSoC5/PumpCycle.c **** *
ARM GAS  C:\Users\karunmj\AppData\Local\Temp\cc5NDZwb.s 			page 18


 441:.\Generated_Source\PSoC5/PumpCycle.c **** * Side Effects:
 442:.\Generated_Source\PSoC5/PumpCycle.c **** *  Routine clears analog routing associated with the comparator positive input.  
 443:.\Generated_Source\PSoC5/PumpCycle.c **** *  This may affect routing of signals from other components that are connected
 444:.\Generated_Source\PSoC5/PumpCycle.c **** *  to the positive input of the comparator.
 445:.\Generated_Source\PSoC5/PumpCycle.c **** *
 446:.\Generated_Source\PSoC5/PumpCycle.c **** *******************************************************************************/
 447:.\Generated_Source\PSoC5/PumpCycle.c **** uint16 PumpCycle_ZeroCal(void) 
 448:.\Generated_Source\PSoC5/PumpCycle.c **** {
 526              		.loc 1 448 0
 527              		.cfi_startproc
 528              		@ args = 0, pretend = 0, frame = 8
 529              		@ frame_needed = 1, uses_anonymous_args = 0
 530 0000 80B5     		push	{r7, lr}
 531              	.LCFI16:
 532              		.cfi_def_cfa_offset 8
 533 0002 82B0     		sub	sp, sp, #8
 534              	.LCFI17:
 535              		.cfi_def_cfa_offset 16
 536 0004 00AF     		add	r7, sp, #0
 537              		.cfi_offset 14, -4
 538              		.cfi_offset 7, -8
 539              	.LCFI18:
 540              		.cfi_def_cfa_register 7
 449:.\Generated_Source\PSoC5/PumpCycle.c ****     uint8 tmpSW0;
 450:.\Generated_Source\PSoC5/PumpCycle.c ****     uint8 tmpSW2;
 451:.\Generated_Source\PSoC5/PumpCycle.c ****     uint8 tmpSW3;
 452:.\Generated_Source\PSoC5/PumpCycle.c ****     uint8 tmpCR;
 453:.\Generated_Source\PSoC5/PumpCycle.c **** 
 454:.\Generated_Source\PSoC5/PumpCycle.c ****     /* Save a copy of routing registers associated with inP */
 455:.\Generated_Source\PSoC5/PumpCycle.c ****     tmpSW0 = PumpCycle_SW0;
 541              		.loc 1 455 0
 542 0006 45F6D023 		movw	r3, #:lower16:1073765072
 543 000a C4F20003 		movt	r3, #:upper16:1073765072
 544 000e 1B78     		ldrb	r3, [r3, #0]
 545 0010 3B71     		strb	r3, [r7, #4]
 456:.\Generated_Source\PSoC5/PumpCycle.c ****     tmpSW2 = PumpCycle_SW2;
 546              		.loc 1 456 0
 547 0012 45F6D223 		movw	r3, #:lower16:1073765074
 548 0016 C4F20003 		movt	r3, #:upper16:1073765074
 549 001a 1B78     		ldrb	r3, [r3, #0]
 550 001c 7B71     		strb	r3, [r7, #5]
 457:.\Generated_Source\PSoC5/PumpCycle.c ****     tmpSW3 = PumpCycle_SW3;
 551              		.loc 1 457 0
 552 001e 45F6D323 		movw	r3, #:lower16:1073765075
 553 0022 C4F20003 		movt	r3, #:upper16:1073765075
 554 0026 1B78     		ldrb	r3, [r3, #0]
 555 0028 BB71     		strb	r3, [r7, #6]
 458:.\Generated_Source\PSoC5/PumpCycle.c **** 
 459:.\Generated_Source\PSoC5/PumpCycle.c ****      /* Clear routing for inP, retain routing for inN */
 460:.\Generated_Source\PSoC5/PumpCycle.c ****     PumpCycle_SW0 = 0x00u;
 556              		.loc 1 460 0
 557 002a 45F6D023 		movw	r3, #:lower16:1073765072
 558 002e C4F20003 		movt	r3, #:upper16:1073765072
 559 0032 4FF00002 		mov	r2, #0
 560 0036 1A70     		strb	r2, [r3, #0]
 461:.\Generated_Source\PSoC5/PumpCycle.c ****     PumpCycle_SW2 = 0x00u;
 561              		.loc 1 461 0
ARM GAS  C:\Users\karunmj\AppData\Local\Temp\cc5NDZwb.s 			page 19


 562 0038 45F6D223 		movw	r3, #:lower16:1073765074
 563 003c C4F20003 		movt	r3, #:upper16:1073765074
 564 0040 4FF00002 		mov	r2, #0
 565 0044 1A70     		strb	r2, [r3, #0]
 462:.\Generated_Source\PSoC5/PumpCycle.c ****     PumpCycle_SW3 = tmpSW3 & (uint8)(~PumpCycle_CMP_SW3_INPCTL_MASK);
 566              		.loc 1 462 0
 567 0046 45F6D323 		movw	r3, #:lower16:1073765075
 568 004a C4F20003 		movt	r3, #:upper16:1073765075
 569 004e BA79     		ldrb	r2, [r7, #6]	@ zero_extendqisi2
 570 0050 02F0F602 		and	r2, r2, #246
 571 0054 1A70     		strb	r2, [r3, #0]
 463:.\Generated_Source\PSoC5/PumpCycle.c **** 
 464:.\Generated_Source\PSoC5/PumpCycle.c ****     /* Preserve original configuration
 465:.\Generated_Source\PSoC5/PumpCycle.c ****      * - turn off Hysteresis
 466:.\Generated_Source\PSoC5/PumpCycle.c ****      * - set calibration bit - shorts inN to inP
 467:.\Generated_Source\PSoC5/PumpCycle.c ****     */
 468:.\Generated_Source\PSoC5/PumpCycle.c ****     tmpCR = PumpCycle_CR;
 572              		.loc 1 468 0
 573 0056 45F64203 		movw	r3, #:lower16:1073764418
 574 005a C4F20003 		movt	r3, #:upper16:1073764418
 575 005e 1B78     		ldrb	r3, [r3, #0]
 576 0060 FB71     		strb	r3, [r7, #7]
 469:.\Generated_Source\PSoC5/PumpCycle.c ****     PumpCycle_CR |= (PumpCycle_CAL_ON | PumpCycle_HYST_OFF);
 577              		.loc 1 469 0
 578 0062 45F64203 		movw	r3, #:lower16:1073764418
 579 0066 C4F20003 		movt	r3, #:upper16:1073764418
 580 006a 45F64202 		movw	r2, #:lower16:1073764418
 581 006e C4F20002 		movt	r2, #:upper16:1073764418
 582 0072 1278     		ldrb	r2, [r2, #0]
 583 0074 D2B2     		uxtb	r2, r2
 584 0076 42F03002 		orr	r2, r2, #48
 585 007a D2B2     		uxtb	r2, r2
 586 007c 1A70     		strb	r2, [r3, #0]
 470:.\Generated_Source\PSoC5/PumpCycle.c ****     
 471:.\Generated_Source\PSoC5/PumpCycle.c ****     /* Write default low values to trim register - no offset adjust */
 472:.\Generated_Source\PSoC5/PumpCycle.c ****     /* PSoC5A */
 473:.\Generated_Source\PSoC5/PumpCycle.c ****     #if (CY_PSOC5A)
 474:.\Generated_Source\PSoC5/PumpCycle.c ****         PumpCycle_TR = PumpCycle_DEFAULT_CMP_TRIM;
 587              		.loc 1 474 0
 588 007e 44F20263 		movw	r3, #:lower16:1073759746
 589 0082 C4F20003 		movt	r3, #:upper16:1073759746
 590 0086 4FF00002 		mov	r2, #0
 591 008a 1A70     		strb	r2, [r3, #0]
 475:.\Generated_Source\PSoC5/PumpCycle.c ****     #endif /* CY_PSOC5A */
 476:.\Generated_Source\PSoC5/PumpCycle.c ****     
 477:.\Generated_Source\PSoC5/PumpCycle.c ****     /* PSoC3, PSoC5LP or later */
 478:.\Generated_Source\PSoC5/PumpCycle.c ****     #if (CY_PSOC3 || CY_PSOC5LP)
 479:.\Generated_Source\PSoC5/PumpCycle.c ****         PumpCycle_TR0 = PumpCycle_DEFAULT_CMP_TRIM;
 480:.\Generated_Source\PSoC5/PumpCycle.c ****         PumpCycle_TR1 = PumpCycle_DEFAULT_CMP_TRIM;
 481:.\Generated_Source\PSoC5/PumpCycle.c ****     #endif /* CY_PSOC3 || CY_PSOC5LP */
 482:.\Generated_Source\PSoC5/PumpCycle.c **** 	
 483:.\Generated_Source\PSoC5/PumpCycle.c **** 	/* Two phase trim - slow modes, one phase trim - for fast */ 
 484:.\Generated_Source\PSoC5/PumpCycle.c ****     if ( (PumpCycle_CR & PumpCycle_PWR_MODE_MASK) == PumpCycle_PWR_MODE_FAST)
 592              		.loc 1 484 0
 593 008c 45F64203 		movw	r3, #:lower16:1073764418
 594 0090 C4F20003 		movt	r3, #:upper16:1073764418
 595 0094 1B78     		ldrb	r3, [r3, #0]
ARM GAS  C:\Users\karunmj\AppData\Local\Temp\cc5NDZwb.s 			page 20


 596 0096 DBB2     		uxtb	r3, r3
 597 0098 03F00303 		and	r3, r3, #3
 598 009c 012B     		cmp	r3, #1
 599 009e 04D1     		bne	.L31
 485:.\Generated_Source\PSoC5/PumpCycle.c ****     {
 486:.\Generated_Source\PSoC5/PumpCycle.c ****         PumpCycle_trimAdjust(0u);
 600              		.loc 1 486 0
 601 00a0 4FF00000 		mov	r0, #0
 602 00a4 FFF7FEFF 		bl	PumpCycle_trimAdjust
 603 00a8 07E0     		b	.L32
 604              	.L31:
 487:.\Generated_Source\PSoC5/PumpCycle.c ****     }
 488:.\Generated_Source\PSoC5/PumpCycle.c ****     else /* default to trim for fast modes */
 489:.\Generated_Source\PSoC5/PumpCycle.c ****     {
 490:.\Generated_Source\PSoC5/PumpCycle.c ****         PumpCycle_trimAdjust(1u);
 605              		.loc 1 490 0
 606 00aa 4FF00100 		mov	r0, #1
 607 00ae FFF7FEFF 		bl	PumpCycle_trimAdjust
 491:.\Generated_Source\PSoC5/PumpCycle.c **** 		PumpCycle_trimAdjust(0u);
 608              		.loc 1 491 0
 609 00b2 4FF00000 		mov	r0, #0
 610 00b6 FFF7FEFF 		bl	PumpCycle_trimAdjust
 611              	.L32:
 492:.\Generated_Source\PSoC5/PumpCycle.c ****     }
 493:.\Generated_Source\PSoC5/PumpCycle.c ****    
 494:.\Generated_Source\PSoC5/PumpCycle.c ****     /* Restore Config Register */
 495:.\Generated_Source\PSoC5/PumpCycle.c ****     PumpCycle_CR = tmpCR;
 612              		.loc 1 495 0
 613 00ba 45F64203 		movw	r3, #:lower16:1073764418
 614 00be C4F20003 		movt	r3, #:upper16:1073764418
 615 00c2 FA79     		ldrb	r2, [r7, #7]
 616 00c4 1A70     		strb	r2, [r3, #0]
 496:.\Generated_Source\PSoC5/PumpCycle.c ****     
 497:.\Generated_Source\PSoC5/PumpCycle.c ****     /* Restore routing registers for inP */
 498:.\Generated_Source\PSoC5/PumpCycle.c ****     PumpCycle_SW0 = tmpSW0;
 617              		.loc 1 498 0
 618 00c6 45F6D023 		movw	r3, #:lower16:1073765072
 619 00ca C4F20003 		movt	r3, #:upper16:1073765072
 620 00ce 3A79     		ldrb	r2, [r7, #4]
 621 00d0 1A70     		strb	r2, [r3, #0]
 499:.\Generated_Source\PSoC5/PumpCycle.c ****     PumpCycle_SW2 = tmpSW2;
 622              		.loc 1 499 0
 623 00d2 45F6D223 		movw	r3, #:lower16:1073765074
 624 00d6 C4F20003 		movt	r3, #:upper16:1073765074
 625 00da 7A79     		ldrb	r2, [r7, #5]
 626 00dc 1A70     		strb	r2, [r3, #0]
 500:.\Generated_Source\PSoC5/PumpCycle.c ****     PumpCycle_SW3 = tmpSW3;
 627              		.loc 1 500 0
 628 00de 45F6D323 		movw	r3, #:lower16:1073765075
 629 00e2 C4F20003 		movt	r3, #:upper16:1073765075
 630 00e6 BA79     		ldrb	r2, [r7, #6]
 631 00e8 1A70     		strb	r2, [r3, #0]
 501:.\Generated_Source\PSoC5/PumpCycle.c ****     
 502:.\Generated_Source\PSoC5/PumpCycle.c ****     /* PSoC5A */
 503:.\Generated_Source\PSoC5/PumpCycle.c ****     #if (CY_PSOC5A)
 504:.\Generated_Source\PSoC5/PumpCycle.c ****         return (uint16) PumpCycle_TR;
 632              		.loc 1 504 0
ARM GAS  C:\Users\karunmj\AppData\Local\Temp\cc5NDZwb.s 			page 21


 633 00ea 44F20263 		movw	r3, #:lower16:1073759746
 634 00ee C4F20003 		movt	r3, #:upper16:1073759746
 635 00f2 1B78     		ldrb	r3, [r3, #0]
 636 00f4 DBB2     		uxtb	r3, r3
 505:.\Generated_Source\PSoC5/PumpCycle.c ****     #endif /* CY_PSOC5A */
 506:.\Generated_Source\PSoC5/PumpCycle.c ****     
 507:.\Generated_Source\PSoC5/PumpCycle.c ****     /* PSoC3, PSoC5LP or later */
 508:.\Generated_Source\PSoC5/PumpCycle.c ****     #if (CY_PSOC3 || CY_PSOC5LP)
 509:.\Generated_Source\PSoC5/PumpCycle.c ****         return ((uint16)((uint16)PumpCycle_TR1 << 8u) | (PumpCycle_TR0));        
 510:.\Generated_Source\PSoC5/PumpCycle.c ****     #endif /* CY_PSOC3 || CY_PSOC5LP */
 511:.\Generated_Source\PSoC5/PumpCycle.c **** }
 637              		.loc 1 511 0
 638 00f6 1846     		mov	r0, r3
 639 00f8 07F10807 		add	r7, r7, #8
 640 00fc BD46     		mov	sp, r7
 641 00fe 80BD     		pop	{r7, pc}
 642              		.cfi_endproc
 643              	.LFE7:
 644              		.size	PumpCycle_ZeroCal, .-PumpCycle_ZeroCal
 645              		.section	.text.PumpCycle_LoadTrim,"ax",%progbits
 646              		.align	2
 647              		.global	PumpCycle_LoadTrim
 648              		.thumb
 649              		.thumb_func
 650              		.type	PumpCycle_LoadTrim, %function
 651              	PumpCycle_LoadTrim:
 652              	.LFB8:
 512:.\Generated_Source\PSoC5/PumpCycle.c **** 
 513:.\Generated_Source\PSoC5/PumpCycle.c **** 
 514:.\Generated_Source\PSoC5/PumpCycle.c **** /*******************************************************************************
 515:.\Generated_Source\PSoC5/PumpCycle.c **** * Function Name: PumpCycle_LoadTrim
 516:.\Generated_Source\PSoC5/PumpCycle.c **** ********************************************************************************
 517:.\Generated_Source\PSoC5/PumpCycle.c **** *
 518:.\Generated_Source\PSoC5/PumpCycle.c **** * Summary:
 519:.\Generated_Source\PSoC5/PumpCycle.c **** *  This function stores a value in the Analog Comparator trim register.
 520:.\Generated_Source\PSoC5/PumpCycle.c **** *
 521:.\Generated_Source\PSoC5/PumpCycle.c **** * Parameters:  
 522:.\Generated_Source\PSoC5/PumpCycle.c **** *  uint8 trimVal - trim value.  This value is the same format as the value 
 523:.\Generated_Source\PSoC5/PumpCycle.c **** *  returned by the _ZeroCal routine.
 524:.\Generated_Source\PSoC5/PumpCycle.c **** *
 525:.\Generated_Source\PSoC5/PumpCycle.c **** * Return:
 526:.\Generated_Source\PSoC5/PumpCycle.c **** *  None
 527:.\Generated_Source\PSoC5/PumpCycle.c **** *
 528:.\Generated_Source\PSoC5/PumpCycle.c **** *******************************************************************************/
 529:.\Generated_Source\PSoC5/PumpCycle.c **** void PumpCycle_LoadTrim(uint16 trimVal) 
 530:.\Generated_Source\PSoC5/PumpCycle.c **** {
 653              		.loc 1 530 0
 654              		.cfi_startproc
 655              		@ args = 0, pretend = 0, frame = 8
 656              		@ frame_needed = 1, uses_anonymous_args = 0
 657              		@ link register save eliminated.
 658 0000 80B4     		push	{r7}
 659              	.LCFI19:
 660              		.cfi_def_cfa_offset 4
 661 0002 83B0     		sub	sp, sp, #12
 662              	.LCFI20:
 663              		.cfi_def_cfa_offset 16
ARM GAS  C:\Users\karunmj\AppData\Local\Temp\cc5NDZwb.s 			page 22


 664 0004 00AF     		add	r7, sp, #0
 665              		.cfi_offset 7, -4
 666              	.LCFI21:
 667              		.cfi_def_cfa_register 7
 668 0006 0346     		mov	r3, r0
 669 0008 FB80     		strh	r3, [r7, #6]	@ movhi
 531:.\Generated_Source\PSoC5/PumpCycle.c ****     /* Stores value in the Analog Comparator trim register */
 532:.\Generated_Source\PSoC5/PumpCycle.c ****     /* PSoC5A */
 533:.\Generated_Source\PSoC5/PumpCycle.c ****     #if (CY_PSOC5A)
 534:.\Generated_Source\PSoC5/PumpCycle.c ****         PumpCycle_TR = (uint8) trimVal;
 670              		.loc 1 534 0
 671 000a 44F20263 		movw	r3, #:lower16:1073759746
 672 000e C4F20003 		movt	r3, #:upper16:1073759746
 673 0012 FA88     		ldrh	r2, [r7, #6]	@ movhi
 674 0014 D2B2     		uxtb	r2, r2
 675 0016 1A70     		strb	r2, [r3, #0]
 535:.\Generated_Source\PSoC5/PumpCycle.c ****     #endif /* CY_PSOC5A */
 536:.\Generated_Source\PSoC5/PumpCycle.c ****     
 537:.\Generated_Source\PSoC5/PumpCycle.c ****     /* PSoC3, PSoC5LP or later */
 538:.\Generated_Source\PSoC5/PumpCycle.c ****     #if (CY_PSOC3 || CY_PSOC5LP)
 539:.\Generated_Source\PSoC5/PumpCycle.c ****         /* Stores value in the Analog Comparator trim register for P-type load */
 540:.\Generated_Source\PSoC5/PumpCycle.c ****         PumpCycle_TR0 = (uint8) trimVal;
 541:.\Generated_Source\PSoC5/PumpCycle.c ****         
 542:.\Generated_Source\PSoC5/PumpCycle.c ****         /* Stores value in the Analog Comparator trim register for N-type load */
 543:.\Generated_Source\PSoC5/PumpCycle.c ****         PumpCycle_TR1 = (uint8) (trimVal >> 8); 
 544:.\Generated_Source\PSoC5/PumpCycle.c ****     #endif /* CY_PSOC3 || CY_PSOC5LP */
 545:.\Generated_Source\PSoC5/PumpCycle.c **** }
 676              		.loc 1 545 0
 677 0018 07F10C07 		add	r7, r7, #12
 678 001c BD46     		mov	sp, r7
 679 001e 80BC     		pop	{r7}
 680 0020 7047     		bx	lr
 681              		.cfi_endproc
 682              	.LFE8:
 683              		.size	PumpCycle_LoadTrim, .-PumpCycle_LoadTrim
 684 0022 00BF     		.text
 685              	.Letext0: