ARM GAS  C:\Users\karunmj\AppData\Local\Temp\ccmfHfT9.s 			page 1


   1              		.syntax unified
   2              		.cpu cortex-m3
   3              		.fpu softvfp
   4              		.eabi_attribute 20, 1
   5              		.eabi_attribute 21, 1
   6              		.eabi_attribute 23, 3
   7              		.eabi_attribute 24, 1
   8              		.eabi_attribute 25, 1
   9              		.eabi_attribute 26, 1
  10              		.eabi_attribute 30, 6
  11              		.eabi_attribute 18, 4
  12              		.thumb
  13              		.file	"main.c"
  20 0000 BF000000 		.text
  20      02006100 
  20      00000201 
  20      FB0E0D00 
  20      01010101 
  21              	.Ltext0:
  22              		.cfi_sections	.debug_frame
  23              		.comm	modem_state,1,1
  24              		.comm	packet_ready,1,1
  25              		.comm	data_packet,128,4
  26              		.comm	data_packet_size,1,1
  27              		.section	.text.main,"ax",%progbits
  28              		.align	2
  29              		.global	main
  30              		.thumb
  31              		.thumb_func
  32              		.type	main, %function
  33              	main:
  34              	.LFB29:
  35              		.file 1 ".\\main.c"
   1:.\main.c      **** /* ========================================
   2:.\main.c      ****  *
   3:.\main.c      ****  * Copyright YOUR COMPANY, THE YEAR
   4:.\main.c      ****  * All Rights Reserved
   5:.\main.c      ****  * UNPUBLISHED, LICENSED SOFTWARE.
   6:.\main.c      ****  *
   7:.\main.c      ****  * CONFIDENTIAL AND PROPRIETARY INFORMATION
   8:.\main.c      ****  * WHICH IS THE PROPERTY OF your company.
   9:.\main.c      ****  *
  10:.\main.c      ****  * ========================================
  11:.\main.c      **** */
  12:.\main.c      **** 
  13:.\main.c      **** #include <stdio.h>
  14:.\main.c      **** #include <string.h>
  15:.\main.c      **** #include <device.h>
  16:.\main.c      **** #include "modem.h"
  17:.\main.c      **** #include "ultrasonic.h"
  18:.\main.c      **** 
ARM GAS  C:\Users\karunmj\AppData\Local\Temp\ccmfHfT9.s 			page 2


  19:.\main.c      **** // define global variables
  20:.\main.c      **** #define     MAX_PACKET_SIZE 128
  21:.\main.c      **** uint8       packet_ready;
  22:.\main.c      **** uint8       data_packet[MAX_PACKET_SIZE];
  23:.\main.c      **** uint8       data_packet_size;
  24:.\main.c      **** 
  25:.\main.c      **** // prototype functions
  26:.\main.c      **** void clear_packet();
  27:.\main.c      **** void write_packet(uint8* packet, uint8 size);
  28:.\main.c      **** 
  29:.\main.c      **** // prototype interrupt
  30:.\main.c      **** CY_ISR_PROTO(isr_timer);
  31:.\main.c      **** 
  32:.\main.c      **** void main(){
  36              		.loc 1 32 0
  37              		.cfi_startproc
  38              		@ args = 0, pretend = 0, frame = 0
  39              		@ frame_needed = 1, uses_anonymous_args = 0
  40 0000 80B5     		push	{r7, lr}
  41              	.LCFI0:
  42              		.cfi_def_cfa_offset 8
  43 0002 00AF     		add	r7, sp, #0
  44              		.cfi_offset 14, -4
  45              		.cfi_offset 7, -8
  46              	.LCFI1:
  47              		.cfi_def_cfa_register 7
  33:.\main.c      ****     // intialize modem
  34:.\main.c      ****     modem_start();
  48              		.loc 1 34 0
  49 0004 FFF7FEFF 		bl	modem_start
  35:.\main.c      ****     // intialize ultrasonic sensor
  36:.\main.c      ****     ultrasonic_start();
  50              		.loc 1 36 0
  51 0008 FFF7FEFF 		bl	ultrasonic_start
  37:.\main.c      ****     // intialize timer
  38:.\main.c      ****     timer_Start();
  52              		.loc 1 38 0
  53 000c FFF7FEFF 		bl	timer_Start
  39:.\main.c      ****     isr_timer_StartEx(isr_timer);
  54              		.loc 1 39 0
  55 0010 40F20000 		movw	r0, #:lower16:isr_timer
  56 0014 C0F20000 		movt	r0, #:upper16:isr_timer
  57 0018 FFF7FEFF 		bl	isr_timer_StartEx
  40:.\main.c      ****     clear_packet();
  58              		.loc 1 40 0
  59 001c FFF7FEFF 		bl	clear_packet
  41:.\main.c      ****     packet_ready = 1u;
  60              		.loc 1 41 0
  61 0020 40F20003 		movw	r3, #:lower16:packet_ready
  62 0024 C0F20003 		movt	r3, #:upper16:packet_ready
  63 0028 4FF00102 		mov	r2, #1
  64 002c 1A70     		strb	r2, [r3, #0]
  42:.\main.c      ****     // enable global interrupt
  43:.\main.c      ****     CyGlobalIntEnable;
  65              		.loc 1 43 0
  66              	@ 43 ".\main.c" 1
  67 002e 62B6     		CPSIE   i
ARM GAS  C:\Users\karunmj\AppData\Local\Temp\ccmfHfT9.s 			page 3


  68              	@ 0 "" 2
  44:.\main.c      ****     
  45:.\main.c      ****     // ====
  46:.\main.c      **** 
  47:.\main.c      ****     ultrasonic_read();
  69              		.loc 1 47 0
  70              		.thumb
  71 0030 FFF7FEFF 		bl	ultrasonic_read
  72              	.L2:
  48:.\main.c      ****     while(1){
  49:.\main.c      ****         CyDelay(5000u);
  73              		.loc 1 49 0
  74 0034 41F28830 		movw	r0, #5000
  75 0038 FFF7FEFF 		bl	CyDelay
  50:.\main.c      ****     }
  76              		.loc 1 50 0
  77 003c FAE7     		b	.L2
  78              		.cfi_endproc
  79              	.LFE29:
  80              		.size	main, .-main
  81 003e 00BF     		.section	.rodata
  82              		.align	2
  83              	.LC0:
  84 0000 50536F43 		.ascii	"PSoC\032\000"
  84      1A00
  85 0006 0000     		.section	.text.isr_timer,"ax",%progbits
  86              		.align	2
  87              		.global	isr_timer
  88              		.thumb
  89              		.thumb_func
  90              		.type	isr_timer, %function
  91              	isr_timer:
  92              	.LFB30:
  51:.\main.c      ****     
  52:.\main.c      ****     // ====
  53:.\main.c      ****     
  54:.\main.c      ****     for(;;){
  55:.\main.c      ****         if(packet_ready){
  56:.\main.c      ****             modem_state = modem_get_state();
  57:.\main.c      ****             if(modem_state == MODEM_STATE_OFF){
  58:.\main.c      ****                 modem_power_on();
  59:.\main.c      ****             }
  60:.\main.c      ****             else if(modem_state == MODEM_STATE_IDLE){
  61:.\main.c      ****                 if(!modem_join_network()){  // if modem failed to connect
  62:.\main.c      ****                     modem_reset();
  63:.\main.c      ****                     modem_power_off();
  64:.\main.c      ****                 }
  65:.\main.c      ****             }
  66:.\main.c      ****             else if(modem_state == MODEM_STATE_READY){
  67:.\main.c      ****                 if(!modem_send_packet(data_packet, data_packet_size)){  // if packet failed to send
  68:.\main.c      ****                     modem_reset();
  69:.\main.c      ****                     modem_power_off();
  70:.\main.c      ****                 }
  71:.\main.c      ****                 else{  // if packet successfully sent
  72:.\main.c      ****                     modem_power_off();
  73:.\main.c      ****                     clear_packet();
  74:.\main.c      ****                 }
ARM GAS  C:\Users\karunmj\AppData\Local\Temp\ccmfHfT9.s 			page 4


  75:.\main.c      ****             }
  76:.\main.c      ****         }
  77:.\main.c      ****     }
  78:.\main.c      **** }
  79:.\main.c      **** 
  80:.\main.c      **** CY_ISR(isr_timer){
  93              		.loc 1 80 0
  94              		.cfi_startproc
  95              		@ args = 0, pretend = 0, frame = 0
  96              		@ frame_needed = 1, uses_anonymous_args = 0
  97 0000 80B5     		push	{r7, lr}
  98              	.LCFI2:
  99              		.cfi_def_cfa_offset 8
 100 0002 00AF     		add	r7, sp, #0
 101              		.cfi_offset 14, -4
 102              		.cfi_offset 7, -8
 103              	.LCFI3:
 104              		.cfi_def_cfa_register 7
  81:.\main.c      ****     write_packet("PSoC\032", 5u);
 105              		.loc 1 81 0
 106 0004 40F20000 		movw	r0, #:lower16:.LC0
 107 0008 C0F20000 		movt	r0, #:upper16:.LC0
 108 000c 4FF00501 		mov	r1, #5
 109 0010 FFF7FEFF 		bl	write_packet
  82:.\main.c      ****     timer_ReadStatusRegister();
 110              		.loc 1 82 0
 111 0014 FFF7FEFF 		bl	timer_ReadStatusRegister
  83:.\main.c      **** }
 112              		.loc 1 83 0
 113 0018 80BD     		pop	{r7, pc}
 114              		.cfi_endproc
 115              	.LFE30:
 116              		.size	isr_timer, .-isr_timer
 117 001a 00BF     		.section	.text.clear_packet,"ax",%progbits
 118              		.align	2
 119              		.global	clear_packet
 120              		.thumb
 121              		.thumb_func
 122              		.type	clear_packet, %function
 123              	clear_packet:
 124              	.LFB31:
  84:.\main.c      **** 
  85:.\main.c      **** void clear_packet(){
 125              		.loc 1 85 0
 126              		.cfi_startproc
 127              		@ args = 0, pretend = 0, frame = 8
 128              		@ frame_needed = 1, uses_anonymous_args = 0
 129              		@ link register save eliminated.
 130 0000 80B4     		push	{r7}
 131              	.LCFI4:
 132              		.cfi_def_cfa_offset 4
 133 0002 83B0     		sub	sp, sp, #12
 134              	.LCFI5:
 135              		.cfi_def_cfa_offset 16
 136 0004 00AF     		add	r7, sp, #0
 137              		.cfi_offset 7, -4
 138              	.LCFI6:
ARM GAS  C:\Users\karunmj\AppData\Local\Temp\ccmfHfT9.s 			page 5


 139              		.cfi_def_cfa_register 7
  86:.\main.c      ****     uint8 i;
  87:.\main.c      ****     for(i = 0u; i < MAX_PACKET_SIZE; i++){
 140              		.loc 1 87 0
 141 0006 4FF00003 		mov	r3, #0
 142 000a FB71     		strb	r3, [r7, #7]
 143 000c 0BE0     		b	.L7
 144              	.L8:
  88:.\main.c      ****         data_packet[i] = 0;
 145              		.loc 1 88 0
 146 000e FA79     		ldrb	r2, [r7, #7]	@ zero_extendqisi2
 147 0010 40F20003 		movw	r3, #:lower16:data_packet
 148 0014 C0F20003 		movt	r3, #:upper16:data_packet
 149 0018 4FF00001 		mov	r1, #0
 150 001c 9954     		strb	r1, [r3, r2]
 151              		.loc 1 87 0
 152 001e FB79     		ldrb	r3, [r7, #7]
 153 0020 03F10103 		add	r3, r3, #1
 154 0024 FB71     		strb	r3, [r7, #7]
 155              	.L7:
 156 0026 FB79     		ldrb	r3, [r7, #7]	@ zero_extendqisi2
 157 0028 5BB2     		sxtb	r3, r3
 158 002a 002B     		cmp	r3, #0
 159 002c EFDA     		bge	.L8
  89:.\main.c      ****     }
  90:.\main.c      ****     packet_ready = 0u;
 160              		.loc 1 90 0
 161 002e 40F20003 		movw	r3, #:lower16:packet_ready
 162 0032 C0F20003 		movt	r3, #:upper16:packet_ready
 163 0036 4FF00002 		mov	r2, #0
 164 003a 1A70     		strb	r2, [r3, #0]
  91:.\main.c      ****     data_packet_size = 0u;
 165              		.loc 1 91 0
 166 003c 40F20003 		movw	r3, #:lower16:data_packet_size
 167 0040 C0F20003 		movt	r3, #:upper16:data_packet_size
 168 0044 4FF00002 		mov	r2, #0
 169 0048 1A70     		strb	r2, [r3, #0]
  92:.\main.c      **** }
 170              		.loc 1 92 0
 171 004a 07F10C07 		add	r7, r7, #12
 172 004e BD46     		mov	sp, r7
 173 0050 80BC     		pop	{r7}
 174 0052 7047     		bx	lr
 175              		.cfi_endproc
 176              	.LFE31:
 177              		.size	clear_packet, .-clear_packet
 178              		.section	.text.write_packet,"ax",%progbits
 179              		.align	2
 180              		.global	write_packet
 181              		.thumb
 182              		.thumb_func
 183              		.type	write_packet, %function
 184              	write_packet:
 185              	.LFB32:
  93:.\main.c      **** 
  94:.\main.c      **** void write_packet(uint8* packet, uint8 size){
 186              		.loc 1 94 0
ARM GAS  C:\Users\karunmj\AppData\Local\Temp\ccmfHfT9.s 			page 6


 187              		.cfi_startproc
 188              		@ args = 0, pretend = 0, frame = 16
 189              		@ frame_needed = 1, uses_anonymous_args = 0
 190              		@ link register save eliminated.
 191 0000 80B4     		push	{r7}
 192              	.LCFI7:
 193              		.cfi_def_cfa_offset 4
 194 0002 85B0     		sub	sp, sp, #20
 195              	.LCFI8:
 196              		.cfi_def_cfa_offset 24
 197 0004 00AF     		add	r7, sp, #0
 198              		.cfi_offset 7, -4
 199              	.LCFI9:
 200              		.cfi_def_cfa_register 7
 201 0006 7860     		str	r0, [r7, #4]
 202 0008 0B46     		mov	r3, r1
 203 000a FB70     		strb	r3, [r7, #3]
  95:.\main.c      ****     uint8 i;
  96:.\main.c      ****     for(i = 0u; i < size; i++){
 204              		.loc 1 96 0
 205 000c 4FF00003 		mov	r3, #0
 206 0010 FB73     		strb	r3, [r7, #15]
 207 0012 0DE0     		b	.L11
 208              	.L12:
  97:.\main.c      ****         data_packet[i] = packet[i];
 209              		.loc 1 97 0
 210 0014 FA7B     		ldrb	r2, [r7, #15]	@ zero_extendqisi2
 211 0016 F97B     		ldrb	r1, [r7, #15]	@ zero_extendqisi2
 212 0018 7B68     		ldr	r3, [r7, #4]
 213 001a 0B44     		add	r3, r1, r3
 214 001c 1978     		ldrb	r1, [r3, #0]	@ zero_extendqisi2
 215 001e 40F20003 		movw	r3, #:lower16:data_packet
 216 0022 C0F20003 		movt	r3, #:upper16:data_packet
 217 0026 9954     		strb	r1, [r3, r2]
 218              		.loc 1 96 0
 219 0028 FB7B     		ldrb	r3, [r7, #15]
 220 002a 03F10103 		add	r3, r3, #1
 221 002e FB73     		strb	r3, [r7, #15]
 222              	.L11:
 223 0030 FA7B     		ldrb	r2, [r7, #15]	@ zero_extendqisi2
 224 0032 FB78     		ldrb	r3, [r7, #3]	@ zero_extendqisi2
 225 0034 9A42     		cmp	r2, r3
 226 0036 EDD3     		bcc	.L12
  98:.\main.c      ****     }
  99:.\main.c      ****     packet_ready = 1u; 
 227              		.loc 1 99 0
 228 0038 40F20003 		movw	r3, #:lower16:packet_ready
 229 003c C0F20003 		movt	r3, #:upper16:packet_ready
 230 0040 4FF00102 		mov	r2, #1
 231 0044 1A70     		strb	r2, [r3, #0]
 100:.\main.c      ****     data_packet_size = size;
 232              		.loc 1 100 0
 233 0046 40F20003 		movw	r3, #:lower16:data_packet_size
 234 004a C0F20003 		movt	r3, #:upper16:data_packet_size
 235 004e FA78     		ldrb	r2, [r7, #3]
 236 0050 1A70     		strb	r2, [r3, #0]
 101:.\main.c      **** }
ARM GAS  C:\Users\karunmj\AppData\Local\Temp\ccmfHfT9.s 			page 7


 237              		.loc 1 101 0
 238 0052 07F11407 		add	r7, r7, #20
 239 0056 BD46     		mov	sp, r7
 240 0058 80BC     		pop	{r7}
 241 005a 7047     		bx	lr
 242              		.cfi_endproc
 243              	.LFE32:
 244              		.size	write_packet, .-write_packet
 245              		.text
 246              	.Letext0: