ARM GAS  C:\Users\karunmj\AppData\Local\Temp\ccq2h7KA.s 			page 1


   1              		.syntax unified
   2              		.cpu cortex-m3
   3              		.fpu softvfp
   4              		.eabi_attribute 20, 1
   5              		.eabi_attribute 21, 1
   6              		.eabi_attribute 23, 3
   7              		.eabi_attribute 24, 1
   8              		.eabi_attribute 25, 1
   9              		.eabi_attribute 26, 1
  10              		.eabi_attribute 30, 6
  11              		.eabi_attribute 18, 4
  12              		.thumb
  13              		.file	"timer.c"
  20 0000 86010000 		.text
  20      02005E00 
  20      00000201 
  20      FB0E0D00 
  20      01010101 
  21              	.Ltext0:
  22              		.cfi_sections	.debug_frame
  23              		.global	timer_initVar
  24              		.bss
  25              		.type	timer_initVar, %object
  26              		.size	timer_initVar, 1
  27              	timer_initVar:
  28 0000 00       		.space	1
  29              		.section	.text.timer_Init,"ax",%progbits
  30              		.align	2
  31              		.global	timer_Init
  32              		.thumb
  33              		.thumb_func
  34              		.type	timer_Init, %function
  35              	timer_Init:
  36              	.LFB0:
  37              		.file 1 ".\\Generated_Source\\PSoC5\\timer.c"
   1:.\Generated_Source\PSoC5/timer.c **** /*******************************************************************************
   2:.\Generated_Source\PSoC5/timer.c **** * File Name: timer.c
   3:.\Generated_Source\PSoC5/timer.c **** * Version 2.50
   4:.\Generated_Source\PSoC5/timer.c **** *
   5:.\Generated_Source\PSoC5/timer.c **** * Description:
   6:.\Generated_Source\PSoC5/timer.c **** *  The Timer component consists of a 8, 16, 24 or 32-bit timer with
   7:.\Generated_Source\PSoC5/timer.c **** *  a selectable period between 2 and 2^Width - 1.  The timer may free run
   8:.\Generated_Source\PSoC5/timer.c **** *  or be used as a capture timer as well.  The capture can be initiated
   9:.\Generated_Source\PSoC5/timer.c **** *  by a positive or negative edge signal as well as via software.
  10:.\Generated_Source\PSoC5/timer.c **** *  A trigger input can be programmed to enable the timer on rising edge
  11:.\Generated_Source\PSoC5/timer.c **** *  falling edge, either edge or continous run.
  12:.\Generated_Source\PSoC5/timer.c **** *  Interrupts may be generated due to a terminal count condition
  13:.\Generated_Source\PSoC5/timer.c **** *  or a capture event.
  14:.\Generated_Source\PSoC5/timer.c **** *
  15:.\Generated_Source\PSoC5/timer.c **** * Note:
  16:.\Generated_Source\PSoC5/timer.c **** *
ARM GAS  C:\Users\karunmj\AppData\Local\Temp\ccq2h7KA.s 			page 2


  17:.\Generated_Source\PSoC5/timer.c **** ********************************************************************************
  18:.\Generated_Source\PSoC5/timer.c **** * Copyright 2008-2012, Cypress Semiconductor Corporation.  All rights reserved.
  19:.\Generated_Source\PSoC5/timer.c **** * You may use this file only in accordance with the license, terms, conditions,
  20:.\Generated_Source\PSoC5/timer.c **** * disclaimers, and limitations in the end user license agreement accompanying
  21:.\Generated_Source\PSoC5/timer.c **** * the software package with which this file was provided.
  22:.\Generated_Source\PSoC5/timer.c **** ********************************************************************************/
  23:.\Generated_Source\PSoC5/timer.c **** 
  24:.\Generated_Source\PSoC5/timer.c **** #include "timer.h"
  25:.\Generated_Source\PSoC5/timer.c **** 
  26:.\Generated_Source\PSoC5/timer.c **** uint8 timer_initVar = 0u;
  27:.\Generated_Source\PSoC5/timer.c **** 
  28:.\Generated_Source\PSoC5/timer.c **** 
  29:.\Generated_Source\PSoC5/timer.c **** /*******************************************************************************
  30:.\Generated_Source\PSoC5/timer.c **** * Function Name: timer_Init
  31:.\Generated_Source\PSoC5/timer.c **** ********************************************************************************
  32:.\Generated_Source\PSoC5/timer.c **** *
  33:.\Generated_Source\PSoC5/timer.c **** * Summary:
  34:.\Generated_Source\PSoC5/timer.c **** *  Initialize to the schematic state
  35:.\Generated_Source\PSoC5/timer.c **** *
  36:.\Generated_Source\PSoC5/timer.c **** * Parameters:
  37:.\Generated_Source\PSoC5/timer.c **** *  void
  38:.\Generated_Source\PSoC5/timer.c **** *
  39:.\Generated_Source\PSoC5/timer.c **** * Return:
  40:.\Generated_Source\PSoC5/timer.c **** *  void
  41:.\Generated_Source\PSoC5/timer.c **** *
  42:.\Generated_Source\PSoC5/timer.c **** *******************************************************************************/
  43:.\Generated_Source\PSoC5/timer.c **** void timer_Init(void) 
  44:.\Generated_Source\PSoC5/timer.c **** {
  38              		.loc 1 44 0
  39              		.cfi_startproc
  40              		@ args = 0, pretend = 0, frame = 8
  41              		@ frame_needed = 1, uses_anonymous_args = 0
  42 0000 80B5     		push	{r7, lr}
  43              	.LCFI0:
  44              		.cfi_def_cfa_offset 8
  45 0002 82B0     		sub	sp, sp, #8
  46              	.LCFI1:
  47              		.cfi_def_cfa_offset 16
  48 0004 00AF     		add	r7, sp, #0
  49              		.cfi_offset 14, -4
  50              		.cfi_offset 7, -8
  51              	.LCFI2:
  52              		.cfi_def_cfa_register 7
  45:.\Generated_Source\PSoC5/timer.c ****     #if(!timer_UsingFixedFunction)
  46:.\Generated_Source\PSoC5/timer.c ****             /* Interrupt State Backup for Critical Region*/
  47:.\Generated_Source\PSoC5/timer.c ****             uint8 timer_interruptState;
  48:.\Generated_Source\PSoC5/timer.c ****     #endif /* Interrupt state back up for Fixed Function only */
  49:.\Generated_Source\PSoC5/timer.c **** 
  50:.\Generated_Source\PSoC5/timer.c ****     #if (timer_UsingFixedFunction)
  51:.\Generated_Source\PSoC5/timer.c ****         /* Clear all bits but the enable bit (if it's already set) for Timer operation */
  52:.\Generated_Source\PSoC5/timer.c ****         timer_CONTROL &= timer_CTRL_ENABLE;
  53:.\Generated_Source\PSoC5/timer.c **** 
  54:.\Generated_Source\PSoC5/timer.c ****         /* Clear the mode bits for continuous run mode */
  55:.\Generated_Source\PSoC5/timer.c ****         #if (CY_PSOC5A)
  56:.\Generated_Source\PSoC5/timer.c ****             timer_CONTROL2 &= ((uint8)(~timer_CTRL_MODE_MASK));
  57:.\Generated_Source\PSoC5/timer.c ****         #endif /* Clear bits in CONTROL2 only in PSOC5A */
  58:.\Generated_Source\PSoC5/timer.c **** 
ARM GAS  C:\Users\karunmj\AppData\Local\Temp\ccq2h7KA.s 			page 3


  59:.\Generated_Source\PSoC5/timer.c ****         #if (CY_PSOC3 || CY_PSOC5LP)
  60:.\Generated_Source\PSoC5/timer.c ****             timer_CONTROL3 &= ((uint8)(~timer_CTRL_MODE_MASK));
  61:.\Generated_Source\PSoC5/timer.c ****         #endif /* CONTROL3 register exists only in PSoC3 OR PSoC5LP */
  62:.\Generated_Source\PSoC5/timer.c **** 
  63:.\Generated_Source\PSoC5/timer.c ****         /* Check if One Shot mode is enabled i.e. RunMode !=0*/
  64:.\Generated_Source\PSoC5/timer.c ****         #if (timer_RunModeUsed != 0x0u)
  65:.\Generated_Source\PSoC5/timer.c ****             /* Set 3rd bit of Control register to enable one shot mode */
  66:.\Generated_Source\PSoC5/timer.c ****             timer_CONTROL |= 0x04u;
  67:.\Generated_Source\PSoC5/timer.c ****         #endif /* One Shot enabled only when RunModeUsed is not Continuous*/
  68:.\Generated_Source\PSoC5/timer.c **** 
  69:.\Generated_Source\PSoC5/timer.c ****         #if (timer_RunModeUsed == 2)
  70:.\Generated_Source\PSoC5/timer.c ****             #if (CY_PSOC5A)
  71:.\Generated_Source\PSoC5/timer.c ****                 /* Set last 2 bits of control2 register if one shot(halt on
  72:.\Generated_Source\PSoC5/timer.c ****                 interrupt) is enabled*/
  73:.\Generated_Source\PSoC5/timer.c ****                 timer_CONTROL2 |= 0x03u;
  74:.\Generated_Source\PSoC5/timer.c ****             #endif /* Set One-Shot Halt on Interrupt bit in CONTROL2 for PSoC5A */
  75:.\Generated_Source\PSoC5/timer.c **** 
  76:.\Generated_Source\PSoC5/timer.c ****             #if (CY_PSOC3 || CY_PSOC5LP)
  77:.\Generated_Source\PSoC5/timer.c ****                 /* Set last 2 bits of control3 register if one shot(halt on
  78:.\Generated_Source\PSoC5/timer.c ****                 interrupt) is enabled*/
  79:.\Generated_Source\PSoC5/timer.c ****                 timer_CONTROL3 |= 0x03u;
  80:.\Generated_Source\PSoC5/timer.c ****             #endif /* Set One-Shot Halt on Interrupt bit in CONTROL3 for PSoC3 or PSoC5LP */
  81:.\Generated_Source\PSoC5/timer.c **** 
  82:.\Generated_Source\PSoC5/timer.c ****         #endif /* Remove section if One Shot Halt on Interrupt is not enabled */
  83:.\Generated_Source\PSoC5/timer.c **** 
  84:.\Generated_Source\PSoC5/timer.c ****         #if (timer_UsingHWEnable != 0)
  85:.\Generated_Source\PSoC5/timer.c ****             #if (CY_PSOC5A)
  86:.\Generated_Source\PSoC5/timer.c ****                 /* Set the default Run Mode of the Timer to Continuous */
  87:.\Generated_Source\PSoC5/timer.c ****                 timer_CONTROL2 |= timer_CTRL_MODE_PULSEWIDTH;
  88:.\Generated_Source\PSoC5/timer.c ****             #endif /* Set Continuous Run Mode in CONTROL2 for PSoC5A */
  89:.\Generated_Source\PSoC5/timer.c **** 
  90:.\Generated_Source\PSoC5/timer.c ****             #if (CY_PSOC3 || CY_PSOC5LP)
  91:.\Generated_Source\PSoC5/timer.c ****                 /* Clear and Set ROD and COD bits of CFG2 register */
  92:.\Generated_Source\PSoC5/timer.c ****                 timer_CONTROL3 &= ((uint8)(~timer_CTRL_RCOD_MASK));
  93:.\Generated_Source\PSoC5/timer.c ****                 timer_CONTROL3 |= timer_CTRL_RCOD;
  94:.\Generated_Source\PSoC5/timer.c **** 
  95:.\Generated_Source\PSoC5/timer.c ****                 /* Clear and Enable the HW enable bit in CFG2 register */
  96:.\Generated_Source\PSoC5/timer.c ****                 timer_CONTROL3 &= ((uint8)(~timer_CTRL_ENBL_MASK));
  97:.\Generated_Source\PSoC5/timer.c ****                 timer_CONTROL3 |= timer_CTRL_ENBL;
  98:.\Generated_Source\PSoC5/timer.c **** 
  99:.\Generated_Source\PSoC5/timer.c ****                 /* Set the default Run Mode of the Timer to Continuous */
 100:.\Generated_Source\PSoC5/timer.c ****                 timer_CONTROL3 |= timer_CTRL_MODE_CONTINUOUS;
 101:.\Generated_Source\PSoC5/timer.c ****             #endif /* Set Continuous Run Mode in CONTROL3 for PSoC3ES3 or PSoC5A */
 102:.\Generated_Source\PSoC5/timer.c **** 
 103:.\Generated_Source\PSoC5/timer.c ****         #endif /* Configure Run Mode with hardware enable */
 104:.\Generated_Source\PSoC5/timer.c **** 
 105:.\Generated_Source\PSoC5/timer.c ****         /* Clear and Set SYNCTC and SYNCCMP bits of RT1 register */
 106:.\Generated_Source\PSoC5/timer.c ****         timer_RT1 &= ((uint8)(~timer_RT1_MASK));
 107:.\Generated_Source\PSoC5/timer.c ****         timer_RT1 |= timer_SYNC;
 108:.\Generated_Source\PSoC5/timer.c **** 
 109:.\Generated_Source\PSoC5/timer.c ****         /*Enable DSI Sync all all inputs of the Timer*/
 110:.\Generated_Source\PSoC5/timer.c ****         timer_RT1 &= ((uint8)(~timer_SYNCDSI_MASK));
 111:.\Generated_Source\PSoC5/timer.c ****         timer_RT1 |= timer_SYNCDSI_EN;
 112:.\Generated_Source\PSoC5/timer.c **** 
 113:.\Generated_Source\PSoC5/timer.c ****         /* Set the IRQ to use the status register interrupts */
 114:.\Generated_Source\PSoC5/timer.c ****         timer_CONTROL2 |= timer_CTRL2_IRQ_SEL;
 115:.\Generated_Source\PSoC5/timer.c ****     #endif /* Configuring registers of fixed function implementation */
ARM GAS  C:\Users\karunmj\AppData\Local\Temp\ccq2h7KA.s 			page 4


 116:.\Generated_Source\PSoC5/timer.c **** 
 117:.\Generated_Source\PSoC5/timer.c ****     /* Set Initial values from Configuration */
 118:.\Generated_Source\PSoC5/timer.c ****     timer_WritePeriod(timer_INIT_PERIOD);
  53              		.loc 1 118 0
  54 0006 4AF2FF10 		movw	r0, #:lower16:1294967295
  55 000a C4F62F50 		movt	r0, #:upper16:1294967295
  56 000e FFF7FEFF 		bl	timer_WritePeriod
 119:.\Generated_Source\PSoC5/timer.c ****     timer_WriteCounter(timer_INIT_PERIOD);
  57              		.loc 1 119 0
  58 0012 4AF2FF10 		movw	r0, #:lower16:1294967295
  59 0016 C4F62F50 		movt	r0, #:upper16:1294967295
  60 001a FFF7FEFF 		bl	timer_WriteCounter
 120:.\Generated_Source\PSoC5/timer.c **** 
 121:.\Generated_Source\PSoC5/timer.c ****     #if (timer_UsingHWCaptureCounter)/* Capture counter is enabled */
 122:.\Generated_Source\PSoC5/timer.c ****         timer_CAPTURE_COUNT_CTRL |= timer_CNTR_ENABLE;
 123:.\Generated_Source\PSoC5/timer.c ****         timer_SetCaptureCount(timer_INIT_CAPTURE_COUNT);
 124:.\Generated_Source\PSoC5/timer.c ****     #endif /* Configure capture counter value */
 125:.\Generated_Source\PSoC5/timer.c **** 
 126:.\Generated_Source\PSoC5/timer.c ****     #if (!timer_UsingFixedFunction)
 127:.\Generated_Source\PSoC5/timer.c ****         #if (timer_SoftwareCaptureMode)
 128:.\Generated_Source\PSoC5/timer.c ****             timer_SetCaptureMode(timer_INIT_CAPTURE_MODE);
 129:.\Generated_Source\PSoC5/timer.c ****         #endif /* Set Capture Mode for UDB implementation if capture mode is software controlled */
 130:.\Generated_Source\PSoC5/timer.c **** 
 131:.\Generated_Source\PSoC5/timer.c ****         #if (timer_SoftwareTriggerMode)
 132:.\Generated_Source\PSoC5/timer.c ****             if (0u == (timer_CONTROL & timer__B_TIMER__TM_SOFTWARE))
 133:.\Generated_Source\PSoC5/timer.c ****             {
 134:.\Generated_Source\PSoC5/timer.c ****                 timer_SetTriggerMode(timer_INIT_TRIGGER_MODE);
 135:.\Generated_Source\PSoC5/timer.c ****             }
 136:.\Generated_Source\PSoC5/timer.c ****         #endif /* Set trigger mode for UDB Implementation if trigger mode is software controlled */
 137:.\Generated_Source\PSoC5/timer.c **** 
 138:.\Generated_Source\PSoC5/timer.c ****         /* CyEnterCriticalRegion and CyExitCriticalRegion are used to mark following region critica
 139:.\Generated_Source\PSoC5/timer.c ****         /* Enter Critical Region*/
 140:.\Generated_Source\PSoC5/timer.c ****         timer_interruptState = CyEnterCriticalSection();
  61              		.loc 1 140 0
  62 001e FFF7FEFF 		bl	CyEnterCriticalSection
  63 0022 0346     		mov	r3, r0
  64 0024 FB71     		strb	r3, [r7, #7]
 141:.\Generated_Source\PSoC5/timer.c **** 
 142:.\Generated_Source\PSoC5/timer.c ****         /* Use the interrupt output of the status register for IRQ output */
 143:.\Generated_Source\PSoC5/timer.c ****         timer_STATUS_AUX_CTRL |= timer_STATUS_ACTL_INT_EN_MASK;
  65              		.loc 1 143 0
  66 0026 46F29453 		movw	r3, #:lower16:1073767828
  67 002a C4F20003 		movt	r3, #:upper16:1073767828
  68 002e 46F29452 		movw	r2, #:lower16:1073767828
  69 0032 C4F20002 		movt	r2, #:upper16:1073767828
  70 0036 1278     		ldrb	r2, [r2, #0]
  71 0038 D2B2     		uxtb	r2, r2
  72 003a 42F01002 		orr	r2, r2, #16
  73 003e D2B2     		uxtb	r2, r2
  74 0040 1A70     		strb	r2, [r3, #0]
 144:.\Generated_Source\PSoC5/timer.c **** 
 145:.\Generated_Source\PSoC5/timer.c ****         /* Exit Critical Region*/
 146:.\Generated_Source\PSoC5/timer.c ****         CyExitCriticalSection(timer_interruptState);
  75              		.loc 1 146 0
  76 0042 FB79     		ldrb	r3, [r7, #7]	@ zero_extendqisi2
  77 0044 1846     		mov	r0, r3
  78 0046 FFF7FEFF 		bl	CyExitCriticalSection
ARM GAS  C:\Users\karunmj\AppData\Local\Temp\ccq2h7KA.s 			page 5


 147:.\Generated_Source\PSoC5/timer.c **** 
 148:.\Generated_Source\PSoC5/timer.c ****         #if (timer_EnableTriggerMode)
 149:.\Generated_Source\PSoC5/timer.c ****             timer_EnableTrigger();
 150:.\Generated_Source\PSoC5/timer.c ****         #endif /* Set Trigger enable bit for UDB implementation in the control register*/
 151:.\Generated_Source\PSoC5/timer.c **** 
 152:.\Generated_Source\PSoC5/timer.c ****         #if (timer_InterruptOnCaptureCount)
 153:.\Generated_Source\PSoC5/timer.c ****              #if (!timer_ControlRegRemoved)
 154:.\Generated_Source\PSoC5/timer.c ****                 timer_SetInterruptCount(timer_INIT_INT_CAPTURE_COUNT);
 155:.\Generated_Source\PSoC5/timer.c ****             #endif /* Set interrupt count in control register if control register is not removed */
 156:.\Generated_Source\PSoC5/timer.c ****         #endif /*Set interrupt count in UDB implementation if interrupt count feature is checked.*/
 157:.\Generated_Source\PSoC5/timer.c **** 
 158:.\Generated_Source\PSoC5/timer.c ****         timer_ClearFIFO();
  79              		.loc 1 158 0
  80 004a FFF7FEFF 		bl	timer_ClearFIFO
 159:.\Generated_Source\PSoC5/timer.c ****     #endif /* Configure additional features of UDB implementation */
 160:.\Generated_Source\PSoC5/timer.c **** 
 161:.\Generated_Source\PSoC5/timer.c ****     timer_SetInterruptMode(timer_INIT_INTERRUPT_MODE);
  81              		.loc 1 161 0
  82 004e 4FF00100 		mov	r0, #1
  83 0052 FFF7FEFF 		bl	timer_SetInterruptMode
 162:.\Generated_Source\PSoC5/timer.c **** }
  84              		.loc 1 162 0
  85 0056 07F10807 		add	r7, r7, #8
  86 005a BD46     		mov	sp, r7
  87 005c 80BD     		pop	{r7, pc}
  88              		.cfi_endproc
  89              	.LFE0:
  90              		.size	timer_Init, .-timer_Init
  91 005e 00BF     		.section	.text.timer_Enable,"ax",%progbits
  92              		.align	2
  93              		.global	timer_Enable
  94              		.thumb
  95              		.thumb_func
  96              		.type	timer_Enable, %function
  97              	timer_Enable:
  98              	.LFB1:
 163:.\Generated_Source\PSoC5/timer.c **** 
 164:.\Generated_Source\PSoC5/timer.c **** 
 165:.\Generated_Source\PSoC5/timer.c **** /*******************************************************************************
 166:.\Generated_Source\PSoC5/timer.c **** * Function Name: timer_Enable
 167:.\Generated_Source\PSoC5/timer.c **** ********************************************************************************
 168:.\Generated_Source\PSoC5/timer.c **** *
 169:.\Generated_Source\PSoC5/timer.c **** * Summary:
 170:.\Generated_Source\PSoC5/timer.c **** *  Enable the Timer
 171:.\Generated_Source\PSoC5/timer.c **** *
 172:.\Generated_Source\PSoC5/timer.c **** * Parameters:
 173:.\Generated_Source\PSoC5/timer.c **** *  void
 174:.\Generated_Source\PSoC5/timer.c **** *
 175:.\Generated_Source\PSoC5/timer.c **** * Return:
 176:.\Generated_Source\PSoC5/timer.c **** *  void
 177:.\Generated_Source\PSoC5/timer.c **** *
 178:.\Generated_Source\PSoC5/timer.c **** *******************************************************************************/
 179:.\Generated_Source\PSoC5/timer.c **** void timer_Enable(void) 
 180:.\Generated_Source\PSoC5/timer.c **** {
  99              		.loc 1 180 0
 100              		.cfi_startproc
 101              		@ args = 0, pretend = 0, frame = 0
ARM GAS  C:\Users\karunmj\AppData\Local\Temp\ccq2h7KA.s 			page 6


 102              		@ frame_needed = 1, uses_anonymous_args = 0
 103              		@ link register save eliminated.
 104 0000 80B4     		push	{r7}
 105              	.LCFI3:
 106              		.cfi_def_cfa_offset 4
 107 0002 00AF     		add	r7, sp, #0
 108              		.cfi_offset 7, -4
 109              	.LCFI4:
 110              		.cfi_def_cfa_register 7
 181:.\Generated_Source\PSoC5/timer.c ****     /* Globally Enable the Fixed Function Block chosen */
 182:.\Generated_Source\PSoC5/timer.c ****     #if (timer_UsingFixedFunction)
 183:.\Generated_Source\PSoC5/timer.c ****         timer_GLOBAL_ENABLE |= timer_BLOCK_EN_MASK;
 184:.\Generated_Source\PSoC5/timer.c ****         timer_GLOBAL_STBY_ENABLE |= timer_BLOCK_STBY_EN_MASK;
 185:.\Generated_Source\PSoC5/timer.c ****     #endif /* Set Enable bit for enabling Fixed function timer*/
 186:.\Generated_Source\PSoC5/timer.c **** 
 187:.\Generated_Source\PSoC5/timer.c ****     /* Remove assignment if control register is removed */
 188:.\Generated_Source\PSoC5/timer.c ****     #if (!timer_ControlRegRemoved || timer_UsingFixedFunction)
 189:.\Generated_Source\PSoC5/timer.c ****         timer_CONTROL |= timer_CTRL_ENABLE;
 111              		.loc 1 189 0
 112 0004 46F27453 		movw	r3, #:lower16:1073767796
 113 0008 C4F20003 		movt	r3, #:upper16:1073767796
 114 000c 46F27452 		movw	r2, #:lower16:1073767796
 115 0010 C4F20002 		movt	r2, #:upper16:1073767796
 116 0014 1278     		ldrb	r2, [r2, #0]
 117 0016 D2B2     		uxtb	r2, r2
 118 0018 6FEA4262 		mvn	r2, r2, lsl #25
 119 001c 6FEA5262 		mvn	r2, r2, lsr #25
 120 0020 D2B2     		uxtb	r2, r2
 121 0022 1A70     		strb	r2, [r3, #0]
 190:.\Generated_Source\PSoC5/timer.c ****     #endif /* Remove assignment if control register is removed */
 191:.\Generated_Source\PSoC5/timer.c **** }
 122              		.loc 1 191 0
 123 0024 BD46     		mov	sp, r7
 124 0026 80BC     		pop	{r7}
 125 0028 7047     		bx	lr
 126              		.cfi_endproc
 127              	.LFE1:
 128              		.size	timer_Enable, .-timer_Enable
 129 002a 00BF     		.section	.text.timer_Start,"ax",%progbits
 130              		.align	2
 131              		.global	timer_Start
 132              		.thumb
 133              		.thumb_func
 134              		.type	timer_Start, %function
 135              	timer_Start:
 136              	.LFB2:
 192:.\Generated_Source\PSoC5/timer.c **** 
 193:.\Generated_Source\PSoC5/timer.c **** 
 194:.\Generated_Source\PSoC5/timer.c **** /*******************************************************************************
 195:.\Generated_Source\PSoC5/timer.c **** * Function Name: timer_Start
 196:.\Generated_Source\PSoC5/timer.c **** ********************************************************************************
 197:.\Generated_Source\PSoC5/timer.c **** *
 198:.\Generated_Source\PSoC5/timer.c **** * Summary:
 199:.\Generated_Source\PSoC5/timer.c **** *  The start function initializes the timer with the default values, the
 200:.\Generated_Source\PSoC5/timer.c **** *  enables the timerto begin counting.  It does not enable interrupts,
 201:.\Generated_Source\PSoC5/timer.c **** *  the EnableInt command should be called if interrupt generation is required.
 202:.\Generated_Source\PSoC5/timer.c **** *
ARM GAS  C:\Users\karunmj\AppData\Local\Temp\ccq2h7KA.s 			page 7


 203:.\Generated_Source\PSoC5/timer.c **** * Parameters:
 204:.\Generated_Source\PSoC5/timer.c **** *  void
 205:.\Generated_Source\PSoC5/timer.c **** *
 206:.\Generated_Source\PSoC5/timer.c **** * Return:
 207:.\Generated_Source\PSoC5/timer.c **** *  void
 208:.\Generated_Source\PSoC5/timer.c **** *
 209:.\Generated_Source\PSoC5/timer.c **** * Global variables:
 210:.\Generated_Source\PSoC5/timer.c **** *  timer_initVar: Is modified when this function is called for the
 211:.\Generated_Source\PSoC5/timer.c **** *   first time. Is used to ensure that initialization happens only once.
 212:.\Generated_Source\PSoC5/timer.c **** *
 213:.\Generated_Source\PSoC5/timer.c **** *******************************************************************************/
 214:.\Generated_Source\PSoC5/timer.c **** void timer_Start(void) 
 215:.\Generated_Source\PSoC5/timer.c **** {
 137              		.loc 1 215 0
 138              		.cfi_startproc
 139              		@ args = 0, pretend = 0, frame = 0
 140              		@ frame_needed = 1, uses_anonymous_args = 0
 141 0000 80B5     		push	{r7, lr}
 142              	.LCFI5:
 143              		.cfi_def_cfa_offset 8
 144 0002 00AF     		add	r7, sp, #0
 145              		.cfi_offset 14, -4
 146              		.cfi_offset 7, -8
 147              	.LCFI6:
 148              		.cfi_def_cfa_register 7
 216:.\Generated_Source\PSoC5/timer.c ****     if(timer_initVar == 0u)
 149              		.loc 1 216 0
 150 0004 40F20003 		movw	r3, #:lower16:timer_initVar
 151 0008 C0F20003 		movt	r3, #:upper16:timer_initVar
 152 000c 1B78     		ldrb	r3, [r3, #0]	@ zero_extendqisi2
 153 000e 002B     		cmp	r3, #0
 154 0010 08D1     		bne	.L6
 217:.\Generated_Source\PSoC5/timer.c ****     {
 218:.\Generated_Source\PSoC5/timer.c ****         timer_Init();
 155              		.loc 1 218 0
 156 0012 FFF7FEFF 		bl	timer_Init
 219:.\Generated_Source\PSoC5/timer.c **** 
 220:.\Generated_Source\PSoC5/timer.c ****         timer_initVar = 1u;   /* Clear this bit for Initialization */
 157              		.loc 1 220 0
 158 0016 40F20003 		movw	r3, #:lower16:timer_initVar
 159 001a C0F20003 		movt	r3, #:upper16:timer_initVar
 160 001e 4FF00102 		mov	r2, #1
 161 0022 1A70     		strb	r2, [r3, #0]
 162              	.L6:
 221:.\Generated_Source\PSoC5/timer.c ****     }
 222:.\Generated_Source\PSoC5/timer.c **** 
 223:.\Generated_Source\PSoC5/timer.c ****     /* Enable the Timer */
 224:.\Generated_Source\PSoC5/timer.c ****     timer_Enable();
 163              		.loc 1 224 0
 164 0024 FFF7FEFF 		bl	timer_Enable
 225:.\Generated_Source\PSoC5/timer.c **** }
 165              		.loc 1 225 0
 166 0028 80BD     		pop	{r7, pc}
 167              		.cfi_endproc
 168              	.LFE2:
 169              		.size	timer_Start, .-timer_Start
 170 002a 00BF     		.section	.text.timer_Stop,"ax",%progbits
ARM GAS  C:\Users\karunmj\AppData\Local\Temp\ccq2h7KA.s 			page 8


 171              		.align	2
 172              		.global	timer_Stop
 173              		.thumb
 174              		.thumb_func
 175              		.type	timer_Stop, %function
 176              	timer_Stop:
 177              	.LFB3:
 226:.\Generated_Source\PSoC5/timer.c **** 
 227:.\Generated_Source\PSoC5/timer.c **** 
 228:.\Generated_Source\PSoC5/timer.c **** /*******************************************************************************
 229:.\Generated_Source\PSoC5/timer.c **** * Function Name: timer_Stop
 230:.\Generated_Source\PSoC5/timer.c **** ********************************************************************************
 231:.\Generated_Source\PSoC5/timer.c **** *
 232:.\Generated_Source\PSoC5/timer.c **** * Summary:
 233:.\Generated_Source\PSoC5/timer.c **** *  The stop function halts the timer, but does not change any modes or disable
 234:.\Generated_Source\PSoC5/timer.c **** *  interrupts.
 235:.\Generated_Source\PSoC5/timer.c **** *
 236:.\Generated_Source\PSoC5/timer.c **** * Parameters:
 237:.\Generated_Source\PSoC5/timer.c **** *  void
 238:.\Generated_Source\PSoC5/timer.c **** *
 239:.\Generated_Source\PSoC5/timer.c **** * Return:
 240:.\Generated_Source\PSoC5/timer.c **** *  void
 241:.\Generated_Source\PSoC5/timer.c **** *
 242:.\Generated_Source\PSoC5/timer.c **** * Side Effects: If the Enable mode is set to Hardware only then this function
 243:.\Generated_Source\PSoC5/timer.c **** *               has no effect on the operation of the timer.
 244:.\Generated_Source\PSoC5/timer.c **** *
 245:.\Generated_Source\PSoC5/timer.c **** *******************************************************************************/
 246:.\Generated_Source\PSoC5/timer.c **** void timer_Stop(void) 
 247:.\Generated_Source\PSoC5/timer.c **** {
 178              		.loc 1 247 0
 179              		.cfi_startproc
 180              		@ args = 0, pretend = 0, frame = 0
 181              		@ frame_needed = 1, uses_anonymous_args = 0
 182              		@ link register save eliminated.
 183 0000 80B4     		push	{r7}
 184              	.LCFI7:
 185              		.cfi_def_cfa_offset 4
 186 0002 00AF     		add	r7, sp, #0
 187              		.cfi_offset 7, -4
 188              	.LCFI8:
 189              		.cfi_def_cfa_register 7
 248:.\Generated_Source\PSoC5/timer.c ****     /* Disable Timer */
 249:.\Generated_Source\PSoC5/timer.c ****     #if(!timer_ControlRegRemoved || timer_UsingFixedFunction)
 250:.\Generated_Source\PSoC5/timer.c ****         timer_CONTROL &= ((uint8)(~timer_CTRL_ENABLE));
 190              		.loc 1 250 0
 191 0004 46F27453 		movw	r3, #:lower16:1073767796
 192 0008 C4F20003 		movt	r3, #:upper16:1073767796
 193 000c 46F27452 		movw	r2, #:lower16:1073767796
 194 0010 C4F20002 		movt	r2, #:upper16:1073767796
 195 0014 1278     		ldrb	r2, [r2, #0]
 196 0016 D2B2     		uxtb	r2, r2
 197 0018 02F07F02 		and	r2, r2, #127
 198 001c 1A70     		strb	r2, [r3, #0]
 251:.\Generated_Source\PSoC5/timer.c ****     #endif /* Remove assignment if control register is removed */
 252:.\Generated_Source\PSoC5/timer.c **** 
 253:.\Generated_Source\PSoC5/timer.c ****     /* Globally disable the Fixed Function Block chosen */
 254:.\Generated_Source\PSoC5/timer.c ****     #if (timer_UsingFixedFunction)
ARM GAS  C:\Users\karunmj\AppData\Local\Temp\ccq2h7KA.s 			page 9


 255:.\Generated_Source\PSoC5/timer.c ****         timer_GLOBAL_ENABLE &= ((uint8)(~timer_BLOCK_EN_MASK));
 256:.\Generated_Source\PSoC5/timer.c ****         timer_GLOBAL_STBY_ENABLE &= ((uint8)(~timer_BLOCK_STBY_EN_MASK));
 257:.\Generated_Source\PSoC5/timer.c ****     #endif /* Disable global enable for the Timer Fixed function block to stop the Timer*/
 258:.\Generated_Source\PSoC5/timer.c **** }
 199              		.loc 1 258 0
 200 001e BD46     		mov	sp, r7
 201 0020 80BC     		pop	{r7}
 202 0022 7047     		bx	lr
 203              		.cfi_endproc
 204              	.LFE3:
 205              		.size	timer_Stop, .-timer_Stop
 206              		.section	.text.timer_SetInterruptMode,"ax",%progbits
 207              		.align	2
 208              		.global	timer_SetInterruptMode
 209              		.thumb
 210              		.thumb_func
 211              		.type	timer_SetInterruptMode, %function
 212              	timer_SetInterruptMode:
 213              	.LFB4:
 259:.\Generated_Source\PSoC5/timer.c **** 
 260:.\Generated_Source\PSoC5/timer.c **** 
 261:.\Generated_Source\PSoC5/timer.c **** /*******************************************************************************
 262:.\Generated_Source\PSoC5/timer.c **** * Function Name: timer_SetInterruptMode
 263:.\Generated_Source\PSoC5/timer.c **** ********************************************************************************
 264:.\Generated_Source\PSoC5/timer.c **** *
 265:.\Generated_Source\PSoC5/timer.c **** * Summary:
 266:.\Generated_Source\PSoC5/timer.c **** *  This function selects which of the interrupt inputs may cause an interrupt.
 267:.\Generated_Source\PSoC5/timer.c **** *  The twosources are caputure and terminal.  One, both or neither may
 268:.\Generated_Source\PSoC5/timer.c **** *  be selected.
 269:.\Generated_Source\PSoC5/timer.c **** *
 270:.\Generated_Source\PSoC5/timer.c **** * Parameters:
 271:.\Generated_Source\PSoC5/timer.c **** *  interruptMode:   This parameter is used to enable interrups on either/or
 272:.\Generated_Source\PSoC5/timer.c **** *                   terminal count or capture.
 273:.\Generated_Source\PSoC5/timer.c **** *
 274:.\Generated_Source\PSoC5/timer.c **** * Return:
 275:.\Generated_Source\PSoC5/timer.c **** *  void
 276:.\Generated_Source\PSoC5/timer.c **** *
 277:.\Generated_Source\PSoC5/timer.c **** *******************************************************************************/
 278:.\Generated_Source\PSoC5/timer.c **** void timer_SetInterruptMode(uint8 interruptMode) 
 279:.\Generated_Source\PSoC5/timer.c **** {
 214              		.loc 1 279 0
 215              		.cfi_startproc
 216              		@ args = 0, pretend = 0, frame = 8
 217              		@ frame_needed = 1, uses_anonymous_args = 0
 218              		@ link register save eliminated.
 219 0000 80B4     		push	{r7}
 220              	.LCFI9:
 221              		.cfi_def_cfa_offset 4
 222 0002 83B0     		sub	sp, sp, #12
 223              	.LCFI10:
 224              		.cfi_def_cfa_offset 16
 225 0004 00AF     		add	r7, sp, #0
 226              		.cfi_offset 7, -4
 227              	.LCFI11:
 228              		.cfi_def_cfa_register 7
 229 0006 0346     		mov	r3, r0
 230 0008 FB71     		strb	r3, [r7, #7]
ARM GAS  C:\Users\karunmj\AppData\Local\Temp\ccq2h7KA.s 			page 10


 280:.\Generated_Source\PSoC5/timer.c ****     timer_STATUS_MASK = interruptMode;
 231              		.loc 1 280 0
 232 000a 46F28453 		movw	r3, #:lower16:1073767812
 233 000e C4F20003 		movt	r3, #:upper16:1073767812
 234 0012 FA79     		ldrb	r2, [r7, #7]
 235 0014 1A70     		strb	r2, [r3, #0]
 281:.\Generated_Source\PSoC5/timer.c **** }
 236              		.loc 1 281 0
 237 0016 07F10C07 		add	r7, r7, #12
 238 001a BD46     		mov	sp, r7
 239 001c 80BC     		pop	{r7}
 240 001e 7047     		bx	lr
 241              		.cfi_endproc
 242              	.LFE4:
 243              		.size	timer_SetInterruptMode, .-timer_SetInterruptMode
 244              		.section	.text.timer_SoftwareCapture,"ax",%progbits
 245              		.align	2
 246              		.global	timer_SoftwareCapture
 247              		.thumb
 248              		.thumb_func
 249              		.type	timer_SoftwareCapture, %function
 250              	timer_SoftwareCapture:
 251              	.LFB5:
 282:.\Generated_Source\PSoC5/timer.c **** 
 283:.\Generated_Source\PSoC5/timer.c **** 
 284:.\Generated_Source\PSoC5/timer.c **** /*******************************************************************************
 285:.\Generated_Source\PSoC5/timer.c **** * Function Name: timer_SoftwareCapture
 286:.\Generated_Source\PSoC5/timer.c **** ********************************************************************************
 287:.\Generated_Source\PSoC5/timer.c **** *
 288:.\Generated_Source\PSoC5/timer.c **** * Summary:
 289:.\Generated_Source\PSoC5/timer.c **** *  This function forces a capture independent of the capture signal.
 290:.\Generated_Source\PSoC5/timer.c **** *
 291:.\Generated_Source\PSoC5/timer.c **** * Parameters:
 292:.\Generated_Source\PSoC5/timer.c **** *  void
 293:.\Generated_Source\PSoC5/timer.c **** *
 294:.\Generated_Source\PSoC5/timer.c **** * Return:
 295:.\Generated_Source\PSoC5/timer.c **** *  void
 296:.\Generated_Source\PSoC5/timer.c **** *
 297:.\Generated_Source\PSoC5/timer.c **** * Side Effects:
 298:.\Generated_Source\PSoC5/timer.c **** *  An existing hardware capture could be overwritten.
 299:.\Generated_Source\PSoC5/timer.c **** *
 300:.\Generated_Source\PSoC5/timer.c **** *******************************************************************************/
 301:.\Generated_Source\PSoC5/timer.c **** void timer_SoftwareCapture(void) 
 302:.\Generated_Source\PSoC5/timer.c **** {
 252              		.loc 1 302 0
 253              		.cfi_startproc
 254              		@ args = 0, pretend = 0, frame = 0
 255              		@ frame_needed = 1, uses_anonymous_args = 0
 256              		@ link register save eliminated.
 257 0000 80B4     		push	{r7}
 258              	.LCFI12:
 259              		.cfi_def_cfa_offset 4
 260 0002 00AF     		add	r7, sp, #0
 261              		.cfi_offset 7, -4
 262              	.LCFI13:
 263              		.cfi_def_cfa_register 7
 303:.\Generated_Source\PSoC5/timer.c ****     /* Generate a software capture by reading the counter register */
ARM GAS  C:\Users\karunmj\AppData\Local\Temp\ccq2h7KA.s 			page 11


 304:.\Generated_Source\PSoC5/timer.c ****     (void)timer_COUNTER_LSB;
 264              		.loc 1 304 0
 265 0004 46F20453 		movw	r3, #:lower16:1073767684
 266 0008 C4F20003 		movt	r3, #:upper16:1073767684
 267 000c 1B68     		ldr	r3, [r3, #0]
 305:.\Generated_Source\PSoC5/timer.c ****     /* Capture Data is now in the FIFO */
 306:.\Generated_Source\PSoC5/timer.c **** }
 268              		.loc 1 306 0
 269 000e BD46     		mov	sp, r7
 270 0010 80BC     		pop	{r7}
 271 0012 7047     		bx	lr
 272              		.cfi_endproc
 273              	.LFE5:
 274              		.size	timer_SoftwareCapture, .-timer_SoftwareCapture
 275              		.section	.text.timer_ReadStatusRegister,"ax",%progbits
 276              		.align	2
 277              		.global	timer_ReadStatusRegister
 278              		.thumb
 279              		.thumb_func
 280              		.type	timer_ReadStatusRegister, %function
 281              	timer_ReadStatusRegister:
 282              	.LFB6:
 307:.\Generated_Source\PSoC5/timer.c **** 
 308:.\Generated_Source\PSoC5/timer.c **** 
 309:.\Generated_Source\PSoC5/timer.c **** /*******************************************************************************
 310:.\Generated_Source\PSoC5/timer.c **** * Function Name: timer_ReadStatusRegister
 311:.\Generated_Source\PSoC5/timer.c **** ********************************************************************************
 312:.\Generated_Source\PSoC5/timer.c **** *
 313:.\Generated_Source\PSoC5/timer.c **** * Summary:
 314:.\Generated_Source\PSoC5/timer.c **** *  Reads the status register and returns it's state. This function should use
 315:.\Generated_Source\PSoC5/timer.c **** *  defined types for the bit-field information as the bits in this register may
 316:.\Generated_Source\PSoC5/timer.c **** *  be permuteable.
 317:.\Generated_Source\PSoC5/timer.c **** *
 318:.\Generated_Source\PSoC5/timer.c **** * Parameters:
 319:.\Generated_Source\PSoC5/timer.c **** *  void
 320:.\Generated_Source\PSoC5/timer.c **** *
 321:.\Generated_Source\PSoC5/timer.c **** * Return:
 322:.\Generated_Source\PSoC5/timer.c **** *  The contents of the status register
 323:.\Generated_Source\PSoC5/timer.c **** *
 324:.\Generated_Source\PSoC5/timer.c **** * Side Effects:
 325:.\Generated_Source\PSoC5/timer.c **** *  Status register bits may be clear on read.
 326:.\Generated_Source\PSoC5/timer.c **** *
 327:.\Generated_Source\PSoC5/timer.c **** *******************************************************************************/
 328:.\Generated_Source\PSoC5/timer.c **** uint8   timer_ReadStatusRegister(void) 
 329:.\Generated_Source\PSoC5/timer.c **** {
 283              		.loc 1 329 0
 284              		.cfi_startproc
 285              		@ args = 0, pretend = 0, frame = 0
 286              		@ frame_needed = 1, uses_anonymous_args = 0
 287              		@ link register save eliminated.
 288 0000 80B4     		push	{r7}
 289              	.LCFI14:
 290              		.cfi_def_cfa_offset 4
 291 0002 00AF     		add	r7, sp, #0
 292              		.cfi_offset 7, -4
 293              	.LCFI15:
 294              		.cfi_def_cfa_register 7
ARM GAS  C:\Users\karunmj\AppData\Local\Temp\ccq2h7KA.s 			page 12


 330:.\Generated_Source\PSoC5/timer.c ****     return (timer_STATUS);
 295              		.loc 1 330 0
 296 0004 46F26453 		movw	r3, #:lower16:1073767780
 297 0008 C4F20003 		movt	r3, #:upper16:1073767780
 298 000c 1B78     		ldrb	r3, [r3, #0]
 299 000e DBB2     		uxtb	r3, r3
 331:.\Generated_Source\PSoC5/timer.c **** }
 300              		.loc 1 331 0
 301 0010 1846     		mov	r0, r3
 302 0012 BD46     		mov	sp, r7
 303 0014 80BC     		pop	{r7}
 304 0016 7047     		bx	lr
 305              		.cfi_endproc
 306              	.LFE6:
 307              		.size	timer_ReadStatusRegister, .-timer_ReadStatusRegister
 308              		.section	.text.timer_ReadControlRegister,"ax",%progbits
 309              		.align	2
 310              		.global	timer_ReadControlRegister
 311              		.thumb
 312              		.thumb_func
 313              		.type	timer_ReadControlRegister, %function
 314              	timer_ReadControlRegister:
 315              	.LFB7:
 332:.\Generated_Source\PSoC5/timer.c **** 
 333:.\Generated_Source\PSoC5/timer.c **** 
 334:.\Generated_Source\PSoC5/timer.c **** #if (!timer_ControlRegRemoved) /* Remove API if control register is removed */
 335:.\Generated_Source\PSoC5/timer.c **** 
 336:.\Generated_Source\PSoC5/timer.c **** 
 337:.\Generated_Source\PSoC5/timer.c **** /*******************************************************************************
 338:.\Generated_Source\PSoC5/timer.c **** * Function Name: timer_ReadControlRegister
 339:.\Generated_Source\PSoC5/timer.c **** ********************************************************************************
 340:.\Generated_Source\PSoC5/timer.c **** *
 341:.\Generated_Source\PSoC5/timer.c **** * Summary:
 342:.\Generated_Source\PSoC5/timer.c **** *  Reads the control register and returns it's value.
 343:.\Generated_Source\PSoC5/timer.c **** *
 344:.\Generated_Source\PSoC5/timer.c **** * Parameters:
 345:.\Generated_Source\PSoC5/timer.c **** *  void
 346:.\Generated_Source\PSoC5/timer.c **** *
 347:.\Generated_Source\PSoC5/timer.c **** * Return:
 348:.\Generated_Source\PSoC5/timer.c **** *  The contents of the control register
 349:.\Generated_Source\PSoC5/timer.c **** *
 350:.\Generated_Source\PSoC5/timer.c **** *******************************************************************************/
 351:.\Generated_Source\PSoC5/timer.c **** uint8 timer_ReadControlRegister(void) 
 352:.\Generated_Source\PSoC5/timer.c **** {
 316              		.loc 1 352 0
 317              		.cfi_startproc
 318              		@ args = 0, pretend = 0, frame = 0
 319              		@ frame_needed = 1, uses_anonymous_args = 0
 320              		@ link register save eliminated.
 321 0000 80B4     		push	{r7}
 322              	.LCFI16:
 323              		.cfi_def_cfa_offset 4
 324 0002 00AF     		add	r7, sp, #0
 325              		.cfi_offset 7, -4
 326              	.LCFI17:
 327              		.cfi_def_cfa_register 7
 353:.\Generated_Source\PSoC5/timer.c ****     return ((uint8)timer_CONTROL);
ARM GAS  C:\Users\karunmj\AppData\Local\Temp\ccq2h7KA.s 			page 13


 328              		.loc 1 353 0
 329 0004 46F27453 		movw	r3, #:lower16:1073767796
 330 0008 C4F20003 		movt	r3, #:upper16:1073767796
 331 000c 1B78     		ldrb	r3, [r3, #0]
 332 000e DBB2     		uxtb	r3, r3
 354:.\Generated_Source\PSoC5/timer.c **** }
 333              		.loc 1 354 0
 334 0010 1846     		mov	r0, r3
 335 0012 BD46     		mov	sp, r7
 336 0014 80BC     		pop	{r7}
 337 0016 7047     		bx	lr
 338              		.cfi_endproc
 339              	.LFE7:
 340              		.size	timer_ReadControlRegister, .-timer_ReadControlRegister
 341              		.section	.text.timer_WriteControlRegister,"ax",%progbits
 342              		.align	2
 343              		.global	timer_WriteControlRegister
 344              		.thumb
 345              		.thumb_func
 346              		.type	timer_WriteControlRegister, %function
 347              	timer_WriteControlRegister:
 348              	.LFB8:
 355:.\Generated_Source\PSoC5/timer.c **** 
 356:.\Generated_Source\PSoC5/timer.c **** 
 357:.\Generated_Source\PSoC5/timer.c **** /*******************************************************************************
 358:.\Generated_Source\PSoC5/timer.c **** * Function Name: timer_WriteControlRegister
 359:.\Generated_Source\PSoC5/timer.c **** ********************************************************************************
 360:.\Generated_Source\PSoC5/timer.c **** *
 361:.\Generated_Source\PSoC5/timer.c **** * Summary:
 362:.\Generated_Source\PSoC5/timer.c **** *  Sets the bit-field of the control register.
 363:.\Generated_Source\PSoC5/timer.c **** *
 364:.\Generated_Source\PSoC5/timer.c **** * Parameters:
 365:.\Generated_Source\PSoC5/timer.c **** *  control: The contents of the control register
 366:.\Generated_Source\PSoC5/timer.c **** *
 367:.\Generated_Source\PSoC5/timer.c **** * Return:
 368:.\Generated_Source\PSoC5/timer.c **** *
 369:.\Generated_Source\PSoC5/timer.c **** *******************************************************************************/
 370:.\Generated_Source\PSoC5/timer.c **** void timer_WriteControlRegister(uint8 control) 
 371:.\Generated_Source\PSoC5/timer.c **** {
 349              		.loc 1 371 0
 350              		.cfi_startproc
 351              		@ args = 0, pretend = 0, frame = 8
 352              		@ frame_needed = 1, uses_anonymous_args = 0
 353              		@ link register save eliminated.
 354 0000 80B4     		push	{r7}
 355              	.LCFI18:
 356              		.cfi_def_cfa_offset 4
 357 0002 83B0     		sub	sp, sp, #12
 358              	.LCFI19:
 359              		.cfi_def_cfa_offset 16
 360 0004 00AF     		add	r7, sp, #0
 361              		.cfi_offset 7, -4
 362              	.LCFI20:
 363              		.cfi_def_cfa_register 7
 364 0006 0346     		mov	r3, r0
 365 0008 FB71     		strb	r3, [r7, #7]
 372:.\Generated_Source\PSoC5/timer.c ****     timer_CONTROL = control;
ARM GAS  C:\Users\karunmj\AppData\Local\Temp\ccq2h7KA.s 			page 14


 366              		.loc 1 372 0
 367 000a 46F27453 		movw	r3, #:lower16:1073767796
 368 000e C4F20003 		movt	r3, #:upper16:1073767796
 369 0012 FA79     		ldrb	r2, [r7, #7]
 370 0014 1A70     		strb	r2, [r3, #0]
 373:.\Generated_Source\PSoC5/timer.c **** }
 371              		.loc 1 373 0
 372 0016 07F10C07 		add	r7, r7, #12
 373 001a BD46     		mov	sp, r7
 374 001c 80BC     		pop	{r7}
 375 001e 7047     		bx	lr
 376              		.cfi_endproc
 377              	.LFE8:
 378              		.size	timer_WriteControlRegister, .-timer_WriteControlRegister
 379              		.section	.text.timer_ReadPeriod,"ax",%progbits
 380              		.align	2
 381              		.global	timer_ReadPeriod
 382              		.thumb
 383              		.thumb_func
 384              		.type	timer_ReadPeriod, %function
 385              	timer_ReadPeriod:
 386              	.LFB9:
 374:.\Generated_Source\PSoC5/timer.c **** #endif /* Remove API if control register is removed */
 375:.\Generated_Source\PSoC5/timer.c **** 
 376:.\Generated_Source\PSoC5/timer.c **** 
 377:.\Generated_Source\PSoC5/timer.c **** /*******************************************************************************
 378:.\Generated_Source\PSoC5/timer.c **** * Function Name: timer_ReadPeriod
 379:.\Generated_Source\PSoC5/timer.c **** ********************************************************************************
 380:.\Generated_Source\PSoC5/timer.c **** *
 381:.\Generated_Source\PSoC5/timer.c **** * Summary:
 382:.\Generated_Source\PSoC5/timer.c **** *  This function returns the current value of the Period.
 383:.\Generated_Source\PSoC5/timer.c **** *
 384:.\Generated_Source\PSoC5/timer.c **** * Parameters:
 385:.\Generated_Source\PSoC5/timer.c **** *  void
 386:.\Generated_Source\PSoC5/timer.c **** *
 387:.\Generated_Source\PSoC5/timer.c **** * Return:
 388:.\Generated_Source\PSoC5/timer.c **** *  The present value of the counter.
 389:.\Generated_Source\PSoC5/timer.c **** *
 390:.\Generated_Source\PSoC5/timer.c **** *******************************************************************************/
 391:.\Generated_Source\PSoC5/timer.c **** uint32 timer_ReadPeriod(void) 
 392:.\Generated_Source\PSoC5/timer.c **** {
 387              		.loc 1 392 0
 388              		.cfi_startproc
 389              		@ args = 0, pretend = 0, frame = 0
 390              		@ frame_needed = 1, uses_anonymous_args = 0
 391              		@ link register save eliminated.
 392 0000 80B4     		push	{r7}
 393              	.LCFI21:
 394              		.cfi_def_cfa_offset 4
 395 0002 00AF     		add	r7, sp, #0
 396              		.cfi_offset 7, -4
 397              	.LCFI22:
 398              		.cfi_def_cfa_register 7
 393:.\Generated_Source\PSoC5/timer.c ****    #if(timer_UsingFixedFunction)
 394:.\Generated_Source\PSoC5/timer.c ****        return ((uint32)CY_GET_REG16(timer_PERIOD_LSB_PTR));
 395:.\Generated_Source\PSoC5/timer.c ****    #else
 396:.\Generated_Source\PSoC5/timer.c ****        return (CY_GET_REG32(timer_PERIOD_LSB_PTR));
ARM GAS  C:\Users\karunmj\AppData\Local\Temp\ccq2h7KA.s 			page 15


 399              		.loc 1 396 0
 400 0004 46F22453 		movw	r3, #:lower16:1073767716
 401 0008 C4F20003 		movt	r3, #:upper16:1073767716
 402 000c 1B68     		ldr	r3, [r3, #0]
 397:.\Generated_Source\PSoC5/timer.c ****    #endif /* (timer_UsingFixedFunction) */
 398:.\Generated_Source\PSoC5/timer.c **** }
 403              		.loc 1 398 0
 404 000e 1846     		mov	r0, r3
 405 0010 BD46     		mov	sp, r7
 406 0012 80BC     		pop	{r7}
 407 0014 7047     		bx	lr
 408              		.cfi_endproc
 409              	.LFE9:
 410              		.size	timer_ReadPeriod, .-timer_ReadPeriod
 411 0016 00BF     		.section	.text.timer_WritePeriod,"ax",%progbits
 412              		.align	2
 413              		.global	timer_WritePeriod
 414              		.thumb
 415              		.thumb_func
 416              		.type	timer_WritePeriod, %function
 417              	timer_WritePeriod:
 418              	.LFB10:
 399:.\Generated_Source\PSoC5/timer.c **** 
 400:.\Generated_Source\PSoC5/timer.c **** 
 401:.\Generated_Source\PSoC5/timer.c **** /*******************************************************************************
 402:.\Generated_Source\PSoC5/timer.c **** * Function Name: timer_WritePeriod
 403:.\Generated_Source\PSoC5/timer.c **** ********************************************************************************
 404:.\Generated_Source\PSoC5/timer.c **** *
 405:.\Generated_Source\PSoC5/timer.c **** * Summary:
 406:.\Generated_Source\PSoC5/timer.c **** *  This function is used to change the period of the counter.  The new period
 407:.\Generated_Source\PSoC5/timer.c **** *  will be loaded the next time terminal count is detected.
 408:.\Generated_Source\PSoC5/timer.c **** *
 409:.\Generated_Source\PSoC5/timer.c **** * Parameters:
 410:.\Generated_Source\PSoC5/timer.c **** *  period: This value may be between 1 and (2^Resolution)-1.  A value of 0 will
 411:.\Generated_Source\PSoC5/timer.c **** *          result in the counter remaining at zero.
 412:.\Generated_Source\PSoC5/timer.c **** *
 413:.\Generated_Source\PSoC5/timer.c **** * Return:
 414:.\Generated_Source\PSoC5/timer.c **** *  void
 415:.\Generated_Source\PSoC5/timer.c **** *
 416:.\Generated_Source\PSoC5/timer.c **** *******************************************************************************/
 417:.\Generated_Source\PSoC5/timer.c **** void timer_WritePeriod(uint32 period) 
 418:.\Generated_Source\PSoC5/timer.c **** {
 419              		.loc 1 418 0
 420              		.cfi_startproc
 421              		@ args = 0, pretend = 0, frame = 8
 422              		@ frame_needed = 1, uses_anonymous_args = 0
 423              		@ link register save eliminated.
 424 0000 80B4     		push	{r7}
 425              	.LCFI23:
 426              		.cfi_def_cfa_offset 4
 427 0002 83B0     		sub	sp, sp, #12
 428              	.LCFI24:
 429              		.cfi_def_cfa_offset 16
 430 0004 00AF     		add	r7, sp, #0
 431              		.cfi_offset 7, -4
 432              	.LCFI25:
 433              		.cfi_def_cfa_register 7
ARM GAS  C:\Users\karunmj\AppData\Local\Temp\ccq2h7KA.s 			page 16


 434 0006 7860     		str	r0, [r7, #4]
 419:.\Generated_Source\PSoC5/timer.c ****     #if(timer_UsingFixedFunction)
 420:.\Generated_Source\PSoC5/timer.c ****         uint16 period_temp = (uint16)period;
 421:.\Generated_Source\PSoC5/timer.c ****         CY_SET_REG16(timer_PERIOD_LSB_PTR, period_temp);
 422:.\Generated_Source\PSoC5/timer.c ****     #else
 423:.\Generated_Source\PSoC5/timer.c ****         CY_SET_REG32(timer_PERIOD_LSB_PTR, period);
 435              		.loc 1 423 0
 436 0008 46F22453 		movw	r3, #:lower16:1073767716
 437 000c C4F20003 		movt	r3, #:upper16:1073767716
 438 0010 7A68     		ldr	r2, [r7, #4]
 439 0012 1A60     		str	r2, [r3, #0]
 424:.\Generated_Source\PSoC5/timer.c ****     #endif /*Write Period value with appropriate resolution suffix depending on UDB or fixed functi
 425:.\Generated_Source\PSoC5/timer.c **** }
 440              		.loc 1 425 0
 441 0014 07F10C07 		add	r7, r7, #12
 442 0018 BD46     		mov	sp, r7
 443 001a 80BC     		pop	{r7}
 444 001c 7047     		bx	lr
 445              		.cfi_endproc
 446              	.LFE10:
 447              		.size	timer_WritePeriod, .-timer_WritePeriod
 448 001e 00BF     		.section	.text.timer_ReadCapture,"ax",%progbits
 449              		.align	2
 450              		.global	timer_ReadCapture
 451              		.thumb
 452              		.thumb_func
 453              		.type	timer_ReadCapture, %function
 454              	timer_ReadCapture:
 455              	.LFB11:
 426:.\Generated_Source\PSoC5/timer.c **** 
 427:.\Generated_Source\PSoC5/timer.c **** 
 428:.\Generated_Source\PSoC5/timer.c **** /*******************************************************************************
 429:.\Generated_Source\PSoC5/timer.c **** * Function Name: timer_ReadCapture
 430:.\Generated_Source\PSoC5/timer.c **** ********************************************************************************
 431:.\Generated_Source\PSoC5/timer.c **** *
 432:.\Generated_Source\PSoC5/timer.c **** * Summary:
 433:.\Generated_Source\PSoC5/timer.c **** *  This function returns the last value captured.
 434:.\Generated_Source\PSoC5/timer.c **** *
 435:.\Generated_Source\PSoC5/timer.c **** * Parameters:
 436:.\Generated_Source\PSoC5/timer.c **** *  void
 437:.\Generated_Source\PSoC5/timer.c **** *
 438:.\Generated_Source\PSoC5/timer.c **** * Return:
 439:.\Generated_Source\PSoC5/timer.c **** *  Present Capture value.
 440:.\Generated_Source\PSoC5/timer.c **** *
 441:.\Generated_Source\PSoC5/timer.c **** *******************************************************************************/
 442:.\Generated_Source\PSoC5/timer.c **** uint32 timer_ReadCapture(void) 
 443:.\Generated_Source\PSoC5/timer.c **** {
 456              		.loc 1 443 0
 457              		.cfi_startproc
 458              		@ args = 0, pretend = 0, frame = 0
 459              		@ frame_needed = 1, uses_anonymous_args = 0
 460              		@ link register save eliminated.
 461 0000 80B4     		push	{r7}
 462              	.LCFI26:
 463              		.cfi_def_cfa_offset 4
 464 0002 00AF     		add	r7, sp, #0
 465              		.cfi_offset 7, -4
ARM GAS  C:\Users\karunmj\AppData\Local\Temp\ccq2h7KA.s 			page 17


 466              	.LCFI27:
 467              		.cfi_def_cfa_register 7
 444:.\Generated_Source\PSoC5/timer.c ****    #if(timer_UsingFixedFunction)
 445:.\Generated_Source\PSoC5/timer.c ****        return ((uint32)CY_GET_REG16(timer_CAPTURE_LSB_PTR));
 446:.\Generated_Source\PSoC5/timer.c ****    #else
 447:.\Generated_Source\PSoC5/timer.c ****        return (CY_GET_REG32(timer_CAPTURE_LSB_PTR));
 468              		.loc 1 447 0
 469 0004 46F24453 		movw	r3, #:lower16:1073767748
 470 0008 C4F20003 		movt	r3, #:upper16:1073767748
 471 000c 1B68     		ldr	r3, [r3, #0]
 448:.\Generated_Source\PSoC5/timer.c ****    #endif /* (timer_UsingFixedFunction) */
 449:.\Generated_Source\PSoC5/timer.c **** }
 472              		.loc 1 449 0
 473 000e 1846     		mov	r0, r3
 474 0010 BD46     		mov	sp, r7
 475 0012 80BC     		pop	{r7}
 476 0014 7047     		bx	lr
 477              		.cfi_endproc
 478              	.LFE11:
 479              		.size	timer_ReadCapture, .-timer_ReadCapture
 480 0016 00BF     		.section	.text.timer_WriteCounter,"ax",%progbits
 481              		.align	2
 482              		.global	timer_WriteCounter
 483              		.thumb
 484              		.thumb_func
 485              		.type	timer_WriteCounter, %function
 486              	timer_WriteCounter:
 487              	.LFB12:
 450:.\Generated_Source\PSoC5/timer.c **** 
 451:.\Generated_Source\PSoC5/timer.c **** 
 452:.\Generated_Source\PSoC5/timer.c **** /*******************************************************************************
 453:.\Generated_Source\PSoC5/timer.c **** * Function Name: timer_WriteCounter
 454:.\Generated_Source\PSoC5/timer.c **** ********************************************************************************
 455:.\Generated_Source\PSoC5/timer.c **** *
 456:.\Generated_Source\PSoC5/timer.c **** * Summary:
 457:.\Generated_Source\PSoC5/timer.c **** *  This funtion is used to set the counter to a specific value
 458:.\Generated_Source\PSoC5/timer.c **** *
 459:.\Generated_Source\PSoC5/timer.c **** * Parameters:
 460:.\Generated_Source\PSoC5/timer.c **** *  counter:  New counter value.
 461:.\Generated_Source\PSoC5/timer.c **** *
 462:.\Generated_Source\PSoC5/timer.c **** * Return:
 463:.\Generated_Source\PSoC5/timer.c **** *  void
 464:.\Generated_Source\PSoC5/timer.c **** *
 465:.\Generated_Source\PSoC5/timer.c **** *******************************************************************************/
 466:.\Generated_Source\PSoC5/timer.c **** void timer_WriteCounter(uint32 counter) \
 467:.\Generated_Source\PSoC5/timer.c ****                                    
 468:.\Generated_Source\PSoC5/timer.c **** {
 488              		.loc 1 468 0
 489              		.cfi_startproc
 490              		@ args = 0, pretend = 0, frame = 8
 491              		@ frame_needed = 1, uses_anonymous_args = 0
 492              		@ link register save eliminated.
 493 0000 80B4     		push	{r7}
 494              	.LCFI28:
 495              		.cfi_def_cfa_offset 4
 496 0002 83B0     		sub	sp, sp, #12
 497              	.LCFI29:
ARM GAS  C:\Users\karunmj\AppData\Local\Temp\ccq2h7KA.s 			page 18


 498              		.cfi_def_cfa_offset 16
 499 0004 00AF     		add	r7, sp, #0
 500              		.cfi_offset 7, -4
 501              	.LCFI30:
 502              		.cfi_def_cfa_register 7
 503 0006 7860     		str	r0, [r7, #4]
 469:.\Generated_Source\PSoC5/timer.c ****    #if(timer_UsingFixedFunction)
 470:.\Generated_Source\PSoC5/timer.c ****         /* This functionality is removed until a FixedFunction HW update to
 471:.\Generated_Source\PSoC5/timer.c ****          * allow this register to be written
 472:.\Generated_Source\PSoC5/timer.c ****          */
 473:.\Generated_Source\PSoC5/timer.c ****         CY_SET_REG16(timer_COUNTER_LSB_PTR, (uint16)counter);
 474:.\Generated_Source\PSoC5/timer.c ****         
 475:.\Generated_Source\PSoC5/timer.c ****     #else
 476:.\Generated_Source\PSoC5/timer.c ****         CY_SET_REG32(timer_COUNTER_LSB_PTR, counter);
 504              		.loc 1 476 0
 505 0008 46F20453 		movw	r3, #:lower16:1073767684
 506 000c C4F20003 		movt	r3, #:upper16:1073767684
 507 0010 7A68     		ldr	r2, [r7, #4]
 508 0012 1A60     		str	r2, [r3, #0]
 477:.\Generated_Source\PSoC5/timer.c ****     #endif /* Set Write Counter only for the UDB implementation (Write Counter not available in fix
 478:.\Generated_Source\PSoC5/timer.c **** }
 509              		.loc 1 478 0
 510 0014 07F10C07 		add	r7, r7, #12
 511 0018 BD46     		mov	sp, r7
 512 001a 80BC     		pop	{r7}
 513 001c 7047     		bx	lr
 514              		.cfi_endproc
 515              	.LFE12:
 516              		.size	timer_WriteCounter, .-timer_WriteCounter
 517 001e 00BF     		.section	.text.timer_ReadCounter,"ax",%progbits
 518              		.align	2
 519              		.global	timer_ReadCounter
 520              		.thumb
 521              		.thumb_func
 522              		.type	timer_ReadCounter, %function
 523              	timer_ReadCounter:
 524              	.LFB13:
 479:.\Generated_Source\PSoC5/timer.c **** 
 480:.\Generated_Source\PSoC5/timer.c **** 
 481:.\Generated_Source\PSoC5/timer.c **** /*******************************************************************************
 482:.\Generated_Source\PSoC5/timer.c **** * Function Name: timer_ReadCounter
 483:.\Generated_Source\PSoC5/timer.c **** ********************************************************************************
 484:.\Generated_Source\PSoC5/timer.c **** *
 485:.\Generated_Source\PSoC5/timer.c **** * Summary:
 486:.\Generated_Source\PSoC5/timer.c **** *  This function returns the current counter value.
 487:.\Generated_Source\PSoC5/timer.c **** *
 488:.\Generated_Source\PSoC5/timer.c **** * Parameters:
 489:.\Generated_Source\PSoC5/timer.c **** *  void
 490:.\Generated_Source\PSoC5/timer.c **** *
 491:.\Generated_Source\PSoC5/timer.c **** * Return:
 492:.\Generated_Source\PSoC5/timer.c **** *  Present compare value.
 493:.\Generated_Source\PSoC5/timer.c **** *
 494:.\Generated_Source\PSoC5/timer.c **** *******************************************************************************/
 495:.\Generated_Source\PSoC5/timer.c **** uint32 timer_ReadCounter(void) 
 496:.\Generated_Source\PSoC5/timer.c **** {
 525              		.loc 1 496 0
 526              		.cfi_startproc
ARM GAS  C:\Users\karunmj\AppData\Local\Temp\ccq2h7KA.s 			page 19


 527              		@ args = 0, pretend = 0, frame = 0
 528              		@ frame_needed = 1, uses_anonymous_args = 0
 529              		@ link register save eliminated.
 530 0000 80B4     		push	{r7}
 531              	.LCFI31:
 532              		.cfi_def_cfa_offset 4
 533 0002 00AF     		add	r7, sp, #0
 534              		.cfi_offset 7, -4
 535              	.LCFI32:
 536              		.cfi_def_cfa_register 7
 497:.\Generated_Source\PSoC5/timer.c **** 
 498:.\Generated_Source\PSoC5/timer.c ****     /* Force capture by reading Accumulator */
 499:.\Generated_Source\PSoC5/timer.c ****     /* Must first do a software capture to be able to read the counter */
 500:.\Generated_Source\PSoC5/timer.c ****     /* It is up to the user code to make sure there isn't already captured data in the FIFO */
 501:.\Generated_Source\PSoC5/timer.c ****     (void)timer_COUNTER_LSB;
 537              		.loc 1 501 0
 538 0004 46F20453 		movw	r3, #:lower16:1073767684
 539 0008 C4F20003 		movt	r3, #:upper16:1073767684
 540 000c 1B68     		ldr	r3, [r3, #0]
 502:.\Generated_Source\PSoC5/timer.c **** 
 503:.\Generated_Source\PSoC5/timer.c ****     /* Read the data from the FIFO (or capture register for Fixed Function)*/
 504:.\Generated_Source\PSoC5/timer.c ****     #if(timer_UsingFixedFunction)
 505:.\Generated_Source\PSoC5/timer.c ****         return ((uint32)CY_GET_REG16(timer_CAPTURE_LSB_PTR));
 506:.\Generated_Source\PSoC5/timer.c ****     #else
 507:.\Generated_Source\PSoC5/timer.c ****         return (CY_GET_REG32(timer_CAPTURE_LSB_PTR));
 541              		.loc 1 507 0
 542 000e 46F24453 		movw	r3, #:lower16:1073767748
 543 0012 C4F20003 		movt	r3, #:upper16:1073767748
 544 0016 1B68     		ldr	r3, [r3, #0]
 508:.\Generated_Source\PSoC5/timer.c ****     #endif /* (timer_UsingFixedFunction) */
 509:.\Generated_Source\PSoC5/timer.c **** }
 545              		.loc 1 509 0
 546 0018 1846     		mov	r0, r3
 547 001a BD46     		mov	sp, r7
 548 001c 80BC     		pop	{r7}
 549 001e 7047     		bx	lr
 550              		.cfi_endproc
 551              	.LFE13:
 552              		.size	timer_ReadCounter, .-timer_ReadCounter
 553              		.section	.text.timer_ClearFIFO,"ax",%progbits
 554              		.align	2
 555              		.global	timer_ClearFIFO
 556              		.thumb
 557              		.thumb_func
 558              		.type	timer_ClearFIFO, %function
 559              	timer_ClearFIFO:
 560              	.LFB14:
 510:.\Generated_Source\PSoC5/timer.c **** 
 511:.\Generated_Source\PSoC5/timer.c **** 
 512:.\Generated_Source\PSoC5/timer.c **** #if(!timer_UsingFixedFunction) /* UDB Specific Functions */
 513:.\Generated_Source\PSoC5/timer.c **** 
 514:.\Generated_Source\PSoC5/timer.c **** /*******************************************************************************
 515:.\Generated_Source\PSoC5/timer.c ****  * The functions below this point are only available using the UDB
 516:.\Generated_Source\PSoC5/timer.c ****  * implementation.  If a feature is selected, then the API is enabled.
 517:.\Generated_Source\PSoC5/timer.c ****  ******************************************************************************/
 518:.\Generated_Source\PSoC5/timer.c **** 
 519:.\Generated_Source\PSoC5/timer.c **** 
ARM GAS  C:\Users\karunmj\AppData\Local\Temp\ccq2h7KA.s 			page 20


 520:.\Generated_Source\PSoC5/timer.c **** #if (timer_SoftwareCaptureMode)
 521:.\Generated_Source\PSoC5/timer.c **** 
 522:.\Generated_Source\PSoC5/timer.c **** 
 523:.\Generated_Source\PSoC5/timer.c **** /*******************************************************************************
 524:.\Generated_Source\PSoC5/timer.c **** * Function Name: timer_SetCaptureMode
 525:.\Generated_Source\PSoC5/timer.c **** ********************************************************************************
 526:.\Generated_Source\PSoC5/timer.c **** *
 527:.\Generated_Source\PSoC5/timer.c **** * Summary:
 528:.\Generated_Source\PSoC5/timer.c **** *  This function sets the capture mode to either rising or falling edge.
 529:.\Generated_Source\PSoC5/timer.c **** *
 530:.\Generated_Source\PSoC5/timer.c **** * Parameters:
 531:.\Generated_Source\PSoC5/timer.c **** *  captureMode: This parameter sets the capture mode of the UDB capture feature
 532:.\Generated_Source\PSoC5/timer.c **** *  The parameter values are defined using the
 533:.\Generated_Source\PSoC5/timer.c **** *  #define timer__B_TIMER__CM_NONE 0
 534:.\Generated_Source\PSoC5/timer.c **** #define timer__B_TIMER__CM_RISINGEDGE 1
 535:.\Generated_Source\PSoC5/timer.c **** #define timer__B_TIMER__CM_FALLINGEDGE 2
 536:.\Generated_Source\PSoC5/timer.c **** #define timer__B_TIMER__CM_EITHEREDGE 3
 537:.\Generated_Source\PSoC5/timer.c **** #define timer__B_TIMER__CM_SOFTWARE 4
 538:.\Generated_Source\PSoC5/timer.c ****  identifiers
 539:.\Generated_Source\PSoC5/timer.c **** *  The following are the possible values of the parameter
 540:.\Generated_Source\PSoC5/timer.c **** *  timer__B_TIMER__CM_NONE        - Set Capture mode to None
 541:.\Generated_Source\PSoC5/timer.c **** *  timer__B_TIMER__CM_RISINGEDGE  - Rising edge of Capture input
 542:.\Generated_Source\PSoC5/timer.c **** *  timer__B_TIMER__CM_FALLINGEDGE - Falling edge of Capture input
 543:.\Generated_Source\PSoC5/timer.c **** *  timer__B_TIMER__CM_EITHEREDGE  - Either edge of Capture input
 544:.\Generated_Source\PSoC5/timer.c **** *
 545:.\Generated_Source\PSoC5/timer.c **** * Return:
 546:.\Generated_Source\PSoC5/timer.c **** *  void
 547:.\Generated_Source\PSoC5/timer.c **** *
 548:.\Generated_Source\PSoC5/timer.c **** *******************************************************************************/
 549:.\Generated_Source\PSoC5/timer.c **** void timer_SetCaptureMode(uint8 captureMode) 
 550:.\Generated_Source\PSoC5/timer.c **** {
 551:.\Generated_Source\PSoC5/timer.c ****     /* This must only set to two bits of the control register associated */
 552:.\Generated_Source\PSoC5/timer.c ****     captureMode = ((uint8)((uint8)captureMode << timer_CTRL_CAP_MODE_SHIFT));
 553:.\Generated_Source\PSoC5/timer.c ****     captureMode &= (timer_CTRL_CAP_MODE_MASK);
 554:.\Generated_Source\PSoC5/timer.c **** 
 555:.\Generated_Source\PSoC5/timer.c ****     /* Clear the Current Setting */
 556:.\Generated_Source\PSoC5/timer.c ****     timer_CONTROL &= ((uint8)(~timer_CTRL_CAP_MODE_MASK));
 557:.\Generated_Source\PSoC5/timer.c **** 
 558:.\Generated_Source\PSoC5/timer.c ****     /* Write The New Setting */
 559:.\Generated_Source\PSoC5/timer.c ****     timer_CONTROL |= captureMode;
 560:.\Generated_Source\PSoC5/timer.c **** }
 561:.\Generated_Source\PSoC5/timer.c **** #endif /* Remove API if Capture Mode is not Software Controlled */
 562:.\Generated_Source\PSoC5/timer.c **** 
 563:.\Generated_Source\PSoC5/timer.c **** 
 564:.\Generated_Source\PSoC5/timer.c **** #if (timer_SoftwareTriggerMode)
 565:.\Generated_Source\PSoC5/timer.c **** 
 566:.\Generated_Source\PSoC5/timer.c **** 
 567:.\Generated_Source\PSoC5/timer.c **** /*******************************************************************************
 568:.\Generated_Source\PSoC5/timer.c **** * Function Name: timer_SetTriggerMode
 569:.\Generated_Source\PSoC5/timer.c **** ********************************************************************************
 570:.\Generated_Source\PSoC5/timer.c **** *
 571:.\Generated_Source\PSoC5/timer.c **** * Summary:
 572:.\Generated_Source\PSoC5/timer.c **** *  This function sets the trigger input mode
 573:.\Generated_Source\PSoC5/timer.c **** *
 574:.\Generated_Source\PSoC5/timer.c **** * Parameters:
 575:.\Generated_Source\PSoC5/timer.c **** *  triggerMode: Pass one of the pre-defined Trigger Modes (except Software)
 576:.\Generated_Source\PSoC5/timer.c ****     #define timer__B_TIMER__TM_NONE 0x00u
ARM GAS  C:\Users\karunmj\AppData\Local\Temp\ccq2h7KA.s 			page 21


 577:.\Generated_Source\PSoC5/timer.c ****     #define timer__B_TIMER__TM_RISINGEDGE 0x04u
 578:.\Generated_Source\PSoC5/timer.c ****     #define timer__B_TIMER__TM_FALLINGEDGE 0x08u
 579:.\Generated_Source\PSoC5/timer.c ****     #define timer__B_TIMER__TM_EITHEREDGE 0x0Cu
 580:.\Generated_Source\PSoC5/timer.c ****     #define timer__B_TIMER__TM_SOFTWARE 0x10u
 581:.\Generated_Source\PSoC5/timer.c **** *
 582:.\Generated_Source\PSoC5/timer.c **** * Return:
 583:.\Generated_Source\PSoC5/timer.c **** *  void
 584:.\Generated_Source\PSoC5/timer.c **** *
 585:.\Generated_Source\PSoC5/timer.c **** *******************************************************************************/
 586:.\Generated_Source\PSoC5/timer.c **** void timer_SetTriggerMode(uint8 triggerMode) 
 587:.\Generated_Source\PSoC5/timer.c **** {
 588:.\Generated_Source\PSoC5/timer.c ****     /* This must only set to two bits of the control register associated */
 589:.\Generated_Source\PSoC5/timer.c ****     triggerMode &= timer_CTRL_TRIG_MODE_MASK;
 590:.\Generated_Source\PSoC5/timer.c **** 
 591:.\Generated_Source\PSoC5/timer.c ****     /* Clear the Current Setting */
 592:.\Generated_Source\PSoC5/timer.c ****     timer_CONTROL &= ((uint8)(~timer_CTRL_TRIG_MODE_MASK));
 593:.\Generated_Source\PSoC5/timer.c **** 
 594:.\Generated_Source\PSoC5/timer.c ****     /* Write The New Setting */
 595:.\Generated_Source\PSoC5/timer.c ****     timer_CONTROL |= (triggerMode | timer__B_TIMER__TM_SOFTWARE);
 596:.\Generated_Source\PSoC5/timer.c **** 
 597:.\Generated_Source\PSoC5/timer.c **** }
 598:.\Generated_Source\PSoC5/timer.c **** #endif /* Remove API if Trigger Mode is not Software Controlled */
 599:.\Generated_Source\PSoC5/timer.c **** 
 600:.\Generated_Source\PSoC5/timer.c **** #if (timer_EnableTriggerMode)
 601:.\Generated_Source\PSoC5/timer.c **** 
 602:.\Generated_Source\PSoC5/timer.c **** 
 603:.\Generated_Source\PSoC5/timer.c **** /*******************************************************************************
 604:.\Generated_Source\PSoC5/timer.c **** * Function Name: timer_EnableTrigger
 605:.\Generated_Source\PSoC5/timer.c **** ********************************************************************************
 606:.\Generated_Source\PSoC5/timer.c **** *
 607:.\Generated_Source\PSoC5/timer.c **** * Summary:
 608:.\Generated_Source\PSoC5/timer.c **** *  Sets the control bit enabling Hardware Trigger mode
 609:.\Generated_Source\PSoC5/timer.c **** *
 610:.\Generated_Source\PSoC5/timer.c **** * Parameters:
 611:.\Generated_Source\PSoC5/timer.c **** *  void
 612:.\Generated_Source\PSoC5/timer.c **** *
 613:.\Generated_Source\PSoC5/timer.c **** * Return:
 614:.\Generated_Source\PSoC5/timer.c **** *  void
 615:.\Generated_Source\PSoC5/timer.c **** *
 616:.\Generated_Source\PSoC5/timer.c **** *******************************************************************************/
 617:.\Generated_Source\PSoC5/timer.c **** void timer_EnableTrigger(void) 
 618:.\Generated_Source\PSoC5/timer.c **** {
 619:.\Generated_Source\PSoC5/timer.c ****     #if (!timer_ControlRegRemoved)   /* Remove assignment if control register is removed */
 620:.\Generated_Source\PSoC5/timer.c ****         timer_CONTROL |= timer_CTRL_TRIG_EN;
 621:.\Generated_Source\PSoC5/timer.c ****     #endif /* Remove code section if control register is not used */
 622:.\Generated_Source\PSoC5/timer.c **** }
 623:.\Generated_Source\PSoC5/timer.c **** 
 624:.\Generated_Source\PSoC5/timer.c **** 
 625:.\Generated_Source\PSoC5/timer.c **** /*******************************************************************************
 626:.\Generated_Source\PSoC5/timer.c **** * Function Name: timer_DisableTrigger
 627:.\Generated_Source\PSoC5/timer.c **** ********************************************************************************
 628:.\Generated_Source\PSoC5/timer.c **** *
 629:.\Generated_Source\PSoC5/timer.c **** * Summary:
 630:.\Generated_Source\PSoC5/timer.c **** *  Clears the control bit enabling Hardware Trigger mode
 631:.\Generated_Source\PSoC5/timer.c **** *
 632:.\Generated_Source\PSoC5/timer.c **** * Parameters:
 633:.\Generated_Source\PSoC5/timer.c **** *  void
ARM GAS  C:\Users\karunmj\AppData\Local\Temp\ccq2h7KA.s 			page 22


 634:.\Generated_Source\PSoC5/timer.c **** *
 635:.\Generated_Source\PSoC5/timer.c **** * Return:
 636:.\Generated_Source\PSoC5/timer.c **** *  void
 637:.\Generated_Source\PSoC5/timer.c **** *
 638:.\Generated_Source\PSoC5/timer.c **** *******************************************************************************/
 639:.\Generated_Source\PSoC5/timer.c **** void timer_DisableTrigger(void) 
 640:.\Generated_Source\PSoC5/timer.c **** {
 641:.\Generated_Source\PSoC5/timer.c ****     #if (!timer_ControlRegRemoved)   /* Remove assignment if control register is removed */
 642:.\Generated_Source\PSoC5/timer.c ****         timer_CONTROL &= ((uint8)(~timer_CTRL_TRIG_EN));
 643:.\Generated_Source\PSoC5/timer.c ****     #endif /* Remove code section if control register is not used */
 644:.\Generated_Source\PSoC5/timer.c **** }
 645:.\Generated_Source\PSoC5/timer.c **** #endif /* Remove API is Trigger Mode is set to None */
 646:.\Generated_Source\PSoC5/timer.c **** 
 647:.\Generated_Source\PSoC5/timer.c **** 
 648:.\Generated_Source\PSoC5/timer.c **** #if(timer_InterruptOnCaptureCount)
 649:.\Generated_Source\PSoC5/timer.c **** #if (!timer_ControlRegRemoved)   /* Remove API if control register is removed */
 650:.\Generated_Source\PSoC5/timer.c **** 
 651:.\Generated_Source\PSoC5/timer.c **** 
 652:.\Generated_Source\PSoC5/timer.c **** /*******************************************************************************
 653:.\Generated_Source\PSoC5/timer.c **** * Function Name: timer_SetInterruptCount
 654:.\Generated_Source\PSoC5/timer.c **** ********************************************************************************
 655:.\Generated_Source\PSoC5/timer.c **** *
 656:.\Generated_Source\PSoC5/timer.c **** * Summary:
 657:.\Generated_Source\PSoC5/timer.c **** *  This function sets the capture count before an interrupt is triggered.
 658:.\Generated_Source\PSoC5/timer.c **** *
 659:.\Generated_Source\PSoC5/timer.c **** * Parameters:
 660:.\Generated_Source\PSoC5/timer.c **** *  interruptCount:  A value between 0 and 3 is valid.  If the value is 0, then
 661:.\Generated_Source\PSoC5/timer.c **** *                   an interrupt will occur each time a capture occurs.
 662:.\Generated_Source\PSoC5/timer.c **** *                   A value of 1 to 3 will cause the interrupt
 663:.\Generated_Source\PSoC5/timer.c **** *                   to delay by the same number of captures.
 664:.\Generated_Source\PSoC5/timer.c **** *
 665:.\Generated_Source\PSoC5/timer.c **** * Return:
 666:.\Generated_Source\PSoC5/timer.c **** *  void
 667:.\Generated_Source\PSoC5/timer.c **** *
 668:.\Generated_Source\PSoC5/timer.c **** *******************************************************************************/
 669:.\Generated_Source\PSoC5/timer.c **** void timer_SetInterruptCount(uint8 interruptCount) 
 670:.\Generated_Source\PSoC5/timer.c **** {
 671:.\Generated_Source\PSoC5/timer.c ****     /* This must only set to two bits of the control register associated */
 672:.\Generated_Source\PSoC5/timer.c ****     interruptCount &= timer_CTRL_INTCNT_MASK;
 673:.\Generated_Source\PSoC5/timer.c **** 
 674:.\Generated_Source\PSoC5/timer.c ****     /* Clear the Current Setting */
 675:.\Generated_Source\PSoC5/timer.c ****     timer_CONTROL &= ((uint8)(~timer_CTRL_INTCNT_MASK));
 676:.\Generated_Source\PSoC5/timer.c ****     /* Write The New Setting */
 677:.\Generated_Source\PSoC5/timer.c ****     timer_CONTROL |= interruptCount;
 678:.\Generated_Source\PSoC5/timer.c **** }
 679:.\Generated_Source\PSoC5/timer.c **** #endif /* Remove API if control register is removed */
 680:.\Generated_Source\PSoC5/timer.c **** #endif /* timer_InterruptOnCaptureCount */
 681:.\Generated_Source\PSoC5/timer.c **** 
 682:.\Generated_Source\PSoC5/timer.c **** 
 683:.\Generated_Source\PSoC5/timer.c **** #if (timer_UsingHWCaptureCounter)
 684:.\Generated_Source\PSoC5/timer.c **** 
 685:.\Generated_Source\PSoC5/timer.c **** 
 686:.\Generated_Source\PSoC5/timer.c **** /*******************************************************************************
 687:.\Generated_Source\PSoC5/timer.c **** * Function Name: timer_SetCaptureCount
 688:.\Generated_Source\PSoC5/timer.c **** ********************************************************************************
 689:.\Generated_Source\PSoC5/timer.c **** *
 690:.\Generated_Source\PSoC5/timer.c **** * Summary:
ARM GAS  C:\Users\karunmj\AppData\Local\Temp\ccq2h7KA.s 			page 23


 691:.\Generated_Source\PSoC5/timer.c **** *  This function sets the capture count
 692:.\Generated_Source\PSoC5/timer.c **** *
 693:.\Generated_Source\PSoC5/timer.c **** * Parameters:
 694:.\Generated_Source\PSoC5/timer.c **** *  captureCount: A value between 2 and 127 inclusive is valid.  A value of 1
 695:.\Generated_Source\PSoC5/timer.c **** *                to 127 will cause the interrupt to delay by the same number of
 696:.\Generated_Source\PSoC5/timer.c **** *                captures.
 697:.\Generated_Source\PSoC5/timer.c **** *
 698:.\Generated_Source\PSoC5/timer.c **** * Return:
 699:.\Generated_Source\PSoC5/timer.c **** *  void
 700:.\Generated_Source\PSoC5/timer.c **** *
 701:.\Generated_Source\PSoC5/timer.c **** *******************************************************************************/
 702:.\Generated_Source\PSoC5/timer.c **** void timer_SetCaptureCount(uint8 captureCount) 
 703:.\Generated_Source\PSoC5/timer.c **** {
 704:.\Generated_Source\PSoC5/timer.c ****     timer_CAP_COUNT = captureCount;
 705:.\Generated_Source\PSoC5/timer.c **** }
 706:.\Generated_Source\PSoC5/timer.c **** 
 707:.\Generated_Source\PSoC5/timer.c **** 
 708:.\Generated_Source\PSoC5/timer.c **** /*******************************************************************************
 709:.\Generated_Source\PSoC5/timer.c **** * Function Name: timer_ReadCaptureCount
 710:.\Generated_Source\PSoC5/timer.c **** ********************************************************************************
 711:.\Generated_Source\PSoC5/timer.c **** *
 712:.\Generated_Source\PSoC5/timer.c **** * Summary:
 713:.\Generated_Source\PSoC5/timer.c **** *  This function reads the capture count setting
 714:.\Generated_Source\PSoC5/timer.c **** *
 715:.\Generated_Source\PSoC5/timer.c **** * Parameters:
 716:.\Generated_Source\PSoC5/timer.c **** *  void
 717:.\Generated_Source\PSoC5/timer.c **** *
 718:.\Generated_Source\PSoC5/timer.c **** * Return:
 719:.\Generated_Source\PSoC5/timer.c **** *  Returns the Capture Count Setting
 720:.\Generated_Source\PSoC5/timer.c **** *
 721:.\Generated_Source\PSoC5/timer.c **** *******************************************************************************/
 722:.\Generated_Source\PSoC5/timer.c **** uint8 timer_ReadCaptureCount(void) 
 723:.\Generated_Source\PSoC5/timer.c **** {
 724:.\Generated_Source\PSoC5/timer.c ****     return ((uint8)timer_CAP_COUNT);
 725:.\Generated_Source\PSoC5/timer.c **** }
 726:.\Generated_Source\PSoC5/timer.c **** #endif /* timer_UsingHWCaptureCounter */
 727:.\Generated_Source\PSoC5/timer.c **** 
 728:.\Generated_Source\PSoC5/timer.c **** 
 729:.\Generated_Source\PSoC5/timer.c **** /*******************************************************************************
 730:.\Generated_Source\PSoC5/timer.c **** * Function Name: timer_ClearFIFO
 731:.\Generated_Source\PSoC5/timer.c **** ********************************************************************************
 732:.\Generated_Source\PSoC5/timer.c **** *
 733:.\Generated_Source\PSoC5/timer.c **** * Summary:
 734:.\Generated_Source\PSoC5/timer.c **** *  This function clears all capture data from the capture FIFO
 735:.\Generated_Source\PSoC5/timer.c **** *
 736:.\Generated_Source\PSoC5/timer.c **** * Parameters:
 737:.\Generated_Source\PSoC5/timer.c **** *  void
 738:.\Generated_Source\PSoC5/timer.c **** *
 739:.\Generated_Source\PSoC5/timer.c **** * Return:
 740:.\Generated_Source\PSoC5/timer.c **** *  void
 741:.\Generated_Source\PSoC5/timer.c **** *
 742:.\Generated_Source\PSoC5/timer.c **** *******************************************************************************/
 743:.\Generated_Source\PSoC5/timer.c **** void timer_ClearFIFO(void) 
 744:.\Generated_Source\PSoC5/timer.c **** {
 561              		.loc 1 744 0
 562              		.cfi_startproc
 563              		@ args = 0, pretend = 0, frame = 0
ARM GAS  C:\Users\karunmj\AppData\Local\Temp\ccq2h7KA.s 			page 24


 564              		@ frame_needed = 1, uses_anonymous_args = 0
 565 0000 80B5     		push	{r7, lr}
 566              	.LCFI33:
 567              		.cfi_def_cfa_offset 8
 568 0002 00AF     		add	r7, sp, #0
 569              		.cfi_offset 14, -4
 570              		.cfi_offset 7, -8
 571              	.LCFI34:
 572              		.cfi_def_cfa_register 7
 745:.\Generated_Source\PSoC5/timer.c ****     while(0u != (timer_ReadStatusRegister() & timer_STATUS_FIFONEMP))
 573              		.loc 1 745 0
 574 0004 01E0     		b	.L31
 575              	.L32:
 746:.\Generated_Source\PSoC5/timer.c ****     {
 747:.\Generated_Source\PSoC5/timer.c ****         (void)timer_ReadCapture();
 576              		.loc 1 747 0
 577 0006 FFF7FEFF 		bl	timer_ReadCapture
 578              	.L31:
 579              		.loc 1 745 0
 580 000a FFF7FEFF 		bl	timer_ReadStatusRegister
 581 000e 0346     		mov	r3, r0
 582 0010 03F00803 		and	r3, r3, #8
 583 0014 002B     		cmp	r3, #0
 584 0016 F6D1     		bne	.L32
 748:.\Generated_Source\PSoC5/timer.c ****     }
 749:.\Generated_Source\PSoC5/timer.c **** }
 585              		.loc 1 749 0
 586 0018 80BD     		pop	{r7, pc}
 587              		.cfi_endproc
 588              	.LFE14:
 589              		.size	timer_ClearFIFO, .-timer_ClearFIFO
 590 001a 00BF     		.text
 591              	.Letext0: