ARM GAS  C:\Users\cps\AppData\Local\Temp\ccb2suDC.s 			page 1


   1              		.syntax unified
   2              		.cpu cortex-m3
   3              		.fpu softvfp
   4              		.eabi_attribute 20, 1
   5              		.eabi_attribute 21, 1
   6              		.eabi_attribute 23, 3
   7              		.eabi_attribute 24, 1
   8              		.eabi_attribute 25, 1
   9              		.eabi_attribute 26, 1
  10              		.eabi_attribute 30, 1
  11              		.eabi_attribute 34, 1
  12              		.eabi_attribute 18, 4
  13              		.thumb
  14              		.file	"maxbotix.c"
  15              		.text
  16              	.Ltext0:
  17              		.cfi_sections	.debug_frame
  18              		.section	.text.IntUartRx_M,"ax",%progbits
  19              		.align	2
  20              		.global	IntUartRx_M
  21              		.thumb
  22              		.thumb_func
  23              		.type	IntUartRx_M, %function
  24              	IntUartRx_M:
  25              	.LFB63:
  26              		.file 1 ".\\maxbotix.c"
   1:.\maxbotix.c  **** /* ========================================
   2:.\maxbotix.c  ****  *
   3:.\maxbotix.c  ****  * Copyright YOUR COMPANY, THE YEAR
   4:.\maxbotix.c  ****  * All Rights Reserved
   5:.\maxbotix.c  ****  * UNPUBLISHED, LICENSED SOFTWARE.
   6:.\maxbotix.c  ****  *
   7:.\maxbotix.c  ****  * CONFIDENTIAL AND PROPRIETARY INFORMATION
   8:.\maxbotix.c  ****  * WHICH IS THE PROPERTY OF your company.
   9:.\maxbotix.c  ****  *
  10:.\maxbotix.c  ****  * ========================================
  11:.\maxbotix.c  **** */
  12:.\maxbotix.c  **** #include <string.h>
  13:.\maxbotix.c  **** #include "maxbotix.h"
  14:.\maxbotix.c  **** #define RAW_SERIAL_DATA_LENGTH_m 30
  15:.\maxbotix.c  **** #define VALUES_ARRAY_LENGTH 5
  16:.\maxbotix.c  **** uint8 raw_serial_data_m[RAW_SERIAL_DATA_LENGTH_m];
  17:.\maxbotix.c  **** uint8 raw_serial_data_count_m;
  18:.\maxbotix.c  **** 
  19:.\maxbotix.c  **** CY_ISR_PROTO(IntUartRx_M);
  20:.\maxbotix.c  **** 
  21:.\maxbotix.c  **** 
  22:.\maxbotix.c  **** CY_ISR(IntUartRx_M)
  23:.\maxbotix.c  **** {
  27              		.loc 1 23 0
  28              		.cfi_startproc
  29              		@ args = 0, pretend = 0, frame = 0
  30              		@ frame_needed = 0, uses_anonymous_args = 0
  31 0000 08B5     		push	{r3, lr}
  32              		.cfi_def_cfa_offset 8
  33              		.cfi_offset 3, -8
  34              		.cfi_offset 14, -4
ARM GAS  C:\Users\cps\AppData\Local\Temp\ccb2suDC.s 			page 2


  24:.\maxbotix.c  ****    uint8 getchar;
  25:.\maxbotix.c  ****    getchar  = UART_Maxbotix_GetChar();
  35              		.loc 1 25 0
  36 0002 FFF7FEFF 		bl	UART_Maxbotix_GetChar
  37              	.LVL0:
  26:.\maxbotix.c  ****         
  27:.\maxbotix.c  ****    if(getchar > 0u && raw_serial_data_count_m < RAW_SERIAL_DATA_LENGTH_m){
  38              		.loc 1 27 0
  39 0006 40B1     		cbz	r0, .L1
  40              		.loc 1 27 0 is_stmt 0 discriminator 1
  41 0008 044B     		ldr	r3, .L4
  42 000a 1B78     		ldrb	r3, [r3]	@ zero_extendqisi2
  43 000c 1D2B     		cmp	r3, #29
  44 000e 04D8     		bhi	.L1
  28:.\maxbotix.c  ****         raw_serial_data_m[raw_serial_data_count_m] = getchar;
  45              		.loc 1 28 0 is_stmt 1
  46 0010 0349     		ldr	r1, .L4+4
  47 0012 C854     		strb	r0, [r1, r3]
  29:.\maxbotix.c  ****         raw_serial_data_count_m++;
  48              		.loc 1 29 0
  49 0014 0133     		adds	r3, r3, #1
  50 0016 014A     		ldr	r2, .L4
  51 0018 1370     		strb	r3, [r2]
  52              	.L1:
  53 001a 08BD     		pop	{r3, pc}
  54              	.L5:
  55              		.align	2
  56              	.L4:
  57 001c 00000000 		.word	raw_serial_data_count_m
  58 0020 00000000 		.word	raw_serial_data_m
  59              		.cfi_endproc
  60              	.LFE63:
  61              		.size	IntUartRx_M, .-IntUartRx_M
  62              		.section	.text.Maxbotix_Convert_Raw_Reading,"ax",%progbits
  63              		.align	2
  64              		.global	Maxbotix_Convert_Raw_Reading
  65              		.thumb
  66              		.thumb_func
  67              		.type	Maxbotix_Convert_Raw_Reading, %function
  68              	Maxbotix_Convert_Raw_Reading:
  69              	.LFB64:
  30:.\maxbotix.c  ****         }   
  31:.\maxbotix.c  ****     
  32:.\maxbotix.c  **** }
  33:.\maxbotix.c  **** 
  34:.\maxbotix.c  **** Maxbotix Maxbotix_Convert_Raw_Reading(uint8* raw_M){
  70              		.loc 1 34 0
  71              		.cfi_startproc
  72              		@ args = 0, pretend = 0, frame = 24
  73              		@ frame_needed = 0, uses_anonymous_args = 0
  74              	.LVL1:
  75 0000 30B5     		push	{r4, r5, lr}
  76              		.cfi_def_cfa_offset 12
  77              		.cfi_offset 4, -12
  78              		.cfi_offset 5, -8
  79              		.cfi_offset 14, -4
  80 0002 87B0     		sub	sp, sp, #28
ARM GAS  C:\Users\cps\AppData\Local\Temp\ccb2suDC.s 			page 3


  81              		.cfi_def_cfa_offset 40
  82 0004 0546     		mov	r5, r0
  83              	.LVL2:
  35:.\maxbotix.c  ****     uint32 values[VALUES_ARRAY_LENGTH];
  36:.\maxbotix.c  ****     char* token;
  37:.\maxbotix.c  ****     uint8 value_count = 0u;
  38:.\maxbotix.c  ****     token = strtok(raw_M,"\r");
  84              		.loc 1 38 0
  85 0006 0846     		mov	r0, r1
  86              	.LVL3:
  87 0008 1A49     		ldr	r1, .L14
  88              	.LVL4:
  89 000a FFF7FEFF 		bl	strtok
  90              	.LVL5:
  39:.\maxbotix.c  **** 	Maxbotix final_value;
  40:.\maxbotix.c  **** 	final_value.valid = 0u; 
  91              		.loc 1 40 0
  92 000e 0024     		movs	r4, #0
  93 0010 2C71     		strb	r4, [r5, #4]
  41:.\maxbotix.c  ****     while(token != NULL){
  94              		.loc 1 41 0
  95 0012 15E0     		b	.L7
  96              	.LVL6:
  97              	.L10:
  98              	.LBB2:
  42:.\maxbotix.c  ****         uint32 value;
  43:.\maxbotix.c  ****         uint32 scan_valid;
  44:.\maxbotix.c  ****         scan_valid = sscanf(token,"R%d",&value);
  99              		.loc 1 44 0
 100 0014 1849     		ldr	r1, .L14+4
 101 0016 6A46     		mov	r2, sp
 102 0018 FFF7FEFF 		bl	sscanf
 103              	.LVL7:
  45:.\maxbotix.c  ****         if (scan_valid != 0){
 104              		.loc 1 45 0
 105 001c 60B1     		cbz	r0, .L8
  46:.\maxbotix.c  ****             values[value_count] = value;
 106              		.loc 1 46 0
 107 001e 06AB     		add	r3, sp, #24
 108 0020 03EB8403 		add	r3, r3, r4, lsl #2
 109 0024 009A     		ldr	r2, [sp]
 110 0026 43F8142C 		str	r2, [r3, #-20]
  47:.\maxbotix.c  ****             value_count++;
 111              		.loc 1 47 0
 112 002a 0134     		adds	r4, r4, #1
 113              	.LVL8:
 114 002c E4B2     		uxtb	r4, r4
 115              	.LVL9:
  48:.\maxbotix.c  ****             if (value_count == VALUES_ARRAY_LENGTH){
 116              		.loc 1 48 0
 117 002e 052C     		cmp	r4, #5
 118 0030 02D1     		bne	.L8
  49:.\maxbotix.c  **** 				final_value.valid = 1u;  
 119              		.loc 1 49 0
 120 0032 0123     		movs	r3, #1
 121 0034 2B71     		strb	r3, [r5, #4]
 122 0036 05E0     		b	.L9
ARM GAS  C:\Users\cps\AppData\Local\Temp\ccb2suDC.s 			page 4


 123              	.L8:
  50:.\maxbotix.c  ****                 break;
  51:.\maxbotix.c  **** 				
  52:.\maxbotix.c  ****             }
  53:.\maxbotix.c  ****         
  54:.\maxbotix.c  ****         }
  55:.\maxbotix.c  ****         token = strtok(NULL,"\r");
 124              		.loc 1 55 0
 125 0038 0020     		movs	r0, #0
 126              	.LVL10:
 127 003a 0E49     		ldr	r1, .L14
 128 003c FFF7FEFF 		bl	strtok
 129              	.LVL11:
 130              	.L7:
 131              	.LBE2:
  41:.\maxbotix.c  ****         uint32 value;
 132              		.loc 1 41 0
 133 0040 0028     		cmp	r0, #0
 134 0042 E7D1     		bne	.L10
 135              	.LVL12:
 136              	.L9:
  56:.\maxbotix.c  ****         
  57:.\maxbotix.c  ****     }
  58:.\maxbotix.c  ****     
  59:.\maxbotix.c  **** 
  60:.\maxbotix.c  ****   
  61:.\maxbotix.c  ****     
  62:.\maxbotix.c  ****     
  63:.\maxbotix.c  ****     uint8 i = 0;
  64:.\maxbotix.c  **** 	final_value.depth = 0;
 137              		.loc 1 64 0
 138 0044 0023     		movs	r3, #0
 139 0046 2B60     		str	r3, [r5]
  65:.\maxbotix.c  ****     for(i = 0; i < VALUES_ARRAY_LENGTH; i++){
 140              		.loc 1 65 0
 141 0048 09E0     		b	.L11
 142              	.LVL13:
 143              	.L12:
  66:.\maxbotix.c  ****         final_value.depth = final_value.depth + values[i];
 144              		.loc 1 66 0 discriminator 3
 145 004a 2968     		ldr	r1, [r5]
 146 004c 06AA     		add	r2, sp, #24
 147 004e 02EB8302 		add	r2, r2, r3, lsl #2
 148 0052 52F8142C 		ldr	r2, [r2, #-20]
 149 0056 0A44     		add	r2, r2, r1
 150 0058 2A60     		str	r2, [r5]
  65:.\maxbotix.c  ****     for(i = 0; i < VALUES_ARRAY_LENGTH; i++){
 151              		.loc 1 65 0 discriminator 3
 152 005a 0133     		adds	r3, r3, #1
 153              	.LVL14:
 154 005c DBB2     		uxtb	r3, r3
 155              	.LVL15:
 156              	.L11:
  65:.\maxbotix.c  ****     for(i = 0; i < VALUES_ARRAY_LENGTH; i++){
 157              		.loc 1 65 0 is_stmt 0 discriminator 1
 158 005e 042B     		cmp	r3, #4
 159 0060 F3D9     		bls	.L12
ARM GAS  C:\Users\cps\AppData\Local\Temp\ccb2suDC.s 			page 5


  67:.\maxbotix.c  ****     }
  68:.\maxbotix.c  ****     final_value.depth = final_value.depth/VALUES_ARRAY_LENGTH;
 160              		.loc 1 68 0 is_stmt 1
 161 0062 2B68     		ldr	r3, [r5]
 162              	.LVL16:
 163 0064 054A     		ldr	r2, .L14+8
 164 0066 A2FB0323 		umull	r2, r3, r2, r3
 165 006a 9B08     		lsrs	r3, r3, #2
 166 006c 2B60     		str	r3, [r5]
  69:.\maxbotix.c  **** 
  70:.\maxbotix.c  ****     return final_value;
  71:.\maxbotix.c  ****     
  72:.\maxbotix.c  **** }
 167              		.loc 1 72 0
 168 006e 2846     		mov	r0, r5
 169 0070 07B0     		add	sp, sp, #28
 170              		.cfi_def_cfa_offset 12
 171              		@ sp needed
 172 0072 30BD     		pop	{r4, r5, pc}
 173              	.LVL17:
 174              	.L15:
 175              		.align	2
 176              	.L14:
 177 0074 00000000 		.word	.LC0
 178 0078 04000000 		.word	.LC1
 179 007c CDCCCCCC 		.word	-858993459
 180              		.cfi_endproc
 181              	.LFE64:
 182              		.size	Maxbotix_Convert_Raw_Reading, .-Maxbotix_Convert_Raw_Reading
 183              		.section	.text.Maxbotix_Take_Reading,"ax",%progbits
 184              		.align	2
 185              		.global	Maxbotix_Take_Reading
 186              		.thumb
 187              		.thumb_func
 188              		.type	Maxbotix_Take_Reading, %function
 189              	Maxbotix_Take_Reading:
 190              	.LFB65:
  73:.\maxbotix.c  **** 
  74:.\maxbotix.c  **** Maxbotix Maxbotix_Take_Reading(){
 191              		.loc 1 74 0
 192              		.cfi_startproc
 193              		@ args = 0, pretend = 0, frame = 0
 194              		@ frame_needed = 0, uses_anonymous_args = 0
 195              	.LVL18:
 196 0000 10B5     		push	{r4, lr}
 197              		.cfi_def_cfa_offset 8
 198              		.cfi_offset 4, -8
 199              		.cfi_offset 14, -4
 200 0002 0446     		mov	r4, r0
  75:.\maxbotix.c  **** 
  76:.\maxbotix.c  **** 	
  77:.\maxbotix.c  **** 	Maxbotix_Power_Write(0u);
 201              		.loc 1 77 0
 202 0004 0020     		movs	r0, #0
 203              	.LVL19:
 204 0006 FFF7FEFF 		bl	Maxbotix_Power_Write
 205              	.LVL20:
ARM GAS  C:\Users\cps\AppData\Local\Temp\ccb2suDC.s 			page 6


  78:.\maxbotix.c  **** 	CyDelay(1000u);
 206              		.loc 1 78 0
 207 000a 4FF47A70 		mov	r0, #1000
 208 000e FFF7FEFF 		bl	CyDelay
 209              	.LVL21:
  79:.\maxbotix.c  **** 	UART_Maxbotix_Start();
 210              		.loc 1 79 0
 211 0012 FFF7FEFF 		bl	UART_Maxbotix_Start
 212              	.LVL22:
  80:.\maxbotix.c  ****     raw_serial_data_count_m = 0u;
 213              		.loc 1 80 0
 214 0016 0022     		movs	r2, #0
 215 0018 0A4B     		ldr	r3, .L18
 216 001a 1A70     		strb	r2, [r3]
  81:.\maxbotix.c  ****     isr_Maxbotix_StartEx(IntUartRx_M);
 217              		.loc 1 81 0
 218 001c 0A48     		ldr	r0, .L18+4
 219 001e FFF7FEFF 		bl	isr_Maxbotix_StartEx
 220              	.LVL23:
  82:.\maxbotix.c  ****     CyDelay(1000u);
 221              		.loc 1 82 0
 222 0022 4FF47A70 		mov	r0, #1000
 223 0026 FFF7FEFF 		bl	CyDelay
 224              	.LVL24:
  83:.\maxbotix.c  **** 	
  84:.\maxbotix.c  ****     isr_Maxbotix_Stop();
 225              		.loc 1 84 0
 226 002a FFF7FEFF 		bl	isr_Maxbotix_Stop
 227              	.LVL25:
  85:.\maxbotix.c  **** 	UART_Maxbotix_Stop();
 228              		.loc 1 85 0
 229 002e FFF7FEFF 		bl	UART_Maxbotix_Stop
 230              	.LVL26:
  86:.\maxbotix.c  **** 	Maxbotix_Power_Write(1u);
 231              		.loc 1 86 0
 232 0032 0120     		movs	r0, #1
 233 0034 FFF7FEFF 		bl	Maxbotix_Power_Write
 234              	.LVL27:
  87:.\maxbotix.c  **** 	
  88:.\maxbotix.c  ****     Maxbotix depth;
  89:.\maxbotix.c  ****     depth = Maxbotix_Convert_Raw_Reading(raw_serial_data_m);
 235              		.loc 1 89 0
 236 0038 2046     		mov	r0, r4
 237 003a 0449     		ldr	r1, .L18+8
 238 003c FFF7FEFF 		bl	Maxbotix_Convert_Raw_Reading
 239              	.LVL28:
  90:.\maxbotix.c  **** 
  91:.\maxbotix.c  ****     return depth;
  92:.\maxbotix.c  **** }
 240              		.loc 1 92 0
 241 0040 2046     		mov	r0, r4
 242 0042 10BD     		pop	{r4, pc}
 243              	.LVL29:
 244              	.L19:
 245              		.align	2
 246              	.L18:
 247 0044 00000000 		.word	raw_serial_data_count_m
ARM GAS  C:\Users\cps\AppData\Local\Temp\ccb2suDC.s 			page 7


 248 0048 00000000 		.word	IntUartRx_M
 249 004c 00000000 		.word	raw_serial_data_m
 250              		.cfi_endproc
 251              	.LFE65:
 252              		.size	Maxbotix_Take_Reading, .-Maxbotix_Take_Reading
 253              		.comm	raw_serial_data_count_m,1,1
 254              		.comm	raw_serial_data_m,30,4
 255              		.section	.rodata.str1.4,"aMS",%progbits,1
 256              		.align	2
 257              	.LC0:
 258 0000 0D00     		.ascii	"\015\000"
 259 0002 0000     		.space	2
 260              	.LC1:
 261 0004 52256400 		.ascii	"R%d\000"
 262              		.text
 263              	.Letext0:
 264              		.file 2 "c:\\program files (x86)\\cypress\\psoc creator\\3.3\\psoc creator\\import\\gnu\\arm\\4.9.
 265              		.file 3 "c:\\program files (x86)\\cypress\\psoc creator\\3.3\\psoc creator\\import\\gnu\\arm\\4.9.
 266              		.file 4 "Generated_Source\\PSoC5/cytypes.h"
 267              		.file 5 ".\\maxbotix.h"
 268              		.file 6 "Generated_Source\\PSoC5/core_cm3.h"
 269              		.file 7 "<built-in>"
 270              		.file 8 "c:\\program files (x86)\\cypress\\psoc creator\\3.3\\psoc creator\\import\\gnu\\arm\\4.9.
 271              		.file 9 "Generated_Source\\PSoC5/Maxbotix_Power.h"
 272              		.file 10 "Generated_Source\\PSoC5/CyLib.h"
 273              		.file 11 "Generated_Source\\PSoC5/isr_Maxbotix.h"
 274              		.file 12 "Generated_Source\\PSoC5/UART_Maxbotix.h"