ARM GAS  C:\Users\cps\AppData\Local\Temp\ccsuJiMa.s 			page 1


   1              		.syntax unified
   2              		.cpu cortex-m3
   3              		.fpu softvfp
   4              		.eabi_attribute 20, 1
   5              		.eabi_attribute 21, 1
   6              		.eabi_attribute 23, 3
   7              		.eabi_attribute 24, 1
   8              		.eabi_attribute 25, 1
   9              		.eabi_attribute 26, 1
  10              		.eabi_attribute 30, 1
  11              		.eabi_attribute 34, 1
  12              		.eabi_attribute 18, 4
  13              		.thumb
  14              		.file	"UART_Maxbotix.c"
  15              		.text
  16              	.Ltext0:
  17              		.cfi_sections	.debug_frame
  18              		.section	.text.UART_Maxbotix_Init,"ax",%progbits
  19              		.align	2
  20              		.global	UART_Maxbotix_Init
  21              		.thumb
  22              		.thumb_func
  23              		.type	UART_Maxbotix_Init, %function
  24              	UART_Maxbotix_Init:
  25              	.LFB1:
  26              		.file 1 ".\\Generated_Source\\PSoC5\\UART_Maxbotix.c"
   1:.\Generated_Source\PSoC5/UART_Maxbotix.c **** /*******************************************************************************
   2:.\Generated_Source\PSoC5/UART_Maxbotix.c **** * File Name: UART_Maxbotix.c
   3:.\Generated_Source\PSoC5/UART_Maxbotix.c **** * Version 2.30
   4:.\Generated_Source\PSoC5/UART_Maxbotix.c **** *
   5:.\Generated_Source\PSoC5/UART_Maxbotix.c **** * Description:
   6:.\Generated_Source\PSoC5/UART_Maxbotix.c **** *  This file provides all API functionality of the UART component
   7:.\Generated_Source\PSoC5/UART_Maxbotix.c **** *
   8:.\Generated_Source\PSoC5/UART_Maxbotix.c **** * Note:
   9:.\Generated_Source\PSoC5/UART_Maxbotix.c **** *
  10:.\Generated_Source\PSoC5/UART_Maxbotix.c **** ********************************************************************************
  11:.\Generated_Source\PSoC5/UART_Maxbotix.c **** * Copyright 2008-2012, Cypress Semiconductor Corporation.  All rights reserved.
  12:.\Generated_Source\PSoC5/UART_Maxbotix.c **** * You may use this file only in accordance with the license, terms, conditions,
  13:.\Generated_Source\PSoC5/UART_Maxbotix.c **** * disclaimers, and limitations in the end user license agreement accompanying
  14:.\Generated_Source\PSoC5/UART_Maxbotix.c **** * the software package with which this file was provided.
  15:.\Generated_Source\PSoC5/UART_Maxbotix.c **** *******************************************************************************/
  16:.\Generated_Source\PSoC5/UART_Maxbotix.c **** 
  17:.\Generated_Source\PSoC5/UART_Maxbotix.c **** #include "UART_Maxbotix.h"
  18:.\Generated_Source\PSoC5/UART_Maxbotix.c **** #include "CyLib.h"
  19:.\Generated_Source\PSoC5/UART_Maxbotix.c **** #if(UART_Maxbotix_INTERNAL_CLOCK_USED)
  20:.\Generated_Source\PSoC5/UART_Maxbotix.c ****     #include "UART_Maxbotix_IntClock.h"
  21:.\Generated_Source\PSoC5/UART_Maxbotix.c **** #endif /* End UART_Maxbotix_INTERNAL_CLOCK_USED */
  22:.\Generated_Source\PSoC5/UART_Maxbotix.c **** 
  23:.\Generated_Source\PSoC5/UART_Maxbotix.c **** 
  24:.\Generated_Source\PSoC5/UART_Maxbotix.c **** /***************************************
  25:.\Generated_Source\PSoC5/UART_Maxbotix.c **** * Global data allocation
  26:.\Generated_Source\PSoC5/UART_Maxbotix.c **** ***************************************/
  27:.\Generated_Source\PSoC5/UART_Maxbotix.c **** 
  28:.\Generated_Source\PSoC5/UART_Maxbotix.c **** uint8 UART_Maxbotix_initVar = 0u;
  29:.\Generated_Source\PSoC5/UART_Maxbotix.c **** #if( UART_Maxbotix_TX_ENABLED && (UART_Maxbotix_TXBUFFERSIZE > UART_Maxbotix_FIFO_LENGTH))
  30:.\Generated_Source\PSoC5/UART_Maxbotix.c ****     volatile uint8 UART_Maxbotix_txBuffer[UART_Maxbotix_TXBUFFERSIZE];
  31:.\Generated_Source\PSoC5/UART_Maxbotix.c ****     volatile uint8 UART_Maxbotix_txBufferRead = 0u;
ARM GAS  C:\Users\cps\AppData\Local\Temp\ccsuJiMa.s 			page 2


  32:.\Generated_Source\PSoC5/UART_Maxbotix.c ****     uint8 UART_Maxbotix_txBufferWrite = 0u;
  33:.\Generated_Source\PSoC5/UART_Maxbotix.c **** #endif /* End UART_Maxbotix_TX_ENABLED */
  34:.\Generated_Source\PSoC5/UART_Maxbotix.c **** #if( ( UART_Maxbotix_RX_ENABLED || UART_Maxbotix_HD_ENABLED ) && \
  35:.\Generated_Source\PSoC5/UART_Maxbotix.c ****      (UART_Maxbotix_RXBUFFERSIZE > UART_Maxbotix_FIFO_LENGTH) )
  36:.\Generated_Source\PSoC5/UART_Maxbotix.c ****     volatile uint8 UART_Maxbotix_rxBuffer[UART_Maxbotix_RXBUFFERSIZE];
  37:.\Generated_Source\PSoC5/UART_Maxbotix.c ****     volatile uint8 UART_Maxbotix_rxBufferRead = 0u;
  38:.\Generated_Source\PSoC5/UART_Maxbotix.c ****     volatile uint8 UART_Maxbotix_rxBufferWrite = 0u;
  39:.\Generated_Source\PSoC5/UART_Maxbotix.c ****     volatile uint8 UART_Maxbotix_rxBufferLoopDetect = 0u;
  40:.\Generated_Source\PSoC5/UART_Maxbotix.c ****     volatile uint8 UART_Maxbotix_rxBufferOverflow = 0u;
  41:.\Generated_Source\PSoC5/UART_Maxbotix.c ****     #if (UART_Maxbotix_RXHW_ADDRESS_ENABLED)
  42:.\Generated_Source\PSoC5/UART_Maxbotix.c ****         volatile uint8 UART_Maxbotix_rxAddressMode = UART_Maxbotix_RXADDRESSMODE;
  43:.\Generated_Source\PSoC5/UART_Maxbotix.c ****         volatile uint8 UART_Maxbotix_rxAddressDetected = 0u;
  44:.\Generated_Source\PSoC5/UART_Maxbotix.c ****     #endif /* End EnableHWAddress */
  45:.\Generated_Source\PSoC5/UART_Maxbotix.c **** #endif /* End UART_Maxbotix_RX_ENABLED */
  46:.\Generated_Source\PSoC5/UART_Maxbotix.c **** 
  47:.\Generated_Source\PSoC5/UART_Maxbotix.c **** 
  48:.\Generated_Source\PSoC5/UART_Maxbotix.c **** /*******************************************************************************
  49:.\Generated_Source\PSoC5/UART_Maxbotix.c **** * Function Name: UART_Maxbotix_Start
  50:.\Generated_Source\PSoC5/UART_Maxbotix.c **** ********************************************************************************
  51:.\Generated_Source\PSoC5/UART_Maxbotix.c **** *
  52:.\Generated_Source\PSoC5/UART_Maxbotix.c **** * Summary:
  53:.\Generated_Source\PSoC5/UART_Maxbotix.c **** *  Initialize and Enable the UART component.
  54:.\Generated_Source\PSoC5/UART_Maxbotix.c **** *  Enable the clock input to enable operation.
  55:.\Generated_Source\PSoC5/UART_Maxbotix.c **** *
  56:.\Generated_Source\PSoC5/UART_Maxbotix.c **** * Parameters:
  57:.\Generated_Source\PSoC5/UART_Maxbotix.c **** *  None.
  58:.\Generated_Source\PSoC5/UART_Maxbotix.c **** *
  59:.\Generated_Source\PSoC5/UART_Maxbotix.c **** * Return:
  60:.\Generated_Source\PSoC5/UART_Maxbotix.c **** *  None.
  61:.\Generated_Source\PSoC5/UART_Maxbotix.c **** *
  62:.\Generated_Source\PSoC5/UART_Maxbotix.c **** * Global variables:
  63:.\Generated_Source\PSoC5/UART_Maxbotix.c **** *  The UART_Maxbotix_intiVar variable is used to indicate initial
  64:.\Generated_Source\PSoC5/UART_Maxbotix.c **** *  configuration of this component. The variable is initialized to zero (0u)
  65:.\Generated_Source\PSoC5/UART_Maxbotix.c **** *  and set to one (1u) the first time UART_Start() is called. This allows for
  66:.\Generated_Source\PSoC5/UART_Maxbotix.c **** *  component initialization without re-initialization in all subsequent calls
  67:.\Generated_Source\PSoC5/UART_Maxbotix.c **** *  to the UART_Maxbotix_Start() routine.
  68:.\Generated_Source\PSoC5/UART_Maxbotix.c **** *
  69:.\Generated_Source\PSoC5/UART_Maxbotix.c **** * Reentrant:
  70:.\Generated_Source\PSoC5/UART_Maxbotix.c **** *  No.
  71:.\Generated_Source\PSoC5/UART_Maxbotix.c **** *
  72:.\Generated_Source\PSoC5/UART_Maxbotix.c **** *******************************************************************************/
  73:.\Generated_Source\PSoC5/UART_Maxbotix.c **** void UART_Maxbotix_Start(void) 
  74:.\Generated_Source\PSoC5/UART_Maxbotix.c **** {
  75:.\Generated_Source\PSoC5/UART_Maxbotix.c ****     /* If not Initialized then initialize all required hardware and software */
  76:.\Generated_Source\PSoC5/UART_Maxbotix.c ****     if(UART_Maxbotix_initVar == 0u)
  77:.\Generated_Source\PSoC5/UART_Maxbotix.c ****     {
  78:.\Generated_Source\PSoC5/UART_Maxbotix.c ****         UART_Maxbotix_Init();
  79:.\Generated_Source\PSoC5/UART_Maxbotix.c ****         UART_Maxbotix_initVar = 1u;
  80:.\Generated_Source\PSoC5/UART_Maxbotix.c ****     }
  81:.\Generated_Source\PSoC5/UART_Maxbotix.c ****     UART_Maxbotix_Enable();
  82:.\Generated_Source\PSoC5/UART_Maxbotix.c **** }
  83:.\Generated_Source\PSoC5/UART_Maxbotix.c **** 
  84:.\Generated_Source\PSoC5/UART_Maxbotix.c **** 
  85:.\Generated_Source\PSoC5/UART_Maxbotix.c **** /*******************************************************************************
  86:.\Generated_Source\PSoC5/UART_Maxbotix.c **** * Function Name: UART_Maxbotix_Init
  87:.\Generated_Source\PSoC5/UART_Maxbotix.c **** ********************************************************************************
  88:.\Generated_Source\PSoC5/UART_Maxbotix.c **** *
ARM GAS  C:\Users\cps\AppData\Local\Temp\ccsuJiMa.s 			page 3


  89:.\Generated_Source\PSoC5/UART_Maxbotix.c **** * Summary:
  90:.\Generated_Source\PSoC5/UART_Maxbotix.c **** *  Initialize component's parameters to the parameters set by user in the
  91:.\Generated_Source\PSoC5/UART_Maxbotix.c **** *  customizer of the component placed onto schematic. Usually called in
  92:.\Generated_Source\PSoC5/UART_Maxbotix.c **** *  UART_Maxbotix_Start().
  93:.\Generated_Source\PSoC5/UART_Maxbotix.c **** *
  94:.\Generated_Source\PSoC5/UART_Maxbotix.c **** * Parameters:
  95:.\Generated_Source\PSoC5/UART_Maxbotix.c **** *  None.
  96:.\Generated_Source\PSoC5/UART_Maxbotix.c **** *
  97:.\Generated_Source\PSoC5/UART_Maxbotix.c **** * Return:
  98:.\Generated_Source\PSoC5/UART_Maxbotix.c **** *  None.
  99:.\Generated_Source\PSoC5/UART_Maxbotix.c **** *
 100:.\Generated_Source\PSoC5/UART_Maxbotix.c **** *******************************************************************************/
 101:.\Generated_Source\PSoC5/UART_Maxbotix.c **** void UART_Maxbotix_Init(void) 
 102:.\Generated_Source\PSoC5/UART_Maxbotix.c **** {
  27              		.loc 1 102 0
  28              		.cfi_startproc
  29              		@ args = 0, pretend = 0, frame = 0
  30              		@ frame_needed = 0, uses_anonymous_args = 0
  31              		@ link register save eliminated.
 103:.\Generated_Source\PSoC5/UART_Maxbotix.c ****     #if(UART_Maxbotix_RX_ENABLED || UART_Maxbotix_HD_ENABLED)
 104:.\Generated_Source\PSoC5/UART_Maxbotix.c **** 
 105:.\Generated_Source\PSoC5/UART_Maxbotix.c ****         #if(UART_Maxbotix_RX_INTERRUPT_ENABLED && (UART_Maxbotix_RXBUFFERSIZE > UART_Maxbotix_FIFO_
 106:.\Generated_Source\PSoC5/UART_Maxbotix.c ****             /* Set the RX Interrupt. */
 107:.\Generated_Source\PSoC5/UART_Maxbotix.c ****             (void)CyIntSetVector(UART_Maxbotix_RX_VECT_NUM, &UART_Maxbotix_RXISR);
 108:.\Generated_Source\PSoC5/UART_Maxbotix.c ****             CyIntSetPriority(UART_Maxbotix_RX_VECT_NUM, UART_Maxbotix_RX_PRIOR_NUM);
 109:.\Generated_Source\PSoC5/UART_Maxbotix.c ****         #endif /* End UART_Maxbotix_RX_INTERRUPT_ENABLED */
 110:.\Generated_Source\PSoC5/UART_Maxbotix.c **** 
 111:.\Generated_Source\PSoC5/UART_Maxbotix.c ****         #if (UART_Maxbotix_RXHW_ADDRESS_ENABLED)
 112:.\Generated_Source\PSoC5/UART_Maxbotix.c ****             UART_Maxbotix_SetRxAddressMode(UART_Maxbotix_RXAddressMode);
 113:.\Generated_Source\PSoC5/UART_Maxbotix.c ****             UART_Maxbotix_SetRxAddress1(UART_Maxbotix_RXHWADDRESS1);
 114:.\Generated_Source\PSoC5/UART_Maxbotix.c ****             UART_Maxbotix_SetRxAddress2(UART_Maxbotix_RXHWADDRESS2);
 115:.\Generated_Source\PSoC5/UART_Maxbotix.c ****         #endif /* End UART_Maxbotix_RXHW_ADDRESS_ENABLED */
 116:.\Generated_Source\PSoC5/UART_Maxbotix.c **** 
 117:.\Generated_Source\PSoC5/UART_Maxbotix.c ****         /* Init Count7 period */
 118:.\Generated_Source\PSoC5/UART_Maxbotix.c ****         UART_Maxbotix_RXBITCTR_PERIOD_REG = UART_Maxbotix_RXBITCTR_INIT;
  32              		.loc 1 118 0
  33 0000 7222     		movs	r2, #114
  34 0002 034B     		ldr	r3, .L2
  35 0004 1A70     		strb	r2, [r3]
 119:.\Generated_Source\PSoC5/UART_Maxbotix.c ****         /* Configure the Initial RX interrupt mask */
 120:.\Generated_Source\PSoC5/UART_Maxbotix.c ****         UART_Maxbotix_RXSTATUS_MASK_REG  = UART_Maxbotix_INIT_RX_INTERRUPTS_MASK;
  36              		.loc 1 120 0
  37 0006 2022     		movs	r2, #32
  38 0008 0133     		adds	r3, r3, #1
  39 000a 1A70     		strb	r2, [r3]
  40 000c 7047     		bx	lr
  41              	.L3:
  42 000e 00BF     		.align	2
  43              	.L2:
  44 0010 81640040 		.word	1073767553
  45              		.cfi_endproc
  46              	.LFE1:
  47              		.size	UART_Maxbotix_Init, .-UART_Maxbotix_Init
  48              		.section	.text.UART_Maxbotix_Enable,"ax",%progbits
  49              		.align	2
  50              		.global	UART_Maxbotix_Enable
  51              		.thumb
ARM GAS  C:\Users\cps\AppData\Local\Temp\ccsuJiMa.s 			page 4


  52              		.thumb_func
  53              		.type	UART_Maxbotix_Enable, %function
  54              	UART_Maxbotix_Enable:
  55              	.LFB2:
 121:.\Generated_Source\PSoC5/UART_Maxbotix.c ****     #endif /* End UART_Maxbotix_RX_ENABLED || UART_Maxbotix_HD_ENABLED*/
 122:.\Generated_Source\PSoC5/UART_Maxbotix.c **** 
 123:.\Generated_Source\PSoC5/UART_Maxbotix.c ****     #if(UART_Maxbotix_TX_ENABLED)
 124:.\Generated_Source\PSoC5/UART_Maxbotix.c ****         #if(UART_Maxbotix_TX_INTERRUPT_ENABLED && (UART_Maxbotix_TXBUFFERSIZE > UART_Maxbotix_FIFO_
 125:.\Generated_Source\PSoC5/UART_Maxbotix.c ****             /* Set the TX Interrupt. */
 126:.\Generated_Source\PSoC5/UART_Maxbotix.c ****             (void)CyIntSetVector(UART_Maxbotix_TX_VECT_NUM, &UART_Maxbotix_TXISR);
 127:.\Generated_Source\PSoC5/UART_Maxbotix.c ****             CyIntSetPriority(UART_Maxbotix_TX_VECT_NUM, UART_Maxbotix_TX_PRIOR_NUM);
 128:.\Generated_Source\PSoC5/UART_Maxbotix.c ****         #endif /* End UART_Maxbotix_TX_INTERRUPT_ENABLED */
 129:.\Generated_Source\PSoC5/UART_Maxbotix.c **** 
 130:.\Generated_Source\PSoC5/UART_Maxbotix.c ****         /* Write Counter Value for TX Bit Clk Generator*/
 131:.\Generated_Source\PSoC5/UART_Maxbotix.c ****         #if(UART_Maxbotix_TXCLKGEN_DP)
 132:.\Generated_Source\PSoC5/UART_Maxbotix.c ****             UART_Maxbotix_TXBITCLKGEN_CTR_REG = UART_Maxbotix_BIT_CENTER;
 133:.\Generated_Source\PSoC5/UART_Maxbotix.c ****             UART_Maxbotix_TXBITCLKTX_COMPLETE_REG = (UART_Maxbotix_NUMBER_OF_DATA_BITS +
 134:.\Generated_Source\PSoC5/UART_Maxbotix.c ****                         UART_Maxbotix_NUMBER_OF_START_BIT) * UART_Maxbotix_OVER_SAMPLE_COUNT;
 135:.\Generated_Source\PSoC5/UART_Maxbotix.c ****         #else
 136:.\Generated_Source\PSoC5/UART_Maxbotix.c ****             UART_Maxbotix_TXBITCTR_PERIOD_REG = ((UART_Maxbotix_NUMBER_OF_DATA_BITS +
 137:.\Generated_Source\PSoC5/UART_Maxbotix.c ****                         UART_Maxbotix_NUMBER_OF_START_BIT) * UART_Maxbotix_OVER_SAMPLE_8) - 1u;
 138:.\Generated_Source\PSoC5/UART_Maxbotix.c ****         #endif /* End UART_Maxbotix_TXCLKGEN_DP */
 139:.\Generated_Source\PSoC5/UART_Maxbotix.c **** 
 140:.\Generated_Source\PSoC5/UART_Maxbotix.c ****         /* Configure the Initial TX interrupt mask */
 141:.\Generated_Source\PSoC5/UART_Maxbotix.c ****         #if(UART_Maxbotix_TX_INTERRUPT_ENABLED && (UART_Maxbotix_TXBUFFERSIZE > UART_Maxbotix_FIFO_
 142:.\Generated_Source\PSoC5/UART_Maxbotix.c ****             UART_Maxbotix_TXSTATUS_MASK_REG = UART_Maxbotix_TX_STS_FIFO_EMPTY;
 143:.\Generated_Source\PSoC5/UART_Maxbotix.c ****         #else
 144:.\Generated_Source\PSoC5/UART_Maxbotix.c ****             UART_Maxbotix_TXSTATUS_MASK_REG = UART_Maxbotix_INIT_TX_INTERRUPTS_MASK;
 145:.\Generated_Source\PSoC5/UART_Maxbotix.c ****         #endif /*End UART_Maxbotix_TX_INTERRUPT_ENABLED*/
 146:.\Generated_Source\PSoC5/UART_Maxbotix.c **** 
 147:.\Generated_Source\PSoC5/UART_Maxbotix.c ****     #endif /* End UART_Maxbotix_TX_ENABLED */
 148:.\Generated_Source\PSoC5/UART_Maxbotix.c **** 
 149:.\Generated_Source\PSoC5/UART_Maxbotix.c ****     #if(UART_Maxbotix_PARITY_TYPE_SW)  /* Write Parity to Control Register */
 150:.\Generated_Source\PSoC5/UART_Maxbotix.c ****         UART_Maxbotix_WriteControlRegister( \
 151:.\Generated_Source\PSoC5/UART_Maxbotix.c ****             (UART_Maxbotix_ReadControlRegister() & (uint8)~UART_Maxbotix_CTRL_PARITY_TYPE_MASK) | \
 152:.\Generated_Source\PSoC5/UART_Maxbotix.c ****             (uint8)(UART_Maxbotix_PARITY_TYPE << UART_Maxbotix_CTRL_PARITY_TYPE0_SHIFT) );
 153:.\Generated_Source\PSoC5/UART_Maxbotix.c ****     #endif /* End UART_Maxbotix_PARITY_TYPE_SW */
 154:.\Generated_Source\PSoC5/UART_Maxbotix.c **** }
 155:.\Generated_Source\PSoC5/UART_Maxbotix.c **** 
 156:.\Generated_Source\PSoC5/UART_Maxbotix.c **** 
 157:.\Generated_Source\PSoC5/UART_Maxbotix.c **** /*******************************************************************************
 158:.\Generated_Source\PSoC5/UART_Maxbotix.c **** * Function Name: UART_Maxbotix_Enable
 159:.\Generated_Source\PSoC5/UART_Maxbotix.c **** ********************************************************************************
 160:.\Generated_Source\PSoC5/UART_Maxbotix.c **** *
 161:.\Generated_Source\PSoC5/UART_Maxbotix.c **** * Summary:
 162:.\Generated_Source\PSoC5/UART_Maxbotix.c **** *  Enables the UART block operation
 163:.\Generated_Source\PSoC5/UART_Maxbotix.c **** *
 164:.\Generated_Source\PSoC5/UART_Maxbotix.c **** * Parameters:
 165:.\Generated_Source\PSoC5/UART_Maxbotix.c **** *  None.
 166:.\Generated_Source\PSoC5/UART_Maxbotix.c **** *
 167:.\Generated_Source\PSoC5/UART_Maxbotix.c **** * Return:
 168:.\Generated_Source\PSoC5/UART_Maxbotix.c **** *  None.
 169:.\Generated_Source\PSoC5/UART_Maxbotix.c **** *
 170:.\Generated_Source\PSoC5/UART_Maxbotix.c **** * Global Variables:
 171:.\Generated_Source\PSoC5/UART_Maxbotix.c **** *  UART_Maxbotix_rxAddressDetected - set to initial state (0).
 172:.\Generated_Source\PSoC5/UART_Maxbotix.c **** *
 173:.\Generated_Source\PSoC5/UART_Maxbotix.c **** *******************************************************************************/
ARM GAS  C:\Users\cps\AppData\Local\Temp\ccsuJiMa.s 			page 5


 174:.\Generated_Source\PSoC5/UART_Maxbotix.c **** void UART_Maxbotix_Enable(void) 
 175:.\Generated_Source\PSoC5/UART_Maxbotix.c **** {
  56              		.loc 1 175 0
  57              		.cfi_startproc
  58              		@ args = 0, pretend = 0, frame = 0
  59              		@ frame_needed = 0, uses_anonymous_args = 0
  60 0000 10B5     		push	{r4, lr}
  61              		.cfi_def_cfa_offset 8
  62              		.cfi_offset 4, -8
  63              		.cfi_offset 14, -4
 176:.\Generated_Source\PSoC5/UART_Maxbotix.c ****     uint8 enableInterrupts;
 177:.\Generated_Source\PSoC5/UART_Maxbotix.c ****     enableInterrupts = CyEnterCriticalSection();
  64              		.loc 1 177 0
  65 0002 FFF7FEFF 		bl	CyEnterCriticalSection
  66              	.LVL0:
  67 0006 0446     		mov	r4, r0
  68              	.LVL1:
 178:.\Generated_Source\PSoC5/UART_Maxbotix.c **** 
 179:.\Generated_Source\PSoC5/UART_Maxbotix.c ****     #if(UART_Maxbotix_RX_ENABLED || UART_Maxbotix_HD_ENABLED)
 180:.\Generated_Source\PSoC5/UART_Maxbotix.c ****         /*RX Counter (Count7) Enable */
 181:.\Generated_Source\PSoC5/UART_Maxbotix.c ****         UART_Maxbotix_RXBITCTR_CONTROL_REG |= UART_Maxbotix_CNTR_ENABLE;
  69              		.loc 1 181 0
  70 0008 074A     		ldr	r2, .L6
  71 000a 1378     		ldrb	r3, [r2]	@ zero_extendqisi2
  72 000c 43F02003 		orr	r3, r3, #32
  73 0010 1370     		strb	r3, [r2]
 182:.\Generated_Source\PSoC5/UART_Maxbotix.c ****         /* Enable the RX Interrupt. */
 183:.\Generated_Source\PSoC5/UART_Maxbotix.c ****         UART_Maxbotix_RXSTATUS_ACTL_REG  |= UART_Maxbotix_INT_ENABLE;
  74              		.loc 1 183 0
  75 0012 0132     		adds	r2, r2, #1
  76 0014 1378     		ldrb	r3, [r2]	@ zero_extendqisi2
  77 0016 43F01003 		orr	r3, r3, #16
  78 001a 1370     		strb	r3, [r2]
 184:.\Generated_Source\PSoC5/UART_Maxbotix.c ****         #if(UART_Maxbotix_RX_INTERRUPT_ENABLED && (UART_Maxbotix_RXBUFFERSIZE > UART_Maxbotix_FIFO_
 185:.\Generated_Source\PSoC5/UART_Maxbotix.c ****             CyIntEnable(UART_Maxbotix_RX_VECT_NUM);
 186:.\Generated_Source\PSoC5/UART_Maxbotix.c ****             #if (UART_Maxbotix_RXHW_ADDRESS_ENABLED)
 187:.\Generated_Source\PSoC5/UART_Maxbotix.c ****                 UART_Maxbotix_rxAddressDetected = 0u;
 188:.\Generated_Source\PSoC5/UART_Maxbotix.c ****             #endif /* End UART_Maxbotix_RXHW_ADDRESS_ENABLED */
 189:.\Generated_Source\PSoC5/UART_Maxbotix.c ****         #endif /* End UART_Maxbotix_RX_INTERRUPT_ENABLED */
 190:.\Generated_Source\PSoC5/UART_Maxbotix.c ****     #endif /* End UART_Maxbotix_RX_ENABLED || UART_Maxbotix_HD_ENABLED*/
 191:.\Generated_Source\PSoC5/UART_Maxbotix.c **** 
 192:.\Generated_Source\PSoC5/UART_Maxbotix.c ****     #if(UART_Maxbotix_TX_ENABLED)
 193:.\Generated_Source\PSoC5/UART_Maxbotix.c ****         /*TX Counter (DP/Count7) Enable */
 194:.\Generated_Source\PSoC5/UART_Maxbotix.c ****         #if(!UART_Maxbotix_TXCLKGEN_DP)
 195:.\Generated_Source\PSoC5/UART_Maxbotix.c ****             UART_Maxbotix_TXBITCTR_CONTROL_REG |= UART_Maxbotix_CNTR_ENABLE;
 196:.\Generated_Source\PSoC5/UART_Maxbotix.c ****         #endif /* End UART_Maxbotix_TXCLKGEN_DP */
 197:.\Generated_Source\PSoC5/UART_Maxbotix.c ****         /* Enable the TX Interrupt. */
 198:.\Generated_Source\PSoC5/UART_Maxbotix.c ****         UART_Maxbotix_TXSTATUS_ACTL_REG |= UART_Maxbotix_INT_ENABLE;
 199:.\Generated_Source\PSoC5/UART_Maxbotix.c ****         #if(UART_Maxbotix_TX_INTERRUPT_ENABLED && (UART_Maxbotix_TXBUFFERSIZE > UART_Maxbotix_FIFO_
 200:.\Generated_Source\PSoC5/UART_Maxbotix.c ****             CyIntEnable(UART_Maxbotix_TX_VECT_NUM);
 201:.\Generated_Source\PSoC5/UART_Maxbotix.c ****         #endif /* End UART_Maxbotix_TX_INTERRUPT_ENABLED*/
 202:.\Generated_Source\PSoC5/UART_Maxbotix.c ****      #endif /* End UART_Maxbotix_TX_ENABLED */
 203:.\Generated_Source\PSoC5/UART_Maxbotix.c **** 
 204:.\Generated_Source\PSoC5/UART_Maxbotix.c ****     #if(UART_Maxbotix_INTERNAL_CLOCK_USED)
 205:.\Generated_Source\PSoC5/UART_Maxbotix.c ****         /* Enable the clock. */
 206:.\Generated_Source\PSoC5/UART_Maxbotix.c ****         UART_Maxbotix_IntClock_Start();
  79              		.loc 1 206 0
ARM GAS  C:\Users\cps\AppData\Local\Temp\ccsuJiMa.s 			page 6


  80 001c FFF7FEFF 		bl	UART_Maxbotix_IntClock_Start
  81              	.LVL2:
 207:.\Generated_Source\PSoC5/UART_Maxbotix.c ****     #endif /* End UART_Maxbotix_INTERNAL_CLOCK_USED */
 208:.\Generated_Source\PSoC5/UART_Maxbotix.c **** 
 209:.\Generated_Source\PSoC5/UART_Maxbotix.c ****     CyExitCriticalSection(enableInterrupts);
  82              		.loc 1 209 0
  83 0020 2046     		mov	r0, r4
  84 0022 FFF7FEFF 		bl	CyExitCriticalSection
  85              	.LVL3:
  86 0026 10BD     		pop	{r4, pc}
  87              	.LVL4:
  88              	.L7:
  89              		.align	2
  90              	.L6:
  91 0028 91640040 		.word	1073767569
  92              		.cfi_endproc
  93              	.LFE2:
  94              		.size	UART_Maxbotix_Enable, .-UART_Maxbotix_Enable
  95              		.section	.text.UART_Maxbotix_Start,"ax",%progbits
  96              		.align	2
  97              		.global	UART_Maxbotix_Start
  98              		.thumb
  99              		.thumb_func
 100              		.type	UART_Maxbotix_Start, %function
 101              	UART_Maxbotix_Start:
 102              	.LFB0:
  74:.\Generated_Source\PSoC5/UART_Maxbotix.c ****     /* If not Initialized then initialize all required hardware and software */
 103              		.loc 1 74 0
 104              		.cfi_startproc
 105              		@ args = 0, pretend = 0, frame = 0
 106              		@ frame_needed = 0, uses_anonymous_args = 0
 107 0000 08B5     		push	{r3, lr}
 108              		.cfi_def_cfa_offset 8
 109              		.cfi_offset 3, -8
 110              		.cfi_offset 14, -4
  76:.\Generated_Source\PSoC5/UART_Maxbotix.c ****     {
 111              		.loc 1 76 0
 112 0002 054B     		ldr	r3, .L11
 113 0004 1B78     		ldrb	r3, [r3]	@ zero_extendqisi2
 114 0006 23B9     		cbnz	r3, .L9
  78:.\Generated_Source\PSoC5/UART_Maxbotix.c ****         UART_Maxbotix_initVar = 1u;
 115              		.loc 1 78 0
 116 0008 FFF7FEFF 		bl	UART_Maxbotix_Init
 117              	.LVL5:
  79:.\Generated_Source\PSoC5/UART_Maxbotix.c ****     }
 118              		.loc 1 79 0
 119 000c 0122     		movs	r2, #1
 120 000e 024B     		ldr	r3, .L11
 121 0010 1A70     		strb	r2, [r3]
 122              	.L9:
  81:.\Generated_Source\PSoC5/UART_Maxbotix.c **** }
 123              		.loc 1 81 0
 124 0012 FFF7FEFF 		bl	UART_Maxbotix_Enable
 125              	.LVL6:
 126 0016 08BD     		pop	{r3, pc}
 127              	.L12:
 128              		.align	2
ARM GAS  C:\Users\cps\AppData\Local\Temp\ccsuJiMa.s 			page 7


 129              	.L11:
 130 0018 00000000 		.word	.LANCHOR0
 131              		.cfi_endproc
 132              	.LFE0:
 133              		.size	UART_Maxbotix_Start, .-UART_Maxbotix_Start
 134              		.section	.text.UART_Maxbotix_Stop,"ax",%progbits
 135              		.align	2
 136              		.global	UART_Maxbotix_Stop
 137              		.thumb
 138              		.thumb_func
 139              		.type	UART_Maxbotix_Stop, %function
 140              	UART_Maxbotix_Stop:
 141              	.LFB3:
 210:.\Generated_Source\PSoC5/UART_Maxbotix.c **** }
 211:.\Generated_Source\PSoC5/UART_Maxbotix.c **** 
 212:.\Generated_Source\PSoC5/UART_Maxbotix.c **** 
 213:.\Generated_Source\PSoC5/UART_Maxbotix.c **** /*******************************************************************************
 214:.\Generated_Source\PSoC5/UART_Maxbotix.c **** * Function Name: UART_Maxbotix_Stop
 215:.\Generated_Source\PSoC5/UART_Maxbotix.c **** ********************************************************************************
 216:.\Generated_Source\PSoC5/UART_Maxbotix.c **** *
 217:.\Generated_Source\PSoC5/UART_Maxbotix.c **** * Summary:
 218:.\Generated_Source\PSoC5/UART_Maxbotix.c **** *  Disable the UART component
 219:.\Generated_Source\PSoC5/UART_Maxbotix.c **** *
 220:.\Generated_Source\PSoC5/UART_Maxbotix.c **** * Parameters:
 221:.\Generated_Source\PSoC5/UART_Maxbotix.c **** *  None.
 222:.\Generated_Source\PSoC5/UART_Maxbotix.c **** *
 223:.\Generated_Source\PSoC5/UART_Maxbotix.c **** * Return:
 224:.\Generated_Source\PSoC5/UART_Maxbotix.c **** *  None.
 225:.\Generated_Source\PSoC5/UART_Maxbotix.c **** *
 226:.\Generated_Source\PSoC5/UART_Maxbotix.c **** *******************************************************************************/
 227:.\Generated_Source\PSoC5/UART_Maxbotix.c **** void UART_Maxbotix_Stop(void) 
 228:.\Generated_Source\PSoC5/UART_Maxbotix.c **** {
 142              		.loc 1 228 0
 143              		.cfi_startproc
 144              		@ args = 0, pretend = 0, frame = 0
 145              		@ frame_needed = 0, uses_anonymous_args = 0
 146 0000 10B5     		push	{r4, lr}
 147              		.cfi_def_cfa_offset 8
 148              		.cfi_offset 4, -8
 149              		.cfi_offset 14, -4
 229:.\Generated_Source\PSoC5/UART_Maxbotix.c ****     uint8 enableInterrupts;
 230:.\Generated_Source\PSoC5/UART_Maxbotix.c ****     enableInterrupts = CyEnterCriticalSection();
 150              		.loc 1 230 0
 151 0002 FFF7FEFF 		bl	CyEnterCriticalSection
 152              	.LVL7:
 153 0006 0446     		mov	r4, r0
 154              	.LVL8:
 231:.\Generated_Source\PSoC5/UART_Maxbotix.c **** 
 232:.\Generated_Source\PSoC5/UART_Maxbotix.c ****     /* Write Bit Counter Disable */
 233:.\Generated_Source\PSoC5/UART_Maxbotix.c ****     #if(UART_Maxbotix_RX_ENABLED || UART_Maxbotix_HD_ENABLED)
 234:.\Generated_Source\PSoC5/UART_Maxbotix.c ****         UART_Maxbotix_RXBITCTR_CONTROL_REG &= (uint8)~UART_Maxbotix_CNTR_ENABLE;
 155              		.loc 1 234 0
 156 0008 074A     		ldr	r2, .L15
 157 000a 1378     		ldrb	r3, [r2]	@ zero_extendqisi2
 158 000c 03F0DF03 		and	r3, r3, #223
 159 0010 1370     		strb	r3, [r2]
 235:.\Generated_Source\PSoC5/UART_Maxbotix.c ****     #endif /* End UART_Maxbotix_RX_ENABLED */
ARM GAS  C:\Users\cps\AppData\Local\Temp\ccsuJiMa.s 			page 8


 236:.\Generated_Source\PSoC5/UART_Maxbotix.c **** 
 237:.\Generated_Source\PSoC5/UART_Maxbotix.c ****     #if(UART_Maxbotix_TX_ENABLED)
 238:.\Generated_Source\PSoC5/UART_Maxbotix.c ****         #if(!UART_Maxbotix_TXCLKGEN_DP)
 239:.\Generated_Source\PSoC5/UART_Maxbotix.c ****             UART_Maxbotix_TXBITCTR_CONTROL_REG &= (uint8)~UART_Maxbotix_CNTR_ENABLE;
 240:.\Generated_Source\PSoC5/UART_Maxbotix.c ****         #endif /* End UART_Maxbotix_TXCLKGEN_DP */
 241:.\Generated_Source\PSoC5/UART_Maxbotix.c ****     #endif /* UART_Maxbotix_TX_ENABLED */
 242:.\Generated_Source\PSoC5/UART_Maxbotix.c **** 
 243:.\Generated_Source\PSoC5/UART_Maxbotix.c ****     #if(UART_Maxbotix_INTERNAL_CLOCK_USED)
 244:.\Generated_Source\PSoC5/UART_Maxbotix.c ****         /* Disable the clock. */
 245:.\Generated_Source\PSoC5/UART_Maxbotix.c ****         UART_Maxbotix_IntClock_Stop();
 160              		.loc 1 245 0
 161 0012 FFF7FEFF 		bl	UART_Maxbotix_IntClock_Stop
 162              	.LVL9:
 246:.\Generated_Source\PSoC5/UART_Maxbotix.c ****     #endif /* End UART_Maxbotix_INTERNAL_CLOCK_USED */
 247:.\Generated_Source\PSoC5/UART_Maxbotix.c **** 
 248:.\Generated_Source\PSoC5/UART_Maxbotix.c ****     /* Disable internal interrupt component */
 249:.\Generated_Source\PSoC5/UART_Maxbotix.c ****     #if(UART_Maxbotix_RX_ENABLED || UART_Maxbotix_HD_ENABLED)
 250:.\Generated_Source\PSoC5/UART_Maxbotix.c ****         UART_Maxbotix_RXSTATUS_ACTL_REG  &= (uint8)~UART_Maxbotix_INT_ENABLE;
 163              		.loc 1 250 0
 164 0016 054A     		ldr	r2, .L15+4
 165 0018 1378     		ldrb	r3, [r2]	@ zero_extendqisi2
 166 001a 03F0EF03 		and	r3, r3, #239
 167 001e 1370     		strb	r3, [r2]
 251:.\Generated_Source\PSoC5/UART_Maxbotix.c ****         #if(UART_Maxbotix_RX_INTERRUPT_ENABLED && (UART_Maxbotix_RXBUFFERSIZE > UART_Maxbotix_FIFO_
 252:.\Generated_Source\PSoC5/UART_Maxbotix.c ****             UART_Maxbotix_DisableRxInt();
 253:.\Generated_Source\PSoC5/UART_Maxbotix.c ****         #endif /* End UART_Maxbotix_RX_INTERRUPT_ENABLED */
 254:.\Generated_Source\PSoC5/UART_Maxbotix.c ****     #endif /* End UART_Maxbotix_RX_ENABLED */
 255:.\Generated_Source\PSoC5/UART_Maxbotix.c **** 
 256:.\Generated_Source\PSoC5/UART_Maxbotix.c ****     #if(UART_Maxbotix_TX_ENABLED)
 257:.\Generated_Source\PSoC5/UART_Maxbotix.c ****         UART_Maxbotix_TXSTATUS_ACTL_REG &= (uint8)~UART_Maxbotix_INT_ENABLE;
 258:.\Generated_Source\PSoC5/UART_Maxbotix.c ****         #if(UART_Maxbotix_TX_INTERRUPT_ENABLED && (UART_Maxbotix_TXBUFFERSIZE > UART_Maxbotix_FIFO_
 259:.\Generated_Source\PSoC5/UART_Maxbotix.c ****             UART_Maxbotix_DisableTxInt();
 260:.\Generated_Source\PSoC5/UART_Maxbotix.c ****         #endif /* End UART_Maxbotix_TX_INTERRUPT_ENABLED */
 261:.\Generated_Source\PSoC5/UART_Maxbotix.c ****     #endif /* End UART_Maxbotix_TX_ENABLED */
 262:.\Generated_Source\PSoC5/UART_Maxbotix.c **** 
 263:.\Generated_Source\PSoC5/UART_Maxbotix.c ****     CyExitCriticalSection(enableInterrupts);
 168              		.loc 1 263 0
 169 0020 2046     		mov	r0, r4
 170 0022 FFF7FEFF 		bl	CyExitCriticalSection
 171              	.LVL10:
 172 0026 10BD     		pop	{r4, pc}
 173              	.LVL11:
 174              	.L16:
 175              		.align	2
 176              	.L15:
 177 0028 91640040 		.word	1073767569
 178 002c 92640040 		.word	1073767570
 179              		.cfi_endproc
 180              	.LFE3:
 181              		.size	UART_Maxbotix_Stop, .-UART_Maxbotix_Stop
 182              		.section	.text.UART_Maxbotix_ReadControlRegister,"ax",%progbits
 183              		.align	2
 184              		.global	UART_Maxbotix_ReadControlRegister
 185              		.thumb
 186              		.thumb_func
 187              		.type	UART_Maxbotix_ReadControlRegister, %function
 188              	UART_Maxbotix_ReadControlRegister:
ARM GAS  C:\Users\cps\AppData\Local\Temp\ccsuJiMa.s 			page 9


 189              	.LFB4:
 264:.\Generated_Source\PSoC5/UART_Maxbotix.c **** }
 265:.\Generated_Source\PSoC5/UART_Maxbotix.c **** 
 266:.\Generated_Source\PSoC5/UART_Maxbotix.c **** 
 267:.\Generated_Source\PSoC5/UART_Maxbotix.c **** /*******************************************************************************
 268:.\Generated_Source\PSoC5/UART_Maxbotix.c **** * Function Name: UART_Maxbotix_ReadControlRegister
 269:.\Generated_Source\PSoC5/UART_Maxbotix.c **** ********************************************************************************
 270:.\Generated_Source\PSoC5/UART_Maxbotix.c **** *
 271:.\Generated_Source\PSoC5/UART_Maxbotix.c **** * Summary:
 272:.\Generated_Source\PSoC5/UART_Maxbotix.c **** *  Read the current state of the control register
 273:.\Generated_Source\PSoC5/UART_Maxbotix.c **** *
 274:.\Generated_Source\PSoC5/UART_Maxbotix.c **** * Parameters:
 275:.\Generated_Source\PSoC5/UART_Maxbotix.c **** *  None.
 276:.\Generated_Source\PSoC5/UART_Maxbotix.c **** *
 277:.\Generated_Source\PSoC5/UART_Maxbotix.c **** * Return:
 278:.\Generated_Source\PSoC5/UART_Maxbotix.c **** *  Current state of the control register.
 279:.\Generated_Source\PSoC5/UART_Maxbotix.c **** *
 280:.\Generated_Source\PSoC5/UART_Maxbotix.c **** *******************************************************************************/
 281:.\Generated_Source\PSoC5/UART_Maxbotix.c **** uint8 UART_Maxbotix_ReadControlRegister(void) 
 282:.\Generated_Source\PSoC5/UART_Maxbotix.c **** {
 190              		.loc 1 282 0
 191              		.cfi_startproc
 192              		@ args = 0, pretend = 0, frame = 0
 193              		@ frame_needed = 0, uses_anonymous_args = 0
 194              		@ link register save eliminated.
 283:.\Generated_Source\PSoC5/UART_Maxbotix.c ****     #if( UART_Maxbotix_CONTROL_REG_REMOVED )
 284:.\Generated_Source\PSoC5/UART_Maxbotix.c ****         return(0u);
 285:.\Generated_Source\PSoC5/UART_Maxbotix.c ****     #else
 286:.\Generated_Source\PSoC5/UART_Maxbotix.c ****         return(UART_Maxbotix_CONTROL_REG);
 287:.\Generated_Source\PSoC5/UART_Maxbotix.c ****     #endif /* End UART_Maxbotix_CONTROL_REG_REMOVED */
 288:.\Generated_Source\PSoC5/UART_Maxbotix.c **** }
 195              		.loc 1 288 0
 196 0000 0020     		movs	r0, #0
 197 0002 7047     		bx	lr
 198              		.cfi_endproc
 199              	.LFE4:
 200              		.size	UART_Maxbotix_ReadControlRegister, .-UART_Maxbotix_ReadControlRegister
 201              		.section	.text.UART_Maxbotix_WriteControlRegister,"ax",%progbits
 202              		.align	2
 203              		.global	UART_Maxbotix_WriteControlRegister
 204              		.thumb
 205              		.thumb_func
 206              		.type	UART_Maxbotix_WriteControlRegister, %function
 207              	UART_Maxbotix_WriteControlRegister:
 208              	.LFB5:
 289:.\Generated_Source\PSoC5/UART_Maxbotix.c **** 
 290:.\Generated_Source\PSoC5/UART_Maxbotix.c **** 
 291:.\Generated_Source\PSoC5/UART_Maxbotix.c **** /*******************************************************************************
 292:.\Generated_Source\PSoC5/UART_Maxbotix.c **** * Function Name: UART_Maxbotix_WriteControlRegister
 293:.\Generated_Source\PSoC5/UART_Maxbotix.c **** ********************************************************************************
 294:.\Generated_Source\PSoC5/UART_Maxbotix.c **** *
 295:.\Generated_Source\PSoC5/UART_Maxbotix.c **** * Summary:
 296:.\Generated_Source\PSoC5/UART_Maxbotix.c **** *  Writes an 8-bit value into the control register
 297:.\Generated_Source\PSoC5/UART_Maxbotix.c **** *
 298:.\Generated_Source\PSoC5/UART_Maxbotix.c **** * Parameters:
 299:.\Generated_Source\PSoC5/UART_Maxbotix.c **** *  control:  control register value
 300:.\Generated_Source\PSoC5/UART_Maxbotix.c **** *
ARM GAS  C:\Users\cps\AppData\Local\Temp\ccsuJiMa.s 			page 10


 301:.\Generated_Source\PSoC5/UART_Maxbotix.c **** * Return:
 302:.\Generated_Source\PSoC5/UART_Maxbotix.c **** *  None.
 303:.\Generated_Source\PSoC5/UART_Maxbotix.c **** *
 304:.\Generated_Source\PSoC5/UART_Maxbotix.c **** *******************************************************************************/
 305:.\Generated_Source\PSoC5/UART_Maxbotix.c **** void  UART_Maxbotix_WriteControlRegister(uint8 control) 
 306:.\Generated_Source\PSoC5/UART_Maxbotix.c **** {
 209              		.loc 1 306 0
 210              		.cfi_startproc
 211              		@ args = 0, pretend = 0, frame = 0
 212              		@ frame_needed = 0, uses_anonymous_args = 0
 213              		@ link register save eliminated.
 214              	.LVL12:
 215 0000 7047     		bx	lr
 216              		.cfi_endproc
 217              	.LFE5:
 218              		.size	UART_Maxbotix_WriteControlRegister, .-UART_Maxbotix_WriteControlRegister
 219 0002 00BF     		.section	.text.UART_Maxbotix_SetRxInterruptMode,"ax",%progbits
 220              		.align	2
 221              		.global	UART_Maxbotix_SetRxInterruptMode
 222              		.thumb
 223              		.thumb_func
 224              		.type	UART_Maxbotix_SetRxInterruptMode, %function
 225              	UART_Maxbotix_SetRxInterruptMode:
 226              	.LFB6:
 307:.\Generated_Source\PSoC5/UART_Maxbotix.c ****     #if( UART_Maxbotix_CONTROL_REG_REMOVED )
 308:.\Generated_Source\PSoC5/UART_Maxbotix.c ****         if(control != 0u) { }      /* release compiler warning */
 309:.\Generated_Source\PSoC5/UART_Maxbotix.c ****     #else
 310:.\Generated_Source\PSoC5/UART_Maxbotix.c ****        UART_Maxbotix_CONTROL_REG = control;
 311:.\Generated_Source\PSoC5/UART_Maxbotix.c ****     #endif /* End UART_Maxbotix_CONTROL_REG_REMOVED */
 312:.\Generated_Source\PSoC5/UART_Maxbotix.c **** }
 313:.\Generated_Source\PSoC5/UART_Maxbotix.c **** 
 314:.\Generated_Source\PSoC5/UART_Maxbotix.c **** 
 315:.\Generated_Source\PSoC5/UART_Maxbotix.c **** #if(UART_Maxbotix_RX_ENABLED || UART_Maxbotix_HD_ENABLED)
 316:.\Generated_Source\PSoC5/UART_Maxbotix.c **** 
 317:.\Generated_Source\PSoC5/UART_Maxbotix.c ****     #if(UART_Maxbotix_RX_INTERRUPT_ENABLED)
 318:.\Generated_Source\PSoC5/UART_Maxbotix.c **** 
 319:.\Generated_Source\PSoC5/UART_Maxbotix.c ****         /*******************************************************************************
 320:.\Generated_Source\PSoC5/UART_Maxbotix.c ****         * Function Name: UART_Maxbotix_EnableRxInt
 321:.\Generated_Source\PSoC5/UART_Maxbotix.c ****         ********************************************************************************
 322:.\Generated_Source\PSoC5/UART_Maxbotix.c ****         *
 323:.\Generated_Source\PSoC5/UART_Maxbotix.c ****         * Summary:
 324:.\Generated_Source\PSoC5/UART_Maxbotix.c ****         *  Enable RX interrupt generation
 325:.\Generated_Source\PSoC5/UART_Maxbotix.c ****         *
 326:.\Generated_Source\PSoC5/UART_Maxbotix.c ****         * Parameters:
 327:.\Generated_Source\PSoC5/UART_Maxbotix.c ****         *  None.
 328:.\Generated_Source\PSoC5/UART_Maxbotix.c ****         *
 329:.\Generated_Source\PSoC5/UART_Maxbotix.c ****         * Return:
 330:.\Generated_Source\PSoC5/UART_Maxbotix.c ****         *  None.
 331:.\Generated_Source\PSoC5/UART_Maxbotix.c ****         *
 332:.\Generated_Source\PSoC5/UART_Maxbotix.c ****         * Theory:
 333:.\Generated_Source\PSoC5/UART_Maxbotix.c ****         *  Enable the interrupt output -or- the interrupt component itself
 334:.\Generated_Source\PSoC5/UART_Maxbotix.c ****         *
 335:.\Generated_Source\PSoC5/UART_Maxbotix.c ****         *******************************************************************************/
 336:.\Generated_Source\PSoC5/UART_Maxbotix.c ****         void UART_Maxbotix_EnableRxInt(void) 
 337:.\Generated_Source\PSoC5/UART_Maxbotix.c ****         {
 338:.\Generated_Source\PSoC5/UART_Maxbotix.c ****             CyIntEnable(UART_Maxbotix_RX_VECT_NUM);
 339:.\Generated_Source\PSoC5/UART_Maxbotix.c ****         }
ARM GAS  C:\Users\cps\AppData\Local\Temp\ccsuJiMa.s 			page 11


 340:.\Generated_Source\PSoC5/UART_Maxbotix.c **** 
 341:.\Generated_Source\PSoC5/UART_Maxbotix.c **** 
 342:.\Generated_Source\PSoC5/UART_Maxbotix.c ****         /*******************************************************************************
 343:.\Generated_Source\PSoC5/UART_Maxbotix.c ****         * Function Name: UART_Maxbotix_DisableRxInt
 344:.\Generated_Source\PSoC5/UART_Maxbotix.c ****         ********************************************************************************
 345:.\Generated_Source\PSoC5/UART_Maxbotix.c ****         *
 346:.\Generated_Source\PSoC5/UART_Maxbotix.c ****         * Summary:
 347:.\Generated_Source\PSoC5/UART_Maxbotix.c ****         *  Disable RX interrupt generation
 348:.\Generated_Source\PSoC5/UART_Maxbotix.c ****         *
 349:.\Generated_Source\PSoC5/UART_Maxbotix.c ****         * Parameters:
 350:.\Generated_Source\PSoC5/UART_Maxbotix.c ****         *  None.
 351:.\Generated_Source\PSoC5/UART_Maxbotix.c ****         *
 352:.\Generated_Source\PSoC5/UART_Maxbotix.c ****         * Return:
 353:.\Generated_Source\PSoC5/UART_Maxbotix.c ****         *  None.
 354:.\Generated_Source\PSoC5/UART_Maxbotix.c ****         *
 355:.\Generated_Source\PSoC5/UART_Maxbotix.c ****         * Theory:
 356:.\Generated_Source\PSoC5/UART_Maxbotix.c ****         *  Disable the interrupt output -or- the interrupt component itself
 357:.\Generated_Source\PSoC5/UART_Maxbotix.c ****         *
 358:.\Generated_Source\PSoC5/UART_Maxbotix.c ****         *******************************************************************************/
 359:.\Generated_Source\PSoC5/UART_Maxbotix.c ****         void UART_Maxbotix_DisableRxInt(void) 
 360:.\Generated_Source\PSoC5/UART_Maxbotix.c ****         {
 361:.\Generated_Source\PSoC5/UART_Maxbotix.c ****             CyIntDisable(UART_Maxbotix_RX_VECT_NUM);
 362:.\Generated_Source\PSoC5/UART_Maxbotix.c ****         }
 363:.\Generated_Source\PSoC5/UART_Maxbotix.c **** 
 364:.\Generated_Source\PSoC5/UART_Maxbotix.c ****     #endif /* UART_Maxbotix_RX_INTERRUPT_ENABLED */
 365:.\Generated_Source\PSoC5/UART_Maxbotix.c **** 
 366:.\Generated_Source\PSoC5/UART_Maxbotix.c **** 
 367:.\Generated_Source\PSoC5/UART_Maxbotix.c ****     /*******************************************************************************
 368:.\Generated_Source\PSoC5/UART_Maxbotix.c ****     * Function Name: UART_Maxbotix_SetRxInterruptMode
 369:.\Generated_Source\PSoC5/UART_Maxbotix.c ****     ********************************************************************************
 370:.\Generated_Source\PSoC5/UART_Maxbotix.c ****     *
 371:.\Generated_Source\PSoC5/UART_Maxbotix.c ****     * Summary:
 372:.\Generated_Source\PSoC5/UART_Maxbotix.c ****     *  Configure which status bits trigger an interrupt event
 373:.\Generated_Source\PSoC5/UART_Maxbotix.c ****     *
 374:.\Generated_Source\PSoC5/UART_Maxbotix.c ****     * Parameters:
 375:.\Generated_Source\PSoC5/UART_Maxbotix.c ****     *  IntSrc:  An or'd combination of the desired status bit masks (defined in
 376:.\Generated_Source\PSoC5/UART_Maxbotix.c ****     *           the header file)
 377:.\Generated_Source\PSoC5/UART_Maxbotix.c ****     *
 378:.\Generated_Source\PSoC5/UART_Maxbotix.c ****     * Return:
 379:.\Generated_Source\PSoC5/UART_Maxbotix.c ****     *  None.
 380:.\Generated_Source\PSoC5/UART_Maxbotix.c ****     *
 381:.\Generated_Source\PSoC5/UART_Maxbotix.c ****     * Theory:
 382:.\Generated_Source\PSoC5/UART_Maxbotix.c ****     *  Enables the output of specific status bits to the interrupt controller
 383:.\Generated_Source\PSoC5/UART_Maxbotix.c ****     *
 384:.\Generated_Source\PSoC5/UART_Maxbotix.c ****     *******************************************************************************/
 385:.\Generated_Source\PSoC5/UART_Maxbotix.c ****     void UART_Maxbotix_SetRxInterruptMode(uint8 intSrc) 
 386:.\Generated_Source\PSoC5/UART_Maxbotix.c ****     {
 227              		.loc 1 386 0
 228              		.cfi_startproc
 229              		@ args = 0, pretend = 0, frame = 0
 230              		@ frame_needed = 0, uses_anonymous_args = 0
 231              		@ link register save eliminated.
 232              	.LVL13:
 387:.\Generated_Source\PSoC5/UART_Maxbotix.c ****         UART_Maxbotix_RXSTATUS_MASK_REG  = intSrc;
 233              		.loc 1 387 0
 234 0000 014B     		ldr	r3, .L20
 235 0002 1870     		strb	r0, [r3]
ARM GAS  C:\Users\cps\AppData\Local\Temp\ccsuJiMa.s 			page 12


 236 0004 7047     		bx	lr
 237              	.L21:
 238 0006 00BF     		.align	2
 239              	.L20:
 240 0008 82640040 		.word	1073767554
 241              		.cfi_endproc
 242              	.LFE6:
 243              		.size	UART_Maxbotix_SetRxInterruptMode, .-UART_Maxbotix_SetRxInterruptMode
 244              		.section	.text.UART_Maxbotix_ReadRxData,"ax",%progbits
 245              		.align	2
 246              		.global	UART_Maxbotix_ReadRxData
 247              		.thumb
 248              		.thumb_func
 249              		.type	UART_Maxbotix_ReadRxData, %function
 250              	UART_Maxbotix_ReadRxData:
 251              	.LFB7:
 388:.\Generated_Source\PSoC5/UART_Maxbotix.c ****     }
 389:.\Generated_Source\PSoC5/UART_Maxbotix.c **** 
 390:.\Generated_Source\PSoC5/UART_Maxbotix.c **** 
 391:.\Generated_Source\PSoC5/UART_Maxbotix.c ****     /*******************************************************************************
 392:.\Generated_Source\PSoC5/UART_Maxbotix.c ****     * Function Name: UART_Maxbotix_ReadRxData
 393:.\Generated_Source\PSoC5/UART_Maxbotix.c ****     ********************************************************************************
 394:.\Generated_Source\PSoC5/UART_Maxbotix.c ****     *
 395:.\Generated_Source\PSoC5/UART_Maxbotix.c ****     * Summary:
 396:.\Generated_Source\PSoC5/UART_Maxbotix.c ****     *  Returns data in RX Data register without checking status register to
 397:.\Generated_Source\PSoC5/UART_Maxbotix.c ****     *  determine if data is valid
 398:.\Generated_Source\PSoC5/UART_Maxbotix.c ****     *
 399:.\Generated_Source\PSoC5/UART_Maxbotix.c ****     * Parameters:
 400:.\Generated_Source\PSoC5/UART_Maxbotix.c ****     *  None.
 401:.\Generated_Source\PSoC5/UART_Maxbotix.c ****     *
 402:.\Generated_Source\PSoC5/UART_Maxbotix.c ****     * Return:
 403:.\Generated_Source\PSoC5/UART_Maxbotix.c ****     *  Received data from RX register
 404:.\Generated_Source\PSoC5/UART_Maxbotix.c ****     *
 405:.\Generated_Source\PSoC5/UART_Maxbotix.c ****     * Global Variables:
 406:.\Generated_Source\PSoC5/UART_Maxbotix.c ****     *  UART_Maxbotix_rxBuffer - RAM buffer pointer for save received data.
 407:.\Generated_Source\PSoC5/UART_Maxbotix.c ****     *  UART_Maxbotix_rxBufferWrite - cyclic index for write to rxBuffer,
 408:.\Generated_Source\PSoC5/UART_Maxbotix.c ****     *     checked to identify new data.
 409:.\Generated_Source\PSoC5/UART_Maxbotix.c ****     *  UART_Maxbotix_rxBufferRead - cyclic index for read from rxBuffer,
 410:.\Generated_Source\PSoC5/UART_Maxbotix.c ****     *     incremented after each byte has been read from buffer.
 411:.\Generated_Source\PSoC5/UART_Maxbotix.c ****     *  UART_Maxbotix_rxBufferLoopDetect - creared if loop condition was detected
 412:.\Generated_Source\PSoC5/UART_Maxbotix.c ****     *     in RX ISR.
 413:.\Generated_Source\PSoC5/UART_Maxbotix.c ****     *
 414:.\Generated_Source\PSoC5/UART_Maxbotix.c ****     * Reentrant:
 415:.\Generated_Source\PSoC5/UART_Maxbotix.c ****     *  No.
 416:.\Generated_Source\PSoC5/UART_Maxbotix.c ****     *
 417:.\Generated_Source\PSoC5/UART_Maxbotix.c ****     *******************************************************************************/
 418:.\Generated_Source\PSoC5/UART_Maxbotix.c ****     uint8 UART_Maxbotix_ReadRxData(void) 
 419:.\Generated_Source\PSoC5/UART_Maxbotix.c ****     {
 252              		.loc 1 419 0
 253              		.cfi_startproc
 254              		@ args = 0, pretend = 0, frame = 0
 255              		@ frame_needed = 0, uses_anonymous_args = 0
 256              		@ link register save eliminated.
 420:.\Generated_Source\PSoC5/UART_Maxbotix.c ****         uint8 rxData;
 421:.\Generated_Source\PSoC5/UART_Maxbotix.c **** 
 422:.\Generated_Source\PSoC5/UART_Maxbotix.c ****         #if(UART_Maxbotix_RXBUFFERSIZE > UART_Maxbotix_FIFO_LENGTH)
 423:.\Generated_Source\PSoC5/UART_Maxbotix.c ****             uint8 loc_rxBufferRead;
ARM GAS  C:\Users\cps\AppData\Local\Temp\ccsuJiMa.s 			page 13


 424:.\Generated_Source\PSoC5/UART_Maxbotix.c ****             uint8 loc_rxBufferWrite;
 425:.\Generated_Source\PSoC5/UART_Maxbotix.c ****             /* Protect variables that could change on interrupt. */
 426:.\Generated_Source\PSoC5/UART_Maxbotix.c ****             /* Disable Rx interrupt. */
 427:.\Generated_Source\PSoC5/UART_Maxbotix.c ****             #if(UART_Maxbotix_RX_INTERRUPT_ENABLED)
 428:.\Generated_Source\PSoC5/UART_Maxbotix.c ****                 UART_Maxbotix_DisableRxInt();
 429:.\Generated_Source\PSoC5/UART_Maxbotix.c ****             #endif /* UART_Maxbotix_RX_INTERRUPT_ENABLED */
 430:.\Generated_Source\PSoC5/UART_Maxbotix.c ****             loc_rxBufferRead = UART_Maxbotix_rxBufferRead;
 431:.\Generated_Source\PSoC5/UART_Maxbotix.c ****             loc_rxBufferWrite = UART_Maxbotix_rxBufferWrite;
 432:.\Generated_Source\PSoC5/UART_Maxbotix.c **** 
 433:.\Generated_Source\PSoC5/UART_Maxbotix.c ****             if( (UART_Maxbotix_rxBufferLoopDetect != 0u) || (loc_rxBufferRead != loc_rxBufferWrite)
 434:.\Generated_Source\PSoC5/UART_Maxbotix.c ****             {
 435:.\Generated_Source\PSoC5/UART_Maxbotix.c ****                 rxData = UART_Maxbotix_rxBuffer[loc_rxBufferRead];
 436:.\Generated_Source\PSoC5/UART_Maxbotix.c ****                 loc_rxBufferRead++;
 437:.\Generated_Source\PSoC5/UART_Maxbotix.c **** 
 438:.\Generated_Source\PSoC5/UART_Maxbotix.c ****                 if(loc_rxBufferRead >= UART_Maxbotix_RXBUFFERSIZE)
 439:.\Generated_Source\PSoC5/UART_Maxbotix.c ****                 {
 440:.\Generated_Source\PSoC5/UART_Maxbotix.c ****                     loc_rxBufferRead = 0u;
 441:.\Generated_Source\PSoC5/UART_Maxbotix.c ****                 }
 442:.\Generated_Source\PSoC5/UART_Maxbotix.c ****                 /* Update the real pointer */
 443:.\Generated_Source\PSoC5/UART_Maxbotix.c ****                 UART_Maxbotix_rxBufferRead = loc_rxBufferRead;
 444:.\Generated_Source\PSoC5/UART_Maxbotix.c **** 
 445:.\Generated_Source\PSoC5/UART_Maxbotix.c ****                 if(UART_Maxbotix_rxBufferLoopDetect != 0u )
 446:.\Generated_Source\PSoC5/UART_Maxbotix.c ****                 {
 447:.\Generated_Source\PSoC5/UART_Maxbotix.c ****                     UART_Maxbotix_rxBufferLoopDetect = 0u;
 448:.\Generated_Source\PSoC5/UART_Maxbotix.c ****                     #if( (UART_Maxbotix_RX_INTERRUPT_ENABLED) && (UART_Maxbotix_FLOW_CONTROL != 0u)
 449:.\Generated_Source\PSoC5/UART_Maxbotix.c ****                          (UART_Maxbotix_RXBUFFERSIZE > UART_Maxbotix_FIFO_LENGTH) )
 450:.\Generated_Source\PSoC5/UART_Maxbotix.c ****                         /* When Hardware Flow Control selected - return RX mask */
 451:.\Generated_Source\PSoC5/UART_Maxbotix.c ****                         #if( UART_Maxbotix_HD_ENABLED )
 452:.\Generated_Source\PSoC5/UART_Maxbotix.c ****                             if((UART_Maxbotix_CONTROL_REG & UART_Maxbotix_CTRL_HD_SEND) == 0u)
 453:.\Generated_Source\PSoC5/UART_Maxbotix.c ****                             {   /* In Half duplex mode return RX mask only in RX
 454:.\Generated_Source\PSoC5/UART_Maxbotix.c ****                                 *  configuration set, otherwise
 455:.\Generated_Source\PSoC5/UART_Maxbotix.c ****                                 *  mask will be returned in LoadRxConfig() API.
 456:.\Generated_Source\PSoC5/UART_Maxbotix.c ****                                 */
 457:.\Generated_Source\PSoC5/UART_Maxbotix.c ****                                 UART_Maxbotix_RXSTATUS_MASK_REG  |= UART_Maxbotix_RX_STS_FIFO_NOTEM
 458:.\Generated_Source\PSoC5/UART_Maxbotix.c ****                             }
 459:.\Generated_Source\PSoC5/UART_Maxbotix.c ****                         #else
 460:.\Generated_Source\PSoC5/UART_Maxbotix.c ****                             UART_Maxbotix_RXSTATUS_MASK_REG  |= UART_Maxbotix_RX_STS_FIFO_NOTEMPTY;
 461:.\Generated_Source\PSoC5/UART_Maxbotix.c ****                         #endif /* end UART_Maxbotix_HD_ENABLED */
 462:.\Generated_Source\PSoC5/UART_Maxbotix.c ****                     #endif /* UART_Maxbotix_RX_INTERRUPT_ENABLED and Hardware flow control*/
 463:.\Generated_Source\PSoC5/UART_Maxbotix.c ****                 }
 464:.\Generated_Source\PSoC5/UART_Maxbotix.c ****             }
 465:.\Generated_Source\PSoC5/UART_Maxbotix.c ****             else
 466:.\Generated_Source\PSoC5/UART_Maxbotix.c ****             {   /* Needs to check status for RX_STS_FIFO_NOTEMPTY bit*/
 467:.\Generated_Source\PSoC5/UART_Maxbotix.c ****                 rxData = UART_Maxbotix_RXDATA_REG;
 468:.\Generated_Source\PSoC5/UART_Maxbotix.c ****             }
 469:.\Generated_Source\PSoC5/UART_Maxbotix.c **** 
 470:.\Generated_Source\PSoC5/UART_Maxbotix.c ****             /* Enable Rx interrupt. */
 471:.\Generated_Source\PSoC5/UART_Maxbotix.c ****             #if(UART_Maxbotix_RX_INTERRUPT_ENABLED)
 472:.\Generated_Source\PSoC5/UART_Maxbotix.c ****                 UART_Maxbotix_EnableRxInt();
 473:.\Generated_Source\PSoC5/UART_Maxbotix.c ****             #endif /* End UART_Maxbotix_RX_INTERRUPT_ENABLED */
 474:.\Generated_Source\PSoC5/UART_Maxbotix.c **** 
 475:.\Generated_Source\PSoC5/UART_Maxbotix.c ****         #else /* UART_Maxbotix_RXBUFFERSIZE > UART_Maxbotix_FIFO_LENGTH */
 476:.\Generated_Source\PSoC5/UART_Maxbotix.c **** 
 477:.\Generated_Source\PSoC5/UART_Maxbotix.c ****             /* Needs to check status for RX_STS_FIFO_NOTEMPTY bit*/
 478:.\Generated_Source\PSoC5/UART_Maxbotix.c ****             rxData = UART_Maxbotix_RXDATA_REG;
 257              		.loc 1 478 0
 258 0000 014B     		ldr	r3, .L23
ARM GAS  C:\Users\cps\AppData\Local\Temp\ccsuJiMa.s 			page 14


 259 0002 1878     		ldrb	r0, [r3]	@ zero_extendqisi2
 260              	.LVL14:
 479:.\Generated_Source\PSoC5/UART_Maxbotix.c **** 
 480:.\Generated_Source\PSoC5/UART_Maxbotix.c ****         #endif /* UART_Maxbotix_RXBUFFERSIZE > UART_Maxbotix_FIFO_LENGTH */
 481:.\Generated_Source\PSoC5/UART_Maxbotix.c **** 
 482:.\Generated_Source\PSoC5/UART_Maxbotix.c ****         return(rxData);
 483:.\Generated_Source\PSoC5/UART_Maxbotix.c ****     }
 261              		.loc 1 483 0
 262 0004 7047     		bx	lr
 263              	.L24:
 264 0006 00BF     		.align	2
 265              	.L23:
 266 0008 42640040 		.word	1073767490
 267              		.cfi_endproc
 268              	.LFE7:
 269              		.size	UART_Maxbotix_ReadRxData, .-UART_Maxbotix_ReadRxData
 270              		.section	.text.UART_Maxbotix_ReadRxStatus,"ax",%progbits
 271              		.align	2
 272              		.global	UART_Maxbotix_ReadRxStatus
 273              		.thumb
 274              		.thumb_func
 275              		.type	UART_Maxbotix_ReadRxStatus, %function
 276              	UART_Maxbotix_ReadRxStatus:
 277              	.LFB8:
 484:.\Generated_Source\PSoC5/UART_Maxbotix.c **** 
 485:.\Generated_Source\PSoC5/UART_Maxbotix.c **** 
 486:.\Generated_Source\PSoC5/UART_Maxbotix.c ****     /*******************************************************************************
 487:.\Generated_Source\PSoC5/UART_Maxbotix.c ****     * Function Name: UART_Maxbotix_ReadRxStatus
 488:.\Generated_Source\PSoC5/UART_Maxbotix.c ****     ********************************************************************************
 489:.\Generated_Source\PSoC5/UART_Maxbotix.c ****     *
 490:.\Generated_Source\PSoC5/UART_Maxbotix.c ****     * Summary:
 491:.\Generated_Source\PSoC5/UART_Maxbotix.c ****     *  Read the current state of the status register
 492:.\Generated_Source\PSoC5/UART_Maxbotix.c ****     *  And detect software buffer overflow.
 493:.\Generated_Source\PSoC5/UART_Maxbotix.c ****     *
 494:.\Generated_Source\PSoC5/UART_Maxbotix.c ****     * Parameters:
 495:.\Generated_Source\PSoC5/UART_Maxbotix.c ****     *  None.
 496:.\Generated_Source\PSoC5/UART_Maxbotix.c ****     *
 497:.\Generated_Source\PSoC5/UART_Maxbotix.c ****     * Return:
 498:.\Generated_Source\PSoC5/UART_Maxbotix.c ****     *  Current state of the status register.
 499:.\Generated_Source\PSoC5/UART_Maxbotix.c ****     *
 500:.\Generated_Source\PSoC5/UART_Maxbotix.c ****     * Global Variables:
 501:.\Generated_Source\PSoC5/UART_Maxbotix.c ****     *  UART_Maxbotix_rxBufferOverflow - used to indicate overload condition.
 502:.\Generated_Source\PSoC5/UART_Maxbotix.c ****     *   It set to one in RX interrupt when there isn?t free space in
 503:.\Generated_Source\PSoC5/UART_Maxbotix.c ****     *   UART_Maxbotix_rxBufferRead to write new data. This condition returned
 504:.\Generated_Source\PSoC5/UART_Maxbotix.c ****     *   and cleared to zero by this API as an
 505:.\Generated_Source\PSoC5/UART_Maxbotix.c ****     *   UART_Maxbotix_RX_STS_SOFT_BUFF_OVER bit along with RX Status register
 506:.\Generated_Source\PSoC5/UART_Maxbotix.c ****     *   bits.
 507:.\Generated_Source\PSoC5/UART_Maxbotix.c ****     *
 508:.\Generated_Source\PSoC5/UART_Maxbotix.c ****     *******************************************************************************/
 509:.\Generated_Source\PSoC5/UART_Maxbotix.c ****     uint8 UART_Maxbotix_ReadRxStatus(void) 
 510:.\Generated_Source\PSoC5/UART_Maxbotix.c ****     {
 278              		.loc 1 510 0
 279              		.cfi_startproc
 280              		@ args = 0, pretend = 0, frame = 0
 281              		@ frame_needed = 0, uses_anonymous_args = 0
 282              		@ link register save eliminated.
 511:.\Generated_Source\PSoC5/UART_Maxbotix.c ****         uint8 status;
ARM GAS  C:\Users\cps\AppData\Local\Temp\ccsuJiMa.s 			page 15


 512:.\Generated_Source\PSoC5/UART_Maxbotix.c **** 
 513:.\Generated_Source\PSoC5/UART_Maxbotix.c ****         status = UART_Maxbotix_RXSTATUS_REG & UART_Maxbotix_RX_HW_MASK;
 283              		.loc 1 513 0
 284 0000 024B     		ldr	r3, .L26
 285 0002 1878     		ldrb	r0, [r3]	@ zero_extendqisi2
 286              	.LVL15:
 514:.\Generated_Source\PSoC5/UART_Maxbotix.c **** 
 515:.\Generated_Source\PSoC5/UART_Maxbotix.c ****         #if(UART_Maxbotix_RXBUFFERSIZE > UART_Maxbotix_FIFO_LENGTH)
 516:.\Generated_Source\PSoC5/UART_Maxbotix.c ****             if( UART_Maxbotix_rxBufferOverflow != 0u )
 517:.\Generated_Source\PSoC5/UART_Maxbotix.c ****             {
 518:.\Generated_Source\PSoC5/UART_Maxbotix.c ****                 status |= UART_Maxbotix_RX_STS_SOFT_BUFF_OVER;
 519:.\Generated_Source\PSoC5/UART_Maxbotix.c ****                 UART_Maxbotix_rxBufferOverflow = 0u;
 520:.\Generated_Source\PSoC5/UART_Maxbotix.c ****             }
 521:.\Generated_Source\PSoC5/UART_Maxbotix.c ****         #endif /* UART_Maxbotix_RXBUFFERSIZE */
 522:.\Generated_Source\PSoC5/UART_Maxbotix.c **** 
 523:.\Generated_Source\PSoC5/UART_Maxbotix.c ****         return(status);
 524:.\Generated_Source\PSoC5/UART_Maxbotix.c ****     }
 287              		.loc 1 524 0
 288 0004 00F07F00 		and	r0, r0, #127
 289              	.LVL16:
 290 0008 7047     		bx	lr
 291              	.L27:
 292 000a 00BF     		.align	2
 293              	.L26:
 294 000c 62640040 		.word	1073767522
 295              		.cfi_endproc
 296              	.LFE8:
 297              		.size	UART_Maxbotix_ReadRxStatus, .-UART_Maxbotix_ReadRxStatus
 298              		.section	.text.UART_Maxbotix_GetChar,"ax",%progbits
 299              		.align	2
 300              		.global	UART_Maxbotix_GetChar
 301              		.thumb
 302              		.thumb_func
 303              		.type	UART_Maxbotix_GetChar, %function
 304              	UART_Maxbotix_GetChar:
 305              	.LFB9:
 525:.\Generated_Source\PSoC5/UART_Maxbotix.c **** 
 526:.\Generated_Source\PSoC5/UART_Maxbotix.c **** 
 527:.\Generated_Source\PSoC5/UART_Maxbotix.c ****     /*******************************************************************************
 528:.\Generated_Source\PSoC5/UART_Maxbotix.c ****     * Function Name: UART_Maxbotix_GetChar
 529:.\Generated_Source\PSoC5/UART_Maxbotix.c ****     ********************************************************************************
 530:.\Generated_Source\PSoC5/UART_Maxbotix.c ****     *
 531:.\Generated_Source\PSoC5/UART_Maxbotix.c ****     * Summary:
 532:.\Generated_Source\PSoC5/UART_Maxbotix.c ****     *  Reads UART RX buffer immediately, if data is not available or an error
 533:.\Generated_Source\PSoC5/UART_Maxbotix.c ****     *  condition exists, zero is returned; otherwise, character is read and
 534:.\Generated_Source\PSoC5/UART_Maxbotix.c ****     *  returned.
 535:.\Generated_Source\PSoC5/UART_Maxbotix.c ****     *
 536:.\Generated_Source\PSoC5/UART_Maxbotix.c ****     * Parameters:
 537:.\Generated_Source\PSoC5/UART_Maxbotix.c ****     *  None.
 538:.\Generated_Source\PSoC5/UART_Maxbotix.c ****     *
 539:.\Generated_Source\PSoC5/UART_Maxbotix.c ****     * Return:
 540:.\Generated_Source\PSoC5/UART_Maxbotix.c ****     *  Character read from UART RX buffer. ASCII characters from 1 to 255 are valid.
 541:.\Generated_Source\PSoC5/UART_Maxbotix.c ****     *  A returned zero signifies an error condition or no data available.
 542:.\Generated_Source\PSoC5/UART_Maxbotix.c ****     *
 543:.\Generated_Source\PSoC5/UART_Maxbotix.c ****     * Global Variables:
 544:.\Generated_Source\PSoC5/UART_Maxbotix.c ****     *  UART_Maxbotix_rxBuffer - RAM buffer pointer for save received data.
 545:.\Generated_Source\PSoC5/UART_Maxbotix.c ****     *  UART_Maxbotix_rxBufferWrite - cyclic index for write to rxBuffer,
ARM GAS  C:\Users\cps\AppData\Local\Temp\ccsuJiMa.s 			page 16


 546:.\Generated_Source\PSoC5/UART_Maxbotix.c ****     *     checked to identify new data.
 547:.\Generated_Source\PSoC5/UART_Maxbotix.c ****     *  UART_Maxbotix_rxBufferRead - cyclic index for read from rxBuffer,
 548:.\Generated_Source\PSoC5/UART_Maxbotix.c ****     *     incremented after each byte has been read from buffer.
 549:.\Generated_Source\PSoC5/UART_Maxbotix.c ****     *  UART_Maxbotix_rxBufferLoopDetect - creared if loop condition was detected
 550:.\Generated_Source\PSoC5/UART_Maxbotix.c ****     *     in RX ISR.
 551:.\Generated_Source\PSoC5/UART_Maxbotix.c ****     *
 552:.\Generated_Source\PSoC5/UART_Maxbotix.c ****     * Reentrant:
 553:.\Generated_Source\PSoC5/UART_Maxbotix.c ****     *  No.
 554:.\Generated_Source\PSoC5/UART_Maxbotix.c ****     *
 555:.\Generated_Source\PSoC5/UART_Maxbotix.c ****     *******************************************************************************/
 556:.\Generated_Source\PSoC5/UART_Maxbotix.c ****     uint8 UART_Maxbotix_GetChar(void) 
 557:.\Generated_Source\PSoC5/UART_Maxbotix.c ****     {
 306              		.loc 1 557 0
 307              		.cfi_startproc
 308              		@ args = 0, pretend = 0, frame = 0
 309              		@ frame_needed = 0, uses_anonymous_args = 0
 310              		@ link register save eliminated.
 311              	.LVL17:
 558:.\Generated_Source\PSoC5/UART_Maxbotix.c ****         uint8 rxData = 0u;
 559:.\Generated_Source\PSoC5/UART_Maxbotix.c ****         uint8 rxStatus;
 560:.\Generated_Source\PSoC5/UART_Maxbotix.c **** 
 561:.\Generated_Source\PSoC5/UART_Maxbotix.c ****         #if(UART_Maxbotix_RXBUFFERSIZE > UART_Maxbotix_FIFO_LENGTH)
 562:.\Generated_Source\PSoC5/UART_Maxbotix.c ****             uint8 loc_rxBufferRead;
 563:.\Generated_Source\PSoC5/UART_Maxbotix.c ****             uint8 loc_rxBufferWrite;
 564:.\Generated_Source\PSoC5/UART_Maxbotix.c ****             /* Protect variables that could change on interrupt. */
 565:.\Generated_Source\PSoC5/UART_Maxbotix.c ****             /* Disable Rx interrupt. */
 566:.\Generated_Source\PSoC5/UART_Maxbotix.c ****             #if(UART_Maxbotix_RX_INTERRUPT_ENABLED)
 567:.\Generated_Source\PSoC5/UART_Maxbotix.c ****                 UART_Maxbotix_DisableRxInt();
 568:.\Generated_Source\PSoC5/UART_Maxbotix.c ****             #endif /* UART_Maxbotix_RX_INTERRUPT_ENABLED */
 569:.\Generated_Source\PSoC5/UART_Maxbotix.c ****             loc_rxBufferRead = UART_Maxbotix_rxBufferRead;
 570:.\Generated_Source\PSoC5/UART_Maxbotix.c ****             loc_rxBufferWrite = UART_Maxbotix_rxBufferWrite;
 571:.\Generated_Source\PSoC5/UART_Maxbotix.c **** 
 572:.\Generated_Source\PSoC5/UART_Maxbotix.c ****             if( (UART_Maxbotix_rxBufferLoopDetect != 0u) || (loc_rxBufferRead != loc_rxBufferWrite)
 573:.\Generated_Source\PSoC5/UART_Maxbotix.c ****             {
 574:.\Generated_Source\PSoC5/UART_Maxbotix.c ****                 rxData = UART_Maxbotix_rxBuffer[loc_rxBufferRead];
 575:.\Generated_Source\PSoC5/UART_Maxbotix.c ****                 loc_rxBufferRead++;
 576:.\Generated_Source\PSoC5/UART_Maxbotix.c ****                 if(loc_rxBufferRead >= UART_Maxbotix_RXBUFFERSIZE)
 577:.\Generated_Source\PSoC5/UART_Maxbotix.c ****                 {
 578:.\Generated_Source\PSoC5/UART_Maxbotix.c ****                     loc_rxBufferRead = 0u;
 579:.\Generated_Source\PSoC5/UART_Maxbotix.c ****                 }
 580:.\Generated_Source\PSoC5/UART_Maxbotix.c ****                 /* Update the real pointer */
 581:.\Generated_Source\PSoC5/UART_Maxbotix.c ****                 UART_Maxbotix_rxBufferRead = loc_rxBufferRead;
 582:.\Generated_Source\PSoC5/UART_Maxbotix.c **** 
 583:.\Generated_Source\PSoC5/UART_Maxbotix.c ****                 if(UART_Maxbotix_rxBufferLoopDetect > 0u )
 584:.\Generated_Source\PSoC5/UART_Maxbotix.c ****                 {
 585:.\Generated_Source\PSoC5/UART_Maxbotix.c ****                     UART_Maxbotix_rxBufferLoopDetect = 0u;
 586:.\Generated_Source\PSoC5/UART_Maxbotix.c ****                     #if( (UART_Maxbotix_RX_INTERRUPT_ENABLED) && (UART_Maxbotix_FLOW_CONTROL != 0u)
 587:.\Generated_Source\PSoC5/UART_Maxbotix.c ****                         /* When Hardware Flow Control selected - return RX mask */
 588:.\Generated_Source\PSoC5/UART_Maxbotix.c ****                         #if( UART_Maxbotix_HD_ENABLED )
 589:.\Generated_Source\PSoC5/UART_Maxbotix.c ****                             if((UART_Maxbotix_CONTROL_REG & UART_Maxbotix_CTRL_HD_SEND) == 0u)
 590:.\Generated_Source\PSoC5/UART_Maxbotix.c ****                             {   /* In Half duplex mode return RX mask only if
 591:.\Generated_Source\PSoC5/UART_Maxbotix.c ****                                 *  RX configuration set, otherwise
 592:.\Generated_Source\PSoC5/UART_Maxbotix.c ****                                 *  mask will be returned in LoadRxConfig() API.
 593:.\Generated_Source\PSoC5/UART_Maxbotix.c ****                                 */
 594:.\Generated_Source\PSoC5/UART_Maxbotix.c ****                                 UART_Maxbotix_RXSTATUS_MASK_REG  |= UART_Maxbotix_RX_STS_FIFO_NOTEM
 595:.\Generated_Source\PSoC5/UART_Maxbotix.c ****                             }
 596:.\Generated_Source\PSoC5/UART_Maxbotix.c ****                         #else
ARM GAS  C:\Users\cps\AppData\Local\Temp\ccsuJiMa.s 			page 17


 597:.\Generated_Source\PSoC5/UART_Maxbotix.c ****                             UART_Maxbotix_RXSTATUS_MASK_REG  |= UART_Maxbotix_RX_STS_FIFO_NOTEMPTY;
 598:.\Generated_Source\PSoC5/UART_Maxbotix.c ****                         #endif /* end UART_Maxbotix_HD_ENABLED */
 599:.\Generated_Source\PSoC5/UART_Maxbotix.c ****                     #endif /* UART_Maxbotix_RX_INTERRUPT_ENABLED and Hardware flow control*/
 600:.\Generated_Source\PSoC5/UART_Maxbotix.c ****                 }
 601:.\Generated_Source\PSoC5/UART_Maxbotix.c **** 
 602:.\Generated_Source\PSoC5/UART_Maxbotix.c ****             }
 603:.\Generated_Source\PSoC5/UART_Maxbotix.c ****             else
 604:.\Generated_Source\PSoC5/UART_Maxbotix.c ****             {   rxStatus = UART_Maxbotix_RXSTATUS_REG;
 605:.\Generated_Source\PSoC5/UART_Maxbotix.c ****                 if((rxStatus & UART_Maxbotix_RX_STS_FIFO_NOTEMPTY) != 0u)
 606:.\Generated_Source\PSoC5/UART_Maxbotix.c ****                 {   /* Read received data from FIFO*/
 607:.\Generated_Source\PSoC5/UART_Maxbotix.c ****                     rxData = UART_Maxbotix_RXDATA_REG;
 608:.\Generated_Source\PSoC5/UART_Maxbotix.c ****                     /*Check status on error*/
 609:.\Generated_Source\PSoC5/UART_Maxbotix.c ****                     if((rxStatus & (UART_Maxbotix_RX_STS_BREAK | UART_Maxbotix_RX_STS_PAR_ERROR |
 610:.\Generated_Source\PSoC5/UART_Maxbotix.c ****                                    UART_Maxbotix_RX_STS_STOP_ERROR | UART_Maxbotix_RX_STS_OVERRUN))
 611:.\Generated_Source\PSoC5/UART_Maxbotix.c ****                     {
 612:.\Generated_Source\PSoC5/UART_Maxbotix.c ****                         rxData = 0u;
 613:.\Generated_Source\PSoC5/UART_Maxbotix.c ****                     }
 614:.\Generated_Source\PSoC5/UART_Maxbotix.c ****                 }
 615:.\Generated_Source\PSoC5/UART_Maxbotix.c ****             }
 616:.\Generated_Source\PSoC5/UART_Maxbotix.c **** 
 617:.\Generated_Source\PSoC5/UART_Maxbotix.c ****             /* Enable Rx interrupt. */
 618:.\Generated_Source\PSoC5/UART_Maxbotix.c ****             #if(UART_Maxbotix_RX_INTERRUPT_ENABLED)
 619:.\Generated_Source\PSoC5/UART_Maxbotix.c ****                 UART_Maxbotix_EnableRxInt();
 620:.\Generated_Source\PSoC5/UART_Maxbotix.c ****             #endif /* UART_Maxbotix_RX_INTERRUPT_ENABLED */
 621:.\Generated_Source\PSoC5/UART_Maxbotix.c **** 
 622:.\Generated_Source\PSoC5/UART_Maxbotix.c ****         #else /* UART_Maxbotix_RXBUFFERSIZE > UART_Maxbotix_FIFO_LENGTH */
 623:.\Generated_Source\PSoC5/UART_Maxbotix.c **** 
 624:.\Generated_Source\PSoC5/UART_Maxbotix.c ****             rxStatus =UART_Maxbotix_RXSTATUS_REG;
 312              		.loc 1 624 0
 313 0000 084B     		ldr	r3, .L32
 314 0002 1B78     		ldrb	r3, [r3]	@ zero_extendqisi2
 315 0004 DBB2     		uxtb	r3, r3
 316              	.LVL18:
 625:.\Generated_Source\PSoC5/UART_Maxbotix.c ****             if((rxStatus & UART_Maxbotix_RX_STS_FIFO_NOTEMPTY) != 0u)
 317              		.loc 1 625 0
 318 0006 13F0200F 		tst	r3, #32
 319 000a 06D0     		beq	.L30
 626:.\Generated_Source\PSoC5/UART_Maxbotix.c ****             {   /* Read received data from FIFO*/
 627:.\Generated_Source\PSoC5/UART_Maxbotix.c ****                 rxData = UART_Maxbotix_RXDATA_REG;
 320              		.loc 1 627 0
 321 000c 064A     		ldr	r2, .L32+4
 322 000e 1078     		ldrb	r0, [r2]	@ zero_extendqisi2
 323 0010 C0B2     		uxtb	r0, r0
 324              	.LVL19:
 628:.\Generated_Source\PSoC5/UART_Maxbotix.c ****                 /*Check status on error*/
 629:.\Generated_Source\PSoC5/UART_Maxbotix.c ****                 if((rxStatus & (UART_Maxbotix_RX_STS_BREAK | UART_Maxbotix_RX_STS_PAR_ERROR |
 325              		.loc 1 629 0
 326 0012 13F01E0F 		tst	r3, #30
 327 0016 02D1     		bne	.L31
 328 0018 7047     		bx	lr
 329              	.LVL20:
 330              	.L30:
 558:.\Generated_Source\PSoC5/UART_Maxbotix.c ****         uint8 rxStatus;
 331              		.loc 1 558 0
 332 001a 0020     		movs	r0, #0
 333 001c 7047     		bx	lr
 334              	.LVL21:
ARM GAS  C:\Users\cps\AppData\Local\Temp\ccsuJiMa.s 			page 18


 335              	.L31:
 630:.\Generated_Source\PSoC5/UART_Maxbotix.c ****                                UART_Maxbotix_RX_STS_STOP_ERROR | UART_Maxbotix_RX_STS_OVERRUN)) != 
 631:.\Generated_Source\PSoC5/UART_Maxbotix.c ****                 {
 632:.\Generated_Source\PSoC5/UART_Maxbotix.c ****                     rxData = 0u;
 336              		.loc 1 632 0
 337 001e 0020     		movs	r0, #0
 338              	.LVL22:
 633:.\Generated_Source\PSoC5/UART_Maxbotix.c ****                 }
 634:.\Generated_Source\PSoC5/UART_Maxbotix.c ****             }
 635:.\Generated_Source\PSoC5/UART_Maxbotix.c ****         #endif /* UART_Maxbotix_RXBUFFERSIZE > UART_Maxbotix_FIFO_LENGTH */
 636:.\Generated_Source\PSoC5/UART_Maxbotix.c **** 
 637:.\Generated_Source\PSoC5/UART_Maxbotix.c ****         return(rxData);
 638:.\Generated_Source\PSoC5/UART_Maxbotix.c ****     }
 339              		.loc 1 638 0
 340 0020 7047     		bx	lr
 341              	.L33:
 342 0022 00BF     		.align	2
 343              	.L32:
 344 0024 62640040 		.word	1073767522
 345 0028 42640040 		.word	1073767490
 346              		.cfi_endproc
 347              	.LFE9:
 348              		.size	UART_Maxbotix_GetChar, .-UART_Maxbotix_GetChar
 349              		.section	.text.UART_Maxbotix_GetByte,"ax",%progbits
 350              		.align	2
 351              		.global	UART_Maxbotix_GetByte
 352              		.thumb
 353              		.thumb_func
 354              		.type	UART_Maxbotix_GetByte, %function
 355              	UART_Maxbotix_GetByte:
 356              	.LFB10:
 639:.\Generated_Source\PSoC5/UART_Maxbotix.c **** 
 640:.\Generated_Source\PSoC5/UART_Maxbotix.c **** 
 641:.\Generated_Source\PSoC5/UART_Maxbotix.c ****     /*******************************************************************************
 642:.\Generated_Source\PSoC5/UART_Maxbotix.c ****     * Function Name: UART_Maxbotix_GetByte
 643:.\Generated_Source\PSoC5/UART_Maxbotix.c ****     ********************************************************************************
 644:.\Generated_Source\PSoC5/UART_Maxbotix.c ****     *
 645:.\Generated_Source\PSoC5/UART_Maxbotix.c ****     * Summary:
 646:.\Generated_Source\PSoC5/UART_Maxbotix.c ****     *  Grab the next available byte of data from the recieve FIFO
 647:.\Generated_Source\PSoC5/UART_Maxbotix.c ****     *
 648:.\Generated_Source\PSoC5/UART_Maxbotix.c ****     * Parameters:
 649:.\Generated_Source\PSoC5/UART_Maxbotix.c ****     *  None.
 650:.\Generated_Source\PSoC5/UART_Maxbotix.c ****     *
 651:.\Generated_Source\PSoC5/UART_Maxbotix.c ****     * Return:
 652:.\Generated_Source\PSoC5/UART_Maxbotix.c ****     *  MSB contains Status Register and LSB contains UART RX data
 653:.\Generated_Source\PSoC5/UART_Maxbotix.c ****     *
 654:.\Generated_Source\PSoC5/UART_Maxbotix.c ****     * Reentrant:
 655:.\Generated_Source\PSoC5/UART_Maxbotix.c ****     *  No.
 656:.\Generated_Source\PSoC5/UART_Maxbotix.c ****     *
 657:.\Generated_Source\PSoC5/UART_Maxbotix.c ****     *******************************************************************************/
 658:.\Generated_Source\PSoC5/UART_Maxbotix.c ****     uint16 UART_Maxbotix_GetByte(void) 
 659:.\Generated_Source\PSoC5/UART_Maxbotix.c ****     {
 357              		.loc 1 659 0
 358              		.cfi_startproc
 359              		@ args = 0, pretend = 0, frame = 0
 360              		@ frame_needed = 0, uses_anonymous_args = 0
 361 0000 10B5     		push	{r4, lr}
ARM GAS  C:\Users\cps\AppData\Local\Temp\ccsuJiMa.s 			page 19


 362              		.cfi_def_cfa_offset 8
 363              		.cfi_offset 4, -8
 364              		.cfi_offset 14, -4
 660:.\Generated_Source\PSoC5/UART_Maxbotix.c ****         return ( ((uint16)UART_Maxbotix_ReadRxStatus() << 8u) | UART_Maxbotix_ReadRxData() );
 365              		.loc 1 660 0
 366 0002 FFF7FEFF 		bl	UART_Maxbotix_ReadRxStatus
 367              	.LVL23:
 368 0006 0402     		lsls	r4, r0, #8
 369 0008 FFF7FEFF 		bl	UART_Maxbotix_ReadRxData
 370              	.LVL24:
 371 000c 2043     		orrs	r0, r0, r4
 661:.\Generated_Source\PSoC5/UART_Maxbotix.c ****     }
 372              		.loc 1 661 0
 373 000e 80B2     		uxth	r0, r0
 374 0010 10BD     		pop	{r4, pc}
 375              		.cfi_endproc
 376              	.LFE10:
 377              		.size	UART_Maxbotix_GetByte, .-UART_Maxbotix_GetByte
 378 0012 00BF     		.section	.text.UART_Maxbotix_GetRxBufferSize,"ax",%progbits
 379              		.align	2
 380              		.global	UART_Maxbotix_GetRxBufferSize
 381              		.thumb
 382              		.thumb_func
 383              		.type	UART_Maxbotix_GetRxBufferSize, %function
 384              	UART_Maxbotix_GetRxBufferSize:
 385              	.LFB11:
 662:.\Generated_Source\PSoC5/UART_Maxbotix.c **** 
 663:.\Generated_Source\PSoC5/UART_Maxbotix.c **** 
 664:.\Generated_Source\PSoC5/UART_Maxbotix.c ****     /*******************************************************************************
 665:.\Generated_Source\PSoC5/UART_Maxbotix.c ****     * Function Name: UART_Maxbotix_GetRxBufferSize
 666:.\Generated_Source\PSoC5/UART_Maxbotix.c ****     ********************************************************************************
 667:.\Generated_Source\PSoC5/UART_Maxbotix.c ****     *
 668:.\Generated_Source\PSoC5/UART_Maxbotix.c ****     * Summary:
 669:.\Generated_Source\PSoC5/UART_Maxbotix.c ****     *  Determine the amount of bytes left in the RX buffer and return the count in
 670:.\Generated_Source\PSoC5/UART_Maxbotix.c ****     *  bytes
 671:.\Generated_Source\PSoC5/UART_Maxbotix.c ****     *
 672:.\Generated_Source\PSoC5/UART_Maxbotix.c ****     * Parameters:
 673:.\Generated_Source\PSoC5/UART_Maxbotix.c ****     *  None.
 674:.\Generated_Source\PSoC5/UART_Maxbotix.c ****     *
 675:.\Generated_Source\PSoC5/UART_Maxbotix.c ****     * Return:
 676:.\Generated_Source\PSoC5/UART_Maxbotix.c ****     *  uint8: Integer count of the number of bytes left
 677:.\Generated_Source\PSoC5/UART_Maxbotix.c ****     *  in the RX buffer
 678:.\Generated_Source\PSoC5/UART_Maxbotix.c ****     *
 679:.\Generated_Source\PSoC5/UART_Maxbotix.c ****     * Global Variables:
 680:.\Generated_Source\PSoC5/UART_Maxbotix.c ****     *  UART_Maxbotix_rxBufferWrite - used to calculate left bytes.
 681:.\Generated_Source\PSoC5/UART_Maxbotix.c ****     *  UART_Maxbotix_rxBufferRead - used to calculate left bytes.
 682:.\Generated_Source\PSoC5/UART_Maxbotix.c ****     *  UART_Maxbotix_rxBufferLoopDetect - checked to decide left bytes amount.
 683:.\Generated_Source\PSoC5/UART_Maxbotix.c ****     *
 684:.\Generated_Source\PSoC5/UART_Maxbotix.c ****     * Reentrant:
 685:.\Generated_Source\PSoC5/UART_Maxbotix.c ****     *  No.
 686:.\Generated_Source\PSoC5/UART_Maxbotix.c ****     *
 687:.\Generated_Source\PSoC5/UART_Maxbotix.c ****     * Theory:
 688:.\Generated_Source\PSoC5/UART_Maxbotix.c ****     *  Allows the user to find out how full the RX Buffer is.
 689:.\Generated_Source\PSoC5/UART_Maxbotix.c ****     *
 690:.\Generated_Source\PSoC5/UART_Maxbotix.c ****     *******************************************************************************/
 691:.\Generated_Source\PSoC5/UART_Maxbotix.c ****     uint8 UART_Maxbotix_GetRxBufferSize(void)
 692:.\Generated_Source\PSoC5/UART_Maxbotix.c ****                                                             
ARM GAS  C:\Users\cps\AppData\Local\Temp\ccsuJiMa.s 			page 20


 693:.\Generated_Source\PSoC5/UART_Maxbotix.c ****     {
 386              		.loc 1 693 0
 387              		.cfi_startproc
 388              		@ args = 0, pretend = 0, frame = 0
 389              		@ frame_needed = 0, uses_anonymous_args = 0
 390              		@ link register save eliminated.
 694:.\Generated_Source\PSoC5/UART_Maxbotix.c ****         uint8 size;
 695:.\Generated_Source\PSoC5/UART_Maxbotix.c **** 
 696:.\Generated_Source\PSoC5/UART_Maxbotix.c ****         #if(UART_Maxbotix_RXBUFFERSIZE > UART_Maxbotix_FIFO_LENGTH)
 697:.\Generated_Source\PSoC5/UART_Maxbotix.c **** 
 698:.\Generated_Source\PSoC5/UART_Maxbotix.c ****             /* Disable Rx interrupt. */
 699:.\Generated_Source\PSoC5/UART_Maxbotix.c ****             /* Protect variables that could change on interrupt. */
 700:.\Generated_Source\PSoC5/UART_Maxbotix.c ****             #if(UART_Maxbotix_RX_INTERRUPT_ENABLED)
 701:.\Generated_Source\PSoC5/UART_Maxbotix.c ****                 UART_Maxbotix_DisableRxInt();
 702:.\Generated_Source\PSoC5/UART_Maxbotix.c ****             #endif /* UART_Maxbotix_RX_INTERRUPT_ENABLED */
 703:.\Generated_Source\PSoC5/UART_Maxbotix.c **** 
 704:.\Generated_Source\PSoC5/UART_Maxbotix.c ****             if(UART_Maxbotix_rxBufferRead == UART_Maxbotix_rxBufferWrite)
 705:.\Generated_Source\PSoC5/UART_Maxbotix.c ****             {
 706:.\Generated_Source\PSoC5/UART_Maxbotix.c ****                 if(UART_Maxbotix_rxBufferLoopDetect > 0u)
 707:.\Generated_Source\PSoC5/UART_Maxbotix.c ****                 {
 708:.\Generated_Source\PSoC5/UART_Maxbotix.c ****                     size = UART_Maxbotix_RXBUFFERSIZE;
 709:.\Generated_Source\PSoC5/UART_Maxbotix.c ****                 }
 710:.\Generated_Source\PSoC5/UART_Maxbotix.c ****                 else
 711:.\Generated_Source\PSoC5/UART_Maxbotix.c ****                 {
 712:.\Generated_Source\PSoC5/UART_Maxbotix.c ****                     size = 0u;
 713:.\Generated_Source\PSoC5/UART_Maxbotix.c ****                 }
 714:.\Generated_Source\PSoC5/UART_Maxbotix.c ****             }
 715:.\Generated_Source\PSoC5/UART_Maxbotix.c ****             else if(UART_Maxbotix_rxBufferRead < UART_Maxbotix_rxBufferWrite)
 716:.\Generated_Source\PSoC5/UART_Maxbotix.c ****             {
 717:.\Generated_Source\PSoC5/UART_Maxbotix.c ****                 size = (UART_Maxbotix_rxBufferWrite - UART_Maxbotix_rxBufferRead);
 718:.\Generated_Source\PSoC5/UART_Maxbotix.c ****             }
 719:.\Generated_Source\PSoC5/UART_Maxbotix.c ****             else
 720:.\Generated_Source\PSoC5/UART_Maxbotix.c ****             {
 721:.\Generated_Source\PSoC5/UART_Maxbotix.c ****                 size = (UART_Maxbotix_RXBUFFERSIZE - UART_Maxbotix_rxBufferRead) + UART_Maxbotix_rx
 722:.\Generated_Source\PSoC5/UART_Maxbotix.c ****             }
 723:.\Generated_Source\PSoC5/UART_Maxbotix.c **** 
 724:.\Generated_Source\PSoC5/UART_Maxbotix.c ****             /* Enable Rx interrupt. */
 725:.\Generated_Source\PSoC5/UART_Maxbotix.c ****             #if(UART_Maxbotix_RX_INTERRUPT_ENABLED)
 726:.\Generated_Source\PSoC5/UART_Maxbotix.c ****                 UART_Maxbotix_EnableRxInt();
 727:.\Generated_Source\PSoC5/UART_Maxbotix.c ****             #endif /* End UART_Maxbotix_RX_INTERRUPT_ENABLED */
 728:.\Generated_Source\PSoC5/UART_Maxbotix.c **** 
 729:.\Generated_Source\PSoC5/UART_Maxbotix.c ****         #else /* UART_Maxbotix_RXBUFFERSIZE > UART_Maxbotix_FIFO_LENGTH */
 730:.\Generated_Source\PSoC5/UART_Maxbotix.c **** 
 731:.\Generated_Source\PSoC5/UART_Maxbotix.c ****             /* We can only know if there is data in the fifo. */
 732:.\Generated_Source\PSoC5/UART_Maxbotix.c ****             size = ((UART_Maxbotix_RXSTATUS_REG & UART_Maxbotix_RX_STS_FIFO_NOTEMPTY) != 0u) ? 1u :
 391              		.loc 1 732 0
 392 0000 044B     		ldr	r3, .L39
 393 0002 1B78     		ldrb	r3, [r3]	@ zero_extendqisi2
 394 0004 13F0200F 		tst	r3, #32
 395 0008 01D0     		beq	.L38
 396 000a 0120     		movs	r0, #1
 397 000c 7047     		bx	lr
 398              	.L38:
 399 000e 0020     		movs	r0, #0
 400              	.LVL25:
 733:.\Generated_Source\PSoC5/UART_Maxbotix.c **** 
 734:.\Generated_Source\PSoC5/UART_Maxbotix.c ****         #endif /* End UART_Maxbotix_RXBUFFERSIZE > UART_Maxbotix_FIFO_LENGTH */
ARM GAS  C:\Users\cps\AppData\Local\Temp\ccsuJiMa.s 			page 21


 735:.\Generated_Source\PSoC5/UART_Maxbotix.c **** 
 736:.\Generated_Source\PSoC5/UART_Maxbotix.c ****         return(size);
 737:.\Generated_Source\PSoC5/UART_Maxbotix.c ****     }
 401              		.loc 1 737 0
 402 0010 7047     		bx	lr
 403              	.L40:
 404 0012 00BF     		.align	2
 405              	.L39:
 406 0014 62640040 		.word	1073767522
 407              		.cfi_endproc
 408              	.LFE11:
 409              		.size	UART_Maxbotix_GetRxBufferSize, .-UART_Maxbotix_GetRxBufferSize
 410              		.section	.text.UART_Maxbotix_ClearRxBuffer,"ax",%progbits
 411              		.align	2
 412              		.global	UART_Maxbotix_ClearRxBuffer
 413              		.thumb
 414              		.thumb_func
 415              		.type	UART_Maxbotix_ClearRxBuffer, %function
 416              	UART_Maxbotix_ClearRxBuffer:
 417              	.LFB12:
 738:.\Generated_Source\PSoC5/UART_Maxbotix.c **** 
 739:.\Generated_Source\PSoC5/UART_Maxbotix.c **** 
 740:.\Generated_Source\PSoC5/UART_Maxbotix.c ****     /*******************************************************************************
 741:.\Generated_Source\PSoC5/UART_Maxbotix.c ****     * Function Name: UART_Maxbotix_ClearRxBuffer
 742:.\Generated_Source\PSoC5/UART_Maxbotix.c ****     ********************************************************************************
 743:.\Generated_Source\PSoC5/UART_Maxbotix.c ****     *
 744:.\Generated_Source\PSoC5/UART_Maxbotix.c ****     * Summary:
 745:.\Generated_Source\PSoC5/UART_Maxbotix.c ****     *  Clears the RX RAM buffer by setting the read and write pointers both to zero.
 746:.\Generated_Source\PSoC5/UART_Maxbotix.c ****     *  Clears hardware RX FIFO.
 747:.\Generated_Source\PSoC5/UART_Maxbotix.c ****     *
 748:.\Generated_Source\PSoC5/UART_Maxbotix.c ****     * Parameters:
 749:.\Generated_Source\PSoC5/UART_Maxbotix.c ****     *  None.
 750:.\Generated_Source\PSoC5/UART_Maxbotix.c ****     *
 751:.\Generated_Source\PSoC5/UART_Maxbotix.c ****     * Return:
 752:.\Generated_Source\PSoC5/UART_Maxbotix.c ****     *  None.
 753:.\Generated_Source\PSoC5/UART_Maxbotix.c ****     *
 754:.\Generated_Source\PSoC5/UART_Maxbotix.c ****     * Global Variables:
 755:.\Generated_Source\PSoC5/UART_Maxbotix.c ****     *  UART_Maxbotix_rxBufferWrite - cleared to zero.
 756:.\Generated_Source\PSoC5/UART_Maxbotix.c ****     *  UART_Maxbotix_rxBufferRead - cleared to zero.
 757:.\Generated_Source\PSoC5/UART_Maxbotix.c ****     *  UART_Maxbotix_rxBufferLoopDetect - cleared to zero.
 758:.\Generated_Source\PSoC5/UART_Maxbotix.c ****     *  UART_Maxbotix_rxBufferOverflow - cleared to zero.
 759:.\Generated_Source\PSoC5/UART_Maxbotix.c ****     *
 760:.\Generated_Source\PSoC5/UART_Maxbotix.c ****     * Reentrant:
 761:.\Generated_Source\PSoC5/UART_Maxbotix.c ****     *  No.
 762:.\Generated_Source\PSoC5/UART_Maxbotix.c ****     *
 763:.\Generated_Source\PSoC5/UART_Maxbotix.c ****     * Theory:
 764:.\Generated_Source\PSoC5/UART_Maxbotix.c ****     *  Setting the pointers to zero makes the system believe there is no data to
 765:.\Generated_Source\PSoC5/UART_Maxbotix.c ****     *  read and writing will resume at address 0 overwriting any data that may
 766:.\Generated_Source\PSoC5/UART_Maxbotix.c ****     *  have remained in the RAM.
 767:.\Generated_Source\PSoC5/UART_Maxbotix.c ****     *
 768:.\Generated_Source\PSoC5/UART_Maxbotix.c ****     * Side Effects:
 769:.\Generated_Source\PSoC5/UART_Maxbotix.c ****     *  Any received data not read from the RAM or FIFO buffer will be lost.
 770:.\Generated_Source\PSoC5/UART_Maxbotix.c ****     *******************************************************************************/
 771:.\Generated_Source\PSoC5/UART_Maxbotix.c ****     void UART_Maxbotix_ClearRxBuffer(void) 
 772:.\Generated_Source\PSoC5/UART_Maxbotix.c ****     {
 418              		.loc 1 772 0
 419              		.cfi_startproc
ARM GAS  C:\Users\cps\AppData\Local\Temp\ccsuJiMa.s 			page 22


 420              		@ args = 0, pretend = 0, frame = 0
 421              		@ frame_needed = 0, uses_anonymous_args = 0
 422 0000 08B5     		push	{r3, lr}
 423              		.cfi_def_cfa_offset 8
 424              		.cfi_offset 3, -8
 425              		.cfi_offset 14, -4
 773:.\Generated_Source\PSoC5/UART_Maxbotix.c ****         uint8 enableInterrupts;
 774:.\Generated_Source\PSoC5/UART_Maxbotix.c **** 
 775:.\Generated_Source\PSoC5/UART_Maxbotix.c ****         /* clear the HW FIFO */
 776:.\Generated_Source\PSoC5/UART_Maxbotix.c ****         /* Enter critical section */
 777:.\Generated_Source\PSoC5/UART_Maxbotix.c ****         enableInterrupts = CyEnterCriticalSection();
 426              		.loc 1 777 0
 427 0002 FFF7FEFF 		bl	CyEnterCriticalSection
 428              	.LVL26:
 778:.\Generated_Source\PSoC5/UART_Maxbotix.c ****         UART_Maxbotix_RXDATA_AUX_CTL_REG |=  UART_Maxbotix_RX_FIFO_CLR;
 429              		.loc 1 778 0
 430 0006 064B     		ldr	r3, .L43
 431 0008 1A78     		ldrb	r2, [r3]	@ zero_extendqisi2
 432 000a 42F00102 		orr	r2, r2, #1
 433 000e 1A70     		strb	r2, [r3]
 779:.\Generated_Source\PSoC5/UART_Maxbotix.c ****         UART_Maxbotix_RXDATA_AUX_CTL_REG &= (uint8)~UART_Maxbotix_RX_FIFO_CLR;
 434              		.loc 1 779 0
 435 0010 1A78     		ldrb	r2, [r3]	@ zero_extendqisi2
 436 0012 02F0FE02 		and	r2, r2, #254
 437 0016 1A70     		strb	r2, [r3]
 780:.\Generated_Source\PSoC5/UART_Maxbotix.c ****         /* Exit critical section */
 781:.\Generated_Source\PSoC5/UART_Maxbotix.c ****         CyExitCriticalSection(enableInterrupts);
 438              		.loc 1 781 0
 439 0018 FFF7FEFF 		bl	CyExitCriticalSection
 440              	.LVL27:
 441 001c 08BD     		pop	{r3, pc}
 442              	.L44:
 443 001e 00BF     		.align	2
 444              	.L43:
 445 0020 92640040 		.word	1073767570
 446              		.cfi_endproc
 447              	.LFE12:
 448              		.size	UART_Maxbotix_ClearRxBuffer, .-UART_Maxbotix_ClearRxBuffer
 449              		.section	.text.UART_Maxbotix_SetRxAddressMode,"ax",%progbits
 450              		.align	2
 451              		.global	UART_Maxbotix_SetRxAddressMode
 452              		.thumb
 453              		.thumb_func
 454              		.type	UART_Maxbotix_SetRxAddressMode, %function
 455              	UART_Maxbotix_SetRxAddressMode:
 456              	.LFB13:
 782:.\Generated_Source\PSoC5/UART_Maxbotix.c **** 
 783:.\Generated_Source\PSoC5/UART_Maxbotix.c ****         #if(UART_Maxbotix_RXBUFFERSIZE > UART_Maxbotix_FIFO_LENGTH)
 784:.\Generated_Source\PSoC5/UART_Maxbotix.c ****             /* Disable Rx interrupt. */
 785:.\Generated_Source\PSoC5/UART_Maxbotix.c ****             /* Protect variables that could change on interrupt. */
 786:.\Generated_Source\PSoC5/UART_Maxbotix.c ****             #if(UART_Maxbotix_RX_INTERRUPT_ENABLED)
 787:.\Generated_Source\PSoC5/UART_Maxbotix.c ****                 UART_Maxbotix_DisableRxInt();
 788:.\Generated_Source\PSoC5/UART_Maxbotix.c ****             #endif /* End UART_Maxbotix_RX_INTERRUPT_ENABLED */
 789:.\Generated_Source\PSoC5/UART_Maxbotix.c **** 
 790:.\Generated_Source\PSoC5/UART_Maxbotix.c ****             UART_Maxbotix_rxBufferRead = 0u;
 791:.\Generated_Source\PSoC5/UART_Maxbotix.c ****             UART_Maxbotix_rxBufferWrite = 0u;
 792:.\Generated_Source\PSoC5/UART_Maxbotix.c ****             UART_Maxbotix_rxBufferLoopDetect = 0u;
ARM GAS  C:\Users\cps\AppData\Local\Temp\ccsuJiMa.s 			page 23


 793:.\Generated_Source\PSoC5/UART_Maxbotix.c ****             UART_Maxbotix_rxBufferOverflow = 0u;
 794:.\Generated_Source\PSoC5/UART_Maxbotix.c **** 
 795:.\Generated_Source\PSoC5/UART_Maxbotix.c ****             /* Enable Rx interrupt. */
 796:.\Generated_Source\PSoC5/UART_Maxbotix.c ****             #if(UART_Maxbotix_RX_INTERRUPT_ENABLED)
 797:.\Generated_Source\PSoC5/UART_Maxbotix.c ****                 UART_Maxbotix_EnableRxInt();
 798:.\Generated_Source\PSoC5/UART_Maxbotix.c ****             #endif /* End UART_Maxbotix_RX_INTERRUPT_ENABLED */
 799:.\Generated_Source\PSoC5/UART_Maxbotix.c ****         #endif /* End UART_Maxbotix_RXBUFFERSIZE > UART_Maxbotix_FIFO_LENGTH */
 800:.\Generated_Source\PSoC5/UART_Maxbotix.c **** 
 801:.\Generated_Source\PSoC5/UART_Maxbotix.c ****     }
 802:.\Generated_Source\PSoC5/UART_Maxbotix.c **** 
 803:.\Generated_Source\PSoC5/UART_Maxbotix.c **** 
 804:.\Generated_Source\PSoC5/UART_Maxbotix.c ****     /*******************************************************************************
 805:.\Generated_Source\PSoC5/UART_Maxbotix.c ****     * Function Name: UART_Maxbotix_SetRxAddressMode
 806:.\Generated_Source\PSoC5/UART_Maxbotix.c ****     ********************************************************************************
 807:.\Generated_Source\PSoC5/UART_Maxbotix.c ****     *
 808:.\Generated_Source\PSoC5/UART_Maxbotix.c ****     * Summary:
 809:.\Generated_Source\PSoC5/UART_Maxbotix.c ****     *  Set the receive addressing mode
 810:.\Generated_Source\PSoC5/UART_Maxbotix.c ****     *
 811:.\Generated_Source\PSoC5/UART_Maxbotix.c ****     * Parameters:
 812:.\Generated_Source\PSoC5/UART_Maxbotix.c ****     *  addressMode: Enumerated value indicating the mode of RX addressing
 813:.\Generated_Source\PSoC5/UART_Maxbotix.c ****     *  UART_Maxbotix__B_UART__AM_SW_BYTE_BYTE -  Software Byte-by-Byte address
 814:.\Generated_Source\PSoC5/UART_Maxbotix.c ****     *                                               detection
 815:.\Generated_Source\PSoC5/UART_Maxbotix.c ****     *  UART_Maxbotix__B_UART__AM_SW_DETECT_TO_BUFFER - Software Detect to Buffer
 816:.\Generated_Source\PSoC5/UART_Maxbotix.c ****     *                                               address detection
 817:.\Generated_Source\PSoC5/UART_Maxbotix.c ****     *  UART_Maxbotix__B_UART__AM_HW_BYTE_BY_BYTE - Hardware Byte-by-Byte address
 818:.\Generated_Source\PSoC5/UART_Maxbotix.c ****     *                                               detection
 819:.\Generated_Source\PSoC5/UART_Maxbotix.c ****     *  UART_Maxbotix__B_UART__AM_HW_DETECT_TO_BUFFER - Hardware Detect to Buffer
 820:.\Generated_Source\PSoC5/UART_Maxbotix.c ****     *                                               address detection
 821:.\Generated_Source\PSoC5/UART_Maxbotix.c ****     *  UART_Maxbotix__B_UART__AM_NONE - No address detection
 822:.\Generated_Source\PSoC5/UART_Maxbotix.c ****     *
 823:.\Generated_Source\PSoC5/UART_Maxbotix.c ****     * Return:
 824:.\Generated_Source\PSoC5/UART_Maxbotix.c ****     *  None.
 825:.\Generated_Source\PSoC5/UART_Maxbotix.c ****     *
 826:.\Generated_Source\PSoC5/UART_Maxbotix.c ****     * Global Variables:
 827:.\Generated_Source\PSoC5/UART_Maxbotix.c ****     *  UART_Maxbotix_rxAddressMode - the parameter stored in this variable for
 828:.\Generated_Source\PSoC5/UART_Maxbotix.c ****     *   the farther usage in RX ISR.
 829:.\Generated_Source\PSoC5/UART_Maxbotix.c ****     *  UART_Maxbotix_rxAddressDetected - set to initial state (0).
 830:.\Generated_Source\PSoC5/UART_Maxbotix.c ****     *
 831:.\Generated_Source\PSoC5/UART_Maxbotix.c ****     *******************************************************************************/
 832:.\Generated_Source\PSoC5/UART_Maxbotix.c ****     void UART_Maxbotix_SetRxAddressMode(uint8 addressMode)
 833:.\Generated_Source\PSoC5/UART_Maxbotix.c ****                                                         
 834:.\Generated_Source\PSoC5/UART_Maxbotix.c ****     {
 457              		.loc 1 834 0
 458              		.cfi_startproc
 459              		@ args = 0, pretend = 0, frame = 0
 460              		@ frame_needed = 0, uses_anonymous_args = 0
 461              		@ link register save eliminated.
 462              	.LVL28:
 463 0000 7047     		bx	lr
 464              		.cfi_endproc
 465              	.LFE13:
 466              		.size	UART_Maxbotix_SetRxAddressMode, .-UART_Maxbotix_SetRxAddressMode
 467 0002 00BF     		.section	.text.UART_Maxbotix_SetRxAddress1,"ax",%progbits
 468              		.align	2
 469              		.global	UART_Maxbotix_SetRxAddress1
 470              		.thumb
 471              		.thumb_func
ARM GAS  C:\Users\cps\AppData\Local\Temp\ccsuJiMa.s 			page 24


 472              		.type	UART_Maxbotix_SetRxAddress1, %function
 473              	UART_Maxbotix_SetRxAddress1:
 474              	.LFB14:
 835:.\Generated_Source\PSoC5/UART_Maxbotix.c ****         #if(UART_Maxbotix_RXHW_ADDRESS_ENABLED)
 836:.\Generated_Source\PSoC5/UART_Maxbotix.c ****             #if(UART_Maxbotix_CONTROL_REG_REMOVED)
 837:.\Generated_Source\PSoC5/UART_Maxbotix.c ****                 if(addressMode != 0u) { }     /* release compiler warning */
 838:.\Generated_Source\PSoC5/UART_Maxbotix.c ****             #else /* UART_Maxbotix_CONTROL_REG_REMOVED */
 839:.\Generated_Source\PSoC5/UART_Maxbotix.c ****                 uint8 tmpCtrl;
 840:.\Generated_Source\PSoC5/UART_Maxbotix.c ****                 tmpCtrl = UART_Maxbotix_CONTROL_REG & (uint8)~UART_Maxbotix_CTRL_RXADDR_MODE_MASK;
 841:.\Generated_Source\PSoC5/UART_Maxbotix.c ****                 tmpCtrl |= (uint8)(addressMode << UART_Maxbotix_CTRL_RXADDR_MODE0_SHIFT);
 842:.\Generated_Source\PSoC5/UART_Maxbotix.c ****                 UART_Maxbotix_CONTROL_REG = tmpCtrl;
 843:.\Generated_Source\PSoC5/UART_Maxbotix.c ****                 #if(UART_Maxbotix_RX_INTERRUPT_ENABLED && \
 844:.\Generated_Source\PSoC5/UART_Maxbotix.c ****                    (UART_Maxbotix_RXBUFFERSIZE > UART_Maxbotix_FIFO_LENGTH) )
 845:.\Generated_Source\PSoC5/UART_Maxbotix.c ****                     UART_Maxbotix_rxAddressMode = addressMode;
 846:.\Generated_Source\PSoC5/UART_Maxbotix.c ****                     UART_Maxbotix_rxAddressDetected = 0u;
 847:.\Generated_Source\PSoC5/UART_Maxbotix.c ****                 #endif /* End UART_Maxbotix_RXBUFFERSIZE > UART_Maxbotix_FIFO_LENGTH*/
 848:.\Generated_Source\PSoC5/UART_Maxbotix.c ****             #endif /* End UART_Maxbotix_CONTROL_REG_REMOVED */
 849:.\Generated_Source\PSoC5/UART_Maxbotix.c ****         #else /* UART_Maxbotix_RXHW_ADDRESS_ENABLED */
 850:.\Generated_Source\PSoC5/UART_Maxbotix.c ****             if(addressMode != 0u) { }     /* release compiler warning */
 851:.\Generated_Source\PSoC5/UART_Maxbotix.c ****         #endif /* End UART_Maxbotix_RXHW_ADDRESS_ENABLED */
 852:.\Generated_Source\PSoC5/UART_Maxbotix.c ****     }
 853:.\Generated_Source\PSoC5/UART_Maxbotix.c **** 
 854:.\Generated_Source\PSoC5/UART_Maxbotix.c **** 
 855:.\Generated_Source\PSoC5/UART_Maxbotix.c ****     /*******************************************************************************
 856:.\Generated_Source\PSoC5/UART_Maxbotix.c ****     * Function Name: UART_Maxbotix_SetRxAddress1
 857:.\Generated_Source\PSoC5/UART_Maxbotix.c ****     ********************************************************************************
 858:.\Generated_Source\PSoC5/UART_Maxbotix.c ****     *
 859:.\Generated_Source\PSoC5/UART_Maxbotix.c ****     * Summary:
 860:.\Generated_Source\PSoC5/UART_Maxbotix.c ****     *  Set the first hardware address compare value
 861:.\Generated_Source\PSoC5/UART_Maxbotix.c ****     *
 862:.\Generated_Source\PSoC5/UART_Maxbotix.c ****     * Parameters:
 863:.\Generated_Source\PSoC5/UART_Maxbotix.c ****     *  address
 864:.\Generated_Source\PSoC5/UART_Maxbotix.c ****     *
 865:.\Generated_Source\PSoC5/UART_Maxbotix.c ****     * Return:
 866:.\Generated_Source\PSoC5/UART_Maxbotix.c ****     *  None.
 867:.\Generated_Source\PSoC5/UART_Maxbotix.c ****     *
 868:.\Generated_Source\PSoC5/UART_Maxbotix.c ****     *******************************************************************************/
 869:.\Generated_Source\PSoC5/UART_Maxbotix.c ****     void UART_Maxbotix_SetRxAddress1(uint8 address) 
 870:.\Generated_Source\PSoC5/UART_Maxbotix.c **** 
 871:.\Generated_Source\PSoC5/UART_Maxbotix.c ****     {
 475              		.loc 1 871 0
 476              		.cfi_startproc
 477              		@ args = 0, pretend = 0, frame = 0
 478              		@ frame_needed = 0, uses_anonymous_args = 0
 479              		@ link register save eliminated.
 480              	.LVL29:
 872:.\Generated_Source\PSoC5/UART_Maxbotix.c ****         UART_Maxbotix_RXADDRESS1_REG = address;
 481              		.loc 1 872 0
 482 0000 014B     		ldr	r3, .L47
 483 0002 1870     		strb	r0, [r3]
 484 0004 7047     		bx	lr
 485              	.L48:
 486 0006 00BF     		.align	2
 487              	.L47:
 488 0008 22640040 		.word	1073767458
 489              		.cfi_endproc
 490              	.LFE14:
ARM GAS  C:\Users\cps\AppData\Local\Temp\ccsuJiMa.s 			page 25


 491              		.size	UART_Maxbotix_SetRxAddress1, .-UART_Maxbotix_SetRxAddress1
 492              		.section	.text.UART_Maxbotix_SetRxAddress2,"ax",%progbits
 493              		.align	2
 494              		.global	UART_Maxbotix_SetRxAddress2
 495              		.thumb
 496              		.thumb_func
 497              		.type	UART_Maxbotix_SetRxAddress2, %function
 498              	UART_Maxbotix_SetRxAddress2:
 499              	.LFB15:
 873:.\Generated_Source\PSoC5/UART_Maxbotix.c ****     }
 874:.\Generated_Source\PSoC5/UART_Maxbotix.c **** 
 875:.\Generated_Source\PSoC5/UART_Maxbotix.c **** 
 876:.\Generated_Source\PSoC5/UART_Maxbotix.c ****     /*******************************************************************************
 877:.\Generated_Source\PSoC5/UART_Maxbotix.c ****     * Function Name: UART_Maxbotix_SetRxAddress2
 878:.\Generated_Source\PSoC5/UART_Maxbotix.c ****     ********************************************************************************
 879:.\Generated_Source\PSoC5/UART_Maxbotix.c ****     *
 880:.\Generated_Source\PSoC5/UART_Maxbotix.c ****     * Summary:
 881:.\Generated_Source\PSoC5/UART_Maxbotix.c ****     *  Set the second hardware address compare value
 882:.\Generated_Source\PSoC5/UART_Maxbotix.c ****     *
 883:.\Generated_Source\PSoC5/UART_Maxbotix.c ****     * Parameters:
 884:.\Generated_Source\PSoC5/UART_Maxbotix.c ****     *  address
 885:.\Generated_Source\PSoC5/UART_Maxbotix.c ****     *
 886:.\Generated_Source\PSoC5/UART_Maxbotix.c ****     * Return:
 887:.\Generated_Source\PSoC5/UART_Maxbotix.c ****     *  None.
 888:.\Generated_Source\PSoC5/UART_Maxbotix.c ****     *
 889:.\Generated_Source\PSoC5/UART_Maxbotix.c ****     *******************************************************************************/
 890:.\Generated_Source\PSoC5/UART_Maxbotix.c ****     void UART_Maxbotix_SetRxAddress2(uint8 address) 
 891:.\Generated_Source\PSoC5/UART_Maxbotix.c ****     {
 500              		.loc 1 891 0
 501              		.cfi_startproc
 502              		@ args = 0, pretend = 0, frame = 0
 503              		@ frame_needed = 0, uses_anonymous_args = 0
 504              		@ link register save eliminated.
 505              	.LVL30:
 892:.\Generated_Source\PSoC5/UART_Maxbotix.c ****         UART_Maxbotix_RXADDRESS2_REG = address;
 506              		.loc 1 892 0
 507 0000 014B     		ldr	r3, .L50
 508 0002 1870     		strb	r0, [r3]
 509 0004 7047     		bx	lr
 510              	.L51:
 511 0006 00BF     		.align	2
 512              	.L50:
 513 0008 32640040 		.word	1073767474
 514              		.cfi_endproc
 515              	.LFE15:
 516              		.size	UART_Maxbotix_SetRxAddress2, .-UART_Maxbotix_SetRxAddress2
 517              		.global	UART_Maxbotix_initVar
 518              		.bss
 519              		.set	.LANCHOR0,. + 0
 520              		.type	UART_Maxbotix_initVar, %object
 521              		.size	UART_Maxbotix_initVar, 1
 522              	UART_Maxbotix_initVar:
 523 0000 00       		.space	1
 524              		.text
 525              	.Letext0:
 526              		.file 2 ".\\Generated_Source\\PSoC5\\cytypes.h"
 527              		.file 3 ".\\Generated_Source\\PSoC5\\UART_Maxbotix_IntClock.h"
ARM GAS  C:\Users\cps\AppData\Local\Temp\ccsuJiMa.s 			page 26


 528              		.file 4 ".\\Generated_Source\\PSoC5\\CyLib.h"