ARM GAS  C:\Users\karunmj\AppData\Local\Temp\ccbDwEwq.s 			page 1


   1              		.syntax unified
   2              		.cpu cortex-m3
   3              		.fpu softvfp
   4              		.eabi_attribute 20, 1
   5              		.eabi_attribute 21, 1
   6              		.eabi_attribute 23, 3
   7              		.eabi_attribute 24, 1
   8              		.eabi_attribute 25, 1
   9              		.eabi_attribute 26, 1
  10              		.eabi_attribute 30, 6
  11              		.eabi_attribute 18, 4
  12              		.thumb
  13              		.file	"Mixer_2_PM.c"
  20 0000 C0000000 		.text
  20      02007000 
  20      00000201 
  20      FB0E0D00 
  20      01010101 
  21              	.Ltext0:
  22              		.cfi_sections	.debug_frame
  23              		.bss
  24              		.align	2
  25              	Mixer_2_backup:
  26 0000 00000000 		.space	4
  27              		.section	.text.Mixer_2_SaveConfig,"ax",%progbits
  28              		.align	2
  29              		.global	Mixer_2_SaveConfig
  30              		.thumb
  31              		.thumb_func
  32              		.type	Mixer_2_SaveConfig, %function
  33              	Mixer_2_SaveConfig:
  34              	.LFB0:
  35              		.file 1 ".\\Generated_Source\\PSoC5\\Mixer_2_PM.c"
   1:.\Generated_Source\PSoC5/Mixer_2_PM.c **** /*******************************************************************************
   2:.\Generated_Source\PSoC5/Mixer_2_PM.c **** * File Name: Mixer_2_PM.c  
   3:.\Generated_Source\PSoC5/Mixer_2_PM.c **** * Version 2.0
   4:.\Generated_Source\PSoC5/Mixer_2_PM.c **** *
   5:.\Generated_Source\PSoC5/Mixer_2_PM.c **** * Description:
   6:.\Generated_Source\PSoC5/Mixer_2_PM.c **** *  This file provides the power manager source code to the API for 
   7:.\Generated_Source\PSoC5/Mixer_2_PM.c **** *  the MIXER component.
   8:.\Generated_Source\PSoC5/Mixer_2_PM.c **** *
   9:.\Generated_Source\PSoC5/Mixer_2_PM.c **** * Note:
  10:.\Generated_Source\PSoC5/Mixer_2_PM.c **** *
  11:.\Generated_Source\PSoC5/Mixer_2_PM.c **** *******************************************************************************
  12:.\Generated_Source\PSoC5/Mixer_2_PM.c **** * Copyright 2008-2012, Cypress Semiconductor Corporation.  All rights reserved.
  13:.\Generated_Source\PSoC5/Mixer_2_PM.c **** * You may use this file only in accordance with the license, terms, conditions, 
  14:.\Generated_Source\PSoC5/Mixer_2_PM.c **** * disclaimers, and limitations in the end user license agreement accompanying 
  15:.\Generated_Source\PSoC5/Mixer_2_PM.c **** * the software package with which this file was provided.
  16:.\Generated_Source\PSoC5/Mixer_2_PM.c **** *******************************************************************************/
  17:.\Generated_Source\PSoC5/Mixer_2_PM.c **** 
  18:.\Generated_Source\PSoC5/Mixer_2_PM.c **** #include "Mixer_2.h"
ARM GAS  C:\Users\karunmj\AppData\Local\Temp\ccbDwEwq.s 			page 2


  19:.\Generated_Source\PSoC5/Mixer_2_PM.c **** 
  20:.\Generated_Source\PSoC5/Mixer_2_PM.c **** static Mixer_2_backupStruct  Mixer_2_backup;
  21:.\Generated_Source\PSoC5/Mixer_2_PM.c **** 
  22:.\Generated_Source\PSoC5/Mixer_2_PM.c **** 
  23:.\Generated_Source\PSoC5/Mixer_2_PM.c **** /*******************************************************************************
  24:.\Generated_Source\PSoC5/Mixer_2_PM.c **** * Function Name: Mixer_2_SaveConfig
  25:.\Generated_Source\PSoC5/Mixer_2_PM.c **** ********************************************************************************
  26:.\Generated_Source\PSoC5/Mixer_2_PM.c **** *
  27:.\Generated_Source\PSoC5/Mixer_2_PM.c **** * Summary:
  28:.\Generated_Source\PSoC5/Mixer_2_PM.c **** *  Saves the current user configuration.
  29:.\Generated_Source\PSoC5/Mixer_2_PM.c **** *  
  30:.\Generated_Source\PSoC5/Mixer_2_PM.c **** * Parameters:  
  31:.\Generated_Source\PSoC5/Mixer_2_PM.c **** *  void.
  32:.\Generated_Source\PSoC5/Mixer_2_PM.c **** *
  33:.\Generated_Source\PSoC5/Mixer_2_PM.c **** * Return: 
  34:.\Generated_Source\PSoC5/Mixer_2_PM.c **** *  void.
  35:.\Generated_Source\PSoC5/Mixer_2_PM.c **** *
  36:.\Generated_Source\PSoC5/Mixer_2_PM.c **** *******************************************************************************/
  37:.\Generated_Source\PSoC5/Mixer_2_PM.c **** void Mixer_2_SaveConfig(void) 
  38:.\Generated_Source\PSoC5/Mixer_2_PM.c **** {
  36              		.loc 1 38 0
  37              		.cfi_startproc
  38              		@ args = 0, pretend = 0, frame = 0
  39              		@ frame_needed = 1, uses_anonymous_args = 0
  40              		@ link register save eliminated.
  41 0000 80B4     		push	{r7}
  42              	.LCFI0:
  43              		.cfi_def_cfa_offset 4
  44 0002 00AF     		add	r7, sp, #0
  45              		.cfi_offset 7, -4
  46              	.LCFI1:
  47              		.cfi_def_cfa_register 7
  39:.\Generated_Source\PSoC5/Mixer_2_PM.c ****     /* Nothing to save before entering into sleep mode as all the registers used 
  40:.\Generated_Source\PSoC5/Mixer_2_PM.c ****        here are retension registers. */
  41:.\Generated_Source\PSoC5/Mixer_2_PM.c **** }
  48              		.loc 1 41 0
  49 0004 BD46     		mov	sp, r7
  50 0006 80BC     		pop	{r7}
  51 0008 7047     		bx	lr
  52              		.cfi_endproc
  53              	.LFE0:
  54              		.size	Mixer_2_SaveConfig, .-Mixer_2_SaveConfig
  55 000a 00BF     		.section	.text.Mixer_2_RestoreConfig,"ax",%progbits
  56              		.align	2
  57              		.global	Mixer_2_RestoreConfig
  58              		.thumb
  59              		.thumb_func
  60              		.type	Mixer_2_RestoreConfig, %function
  61              	Mixer_2_RestoreConfig:
  62              	.LFB1:
  42:.\Generated_Source\PSoC5/Mixer_2_PM.c **** 
  43:.\Generated_Source\PSoC5/Mixer_2_PM.c **** 
  44:.\Generated_Source\PSoC5/Mixer_2_PM.c **** /*******************************************************************************
  45:.\Generated_Source\PSoC5/Mixer_2_PM.c **** * Function Name: Mixer_2_RestoreConfig
  46:.\Generated_Source\PSoC5/Mixer_2_PM.c **** ********************************************************************************
  47:.\Generated_Source\PSoC5/Mixer_2_PM.c **** *
  48:.\Generated_Source\PSoC5/Mixer_2_PM.c **** * Summary:
ARM GAS  C:\Users\karunmj\AppData\Local\Temp\ccbDwEwq.s 			page 3


  49:.\Generated_Source\PSoC5/Mixer_2_PM.c **** *  Restores the current user configuration.
  50:.\Generated_Source\PSoC5/Mixer_2_PM.c **** *
  51:.\Generated_Source\PSoC5/Mixer_2_PM.c **** * Parameters:  
  52:.\Generated_Source\PSoC5/Mixer_2_PM.c **** *  void.
  53:.\Generated_Source\PSoC5/Mixer_2_PM.c **** *
  54:.\Generated_Source\PSoC5/Mixer_2_PM.c **** * Return: 
  55:.\Generated_Source\PSoC5/Mixer_2_PM.c **** *  void
  56:.\Generated_Source\PSoC5/Mixer_2_PM.c **** *
  57:.\Generated_Source\PSoC5/Mixer_2_PM.c **** *******************************************************************************/
  58:.\Generated_Source\PSoC5/Mixer_2_PM.c **** void Mixer_2_RestoreConfig(void) 
  59:.\Generated_Source\PSoC5/Mixer_2_PM.c **** {
  63              		.loc 1 59 0
  64              		.cfi_startproc
  65              		@ args = 0, pretend = 0, frame = 0
  66              		@ frame_needed = 1, uses_anonymous_args = 0
  67              		@ link register save eliminated.
  68 0000 80B4     		push	{r7}
  69              	.LCFI2:
  70              		.cfi_def_cfa_offset 4
  71 0002 00AF     		add	r7, sp, #0
  72              		.cfi_offset 7, -4
  73              	.LCFI3:
  74              		.cfi_def_cfa_register 7
  60:.\Generated_Source\PSoC5/Mixer_2_PM.c ****     /* Nothing to restore */
  61:.\Generated_Source\PSoC5/Mixer_2_PM.c **** }
  75              		.loc 1 61 0
  76 0004 BD46     		mov	sp, r7
  77 0006 80BC     		pop	{r7}
  78 0008 7047     		bx	lr
  79              		.cfi_endproc
  80              	.LFE1:
  81              		.size	Mixer_2_RestoreConfig, .-Mixer_2_RestoreConfig
  82 000a 00BF     		.section	.text.Mixer_2_Sleep,"ax",%progbits
  83              		.align	2
  84              		.global	Mixer_2_Sleep
  85              		.thumb
  86              		.thumb_func
  87              		.type	Mixer_2_Sleep, %function
  88              	Mixer_2_Sleep:
  89              	.LFB2:
  62:.\Generated_Source\PSoC5/Mixer_2_PM.c **** 
  63:.\Generated_Source\PSoC5/Mixer_2_PM.c **** 
  64:.\Generated_Source\PSoC5/Mixer_2_PM.c **** /*******************************************************************************
  65:.\Generated_Source\PSoC5/Mixer_2_PM.c **** * Function Name: Mixer_2_Sleep
  66:.\Generated_Source\PSoC5/Mixer_2_PM.c **** ********************************************************************************
  67:.\Generated_Source\PSoC5/Mixer_2_PM.c **** *
  68:.\Generated_Source\PSoC5/Mixer_2_PM.c **** * Summary:
  69:.\Generated_Source\PSoC5/Mixer_2_PM.c **** *  Disables block's operation and saves its configuration. Should be called 
  70:.\Generated_Source\PSoC5/Mixer_2_PM.c **** *  just prior to entering sleep.
  71:.\Generated_Source\PSoC5/Mixer_2_PM.c **** *  
  72:.\Generated_Source\PSoC5/Mixer_2_PM.c **** * Parameters:  
  73:.\Generated_Source\PSoC5/Mixer_2_PM.c **** *  None
  74:.\Generated_Source\PSoC5/Mixer_2_PM.c **** *
  75:.\Generated_Source\PSoC5/Mixer_2_PM.c **** * Return: 
  76:.\Generated_Source\PSoC5/Mixer_2_PM.c **** *  None
  77:.\Generated_Source\PSoC5/Mixer_2_PM.c **** *
  78:.\Generated_Source\PSoC5/Mixer_2_PM.c **** * Global variables:
ARM GAS  C:\Users\karunmj\AppData\Local\Temp\ccbDwEwq.s 			page 4


  79:.\Generated_Source\PSoC5/Mixer_2_PM.c **** *  Mixer_2_backup:  The structure field 'enableState' is modified 
  80:.\Generated_Source\PSoC5/Mixer_2_PM.c **** *  depending on the enable state of the block before entering to sleep mode.
  81:.\Generated_Source\PSoC5/Mixer_2_PM.c **** *
  82:.\Generated_Source\PSoC5/Mixer_2_PM.c **** *******************************************************************************/
  83:.\Generated_Source\PSoC5/Mixer_2_PM.c **** void Mixer_2_Sleep(void) 
  84:.\Generated_Source\PSoC5/Mixer_2_PM.c **** {
  90              		.loc 1 84 0
  91              		.cfi_startproc
  92              		@ args = 0, pretend = 0, frame = 0
  93              		@ frame_needed = 1, uses_anonymous_args = 0
  94 0000 80B5     		push	{r7, lr}
  95              	.LCFI4:
  96              		.cfi_def_cfa_offset 8
  97 0002 00AF     		add	r7, sp, #0
  98              		.cfi_offset 14, -4
  99              		.cfi_offset 7, -8
 100              	.LCFI5:
 101              		.cfi_def_cfa_register 7
  85:.\Generated_Source\PSoC5/Mixer_2_PM.c ****     /* Save Mixer enable state */
  86:.\Generated_Source\PSoC5/Mixer_2_PM.c ****     if((Mixer_2_PM_ACT_CFG_REG & Mixer_2_ACT_PWR_EN) != 0u)
 102              		.loc 1 86 0
 103 0004 44F2A933 		movw	r3, #:lower16:1073759145
 104 0008 C4F20003 		movt	r3, #:upper16:1073759145
 105 000c 1B78     		ldrb	r3, [r3, #0]
 106 000e DBB2     		uxtb	r3, r3
 107 0010 03F00403 		and	r3, r3, #4
 108 0014 002B     		cmp	r3, #0
 109 0016 09D0     		beq	.L6
  87:.\Generated_Source\PSoC5/Mixer_2_PM.c ****     {
  88:.\Generated_Source\PSoC5/Mixer_2_PM.c ****         /* Component is enabled */
  89:.\Generated_Source\PSoC5/Mixer_2_PM.c ****         Mixer_2_backup.enableState = 1u;
 110              		.loc 1 89 0
 111 0018 40F20003 		movw	r3, #:lower16:Mixer_2_backup
 112 001c C0F20003 		movt	r3, #:upper16:Mixer_2_backup
 113 0020 4FF00102 		mov	r2, #1
 114 0024 1A70     		strb	r2, [r3, #0]
  90:.\Generated_Source\PSoC5/Mixer_2_PM.c ****         /* Stop the configuration */
  91:.\Generated_Source\PSoC5/Mixer_2_PM.c ****         Mixer_2_Stop();
 115              		.loc 1 91 0
 116 0026 FFF7FEFF 		bl	Mixer_2_Stop
 117 002a 06E0     		b	.L7
 118              	.L6:
  92:.\Generated_Source\PSoC5/Mixer_2_PM.c ****     }
  93:.\Generated_Source\PSoC5/Mixer_2_PM.c ****     else
  94:.\Generated_Source\PSoC5/Mixer_2_PM.c ****     {
  95:.\Generated_Source\PSoC5/Mixer_2_PM.c ****         /* Component is disabled */
  96:.\Generated_Source\PSoC5/Mixer_2_PM.c ****         Mixer_2_backup.enableState = 0u;
 119              		.loc 1 96 0
 120 002c 40F20003 		movw	r3, #:lower16:Mixer_2_backup
 121 0030 C0F20003 		movt	r3, #:upper16:Mixer_2_backup
 122 0034 4FF00002 		mov	r2, #0
 123 0038 1A70     		strb	r2, [r3, #0]
 124              	.L7:
  97:.\Generated_Source\PSoC5/Mixer_2_PM.c ****     }
  98:.\Generated_Source\PSoC5/Mixer_2_PM.c ****     /* Saves the user configuration */
  99:.\Generated_Source\PSoC5/Mixer_2_PM.c ****     Mixer_2_SaveConfig();
 125              		.loc 1 99 0
ARM GAS  C:\Users\karunmj\AppData\Local\Temp\ccbDwEwq.s 			page 5


 126 003a FFF7FEFF 		bl	Mixer_2_SaveConfig
 100:.\Generated_Source\PSoC5/Mixer_2_PM.c **** }
 127              		.loc 1 100 0
 128 003e 80BD     		pop	{r7, pc}
 129              		.cfi_endproc
 130              	.LFE2:
 131              		.size	Mixer_2_Sleep, .-Mixer_2_Sleep
 132              		.section	.text.Mixer_2_Wakeup,"ax",%progbits
 133              		.align	2
 134              		.global	Mixer_2_Wakeup
 135              		.thumb
 136              		.thumb_func
 137              		.type	Mixer_2_Wakeup, %function
 138              	Mixer_2_Wakeup:
 139              	.LFB3:
 101:.\Generated_Source\PSoC5/Mixer_2_PM.c **** 
 102:.\Generated_Source\PSoC5/Mixer_2_PM.c **** 
 103:.\Generated_Source\PSoC5/Mixer_2_PM.c **** /*******************************************************************************
 104:.\Generated_Source\PSoC5/Mixer_2_PM.c **** * Function Name: Mixer_2_Wakeup
 105:.\Generated_Source\PSoC5/Mixer_2_PM.c **** ********************************************************************************
 106:.\Generated_Source\PSoC5/Mixer_2_PM.c **** *
 107:.\Generated_Source\PSoC5/Mixer_2_PM.c **** * Summary:
 108:.\Generated_Source\PSoC5/Mixer_2_PM.c **** *  Enables block's operation and restores its configuration. Should be called
 109:.\Generated_Source\PSoC5/Mixer_2_PM.c **** *  just after awaking from sleep.
 110:.\Generated_Source\PSoC5/Mixer_2_PM.c **** *  
 111:.\Generated_Source\PSoC5/Mixer_2_PM.c **** * Parameters:  
 112:.\Generated_Source\PSoC5/Mixer_2_PM.c **** *  None
 113:.\Generated_Source\PSoC5/Mixer_2_PM.c **** *
 114:.\Generated_Source\PSoC5/Mixer_2_PM.c **** * Return: 
 115:.\Generated_Source\PSoC5/Mixer_2_PM.c **** *  void
 116:.\Generated_Source\PSoC5/Mixer_2_PM.c **** *
 117:.\Generated_Source\PSoC5/Mixer_2_PM.c **** * Global variables:
 118:.\Generated_Source\PSoC5/Mixer_2_PM.c **** *  Mixer_2_backup:  The structure field 'enableState' is used to 
 119:.\Generated_Source\PSoC5/Mixer_2_PM.c **** *  restore the enable state of block after wakeup from sleep mode.
 120:.\Generated_Source\PSoC5/Mixer_2_PM.c **** *
 121:.\Generated_Source\PSoC5/Mixer_2_PM.c **** *******************************************************************************/
 122:.\Generated_Source\PSoC5/Mixer_2_PM.c **** void Mixer_2_Wakeup(void) 
 123:.\Generated_Source\PSoC5/Mixer_2_PM.c **** {
 140              		.loc 1 123 0
 141              		.cfi_startproc
 142              		@ args = 0, pretend = 0, frame = 0
 143              		@ frame_needed = 1, uses_anonymous_args = 0
 144 0000 80B5     		push	{r7, lr}
 145              	.LCFI6:
 146              		.cfi_def_cfa_offset 8
 147 0002 00AF     		add	r7, sp, #0
 148              		.cfi_offset 14, -4
 149              		.cfi_offset 7, -8
 150              	.LCFI7:
 151              		.cfi_def_cfa_register 7
 124:.\Generated_Source\PSoC5/Mixer_2_PM.c ****     /* Restore the user configuration */
 125:.\Generated_Source\PSoC5/Mixer_2_PM.c ****     Mixer_2_RestoreConfig();
 152              		.loc 1 125 0
 153 0004 FFF7FEFF 		bl	Mixer_2_RestoreConfig
 126:.\Generated_Source\PSoC5/Mixer_2_PM.c ****     
 127:.\Generated_Source\PSoC5/Mixer_2_PM.c ****     /* Enable's the component operation */
 128:.\Generated_Source\PSoC5/Mixer_2_PM.c ****     if(Mixer_2_backup.enableState == 1u)
ARM GAS  C:\Users\karunmj\AppData\Local\Temp\ccbDwEwq.s 			page 6


 154              		.loc 1 128 0
 155 0008 40F20003 		movw	r3, #:lower16:Mixer_2_backup
 156 000c C0F20003 		movt	r3, #:upper16:Mixer_2_backup
 157 0010 1B78     		ldrb	r3, [r3, #0]	@ zero_extendqisi2
 158 0012 012B     		cmp	r3, #1
 159 0014 01D1     		bne	.L11
 129:.\Generated_Source\PSoC5/Mixer_2_PM.c ****     {
 130:.\Generated_Source\PSoC5/Mixer_2_PM.c ****         Mixer_2_Enable();
 160              		.loc 1 130 0
 161 0016 FFF7FEFF 		bl	Mixer_2_Enable
 162              	.L11:
 131:.\Generated_Source\PSoC5/Mixer_2_PM.c ****     } /* Do nothing if component was disable before */
 132:.\Generated_Source\PSoC5/Mixer_2_PM.c **** }
 163              		.loc 1 132 0
 164 001a 80BD     		pop	{r7, pc}
 165              		.cfi_endproc
 166              	.LFE3:
 167              		.size	Mixer_2_Wakeup, .-Mixer_2_Wakeup
 168              		.text
 169              	.Letext0: