ARM GAS  C:\Users\karunmj\AppData\Local\Temp\ccYBN9NX.s 			page 1


   1              		.syntax unified
   2              		.cpu cortex-m3
   3              		.fpu softvfp
   4              		.eabi_attribute 20, 1
   5              		.eabi_attribute 21, 1
   6              		.eabi_attribute 23, 3
   7              		.eabi_attribute 24, 1
   8              		.eabi_attribute 25, 1
   9              		.eabi_attribute 26, 1
  10              		.eabi_attribute 30, 6
  11              		.eabi_attribute 18, 4
  12              		.thumb
  13              		.file	"modem.c"
  20 0000 4F010000 		.text
  20      02006200 
  20      00000201 
  20      FB0E0D00 
  20      01010101 
  21              	.Ltext0:
  22              		.cfi_sections	.debug_frame
  23              		.comm	modem_state,1,1
  24              		.comm	uart_received_string,128,4
  25              		.global	uart_string_index
  26              		.bss
  27              		.type	uart_string_index, %object
  28              		.size	uart_string_index, 1
  29              	uart_string_index:
  30 0000 00       		.space	1
  31              		.section	.text.modem_get_state,"ax",%progbits
  32              		.align	2
  33              		.global	modem_get_state
  34              		.thumb
  35              		.thumb_func
  36              		.type	modem_get_state, %function
  37              	modem_get_state:
  38              	.LFB29:
  39              		.file 1 ".\\modem.c"
   1:.\modem.c     **** ///* ========================================
   2:.\modem.c     **** // *
   3:.\modem.c     **** // * Copyright YOUR COMPANY, THE YEAR
   4:.\modem.c     **** // * All Rights Reserved
   5:.\modem.c     **** // * UNPUBLISHED, LICENSED SOFTWARE.
   6:.\modem.c     **** // *
   7:.\modem.c     **** // * CONFIDENTIAL AND PROPRIETARY INFORMATION
   8:.\modem.c     **** // * WHICH IS THE PROPERTY OF your company.
   9:.\modem.c     **** // *
  10:.\modem.c     **** // * ========================================
  11:.\modem.c     **** //*/
  12:.\modem.c     **** //
  13:.\modem.c     **** 
  14:.\modem.c     **** #include <device.h>
ARM GAS  C:\Users\karunmj\AppData\Local\Temp\ccYBN9NX.s 			page 2


  15:.\modem.c     **** #include <string.h>
  16:.\modem.c     **** #include "modem.h"
  17:.\modem.c     **** 
  18:.\modem.c     **** uint8 uart_received_string[128];
  19:.\modem.c     **** uint8 uart_string_index = 0;
  20:.\modem.c     **** 
  21:.\modem.c     **** CY_ISR_PROTO(isr_byte_rx);
  22:.\modem.c     **** 
  23:.\modem.c     **** void uart_string_reset();
  24:.\modem.c     **** void at_command_write(uint8 uart_string, uint8 uart_timeout);
  25:.\modem.c     **** 
  26:.\modem.c     **** uint8 modem_get_state(){
  40              		.loc 1 26 0
  41              		.cfi_startproc
  42              		@ args = 0, pretend = 0, frame = 0
  43              		@ frame_needed = 1, uses_anonymous_args = 0
  44              		@ link register save eliminated.
  45 0000 80B4     		push	{r7}
  46              	.LCFI0:
  47              		.cfi_def_cfa_offset 4
  48 0002 00AF     		add	r7, sp, #0
  49              		.cfi_offset 7, -4
  50              	.LCFI1:
  51              		.cfi_def_cfa_register 7
  27:.\modem.c     ****     return modem_state;
  52              		.loc 1 27 0
  53 0004 40F20003 		movw	r3, #:lower16:modem_state
  54 0008 C0F20003 		movt	r3, #:upper16:modem_state
  55 000c 1B78     		ldrb	r3, [r3, #0]	@ zero_extendqisi2
  28:.\modem.c     **** }
  56              		.loc 1 28 0
  57 000e 1846     		mov	r0, r3
  58 0010 BD46     		mov	sp, r7
  59 0012 80BC     		pop	{r7}
  60 0014 7047     		bx	lr
  61              		.cfi_endproc
  62              	.LFE29:
  63              		.size	modem_get_state, .-modem_get_state
  64 0016 00BF     		.section	.text.modem_start,"ax",%progbits
  65              		.align	2
  66              		.global	modem_start
  67              		.thumb
  68              		.thumb_func
  69              		.type	modem_start, %function
  70              	modem_start:
  71              	.LFB30:
  29:.\modem.c     **** 
  30:.\modem.c     **** void modem_start(){
  72              		.loc 1 30 0
  73              		.cfi_startproc
  74              		@ args = 0, pretend = 0, frame = 0
  75              		@ frame_needed = 1, uses_anonymous_args = 0
  76 0000 80B5     		push	{r7, lr}
  77              	.LCFI2:
  78              		.cfi_def_cfa_offset 8
  79 0002 00AF     		add	r7, sp, #0
  80              		.cfi_offset 14, -4
ARM GAS  C:\Users\karunmj\AppData\Local\Temp\ccYBN9NX.s 			page 3


  81              		.cfi_offset 7, -8
  82              	.LCFI3:
  83              		.cfi_def_cfa_register 7
  31:.\modem.c     ****     uart_Start();
  84              		.loc 1 31 0
  85 0004 FFF7FEFF 		bl	uart_Start
  32:.\modem.c     ****     isr_byte_rx_StartEx(isr_byte_rx);
  86              		.loc 1 32 0
  87 0008 40F20000 		movw	r0, #:lower16:isr_byte_rx
  88 000c C0F20000 		movt	r0, #:upper16:isr_byte_rx
  89 0010 FFF7FEFF 		bl	isr_byte_rx_StartEx
  33:.\modem.c     ****     modem_state = MODEM_STATE_OFF;
  90              		.loc 1 33 0
  91 0014 40F20003 		movw	r3, #:lower16:modem_state
  92 0018 C0F20003 		movt	r3, #:upper16:modem_state
  93 001c 4FF00002 		mov	r2, #0
  94 0020 1A70     		strb	r2, [r3, #0]
  34:.\modem.c     **** }
  95              		.loc 1 34 0
  96 0022 80BD     		pop	{r7, pc}
  97              		.cfi_endproc
  98              	.LFE30:
  99              		.size	modem_start, .-modem_start
 100              		.section	.rodata
 101              		.align	2
 102              	.LC0:
 103 0000 00       		.ascii	"\000"
 104              		.section	.text.at_write_command,"ax",%progbits
 105              		.align	2
 106              		.global	at_write_command
 107              		.thumb
 108              		.thumb_func
 109              		.type	at_write_command, %function
 110              	at_write_command:
 111              	.LFB31:
  35:.\modem.c     **** 
  36:.\modem.c     **** uint8 at_write_command(uint8* uart_string, uint8* expected_response, uint32 uart_timeout){
 112              		.loc 1 36 0
 113              		.cfi_startproc
 114              		@ args = 0, pretend = 0, frame = 40
 115              		@ frame_needed = 1, uses_anonymous_args = 0
 116 0000 80B5     		push	{r7, lr}
 117              	.LCFI4:
 118              		.cfi_def_cfa_offset 8
 119 0002 8AB0     		sub	sp, sp, #40
 120              	.LCFI5:
 121              		.cfi_def_cfa_offset 48
 122 0004 00AF     		add	r7, sp, #0
 123              		.cfi_offset 14, -4
 124              		.cfi_offset 7, -8
 125              	.LCFI6:
 126              		.cfi_def_cfa_register 7
 127 0006 F860     		str	r0, [r7, #12]
 128 0008 B960     		str	r1, [r7, #8]
 129 000a 7A60     		str	r2, [r7, #4]
  37:.\modem.c     ****     uint8 response = 0u;
 130              		.loc 1 37 0
ARM GAS  C:\Users\karunmj\AppData\Local\Temp\ccYBN9NX.s 			page 4


 131 000c 4FF00003 		mov	r3, #0
 132 0010 FB75     		strb	r3, [r7, #23]
  38:.\modem.c     ****     uint32 i = 0u;
 133              		.loc 1 38 0
 134 0012 4FF00003 		mov	r3, #0
 135 0016 BB61     		str	r3, [r7, #24]
  39:.\modem.c     ****     uint32 delay = 100u;
 136              		.loc 1 39 0
 137 0018 4FF06403 		mov	r3, #100
 138 001c FB61     		str	r3, [r7, #28]
  40:.\modem.c     ****     uint32 interval = uart_timeout/delay;
 139              		.loc 1 40 0
 140 001e 7A68     		ldr	r2, [r7, #4]
 141 0020 FB69     		ldr	r3, [r7, #28]
 142 0022 B2FBF3F3 		udiv	r3, r2, r3
 143 0026 3B62     		str	r3, [r7, #32]
  41:.\modem.c     ****     
  42:.\modem.c     ****     uart_string_reset();
 144              		.loc 1 42 0
 145 0028 FFF7FEFF 		bl	uart_string_reset
  43:.\modem.c     ****     uart_PutString(uart_string);
 146              		.loc 1 43 0
 147 002c F868     		ldr	r0, [r7, #12]
 148 002e FFF7FEFF 		bl	uart_PutString
  44:.\modem.c     ****     
  45:.\modem.c     ****     if(expected_response != ""){
 149              		.loc 1 45 0
 150 0032 BA68     		ldr	r2, [r7, #8]
 151 0034 40F20003 		movw	r3, #:lower16:.LC0
 152 0038 C0F20003 		movt	r3, #:upper16:.LC0
 153 003c 9A42     		cmp	r2, r3
 154 003e 1ED0     		beq	.L6
  46:.\modem.c     ****         for(i=0;i<interval;i++){
 155              		.loc 1 46 0
 156 0040 4FF00003 		mov	r3, #0
 157 0044 BB61     		str	r3, [r7, #24]
 158 0046 16E0     		b	.L7
 159              	.L9:
 160              	.LBB2:
  47:.\modem.c     ****             uint16 valid = strstr ( uart_received_string, expected_response );
 161              		.loc 1 47 0
 162 0048 40F20000 		movw	r0, #:lower16:uart_received_string
 163 004c C0F20000 		movt	r0, #:upper16:uart_received_string
 164 0050 B968     		ldr	r1, [r7, #8]
 165 0052 FFF7FEFF 		bl	strstr
 166 0056 0346     		mov	r3, r0
 167 0058 FB84     		strh	r3, [r7, #38]	@ movhi
  48:.\modem.c     ****             if(valid != NULL){
 168              		.loc 1 48 0
 169 005a FB8C     		ldrh	r3, [r7, #38]
 170 005c 002B     		cmp	r3, #0
 171 005e 03D0     		beq	.L8
  49:.\modem.c     ****                 response = 1u;
 172              		.loc 1 49 0
 173 0060 4FF00103 		mov	r3, #1
 174 0064 FB75     		strb	r3, [r7, #23]
  50:.\modem.c     ****                 break;
ARM GAS  C:\Users\karunmj\AppData\Local\Temp\ccYBN9NX.s 			page 5


 175              		.loc 1 50 0
 176 0066 0AE0     		b	.L6
 177              	.L8:
  51:.\modem.c     ****             }
  52:.\modem.c     ****         CyDelay(delay);
 178              		.loc 1 52 0
 179 0068 F869     		ldr	r0, [r7, #28]
 180 006a FFF7FEFF 		bl	CyDelay
 181              	.LBE2:
 182              		.loc 1 46 0
 183 006e BB69     		ldr	r3, [r7, #24]
 184 0070 03F10103 		add	r3, r3, #1
 185 0074 BB61     		str	r3, [r7, #24]
 186              	.L7:
 187 0076 BA69     		ldr	r2, [r7, #24]
 188 0078 3B6A     		ldr	r3, [r7, #32]
 189 007a 9A42     		cmp	r2, r3
 190 007c E4D3     		bcc	.L9
 191              	.L6:
  53:.\modem.c     ****         }
  54:.\modem.c     ****     }
  55:.\modem.c     ****     return response;
 192              		.loc 1 55 0
 193 007e FB7D     		ldrb	r3, [r7, #23]	@ zero_extendqisi2
  56:.\modem.c     **** }
 194              		.loc 1 56 0
 195 0080 1846     		mov	r0, r3
 196 0082 07F12807 		add	r7, r7, #40
 197 0086 BD46     		mov	sp, r7
 198 0088 80BD     		pop	{r7, pc}
 199              		.cfi_endproc
 200              	.LFE31:
 201              		.size	at_write_command, .-at_write_command
 202 008a 00BF     		.section	.rodata
 203 0001 000000   		.align	2
 204              	.LC1:
 205 0004 4154234D 		.ascii	"AT#MODE=RESET\015\000"
 205      4F44453D 
 205      52455345 
 205      540D00
 206 0013 00       		.align	2
 207              	.LC2:
 208 0014 4F4B00   		.ascii	"OK\000"
 209              		.section	.text.modem_reset,"ax",%progbits
 210              		.align	2
 211              		.global	modem_reset
 212              		.thumb
 213              		.thumb_func
 214              		.type	modem_reset, %function
 215              	modem_reset:
 216              	.LFB32:
  57:.\modem.c     **** 
  58:.\modem.c     **** uint8 modem_reset(){
 217              		.loc 1 58 0
 218              		.cfi_startproc
 219              		@ args = 0, pretend = 0, frame = 0
 220              		@ frame_needed = 1, uses_anonymous_args = 0
ARM GAS  C:\Users\karunmj\AppData\Local\Temp\ccYBN9NX.s 			page 6


 221 0000 80B5     		push	{r7, lr}
 222              	.LCFI7:
 223              		.cfi_def_cfa_offset 8
 224 0002 00AF     		add	r7, sp, #0
 225              		.cfi_offset 14, -4
 226              		.cfi_offset 7, -8
 227              	.LCFI8:
 228              		.cfi_def_cfa_register 7
  59:.\modem.c     ****     if(at_write_command("AT#MODE=RESET\r","OK",10000u)){
 229              		.loc 1 59 0
 230 0004 40F20000 		movw	r0, #:lower16:.LC1
 231 0008 C0F20000 		movt	r0, #:upper16:.LC1
 232 000c 40F20001 		movw	r1, #:lower16:.LC2
 233 0010 C0F20001 		movt	r1, #:upper16:.LC2
 234 0014 42F21072 		movw	r2, #10000
 235 0018 FFF7FEFF 		bl	at_write_command
 236 001c 0346     		mov	r3, r0
 237 001e 002B     		cmp	r3, #0
 238 0020 02D0     		beq	.L12
  60:.\modem.c     ****         return 1u;
 239              		.loc 1 60 0
 240 0022 4FF00103 		mov	r3, #1
 241 0026 01E0     		b	.L13
 242              	.L12:
  61:.\modem.c     ****     }
  62:.\modem.c     ****     return 0u;
 243              		.loc 1 62 0
 244 0028 4FF00003 		mov	r3, #0
 245              	.L13:
  63:.\modem.c     **** }
 246              		.loc 1 63 0
 247 002c 1846     		mov	r0, r3
 248 002e 80BD     		pop	{r7, pc}
 249              		.cfi_endproc
 250              	.LFE32:
 251              		.size	modem_reset, .-modem_reset
 252              		.section	.rodata
 253 0017 00       		.align	2
 254              	.LC3:
 255 0018 41542B43 		.ascii	"AT+CREG=1\015\000"
 255      5245473D 
 255      310D00
 256 0023 00       		.align	2
 257              	.LC4:
 258 0024 41542353 		.ascii	"AT#SCFG=1,1,0,0,1200,0\015\000"
 258      4346473D 
 258      312C312C 
 258      302C302C 
 258      31323030 
 259              		.align	2
 260              	.LC5:
 261 003c 41542B43 		.ascii	"AT+CSQ\015\000"
 261      53510D00 
 262              		.align	2
 263              	.LC6:
 264 0044 41542353 		.ascii	"AT#SGACT=1,1\015\000"
 264      47414354 
ARM GAS  C:\Users\karunmj\AppData\Local\Temp\ccYBN9NX.s 			page 7


 264      3D312C31 
 264      0D00
 265              		.section	.text.modem_join_network,"ax",%progbits
 266              		.align	2
 267              		.global	modem_join_network
 268              		.thumb
 269              		.thumb_func
 270              		.type	modem_join_network, %function
 271              	modem_join_network:
 272              	.LFB33:
  64:.\modem.c     **** 
  65:.\modem.c     **** uint8 modem_join_network(){
 273              		.loc 1 65 0
 274              		.cfi_startproc
 275              		@ args = 0, pretend = 0, frame = 8
 276              		@ frame_needed = 1, uses_anonymous_args = 0
 277 0000 80B5     		push	{r7, lr}
 278              	.LCFI9:
 279              		.cfi_def_cfa_offset 8
 280 0002 82B0     		sub	sp, sp, #8
 281              	.LCFI10:
 282              		.cfi_def_cfa_offset 16
 283 0004 00AF     		add	r7, sp, #0
 284              		.cfi_offset 14, -4
 285              		.cfi_offset 7, -8
 286              	.LCFI11:
 287              		.cfi_def_cfa_register 7
  66:.\modem.c     ****    uint8 isResgister, isConfigPar, isIP = 255;
 288              		.loc 1 66 0
 289 0006 4FF0FF33 		mov	r3, #-1
 290 000a FB71     		strb	r3, [r7, #7]
  67:.\modem.c     ****    isResgister = at_write_command("AT+CREG=1\r","OK",5000u);
 291              		.loc 1 67 0
 292 000c 40F20000 		movw	r0, #:lower16:.LC3
 293 0010 C0F20000 		movt	r0, #:upper16:.LC3
 294 0014 40F20001 		movw	r1, #:lower16:.LC2
 295 0018 C0F20001 		movt	r1, #:upper16:.LC2
 296 001c 41F28832 		movw	r2, #5000
 297 0020 FFF7FEFF 		bl	at_write_command
 298 0024 0346     		mov	r3, r0
 299 0026 7B71     		strb	r3, [r7, #5]
  68:.\modem.c     ****     if(isResgister != 0){
 300              		.loc 1 68 0
 301 0028 7B79     		ldrb	r3, [r7, #5]	@ zero_extendqisi2
 302 002a 002B     		cmp	r3, #0
 303 002c 39D0     		beq	.L16
  69:.\modem.c     ****         isConfigPar = at_write_command("AT#SCFG=1,1,0,0,1200,0\r","OK",5000u);
 304              		.loc 1 69 0
 305 002e 40F20000 		movw	r0, #:lower16:.LC4
 306 0032 C0F20000 		movt	r0, #:upper16:.LC4
 307 0036 40F20001 		movw	r1, #:lower16:.LC2
 308 003a C0F20001 		movt	r1, #:upper16:.LC2
 309 003e 41F28832 		movw	r2, #5000
 310 0042 FFF7FEFF 		bl	at_write_command
 311 0046 0346     		mov	r3, r0
 312 0048 BB71     		strb	r3, [r7, #6]
  70:.\modem.c     ****         if(isConfigPar != 0){
ARM GAS  C:\Users\karunmj\AppData\Local\Temp\ccYBN9NX.s 			page 8


 313              		.loc 1 70 0
 314 004a BB79     		ldrb	r3, [r7, #6]	@ zero_extendqisi2
 315 004c 002B     		cmp	r3, #0
 316 004e 28D0     		beq	.L16
  71:.\modem.c     ****             isIP = at_write_command("AT+CSQ\r","OK",20000u);
 317              		.loc 1 71 0
 318 0050 40F20000 		movw	r0, #:lower16:.LC5
 319 0054 C0F20000 		movt	r0, #:upper16:.LC5
 320 0058 40F20001 		movw	r1, #:lower16:.LC2
 321 005c C0F20001 		movt	r1, #:upper16:.LC2
 322 0060 44F62062 		movw	r2, #20000
 323 0064 FFF7FEFF 		bl	at_write_command
 324 0068 0346     		mov	r3, r0
 325 006a FB71     		strb	r3, [r7, #7]
  72:.\modem.c     ****             isIP = at_write_command("AT#SGACT=1,1\r","OK",40000u);
 326              		.loc 1 72 0
 327 006c 40F20000 		movw	r0, #:lower16:.LC6
 328 0070 C0F20000 		movt	r0, #:upper16:.LC6
 329 0074 40F20001 		movw	r1, #:lower16:.LC2
 330 0078 C0F20001 		movt	r1, #:upper16:.LC2
 331 007c 49F64042 		movw	r2, #40000
 332 0080 FFF7FEFF 		bl	at_write_command
 333 0084 0346     		mov	r3, r0
 334 0086 FB71     		strb	r3, [r7, #7]
  73:.\modem.c     ****             if(isIP != 0){
 335              		.loc 1 73 0
 336 0088 FB79     		ldrb	r3, [r7, #7]	@ zero_extendqisi2
 337 008a 002B     		cmp	r3, #0
 338 008c 09D0     		beq	.L16
  74:.\modem.c     ****                 modem_state = MODEM_STATE_READY;
 339              		.loc 1 74 0
 340 008e 40F20003 		movw	r3, #:lower16:modem_state
 341 0092 C0F20003 		movt	r3, #:upper16:modem_state
 342 0096 4FF00302 		mov	r2, #3
 343 009a 1A70     		strb	r2, [r3, #0]
  75:.\modem.c     ****                 return 1u;   // return 1 if succesfully connected
 344              		.loc 1 75 0
 345 009c 4FF00103 		mov	r3, #1
 346 00a0 01E0     		b	.L17
 347              	.L16:
  76:.\modem.c     ****             }
  77:.\modem.c     ****         }
  78:.\modem.c     ****     }
  79:.\modem.c     ****     return 0u;   // return 0 if failure to connect
 348              		.loc 1 79 0
 349 00a2 4FF00003 		mov	r3, #0
 350              	.L17:
  80:.\modem.c     **** }
 351              		.loc 1 80 0
 352 00a6 1846     		mov	r0, r3
 353 00a8 07F10807 		add	r7, r7, #8
 354 00ac BD46     		mov	sp, r7
 355 00ae 80BD     		pop	{r7, pc}
 356              		.cfi_endproc
 357              	.LFE33:
 358              		.size	modem_join_network, .-modem_join_network
 359              		.section	.rodata
ARM GAS  C:\Users\karunmj\AppData\Local\Temp\ccYBN9NX.s 			page 9


 360 0052 0000     		.align	2
 361              	.LC7:
 362 0054 41542353 		.ascii	"AT#SD=1,0,50321,\"50.19.242.87\",0,0,1\015\000"
 362      443D312C 
 362      302C3530 
 362      3332312C 
 362      2235302E 
 363 007a 0000     		.align	2
 364              	.LC8:
 365 007c 41542353 		.ascii	"AT#SSEND=1\015\000"
 365      53454E44 
 365      3D310D00 
 366              		.align	2
 367              	.LC9:
 368 0088 3E00     		.ascii	">\000"
 369 008a 0000     		.section	.text.modem_send_packet,"ax",%progbits
 370              		.align	2
 371              		.global	modem_send_packet
 372              		.thumb
 373              		.thumb_func
 374              		.type	modem_send_packet, %function
 375              	modem_send_packet:
 376              	.LFB34:
  81:.\modem.c     **** 
  82:.\modem.c     **** uint8 modem_send_packet(uint8* packet, uint8 size){
 377              		.loc 1 82 0
 378              		.cfi_startproc
 379              		@ args = 0, pretend = 0, frame = 8
 380              		@ frame_needed = 1, uses_anonymous_args = 0
 381 0000 80B5     		push	{r7, lr}
 382              	.LCFI12:
 383              		.cfi_def_cfa_offset 8
 384 0002 82B0     		sub	sp, sp, #8
 385              	.LCFI13:
 386              		.cfi_def_cfa_offset 16
 387 0004 00AF     		add	r7, sp, #0
 388              		.cfi_offset 14, -4
 389              		.cfi_offset 7, -8
 390              	.LCFI14:
 391              		.cfi_def_cfa_register 7
 392 0006 7860     		str	r0, [r7, #4]
 393 0008 0B46     		mov	r3, r1
 394 000a FB70     		strb	r3, [r7, #3]
  83:.\modem.c     ****     if(at_write_command("AT#SD=1,0,50321,\"50.19.242.87\",0,0,1\r","OK",15000u) != 0){
 395              		.loc 1 83 0
 396 000c 40F20000 		movw	r0, #:lower16:.LC7
 397 0010 C0F20000 		movt	r0, #:upper16:.LC7
 398 0014 40F20001 		movw	r1, #:lower16:.LC2
 399 0018 C0F20001 		movt	r1, #:upper16:.LC2
 400 001c 43F69822 		movw	r2, #15000
 401 0020 FFF7FEFF 		bl	at_write_command
 402 0024 0346     		mov	r3, r0
 403 0026 002B     		cmp	r3, #0
 404 0028 24D0     		beq	.L20
  84:.\modem.c     ****         if(at_write_command("AT#SSEND=1\r",">",5000u) != 0){
 405              		.loc 1 84 0
 406 002a 40F20000 		movw	r0, #:lower16:.LC8
ARM GAS  C:\Users\karunmj\AppData\Local\Temp\ccYBN9NX.s 			page 10


 407 002e C0F20000 		movt	r0, #:upper16:.LC8
 408 0032 40F20001 		movw	r1, #:lower16:.LC9
 409 0036 C0F20001 		movt	r1, #:upper16:.LC9
 410 003a 41F28832 		movw	r2, #5000
 411 003e FFF7FEFF 		bl	at_write_command
 412 0042 0346     		mov	r3, r0
 413 0044 002B     		cmp	r3, #0
 414 0046 15D0     		beq	.L20
  85:.\modem.c     ****             if(at_write_command(packet,"OK",20000u) != 0){
 415              		.loc 1 85 0
 416 0048 7868     		ldr	r0, [r7, #4]
 417 004a 40F20001 		movw	r1, #:lower16:.LC2
 418 004e C0F20001 		movt	r1, #:upper16:.LC2
 419 0052 44F62062 		movw	r2, #20000
 420 0056 FFF7FEFF 		bl	at_write_command
 421 005a 0346     		mov	r3, r0
 422 005c 002B     		cmp	r3, #0
 423 005e 09D0     		beq	.L20
  86:.\modem.c     ****                 modem_state = MODEM_STATE_READY;
 424              		.loc 1 86 0
 425 0060 40F20003 		movw	r3, #:lower16:modem_state
 426 0064 C0F20003 		movt	r3, #:upper16:modem_state
 427 0068 4FF00302 		mov	r2, #3
 428 006c 1A70     		strb	r2, [r3, #0]
  87:.\modem.c     ****                 return 1u;   // return 1 if succesfully sent packet
 429              		.loc 1 87 0
 430 006e 4FF00103 		mov	r3, #1
 431 0072 01E0     		b	.L21
 432              	.L20:
  88:.\modem.c     ****             }
  89:.\modem.c     ****         }
  90:.\modem.c     ****     }
  91:.\modem.c     ****     return 0u;   // return 0 if failure to send packet
 433              		.loc 1 91 0
 434 0074 4FF00003 		mov	r3, #0
 435              	.L21:
  92:.\modem.c     **** }
 436              		.loc 1 92 0
 437 0078 1846     		mov	r0, r3
 438 007a 07F10807 		add	r7, r7, #8
 439 007e BD46     		mov	sp, r7
 440 0080 80BD     		pop	{r7, pc}
 441              		.cfi_endproc
 442              	.LFE34:
 443              		.size	modem_send_packet, .-modem_send_packet
 444 0082 00BF     		.section	.text.modem_power_on,"ax",%progbits
 445              		.align	2
 446              		.global	modem_power_on
 447              		.thumb
 448              		.thumb_func
 449              		.type	modem_power_on, %function
 450              	modem_power_on:
 451              	.LFB35:
  93:.\modem.c     **** 
  94:.\modem.c     **** uint8 modem_power_on(){
 452              		.loc 1 94 0
 453              		.cfi_startproc
ARM GAS  C:\Users\karunmj\AppData\Local\Temp\ccYBN9NX.s 			page 11


 454              		@ args = 0, pretend = 0, frame = 0
 455              		@ frame_needed = 1, uses_anonymous_args = 0
 456 0000 80B5     		push	{r7, lr}
 457              	.LCFI15:
 458              		.cfi_def_cfa_offset 8
 459 0002 00AF     		add	r7, sp, #0
 460              		.cfi_offset 14, -4
 461              		.cfi_offset 7, -8
 462              	.LCFI16:
 463              		.cfi_def_cfa_register 7
  95:.\modem.c     ****     modem_voltage_pin_Write(0u); //provide power to modem
 464              		.loc 1 95 0
 465 0004 4FF00000 		mov	r0, #0
 466 0008 FFF7FEFF 		bl	modem_voltage_pin_Write
  96:.\modem.c     ****     modem_power_pin_Write(0u);
 467              		.loc 1 96 0
 468 000c 4FF00000 		mov	r0, #0
 469 0010 FFF7FEFF 		bl	modem_power_pin_Write
  97:.\modem.c     ****     CyDelay(1500u);
 470              		.loc 1 97 0
 471 0014 40F2DC50 		movw	r0, #1500
 472 0018 FFF7FEFF 		bl	CyDelay
  98:.\modem.c     ****     modem_power_pin_Write(1u);
 473              		.loc 1 98 0
 474 001c 4FF00100 		mov	r0, #1
 475 0020 FFF7FEFF 		bl	modem_power_pin_Write
  99:.\modem.c     ****     CyDelay(5000u); // wait for module to turn on
 476              		.loc 1 99 0
 477 0024 41F28830 		movw	r0, #5000
 478 0028 FFF7FEFF 		bl	CyDelay
 100:.\modem.c     ****     modem_state = MODEM_STATE_IDLE;
 479              		.loc 1 100 0
 480 002c 40F20003 		movw	r3, #:lower16:modem_state
 481 0030 C0F20003 		movt	r3, #:upper16:modem_state
 482 0034 4FF00102 		mov	r2, #1
 483 0038 1A70     		strb	r2, [r3, #0]
 101:.\modem.c     **** }
 484              		.loc 1 101 0
 485 003a 80BD     		pop	{r7, pc}
 486              		.cfi_endproc
 487              	.LFE35:
 488              		.size	modem_power_on, .-modem_power_on
 489              		.section	.text.modem_power_off,"ax",%progbits
 490              		.align	2
 491              		.global	modem_power_off
 492              		.thumb
 493              		.thumb_func
 494              		.type	modem_power_off, %function
 495              	modem_power_off:
 496              	.LFB36:
 102:.\modem.c     **** 
 103:.\modem.c     **** uint8 modem_power_off(){
 497              		.loc 1 103 0
 498              		.cfi_startproc
 499              		@ args = 0, pretend = 0, frame = 0
 500              		@ frame_needed = 1, uses_anonymous_args = 0
 501 0000 80B5     		push	{r7, lr}
ARM GAS  C:\Users\karunmj\AppData\Local\Temp\ccYBN9NX.s 			page 12


 502              	.LCFI17:
 503              		.cfi_def_cfa_offset 8
 504 0002 00AF     		add	r7, sp, #0
 505              		.cfi_offset 14, -4
 506              		.cfi_offset 7, -8
 507              	.LCFI18:
 508              		.cfi_def_cfa_register 7
 104:.\modem.c     ****     modem_power_pin_Write(0u);
 509              		.loc 1 104 0
 510 0004 4FF00000 		mov	r0, #0
 511 0008 FFF7FEFF 		bl	modem_power_pin_Write
 105:.\modem.c     ****     CyDelay(1500u);
 512              		.loc 1 105 0
 513 000c 40F2DC50 		movw	r0, #1500
 514 0010 FFF7FEFF 		bl	CyDelay
 106:.\modem.c     ****     modem_power_pin_Write(1u);
 515              		.loc 1 106 0
 516 0014 4FF00100 		mov	r0, #1
 517 0018 FFF7FEFF 		bl	modem_power_pin_Write
 107:.\modem.c     ****     CyDelay(5000u); // wait for module to turn off
 518              		.loc 1 107 0
 519 001c 41F28830 		movw	r0, #5000
 520 0020 FFF7FEFF 		bl	CyDelay
 108:.\modem.c     ****     modem_voltage_pin_Write(1u); // cut power to modem
 521              		.loc 1 108 0
 522 0024 4FF00100 		mov	r0, #1
 523 0028 FFF7FEFF 		bl	modem_voltage_pin_Write
 109:.\modem.c     ****     modem_state = MODEM_STATE_OFF;
 524              		.loc 1 109 0
 525 002c 40F20003 		movw	r3, #:lower16:modem_state
 526 0030 C0F20003 		movt	r3, #:upper16:modem_state
 527 0034 4FF00002 		mov	r2, #0
 528 0038 1A70     		strb	r2, [r3, #0]
 110:.\modem.c     **** }
 529              		.loc 1 110 0
 530 003a 80BD     		pop	{r7, pc}
 531              		.cfi_endproc
 532              	.LFE36:
 533              		.size	modem_power_off, .-modem_power_off
 534              		.section	.text.uart_string_reset,"ax",%progbits
 535              		.align	2
 536              		.global	uart_string_reset
 537              		.thumb
 538              		.thumb_func
 539              		.type	uart_string_reset, %function
 540              	uart_string_reset:
 541              	.LFB37:
 111:.\modem.c     **** 
 112:.\modem.c     **** void uart_string_reset(){
 542              		.loc 1 112 0
 543              		.cfi_startproc
 544              		@ args = 0, pretend = 0, frame = 8
 545              		@ frame_needed = 1, uses_anonymous_args = 0
 546 0000 80B5     		push	{r7, lr}
 547              	.LCFI19:
 548              		.cfi_def_cfa_offset 8
 549 0002 82B0     		sub	sp, sp, #8
ARM GAS  C:\Users\karunmj\AppData\Local\Temp\ccYBN9NX.s 			page 13


 550              	.LCFI20:
 551              		.cfi_def_cfa_offset 16
 552 0004 00AF     		add	r7, sp, #0
 553              		.cfi_offset 14, -4
 554              		.cfi_offset 7, -8
 555              	.LCFI21:
 556              		.cfi_def_cfa_register 7
 113:.\modem.c     ****     // reset uart_received_string to zero
 114:.\modem.c     ****     uint8 i = 0;
 557              		.loc 1 114 0
 558 0006 4FF00003 		mov	r3, #0
 559 000a FB71     		strb	r3, [r7, #7]
 115:.\modem.c     ****     
 116:.\modem.c     ****     for(i = 0; i < 128; i++){
 560              		.loc 1 116 0
 561 000c 4FF00003 		mov	r3, #0
 562 0010 FB71     		strb	r3, [r7, #7]
 563 0012 0BE0     		b	.L28
 564              	.L29:
 117:.\modem.c     ****         uart_received_string[i] = 0;
 565              		.loc 1 117 0
 566 0014 FA79     		ldrb	r2, [r7, #7]	@ zero_extendqisi2
 567 0016 40F20003 		movw	r3, #:lower16:uart_received_string
 568 001a C0F20003 		movt	r3, #:upper16:uart_received_string
 569 001e 4FF00001 		mov	r1, #0
 570 0022 9954     		strb	r1, [r3, r2]
 571              		.loc 1 116 0
 572 0024 FB79     		ldrb	r3, [r7, #7]
 573 0026 03F10103 		add	r3, r3, #1
 574 002a FB71     		strb	r3, [r7, #7]
 575              	.L28:
 576 002c FB79     		ldrb	r3, [r7, #7]	@ zero_extendqisi2
 577 002e 5BB2     		sxtb	r3, r3
 578 0030 002B     		cmp	r3, #0
 579 0032 EFDA     		bge	.L29
 118:.\modem.c     ****     }
 119:.\modem.c     ****     uart_string_index = 0;
 580              		.loc 1 119 0
 581 0034 40F20003 		movw	r3, #:lower16:uart_string_index
 582 0038 C0F20003 		movt	r3, #:upper16:uart_string_index
 583 003c 4FF00002 		mov	r2, #0
 584 0040 1A70     		strb	r2, [r3, #0]
 120:.\modem.c     ****     uart_ClearRxBuffer();
 585              		.loc 1 120 0
 586 0042 FFF7FEFF 		bl	uart_ClearRxBuffer
 121:.\modem.c     **** }
 587              		.loc 1 121 0
 588 0046 07F10807 		add	r7, r7, #8
 589 004a BD46     		mov	sp, r7
 590 004c 80BD     		pop	{r7, pc}
 591              		.cfi_endproc
 592              	.LFE37:
 593              		.size	uart_string_reset, .-uart_string_reset
 594 004e 00BF     		.section	.text.isr_byte_rx,"ax",%progbits
 595              		.align	2
 596              		.global	isr_byte_rx
 597              		.thumb
ARM GAS  C:\Users\karunmj\AppData\Local\Temp\ccYBN9NX.s 			page 14


 598              		.thumb_func
 599              		.type	isr_byte_rx, %function
 600              	isr_byte_rx:
 601              	.LFB38:
 122:.\modem.c     **** 
 123:.\modem.c     **** CY_ISR(isr_byte_rx){
 602              		.loc 1 123 0
 603              		.cfi_startproc
 604              		@ args = 0, pretend = 0, frame = 8
 605              		@ frame_needed = 1, uses_anonymous_args = 0
 606 0000 80B5     		push	{r7, lr}
 607              	.LCFI22:
 608              		.cfi_def_cfa_offset 8
 609 0002 82B0     		sub	sp, sp, #8
 610              	.LCFI23:
 611              		.cfi_def_cfa_offset 16
 612 0004 00AF     		add	r7, sp, #0
 613              		.cfi_offset 14, -4
 614              		.cfi_offset 7, -8
 615              	.LCFI24:
 616              		.cfi_def_cfa_register 7
 124:.\modem.c     ****     // hold the next char in the rx register as a temporary variable
 125:.\modem.c     ****     uint8 rx_char_hold = uart_GetChar();
 617              		.loc 1 125 0
 618 0006 FFF7FEFF 		bl	uart_GetChar
 619 000a 0346     		mov	r3, r0
 620 000c FB71     		strb	r3, [r7, #7]
 126:.\modem.c     ****     
 127:.\modem.c     ****     // store the char in uart_received_string
 128:.\modem.c     ****     if(rx_char_hold){
 621              		.loc 1 128 0
 622 000e FB79     		ldrb	r3, [r7, #7]	@ zero_extendqisi2
 623 0010 002B     		cmp	r3, #0
 624 0012 18D0     		beq	.L33
 129:.\modem.c     ****         uart_received_string[uart_string_index] = rx_char_hold;
 625              		.loc 1 129 0
 626 0014 40F20003 		movw	r3, #:lower16:uart_string_index
 627 0018 C0F20003 		movt	r3, #:upper16:uart_string_index
 628 001c 1B78     		ldrb	r3, [r3, #0]	@ zero_extendqisi2
 629 001e 1A46     		mov	r2, r3
 630 0020 40F20003 		movw	r3, #:lower16:uart_received_string
 631 0024 C0F20003 		movt	r3, #:upper16:uart_received_string
 632 0028 F979     		ldrb	r1, [r7, #7]
 633 002a 9954     		strb	r1, [r3, r2]
 130:.\modem.c     ****         uart_string_index++;
 634              		.loc 1 130 0
 635 002c 40F20003 		movw	r3, #:lower16:uart_string_index
 636 0030 C0F20003 		movt	r3, #:upper16:uart_string_index
 637 0034 1B78     		ldrb	r3, [r3, #0]	@ zero_extendqisi2
 638 0036 03F10103 		add	r3, r3, #1
 639 003a DAB2     		uxtb	r2, r3
 640 003c 40F20003 		movw	r3, #:lower16:uart_string_index
 641 0040 C0F20003 		movt	r3, #:upper16:uart_string_index
 642 0044 1A70     		strb	r2, [r3, #0]
 643              	.L33:
 131:.\modem.c     ****     }
 132:.\modem.c     **** }
ARM GAS  C:\Users\karunmj\AppData\Local\Temp\ccYBN9NX.s 			page 15


 644              		.loc 1 132 0
 645 0046 07F10807 		add	r7, r7, #8
 646 004a BD46     		mov	sp, r7
 647 004c 80BD     		pop	{r7, pc}
 648              		.cfi_endproc
 649              	.LFE38:
 650              		.size	isr_byte_rx, .-isr_byte_rx
 651 004e 00BF     		.text
 652              	.Letext0: