ARM GAS  C:\Users\karunmj\AppData\Local\Temp\ccXkO61o.s 			page 1


   1              		.syntax unified
   2              		.cpu cortex-m3
   3              		.fpu softvfp
   4              		.eabi_attribute 20, 1
   5              		.eabi_attribute 21, 1
   6              		.eabi_attribute 23, 3
   7              		.eabi_attribute 24, 1
   8              		.eabi_attribute 25, 1
   9              		.eabi_attribute 26, 1
  10              		.eabi_attribute 30, 6
  11              		.eabi_attribute 18, 4
  12              		.thumb
  13              		.file	"ultrasonic.c"
  20 0000 B2000000 		.text
  20      02005900 
  20      00000201 
  20      FB0E0D00 
  20      01010101 
  21              	.Ltext0:
  22              		.cfi_sections	.debug_frame
  23              		.section	.text.ultrasonic_start,"ax",%progbits
  24              		.align	2
  25              		.global	ultrasonic_start
  26              		.thumb
  27              		.thumb_func
  28              		.type	ultrasonic_start, %function
  29              	ultrasonic_start:
  30              	.LFB29:
  31              		.file 1 ".\\ultrasonic.c"
   1:.\ultrasonic.c **** /* ========================================
   2:.\ultrasonic.c ****  *
   3:.\ultrasonic.c ****  * Copyright YOUR COMPANY, THE YEAR
   4:.\ultrasonic.c ****  * All Rights Reserved
   5:.\ultrasonic.c ****  * UNPUBLISHED, LICENSED SOFTWARE.
   6:.\ultrasonic.c ****  *
   7:.\ultrasonic.c ****  * CONFIDENTIAL AND PROPRIETARY INFORMATION
   8:.\ultrasonic.c ****  * WHICH IS THE PROPERTY OF your company.
   9:.\ultrasonic.c ****  *
  10:.\ultrasonic.c ****  * ========================================
  11:.\ultrasonic.c **** */
  12:.\ultrasonic.c **** 
  13:.\ultrasonic.c **** #include <device.h>
  14:.\ultrasonic.c **** #include "ultrasonic.h"
  15:.\ultrasonic.c **** 
  16:.\ultrasonic.c **** CY_ISR_PROTO(isr_byte_ultrasonic_rx);
  17:.\ultrasonic.c **** 
  18:.\ultrasonic.c **** void ultrasonic_start(){
  32              		.loc 1 18 0
  33              		.cfi_startproc
  34              		@ args = 0, pretend = 0, frame = 0
  35              		@ frame_needed = 1, uses_anonymous_args = 0
ARM GAS  C:\Users\karunmj\AppData\Local\Temp\ccXkO61o.s 			page 2


  36 0000 80B5     		push	{r7, lr}
  37              	.LCFI0:
  38              		.cfi_def_cfa_offset 8
  39 0002 00AF     		add	r7, sp, #0
  40              		.cfi_offset 14, -4
  41              		.cfi_offset 7, -8
  42              	.LCFI1:
  43              		.cfi_def_cfa_register 7
  19:.\ultrasonic.c ****     ultrasonic_uart_Start();
  44              		.loc 1 19 0
  45 0004 FFF7FEFF 		bl	ultrasonic_uart_Start
  20:.\ultrasonic.c ****     //isr_byte_ultrasonic_rx_StartEx(isr_byte_ultrasonic_rx);
  21:.\ultrasonic.c **** }
  46              		.loc 1 21 0
  47 0008 80BD     		pop	{r7, pc}
  48              		.cfi_endproc
  49              	.LFE29:
  50              		.size	ultrasonic_start, .-ultrasonic_start
  51 000a 00BF     		.section	.text.ultrasonic_read,"ax",%progbits
  52              		.align	2
  53              		.global	ultrasonic_read
  54              		.thumb
  55              		.thumb_func
  56              		.type	ultrasonic_read, %function
  57              	ultrasonic_read:
  58              	.LFB30:
  22:.\ultrasonic.c **** 
  23:.\ultrasonic.c **** uint8 ultrasonic_read(){
  59              		.loc 1 23 0
  60              		.cfi_startproc
  61              		@ args = 0, pretend = 0, frame = 152
  62              		@ frame_needed = 1, uses_anonymous_args = 0
  63 0000 80B5     		push	{r7, lr}
  64              	.LCFI2:
  65              		.cfi_def_cfa_offset 8
  66 0002 A6B0     		sub	sp, sp, #152
  67              	.LCFI3:
  68              		.cfi_def_cfa_offset 160
  69 0004 00AF     		add	r7, sp, #0
  70              		.cfi_offset 14, -4
  71              		.cfi_offset 7, -8
  72              	.LCFI4:
  73              		.cfi_def_cfa_register 7
  24:.\ultrasonic.c ****     uint8 ultrasonic_uart_received_string[128];
  25:.\ultrasonic.c ****     uint8 ultrasonic_uart_return_string[16];
  26:.\ultrasonic.c ****     uint8 i, j, r_count, rx_char;
  27:.\ultrasonic.c ****     
  28:.\ultrasonic.c ****     // provide power to start the sensing
  29:.\ultrasonic.c ****     ultrasonic_voltage_pin_Write(0u); 
  74              		.loc 1 29 0
  75 0006 4FF00000 		mov	r0, #0
  76 000a FFF7FEFF 		bl	ultrasonic_voltage_pin_Write
  30:.\ultrasonic.c ****     CyDelay(250u);
  77              		.loc 1 30 0
  78 000e 4FF0FA00 		mov	r0, #250
  79 0012 FFF7FEFF 		bl	CyDelay
  31:.\ultrasonic.c ****     
ARM GAS  C:\Users\karunmj\AppData\Local\Temp\ccXkO61o.s 			page 3


  32:.\ultrasonic.c ****     // store stream of characters in ultrasonic_uart_received_string
  33:.\ultrasonic.c ****     for(i = 0;i < 128;){
  80              		.loc 1 33 0
  81 0016 4FF00003 		mov	r3, #0
  82 001a 87F89430 		strb	r3, [r7, #148]
  83 001e 17E0     		b	.L4
  84              	.L5:
  34:.\ultrasonic.c ****         rx_char = ultrasonic_uart_GetChar();
  85              		.loc 1 34 0
  86 0020 FFF7FEFF 		bl	ultrasonic_uart_GetChar
  87 0024 0346     		mov	r3, r0
  88 0026 87F89730 		strb	r3, [r7, #151]
  35:.\ultrasonic.c ****         
  36:.\ultrasonic.c ****         if(rx_char){
  89              		.loc 1 36 0
  90 002a 97F89730 		ldrb	r3, [r7, #151]	@ zero_extendqisi2
  91 002e 002B     		cmp	r3, #0
  92 0030 0ED0     		beq	.L4
  37:.\ultrasonic.c ****             ultrasonic_uart_received_string[i] = rx_char;
  93              		.loc 1 37 0
  94 0032 97F89430 		ldrb	r3, [r7, #148]	@ zero_extendqisi2
  95 0036 07F19801 		add	r1, r7, #152
  96 003a 0B44     		add	r3, r1, r3
  97 003c 97F89720 		ldrb	r2, [r7, #151]
  98 0040 03F8842C 		strb	r2, [r3, #-132]
  38:.\ultrasonic.c ****             i++;
  99              		.loc 1 38 0
 100 0044 97F89430 		ldrb	r3, [r7, #148]
 101 0048 03F10103 		add	r3, r3, #1
 102 004c 87F89430 		strb	r3, [r7, #148]
 103              	.L4:
 104              		.loc 1 33 0
 105 0050 97F89430 		ldrb	r3, [r7, #148]	@ zero_extendqisi2
 106 0054 5BB2     		sxtb	r3, r3
 107 0056 002B     		cmp	r3, #0
 108 0058 E2DA     		bge	.L5
  39:.\ultrasonic.c ****         }
  40:.\ultrasonic.c ****     }
  41:.\ultrasonic.c ****     
  42:.\ultrasonic.c ****     // initialize ultrasonic_uart_return_string to zero
  43:.\ultrasonic.c ****     for(i = 0;i < sizeof(ultrasonic_uart_return_string);i++){
 109              		.loc 1 43 0
 110 005a 4FF00003 		mov	r3, #0
 111 005e 87F89430 		strb	r3, [r7, #148]
 112 0062 0EE0     		b	.L6
 113              	.L7:
  44:.\ultrasonic.c ****         ultrasonic_uart_return_string[i] = 0u;
 114              		.loc 1 44 0
 115 0064 97F89430 		ldrb	r3, [r7, #148]	@ zero_extendqisi2
 116 0068 07F19802 		add	r2, r7, #152
 117 006c 1344     		add	r3, r2, r3
 118 006e 4FF00002 		mov	r2, #0
 119 0072 03F8942C 		strb	r2, [r3, #-148]
 120              		.loc 1 43 0
 121 0076 97F89430 		ldrb	r3, [r7, #148]
 122 007a 03F10103 		add	r3, r3, #1
 123 007e 87F89430 		strb	r3, [r7, #148]
ARM GAS  C:\Users\karunmj\AppData\Local\Temp\ccXkO61o.s 			page 4


 124              	.L6:
 125 0082 97F89430 		ldrb	r3, [r7, #148]	@ zero_extendqisi2
 126 0086 0F2B     		cmp	r3, #15
 127 0088 ECD9     		bls	.L7
  45:.\ultrasonic.c ****     }
  46:.\ultrasonic.c ****     
  47:.\ultrasonic.c ****     // get reading from stream and store in ultrasonic_uart_return_string
  48:.\ultrasonic.c ****     for(r_count = 0, i = 0, j = 0;r_count < 2;i++){
 128              		.loc 1 48 0
 129 008a 4FF00003 		mov	r3, #0
 130 008e 87F89630 		strb	r3, [r7, #150]
 131 0092 4FF00003 		mov	r3, #0
 132 0096 87F89430 		strb	r3, [r7, #148]
 133 009a 4FF00003 		mov	r3, #0
 134 009e 87F89530 		strb	r3, [r7, #149]
 135 00a2 3BE0     		b	.L8
 136              	.L14:
  49:.\ultrasonic.c ****         rx_char = ultrasonic_uart_received_string[i];
 137              		.loc 1 49 0
 138 00a4 97F89430 		ldrb	r3, [r7, #148]	@ zero_extendqisi2
 139 00a8 07F19801 		add	r1, r7, #152
 140 00ac 0B44     		add	r3, r1, r3
 141 00ae 13F8843C 		ldrb	r3, [r3, #-132]
 142 00b2 87F89730 		strb	r3, [r7, #151]
  50:.\ultrasonic.c ****         if(rx_char == 82u){
 143              		.loc 1 50 0
 144 00b6 97F89730 		ldrb	r3, [r7, #151]	@ zero_extendqisi2
 145 00ba 522B     		cmp	r3, #82
 146 00bc 05D1     		bne	.L9
  51:.\ultrasonic.c ****             r_count++;      // increment everytime an "R" ascii character is encountered
 147              		.loc 1 51 0
 148 00be 97F89630 		ldrb	r3, [r7, #150]
 149 00c2 03F10103 		add	r3, r3, #1
 150 00c6 87F89630 		strb	r3, [r7, #150]
 151              	.L9:
  52:.\ultrasonic.c ****         }
  53:.\ultrasonic.c ****         if(r_count > 0){    // 
 152              		.loc 1 53 0
 153 00ca 97F89630 		ldrb	r3, [r7, #150]	@ zero_extendqisi2
 154 00ce 002B     		cmp	r3, #0
 155 00d0 13D0     		beq	.L10
  54:.\ultrasonic.c ****             ultrasonic_uart_return_string[j] = ultrasonic_uart_received_string[i];
 156              		.loc 1 54 0
 157 00d2 97F89530 		ldrb	r3, [r7, #149]	@ zero_extendqisi2
 158 00d6 97F89420 		ldrb	r2, [r7, #148]	@ zero_extendqisi2
 159 00da 07F19801 		add	r1, r7, #152
 160 00de 0A44     		add	r2, r1, r2
 161 00e0 12F8842C 		ldrb	r2, [r2, #-132]	@ zero_extendqisi2
 162 00e4 07F19801 		add	r1, r7, #152
 163 00e8 0B44     		add	r3, r1, r3
 164 00ea 03F8942C 		strb	r2, [r3, #-148]
  55:.\ultrasonic.c ****             j++;
 165              		.loc 1 55 0
 166 00ee 97F89530 		ldrb	r3, [r7, #149]
 167 00f2 03F10103 		add	r3, r3, #1
 168 00f6 87F89530 		strb	r3, [r7, #149]
 169              	.L10:
ARM GAS  C:\Users\karunmj\AppData\Local\Temp\ccXkO61o.s 			page 5


  56:.\ultrasonic.c ****         }
  57:.\ultrasonic.c ****         if(i > 126 || j > 14){
 170              		.loc 1 57 0
 171 00fa 97F89430 		ldrb	r3, [r7, #148]	@ zero_extendqisi2
 172 00fe 7E2B     		cmp	r3, #126
 173 0100 03D8     		bhi	.L11
 174 0102 97F89530 		ldrb	r3, [r7, #149]	@ zero_extendqisi2
 175 0106 0E2B     		cmp	r3, #14
 176 0108 02D9     		bls	.L12
 177              	.L11:
  58:.\ultrasonic.c ****             return 0u; 
 178              		.loc 1 58 0
 179 010a 4FF00003 		mov	r3, #0
 180 010e 10E0     		b	.L13
 181              	.L12:
 182              		.loc 1 48 0
 183 0110 97F89430 		ldrb	r3, [r7, #148]
 184 0114 03F10103 		add	r3, r3, #1
 185 0118 87F89430 		strb	r3, [r7, #148]
 186              	.L8:
 187 011c 97F89630 		ldrb	r3, [r7, #150]	@ zero_extendqisi2
 188 0120 012B     		cmp	r3, #1
 189 0122 BFD9     		bls	.L14
  59:.\ultrasonic.c ****         }
  60:.\ultrasonic.c ****     }
  61:.\ultrasonic.c ****     
  62:.\ultrasonic.c ****     ultrasonic_voltage_pin_Write(0u); // cut power to stop the sensing
 190              		.loc 1 62 0
 191 0124 4FF00000 		mov	r0, #0
 192 0128 FFF7FEFF 		bl	ultrasonic_voltage_pin_Write
  63:.\ultrasonic.c ****     return ultrasonic_uart_return_string;
 193              		.loc 1 63 0
 194 012c 07F10403 		add	r3, r7, #4
 195 0130 DBB2     		uxtb	r3, r3
 196              	.L13:
  64:.\ultrasonic.c **** }
 197              		.loc 1 64 0
 198 0132 1846     		mov	r0, r3
 199 0134 07F19807 		add	r7, r7, #152
 200 0138 BD46     		mov	sp, r7
 201 013a 80BD     		pop	{r7, pc}
 202              		.cfi_endproc
 203              	.LFE30:
 204              		.size	ultrasonic_read, .-ultrasonic_read
 205              		.section	.text.isr_byte_ultrasonic_rx,"ax",%progbits
 206              		.align	2
 207              		.global	isr_byte_ultrasonic_rx
 208              		.thumb
 209              		.thumb_func
 210              		.type	isr_byte_ultrasonic_rx, %function
 211              	isr_byte_ultrasonic_rx:
 212              	.LFB31:
  65:.\ultrasonic.c **** 
  66:.\ultrasonic.c **** CY_ISR(isr_byte_ultrasonic_rx){
 213              		.loc 1 66 0
 214              		.cfi_startproc
 215              		@ args = 0, pretend = 0, frame = 8
ARM GAS  C:\Users\karunmj\AppData\Local\Temp\ccXkO61o.s 			page 6


 216              		@ frame_needed = 1, uses_anonymous_args = 0
 217 0000 80B5     		push	{r7, lr}
 218              	.LCFI5:
 219              		.cfi_def_cfa_offset 8
 220 0002 82B0     		sub	sp, sp, #8
 221              	.LCFI6:
 222              		.cfi_def_cfa_offset 16
 223 0004 00AF     		add	r7, sp, #0
 224              		.cfi_offset 14, -4
 225              		.cfi_offset 7, -8
 226              	.LCFI7:
 227              		.cfi_def_cfa_register 7
  67:.\ultrasonic.c ****     // hold the next char in the rx register as a temporary variable
  68:.\ultrasonic.c ****     uint8 rx_char_hold = ultrasonic_uart_GetChar();
 228              		.loc 1 68 0
 229 0006 FFF7FEFF 		bl	ultrasonic_uart_GetChar
 230 000a 0346     		mov	r3, r0
 231 000c 7B71     		strb	r3, [r7, #5]
  69:.\ultrasonic.c ****     uint8 rx_char_hold2 = ultrasonic_uart_GetByte();
 232              		.loc 1 69 0
 233 000e FFF7FEFF 		bl	ultrasonic_uart_GetByte
 234 0012 0346     		mov	r3, r0
 235 0014 BB71     		strb	r3, [r7, #6]
  70:.\ultrasonic.c ****     uint8 rx_char_hold3 = ultrasonic_uart_ReadRxData();
 236              		.loc 1 70 0
 237 0016 FFF7FEFF 		bl	ultrasonic_uart_ReadRxData
 238 001a 0346     		mov	r3, r0
 239 001c FB71     		strb	r3, [r7, #7]
  71:.\ultrasonic.c ****     ultrasonic_uart_ClearRxBuffer();
 240              		.loc 1 71 0
 241 001e FFF7FEFF 		bl	ultrasonic_uart_ClearRxBuffer
  72:.\ultrasonic.c **** }
 242              		.loc 1 72 0
 243 0022 07F10807 		add	r7, r7, #8
 244 0026 BD46     		mov	sp, r7
 245 0028 80BD     		pop	{r7, pc}
 246              		.cfi_endproc
 247              	.LFE31:
 248              		.size	isr_byte_ultrasonic_rx, .-isr_byte_ultrasonic_rx
 249 002a 00BF     		.text
 250              	.Letext0: