ARM GAS  C:\Users\karunmj\AppData\Local\Temp\cc5pDfok.s 			page 1


   1              		.syntax unified
   2              		.cpu cortex-m3
   3              		.fpu softvfp
   4              		.eabi_attribute 20, 1
   5              		.eabi_attribute 21, 1
   6              		.eabi_attribute 23, 3
   7              		.eabi_attribute 24, 1
   8              		.eabi_attribute 25, 1
   9              		.eabi_attribute 26, 1
  10              		.eabi_attribute 30, 6
  11              		.eabi_attribute 18, 4
  12              		.thumb
  13              		.file	"ultrasonic_uart.c"
  14              		.section	.debug_abbrev,"",%progbits
  15              	.Ldebug_abbrev0:
  16              		.section	.debug_info,"",%progbits
  17              	.Ldebug_info0:
  18              		.section	.debug_line,"",%progbits
  19              	.Ldebug_line0:
  20 0000 B9020000 		.text
  20      02006800 
  20      00000201 
  20      FB0E0D00 
  20      01010101 
  21              	.Ltext0:
  22              		.cfi_sections	.debug_frame
  23              		.global	ultrasonic_uart_initVar
  24              		.bss
  25              		.type	ultrasonic_uart_initVar, %object
  26              		.size	ultrasonic_uart_initVar, 1
  27              	ultrasonic_uart_initVar:
  28 0000 00       		.space	1
  29              		.section	.text.ultrasonic_uart_Start,"ax",%progbits
  30              		.align	2
  31              		.global	ultrasonic_uart_Start
  32              		.thumb
  33              		.thumb_func
  34              		.type	ultrasonic_uart_Start, %function
  35              	ultrasonic_uart_Start:
  36              	.LFB0:
  37              		.file 1 ".\\Generated_Source\\PSoC5\\ultrasonic_uart.c"
   1:.\Generated_Source\PSoC5/ultrasonic_uart.c **** /*******************************************************************************
   2:.\Generated_Source\PSoC5/ultrasonic_uart.c **** * File Name: ultrasonic_uart.c
   3:.\Generated_Source\PSoC5/ultrasonic_uart.c **** * Version 2.30
   4:.\Generated_Source\PSoC5/ultrasonic_uart.c **** *
   5:.\Generated_Source\PSoC5/ultrasonic_uart.c **** * Description:
   6:.\Generated_Source\PSoC5/ultrasonic_uart.c **** *  This file provides all API functionality of the UART component
   7:.\Generated_Source\PSoC5/ultrasonic_uart.c **** *
   8:.\Generated_Source\PSoC5/ultrasonic_uart.c **** * Note:
   9:.\Generated_Source\PSoC5/ultrasonic_uart.c **** *
  10:.\Generated_Source\PSoC5/ultrasonic_uart.c **** ********************************************************************************
  11:.\Generated_Source\PSoC5/ultrasonic_uart.c **** * Copyright 2008-2012, Cypress Semiconductor Corporation.  All rights reserved.
  12:.\Generated_Source\PSoC5/ultrasonic_uart.c **** * You may use this file only in accordance with the license, terms, conditions,
  13:.\Generated_Source\PSoC5/ultrasonic_uart.c **** * disclaimers, and limitations in the end user license agreement accompanying
  14:.\Generated_Source\PSoC5/ultrasonic_uart.c **** * the software package with which this file was provided.
  15:.\Generated_Source\PSoC5/ultrasonic_uart.c **** *******************************************************************************/
  16:.\Generated_Source\PSoC5/ultrasonic_uart.c **** 
ARM GAS  C:\Users\karunmj\AppData\Local\Temp\cc5pDfok.s 			page 2


  17:.\Generated_Source\PSoC5/ultrasonic_uart.c **** #include "ultrasonic_uart.h"
  18:.\Generated_Source\PSoC5/ultrasonic_uart.c **** #include "CyLib.h"
  19:.\Generated_Source\PSoC5/ultrasonic_uart.c **** #if(ultrasonic_uart_INTERNAL_CLOCK_USED)
  20:.\Generated_Source\PSoC5/ultrasonic_uart.c ****     #include "ultrasonic_uart_IntClock.h"
  21:.\Generated_Source\PSoC5/ultrasonic_uart.c **** #endif /* End ultrasonic_uart_INTERNAL_CLOCK_USED */
  22:.\Generated_Source\PSoC5/ultrasonic_uart.c **** 
  23:.\Generated_Source\PSoC5/ultrasonic_uart.c **** 
  24:.\Generated_Source\PSoC5/ultrasonic_uart.c **** /***************************************
  25:.\Generated_Source\PSoC5/ultrasonic_uart.c **** * Global data allocation
  26:.\Generated_Source\PSoC5/ultrasonic_uart.c **** ***************************************/
  27:.\Generated_Source\PSoC5/ultrasonic_uart.c **** 
  28:.\Generated_Source\PSoC5/ultrasonic_uart.c **** uint8 ultrasonic_uart_initVar = 0u;
  29:.\Generated_Source\PSoC5/ultrasonic_uart.c **** #if( ultrasonic_uart_TX_ENABLED && (ultrasonic_uart_TXBUFFERSIZE > ultrasonic_uart_FIFO_LENGTH))
  30:.\Generated_Source\PSoC5/ultrasonic_uart.c ****     volatile uint8 ultrasonic_uart_txBuffer[ultrasonic_uart_TXBUFFERSIZE];
  31:.\Generated_Source\PSoC5/ultrasonic_uart.c ****     volatile uint8 ultrasonic_uart_txBufferRead = 0u;
  32:.\Generated_Source\PSoC5/ultrasonic_uart.c ****     uint8 ultrasonic_uart_txBufferWrite = 0u;
  33:.\Generated_Source\PSoC5/ultrasonic_uart.c **** #endif /* End ultrasonic_uart_TX_ENABLED */
  34:.\Generated_Source\PSoC5/ultrasonic_uart.c **** #if( ( ultrasonic_uart_RX_ENABLED || ultrasonic_uart_HD_ENABLED ) && \
  35:.\Generated_Source\PSoC5/ultrasonic_uart.c ****      (ultrasonic_uart_RXBUFFERSIZE > ultrasonic_uart_FIFO_LENGTH) )
  36:.\Generated_Source\PSoC5/ultrasonic_uart.c ****     volatile uint8 ultrasonic_uart_rxBuffer[ultrasonic_uart_RXBUFFERSIZE];
  37:.\Generated_Source\PSoC5/ultrasonic_uart.c ****     volatile uint8 ultrasonic_uart_rxBufferRead = 0u;
  38:.\Generated_Source\PSoC5/ultrasonic_uart.c ****     volatile uint8 ultrasonic_uart_rxBufferWrite = 0u;
  39:.\Generated_Source\PSoC5/ultrasonic_uart.c ****     volatile uint8 ultrasonic_uart_rxBufferLoopDetect = 0u;
  40:.\Generated_Source\PSoC5/ultrasonic_uart.c ****     volatile uint8 ultrasonic_uart_rxBufferOverflow = 0u;
  41:.\Generated_Source\PSoC5/ultrasonic_uart.c ****     #if (ultrasonic_uart_RXHW_ADDRESS_ENABLED)
  42:.\Generated_Source\PSoC5/ultrasonic_uart.c ****         volatile uint8 ultrasonic_uart_rxAddressMode = ultrasonic_uart_RXADDRESSMODE;
  43:.\Generated_Source\PSoC5/ultrasonic_uart.c ****         volatile uint8 ultrasonic_uart_rxAddressDetected = 0u;
  44:.\Generated_Source\PSoC5/ultrasonic_uart.c ****     #endif /* End EnableHWAddress */
  45:.\Generated_Source\PSoC5/ultrasonic_uart.c **** #endif /* End ultrasonic_uart_RX_ENABLED */
  46:.\Generated_Source\PSoC5/ultrasonic_uart.c **** 
  47:.\Generated_Source\PSoC5/ultrasonic_uart.c **** 
  48:.\Generated_Source\PSoC5/ultrasonic_uart.c **** /*******************************************************************************
  49:.\Generated_Source\PSoC5/ultrasonic_uart.c **** * Function Name: ultrasonic_uart_Start
  50:.\Generated_Source\PSoC5/ultrasonic_uart.c **** ********************************************************************************
  51:.\Generated_Source\PSoC5/ultrasonic_uart.c **** *
  52:.\Generated_Source\PSoC5/ultrasonic_uart.c **** * Summary:
  53:.\Generated_Source\PSoC5/ultrasonic_uart.c **** *  Initialize and Enable the UART component.
  54:.\Generated_Source\PSoC5/ultrasonic_uart.c **** *  Enable the clock input to enable operation.
  55:.\Generated_Source\PSoC5/ultrasonic_uart.c **** *
  56:.\Generated_Source\PSoC5/ultrasonic_uart.c **** * Parameters:
  57:.\Generated_Source\PSoC5/ultrasonic_uart.c **** *  None.
  58:.\Generated_Source\PSoC5/ultrasonic_uart.c **** *
  59:.\Generated_Source\PSoC5/ultrasonic_uart.c **** * Return:
  60:.\Generated_Source\PSoC5/ultrasonic_uart.c **** *  None.
  61:.\Generated_Source\PSoC5/ultrasonic_uart.c **** *
  62:.\Generated_Source\PSoC5/ultrasonic_uart.c **** * Global variables:
  63:.\Generated_Source\PSoC5/ultrasonic_uart.c **** *  The ultrasonic_uart_intiVar variable is used to indicate initial
  64:.\Generated_Source\PSoC5/ultrasonic_uart.c **** *  configuration of this component. The variable is initialized to zero (0u)
  65:.\Generated_Source\PSoC5/ultrasonic_uart.c **** *  and set to one (1u) the first time UART_Start() is called. This allows for
  66:.\Generated_Source\PSoC5/ultrasonic_uart.c **** *  component initialization without re-initialization in all subsequent calls
  67:.\Generated_Source\PSoC5/ultrasonic_uart.c **** *  to the ultrasonic_uart_Start() routine.
  68:.\Generated_Source\PSoC5/ultrasonic_uart.c **** *
  69:.\Generated_Source\PSoC5/ultrasonic_uart.c **** * Reentrant:
  70:.\Generated_Source\PSoC5/ultrasonic_uart.c **** *  No.
  71:.\Generated_Source\PSoC5/ultrasonic_uart.c **** *
  72:.\Generated_Source\PSoC5/ultrasonic_uart.c **** *******************************************************************************/
  73:.\Generated_Source\PSoC5/ultrasonic_uart.c **** void ultrasonic_uart_Start(void) 
ARM GAS  C:\Users\karunmj\AppData\Local\Temp\cc5pDfok.s 			page 3


  74:.\Generated_Source\PSoC5/ultrasonic_uart.c **** {
  38              		.loc 1 74 0
  39              		.cfi_startproc
  40              		@ args = 0, pretend = 0, frame = 0
  41              		@ frame_needed = 1, uses_anonymous_args = 0
  42 0000 80B5     		push	{r7, lr}
  43              	.LCFI0:
  44              		.cfi_def_cfa_offset 8
  45 0002 00AF     		add	r7, sp, #0
  46              		.cfi_offset 14, -4
  47              		.cfi_offset 7, -8
  48              	.LCFI1:
  49              		.cfi_def_cfa_register 7
  75:.\Generated_Source\PSoC5/ultrasonic_uart.c ****     /* If not Initialized then initialize all required hardware and software */
  76:.\Generated_Source\PSoC5/ultrasonic_uart.c ****     if(ultrasonic_uart_initVar == 0u)
  50              		.loc 1 76 0
  51 0004 40F20003 		movw	r3, #:lower16:ultrasonic_uart_initVar
  52 0008 C0F20003 		movt	r3, #:upper16:ultrasonic_uart_initVar
  53 000c 1B78     		ldrb	r3, [r3, #0]	@ zero_extendqisi2
  54 000e 002B     		cmp	r3, #0
  55 0010 08D1     		bne	.L2
  77:.\Generated_Source\PSoC5/ultrasonic_uart.c ****     {
  78:.\Generated_Source\PSoC5/ultrasonic_uart.c ****         ultrasonic_uart_Init();
  56              		.loc 1 78 0
  57 0012 FFF7FEFF 		bl	ultrasonic_uart_Init
  79:.\Generated_Source\PSoC5/ultrasonic_uart.c ****         ultrasonic_uart_initVar = 1u;
  58              		.loc 1 79 0
  59 0016 40F20003 		movw	r3, #:lower16:ultrasonic_uart_initVar
  60 001a C0F20003 		movt	r3, #:upper16:ultrasonic_uart_initVar
  61 001e 4FF00102 		mov	r2, #1
  62 0022 1A70     		strb	r2, [r3, #0]
  63              	.L2:
  80:.\Generated_Source\PSoC5/ultrasonic_uart.c ****     }
  81:.\Generated_Source\PSoC5/ultrasonic_uart.c ****     ultrasonic_uart_Enable();
  64              		.loc 1 81 0
  65 0024 FFF7FEFF 		bl	ultrasonic_uart_Enable
  82:.\Generated_Source\PSoC5/ultrasonic_uart.c **** }
  66              		.loc 1 82 0
  67 0028 80BD     		pop	{r7, pc}
  68              		.cfi_endproc
  69              	.LFE0:
  70              		.size	ultrasonic_uart_Start, .-ultrasonic_uart_Start
  71 002a 00BF     		.section	.text.ultrasonic_uart_Init,"ax",%progbits
  72              		.align	2
  73              		.global	ultrasonic_uart_Init
  74              		.thumb
  75              		.thumb_func
  76              		.type	ultrasonic_uart_Init, %function
  77              	ultrasonic_uart_Init:
  78              	.LFB1:
  83:.\Generated_Source\PSoC5/ultrasonic_uart.c **** 
  84:.\Generated_Source\PSoC5/ultrasonic_uart.c **** 
  85:.\Generated_Source\PSoC5/ultrasonic_uart.c **** /*******************************************************************************
  86:.\Generated_Source\PSoC5/ultrasonic_uart.c **** * Function Name: ultrasonic_uart_Init
  87:.\Generated_Source\PSoC5/ultrasonic_uart.c **** ********************************************************************************
  88:.\Generated_Source\PSoC5/ultrasonic_uart.c **** *
  89:.\Generated_Source\PSoC5/ultrasonic_uart.c **** * Summary:
ARM GAS  C:\Users\karunmj\AppData\Local\Temp\cc5pDfok.s 			page 4


  90:.\Generated_Source\PSoC5/ultrasonic_uart.c **** *  Initialize component's parameters to the parameters set by user in the
  91:.\Generated_Source\PSoC5/ultrasonic_uart.c **** *  customizer of the component placed onto schematic. Usually called in
  92:.\Generated_Source\PSoC5/ultrasonic_uart.c **** *  ultrasonic_uart_Start().
  93:.\Generated_Source\PSoC5/ultrasonic_uart.c **** *
  94:.\Generated_Source\PSoC5/ultrasonic_uart.c **** * Parameters:
  95:.\Generated_Source\PSoC5/ultrasonic_uart.c **** *  None.
  96:.\Generated_Source\PSoC5/ultrasonic_uart.c **** *
  97:.\Generated_Source\PSoC5/ultrasonic_uart.c **** * Return:
  98:.\Generated_Source\PSoC5/ultrasonic_uart.c **** *  None.
  99:.\Generated_Source\PSoC5/ultrasonic_uart.c **** *
 100:.\Generated_Source\PSoC5/ultrasonic_uart.c **** *******************************************************************************/
 101:.\Generated_Source\PSoC5/ultrasonic_uart.c **** void ultrasonic_uart_Init(void) 
 102:.\Generated_Source\PSoC5/ultrasonic_uart.c **** {
  79              		.loc 1 102 0
  80              		.cfi_startproc
  81              		@ args = 0, pretend = 0, frame = 0
  82              		@ frame_needed = 1, uses_anonymous_args = 0
  83              		@ link register save eliminated.
  84 0000 80B4     		push	{r7}
  85              	.LCFI2:
  86              		.cfi_def_cfa_offset 4
  87 0002 00AF     		add	r7, sp, #0
  88              		.cfi_offset 7, -4
  89              	.LCFI3:
  90              		.cfi_def_cfa_register 7
 103:.\Generated_Source\PSoC5/ultrasonic_uart.c ****     #if(ultrasonic_uart_RX_ENABLED || ultrasonic_uart_HD_ENABLED)
 104:.\Generated_Source\PSoC5/ultrasonic_uart.c **** 
 105:.\Generated_Source\PSoC5/ultrasonic_uart.c ****         #if(ultrasonic_uart_RX_INTERRUPT_ENABLED && (ultrasonic_uart_RXBUFFERSIZE > ultrasonic_uart
 106:.\Generated_Source\PSoC5/ultrasonic_uart.c ****             /* Set the RX Interrupt. */
 107:.\Generated_Source\PSoC5/ultrasonic_uart.c ****             (void)CyIntSetVector(ultrasonic_uart_RX_VECT_NUM, &ultrasonic_uart_RXISR);
 108:.\Generated_Source\PSoC5/ultrasonic_uart.c ****             CyIntSetPriority(ultrasonic_uart_RX_VECT_NUM, ultrasonic_uart_RX_PRIOR_NUM);
 109:.\Generated_Source\PSoC5/ultrasonic_uart.c ****         #endif /* End ultrasonic_uart_RX_INTERRUPT_ENABLED */
 110:.\Generated_Source\PSoC5/ultrasonic_uart.c **** 
 111:.\Generated_Source\PSoC5/ultrasonic_uart.c ****         #if (ultrasonic_uart_RXHW_ADDRESS_ENABLED)
 112:.\Generated_Source\PSoC5/ultrasonic_uart.c ****             ultrasonic_uart_SetRxAddressMode(ultrasonic_uart_RXAddressMode);
 113:.\Generated_Source\PSoC5/ultrasonic_uart.c ****             ultrasonic_uart_SetRxAddress1(ultrasonic_uart_RXHWADDRESS1);
 114:.\Generated_Source\PSoC5/ultrasonic_uart.c ****             ultrasonic_uart_SetRxAddress2(ultrasonic_uart_RXHWADDRESS2);
 115:.\Generated_Source\PSoC5/ultrasonic_uart.c ****         #endif /* End ultrasonic_uart_RXHW_ADDRESS_ENABLED */
 116:.\Generated_Source\PSoC5/ultrasonic_uart.c **** 
 117:.\Generated_Source\PSoC5/ultrasonic_uart.c ****         /* Init Count7 period */
 118:.\Generated_Source\PSoC5/ultrasonic_uart.c ****         ultrasonic_uart_RXBITCTR_PERIOD_REG = ultrasonic_uart_RXBITCTR_INIT;
  91              		.loc 1 118 0
  92 0004 46F28E43 		movw	r3, #:lower16:1073767566
  93 0008 C4F20003 		movt	r3, #:upper16:1073767566
  94 000c 4FF07202 		mov	r2, #114
  95 0010 1A70     		strb	r2, [r3, #0]
 119:.\Generated_Source\PSoC5/ultrasonic_uart.c ****         /* Configure the Initial RX interrupt mask */
 120:.\Generated_Source\PSoC5/ultrasonic_uart.c ****         ultrasonic_uart_RXSTATUS_MASK_REG  = ultrasonic_uart_INIT_RX_INTERRUPTS_MASK;
  96              		.loc 1 120 0
  97 0012 46F28C43 		movw	r3, #:lower16:1073767564
  98 0016 C4F20003 		movt	r3, #:upper16:1073767564
  99 001a 4FF02002 		mov	r2, #32
 100 001e 1A70     		strb	r2, [r3, #0]
 121:.\Generated_Source\PSoC5/ultrasonic_uart.c ****     #endif /* End ultrasonic_uart_RX_ENABLED || ultrasonic_uart_HD_ENABLED*/
 122:.\Generated_Source\PSoC5/ultrasonic_uart.c **** 
 123:.\Generated_Source\PSoC5/ultrasonic_uart.c ****     #if(ultrasonic_uart_TX_ENABLED)
 124:.\Generated_Source\PSoC5/ultrasonic_uart.c ****         #if(ultrasonic_uart_TX_INTERRUPT_ENABLED && (ultrasonic_uart_TXBUFFERSIZE > ultrasonic_uart
ARM GAS  C:\Users\karunmj\AppData\Local\Temp\cc5pDfok.s 			page 5


 125:.\Generated_Source\PSoC5/ultrasonic_uart.c ****             /* Set the TX Interrupt. */
 126:.\Generated_Source\PSoC5/ultrasonic_uart.c ****             (void)CyIntSetVector(ultrasonic_uart_TX_VECT_NUM, &ultrasonic_uart_TXISR);
 127:.\Generated_Source\PSoC5/ultrasonic_uart.c ****             CyIntSetPriority(ultrasonic_uart_TX_VECT_NUM, ultrasonic_uart_TX_PRIOR_NUM);
 128:.\Generated_Source\PSoC5/ultrasonic_uart.c ****         #endif /* End ultrasonic_uart_TX_INTERRUPT_ENABLED */
 129:.\Generated_Source\PSoC5/ultrasonic_uart.c **** 
 130:.\Generated_Source\PSoC5/ultrasonic_uart.c ****         /* Write Counter Value for TX Bit Clk Generator*/
 131:.\Generated_Source\PSoC5/ultrasonic_uart.c ****         #if(ultrasonic_uart_TXCLKGEN_DP)
 132:.\Generated_Source\PSoC5/ultrasonic_uart.c ****             ultrasonic_uart_TXBITCLKGEN_CTR_REG = ultrasonic_uart_BIT_CENTER;
 101              		.loc 1 132 0
 102 0020 46F22443 		movw	r3, #:lower16:1073767460
 103 0024 C4F20003 		movt	r3, #:upper16:1073767460
 104 0028 4FF00702 		mov	r2, #7
 105 002c 1A70     		strb	r2, [r3, #0]
 133:.\Generated_Source\PSoC5/ultrasonic_uart.c ****             ultrasonic_uart_TXBITCLKTX_COMPLETE_REG = (ultrasonic_uart_NUMBER_OF_DATA_BITS +
 106              		.loc 1 133 0
 107 002e 46F23443 		movw	r3, #:lower16:1073767476
 108 0032 C4F20003 		movt	r3, #:upper16:1073767476
 109 0036 4FF04802 		mov	r2, #72
 110 003a 1A70     		strb	r2, [r3, #0]
 134:.\Generated_Source\PSoC5/ultrasonic_uart.c ****                         ultrasonic_uart_NUMBER_OF_START_BIT) * ultrasonic_uart_OVER_SAMPLE_COUNT;
 135:.\Generated_Source\PSoC5/ultrasonic_uart.c ****         #else
 136:.\Generated_Source\PSoC5/ultrasonic_uart.c ****             ultrasonic_uart_TXBITCTR_PERIOD_REG = ((ultrasonic_uart_NUMBER_OF_DATA_BITS +
 137:.\Generated_Source\PSoC5/ultrasonic_uart.c ****                         ultrasonic_uart_NUMBER_OF_START_BIT) * ultrasonic_uart_OVER_SAMPLE_8) - 1u;
 138:.\Generated_Source\PSoC5/ultrasonic_uart.c ****         #endif /* End ultrasonic_uart_TXCLKGEN_DP */
 139:.\Generated_Source\PSoC5/ultrasonic_uart.c **** 
 140:.\Generated_Source\PSoC5/ultrasonic_uart.c ****         /* Configure the Initial TX interrupt mask */
 141:.\Generated_Source\PSoC5/ultrasonic_uart.c ****         #if(ultrasonic_uart_TX_INTERRUPT_ENABLED && (ultrasonic_uart_TXBUFFERSIZE > ultrasonic_uart
 142:.\Generated_Source\PSoC5/ultrasonic_uart.c ****             ultrasonic_uart_TXSTATUS_MASK_REG = ultrasonic_uart_TX_STS_FIFO_EMPTY;
 143:.\Generated_Source\PSoC5/ultrasonic_uart.c ****         #else
 144:.\Generated_Source\PSoC5/ultrasonic_uart.c ****             ultrasonic_uart_TXSTATUS_MASK_REG = ultrasonic_uart_INIT_TX_INTERRUPTS_MASK;
 111              		.loc 1 144 0
 112 003c 46F28243 		movw	r3, #:lower16:1073767554
 113 0040 C4F20003 		movt	r3, #:upper16:1073767554
 114 0044 4FF00002 		mov	r2, #0
 115 0048 1A70     		strb	r2, [r3, #0]
 145:.\Generated_Source\PSoC5/ultrasonic_uart.c ****         #endif /*End ultrasonic_uart_TX_INTERRUPT_ENABLED*/
 146:.\Generated_Source\PSoC5/ultrasonic_uart.c **** 
 147:.\Generated_Source\PSoC5/ultrasonic_uart.c ****     #endif /* End ultrasonic_uart_TX_ENABLED */
 148:.\Generated_Source\PSoC5/ultrasonic_uart.c **** 
 149:.\Generated_Source\PSoC5/ultrasonic_uart.c ****     #if(ultrasonic_uart_PARITY_TYPE_SW)  /* Write Parity to Control Register */
 150:.\Generated_Source\PSoC5/ultrasonic_uart.c ****         ultrasonic_uart_WriteControlRegister( \
 151:.\Generated_Source\PSoC5/ultrasonic_uart.c ****             (ultrasonic_uart_ReadControlRegister() & (uint8)~ultrasonic_uart_CTRL_PARITY_TYPE_MASK)
 152:.\Generated_Source\PSoC5/ultrasonic_uart.c ****             (uint8)(ultrasonic_uart_PARITY_TYPE << ultrasonic_uart_CTRL_PARITY_TYPE0_SHIFT) );
 153:.\Generated_Source\PSoC5/ultrasonic_uart.c ****     #endif /* End ultrasonic_uart_PARITY_TYPE_SW */
 154:.\Generated_Source\PSoC5/ultrasonic_uart.c **** }
 116              		.loc 1 154 0
 117 004a BD46     		mov	sp, r7
 118 004c 80BC     		pop	{r7}
 119 004e 7047     		bx	lr
 120              		.cfi_endproc
 121              	.LFE1:
 122              		.size	ultrasonic_uart_Init, .-ultrasonic_uart_Init
 123              		.section	.text.ultrasonic_uart_Enable,"ax",%progbits
 124              		.align	2
 125              		.global	ultrasonic_uart_Enable
 126              		.thumb
 127              		.thumb_func
ARM GAS  C:\Users\karunmj\AppData\Local\Temp\cc5pDfok.s 			page 6


 128              		.type	ultrasonic_uart_Enable, %function
 129              	ultrasonic_uart_Enable:
 130              	.LFB2:
 155:.\Generated_Source\PSoC5/ultrasonic_uart.c **** 
 156:.\Generated_Source\PSoC5/ultrasonic_uart.c **** 
 157:.\Generated_Source\PSoC5/ultrasonic_uart.c **** /*******************************************************************************
 158:.\Generated_Source\PSoC5/ultrasonic_uart.c **** * Function Name: ultrasonic_uart_Enable
 159:.\Generated_Source\PSoC5/ultrasonic_uart.c **** ********************************************************************************
 160:.\Generated_Source\PSoC5/ultrasonic_uart.c **** *
 161:.\Generated_Source\PSoC5/ultrasonic_uart.c **** * Summary:
 162:.\Generated_Source\PSoC5/ultrasonic_uart.c **** *  Enables the UART block operation
 163:.\Generated_Source\PSoC5/ultrasonic_uart.c **** *
 164:.\Generated_Source\PSoC5/ultrasonic_uart.c **** * Parameters:
 165:.\Generated_Source\PSoC5/ultrasonic_uart.c **** *  None.
 166:.\Generated_Source\PSoC5/ultrasonic_uart.c **** *
 167:.\Generated_Source\PSoC5/ultrasonic_uart.c **** * Return:
 168:.\Generated_Source\PSoC5/ultrasonic_uart.c **** *  None.
 169:.\Generated_Source\PSoC5/ultrasonic_uart.c **** *
 170:.\Generated_Source\PSoC5/ultrasonic_uart.c **** * Global Variables:
 171:.\Generated_Source\PSoC5/ultrasonic_uart.c **** *  ultrasonic_uart_rxAddressDetected - set to initial state (0).
 172:.\Generated_Source\PSoC5/ultrasonic_uart.c **** *
 173:.\Generated_Source\PSoC5/ultrasonic_uart.c **** *******************************************************************************/
 174:.\Generated_Source\PSoC5/ultrasonic_uart.c **** void ultrasonic_uart_Enable(void) 
 175:.\Generated_Source\PSoC5/ultrasonic_uart.c **** {
 131              		.loc 1 175 0
 132              		.cfi_startproc
 133              		@ args = 0, pretend = 0, frame = 8
 134              		@ frame_needed = 1, uses_anonymous_args = 0
 135 0000 80B5     		push	{r7, lr}
 136              	.LCFI4:
 137              		.cfi_def_cfa_offset 8
 138 0002 82B0     		sub	sp, sp, #8
 139              	.LCFI5:
 140              		.cfi_def_cfa_offset 16
 141 0004 00AF     		add	r7, sp, #0
 142              		.cfi_offset 14, -4
 143              		.cfi_offset 7, -8
 144              	.LCFI6:
 145              		.cfi_def_cfa_register 7
 176:.\Generated_Source\PSoC5/ultrasonic_uart.c ****     uint8 enableInterrupts;
 177:.\Generated_Source\PSoC5/ultrasonic_uart.c ****     enableInterrupts = CyEnterCriticalSection();
 146              		.loc 1 177 0
 147 0006 FFF7FEFF 		bl	CyEnterCriticalSection
 148 000a 0346     		mov	r3, r0
 149 000c FB71     		strb	r3, [r7, #7]
 178:.\Generated_Source\PSoC5/ultrasonic_uart.c **** 
 179:.\Generated_Source\PSoC5/ultrasonic_uart.c ****     #if(ultrasonic_uart_RX_ENABLED || ultrasonic_uart_HD_ENABLED)
 180:.\Generated_Source\PSoC5/ultrasonic_uart.c ****         /*RX Counter (Count7) Enable */
 181:.\Generated_Source\PSoC5/ultrasonic_uart.c ****         ultrasonic_uart_RXBITCTR_CONTROL_REG |= ultrasonic_uart_CNTR_ENABLE;
 150              		.loc 1 181 0
 151 000e 46F29E43 		movw	r3, #:lower16:1073767582
 152 0012 C4F20003 		movt	r3, #:upper16:1073767582
 153 0016 46F29E42 		movw	r2, #:lower16:1073767582
 154 001a C4F20002 		movt	r2, #:upper16:1073767582
 155 001e 1278     		ldrb	r2, [r2, #0]
 156 0020 D2B2     		uxtb	r2, r2
 157 0022 42F02002 		orr	r2, r2, #32
ARM GAS  C:\Users\karunmj\AppData\Local\Temp\cc5pDfok.s 			page 7


 158 0026 D2B2     		uxtb	r2, r2
 159 0028 1A70     		strb	r2, [r3, #0]
 182:.\Generated_Source\PSoC5/ultrasonic_uart.c ****         /* Enable the RX Interrupt. */
 183:.\Generated_Source\PSoC5/ultrasonic_uart.c ****         ultrasonic_uart_RXSTATUS_ACTL_REG  |= ultrasonic_uart_INT_ENABLE;
 160              		.loc 1 183 0
 161 002a 46F29C43 		movw	r3, #:lower16:1073767580
 162 002e C4F20003 		movt	r3, #:upper16:1073767580
 163 0032 46F29C42 		movw	r2, #:lower16:1073767580
 164 0036 C4F20002 		movt	r2, #:upper16:1073767580
 165 003a 1278     		ldrb	r2, [r2, #0]
 166 003c D2B2     		uxtb	r2, r2
 167 003e 42F01002 		orr	r2, r2, #16
 168 0042 D2B2     		uxtb	r2, r2
 169 0044 1A70     		strb	r2, [r3, #0]
 184:.\Generated_Source\PSoC5/ultrasonic_uart.c ****         #if(ultrasonic_uart_RX_INTERRUPT_ENABLED && (ultrasonic_uart_RXBUFFERSIZE > ultrasonic_uart
 185:.\Generated_Source\PSoC5/ultrasonic_uart.c ****             CyIntEnable(ultrasonic_uart_RX_VECT_NUM);
 186:.\Generated_Source\PSoC5/ultrasonic_uart.c ****             #if (ultrasonic_uart_RXHW_ADDRESS_ENABLED)
 187:.\Generated_Source\PSoC5/ultrasonic_uart.c ****                 ultrasonic_uart_rxAddressDetected = 0u;
 188:.\Generated_Source\PSoC5/ultrasonic_uart.c ****             #endif /* End ultrasonic_uart_RXHW_ADDRESS_ENABLED */
 189:.\Generated_Source\PSoC5/ultrasonic_uart.c ****         #endif /* End ultrasonic_uart_RX_INTERRUPT_ENABLED */
 190:.\Generated_Source\PSoC5/ultrasonic_uart.c ****     #endif /* End ultrasonic_uart_RX_ENABLED || ultrasonic_uart_HD_ENABLED*/
 191:.\Generated_Source\PSoC5/ultrasonic_uart.c **** 
 192:.\Generated_Source\PSoC5/ultrasonic_uart.c ****     #if(ultrasonic_uart_TX_ENABLED)
 193:.\Generated_Source\PSoC5/ultrasonic_uart.c ****         /*TX Counter (DP/Count7) Enable */
 194:.\Generated_Source\PSoC5/ultrasonic_uart.c ****         #if(!ultrasonic_uart_TXCLKGEN_DP)
 195:.\Generated_Source\PSoC5/ultrasonic_uart.c ****             ultrasonic_uart_TXBITCTR_CONTROL_REG |= ultrasonic_uart_CNTR_ENABLE;
 196:.\Generated_Source\PSoC5/ultrasonic_uart.c ****         #endif /* End ultrasonic_uart_TXCLKGEN_DP */
 197:.\Generated_Source\PSoC5/ultrasonic_uart.c ****         /* Enable the TX Interrupt. */
 198:.\Generated_Source\PSoC5/ultrasonic_uart.c ****         ultrasonic_uart_TXSTATUS_ACTL_REG |= ultrasonic_uart_INT_ENABLE;
 170              		.loc 1 198 0
 171 0046 46F29243 		movw	r3, #:lower16:1073767570
 172 004a C4F20003 		movt	r3, #:upper16:1073767570
 173 004e 46F29242 		movw	r2, #:lower16:1073767570
 174 0052 C4F20002 		movt	r2, #:upper16:1073767570
 175 0056 1278     		ldrb	r2, [r2, #0]
 176 0058 D2B2     		uxtb	r2, r2
 177 005a 42F01002 		orr	r2, r2, #16
 178 005e D2B2     		uxtb	r2, r2
 179 0060 1A70     		strb	r2, [r3, #0]
 199:.\Generated_Source\PSoC5/ultrasonic_uart.c ****         #if(ultrasonic_uart_TX_INTERRUPT_ENABLED && (ultrasonic_uart_TXBUFFERSIZE > ultrasonic_uart
 200:.\Generated_Source\PSoC5/ultrasonic_uart.c ****             CyIntEnable(ultrasonic_uart_TX_VECT_NUM);
 201:.\Generated_Source\PSoC5/ultrasonic_uart.c ****         #endif /* End ultrasonic_uart_TX_INTERRUPT_ENABLED*/
 202:.\Generated_Source\PSoC5/ultrasonic_uart.c ****      #endif /* End ultrasonic_uart_TX_ENABLED */
 203:.\Generated_Source\PSoC5/ultrasonic_uart.c **** 
 204:.\Generated_Source\PSoC5/ultrasonic_uart.c ****     #if(ultrasonic_uart_INTERNAL_CLOCK_USED)
 205:.\Generated_Source\PSoC5/ultrasonic_uart.c ****         /* Enable the clock. */
 206:.\Generated_Source\PSoC5/ultrasonic_uart.c ****         ultrasonic_uart_IntClock_Start();
 180              		.loc 1 206 0
 181 0062 FFF7FEFF 		bl	ultrasonic_uart_IntClock_Start
 207:.\Generated_Source\PSoC5/ultrasonic_uart.c ****     #endif /* End ultrasonic_uart_INTERNAL_CLOCK_USED */
 208:.\Generated_Source\PSoC5/ultrasonic_uart.c **** 
 209:.\Generated_Source\PSoC5/ultrasonic_uart.c ****     CyExitCriticalSection(enableInterrupts);
 182              		.loc 1 209 0
 183 0066 FB79     		ldrb	r3, [r7, #7]	@ zero_extendqisi2
 184 0068 1846     		mov	r0, r3
 185 006a FFF7FEFF 		bl	CyExitCriticalSection
 210:.\Generated_Source\PSoC5/ultrasonic_uart.c **** }
ARM GAS  C:\Users\karunmj\AppData\Local\Temp\cc5pDfok.s 			page 8


 186              		.loc 1 210 0
 187 006e 07F10807 		add	r7, r7, #8
 188 0072 BD46     		mov	sp, r7
 189 0074 80BD     		pop	{r7, pc}
 190              		.cfi_endproc
 191              	.LFE2:
 192              		.size	ultrasonic_uart_Enable, .-ultrasonic_uart_Enable
 193 0076 00BF     		.section	.text.ultrasonic_uart_Stop,"ax",%progbits
 194              		.align	2
 195              		.global	ultrasonic_uart_Stop
 196              		.thumb
 197              		.thumb_func
 198              		.type	ultrasonic_uart_Stop, %function
 199              	ultrasonic_uart_Stop:
 200              	.LFB3:
 211:.\Generated_Source\PSoC5/ultrasonic_uart.c **** 
 212:.\Generated_Source\PSoC5/ultrasonic_uart.c **** 
 213:.\Generated_Source\PSoC5/ultrasonic_uart.c **** /*******************************************************************************
 214:.\Generated_Source\PSoC5/ultrasonic_uart.c **** * Function Name: ultrasonic_uart_Stop
 215:.\Generated_Source\PSoC5/ultrasonic_uart.c **** ********************************************************************************
 216:.\Generated_Source\PSoC5/ultrasonic_uart.c **** *
 217:.\Generated_Source\PSoC5/ultrasonic_uart.c **** * Summary:
 218:.\Generated_Source\PSoC5/ultrasonic_uart.c **** *  Disable the UART component
 219:.\Generated_Source\PSoC5/ultrasonic_uart.c **** *
 220:.\Generated_Source\PSoC5/ultrasonic_uart.c **** * Parameters:
 221:.\Generated_Source\PSoC5/ultrasonic_uart.c **** *  None.
 222:.\Generated_Source\PSoC5/ultrasonic_uart.c **** *
 223:.\Generated_Source\PSoC5/ultrasonic_uart.c **** * Return:
 224:.\Generated_Source\PSoC5/ultrasonic_uart.c **** *  None.
 225:.\Generated_Source\PSoC5/ultrasonic_uart.c **** *
 226:.\Generated_Source\PSoC5/ultrasonic_uart.c **** *******************************************************************************/
 227:.\Generated_Source\PSoC5/ultrasonic_uart.c **** void ultrasonic_uart_Stop(void) 
 228:.\Generated_Source\PSoC5/ultrasonic_uart.c **** {
 201              		.loc 1 228 0
 202              		.cfi_startproc
 203              		@ args = 0, pretend = 0, frame = 8
 204              		@ frame_needed = 1, uses_anonymous_args = 0
 205 0000 80B5     		push	{r7, lr}
 206              	.LCFI7:
 207              		.cfi_def_cfa_offset 8
 208 0002 82B0     		sub	sp, sp, #8
 209              	.LCFI8:
 210              		.cfi_def_cfa_offset 16
 211 0004 00AF     		add	r7, sp, #0
 212              		.cfi_offset 14, -4
 213              		.cfi_offset 7, -8
 214              	.LCFI9:
 215              		.cfi_def_cfa_register 7
 229:.\Generated_Source\PSoC5/ultrasonic_uart.c ****     uint8 enableInterrupts;
 230:.\Generated_Source\PSoC5/ultrasonic_uart.c ****     enableInterrupts = CyEnterCriticalSection();
 216              		.loc 1 230 0
 217 0006 FFF7FEFF 		bl	CyEnterCriticalSection
 218 000a 0346     		mov	r3, r0
 219 000c FB71     		strb	r3, [r7, #7]
 231:.\Generated_Source\PSoC5/ultrasonic_uart.c **** 
 232:.\Generated_Source\PSoC5/ultrasonic_uart.c ****     /* Write Bit Counter Disable */
 233:.\Generated_Source\PSoC5/ultrasonic_uart.c ****     #if(ultrasonic_uart_RX_ENABLED || ultrasonic_uart_HD_ENABLED)
ARM GAS  C:\Users\karunmj\AppData\Local\Temp\cc5pDfok.s 			page 9


 234:.\Generated_Source\PSoC5/ultrasonic_uart.c ****         ultrasonic_uart_RXBITCTR_CONTROL_REG &= (uint8)~ultrasonic_uart_CNTR_ENABLE;
 220              		.loc 1 234 0
 221 000e 46F29E43 		movw	r3, #:lower16:1073767582
 222 0012 C4F20003 		movt	r3, #:upper16:1073767582
 223 0016 46F29E42 		movw	r2, #:lower16:1073767582
 224 001a C4F20002 		movt	r2, #:upper16:1073767582
 225 001e 1278     		ldrb	r2, [r2, #0]
 226 0020 D2B2     		uxtb	r2, r2
 227 0022 02F0DF02 		and	r2, r2, #223
 228 0026 1A70     		strb	r2, [r3, #0]
 235:.\Generated_Source\PSoC5/ultrasonic_uart.c ****     #endif /* End ultrasonic_uart_RX_ENABLED */
 236:.\Generated_Source\PSoC5/ultrasonic_uart.c **** 
 237:.\Generated_Source\PSoC5/ultrasonic_uart.c ****     #if(ultrasonic_uart_TX_ENABLED)
 238:.\Generated_Source\PSoC5/ultrasonic_uart.c ****         #if(!ultrasonic_uart_TXCLKGEN_DP)
 239:.\Generated_Source\PSoC5/ultrasonic_uart.c ****             ultrasonic_uart_TXBITCTR_CONTROL_REG &= (uint8)~ultrasonic_uart_CNTR_ENABLE;
 240:.\Generated_Source\PSoC5/ultrasonic_uart.c ****         #endif /* End ultrasonic_uart_TXCLKGEN_DP */
 241:.\Generated_Source\PSoC5/ultrasonic_uart.c ****     #endif /* ultrasonic_uart_TX_ENABLED */
 242:.\Generated_Source\PSoC5/ultrasonic_uart.c **** 
 243:.\Generated_Source\PSoC5/ultrasonic_uart.c ****     #if(ultrasonic_uart_INTERNAL_CLOCK_USED)
 244:.\Generated_Source\PSoC5/ultrasonic_uart.c ****         /* Disable the clock. */
 245:.\Generated_Source\PSoC5/ultrasonic_uart.c ****         ultrasonic_uart_IntClock_Stop();
 229              		.loc 1 245 0
 230 0028 FFF7FEFF 		bl	ultrasonic_uart_IntClock_Stop
 246:.\Generated_Source\PSoC5/ultrasonic_uart.c ****     #endif /* End ultrasonic_uart_INTERNAL_CLOCK_USED */
 247:.\Generated_Source\PSoC5/ultrasonic_uart.c **** 
 248:.\Generated_Source\PSoC5/ultrasonic_uart.c ****     /* Disable internal interrupt component */
 249:.\Generated_Source\PSoC5/ultrasonic_uart.c ****     #if(ultrasonic_uart_RX_ENABLED || ultrasonic_uart_HD_ENABLED)
 250:.\Generated_Source\PSoC5/ultrasonic_uart.c ****         ultrasonic_uart_RXSTATUS_ACTL_REG  &= (uint8)~ultrasonic_uart_INT_ENABLE;
 231              		.loc 1 250 0
 232 002c 46F29C43 		movw	r3, #:lower16:1073767580
 233 0030 C4F20003 		movt	r3, #:upper16:1073767580
 234 0034 46F29C42 		movw	r2, #:lower16:1073767580
 235 0038 C4F20002 		movt	r2, #:upper16:1073767580
 236 003c 1278     		ldrb	r2, [r2, #0]
 237 003e D2B2     		uxtb	r2, r2
 238 0040 02F0EF02 		and	r2, r2, #239
 239 0044 1A70     		strb	r2, [r3, #0]
 251:.\Generated_Source\PSoC5/ultrasonic_uart.c ****         #if(ultrasonic_uart_RX_INTERRUPT_ENABLED && (ultrasonic_uart_RXBUFFERSIZE > ultrasonic_uart
 252:.\Generated_Source\PSoC5/ultrasonic_uart.c ****             ultrasonic_uart_DisableRxInt();
 253:.\Generated_Source\PSoC5/ultrasonic_uart.c ****         #endif /* End ultrasonic_uart_RX_INTERRUPT_ENABLED */
 254:.\Generated_Source\PSoC5/ultrasonic_uart.c ****     #endif /* End ultrasonic_uart_RX_ENABLED */
 255:.\Generated_Source\PSoC5/ultrasonic_uart.c **** 
 256:.\Generated_Source\PSoC5/ultrasonic_uart.c ****     #if(ultrasonic_uart_TX_ENABLED)
 257:.\Generated_Source\PSoC5/ultrasonic_uart.c ****         ultrasonic_uart_TXSTATUS_ACTL_REG &= (uint8)~ultrasonic_uart_INT_ENABLE;
 240              		.loc 1 257 0
 241 0046 46F29243 		movw	r3, #:lower16:1073767570
 242 004a C4F20003 		movt	r3, #:upper16:1073767570
 243 004e 46F29242 		movw	r2, #:lower16:1073767570
 244 0052 C4F20002 		movt	r2, #:upper16:1073767570
 245 0056 1278     		ldrb	r2, [r2, #0]
 246 0058 D2B2     		uxtb	r2, r2
 247 005a 02F0EF02 		and	r2, r2, #239
 248 005e 1A70     		strb	r2, [r3, #0]
 258:.\Generated_Source\PSoC5/ultrasonic_uart.c ****         #if(ultrasonic_uart_TX_INTERRUPT_ENABLED && (ultrasonic_uart_TXBUFFERSIZE > ultrasonic_uart
 259:.\Generated_Source\PSoC5/ultrasonic_uart.c ****             ultrasonic_uart_DisableTxInt();
 260:.\Generated_Source\PSoC5/ultrasonic_uart.c ****         #endif /* End ultrasonic_uart_TX_INTERRUPT_ENABLED */
 261:.\Generated_Source\PSoC5/ultrasonic_uart.c ****     #endif /* End ultrasonic_uart_TX_ENABLED */
ARM GAS  C:\Users\karunmj\AppData\Local\Temp\cc5pDfok.s 			page 10


 262:.\Generated_Source\PSoC5/ultrasonic_uart.c **** 
 263:.\Generated_Source\PSoC5/ultrasonic_uart.c ****     CyExitCriticalSection(enableInterrupts);
 249              		.loc 1 263 0
 250 0060 FB79     		ldrb	r3, [r7, #7]	@ zero_extendqisi2
 251 0062 1846     		mov	r0, r3
 252 0064 FFF7FEFF 		bl	CyExitCriticalSection
 264:.\Generated_Source\PSoC5/ultrasonic_uart.c **** }
 253              		.loc 1 264 0
 254 0068 07F10807 		add	r7, r7, #8
 255 006c BD46     		mov	sp, r7
 256 006e 80BD     		pop	{r7, pc}
 257              		.cfi_endproc
 258              	.LFE3:
 259              		.size	ultrasonic_uart_Stop, .-ultrasonic_uart_Stop
 260              		.section	.text.ultrasonic_uart_ReadControlRegister,"ax",%progbits
 261              		.align	2
 262              		.global	ultrasonic_uart_ReadControlRegister
 263              		.thumb
 264              		.thumb_func
 265              		.type	ultrasonic_uart_ReadControlRegister, %function
 266              	ultrasonic_uart_ReadControlRegister:
 267              	.LFB4:
 265:.\Generated_Source\PSoC5/ultrasonic_uart.c **** 
 266:.\Generated_Source\PSoC5/ultrasonic_uart.c **** 
 267:.\Generated_Source\PSoC5/ultrasonic_uart.c **** /*******************************************************************************
 268:.\Generated_Source\PSoC5/ultrasonic_uart.c **** * Function Name: ultrasonic_uart_ReadControlRegister
 269:.\Generated_Source\PSoC5/ultrasonic_uart.c **** ********************************************************************************
 270:.\Generated_Source\PSoC5/ultrasonic_uart.c **** *
 271:.\Generated_Source\PSoC5/ultrasonic_uart.c **** * Summary:
 272:.\Generated_Source\PSoC5/ultrasonic_uart.c **** *  Read the current state of the control register
 273:.\Generated_Source\PSoC5/ultrasonic_uart.c **** *
 274:.\Generated_Source\PSoC5/ultrasonic_uart.c **** * Parameters:
 275:.\Generated_Source\PSoC5/ultrasonic_uart.c **** *  None.
 276:.\Generated_Source\PSoC5/ultrasonic_uart.c **** *
 277:.\Generated_Source\PSoC5/ultrasonic_uart.c **** * Return:
 278:.\Generated_Source\PSoC5/ultrasonic_uart.c **** *  Current state of the control register.
 279:.\Generated_Source\PSoC5/ultrasonic_uart.c **** *
 280:.\Generated_Source\PSoC5/ultrasonic_uart.c **** *******************************************************************************/
 281:.\Generated_Source\PSoC5/ultrasonic_uart.c **** uint8 ultrasonic_uart_ReadControlRegister(void) 
 282:.\Generated_Source\PSoC5/ultrasonic_uart.c **** {
 268              		.loc 1 282 0
 269              		.cfi_startproc
 270              		@ args = 0, pretend = 0, frame = 0
 271              		@ frame_needed = 1, uses_anonymous_args = 0
 272              		@ link register save eliminated.
 273 0000 80B4     		push	{r7}
 274              	.LCFI10:
 275              		.cfi_def_cfa_offset 4
 276 0002 00AF     		add	r7, sp, #0
 277              		.cfi_offset 7, -4
 278              	.LCFI11:
 279              		.cfi_def_cfa_register 7
 283:.\Generated_Source\PSoC5/ultrasonic_uart.c ****     #if( ultrasonic_uart_CONTROL_REG_REMOVED )
 284:.\Generated_Source\PSoC5/ultrasonic_uart.c ****         return(0u);
 280              		.loc 1 284 0
 281 0004 4FF00003 		mov	r3, #0
 285:.\Generated_Source\PSoC5/ultrasonic_uart.c ****     #else
ARM GAS  C:\Users\karunmj\AppData\Local\Temp\cc5pDfok.s 			page 11


 286:.\Generated_Source\PSoC5/ultrasonic_uart.c ****         return(ultrasonic_uart_CONTROL_REG);
 287:.\Generated_Source\PSoC5/ultrasonic_uart.c ****     #endif /* End ultrasonic_uart_CONTROL_REG_REMOVED */
 288:.\Generated_Source\PSoC5/ultrasonic_uart.c **** }
 282              		.loc 1 288 0
 283 0008 1846     		mov	r0, r3
 284 000a BD46     		mov	sp, r7
 285 000c 80BC     		pop	{r7}
 286 000e 7047     		bx	lr
 287              		.cfi_endproc
 288              	.LFE4:
 289              		.size	ultrasonic_uart_ReadControlRegister, .-ultrasonic_uart_ReadControlRegister
 290              		.section	.text.ultrasonic_uart_WriteControlRegister,"ax",%progbits
 291              		.align	2
 292              		.global	ultrasonic_uart_WriteControlRegister
 293              		.thumb
 294              		.thumb_func
 295              		.type	ultrasonic_uart_WriteControlRegister, %function
 296              	ultrasonic_uart_WriteControlRegister:
 297              	.LFB5:
 289:.\Generated_Source\PSoC5/ultrasonic_uart.c **** 
 290:.\Generated_Source\PSoC5/ultrasonic_uart.c **** 
 291:.\Generated_Source\PSoC5/ultrasonic_uart.c **** /*******************************************************************************
 292:.\Generated_Source\PSoC5/ultrasonic_uart.c **** * Function Name: ultrasonic_uart_WriteControlRegister
 293:.\Generated_Source\PSoC5/ultrasonic_uart.c **** ********************************************************************************
 294:.\Generated_Source\PSoC5/ultrasonic_uart.c **** *
 295:.\Generated_Source\PSoC5/ultrasonic_uart.c **** * Summary:
 296:.\Generated_Source\PSoC5/ultrasonic_uart.c **** *  Writes an 8-bit value into the control register
 297:.\Generated_Source\PSoC5/ultrasonic_uart.c **** *
 298:.\Generated_Source\PSoC5/ultrasonic_uart.c **** * Parameters:
 299:.\Generated_Source\PSoC5/ultrasonic_uart.c **** *  control:  control register value
 300:.\Generated_Source\PSoC5/ultrasonic_uart.c **** *
 301:.\Generated_Source\PSoC5/ultrasonic_uart.c **** * Return:
 302:.\Generated_Source\PSoC5/ultrasonic_uart.c **** *  None.
 303:.\Generated_Source\PSoC5/ultrasonic_uart.c **** *
 304:.\Generated_Source\PSoC5/ultrasonic_uart.c **** *******************************************************************************/
 305:.\Generated_Source\PSoC5/ultrasonic_uart.c **** void  ultrasonic_uart_WriteControlRegister(uint8 control) 
 306:.\Generated_Source\PSoC5/ultrasonic_uart.c **** {
 298              		.loc 1 306 0
 299              		.cfi_startproc
 300              		@ args = 0, pretend = 0, frame = 8
 301              		@ frame_needed = 1, uses_anonymous_args = 0
 302              		@ link register save eliminated.
 303 0000 80B4     		push	{r7}
 304              	.LCFI12:
 305              		.cfi_def_cfa_offset 4
 306 0002 83B0     		sub	sp, sp, #12
 307              	.LCFI13:
 308              		.cfi_def_cfa_offset 16
 309 0004 00AF     		add	r7, sp, #0
 310              		.cfi_offset 7, -4
 311              	.LCFI14:
 312              		.cfi_def_cfa_register 7
 313 0006 0346     		mov	r3, r0
 314 0008 FB71     		strb	r3, [r7, #7]
 307:.\Generated_Source\PSoC5/ultrasonic_uart.c ****     #if( ultrasonic_uart_CONTROL_REG_REMOVED )
 308:.\Generated_Source\PSoC5/ultrasonic_uart.c ****         if(control != 0u) { }      /* release compiler warning */
 309:.\Generated_Source\PSoC5/ultrasonic_uart.c ****     #else
ARM GAS  C:\Users\karunmj\AppData\Local\Temp\cc5pDfok.s 			page 12


 310:.\Generated_Source\PSoC5/ultrasonic_uart.c ****        ultrasonic_uart_CONTROL_REG = control;
 311:.\Generated_Source\PSoC5/ultrasonic_uart.c ****     #endif /* End ultrasonic_uart_CONTROL_REG_REMOVED */
 312:.\Generated_Source\PSoC5/ultrasonic_uart.c **** }
 315              		.loc 1 312 0
 316 000a 07F10C07 		add	r7, r7, #12
 317 000e BD46     		mov	sp, r7
 318 0010 80BC     		pop	{r7}
 319 0012 7047     		bx	lr
 320              		.cfi_endproc
 321              	.LFE5:
 322              		.size	ultrasonic_uart_WriteControlRegister, .-ultrasonic_uart_WriteControlRegister
 323              		.section	.text.ultrasonic_uart_SetRxInterruptMode,"ax",%progbits
 324              		.align	2
 325              		.global	ultrasonic_uart_SetRxInterruptMode
 326              		.thumb
 327              		.thumb_func
 328              		.type	ultrasonic_uart_SetRxInterruptMode, %function
 329              	ultrasonic_uart_SetRxInterruptMode:
 330              	.LFB6:
 313:.\Generated_Source\PSoC5/ultrasonic_uart.c **** 
 314:.\Generated_Source\PSoC5/ultrasonic_uart.c **** 
 315:.\Generated_Source\PSoC5/ultrasonic_uart.c **** #if(ultrasonic_uart_RX_ENABLED || ultrasonic_uart_HD_ENABLED)
 316:.\Generated_Source\PSoC5/ultrasonic_uart.c **** 
 317:.\Generated_Source\PSoC5/ultrasonic_uart.c ****     #if(ultrasonic_uart_RX_INTERRUPT_ENABLED)
 318:.\Generated_Source\PSoC5/ultrasonic_uart.c **** 
 319:.\Generated_Source\PSoC5/ultrasonic_uart.c ****         /*******************************************************************************
 320:.\Generated_Source\PSoC5/ultrasonic_uart.c ****         * Function Name: ultrasonic_uart_EnableRxInt
 321:.\Generated_Source\PSoC5/ultrasonic_uart.c ****         ********************************************************************************
 322:.\Generated_Source\PSoC5/ultrasonic_uart.c ****         *
 323:.\Generated_Source\PSoC5/ultrasonic_uart.c ****         * Summary:
 324:.\Generated_Source\PSoC5/ultrasonic_uart.c ****         *  Enable RX interrupt generation
 325:.\Generated_Source\PSoC5/ultrasonic_uart.c ****         *
 326:.\Generated_Source\PSoC5/ultrasonic_uart.c ****         * Parameters:
 327:.\Generated_Source\PSoC5/ultrasonic_uart.c ****         *  None.
 328:.\Generated_Source\PSoC5/ultrasonic_uart.c ****         *
 329:.\Generated_Source\PSoC5/ultrasonic_uart.c ****         * Return:
 330:.\Generated_Source\PSoC5/ultrasonic_uart.c ****         *  None.
 331:.\Generated_Source\PSoC5/ultrasonic_uart.c ****         *
 332:.\Generated_Source\PSoC5/ultrasonic_uart.c ****         * Theory:
 333:.\Generated_Source\PSoC5/ultrasonic_uart.c ****         *  Enable the interrupt output -or- the interrupt component itself
 334:.\Generated_Source\PSoC5/ultrasonic_uart.c ****         *
 335:.\Generated_Source\PSoC5/ultrasonic_uart.c ****         *******************************************************************************/
 336:.\Generated_Source\PSoC5/ultrasonic_uart.c ****         void ultrasonic_uart_EnableRxInt(void) 
 337:.\Generated_Source\PSoC5/ultrasonic_uart.c ****         {
 338:.\Generated_Source\PSoC5/ultrasonic_uart.c ****             CyIntEnable(ultrasonic_uart_RX_VECT_NUM);
 339:.\Generated_Source\PSoC5/ultrasonic_uart.c ****         }
 340:.\Generated_Source\PSoC5/ultrasonic_uart.c **** 
 341:.\Generated_Source\PSoC5/ultrasonic_uart.c **** 
 342:.\Generated_Source\PSoC5/ultrasonic_uart.c ****         /*******************************************************************************
 343:.\Generated_Source\PSoC5/ultrasonic_uart.c ****         * Function Name: ultrasonic_uart_DisableRxInt
 344:.\Generated_Source\PSoC5/ultrasonic_uart.c ****         ********************************************************************************
 345:.\Generated_Source\PSoC5/ultrasonic_uart.c ****         *
 346:.\Generated_Source\PSoC5/ultrasonic_uart.c ****         * Summary:
 347:.\Generated_Source\PSoC5/ultrasonic_uart.c ****         *  Disable RX interrupt generation
 348:.\Generated_Source\PSoC5/ultrasonic_uart.c ****         *
 349:.\Generated_Source\PSoC5/ultrasonic_uart.c ****         * Parameters:
 350:.\Generated_Source\PSoC5/ultrasonic_uart.c ****         *  None.
ARM GAS  C:\Users\karunmj\AppData\Local\Temp\cc5pDfok.s 			page 13


 351:.\Generated_Source\PSoC5/ultrasonic_uart.c ****         *
 352:.\Generated_Source\PSoC5/ultrasonic_uart.c ****         * Return:
 353:.\Generated_Source\PSoC5/ultrasonic_uart.c ****         *  None.
 354:.\Generated_Source\PSoC5/ultrasonic_uart.c ****         *
 355:.\Generated_Source\PSoC5/ultrasonic_uart.c ****         * Theory:
 356:.\Generated_Source\PSoC5/ultrasonic_uart.c ****         *  Disable the interrupt output -or- the interrupt component itself
 357:.\Generated_Source\PSoC5/ultrasonic_uart.c ****         *
 358:.\Generated_Source\PSoC5/ultrasonic_uart.c ****         *******************************************************************************/
 359:.\Generated_Source\PSoC5/ultrasonic_uart.c ****         void ultrasonic_uart_DisableRxInt(void) 
 360:.\Generated_Source\PSoC5/ultrasonic_uart.c ****         {
 361:.\Generated_Source\PSoC5/ultrasonic_uart.c ****             CyIntDisable(ultrasonic_uart_RX_VECT_NUM);
 362:.\Generated_Source\PSoC5/ultrasonic_uart.c ****         }
 363:.\Generated_Source\PSoC5/ultrasonic_uart.c **** 
 364:.\Generated_Source\PSoC5/ultrasonic_uart.c ****     #endif /* ultrasonic_uart_RX_INTERRUPT_ENABLED */
 365:.\Generated_Source\PSoC5/ultrasonic_uart.c **** 
 366:.\Generated_Source\PSoC5/ultrasonic_uart.c **** 
 367:.\Generated_Source\PSoC5/ultrasonic_uart.c ****     /*******************************************************************************
 368:.\Generated_Source\PSoC5/ultrasonic_uart.c ****     * Function Name: ultrasonic_uart_SetRxInterruptMode
 369:.\Generated_Source\PSoC5/ultrasonic_uart.c ****     ********************************************************************************
 370:.\Generated_Source\PSoC5/ultrasonic_uart.c ****     *
 371:.\Generated_Source\PSoC5/ultrasonic_uart.c ****     * Summary:
 372:.\Generated_Source\PSoC5/ultrasonic_uart.c ****     *  Configure which status bits trigger an interrupt event
 373:.\Generated_Source\PSoC5/ultrasonic_uart.c ****     *
 374:.\Generated_Source\PSoC5/ultrasonic_uart.c ****     * Parameters:
 375:.\Generated_Source\PSoC5/ultrasonic_uart.c ****     *  IntSrc:  An or'd combination of the desired status bit masks (defined in
 376:.\Generated_Source\PSoC5/ultrasonic_uart.c ****     *           the header file)
 377:.\Generated_Source\PSoC5/ultrasonic_uart.c ****     *
 378:.\Generated_Source\PSoC5/ultrasonic_uart.c ****     * Return:
 379:.\Generated_Source\PSoC5/ultrasonic_uart.c ****     *  None.
 380:.\Generated_Source\PSoC5/ultrasonic_uart.c ****     *
 381:.\Generated_Source\PSoC5/ultrasonic_uart.c ****     * Theory:
 382:.\Generated_Source\PSoC5/ultrasonic_uart.c ****     *  Enables the output of specific status bits to the interrupt controller
 383:.\Generated_Source\PSoC5/ultrasonic_uart.c ****     *
 384:.\Generated_Source\PSoC5/ultrasonic_uart.c ****     *******************************************************************************/
 385:.\Generated_Source\PSoC5/ultrasonic_uart.c ****     void ultrasonic_uart_SetRxInterruptMode(uint8 intSrc) 
 386:.\Generated_Source\PSoC5/ultrasonic_uart.c ****     {
 331              		.loc 1 386 0
 332              		.cfi_startproc
 333              		@ args = 0, pretend = 0, frame = 8
 334              		@ frame_needed = 1, uses_anonymous_args = 0
 335              		@ link register save eliminated.
 336 0000 80B4     		push	{r7}
 337              	.LCFI15:
 338              		.cfi_def_cfa_offset 4
 339 0002 83B0     		sub	sp, sp, #12
 340              	.LCFI16:
 341              		.cfi_def_cfa_offset 16
 342 0004 00AF     		add	r7, sp, #0
 343              		.cfi_offset 7, -4
 344              	.LCFI17:
 345              		.cfi_def_cfa_register 7
 346 0006 0346     		mov	r3, r0
 347 0008 FB71     		strb	r3, [r7, #7]
 387:.\Generated_Source\PSoC5/ultrasonic_uart.c ****         ultrasonic_uart_RXSTATUS_MASK_REG  = intSrc;
 348              		.loc 1 387 0
 349 000a 46F28C43 		movw	r3, #:lower16:1073767564
 350 000e C4F20003 		movt	r3, #:upper16:1073767564
ARM GAS  C:\Users\karunmj\AppData\Local\Temp\cc5pDfok.s 			page 14


 351 0012 FA79     		ldrb	r2, [r7, #7]
 352 0014 1A70     		strb	r2, [r3, #0]
 388:.\Generated_Source\PSoC5/ultrasonic_uart.c ****     }
 353              		.loc 1 388 0
 354 0016 07F10C07 		add	r7, r7, #12
 355 001a BD46     		mov	sp, r7
 356 001c 80BC     		pop	{r7}
 357 001e 7047     		bx	lr
 358              		.cfi_endproc
 359              	.LFE6:
 360              		.size	ultrasonic_uart_SetRxInterruptMode, .-ultrasonic_uart_SetRxInterruptMode
 361              		.section	.text.ultrasonic_uart_ReadRxData,"ax",%progbits
 362              		.align	2
 363              		.global	ultrasonic_uart_ReadRxData
 364              		.thumb
 365              		.thumb_func
 366              		.type	ultrasonic_uart_ReadRxData, %function
 367              	ultrasonic_uart_ReadRxData:
 368              	.LFB7:
 389:.\Generated_Source\PSoC5/ultrasonic_uart.c **** 
 390:.\Generated_Source\PSoC5/ultrasonic_uart.c **** 
 391:.\Generated_Source\PSoC5/ultrasonic_uart.c ****     /*******************************************************************************
 392:.\Generated_Source\PSoC5/ultrasonic_uart.c ****     * Function Name: ultrasonic_uart_ReadRxData
 393:.\Generated_Source\PSoC5/ultrasonic_uart.c ****     ********************************************************************************
 394:.\Generated_Source\PSoC5/ultrasonic_uart.c ****     *
 395:.\Generated_Source\PSoC5/ultrasonic_uart.c ****     * Summary:
 396:.\Generated_Source\PSoC5/ultrasonic_uart.c ****     *  Returns data in RX Data register without checking status register to
 397:.\Generated_Source\PSoC5/ultrasonic_uart.c ****     *  determine if data is valid
 398:.\Generated_Source\PSoC5/ultrasonic_uart.c ****     *
 399:.\Generated_Source\PSoC5/ultrasonic_uart.c ****     * Parameters:
 400:.\Generated_Source\PSoC5/ultrasonic_uart.c ****     *  None.
 401:.\Generated_Source\PSoC5/ultrasonic_uart.c ****     *
 402:.\Generated_Source\PSoC5/ultrasonic_uart.c ****     * Return:
 403:.\Generated_Source\PSoC5/ultrasonic_uart.c ****     *  Received data from RX register
 404:.\Generated_Source\PSoC5/ultrasonic_uart.c ****     *
 405:.\Generated_Source\PSoC5/ultrasonic_uart.c ****     * Global Variables:
 406:.\Generated_Source\PSoC5/ultrasonic_uart.c ****     *  ultrasonic_uart_rxBuffer - RAM buffer pointer for save received data.
 407:.\Generated_Source\PSoC5/ultrasonic_uart.c ****     *  ultrasonic_uart_rxBufferWrite - cyclic index for write to rxBuffer,
 408:.\Generated_Source\PSoC5/ultrasonic_uart.c ****     *     checked to identify new data.
 409:.\Generated_Source\PSoC5/ultrasonic_uart.c ****     *  ultrasonic_uart_rxBufferRead - cyclic index for read from rxBuffer,
 410:.\Generated_Source\PSoC5/ultrasonic_uart.c ****     *     incremented after each byte has been read from buffer.
 411:.\Generated_Source\PSoC5/ultrasonic_uart.c ****     *  ultrasonic_uart_rxBufferLoopDetect - creared if loop condition was detected
 412:.\Generated_Source\PSoC5/ultrasonic_uart.c ****     *     in RX ISR.
 413:.\Generated_Source\PSoC5/ultrasonic_uart.c ****     *
 414:.\Generated_Source\PSoC5/ultrasonic_uart.c ****     * Reentrant:
 415:.\Generated_Source\PSoC5/ultrasonic_uart.c ****     *  No.
 416:.\Generated_Source\PSoC5/ultrasonic_uart.c ****     *
 417:.\Generated_Source\PSoC5/ultrasonic_uart.c ****     *******************************************************************************/
 418:.\Generated_Source\PSoC5/ultrasonic_uart.c ****     uint8 ultrasonic_uart_ReadRxData(void) 
 419:.\Generated_Source\PSoC5/ultrasonic_uart.c ****     {
 369              		.loc 1 419 0
 370              		.cfi_startproc
 371              		@ args = 0, pretend = 0, frame = 8
 372              		@ frame_needed = 1, uses_anonymous_args = 0
 373              		@ link register save eliminated.
 374 0000 80B4     		push	{r7}
 375              	.LCFI18:
ARM GAS  C:\Users\karunmj\AppData\Local\Temp\cc5pDfok.s 			page 15


 376              		.cfi_def_cfa_offset 4
 377 0002 83B0     		sub	sp, sp, #12
 378              	.LCFI19:
 379              		.cfi_def_cfa_offset 16
 380 0004 00AF     		add	r7, sp, #0
 381              		.cfi_offset 7, -4
 382              	.LCFI20:
 383              		.cfi_def_cfa_register 7
 420:.\Generated_Source\PSoC5/ultrasonic_uart.c ****         uint8 rxData;
 421:.\Generated_Source\PSoC5/ultrasonic_uart.c **** 
 422:.\Generated_Source\PSoC5/ultrasonic_uart.c ****         #if(ultrasonic_uart_RXBUFFERSIZE > ultrasonic_uart_FIFO_LENGTH)
 423:.\Generated_Source\PSoC5/ultrasonic_uart.c ****             uint8 loc_rxBufferRead;
 424:.\Generated_Source\PSoC5/ultrasonic_uart.c ****             uint8 loc_rxBufferWrite;
 425:.\Generated_Source\PSoC5/ultrasonic_uart.c ****             /* Protect variables that could change on interrupt. */
 426:.\Generated_Source\PSoC5/ultrasonic_uart.c ****             /* Disable Rx interrupt. */
 427:.\Generated_Source\PSoC5/ultrasonic_uart.c ****             #if(ultrasonic_uart_RX_INTERRUPT_ENABLED)
 428:.\Generated_Source\PSoC5/ultrasonic_uart.c ****                 ultrasonic_uart_DisableRxInt();
 429:.\Generated_Source\PSoC5/ultrasonic_uart.c ****             #endif /* ultrasonic_uart_RX_INTERRUPT_ENABLED */
 430:.\Generated_Source\PSoC5/ultrasonic_uart.c ****             loc_rxBufferRead = ultrasonic_uart_rxBufferRead;
 431:.\Generated_Source\PSoC5/ultrasonic_uart.c ****             loc_rxBufferWrite = ultrasonic_uart_rxBufferWrite;
 432:.\Generated_Source\PSoC5/ultrasonic_uart.c **** 
 433:.\Generated_Source\PSoC5/ultrasonic_uart.c ****             if( (ultrasonic_uart_rxBufferLoopDetect != 0u) || (loc_rxBufferRead != loc_rxBufferWrit
 434:.\Generated_Source\PSoC5/ultrasonic_uart.c ****             {
 435:.\Generated_Source\PSoC5/ultrasonic_uart.c ****                 rxData = ultrasonic_uart_rxBuffer[loc_rxBufferRead];
 436:.\Generated_Source\PSoC5/ultrasonic_uart.c ****                 loc_rxBufferRead++;
 437:.\Generated_Source\PSoC5/ultrasonic_uart.c **** 
 438:.\Generated_Source\PSoC5/ultrasonic_uart.c ****                 if(loc_rxBufferRead >= ultrasonic_uart_RXBUFFERSIZE)
 439:.\Generated_Source\PSoC5/ultrasonic_uart.c ****                 {
 440:.\Generated_Source\PSoC5/ultrasonic_uart.c ****                     loc_rxBufferRead = 0u;
 441:.\Generated_Source\PSoC5/ultrasonic_uart.c ****                 }
 442:.\Generated_Source\PSoC5/ultrasonic_uart.c ****                 /* Update the real pointer */
 443:.\Generated_Source\PSoC5/ultrasonic_uart.c ****                 ultrasonic_uart_rxBufferRead = loc_rxBufferRead;
 444:.\Generated_Source\PSoC5/ultrasonic_uart.c **** 
 445:.\Generated_Source\PSoC5/ultrasonic_uart.c ****                 if(ultrasonic_uart_rxBufferLoopDetect != 0u )
 446:.\Generated_Source\PSoC5/ultrasonic_uart.c ****                 {
 447:.\Generated_Source\PSoC5/ultrasonic_uart.c ****                     ultrasonic_uart_rxBufferLoopDetect = 0u;
 448:.\Generated_Source\PSoC5/ultrasonic_uart.c ****                     #if( (ultrasonic_uart_RX_INTERRUPT_ENABLED) && (ultrasonic_uart_FLOW_CONTROL !=
 449:.\Generated_Source\PSoC5/ultrasonic_uart.c ****                          (ultrasonic_uart_RXBUFFERSIZE > ultrasonic_uart_FIFO_LENGTH) )
 450:.\Generated_Source\PSoC5/ultrasonic_uart.c ****                         /* When Hardware Flow Control selected - return RX mask */
 451:.\Generated_Source\PSoC5/ultrasonic_uart.c ****                         #if( ultrasonic_uart_HD_ENABLED )
 452:.\Generated_Source\PSoC5/ultrasonic_uart.c ****                             if((ultrasonic_uart_CONTROL_REG & ultrasonic_uart_CTRL_HD_SEND) == 0u)
 453:.\Generated_Source\PSoC5/ultrasonic_uart.c ****                             {   /* In Half duplex mode return RX mask only in RX
 454:.\Generated_Source\PSoC5/ultrasonic_uart.c ****                                 *  configuration set, otherwise
 455:.\Generated_Source\PSoC5/ultrasonic_uart.c ****                                 *  mask will be returned in LoadRxConfig() API.
 456:.\Generated_Source\PSoC5/ultrasonic_uart.c ****                                 */
 457:.\Generated_Source\PSoC5/ultrasonic_uart.c ****                                 ultrasonic_uart_RXSTATUS_MASK_REG  |= ultrasonic_uart_RX_STS_FIFO_N
 458:.\Generated_Source\PSoC5/ultrasonic_uart.c ****                             }
 459:.\Generated_Source\PSoC5/ultrasonic_uart.c ****                         #else
 460:.\Generated_Source\PSoC5/ultrasonic_uart.c ****                             ultrasonic_uart_RXSTATUS_MASK_REG  |= ultrasonic_uart_RX_STS_FIFO_NOTEM
 461:.\Generated_Source\PSoC5/ultrasonic_uart.c ****                         #endif /* end ultrasonic_uart_HD_ENABLED */
 462:.\Generated_Source\PSoC5/ultrasonic_uart.c ****                     #endif /* ultrasonic_uart_RX_INTERRUPT_ENABLED and Hardware flow control*/
 463:.\Generated_Source\PSoC5/ultrasonic_uart.c ****                 }
 464:.\Generated_Source\PSoC5/ultrasonic_uart.c ****             }
 465:.\Generated_Source\PSoC5/ultrasonic_uart.c ****             else
 466:.\Generated_Source\PSoC5/ultrasonic_uart.c ****             {   /* Needs to check status for RX_STS_FIFO_NOTEMPTY bit*/
 467:.\Generated_Source\PSoC5/ultrasonic_uart.c ****                 rxData = ultrasonic_uart_RXDATA_REG;
 468:.\Generated_Source\PSoC5/ultrasonic_uart.c ****             }
ARM GAS  C:\Users\karunmj\AppData\Local\Temp\cc5pDfok.s 			page 16


 469:.\Generated_Source\PSoC5/ultrasonic_uart.c **** 
 470:.\Generated_Source\PSoC5/ultrasonic_uart.c ****             /* Enable Rx interrupt. */
 471:.\Generated_Source\PSoC5/ultrasonic_uart.c ****             #if(ultrasonic_uart_RX_INTERRUPT_ENABLED)
 472:.\Generated_Source\PSoC5/ultrasonic_uart.c ****                 ultrasonic_uart_EnableRxInt();
 473:.\Generated_Source\PSoC5/ultrasonic_uart.c ****             #endif /* End ultrasonic_uart_RX_INTERRUPT_ENABLED */
 474:.\Generated_Source\PSoC5/ultrasonic_uart.c **** 
 475:.\Generated_Source\PSoC5/ultrasonic_uart.c ****         #else /* ultrasonic_uart_RXBUFFERSIZE > ultrasonic_uart_FIFO_LENGTH */
 476:.\Generated_Source\PSoC5/ultrasonic_uart.c **** 
 477:.\Generated_Source\PSoC5/ultrasonic_uart.c ****             /* Needs to check status for RX_STS_FIFO_NOTEMPTY bit*/
 478:.\Generated_Source\PSoC5/ultrasonic_uart.c ****             rxData = ultrasonic_uart_RXDATA_REG;
 384              		.loc 1 478 0
 385 0006 46F24F43 		movw	r3, #:lower16:1073767503
 386 000a C4F20003 		movt	r3, #:upper16:1073767503
 387 000e 1B78     		ldrb	r3, [r3, #0]
 388 0010 FB71     		strb	r3, [r7, #7]
 479:.\Generated_Source\PSoC5/ultrasonic_uart.c **** 
 480:.\Generated_Source\PSoC5/ultrasonic_uart.c ****         #endif /* ultrasonic_uart_RXBUFFERSIZE > ultrasonic_uart_FIFO_LENGTH */
 481:.\Generated_Source\PSoC5/ultrasonic_uart.c **** 
 482:.\Generated_Source\PSoC5/ultrasonic_uart.c ****         return(rxData);
 389              		.loc 1 482 0
 390 0012 FB79     		ldrb	r3, [r7, #7]	@ zero_extendqisi2
 483:.\Generated_Source\PSoC5/ultrasonic_uart.c ****     }
 391              		.loc 1 483 0
 392 0014 1846     		mov	r0, r3
 393 0016 07F10C07 		add	r7, r7, #12
 394 001a BD46     		mov	sp, r7
 395 001c 80BC     		pop	{r7}
 396 001e 7047     		bx	lr
 397              		.cfi_endproc
 398              	.LFE7:
 399              		.size	ultrasonic_uart_ReadRxData, .-ultrasonic_uart_ReadRxData
 400              		.section	.text.ultrasonic_uart_ReadRxStatus,"ax",%progbits
 401              		.align	2
 402              		.global	ultrasonic_uart_ReadRxStatus
 403              		.thumb
 404              		.thumb_func
 405              		.type	ultrasonic_uart_ReadRxStatus, %function
 406              	ultrasonic_uart_ReadRxStatus:
 407              	.LFB8:
 484:.\Generated_Source\PSoC5/ultrasonic_uart.c **** 
 485:.\Generated_Source\PSoC5/ultrasonic_uart.c **** 
 486:.\Generated_Source\PSoC5/ultrasonic_uart.c ****     /*******************************************************************************
 487:.\Generated_Source\PSoC5/ultrasonic_uart.c ****     * Function Name: ultrasonic_uart_ReadRxStatus
 488:.\Generated_Source\PSoC5/ultrasonic_uart.c ****     ********************************************************************************
 489:.\Generated_Source\PSoC5/ultrasonic_uart.c ****     *
 490:.\Generated_Source\PSoC5/ultrasonic_uart.c ****     * Summary:
 491:.\Generated_Source\PSoC5/ultrasonic_uart.c ****     *  Read the current state of the status register
 492:.\Generated_Source\PSoC5/ultrasonic_uart.c ****     *  And detect software buffer overflow.
 493:.\Generated_Source\PSoC5/ultrasonic_uart.c ****     *
 494:.\Generated_Source\PSoC5/ultrasonic_uart.c ****     * Parameters:
 495:.\Generated_Source\PSoC5/ultrasonic_uart.c ****     *  None.
 496:.\Generated_Source\PSoC5/ultrasonic_uart.c ****     *
 497:.\Generated_Source\PSoC5/ultrasonic_uart.c ****     * Return:
 498:.\Generated_Source\PSoC5/ultrasonic_uart.c ****     *  Current state of the status register.
 499:.\Generated_Source\PSoC5/ultrasonic_uart.c ****     *
 500:.\Generated_Source\PSoC5/ultrasonic_uart.c ****     * Global Variables:
 501:.\Generated_Source\PSoC5/ultrasonic_uart.c ****     *  ultrasonic_uart_rxBufferOverflow - used to indicate overload condition.
ARM GAS  C:\Users\karunmj\AppData\Local\Temp\cc5pDfok.s 			page 17


 502:.\Generated_Source\PSoC5/ultrasonic_uart.c ****     *   It set to one in RX interrupt when there isn?t free space in
 503:.\Generated_Source\PSoC5/ultrasonic_uart.c ****     *   ultrasonic_uart_rxBufferRead to write new data. This condition returned
 504:.\Generated_Source\PSoC5/ultrasonic_uart.c ****     *   and cleared to zero by this API as an
 505:.\Generated_Source\PSoC5/ultrasonic_uart.c ****     *   ultrasonic_uart_RX_STS_SOFT_BUFF_OVER bit along with RX Status register
 506:.\Generated_Source\PSoC5/ultrasonic_uart.c ****     *   bits.
 507:.\Generated_Source\PSoC5/ultrasonic_uart.c ****     *
 508:.\Generated_Source\PSoC5/ultrasonic_uart.c ****     *******************************************************************************/
 509:.\Generated_Source\PSoC5/ultrasonic_uart.c ****     uint8 ultrasonic_uart_ReadRxStatus(void) 
 510:.\Generated_Source\PSoC5/ultrasonic_uart.c ****     {
 408              		.loc 1 510 0
 409              		.cfi_startproc
 410              		@ args = 0, pretend = 0, frame = 8
 411              		@ frame_needed = 1, uses_anonymous_args = 0
 412              		@ link register save eliminated.
 413 0000 80B4     		push	{r7}
 414              	.LCFI21:
 415              		.cfi_def_cfa_offset 4
 416 0002 83B0     		sub	sp, sp, #12
 417              	.LCFI22:
 418              		.cfi_def_cfa_offset 16
 419 0004 00AF     		add	r7, sp, #0
 420              		.cfi_offset 7, -4
 421              	.LCFI23:
 422              		.cfi_def_cfa_register 7
 511:.\Generated_Source\PSoC5/ultrasonic_uart.c ****         uint8 status;
 512:.\Generated_Source\PSoC5/ultrasonic_uart.c **** 
 513:.\Generated_Source\PSoC5/ultrasonic_uart.c ****         status = ultrasonic_uart_RXSTATUS_REG & ultrasonic_uart_RX_HW_MASK;
 423              		.loc 1 513 0
 424 0006 46F26C43 		movw	r3, #:lower16:1073767532
 425 000a C4F20003 		movt	r3, #:upper16:1073767532
 426 000e 1B78     		ldrb	r3, [r3, #0]
 427 0010 DBB2     		uxtb	r3, r3
 428 0012 03F07F03 		and	r3, r3, #127
 429 0016 FB71     		strb	r3, [r7, #7]
 514:.\Generated_Source\PSoC5/ultrasonic_uart.c **** 
 515:.\Generated_Source\PSoC5/ultrasonic_uart.c ****         #if(ultrasonic_uart_RXBUFFERSIZE > ultrasonic_uart_FIFO_LENGTH)
 516:.\Generated_Source\PSoC5/ultrasonic_uart.c ****             if( ultrasonic_uart_rxBufferOverflow != 0u )
 517:.\Generated_Source\PSoC5/ultrasonic_uart.c ****             {
 518:.\Generated_Source\PSoC5/ultrasonic_uart.c ****                 status |= ultrasonic_uart_RX_STS_SOFT_BUFF_OVER;
 519:.\Generated_Source\PSoC5/ultrasonic_uart.c ****                 ultrasonic_uart_rxBufferOverflow = 0u;
 520:.\Generated_Source\PSoC5/ultrasonic_uart.c ****             }
 521:.\Generated_Source\PSoC5/ultrasonic_uart.c ****         #endif /* ultrasonic_uart_RXBUFFERSIZE */
 522:.\Generated_Source\PSoC5/ultrasonic_uart.c **** 
 523:.\Generated_Source\PSoC5/ultrasonic_uart.c ****         return(status);
 430              		.loc 1 523 0
 431 0018 FB79     		ldrb	r3, [r7, #7]	@ zero_extendqisi2
 524:.\Generated_Source\PSoC5/ultrasonic_uart.c ****     }
 432              		.loc 1 524 0
 433 001a 1846     		mov	r0, r3
 434 001c 07F10C07 		add	r7, r7, #12
 435 0020 BD46     		mov	sp, r7
 436 0022 80BC     		pop	{r7}
 437 0024 7047     		bx	lr
 438              		.cfi_endproc
 439              	.LFE8:
 440              		.size	ultrasonic_uart_ReadRxStatus, .-ultrasonic_uart_ReadRxStatus
 441 0026 00BF     		.section	.text.ultrasonic_uart_GetChar,"ax",%progbits
ARM GAS  C:\Users\karunmj\AppData\Local\Temp\cc5pDfok.s 			page 18


 442              		.align	2
 443              		.global	ultrasonic_uart_GetChar
 444              		.thumb
 445              		.thumb_func
 446              		.type	ultrasonic_uart_GetChar, %function
 447              	ultrasonic_uart_GetChar:
 448              	.LFB9:
 525:.\Generated_Source\PSoC5/ultrasonic_uart.c **** 
 526:.\Generated_Source\PSoC5/ultrasonic_uart.c **** 
 527:.\Generated_Source\PSoC5/ultrasonic_uart.c ****     /*******************************************************************************
 528:.\Generated_Source\PSoC5/ultrasonic_uart.c ****     * Function Name: ultrasonic_uart_GetChar
 529:.\Generated_Source\PSoC5/ultrasonic_uart.c ****     ********************************************************************************
 530:.\Generated_Source\PSoC5/ultrasonic_uart.c ****     *
 531:.\Generated_Source\PSoC5/ultrasonic_uart.c ****     * Summary:
 532:.\Generated_Source\PSoC5/ultrasonic_uart.c ****     *  Reads UART RX buffer immediately, if data is not available or an error
 533:.\Generated_Source\PSoC5/ultrasonic_uart.c ****     *  condition exists, zero is returned; otherwise, character is read and
 534:.\Generated_Source\PSoC5/ultrasonic_uart.c ****     *  returned.
 535:.\Generated_Source\PSoC5/ultrasonic_uart.c ****     *
 536:.\Generated_Source\PSoC5/ultrasonic_uart.c ****     * Parameters:
 537:.\Generated_Source\PSoC5/ultrasonic_uart.c ****     *  None.
 538:.\Generated_Source\PSoC5/ultrasonic_uart.c ****     *
 539:.\Generated_Source\PSoC5/ultrasonic_uart.c ****     * Return:
 540:.\Generated_Source\PSoC5/ultrasonic_uart.c ****     *  Character read from UART RX buffer. ASCII characters from 1 to 255 are valid.
 541:.\Generated_Source\PSoC5/ultrasonic_uart.c ****     *  A returned zero signifies an error condition or no data available.
 542:.\Generated_Source\PSoC5/ultrasonic_uart.c ****     *
 543:.\Generated_Source\PSoC5/ultrasonic_uart.c ****     * Global Variables:
 544:.\Generated_Source\PSoC5/ultrasonic_uart.c ****     *  ultrasonic_uart_rxBuffer - RAM buffer pointer for save received data.
 545:.\Generated_Source\PSoC5/ultrasonic_uart.c ****     *  ultrasonic_uart_rxBufferWrite - cyclic index for write to rxBuffer,
 546:.\Generated_Source\PSoC5/ultrasonic_uart.c ****     *     checked to identify new data.
 547:.\Generated_Source\PSoC5/ultrasonic_uart.c ****     *  ultrasonic_uart_rxBufferRead - cyclic index for read from rxBuffer,
 548:.\Generated_Source\PSoC5/ultrasonic_uart.c ****     *     incremented after each byte has been read from buffer.
 549:.\Generated_Source\PSoC5/ultrasonic_uart.c ****     *  ultrasonic_uart_rxBufferLoopDetect - creared if loop condition was detected
 550:.\Generated_Source\PSoC5/ultrasonic_uart.c ****     *     in RX ISR.
 551:.\Generated_Source\PSoC5/ultrasonic_uart.c ****     *
 552:.\Generated_Source\PSoC5/ultrasonic_uart.c ****     * Reentrant:
 553:.\Generated_Source\PSoC5/ultrasonic_uart.c ****     *  No.
 554:.\Generated_Source\PSoC5/ultrasonic_uart.c ****     *
 555:.\Generated_Source\PSoC5/ultrasonic_uart.c ****     *******************************************************************************/
 556:.\Generated_Source\PSoC5/ultrasonic_uart.c ****     uint8 ultrasonic_uart_GetChar(void) 
 557:.\Generated_Source\PSoC5/ultrasonic_uart.c ****     {
 449              		.loc 1 557 0
 450              		.cfi_startproc
 451              		@ args = 0, pretend = 0, frame = 8
 452              		@ frame_needed = 1, uses_anonymous_args = 0
 453              		@ link register save eliminated.
 454 0000 80B4     		push	{r7}
 455              	.LCFI24:
 456              		.cfi_def_cfa_offset 4
 457 0002 83B0     		sub	sp, sp, #12
 458              	.LCFI25:
 459              		.cfi_def_cfa_offset 16
 460 0004 00AF     		add	r7, sp, #0
 461              		.cfi_offset 7, -4
 462              	.LCFI26:
 463              		.cfi_def_cfa_register 7
 558:.\Generated_Source\PSoC5/ultrasonic_uart.c ****         uint8 rxData = 0u;
 464              		.loc 1 558 0
ARM GAS  C:\Users\karunmj\AppData\Local\Temp\cc5pDfok.s 			page 19


 465 0006 4FF00003 		mov	r3, #0
 466 000a BB71     		strb	r3, [r7, #6]
 559:.\Generated_Source\PSoC5/ultrasonic_uart.c ****         uint8 rxStatus;
 560:.\Generated_Source\PSoC5/ultrasonic_uart.c **** 
 561:.\Generated_Source\PSoC5/ultrasonic_uart.c ****         #if(ultrasonic_uart_RXBUFFERSIZE > ultrasonic_uart_FIFO_LENGTH)
 562:.\Generated_Source\PSoC5/ultrasonic_uart.c ****             uint8 loc_rxBufferRead;
 563:.\Generated_Source\PSoC5/ultrasonic_uart.c ****             uint8 loc_rxBufferWrite;
 564:.\Generated_Source\PSoC5/ultrasonic_uart.c ****             /* Protect variables that could change on interrupt. */
 565:.\Generated_Source\PSoC5/ultrasonic_uart.c ****             /* Disable Rx interrupt. */
 566:.\Generated_Source\PSoC5/ultrasonic_uart.c ****             #if(ultrasonic_uart_RX_INTERRUPT_ENABLED)
 567:.\Generated_Source\PSoC5/ultrasonic_uart.c ****                 ultrasonic_uart_DisableRxInt();
 568:.\Generated_Source\PSoC5/ultrasonic_uart.c ****             #endif /* ultrasonic_uart_RX_INTERRUPT_ENABLED */
 569:.\Generated_Source\PSoC5/ultrasonic_uart.c ****             loc_rxBufferRead = ultrasonic_uart_rxBufferRead;
 570:.\Generated_Source\PSoC5/ultrasonic_uart.c ****             loc_rxBufferWrite = ultrasonic_uart_rxBufferWrite;
 571:.\Generated_Source\PSoC5/ultrasonic_uart.c **** 
 572:.\Generated_Source\PSoC5/ultrasonic_uart.c ****             if( (ultrasonic_uart_rxBufferLoopDetect != 0u) || (loc_rxBufferRead != loc_rxBufferWrit
 573:.\Generated_Source\PSoC5/ultrasonic_uart.c ****             {
 574:.\Generated_Source\PSoC5/ultrasonic_uart.c ****                 rxData = ultrasonic_uart_rxBuffer[loc_rxBufferRead];
 575:.\Generated_Source\PSoC5/ultrasonic_uart.c ****                 loc_rxBufferRead++;
 576:.\Generated_Source\PSoC5/ultrasonic_uart.c ****                 if(loc_rxBufferRead >= ultrasonic_uart_RXBUFFERSIZE)
 577:.\Generated_Source\PSoC5/ultrasonic_uart.c ****                 {
 578:.\Generated_Source\PSoC5/ultrasonic_uart.c ****                     loc_rxBufferRead = 0u;
 579:.\Generated_Source\PSoC5/ultrasonic_uart.c ****                 }
 580:.\Generated_Source\PSoC5/ultrasonic_uart.c ****                 /* Update the real pointer */
 581:.\Generated_Source\PSoC5/ultrasonic_uart.c ****                 ultrasonic_uart_rxBufferRead = loc_rxBufferRead;
 582:.\Generated_Source\PSoC5/ultrasonic_uart.c **** 
 583:.\Generated_Source\PSoC5/ultrasonic_uart.c ****                 if(ultrasonic_uart_rxBufferLoopDetect > 0u )
 584:.\Generated_Source\PSoC5/ultrasonic_uart.c ****                 {
 585:.\Generated_Source\PSoC5/ultrasonic_uart.c ****                     ultrasonic_uart_rxBufferLoopDetect = 0u;
 586:.\Generated_Source\PSoC5/ultrasonic_uart.c ****                     #if( (ultrasonic_uart_RX_INTERRUPT_ENABLED) && (ultrasonic_uart_FLOW_CONTROL !=
 587:.\Generated_Source\PSoC5/ultrasonic_uart.c ****                         /* When Hardware Flow Control selected - return RX mask */
 588:.\Generated_Source\PSoC5/ultrasonic_uart.c ****                         #if( ultrasonic_uart_HD_ENABLED )
 589:.\Generated_Source\PSoC5/ultrasonic_uart.c ****                             if((ultrasonic_uart_CONTROL_REG & ultrasonic_uart_CTRL_HD_SEND) == 0u)
 590:.\Generated_Source\PSoC5/ultrasonic_uart.c ****                             {   /* In Half duplex mode return RX mask only if
 591:.\Generated_Source\PSoC5/ultrasonic_uart.c ****                                 *  RX configuration set, otherwise
 592:.\Generated_Source\PSoC5/ultrasonic_uart.c ****                                 *  mask will be returned in LoadRxConfig() API.
 593:.\Generated_Source\PSoC5/ultrasonic_uart.c ****                                 */
 594:.\Generated_Source\PSoC5/ultrasonic_uart.c ****                                 ultrasonic_uart_RXSTATUS_MASK_REG  |= ultrasonic_uart_RX_STS_FIFO_N
 595:.\Generated_Source\PSoC5/ultrasonic_uart.c ****                             }
 596:.\Generated_Source\PSoC5/ultrasonic_uart.c ****                         #else
 597:.\Generated_Source\PSoC5/ultrasonic_uart.c ****                             ultrasonic_uart_RXSTATUS_MASK_REG  |= ultrasonic_uart_RX_STS_FIFO_NOTEM
 598:.\Generated_Source\PSoC5/ultrasonic_uart.c ****                         #endif /* end ultrasonic_uart_HD_ENABLED */
 599:.\Generated_Source\PSoC5/ultrasonic_uart.c ****                     #endif /* ultrasonic_uart_RX_INTERRUPT_ENABLED and Hardware flow control*/
 600:.\Generated_Source\PSoC5/ultrasonic_uart.c ****                 }
 601:.\Generated_Source\PSoC5/ultrasonic_uart.c **** 
 602:.\Generated_Source\PSoC5/ultrasonic_uart.c ****             }
 603:.\Generated_Source\PSoC5/ultrasonic_uart.c ****             else
 604:.\Generated_Source\PSoC5/ultrasonic_uart.c ****             {   rxStatus = ultrasonic_uart_RXSTATUS_REG;
 605:.\Generated_Source\PSoC5/ultrasonic_uart.c ****                 if((rxStatus & ultrasonic_uart_RX_STS_FIFO_NOTEMPTY) != 0u)
 606:.\Generated_Source\PSoC5/ultrasonic_uart.c ****                 {   /* Read received data from FIFO*/
 607:.\Generated_Source\PSoC5/ultrasonic_uart.c ****                     rxData = ultrasonic_uart_RXDATA_REG;
 608:.\Generated_Source\PSoC5/ultrasonic_uart.c ****                     /*Check status on error*/
 609:.\Generated_Source\PSoC5/ultrasonic_uart.c ****                     if((rxStatus & (ultrasonic_uart_RX_STS_BREAK | ultrasonic_uart_RX_STS_PAR_ERROR
 610:.\Generated_Source\PSoC5/ultrasonic_uart.c ****                                    ultrasonic_uart_RX_STS_STOP_ERROR | ultrasonic_uart_RX_STS_OVERR
 611:.\Generated_Source\PSoC5/ultrasonic_uart.c ****                     {
 612:.\Generated_Source\PSoC5/ultrasonic_uart.c ****                         rxData = 0u;
 613:.\Generated_Source\PSoC5/ultrasonic_uart.c ****                     }
ARM GAS  C:\Users\karunmj\AppData\Local\Temp\cc5pDfok.s 			page 20


 614:.\Generated_Source\PSoC5/ultrasonic_uart.c ****                 }
 615:.\Generated_Source\PSoC5/ultrasonic_uart.c ****             }
 616:.\Generated_Source\PSoC5/ultrasonic_uart.c **** 
 617:.\Generated_Source\PSoC5/ultrasonic_uart.c ****             /* Enable Rx interrupt. */
 618:.\Generated_Source\PSoC5/ultrasonic_uart.c ****             #if(ultrasonic_uart_RX_INTERRUPT_ENABLED)
 619:.\Generated_Source\PSoC5/ultrasonic_uart.c ****                 ultrasonic_uart_EnableRxInt();
 620:.\Generated_Source\PSoC5/ultrasonic_uart.c ****             #endif /* ultrasonic_uart_RX_INTERRUPT_ENABLED */
 621:.\Generated_Source\PSoC5/ultrasonic_uart.c **** 
 622:.\Generated_Source\PSoC5/ultrasonic_uart.c ****         #else /* ultrasonic_uart_RXBUFFERSIZE > ultrasonic_uart_FIFO_LENGTH */
 623:.\Generated_Source\PSoC5/ultrasonic_uart.c **** 
 624:.\Generated_Source\PSoC5/ultrasonic_uart.c ****             rxStatus =ultrasonic_uart_RXSTATUS_REG;
 467              		.loc 1 624 0
 468 000c 46F26C43 		movw	r3, #:lower16:1073767532
 469 0010 C4F20003 		movt	r3, #:upper16:1073767532
 470 0014 1B78     		ldrb	r3, [r3, #0]
 471 0016 FB71     		strb	r3, [r7, #7]
 625:.\Generated_Source\PSoC5/ultrasonic_uart.c ****             if((rxStatus & ultrasonic_uart_RX_STS_FIFO_NOTEMPTY) != 0u)
 472              		.loc 1 625 0
 473 0018 FB79     		ldrb	r3, [r7, #7]	@ zero_extendqisi2
 474 001a 03F02003 		and	r3, r3, #32
 475 001e 002B     		cmp	r3, #0
 476 0020 0DD0     		beq	.L21
 626:.\Generated_Source\PSoC5/ultrasonic_uart.c ****             {   /* Read received data from FIFO*/
 627:.\Generated_Source\PSoC5/ultrasonic_uart.c ****                 rxData = ultrasonic_uart_RXDATA_REG;
 477              		.loc 1 627 0
 478 0022 46F24F43 		movw	r3, #:lower16:1073767503
 479 0026 C4F20003 		movt	r3, #:upper16:1073767503
 480 002a 1B78     		ldrb	r3, [r3, #0]
 481 002c BB71     		strb	r3, [r7, #6]
 628:.\Generated_Source\PSoC5/ultrasonic_uart.c ****                 /*Check status on error*/
 629:.\Generated_Source\PSoC5/ultrasonic_uart.c ****                 if((rxStatus & (ultrasonic_uart_RX_STS_BREAK | ultrasonic_uart_RX_STS_PAR_ERROR |
 482              		.loc 1 629 0
 483 002e FB79     		ldrb	r3, [r7, #7]	@ zero_extendqisi2
 484 0030 03F01E03 		and	r3, r3, #30
 485 0034 002B     		cmp	r3, #0
 486 0036 02D0     		beq	.L21
 630:.\Generated_Source\PSoC5/ultrasonic_uart.c ****                                ultrasonic_uart_RX_STS_STOP_ERROR | ultrasonic_uart_RX_STS_OVERRUN))
 631:.\Generated_Source\PSoC5/ultrasonic_uart.c ****                 {
 632:.\Generated_Source\PSoC5/ultrasonic_uart.c ****                     rxData = 0u;
 487              		.loc 1 632 0
 488 0038 4FF00003 		mov	r3, #0
 489 003c BB71     		strb	r3, [r7, #6]
 490              	.L21:
 633:.\Generated_Source\PSoC5/ultrasonic_uart.c ****                 }
 634:.\Generated_Source\PSoC5/ultrasonic_uart.c ****             }
 635:.\Generated_Source\PSoC5/ultrasonic_uart.c ****         #endif /* ultrasonic_uart_RXBUFFERSIZE > ultrasonic_uart_FIFO_LENGTH */
 636:.\Generated_Source\PSoC5/ultrasonic_uart.c **** 
 637:.\Generated_Source\PSoC5/ultrasonic_uart.c ****         return(rxData);
 491              		.loc 1 637 0
 492 003e BB79     		ldrb	r3, [r7, #6]	@ zero_extendqisi2
 638:.\Generated_Source\PSoC5/ultrasonic_uart.c ****     }
 493              		.loc 1 638 0
 494 0040 1846     		mov	r0, r3
 495 0042 07F10C07 		add	r7, r7, #12
 496 0046 BD46     		mov	sp, r7
 497 0048 80BC     		pop	{r7}
 498 004a 7047     		bx	lr
ARM GAS  C:\Users\karunmj\AppData\Local\Temp\cc5pDfok.s 			page 21


 499              		.cfi_endproc
 500              	.LFE9:
 501              		.size	ultrasonic_uart_GetChar, .-ultrasonic_uart_GetChar
 502              		.section	.text.ultrasonic_uart_GetByte,"ax",%progbits
 503              		.align	2
 504              		.global	ultrasonic_uart_GetByte
 505              		.thumb
 506              		.thumb_func
 507              		.type	ultrasonic_uart_GetByte, %function
 508              	ultrasonic_uart_GetByte:
 509              	.LFB10:
 639:.\Generated_Source\PSoC5/ultrasonic_uart.c **** 
 640:.\Generated_Source\PSoC5/ultrasonic_uart.c **** 
 641:.\Generated_Source\PSoC5/ultrasonic_uart.c ****     /*******************************************************************************
 642:.\Generated_Source\PSoC5/ultrasonic_uart.c ****     * Function Name: ultrasonic_uart_GetByte
 643:.\Generated_Source\PSoC5/ultrasonic_uart.c ****     ********************************************************************************
 644:.\Generated_Source\PSoC5/ultrasonic_uart.c ****     *
 645:.\Generated_Source\PSoC5/ultrasonic_uart.c ****     * Summary:
 646:.\Generated_Source\PSoC5/ultrasonic_uart.c ****     *  Grab the next available byte of data from the recieve FIFO
 647:.\Generated_Source\PSoC5/ultrasonic_uart.c ****     *
 648:.\Generated_Source\PSoC5/ultrasonic_uart.c ****     * Parameters:
 649:.\Generated_Source\PSoC5/ultrasonic_uart.c ****     *  None.
 650:.\Generated_Source\PSoC5/ultrasonic_uart.c ****     *
 651:.\Generated_Source\PSoC5/ultrasonic_uart.c ****     * Return:
 652:.\Generated_Source\PSoC5/ultrasonic_uart.c ****     *  MSB contains Status Register and LSB contains UART RX data
 653:.\Generated_Source\PSoC5/ultrasonic_uart.c ****     *
 654:.\Generated_Source\PSoC5/ultrasonic_uart.c ****     * Reentrant:
 655:.\Generated_Source\PSoC5/ultrasonic_uart.c ****     *  No.
 656:.\Generated_Source\PSoC5/ultrasonic_uart.c ****     *
 657:.\Generated_Source\PSoC5/ultrasonic_uart.c ****     *******************************************************************************/
 658:.\Generated_Source\PSoC5/ultrasonic_uart.c ****     uint16 ultrasonic_uart_GetByte(void) 
 659:.\Generated_Source\PSoC5/ultrasonic_uart.c ****     {
 510              		.loc 1 659 0
 511              		.cfi_startproc
 512              		@ args = 0, pretend = 0, frame = 0
 513              		@ frame_needed = 1, uses_anonymous_args = 0
 514 0000 98B5     		push	{r3, r4, r7, lr}
 515              	.LCFI27:
 516              		.cfi_def_cfa_offset 16
 517 0002 00AF     		add	r7, sp, #0
 518              		.cfi_offset 14, -4
 519              		.cfi_offset 7, -8
 520              		.cfi_offset 4, -12
 521              		.cfi_offset 3, -16
 522              	.LCFI28:
 523              		.cfi_def_cfa_register 7
 660:.\Generated_Source\PSoC5/ultrasonic_uart.c ****         return ( ((uint16)ultrasonic_uart_ReadRxStatus() << 8u) | ultrasonic_uart_ReadRxData() );
 524              		.loc 1 660 0
 525 0004 FFF7FEFF 		bl	ultrasonic_uart_ReadRxStatus
 526 0008 0346     		mov	r3, r0
 527 000a 4FEA0323 		lsl	r3, r3, #8
 528 000e 9CB2     		uxth	r4, r3
 529 0010 FFF7FEFF 		bl	ultrasonic_uart_ReadRxData
 530 0014 0346     		mov	r3, r0
 531 0016 2246     		mov	r2, r4	@ movhi
 532 0018 42EA0303 		orr	r3, r2, r3
 533 001c 9BB2     		uxth	r3, r3
ARM GAS  C:\Users\karunmj\AppData\Local\Temp\cc5pDfok.s 			page 22


 534 001e 9BB2     		uxth	r3, r3
 661:.\Generated_Source\PSoC5/ultrasonic_uart.c ****     }
 535              		.loc 1 661 0
 536 0020 1846     		mov	r0, r3
 537 0022 98BD     		pop	{r3, r4, r7, pc}
 538              		.cfi_endproc
 539              	.LFE10:
 540              		.size	ultrasonic_uart_GetByte, .-ultrasonic_uart_GetByte
 541              		.section	.text.ultrasonic_uart_GetRxBufferSize,"ax",%progbits
 542              		.align	2
 543              		.global	ultrasonic_uart_GetRxBufferSize
 544              		.thumb
 545              		.thumb_func
 546              		.type	ultrasonic_uart_GetRxBufferSize, %function
 547              	ultrasonic_uart_GetRxBufferSize:
 548              	.LFB11:
 662:.\Generated_Source\PSoC5/ultrasonic_uart.c **** 
 663:.\Generated_Source\PSoC5/ultrasonic_uart.c **** 
 664:.\Generated_Source\PSoC5/ultrasonic_uart.c ****     /*******************************************************************************
 665:.\Generated_Source\PSoC5/ultrasonic_uart.c ****     * Function Name: ultrasonic_uart_GetRxBufferSize
 666:.\Generated_Source\PSoC5/ultrasonic_uart.c ****     ********************************************************************************
 667:.\Generated_Source\PSoC5/ultrasonic_uart.c ****     *
 668:.\Generated_Source\PSoC5/ultrasonic_uart.c ****     * Summary:
 669:.\Generated_Source\PSoC5/ultrasonic_uart.c ****     *  Determine the amount of bytes left in the RX buffer and return the count in
 670:.\Generated_Source\PSoC5/ultrasonic_uart.c ****     *  bytes
 671:.\Generated_Source\PSoC5/ultrasonic_uart.c ****     *
 672:.\Generated_Source\PSoC5/ultrasonic_uart.c ****     * Parameters:
 673:.\Generated_Source\PSoC5/ultrasonic_uart.c ****     *  None.
 674:.\Generated_Source\PSoC5/ultrasonic_uart.c ****     *
 675:.\Generated_Source\PSoC5/ultrasonic_uart.c ****     * Return:
 676:.\Generated_Source\PSoC5/ultrasonic_uart.c ****     *  uint8: Integer count of the number of bytes left
 677:.\Generated_Source\PSoC5/ultrasonic_uart.c ****     *  in the RX buffer
 678:.\Generated_Source\PSoC5/ultrasonic_uart.c ****     *
 679:.\Generated_Source\PSoC5/ultrasonic_uart.c ****     * Global Variables:
 680:.\Generated_Source\PSoC5/ultrasonic_uart.c ****     *  ultrasonic_uart_rxBufferWrite - used to calculate left bytes.
 681:.\Generated_Source\PSoC5/ultrasonic_uart.c ****     *  ultrasonic_uart_rxBufferRead - used to calculate left bytes.
 682:.\Generated_Source\PSoC5/ultrasonic_uart.c ****     *  ultrasonic_uart_rxBufferLoopDetect - checked to decide left bytes amount.
 683:.\Generated_Source\PSoC5/ultrasonic_uart.c ****     *
 684:.\Generated_Source\PSoC5/ultrasonic_uart.c ****     * Reentrant:
 685:.\Generated_Source\PSoC5/ultrasonic_uart.c ****     *  No.
 686:.\Generated_Source\PSoC5/ultrasonic_uart.c ****     *
 687:.\Generated_Source\PSoC5/ultrasonic_uart.c ****     * Theory:
 688:.\Generated_Source\PSoC5/ultrasonic_uart.c ****     *  Allows the user to find out how full the RX Buffer is.
 689:.\Generated_Source\PSoC5/ultrasonic_uart.c ****     *
 690:.\Generated_Source\PSoC5/ultrasonic_uart.c ****     *******************************************************************************/
 691:.\Generated_Source\PSoC5/ultrasonic_uart.c ****     uint8 ultrasonic_uart_GetRxBufferSize(void)
 692:.\Generated_Source\PSoC5/ultrasonic_uart.c ****                                                             
 693:.\Generated_Source\PSoC5/ultrasonic_uart.c ****     {
 549              		.loc 1 693 0
 550              		.cfi_startproc
 551              		@ args = 0, pretend = 0, frame = 8
 552              		@ frame_needed = 1, uses_anonymous_args = 0
 553              		@ link register save eliminated.
 554 0000 80B4     		push	{r7}
 555              	.LCFI29:
 556              		.cfi_def_cfa_offset 4
 557 0002 83B0     		sub	sp, sp, #12
ARM GAS  C:\Users\karunmj\AppData\Local\Temp\cc5pDfok.s 			page 23


 558              	.LCFI30:
 559              		.cfi_def_cfa_offset 16
 560 0004 00AF     		add	r7, sp, #0
 561              		.cfi_offset 7, -4
 562              	.LCFI31:
 563              		.cfi_def_cfa_register 7
 694:.\Generated_Source\PSoC5/ultrasonic_uart.c ****         uint8 size;
 695:.\Generated_Source\PSoC5/ultrasonic_uart.c **** 
 696:.\Generated_Source\PSoC5/ultrasonic_uart.c ****         #if(ultrasonic_uart_RXBUFFERSIZE > ultrasonic_uart_FIFO_LENGTH)
 697:.\Generated_Source\PSoC5/ultrasonic_uart.c **** 
 698:.\Generated_Source\PSoC5/ultrasonic_uart.c ****             /* Disable Rx interrupt. */
 699:.\Generated_Source\PSoC5/ultrasonic_uart.c ****             /* Protect variables that could change on interrupt. */
 700:.\Generated_Source\PSoC5/ultrasonic_uart.c ****             #if(ultrasonic_uart_RX_INTERRUPT_ENABLED)
 701:.\Generated_Source\PSoC5/ultrasonic_uart.c ****                 ultrasonic_uart_DisableRxInt();
 702:.\Generated_Source\PSoC5/ultrasonic_uart.c ****             #endif /* ultrasonic_uart_RX_INTERRUPT_ENABLED */
 703:.\Generated_Source\PSoC5/ultrasonic_uart.c **** 
 704:.\Generated_Source\PSoC5/ultrasonic_uart.c ****             if(ultrasonic_uart_rxBufferRead == ultrasonic_uart_rxBufferWrite)
 705:.\Generated_Source\PSoC5/ultrasonic_uart.c ****             {
 706:.\Generated_Source\PSoC5/ultrasonic_uart.c ****                 if(ultrasonic_uart_rxBufferLoopDetect > 0u)
 707:.\Generated_Source\PSoC5/ultrasonic_uart.c ****                 {
 708:.\Generated_Source\PSoC5/ultrasonic_uart.c ****                     size = ultrasonic_uart_RXBUFFERSIZE;
 709:.\Generated_Source\PSoC5/ultrasonic_uart.c ****                 }
 710:.\Generated_Source\PSoC5/ultrasonic_uart.c ****                 else
 711:.\Generated_Source\PSoC5/ultrasonic_uart.c ****                 {
 712:.\Generated_Source\PSoC5/ultrasonic_uart.c ****                     size = 0u;
 713:.\Generated_Source\PSoC5/ultrasonic_uart.c ****                 }
 714:.\Generated_Source\PSoC5/ultrasonic_uart.c ****             }
 715:.\Generated_Source\PSoC5/ultrasonic_uart.c ****             else if(ultrasonic_uart_rxBufferRead < ultrasonic_uart_rxBufferWrite)
 716:.\Generated_Source\PSoC5/ultrasonic_uart.c ****             {
 717:.\Generated_Source\PSoC5/ultrasonic_uart.c ****                 size = (ultrasonic_uart_rxBufferWrite - ultrasonic_uart_rxBufferRead);
 718:.\Generated_Source\PSoC5/ultrasonic_uart.c ****             }
 719:.\Generated_Source\PSoC5/ultrasonic_uart.c ****             else
 720:.\Generated_Source\PSoC5/ultrasonic_uart.c ****             {
 721:.\Generated_Source\PSoC5/ultrasonic_uart.c ****                 size = (ultrasonic_uart_RXBUFFERSIZE - ultrasonic_uart_rxBufferRead) + ultrasonic_u
 722:.\Generated_Source\PSoC5/ultrasonic_uart.c ****             }
 723:.\Generated_Source\PSoC5/ultrasonic_uart.c **** 
 724:.\Generated_Source\PSoC5/ultrasonic_uart.c ****             /* Enable Rx interrupt. */
 725:.\Generated_Source\PSoC5/ultrasonic_uart.c ****             #if(ultrasonic_uart_RX_INTERRUPT_ENABLED)
 726:.\Generated_Source\PSoC5/ultrasonic_uart.c ****                 ultrasonic_uart_EnableRxInt();
 727:.\Generated_Source\PSoC5/ultrasonic_uart.c ****             #endif /* End ultrasonic_uart_RX_INTERRUPT_ENABLED */
 728:.\Generated_Source\PSoC5/ultrasonic_uart.c **** 
 729:.\Generated_Source\PSoC5/ultrasonic_uart.c ****         #else /* ultrasonic_uart_RXBUFFERSIZE > ultrasonic_uart_FIFO_LENGTH */
 730:.\Generated_Source\PSoC5/ultrasonic_uart.c **** 
 731:.\Generated_Source\PSoC5/ultrasonic_uart.c ****             /* We can only know if there is data in the fifo. */
 732:.\Generated_Source\PSoC5/ultrasonic_uart.c ****             size = ((ultrasonic_uart_RXSTATUS_REG & ultrasonic_uart_RX_STS_FIFO_NOTEMPTY) != 0u) ? 
 564              		.loc 1 732 0
 565 0006 46F26C43 		movw	r3, #:lower16:1073767532
 566 000a C4F20003 		movt	r3, #:upper16:1073767532
 567 000e 1B78     		ldrb	r3, [r3, #0]
 568 0010 DBB2     		uxtb	r3, r3
 569 0012 03F02003 		and	r3, r3, #32
 570 0016 002B     		cmp	r3, #0
 571 0018 02D0     		beq	.L26
 572 001a 4FF00103 		mov	r3, #1
 573 001e 01E0     		b	.L27
 574              	.L26:
 575 0020 4FF00003 		mov	r3, #0
ARM GAS  C:\Users\karunmj\AppData\Local\Temp\cc5pDfok.s 			page 24


 576              	.L27:
 577 0024 FB71     		strb	r3, [r7, #7]
 733:.\Generated_Source\PSoC5/ultrasonic_uart.c **** 
 734:.\Generated_Source\PSoC5/ultrasonic_uart.c ****         #endif /* End ultrasonic_uart_RXBUFFERSIZE > ultrasonic_uart_FIFO_LENGTH */
 735:.\Generated_Source\PSoC5/ultrasonic_uart.c **** 
 736:.\Generated_Source\PSoC5/ultrasonic_uart.c ****         return(size);
 578              		.loc 1 736 0
 579 0026 FB79     		ldrb	r3, [r7, #7]	@ zero_extendqisi2
 737:.\Generated_Source\PSoC5/ultrasonic_uart.c ****     }
 580              		.loc 1 737 0
 581 0028 1846     		mov	r0, r3
 582 002a 07F10C07 		add	r7, r7, #12
 583 002e BD46     		mov	sp, r7
 584 0030 80BC     		pop	{r7}
 585 0032 7047     		bx	lr
 586              		.cfi_endproc
 587              	.LFE11:
 588              		.size	ultrasonic_uart_GetRxBufferSize, .-ultrasonic_uart_GetRxBufferSize
 589              		.section	.text.ultrasonic_uart_ClearRxBuffer,"ax",%progbits
 590              		.align	2
 591              		.global	ultrasonic_uart_ClearRxBuffer
 592              		.thumb
 593              		.thumb_func
 594              		.type	ultrasonic_uart_ClearRxBuffer, %function
 595              	ultrasonic_uart_ClearRxBuffer:
 596              	.LFB12:
 738:.\Generated_Source\PSoC5/ultrasonic_uart.c **** 
 739:.\Generated_Source\PSoC5/ultrasonic_uart.c **** 
 740:.\Generated_Source\PSoC5/ultrasonic_uart.c ****     /*******************************************************************************
 741:.\Generated_Source\PSoC5/ultrasonic_uart.c ****     * Function Name: ultrasonic_uart_ClearRxBuffer
 742:.\Generated_Source\PSoC5/ultrasonic_uart.c ****     ********************************************************************************
 743:.\Generated_Source\PSoC5/ultrasonic_uart.c ****     *
 744:.\Generated_Source\PSoC5/ultrasonic_uart.c ****     * Summary:
 745:.\Generated_Source\PSoC5/ultrasonic_uart.c ****     *  Clears the RX RAM buffer by setting the read and write pointers both to zero.
 746:.\Generated_Source\PSoC5/ultrasonic_uart.c ****     *  Clears hardware RX FIFO.
 747:.\Generated_Source\PSoC5/ultrasonic_uart.c ****     *
 748:.\Generated_Source\PSoC5/ultrasonic_uart.c ****     * Parameters:
 749:.\Generated_Source\PSoC5/ultrasonic_uart.c ****     *  None.
 750:.\Generated_Source\PSoC5/ultrasonic_uart.c ****     *
 751:.\Generated_Source\PSoC5/ultrasonic_uart.c ****     * Return:
 752:.\Generated_Source\PSoC5/ultrasonic_uart.c ****     *  None.
 753:.\Generated_Source\PSoC5/ultrasonic_uart.c ****     *
 754:.\Generated_Source\PSoC5/ultrasonic_uart.c ****     * Global Variables:
 755:.\Generated_Source\PSoC5/ultrasonic_uart.c ****     *  ultrasonic_uart_rxBufferWrite - cleared to zero.
 756:.\Generated_Source\PSoC5/ultrasonic_uart.c ****     *  ultrasonic_uart_rxBufferRead - cleared to zero.
 757:.\Generated_Source\PSoC5/ultrasonic_uart.c ****     *  ultrasonic_uart_rxBufferLoopDetect - cleared to zero.
 758:.\Generated_Source\PSoC5/ultrasonic_uart.c ****     *  ultrasonic_uart_rxBufferOverflow - cleared to zero.
 759:.\Generated_Source\PSoC5/ultrasonic_uart.c ****     *
 760:.\Generated_Source\PSoC5/ultrasonic_uart.c ****     * Reentrant:
 761:.\Generated_Source\PSoC5/ultrasonic_uart.c ****     *  No.
 762:.\Generated_Source\PSoC5/ultrasonic_uart.c ****     *
 763:.\Generated_Source\PSoC5/ultrasonic_uart.c ****     * Theory:
 764:.\Generated_Source\PSoC5/ultrasonic_uart.c ****     *  Setting the pointers to zero makes the system believe there is no data to
 765:.\Generated_Source\PSoC5/ultrasonic_uart.c ****     *  read and writing will resume at address 0 overwriting any data that may
 766:.\Generated_Source\PSoC5/ultrasonic_uart.c ****     *  have remained in the RAM.
 767:.\Generated_Source\PSoC5/ultrasonic_uart.c ****     *
 768:.\Generated_Source\PSoC5/ultrasonic_uart.c ****     * Side Effects:
ARM GAS  C:\Users\karunmj\AppData\Local\Temp\cc5pDfok.s 			page 25


 769:.\Generated_Source\PSoC5/ultrasonic_uart.c ****     *  Any received data not read from the RAM or FIFO buffer will be lost.
 770:.\Generated_Source\PSoC5/ultrasonic_uart.c ****     *******************************************************************************/
 771:.\Generated_Source\PSoC5/ultrasonic_uart.c ****     void ultrasonic_uart_ClearRxBuffer(void) 
 772:.\Generated_Source\PSoC5/ultrasonic_uart.c ****     {
 597              		.loc 1 772 0
 598              		.cfi_startproc
 599              		@ args = 0, pretend = 0, frame = 8
 600              		@ frame_needed = 1, uses_anonymous_args = 0
 601 0000 80B5     		push	{r7, lr}
 602              	.LCFI32:
 603              		.cfi_def_cfa_offset 8
 604 0002 82B0     		sub	sp, sp, #8
 605              	.LCFI33:
 606              		.cfi_def_cfa_offset 16
 607 0004 00AF     		add	r7, sp, #0
 608              		.cfi_offset 14, -4
 609              		.cfi_offset 7, -8
 610              	.LCFI34:
 611              		.cfi_def_cfa_register 7
 773:.\Generated_Source\PSoC5/ultrasonic_uart.c ****         uint8 enableInterrupts;
 774:.\Generated_Source\PSoC5/ultrasonic_uart.c **** 
 775:.\Generated_Source\PSoC5/ultrasonic_uart.c ****         /* clear the HW FIFO */
 776:.\Generated_Source\PSoC5/ultrasonic_uart.c ****         /* Enter critical section */
 777:.\Generated_Source\PSoC5/ultrasonic_uart.c ****         enableInterrupts = CyEnterCriticalSection();
 612              		.loc 1 777 0
 613 0006 FFF7FEFF 		bl	CyEnterCriticalSection
 614 000a 0346     		mov	r3, r0
 615 000c FB71     		strb	r3, [r7, #7]
 778:.\Generated_Source\PSoC5/ultrasonic_uart.c ****         ultrasonic_uart_RXDATA_AUX_CTL_REG |=  ultrasonic_uart_RX_FIFO_CLR;
 616              		.loc 1 778 0
 617 000e 46F29F43 		movw	r3, #:lower16:1073767583
 618 0012 C4F20003 		movt	r3, #:upper16:1073767583
 619 0016 46F29F42 		movw	r2, #:lower16:1073767583
 620 001a C4F20002 		movt	r2, #:upper16:1073767583
 621 001e 1278     		ldrb	r2, [r2, #0]
 622 0020 D2B2     		uxtb	r2, r2
 623 0022 42F00102 		orr	r2, r2, #1
 624 0026 D2B2     		uxtb	r2, r2
 625 0028 1A70     		strb	r2, [r3, #0]
 779:.\Generated_Source\PSoC5/ultrasonic_uart.c ****         ultrasonic_uart_RXDATA_AUX_CTL_REG &= (uint8)~ultrasonic_uart_RX_FIFO_CLR;
 626              		.loc 1 779 0
 627 002a 46F29F43 		movw	r3, #:lower16:1073767583
 628 002e C4F20003 		movt	r3, #:upper16:1073767583
 629 0032 46F29F42 		movw	r2, #:lower16:1073767583
 630 0036 C4F20002 		movt	r2, #:upper16:1073767583
 631 003a 1278     		ldrb	r2, [r2, #0]
 632 003c D2B2     		uxtb	r2, r2
 633 003e 02F0FE02 		and	r2, r2, #254
 634 0042 1A70     		strb	r2, [r3, #0]
 780:.\Generated_Source\PSoC5/ultrasonic_uart.c ****         /* Exit critical section */
 781:.\Generated_Source\PSoC5/ultrasonic_uart.c ****         CyExitCriticalSection(enableInterrupts);
 635              		.loc 1 781 0
 636 0044 FB79     		ldrb	r3, [r7, #7]	@ zero_extendqisi2
 637 0046 1846     		mov	r0, r3
 638 0048 FFF7FEFF 		bl	CyExitCriticalSection
 782:.\Generated_Source\PSoC5/ultrasonic_uart.c **** 
 783:.\Generated_Source\PSoC5/ultrasonic_uart.c ****         #if(ultrasonic_uart_RXBUFFERSIZE > ultrasonic_uart_FIFO_LENGTH)
ARM GAS  C:\Users\karunmj\AppData\Local\Temp\cc5pDfok.s 			page 26


 784:.\Generated_Source\PSoC5/ultrasonic_uart.c ****             /* Disable Rx interrupt. */
 785:.\Generated_Source\PSoC5/ultrasonic_uart.c ****             /* Protect variables that could change on interrupt. */
 786:.\Generated_Source\PSoC5/ultrasonic_uart.c ****             #if(ultrasonic_uart_RX_INTERRUPT_ENABLED)
 787:.\Generated_Source\PSoC5/ultrasonic_uart.c ****                 ultrasonic_uart_DisableRxInt();
 788:.\Generated_Source\PSoC5/ultrasonic_uart.c ****             #endif /* End ultrasonic_uart_RX_INTERRUPT_ENABLED */
 789:.\Generated_Source\PSoC5/ultrasonic_uart.c **** 
 790:.\Generated_Source\PSoC5/ultrasonic_uart.c ****             ultrasonic_uart_rxBufferRead = 0u;
 791:.\Generated_Source\PSoC5/ultrasonic_uart.c ****             ultrasonic_uart_rxBufferWrite = 0u;
 792:.\Generated_Source\PSoC5/ultrasonic_uart.c ****             ultrasonic_uart_rxBufferLoopDetect = 0u;
 793:.\Generated_Source\PSoC5/ultrasonic_uart.c ****             ultrasonic_uart_rxBufferOverflow = 0u;
 794:.\Generated_Source\PSoC5/ultrasonic_uart.c **** 
 795:.\Generated_Source\PSoC5/ultrasonic_uart.c ****             /* Enable Rx interrupt. */
 796:.\Generated_Source\PSoC5/ultrasonic_uart.c ****             #if(ultrasonic_uart_RX_INTERRUPT_ENABLED)
 797:.\Generated_Source\PSoC5/ultrasonic_uart.c ****                 ultrasonic_uart_EnableRxInt();
 798:.\Generated_Source\PSoC5/ultrasonic_uart.c ****             #endif /* End ultrasonic_uart_RX_INTERRUPT_ENABLED */
 799:.\Generated_Source\PSoC5/ultrasonic_uart.c ****         #endif /* End ultrasonic_uart_RXBUFFERSIZE > ultrasonic_uart_FIFO_LENGTH */
 800:.\Generated_Source\PSoC5/ultrasonic_uart.c **** 
 801:.\Generated_Source\PSoC5/ultrasonic_uart.c ****     }
 639              		.loc 1 801 0
 640 004c 07F10807 		add	r7, r7, #8
 641 0050 BD46     		mov	sp, r7
 642 0052 80BD     		pop	{r7, pc}
 643              		.cfi_endproc
 644              	.LFE12:
 645              		.size	ultrasonic_uart_ClearRxBuffer, .-ultrasonic_uart_ClearRxBuffer
 646              		.section	.text.ultrasonic_uart_SetRxAddressMode,"ax",%progbits
 647              		.align	2
 648              		.global	ultrasonic_uart_SetRxAddressMode
 649              		.thumb
 650              		.thumb_func
 651              		.type	ultrasonic_uart_SetRxAddressMode, %function
 652              	ultrasonic_uart_SetRxAddressMode:
 653              	.LFB13:
 802:.\Generated_Source\PSoC5/ultrasonic_uart.c **** 
 803:.\Generated_Source\PSoC5/ultrasonic_uart.c **** 
 804:.\Generated_Source\PSoC5/ultrasonic_uart.c ****     /*******************************************************************************
 805:.\Generated_Source\PSoC5/ultrasonic_uart.c ****     * Function Name: ultrasonic_uart_SetRxAddressMode
 806:.\Generated_Source\PSoC5/ultrasonic_uart.c ****     ********************************************************************************
 807:.\Generated_Source\PSoC5/ultrasonic_uart.c ****     *
 808:.\Generated_Source\PSoC5/ultrasonic_uart.c ****     * Summary:
 809:.\Generated_Source\PSoC5/ultrasonic_uart.c ****     *  Set the receive addressing mode
 810:.\Generated_Source\PSoC5/ultrasonic_uart.c ****     *
 811:.\Generated_Source\PSoC5/ultrasonic_uart.c ****     * Parameters:
 812:.\Generated_Source\PSoC5/ultrasonic_uart.c ****     *  addressMode: Enumerated value indicating the mode of RX addressing
 813:.\Generated_Source\PSoC5/ultrasonic_uart.c ****     *  ultrasonic_uart__B_UART__AM_SW_BYTE_BYTE -  Software Byte-by-Byte address
 814:.\Generated_Source\PSoC5/ultrasonic_uart.c ****     *                                               detection
 815:.\Generated_Source\PSoC5/ultrasonic_uart.c ****     *  ultrasonic_uart__B_UART__AM_SW_DETECT_TO_BUFFER - Software Detect to Buffer
 816:.\Generated_Source\PSoC5/ultrasonic_uart.c ****     *                                               address detection
 817:.\Generated_Source\PSoC5/ultrasonic_uart.c ****     *  ultrasonic_uart__B_UART__AM_HW_BYTE_BY_BYTE - Hardware Byte-by-Byte address
 818:.\Generated_Source\PSoC5/ultrasonic_uart.c ****     *                                               detection
 819:.\Generated_Source\PSoC5/ultrasonic_uart.c ****     *  ultrasonic_uart__B_UART__AM_HW_DETECT_TO_BUFFER - Hardware Detect to Buffer
 820:.\Generated_Source\PSoC5/ultrasonic_uart.c ****     *                                               address detection
 821:.\Generated_Source\PSoC5/ultrasonic_uart.c ****     *  ultrasonic_uart__B_UART__AM_NONE - No address detection
 822:.\Generated_Source\PSoC5/ultrasonic_uart.c ****     *
 823:.\Generated_Source\PSoC5/ultrasonic_uart.c ****     * Return:
 824:.\Generated_Source\PSoC5/ultrasonic_uart.c ****     *  None.
 825:.\Generated_Source\PSoC5/ultrasonic_uart.c ****     *
ARM GAS  C:\Users\karunmj\AppData\Local\Temp\cc5pDfok.s 			page 27


 826:.\Generated_Source\PSoC5/ultrasonic_uart.c ****     * Global Variables:
 827:.\Generated_Source\PSoC5/ultrasonic_uart.c ****     *  ultrasonic_uart_rxAddressMode - the parameter stored in this variable for
 828:.\Generated_Source\PSoC5/ultrasonic_uart.c ****     *   the farther usage in RX ISR.
 829:.\Generated_Source\PSoC5/ultrasonic_uart.c ****     *  ultrasonic_uart_rxAddressDetected - set to initial state (0).
 830:.\Generated_Source\PSoC5/ultrasonic_uart.c ****     *
 831:.\Generated_Source\PSoC5/ultrasonic_uart.c ****     *******************************************************************************/
 832:.\Generated_Source\PSoC5/ultrasonic_uart.c ****     void ultrasonic_uart_SetRxAddressMode(uint8 addressMode)
 833:.\Generated_Source\PSoC5/ultrasonic_uart.c ****                                                         
 834:.\Generated_Source\PSoC5/ultrasonic_uart.c ****     {
 654              		.loc 1 834 0
 655              		.cfi_startproc
 656              		@ args = 0, pretend = 0, frame = 8
 657              		@ frame_needed = 1, uses_anonymous_args = 0
 658              		@ link register save eliminated.
 659 0000 80B4     		push	{r7}
 660              	.LCFI35:
 661              		.cfi_def_cfa_offset 4
 662 0002 83B0     		sub	sp, sp, #12
 663              	.LCFI36:
 664              		.cfi_def_cfa_offset 16
 665 0004 00AF     		add	r7, sp, #0
 666              		.cfi_offset 7, -4
 667              	.LCFI37:
 668              		.cfi_def_cfa_register 7
 669 0006 0346     		mov	r3, r0
 670 0008 FB71     		strb	r3, [r7, #7]
 835:.\Generated_Source\PSoC5/ultrasonic_uart.c ****         #if(ultrasonic_uart_RXHW_ADDRESS_ENABLED)
 836:.\Generated_Source\PSoC5/ultrasonic_uart.c ****             #if(ultrasonic_uart_CONTROL_REG_REMOVED)
 837:.\Generated_Source\PSoC5/ultrasonic_uart.c ****                 if(addressMode != 0u) { }     /* release compiler warning */
 838:.\Generated_Source\PSoC5/ultrasonic_uart.c ****             #else /* ultrasonic_uart_CONTROL_REG_REMOVED */
 839:.\Generated_Source\PSoC5/ultrasonic_uart.c ****                 uint8 tmpCtrl;
 840:.\Generated_Source\PSoC5/ultrasonic_uart.c ****                 tmpCtrl = ultrasonic_uart_CONTROL_REG & (uint8)~ultrasonic_uart_CTRL_RXADDR_MODE_MA
 841:.\Generated_Source\PSoC5/ultrasonic_uart.c ****                 tmpCtrl |= (uint8)(addressMode << ultrasonic_uart_CTRL_RXADDR_MODE0_SHIFT);
 842:.\Generated_Source\PSoC5/ultrasonic_uart.c ****                 ultrasonic_uart_CONTROL_REG = tmpCtrl;
 843:.\Generated_Source\PSoC5/ultrasonic_uart.c ****                 #if(ultrasonic_uart_RX_INTERRUPT_ENABLED && \
 844:.\Generated_Source\PSoC5/ultrasonic_uart.c ****                    (ultrasonic_uart_RXBUFFERSIZE > ultrasonic_uart_FIFO_LENGTH) )
 845:.\Generated_Source\PSoC5/ultrasonic_uart.c ****                     ultrasonic_uart_rxAddressMode = addressMode;
 846:.\Generated_Source\PSoC5/ultrasonic_uart.c ****                     ultrasonic_uart_rxAddressDetected = 0u;
 847:.\Generated_Source\PSoC5/ultrasonic_uart.c ****                 #endif /* End ultrasonic_uart_RXBUFFERSIZE > ultrasonic_uart_FIFO_LENGTH*/
 848:.\Generated_Source\PSoC5/ultrasonic_uart.c ****             #endif /* End ultrasonic_uart_CONTROL_REG_REMOVED */
 849:.\Generated_Source\PSoC5/ultrasonic_uart.c ****         #else /* ultrasonic_uart_RXHW_ADDRESS_ENABLED */
 850:.\Generated_Source\PSoC5/ultrasonic_uart.c ****             if(addressMode != 0u) { }     /* release compiler warning */
 851:.\Generated_Source\PSoC5/ultrasonic_uart.c ****         #endif /* End ultrasonic_uart_RXHW_ADDRESS_ENABLED */
 852:.\Generated_Source\PSoC5/ultrasonic_uart.c ****     }
 671              		.loc 1 852 0
 672 000a 07F10C07 		add	r7, r7, #12
 673 000e BD46     		mov	sp, r7
 674 0010 80BC     		pop	{r7}
 675 0012 7047     		bx	lr
 676              		.cfi_endproc
 677              	.LFE13:
 678              		.size	ultrasonic_uart_SetRxAddressMode, .-ultrasonic_uart_SetRxAddressMode
 679              		.section	.text.ultrasonic_uart_SetRxAddress1,"ax",%progbits
 680              		.align	2
 681              		.global	ultrasonic_uart_SetRxAddress1
 682              		.thumb
 683              		.thumb_func
ARM GAS  C:\Users\karunmj\AppData\Local\Temp\cc5pDfok.s 			page 28


 684              		.type	ultrasonic_uart_SetRxAddress1, %function
 685              	ultrasonic_uart_SetRxAddress1:
 686              	.LFB14:
 853:.\Generated_Source\PSoC5/ultrasonic_uart.c **** 
 854:.\Generated_Source\PSoC5/ultrasonic_uart.c **** 
 855:.\Generated_Source\PSoC5/ultrasonic_uart.c ****     /*******************************************************************************
 856:.\Generated_Source\PSoC5/ultrasonic_uart.c ****     * Function Name: ultrasonic_uart_SetRxAddress1
 857:.\Generated_Source\PSoC5/ultrasonic_uart.c ****     ********************************************************************************
 858:.\Generated_Source\PSoC5/ultrasonic_uart.c ****     *
 859:.\Generated_Source\PSoC5/ultrasonic_uart.c ****     * Summary:
 860:.\Generated_Source\PSoC5/ultrasonic_uart.c ****     *  Set the first hardware address compare value
 861:.\Generated_Source\PSoC5/ultrasonic_uart.c ****     *
 862:.\Generated_Source\PSoC5/ultrasonic_uart.c ****     * Parameters:
 863:.\Generated_Source\PSoC5/ultrasonic_uart.c ****     *  address
 864:.\Generated_Source\PSoC5/ultrasonic_uart.c ****     *
 865:.\Generated_Source\PSoC5/ultrasonic_uart.c ****     * Return:
 866:.\Generated_Source\PSoC5/ultrasonic_uart.c ****     *  None.
 867:.\Generated_Source\PSoC5/ultrasonic_uart.c ****     *
 868:.\Generated_Source\PSoC5/ultrasonic_uart.c ****     *******************************************************************************/
 869:.\Generated_Source\PSoC5/ultrasonic_uart.c ****     void ultrasonic_uart_SetRxAddress1(uint8 address) 
 870:.\Generated_Source\PSoC5/ultrasonic_uart.c **** 
 871:.\Generated_Source\PSoC5/ultrasonic_uart.c ****     {
 687              		.loc 1 871 0
 688              		.cfi_startproc
 689              		@ args = 0, pretend = 0, frame = 8
 690              		@ frame_needed = 1, uses_anonymous_args = 0
 691              		@ link register save eliminated.
 692 0000 80B4     		push	{r7}
 693              	.LCFI38:
 694              		.cfi_def_cfa_offset 4
 695 0002 83B0     		sub	sp, sp, #12
 696              	.LCFI39:
 697              		.cfi_def_cfa_offset 16
 698 0004 00AF     		add	r7, sp, #0
 699              		.cfi_offset 7, -4
 700              	.LCFI40:
 701              		.cfi_def_cfa_register 7
 702 0006 0346     		mov	r3, r0
 703 0008 FB71     		strb	r3, [r7, #7]
 872:.\Generated_Source\PSoC5/ultrasonic_uart.c ****         ultrasonic_uart_RXADDRESS1_REG = address;
 704              		.loc 1 872 0
 705 000a 46F22F43 		movw	r3, #:lower16:1073767471
 706 000e C4F20003 		movt	r3, #:upper16:1073767471
 707 0012 FA79     		ldrb	r2, [r7, #7]
 708 0014 1A70     		strb	r2, [r3, #0]
 873:.\Generated_Source\PSoC5/ultrasonic_uart.c ****     }
 709              		.loc 1 873 0
 710 0016 07F10C07 		add	r7, r7, #12
 711 001a BD46     		mov	sp, r7
 712 001c 80BC     		pop	{r7}
 713 001e 7047     		bx	lr
 714              		.cfi_endproc
 715              	.LFE14:
 716              		.size	ultrasonic_uart_SetRxAddress1, .-ultrasonic_uart_SetRxAddress1
 717              		.section	.text.ultrasonic_uart_SetRxAddress2,"ax",%progbits
 718              		.align	2
 719              		.global	ultrasonic_uart_SetRxAddress2
ARM GAS  C:\Users\karunmj\AppData\Local\Temp\cc5pDfok.s 			page 29


 720              		.thumb
 721              		.thumb_func
 722              		.type	ultrasonic_uart_SetRxAddress2, %function
 723              	ultrasonic_uart_SetRxAddress2:
 724              	.LFB15:
 874:.\Generated_Source\PSoC5/ultrasonic_uart.c **** 
 875:.\Generated_Source\PSoC5/ultrasonic_uart.c **** 
 876:.\Generated_Source\PSoC5/ultrasonic_uart.c ****     /*******************************************************************************
 877:.\Generated_Source\PSoC5/ultrasonic_uart.c ****     * Function Name: ultrasonic_uart_SetRxAddress2
 878:.\Generated_Source\PSoC5/ultrasonic_uart.c ****     ********************************************************************************
 879:.\Generated_Source\PSoC5/ultrasonic_uart.c ****     *
 880:.\Generated_Source\PSoC5/ultrasonic_uart.c ****     * Summary:
 881:.\Generated_Source\PSoC5/ultrasonic_uart.c ****     *  Set the second hardware address compare value
 882:.\Generated_Source\PSoC5/ultrasonic_uart.c ****     *
 883:.\Generated_Source\PSoC5/ultrasonic_uart.c ****     * Parameters:
 884:.\Generated_Source\PSoC5/ultrasonic_uart.c ****     *  address
 885:.\Generated_Source\PSoC5/ultrasonic_uart.c ****     *
 886:.\Generated_Source\PSoC5/ultrasonic_uart.c ****     * Return:
 887:.\Generated_Source\PSoC5/ultrasonic_uart.c ****     *  None.
 888:.\Generated_Source\PSoC5/ultrasonic_uart.c ****     *
 889:.\Generated_Source\PSoC5/ultrasonic_uart.c ****     *******************************************************************************/
 890:.\Generated_Source\PSoC5/ultrasonic_uart.c ****     void ultrasonic_uart_SetRxAddress2(uint8 address) 
 891:.\Generated_Source\PSoC5/ultrasonic_uart.c ****     {
 725              		.loc 1 891 0
 726              		.cfi_startproc
 727              		@ args = 0, pretend = 0, frame = 8
 728              		@ frame_needed = 1, uses_anonymous_args = 0
 729              		@ link register save eliminated.
 730 0000 80B4     		push	{r7}
 731              	.LCFI41:
 732              		.cfi_def_cfa_offset 4
 733 0002 83B0     		sub	sp, sp, #12
 734              	.LCFI42:
 735              		.cfi_def_cfa_offset 16
 736 0004 00AF     		add	r7, sp, #0
 737              		.cfi_offset 7, -4
 738              	.LCFI43:
 739              		.cfi_def_cfa_register 7
 740 0006 0346     		mov	r3, r0
 741 0008 FB71     		strb	r3, [r7, #7]
 892:.\Generated_Source\PSoC5/ultrasonic_uart.c ****         ultrasonic_uart_RXADDRESS2_REG = address;
 742              		.loc 1 892 0
 743 000a 46F23F43 		movw	r3, #:lower16:1073767487
 744 000e C4F20003 		movt	r3, #:upper16:1073767487
 745 0012 FA79     		ldrb	r2, [r7, #7]
 746 0014 1A70     		strb	r2, [r3, #0]
 893:.\Generated_Source\PSoC5/ultrasonic_uart.c ****     }
 747              		.loc 1 893 0
 748 0016 07F10C07 		add	r7, r7, #12
 749 001a BD46     		mov	sp, r7
 750 001c 80BC     		pop	{r7}
 751 001e 7047     		bx	lr
 752              		.cfi_endproc
 753              	.LFE15:
 754              		.size	ultrasonic_uart_SetRxAddress2, .-ultrasonic_uart_SetRxAddress2
 755              		.section	.text.ultrasonic_uart_SetTxInterruptMode,"ax",%progbits
 756              		.align	2
ARM GAS  C:\Users\karunmj\AppData\Local\Temp\cc5pDfok.s 			page 30


 757              		.global	ultrasonic_uart_SetTxInterruptMode
 758              		.thumb
 759              		.thumb_func
 760              		.type	ultrasonic_uart_SetTxInterruptMode, %function
 761              	ultrasonic_uart_SetTxInterruptMode:
 762              	.LFB16:
 894:.\Generated_Source\PSoC5/ultrasonic_uart.c **** 
 895:.\Generated_Source\PSoC5/ultrasonic_uart.c **** #endif  /* ultrasonic_uart_RX_ENABLED || ultrasonic_uart_HD_ENABLED*/
 896:.\Generated_Source\PSoC5/ultrasonic_uart.c **** 
 897:.\Generated_Source\PSoC5/ultrasonic_uart.c **** 
 898:.\Generated_Source\PSoC5/ultrasonic_uart.c **** #if( (ultrasonic_uart_TX_ENABLED) || (ultrasonic_uart_HD_ENABLED) )
 899:.\Generated_Source\PSoC5/ultrasonic_uart.c **** 
 900:.\Generated_Source\PSoC5/ultrasonic_uart.c ****     #if(ultrasonic_uart_TX_INTERRUPT_ENABLED)
 901:.\Generated_Source\PSoC5/ultrasonic_uart.c **** 
 902:.\Generated_Source\PSoC5/ultrasonic_uart.c ****         /*******************************************************************************
 903:.\Generated_Source\PSoC5/ultrasonic_uart.c ****         * Function Name: ultrasonic_uart_EnableTxInt
 904:.\Generated_Source\PSoC5/ultrasonic_uart.c ****         ********************************************************************************
 905:.\Generated_Source\PSoC5/ultrasonic_uart.c ****         *
 906:.\Generated_Source\PSoC5/ultrasonic_uart.c ****         * Summary:
 907:.\Generated_Source\PSoC5/ultrasonic_uart.c ****         *  Enable TX interrupt generation
 908:.\Generated_Source\PSoC5/ultrasonic_uart.c ****         *
 909:.\Generated_Source\PSoC5/ultrasonic_uart.c ****         * Parameters:
 910:.\Generated_Source\PSoC5/ultrasonic_uart.c ****         *  None.
 911:.\Generated_Source\PSoC5/ultrasonic_uart.c ****         *
 912:.\Generated_Source\PSoC5/ultrasonic_uart.c ****         * Return:
 913:.\Generated_Source\PSoC5/ultrasonic_uart.c ****         *  None.
 914:.\Generated_Source\PSoC5/ultrasonic_uart.c ****         *
 915:.\Generated_Source\PSoC5/ultrasonic_uart.c ****         * Theory:
 916:.\Generated_Source\PSoC5/ultrasonic_uart.c ****         *  Enable the interrupt output -or- the interrupt component itself
 917:.\Generated_Source\PSoC5/ultrasonic_uart.c ****         *
 918:.\Generated_Source\PSoC5/ultrasonic_uart.c ****         *******************************************************************************/
 919:.\Generated_Source\PSoC5/ultrasonic_uart.c ****         void ultrasonic_uart_EnableTxInt(void) 
 920:.\Generated_Source\PSoC5/ultrasonic_uart.c ****         {
 921:.\Generated_Source\PSoC5/ultrasonic_uart.c ****             CyIntEnable(ultrasonic_uart_TX_VECT_NUM);
 922:.\Generated_Source\PSoC5/ultrasonic_uart.c ****         }
 923:.\Generated_Source\PSoC5/ultrasonic_uart.c **** 
 924:.\Generated_Source\PSoC5/ultrasonic_uart.c **** 
 925:.\Generated_Source\PSoC5/ultrasonic_uart.c ****         /*******************************************************************************
 926:.\Generated_Source\PSoC5/ultrasonic_uart.c ****         * Function Name: ultrasonic_uart_DisableTxInt
 927:.\Generated_Source\PSoC5/ultrasonic_uart.c ****         ********************************************************************************
 928:.\Generated_Source\PSoC5/ultrasonic_uart.c ****         *
 929:.\Generated_Source\PSoC5/ultrasonic_uart.c ****         * Summary:
 930:.\Generated_Source\PSoC5/ultrasonic_uart.c ****         *  Disable TX interrupt generation
 931:.\Generated_Source\PSoC5/ultrasonic_uart.c ****         *
 932:.\Generated_Source\PSoC5/ultrasonic_uart.c ****         * Parameters:
 933:.\Generated_Source\PSoC5/ultrasonic_uart.c ****         *  None.
 934:.\Generated_Source\PSoC5/ultrasonic_uart.c ****         *
 935:.\Generated_Source\PSoC5/ultrasonic_uart.c ****         * Return:
 936:.\Generated_Source\PSoC5/ultrasonic_uart.c ****         *  None.
 937:.\Generated_Source\PSoC5/ultrasonic_uart.c ****         *
 938:.\Generated_Source\PSoC5/ultrasonic_uart.c ****         * Theory:
 939:.\Generated_Source\PSoC5/ultrasonic_uart.c ****         *  Disable the interrupt output -or- the interrupt component itself
 940:.\Generated_Source\PSoC5/ultrasonic_uart.c ****         *
 941:.\Generated_Source\PSoC5/ultrasonic_uart.c ****         *******************************************************************************/
 942:.\Generated_Source\PSoC5/ultrasonic_uart.c ****         void ultrasonic_uart_DisableTxInt(void) 
 943:.\Generated_Source\PSoC5/ultrasonic_uart.c ****         {
 944:.\Generated_Source\PSoC5/ultrasonic_uart.c ****             CyIntDisable(ultrasonic_uart_TX_VECT_NUM);
ARM GAS  C:\Users\karunmj\AppData\Local\Temp\cc5pDfok.s 			page 31


 945:.\Generated_Source\PSoC5/ultrasonic_uart.c ****         }
 946:.\Generated_Source\PSoC5/ultrasonic_uart.c **** 
 947:.\Generated_Source\PSoC5/ultrasonic_uart.c ****     #endif /* ultrasonic_uart_TX_INTERRUPT_ENABLED */
 948:.\Generated_Source\PSoC5/ultrasonic_uart.c **** 
 949:.\Generated_Source\PSoC5/ultrasonic_uart.c **** 
 950:.\Generated_Source\PSoC5/ultrasonic_uart.c ****     /*******************************************************************************
 951:.\Generated_Source\PSoC5/ultrasonic_uart.c ****     * Function Name: ultrasonic_uart_SetTxInterruptMode
 952:.\Generated_Source\PSoC5/ultrasonic_uart.c ****     ********************************************************************************
 953:.\Generated_Source\PSoC5/ultrasonic_uart.c ****     *
 954:.\Generated_Source\PSoC5/ultrasonic_uart.c ****     * Summary:
 955:.\Generated_Source\PSoC5/ultrasonic_uart.c ****     *  Configure which status bits trigger an interrupt event
 956:.\Generated_Source\PSoC5/ultrasonic_uart.c ****     *
 957:.\Generated_Source\PSoC5/ultrasonic_uart.c ****     * Parameters:
 958:.\Generated_Source\PSoC5/ultrasonic_uart.c ****     *  intSrc: An or'd combination of the desired status bit masks (defined in
 959:.\Generated_Source\PSoC5/ultrasonic_uart.c ****     *          the header file)
 960:.\Generated_Source\PSoC5/ultrasonic_uart.c ****     *
 961:.\Generated_Source\PSoC5/ultrasonic_uart.c ****     * Return:
 962:.\Generated_Source\PSoC5/ultrasonic_uart.c ****     *  None.
 963:.\Generated_Source\PSoC5/ultrasonic_uart.c ****     *
 964:.\Generated_Source\PSoC5/ultrasonic_uart.c ****     * Theory:
 965:.\Generated_Source\PSoC5/ultrasonic_uart.c ****     *  Enables the output of specific status bits to the interrupt controller
 966:.\Generated_Source\PSoC5/ultrasonic_uart.c ****     *
 967:.\Generated_Source\PSoC5/ultrasonic_uart.c ****     *******************************************************************************/
 968:.\Generated_Source\PSoC5/ultrasonic_uart.c ****     void ultrasonic_uart_SetTxInterruptMode(uint8 intSrc) 
 969:.\Generated_Source\PSoC5/ultrasonic_uart.c ****     {
 763              		.loc 1 969 0
 764              		.cfi_startproc
 765              		@ args = 0, pretend = 0, frame = 8
 766              		@ frame_needed = 1, uses_anonymous_args = 0
 767              		@ link register save eliminated.
 768 0000 80B4     		push	{r7}
 769              	.LCFI44:
 770              		.cfi_def_cfa_offset 4
 771 0002 83B0     		sub	sp, sp, #12
 772              	.LCFI45:
 773              		.cfi_def_cfa_offset 16
 774 0004 00AF     		add	r7, sp, #0
 775              		.cfi_offset 7, -4
 776              	.LCFI46:
 777              		.cfi_def_cfa_register 7
 778 0006 0346     		mov	r3, r0
 779 0008 FB71     		strb	r3, [r7, #7]
 970:.\Generated_Source\PSoC5/ultrasonic_uart.c ****         ultrasonic_uart_TXSTATUS_MASK_REG = intSrc;
 780              		.loc 1 970 0
 781 000a 46F28243 		movw	r3, #:lower16:1073767554
 782 000e C4F20003 		movt	r3, #:upper16:1073767554
 783 0012 FA79     		ldrb	r2, [r7, #7]
 784 0014 1A70     		strb	r2, [r3, #0]
 971:.\Generated_Source\PSoC5/ultrasonic_uart.c ****     }
 785              		.loc 1 971 0
 786 0016 07F10C07 		add	r7, r7, #12
 787 001a BD46     		mov	sp, r7
 788 001c 80BC     		pop	{r7}
 789 001e 7047     		bx	lr
 790              		.cfi_endproc
 791              	.LFE16:
 792              		.size	ultrasonic_uart_SetTxInterruptMode, .-ultrasonic_uart_SetTxInterruptMode
ARM GAS  C:\Users\karunmj\AppData\Local\Temp\cc5pDfok.s 			page 32


 793              		.section	.text.ultrasonic_uart_WriteTxData,"ax",%progbits
 794              		.align	2
 795              		.global	ultrasonic_uart_WriteTxData
 796              		.thumb
 797              		.thumb_func
 798              		.type	ultrasonic_uart_WriteTxData, %function
 799              	ultrasonic_uart_WriteTxData:
 800              	.LFB17:
 972:.\Generated_Source\PSoC5/ultrasonic_uart.c **** 
 973:.\Generated_Source\PSoC5/ultrasonic_uart.c **** 
 974:.\Generated_Source\PSoC5/ultrasonic_uart.c ****     /*******************************************************************************
 975:.\Generated_Source\PSoC5/ultrasonic_uart.c ****     * Function Name: ultrasonic_uart_WriteTxData
 976:.\Generated_Source\PSoC5/ultrasonic_uart.c ****     ********************************************************************************
 977:.\Generated_Source\PSoC5/ultrasonic_uart.c ****     *
 978:.\Generated_Source\PSoC5/ultrasonic_uart.c ****     * Summary:
 979:.\Generated_Source\PSoC5/ultrasonic_uart.c ****     *  Write a byte of data to the Transmit FIFO or TX buffer to be sent when the
 980:.\Generated_Source\PSoC5/ultrasonic_uart.c ****     *  bus is available. WriteTxData sends a byte without checking for buffer room
 981:.\Generated_Source\PSoC5/ultrasonic_uart.c ****     *  or status. It is up to the user to separately check status.
 982:.\Generated_Source\PSoC5/ultrasonic_uart.c ****     *
 983:.\Generated_Source\PSoC5/ultrasonic_uart.c ****     * Parameters:
 984:.\Generated_Source\PSoC5/ultrasonic_uart.c ****     *  TXDataByte: byte of data to place in the transmit FIFO
 985:.\Generated_Source\PSoC5/ultrasonic_uart.c ****     *
 986:.\Generated_Source\PSoC5/ultrasonic_uart.c ****     * Return:
 987:.\Generated_Source\PSoC5/ultrasonic_uart.c ****     * void
 988:.\Generated_Source\PSoC5/ultrasonic_uart.c ****     *
 989:.\Generated_Source\PSoC5/ultrasonic_uart.c ****     * Global Variables:
 990:.\Generated_Source\PSoC5/ultrasonic_uart.c ****     *  ultrasonic_uart_txBuffer - RAM buffer pointer for save data for transmission
 991:.\Generated_Source\PSoC5/ultrasonic_uart.c ****     *  ultrasonic_uart_txBufferWrite - cyclic index for write to txBuffer,
 992:.\Generated_Source\PSoC5/ultrasonic_uart.c ****     *    incremented after each byte saved to buffer.
 993:.\Generated_Source\PSoC5/ultrasonic_uart.c ****     *  ultrasonic_uart_txBufferRead - cyclic index for read from txBuffer,
 994:.\Generated_Source\PSoC5/ultrasonic_uart.c ****     *    checked to identify the condition to write to FIFO directly or to TX buffer
 995:.\Generated_Source\PSoC5/ultrasonic_uart.c ****     *  ultrasonic_uart_initVar - checked to identify that the component has been
 996:.\Generated_Source\PSoC5/ultrasonic_uart.c ****     *    initialized.
 997:.\Generated_Source\PSoC5/ultrasonic_uart.c ****     *
 998:.\Generated_Source\PSoC5/ultrasonic_uart.c ****     * Reentrant:
 999:.\Generated_Source\PSoC5/ultrasonic_uart.c ****     *  No.
1000:.\Generated_Source\PSoC5/ultrasonic_uart.c ****     *
1001:.\Generated_Source\PSoC5/ultrasonic_uart.c ****     *******************************************************************************/
1002:.\Generated_Source\PSoC5/ultrasonic_uart.c ****     void ultrasonic_uart_WriteTxData(uint8 txDataByte) 
1003:.\Generated_Source\PSoC5/ultrasonic_uart.c ****     {
 801              		.loc 1 1003 0
 802              		.cfi_startproc
 803              		@ args = 0, pretend = 0, frame = 8
 804              		@ frame_needed = 1, uses_anonymous_args = 0
 805              		@ link register save eliminated.
 806 0000 80B4     		push	{r7}
 807              	.LCFI47:
 808              		.cfi_def_cfa_offset 4
 809 0002 83B0     		sub	sp, sp, #12
 810              	.LCFI48:
 811              		.cfi_def_cfa_offset 16
 812 0004 00AF     		add	r7, sp, #0
 813              		.cfi_offset 7, -4
 814              	.LCFI49:
 815              		.cfi_def_cfa_register 7
 816 0006 0346     		mov	r3, r0
 817 0008 FB71     		strb	r3, [r7, #7]
ARM GAS  C:\Users\karunmj\AppData\Local\Temp\cc5pDfok.s 			page 33


1004:.\Generated_Source\PSoC5/ultrasonic_uart.c ****         /* If not Initialized then skip this function*/
1005:.\Generated_Source\PSoC5/ultrasonic_uart.c ****         if(ultrasonic_uart_initVar != 0u)
 818              		.loc 1 1005 0
 819 000a 40F20003 		movw	r3, #:lower16:ultrasonic_uart_initVar
 820 000e C0F20003 		movt	r3, #:upper16:ultrasonic_uart_initVar
 821 0012 1B78     		ldrb	r3, [r3, #0]	@ zero_extendqisi2
 822 0014 002B     		cmp	r3, #0
 823 0016 05D0     		beq	.L41
1006:.\Generated_Source\PSoC5/ultrasonic_uart.c ****         {
1007:.\Generated_Source\PSoC5/ultrasonic_uart.c ****             #if(ultrasonic_uart_TXBUFFERSIZE > ultrasonic_uart_FIFO_LENGTH)
1008:.\Generated_Source\PSoC5/ultrasonic_uart.c **** 
1009:.\Generated_Source\PSoC5/ultrasonic_uart.c ****                 /* Disable Tx interrupt. */
1010:.\Generated_Source\PSoC5/ultrasonic_uart.c ****                 /* Protect variables that could change on interrupt. */
1011:.\Generated_Source\PSoC5/ultrasonic_uart.c ****                 #if(ultrasonic_uart_TX_INTERRUPT_ENABLED)
1012:.\Generated_Source\PSoC5/ultrasonic_uart.c ****                     ultrasonic_uart_DisableTxInt();
1013:.\Generated_Source\PSoC5/ultrasonic_uart.c ****                 #endif /* End ultrasonic_uart_TX_INTERRUPT_ENABLED */
1014:.\Generated_Source\PSoC5/ultrasonic_uart.c **** 
1015:.\Generated_Source\PSoC5/ultrasonic_uart.c ****                 if( (ultrasonic_uart_txBufferRead == ultrasonic_uart_txBufferWrite) &&
1016:.\Generated_Source\PSoC5/ultrasonic_uart.c ****                     ((ultrasonic_uart_TXSTATUS_REG & ultrasonic_uart_TX_STS_FIFO_FULL) == 0u) )
1017:.\Generated_Source\PSoC5/ultrasonic_uart.c ****                 {
1018:.\Generated_Source\PSoC5/ultrasonic_uart.c ****                     /* Add directly to the FIFO. */
1019:.\Generated_Source\PSoC5/ultrasonic_uart.c ****                     ultrasonic_uart_TXDATA_REG = txDataByte;
1020:.\Generated_Source\PSoC5/ultrasonic_uart.c ****                 }
1021:.\Generated_Source\PSoC5/ultrasonic_uart.c ****                 else
1022:.\Generated_Source\PSoC5/ultrasonic_uart.c ****                 {
1023:.\Generated_Source\PSoC5/ultrasonic_uart.c ****                     if(ultrasonic_uart_txBufferWrite >= ultrasonic_uart_TXBUFFERSIZE)
1024:.\Generated_Source\PSoC5/ultrasonic_uart.c ****                     {
1025:.\Generated_Source\PSoC5/ultrasonic_uart.c ****                         ultrasonic_uart_txBufferWrite = 0u;
1026:.\Generated_Source\PSoC5/ultrasonic_uart.c ****                     }
1027:.\Generated_Source\PSoC5/ultrasonic_uart.c **** 
1028:.\Generated_Source\PSoC5/ultrasonic_uart.c ****                     ultrasonic_uart_txBuffer[ultrasonic_uart_txBufferWrite] = txDataByte;
1029:.\Generated_Source\PSoC5/ultrasonic_uart.c **** 
1030:.\Generated_Source\PSoC5/ultrasonic_uart.c ****                     /* Add to the software buffer. */
1031:.\Generated_Source\PSoC5/ultrasonic_uart.c ****                     ultrasonic_uart_txBufferWrite++;
1032:.\Generated_Source\PSoC5/ultrasonic_uart.c **** 
1033:.\Generated_Source\PSoC5/ultrasonic_uart.c ****                 }
1034:.\Generated_Source\PSoC5/ultrasonic_uart.c **** 
1035:.\Generated_Source\PSoC5/ultrasonic_uart.c ****                 /* Enable Tx interrupt. */
1036:.\Generated_Source\PSoC5/ultrasonic_uart.c ****                 #if(ultrasonic_uart_TX_INTERRUPT_ENABLED)
1037:.\Generated_Source\PSoC5/ultrasonic_uart.c ****                     ultrasonic_uart_EnableTxInt();
1038:.\Generated_Source\PSoC5/ultrasonic_uart.c ****                 #endif /* End ultrasonic_uart_TX_INTERRUPT_ENABLED */
1039:.\Generated_Source\PSoC5/ultrasonic_uart.c **** 
1040:.\Generated_Source\PSoC5/ultrasonic_uart.c ****             #else /* ultrasonic_uart_TXBUFFERSIZE > ultrasonic_uart_FIFO_LENGTH */
1041:.\Generated_Source\PSoC5/ultrasonic_uart.c **** 
1042:.\Generated_Source\PSoC5/ultrasonic_uart.c ****                 /* Add directly to the FIFO. */
1043:.\Generated_Source\PSoC5/ultrasonic_uart.c ****                 ultrasonic_uart_TXDATA_REG = txDataByte;
 824              		.loc 1 1043 0
 825 0018 46F24543 		movw	r3, #:lower16:1073767493
 826 001c C4F20003 		movt	r3, #:upper16:1073767493
 827 0020 FA79     		ldrb	r2, [r7, #7]
 828 0022 1A70     		strb	r2, [r3, #0]
 829              	.L41:
1044:.\Generated_Source\PSoC5/ultrasonic_uart.c **** 
1045:.\Generated_Source\PSoC5/ultrasonic_uart.c ****             #endif /* End ultrasonic_uart_TXBUFFERSIZE > ultrasonic_uart_FIFO_LENGTH */
1046:.\Generated_Source\PSoC5/ultrasonic_uart.c ****         }
1047:.\Generated_Source\PSoC5/ultrasonic_uart.c ****     }
 830              		.loc 1 1047 0
ARM GAS  C:\Users\karunmj\AppData\Local\Temp\cc5pDfok.s 			page 34


 831 0024 07F10C07 		add	r7, r7, #12
 832 0028 BD46     		mov	sp, r7
 833 002a 80BC     		pop	{r7}
 834 002c 7047     		bx	lr
 835              		.cfi_endproc
 836              	.LFE17:
 837              		.size	ultrasonic_uart_WriteTxData, .-ultrasonic_uart_WriteTxData
 838 002e 00BF     		.section	.text.ultrasonic_uart_ReadTxStatus,"ax",%progbits
 839              		.align	2
 840              		.global	ultrasonic_uart_ReadTxStatus
 841              		.thumb
 842              		.thumb_func
 843              		.type	ultrasonic_uart_ReadTxStatus, %function
 844              	ultrasonic_uart_ReadTxStatus:
 845              	.LFB18:
1048:.\Generated_Source\PSoC5/ultrasonic_uart.c **** 
1049:.\Generated_Source\PSoC5/ultrasonic_uart.c **** 
1050:.\Generated_Source\PSoC5/ultrasonic_uart.c ****     /*******************************************************************************
1051:.\Generated_Source\PSoC5/ultrasonic_uart.c ****     * Function Name: ultrasonic_uart_ReadTxStatus
1052:.\Generated_Source\PSoC5/ultrasonic_uart.c ****     ********************************************************************************
1053:.\Generated_Source\PSoC5/ultrasonic_uart.c ****     *
1054:.\Generated_Source\PSoC5/ultrasonic_uart.c ****     * Summary:
1055:.\Generated_Source\PSoC5/ultrasonic_uart.c ****     *  Read the status register for the component
1056:.\Generated_Source\PSoC5/ultrasonic_uart.c ****     *
1057:.\Generated_Source\PSoC5/ultrasonic_uart.c ****     * Parameters:
1058:.\Generated_Source\PSoC5/ultrasonic_uart.c ****     *  None.
1059:.\Generated_Source\PSoC5/ultrasonic_uart.c ****     *
1060:.\Generated_Source\PSoC5/ultrasonic_uart.c ****     * Return:
1061:.\Generated_Source\PSoC5/ultrasonic_uart.c ****     *  Contents of the status register
1062:.\Generated_Source\PSoC5/ultrasonic_uart.c ****     *
1063:.\Generated_Source\PSoC5/ultrasonic_uart.c ****     * Theory:
1064:.\Generated_Source\PSoC5/ultrasonic_uart.c ****     *  This function reads the status register which is clear on read. It is up to
1065:.\Generated_Source\PSoC5/ultrasonic_uart.c ****     *  the user to handle all bits in this return value accordingly, even if the bit
1066:.\Generated_Source\PSoC5/ultrasonic_uart.c ****     *  was not enabled as an interrupt source the event happened and must be handled
1067:.\Generated_Source\PSoC5/ultrasonic_uart.c ****     *  accordingly.
1068:.\Generated_Source\PSoC5/ultrasonic_uart.c ****     *
1069:.\Generated_Source\PSoC5/ultrasonic_uart.c ****     *******************************************************************************/
1070:.\Generated_Source\PSoC5/ultrasonic_uart.c ****     uint8 ultrasonic_uart_ReadTxStatus(void) 
1071:.\Generated_Source\PSoC5/ultrasonic_uart.c ****     {
 846              		.loc 1 1071 0
 847              		.cfi_startproc
 848              		@ args = 0, pretend = 0, frame = 0
 849              		@ frame_needed = 1, uses_anonymous_args = 0
 850              		@ link register save eliminated.
 851 0000 80B4     		push	{r7}
 852              	.LCFI50:
 853              		.cfi_def_cfa_offset 4
 854 0002 00AF     		add	r7, sp, #0
 855              		.cfi_offset 7, -4
 856              	.LCFI51:
 857              		.cfi_def_cfa_register 7
1072:.\Generated_Source\PSoC5/ultrasonic_uart.c ****         return(ultrasonic_uart_TXSTATUS_REG);
 858              		.loc 1 1072 0
 859 0004 46F26243 		movw	r3, #:lower16:1073767522
 860 0008 C4F20003 		movt	r3, #:upper16:1073767522
 861 000c 1B78     		ldrb	r3, [r3, #0]
 862 000e DBB2     		uxtb	r3, r3
ARM GAS  C:\Users\karunmj\AppData\Local\Temp\cc5pDfok.s 			page 35


1073:.\Generated_Source\PSoC5/ultrasonic_uart.c ****     }
 863              		.loc 1 1073 0
 864 0010 1846     		mov	r0, r3
 865 0012 BD46     		mov	sp, r7
 866 0014 80BC     		pop	{r7}
 867 0016 7047     		bx	lr
 868              		.cfi_endproc
 869              	.LFE18:
 870              		.size	ultrasonic_uart_ReadTxStatus, .-ultrasonic_uart_ReadTxStatus
 871              		.section	.text.ultrasonic_uart_PutChar,"ax",%progbits
 872              		.align	2
 873              		.global	ultrasonic_uart_PutChar
 874              		.thumb
 875              		.thumb_func
 876              		.type	ultrasonic_uart_PutChar, %function
 877              	ultrasonic_uart_PutChar:
 878              	.LFB19:
1074:.\Generated_Source\PSoC5/ultrasonic_uart.c **** 
1075:.\Generated_Source\PSoC5/ultrasonic_uart.c **** 
1076:.\Generated_Source\PSoC5/ultrasonic_uart.c ****     /*******************************************************************************
1077:.\Generated_Source\PSoC5/ultrasonic_uart.c ****     * Function Name: ultrasonic_uart_PutChar
1078:.\Generated_Source\PSoC5/ultrasonic_uart.c ****     ********************************************************************************
1079:.\Generated_Source\PSoC5/ultrasonic_uart.c ****     *
1080:.\Generated_Source\PSoC5/ultrasonic_uart.c ****     * Summary:
1081:.\Generated_Source\PSoC5/ultrasonic_uart.c ****     *  Wait to send byte until TX register or buffer has room.
1082:.\Generated_Source\PSoC5/ultrasonic_uart.c ****     *
1083:.\Generated_Source\PSoC5/ultrasonic_uart.c ****     * Parameters:
1084:.\Generated_Source\PSoC5/ultrasonic_uart.c ****     *  txDataByte: The 8-bit data value to send across the UART.
1085:.\Generated_Source\PSoC5/ultrasonic_uart.c ****     *
1086:.\Generated_Source\PSoC5/ultrasonic_uart.c ****     * Return:
1087:.\Generated_Source\PSoC5/ultrasonic_uart.c ****     *  None.
1088:.\Generated_Source\PSoC5/ultrasonic_uart.c ****     *
1089:.\Generated_Source\PSoC5/ultrasonic_uart.c ****     * Global Variables:
1090:.\Generated_Source\PSoC5/ultrasonic_uart.c ****     *  ultrasonic_uart_txBuffer - RAM buffer pointer for save data for transmission
1091:.\Generated_Source\PSoC5/ultrasonic_uart.c ****     *  ultrasonic_uart_txBufferWrite - cyclic index for write to txBuffer,
1092:.\Generated_Source\PSoC5/ultrasonic_uart.c ****     *     checked to identify free space in txBuffer and incremented after each byte
1093:.\Generated_Source\PSoC5/ultrasonic_uart.c ****     *     saved to buffer.
1094:.\Generated_Source\PSoC5/ultrasonic_uart.c ****     *  ultrasonic_uart_txBufferRead - cyclic index for read from txBuffer,
1095:.\Generated_Source\PSoC5/ultrasonic_uart.c ****     *     checked to identify free space in txBuffer.
1096:.\Generated_Source\PSoC5/ultrasonic_uart.c ****     *  ultrasonic_uart_initVar - checked to identify that the component has been
1097:.\Generated_Source\PSoC5/ultrasonic_uart.c ****     *     initialized.
1098:.\Generated_Source\PSoC5/ultrasonic_uart.c ****     *
1099:.\Generated_Source\PSoC5/ultrasonic_uart.c ****     * Reentrant:
1100:.\Generated_Source\PSoC5/ultrasonic_uart.c ****     *  No.
1101:.\Generated_Source\PSoC5/ultrasonic_uart.c ****     *
1102:.\Generated_Source\PSoC5/ultrasonic_uart.c ****     * Theory:
1103:.\Generated_Source\PSoC5/ultrasonic_uart.c ****     *  Allows the user to transmit any byte of data in a single transfer
1104:.\Generated_Source\PSoC5/ultrasonic_uart.c ****     *
1105:.\Generated_Source\PSoC5/ultrasonic_uart.c ****     *******************************************************************************/
1106:.\Generated_Source\PSoC5/ultrasonic_uart.c ****     void ultrasonic_uart_PutChar(uint8 txDataByte) 
1107:.\Generated_Source\PSoC5/ultrasonic_uart.c ****     {
 879              		.loc 1 1107 0
 880              		.cfi_startproc
 881              		@ args = 0, pretend = 0, frame = 8
 882              		@ frame_needed = 1, uses_anonymous_args = 0
 883              		@ link register save eliminated.
 884 0000 80B4     		push	{r7}
ARM GAS  C:\Users\karunmj\AppData\Local\Temp\cc5pDfok.s 			page 36


 885              	.LCFI52:
 886              		.cfi_def_cfa_offset 4
 887 0002 83B0     		sub	sp, sp, #12
 888              	.LCFI53:
 889              		.cfi_def_cfa_offset 16
 890 0004 00AF     		add	r7, sp, #0
 891              		.cfi_offset 7, -4
 892              	.LCFI54:
 893              		.cfi_def_cfa_register 7
 894 0006 0346     		mov	r3, r0
 895 0008 FB71     		strb	r3, [r7, #7]
 896              	.L45:
1108:.\Generated_Source\PSoC5/ultrasonic_uart.c ****             #if(ultrasonic_uart_TXBUFFERSIZE > ultrasonic_uart_FIFO_LENGTH)
1109:.\Generated_Source\PSoC5/ultrasonic_uart.c ****                 /* The temporary output pointer is used since it takes two instructions
1110:.\Generated_Source\PSoC5/ultrasonic_uart.c ****                 *  to increment with a wrap, and we can't risk doing that with the real
1111:.\Generated_Source\PSoC5/ultrasonic_uart.c ****                 *  pointer and getting an interrupt in between instructions.
1112:.\Generated_Source\PSoC5/ultrasonic_uart.c ****                 */
1113:.\Generated_Source\PSoC5/ultrasonic_uart.c ****                 uint8 loc_txBufferWrite;
1114:.\Generated_Source\PSoC5/ultrasonic_uart.c ****                 uint8 loc_txBufferRead;
1115:.\Generated_Source\PSoC5/ultrasonic_uart.c **** 
1116:.\Generated_Source\PSoC5/ultrasonic_uart.c ****                 do{
1117:.\Generated_Source\PSoC5/ultrasonic_uart.c ****                     /* Block if software buffer is full, so we don't overwrite. */
1118:.\Generated_Source\PSoC5/ultrasonic_uart.c ****                     #if ((ultrasonic_uart_TXBUFFERSIZE > ultrasonic_uart_MAX_BYTE_VALUE) && (CY_PSO
1119:.\Generated_Source\PSoC5/ultrasonic_uart.c ****                         /* Disable TX interrupt to protect variables that could change on interrupt
1120:.\Generated_Source\PSoC5/ultrasonic_uart.c ****                         CyIntDisable(ultrasonic_uart_TX_VECT_NUM);
1121:.\Generated_Source\PSoC5/ultrasonic_uart.c ****                     #endif /* End TXBUFFERSIZE > 255 */
1122:.\Generated_Source\PSoC5/ultrasonic_uart.c ****                     loc_txBufferWrite = ultrasonic_uart_txBufferWrite;
1123:.\Generated_Source\PSoC5/ultrasonic_uart.c ****                     loc_txBufferRead = ultrasonic_uart_txBufferRead;
1124:.\Generated_Source\PSoC5/ultrasonic_uart.c ****                     #if ((ultrasonic_uart_TXBUFFERSIZE > ultrasonic_uart_MAX_BYTE_VALUE) && (CY_PSO
1125:.\Generated_Source\PSoC5/ultrasonic_uart.c ****                         /* Enable interrupt to continue transmission */
1126:.\Generated_Source\PSoC5/ultrasonic_uart.c ****                         CyIntEnable(ultrasonic_uart_TX_VECT_NUM);
1127:.\Generated_Source\PSoC5/ultrasonic_uart.c ****                     #endif /* End TXBUFFERSIZE > 255 */
1128:.\Generated_Source\PSoC5/ultrasonic_uart.c ****                 }while( (loc_txBufferWrite < loc_txBufferRead) ? (loc_txBufferWrite == (loc_txBuffe
1129:.\Generated_Source\PSoC5/ultrasonic_uart.c ****                                         ((loc_txBufferWrite - loc_txBufferRead) ==
1130:.\Generated_Source\PSoC5/ultrasonic_uart.c ****                                         (uint8)(ultrasonic_uart_TXBUFFERSIZE - 1u)) );
1131:.\Generated_Source\PSoC5/ultrasonic_uart.c **** 
1132:.\Generated_Source\PSoC5/ultrasonic_uart.c ****                 if( (loc_txBufferRead == loc_txBufferWrite) &&
1133:.\Generated_Source\PSoC5/ultrasonic_uart.c ****                     ((ultrasonic_uart_TXSTATUS_REG & ultrasonic_uart_TX_STS_FIFO_FULL) == 0u) )
1134:.\Generated_Source\PSoC5/ultrasonic_uart.c ****                 {
1135:.\Generated_Source\PSoC5/ultrasonic_uart.c ****                     /* Add directly to the FIFO. */
1136:.\Generated_Source\PSoC5/ultrasonic_uart.c ****                     ultrasonic_uart_TXDATA_REG = txDataByte;
1137:.\Generated_Source\PSoC5/ultrasonic_uart.c ****                 }
1138:.\Generated_Source\PSoC5/ultrasonic_uart.c ****                 else
1139:.\Generated_Source\PSoC5/ultrasonic_uart.c ****                 {
1140:.\Generated_Source\PSoC5/ultrasonic_uart.c ****                     if(loc_txBufferWrite >= ultrasonic_uart_TXBUFFERSIZE)
1141:.\Generated_Source\PSoC5/ultrasonic_uart.c ****                     {
1142:.\Generated_Source\PSoC5/ultrasonic_uart.c ****                         loc_txBufferWrite = 0u;
1143:.\Generated_Source\PSoC5/ultrasonic_uart.c ****                     }
1144:.\Generated_Source\PSoC5/ultrasonic_uart.c ****                     /* Add to the software buffer. */
1145:.\Generated_Source\PSoC5/ultrasonic_uart.c ****                     ultrasonic_uart_txBuffer[loc_txBufferWrite] = txDataByte;
1146:.\Generated_Source\PSoC5/ultrasonic_uart.c ****                     loc_txBufferWrite++;
1147:.\Generated_Source\PSoC5/ultrasonic_uart.c **** 
1148:.\Generated_Source\PSoC5/ultrasonic_uart.c ****                     /* Finally, update the real output pointer */
1149:.\Generated_Source\PSoC5/ultrasonic_uart.c ****                     #if ((ultrasonic_uart_TXBUFFERSIZE > ultrasonic_uart_MAX_BYTE_VALUE) && (CY_PSO
1150:.\Generated_Source\PSoC5/ultrasonic_uart.c ****                         CyIntDisable(ultrasonic_uart_TX_VECT_NUM);
1151:.\Generated_Source\PSoC5/ultrasonic_uart.c ****                     #endif /* End TXBUFFERSIZE > 255 */
1152:.\Generated_Source\PSoC5/ultrasonic_uart.c ****                     ultrasonic_uart_txBufferWrite = loc_txBufferWrite;
ARM GAS  C:\Users\karunmj\AppData\Local\Temp\cc5pDfok.s 			page 37


1153:.\Generated_Source\PSoC5/ultrasonic_uart.c ****                     #if ((ultrasonic_uart_TXBUFFERSIZE > ultrasonic_uart_MAX_BYTE_VALUE) && (CY_PSO
1154:.\Generated_Source\PSoC5/ultrasonic_uart.c ****                         CyIntEnable(ultrasonic_uart_TX_VECT_NUM);
1155:.\Generated_Source\PSoC5/ultrasonic_uart.c ****                     #endif /* End TXBUFFERSIZE > 255 */
1156:.\Generated_Source\PSoC5/ultrasonic_uart.c ****                 }
1157:.\Generated_Source\PSoC5/ultrasonic_uart.c **** 
1158:.\Generated_Source\PSoC5/ultrasonic_uart.c ****             #else /* ultrasonic_uart_TXBUFFERSIZE > ultrasonic_uart_FIFO_LENGTH */
1159:.\Generated_Source\PSoC5/ultrasonic_uart.c **** 
1160:.\Generated_Source\PSoC5/ultrasonic_uart.c ****                 while((ultrasonic_uart_TXSTATUS_REG & ultrasonic_uart_TX_STS_FIFO_FULL) != 0u)
 897              		.loc 1 1160 0
 898 000a 46F26243 		movw	r3, #:lower16:1073767522
 899 000e C4F20003 		movt	r3, #:upper16:1073767522
 900 0012 1B78     		ldrb	r3, [r3, #0]
 901 0014 DBB2     		uxtb	r3, r3
 902 0016 03F00403 		and	r3, r3, #4
 903 001a 002B     		cmp	r3, #0
 904 001c F5D1     		bne	.L45
1161:.\Generated_Source\PSoC5/ultrasonic_uart.c ****                 {
1162:.\Generated_Source\PSoC5/ultrasonic_uart.c ****                     ; /* Wait for room in the FIFO. */
1163:.\Generated_Source\PSoC5/ultrasonic_uart.c ****                 }
1164:.\Generated_Source\PSoC5/ultrasonic_uart.c **** 
1165:.\Generated_Source\PSoC5/ultrasonic_uart.c ****                 /* Add directly to the FIFO. */
1166:.\Generated_Source\PSoC5/ultrasonic_uart.c ****                 ultrasonic_uart_TXDATA_REG = txDataByte;
 905              		.loc 1 1166 0
 906 001e 46F24543 		movw	r3, #:lower16:1073767493
 907 0022 C4F20003 		movt	r3, #:upper16:1073767493
 908 0026 FA79     		ldrb	r2, [r7, #7]
 909 0028 1A70     		strb	r2, [r3, #0]
1167:.\Generated_Source\PSoC5/ultrasonic_uart.c **** 
1168:.\Generated_Source\PSoC5/ultrasonic_uart.c ****             #endif /* End ultrasonic_uart_TXBUFFERSIZE > ultrasonic_uart_FIFO_LENGTH */
1169:.\Generated_Source\PSoC5/ultrasonic_uart.c ****     }
 910              		.loc 1 1169 0
 911 002a 07F10C07 		add	r7, r7, #12
 912 002e BD46     		mov	sp, r7
 913 0030 80BC     		pop	{r7}
 914 0032 7047     		bx	lr
 915              		.cfi_endproc
 916              	.LFE19:
 917              		.size	ultrasonic_uart_PutChar, .-ultrasonic_uart_PutChar
 918              		.section	.text.ultrasonic_uart_PutString,"ax",%progbits
 919              		.align	2
 920              		.global	ultrasonic_uart_PutString
 921              		.thumb
 922              		.thumb_func
 923              		.type	ultrasonic_uart_PutString, %function
 924              	ultrasonic_uart_PutString:
 925              	.LFB20:
1170:.\Generated_Source\PSoC5/ultrasonic_uart.c **** 
1171:.\Generated_Source\PSoC5/ultrasonic_uart.c **** 
1172:.\Generated_Source\PSoC5/ultrasonic_uart.c ****     /*******************************************************************************
1173:.\Generated_Source\PSoC5/ultrasonic_uart.c ****     * Function Name: ultrasonic_uart_PutString
1174:.\Generated_Source\PSoC5/ultrasonic_uart.c ****     ********************************************************************************
1175:.\Generated_Source\PSoC5/ultrasonic_uart.c ****     *
1176:.\Generated_Source\PSoC5/ultrasonic_uart.c ****     * Summary:
1177:.\Generated_Source\PSoC5/ultrasonic_uart.c ****     *  Write a Sequence of bytes on the Transmit line. Data comes from RAM or ROM.
1178:.\Generated_Source\PSoC5/ultrasonic_uart.c ****     *
1179:.\Generated_Source\PSoC5/ultrasonic_uart.c ****     * Parameters:
1180:.\Generated_Source\PSoC5/ultrasonic_uart.c ****     *  string: char pointer to character string of Data to Send.
ARM GAS  C:\Users\karunmj\AppData\Local\Temp\cc5pDfok.s 			page 38


1181:.\Generated_Source\PSoC5/ultrasonic_uart.c ****     *
1182:.\Generated_Source\PSoC5/ultrasonic_uart.c ****     * Return:
1183:.\Generated_Source\PSoC5/ultrasonic_uart.c ****     *  None.
1184:.\Generated_Source\PSoC5/ultrasonic_uart.c ****     *
1185:.\Generated_Source\PSoC5/ultrasonic_uart.c ****     * Global Variables:
1186:.\Generated_Source\PSoC5/ultrasonic_uart.c ****     *  ultrasonic_uart_initVar - checked to identify that the component has been
1187:.\Generated_Source\PSoC5/ultrasonic_uart.c ****     *     initialized.
1188:.\Generated_Source\PSoC5/ultrasonic_uart.c ****     *
1189:.\Generated_Source\PSoC5/ultrasonic_uart.c ****     * Reentrant:
1190:.\Generated_Source\PSoC5/ultrasonic_uart.c ****     *  No.
1191:.\Generated_Source\PSoC5/ultrasonic_uart.c ****     *
1192:.\Generated_Source\PSoC5/ultrasonic_uart.c ****     * Theory:
1193:.\Generated_Source\PSoC5/ultrasonic_uart.c ****     *  This function will block if there is not enough memory to place the whole
1194:.\Generated_Source\PSoC5/ultrasonic_uart.c ****     *  string, it will block until the entire string has been written to the
1195:.\Generated_Source\PSoC5/ultrasonic_uart.c ****     *  transmit buffer.
1196:.\Generated_Source\PSoC5/ultrasonic_uart.c ****     *
1197:.\Generated_Source\PSoC5/ultrasonic_uart.c ****     *******************************************************************************/
1198:.\Generated_Source\PSoC5/ultrasonic_uart.c ****     void ultrasonic_uart_PutString(const char8 string[]) 
1199:.\Generated_Source\PSoC5/ultrasonic_uart.c ****     {
 926              		.loc 1 1199 0
 927              		.cfi_startproc
 928              		@ args = 0, pretend = 0, frame = 16
 929              		@ frame_needed = 1, uses_anonymous_args = 0
 930 0000 80B5     		push	{r7, lr}
 931              	.LCFI55:
 932              		.cfi_def_cfa_offset 8
 933 0002 84B0     		sub	sp, sp, #16
 934              	.LCFI56:
 935              		.cfi_def_cfa_offset 24
 936 0004 00AF     		add	r7, sp, #0
 937              		.cfi_offset 14, -4
 938              		.cfi_offset 7, -8
 939              	.LCFI57:
 940              		.cfi_def_cfa_register 7
 941 0006 7860     		str	r0, [r7, #4]
1200:.\Generated_Source\PSoC5/ultrasonic_uart.c ****         uint16 buf_index = 0u;
 942              		.loc 1 1200 0
 943 0008 4FF00003 		mov	r3, #0
 944 000c FB81     		strh	r3, [r7, #14]	@ movhi
1201:.\Generated_Source\PSoC5/ultrasonic_uart.c ****         /* If not Initialized then skip this function*/
1202:.\Generated_Source\PSoC5/ultrasonic_uart.c ****         if(ultrasonic_uart_initVar != 0u)
 945              		.loc 1 1202 0
 946 000e 40F20003 		movw	r3, #:lower16:ultrasonic_uart_initVar
 947 0012 C0F20003 		movt	r3, #:upper16:ultrasonic_uart_initVar
 948 0016 1B78     		ldrb	r3, [r3, #0]	@ zero_extendqisi2
 949 0018 002B     		cmp	r3, #0
 950 001a 11D0     		beq	.L51
1203:.\Generated_Source\PSoC5/ultrasonic_uart.c ****         {
1204:.\Generated_Source\PSoC5/ultrasonic_uart.c ****             /* This is a blocking function, it will not exit until all data is sent*/
1205:.\Generated_Source\PSoC5/ultrasonic_uart.c ****             while(string[buf_index] != (char8)0)
 951              		.loc 1 1205 0
 952 001c 0AE0     		b	.L49
 953              	.L50:
1206:.\Generated_Source\PSoC5/ultrasonic_uart.c ****             {
1207:.\Generated_Source\PSoC5/ultrasonic_uart.c ****                 ultrasonic_uart_PutChar((uint8)string[buf_index]);
 954              		.loc 1 1207 0
 955 001e FA89     		ldrh	r2, [r7, #14]
ARM GAS  C:\Users\karunmj\AppData\Local\Temp\cc5pDfok.s 			page 39


 956 0020 7B68     		ldr	r3, [r7, #4]
 957 0022 1344     		add	r3, r2, r3
 958 0024 1B78     		ldrb	r3, [r3, #0]	@ zero_extendqisi2
 959 0026 1846     		mov	r0, r3
 960 0028 FFF7FEFF 		bl	ultrasonic_uart_PutChar
1208:.\Generated_Source\PSoC5/ultrasonic_uart.c ****                 buf_index++;
 961              		.loc 1 1208 0
 962 002c FB89     		ldrh	r3, [r7, #14]	@ movhi
 963 002e 03F10103 		add	r3, r3, #1
 964 0032 FB81     		strh	r3, [r7, #14]	@ movhi
 965              	.L49:
 966              		.loc 1 1205 0
 967 0034 FA89     		ldrh	r2, [r7, #14]
 968 0036 7B68     		ldr	r3, [r7, #4]
 969 0038 1344     		add	r3, r2, r3
 970 003a 1B78     		ldrb	r3, [r3, #0]	@ zero_extendqisi2
 971 003c 002B     		cmp	r3, #0
 972 003e EED1     		bne	.L50
 973              	.L51:
1209:.\Generated_Source\PSoC5/ultrasonic_uart.c ****             }
1210:.\Generated_Source\PSoC5/ultrasonic_uart.c ****         }
1211:.\Generated_Source\PSoC5/ultrasonic_uart.c ****     }
 974              		.loc 1 1211 0
 975 0040 07F11007 		add	r7, r7, #16
 976 0044 BD46     		mov	sp, r7
 977 0046 80BD     		pop	{r7, pc}
 978              		.cfi_endproc
 979              	.LFE20:
 980              		.size	ultrasonic_uart_PutString, .-ultrasonic_uart_PutString
 981              		.section	.text.ultrasonic_uart_PutArray,"ax",%progbits
 982              		.align	2
 983              		.global	ultrasonic_uart_PutArray
 984              		.thumb
 985              		.thumb_func
 986              		.type	ultrasonic_uart_PutArray, %function
 987              	ultrasonic_uart_PutArray:
 988              	.LFB21:
1212:.\Generated_Source\PSoC5/ultrasonic_uart.c **** 
1213:.\Generated_Source\PSoC5/ultrasonic_uart.c **** 
1214:.\Generated_Source\PSoC5/ultrasonic_uart.c ****     /*******************************************************************************
1215:.\Generated_Source\PSoC5/ultrasonic_uart.c ****     * Function Name: ultrasonic_uart_PutArray
1216:.\Generated_Source\PSoC5/ultrasonic_uart.c ****     ********************************************************************************
1217:.\Generated_Source\PSoC5/ultrasonic_uart.c ****     *
1218:.\Generated_Source\PSoC5/ultrasonic_uart.c ****     * Summary:
1219:.\Generated_Source\PSoC5/ultrasonic_uart.c ****     *  Write a Sequence of bytes on the Transmit line. Data comes from RAM or ROM.
1220:.\Generated_Source\PSoC5/ultrasonic_uart.c ****     *
1221:.\Generated_Source\PSoC5/ultrasonic_uart.c ****     * Parameters:
1222:.\Generated_Source\PSoC5/ultrasonic_uart.c ****     *  string: Address of the memory array residing in RAM or ROM.
1223:.\Generated_Source\PSoC5/ultrasonic_uart.c ****     *  byteCount: Number of Bytes to be transmitted.
1224:.\Generated_Source\PSoC5/ultrasonic_uart.c ****     *
1225:.\Generated_Source\PSoC5/ultrasonic_uart.c ****     * Return:
1226:.\Generated_Source\PSoC5/ultrasonic_uart.c ****     *  None.
1227:.\Generated_Source\PSoC5/ultrasonic_uart.c ****     *
1228:.\Generated_Source\PSoC5/ultrasonic_uart.c ****     * Global Variables:
1229:.\Generated_Source\PSoC5/ultrasonic_uart.c ****     *  ultrasonic_uart_initVar - checked to identify that the component has been
1230:.\Generated_Source\PSoC5/ultrasonic_uart.c ****     *     initialized.
1231:.\Generated_Source\PSoC5/ultrasonic_uart.c ****     *
ARM GAS  C:\Users\karunmj\AppData\Local\Temp\cc5pDfok.s 			page 40


1232:.\Generated_Source\PSoC5/ultrasonic_uart.c ****     * Reentrant:
1233:.\Generated_Source\PSoC5/ultrasonic_uart.c ****     *  No.
1234:.\Generated_Source\PSoC5/ultrasonic_uart.c ****     *
1235:.\Generated_Source\PSoC5/ultrasonic_uart.c ****     *******************************************************************************/
1236:.\Generated_Source\PSoC5/ultrasonic_uart.c ****     void ultrasonic_uart_PutArray(const uint8 string[], uint8 byteCount)
1237:.\Generated_Source\PSoC5/ultrasonic_uart.c ****                                                                     
1238:.\Generated_Source\PSoC5/ultrasonic_uart.c ****     {
 989              		.loc 1 1238 0
 990              		.cfi_startproc
 991              		@ args = 0, pretend = 0, frame = 16
 992              		@ frame_needed = 1, uses_anonymous_args = 0
 993 0000 80B5     		push	{r7, lr}
 994              	.LCFI58:
 995              		.cfi_def_cfa_offset 8
 996 0002 84B0     		sub	sp, sp, #16
 997              	.LCFI59:
 998              		.cfi_def_cfa_offset 24
 999 0004 00AF     		add	r7, sp, #0
 1000              		.cfi_offset 14, -4
 1001              		.cfi_offset 7, -8
 1002              	.LCFI60:
 1003              		.cfi_def_cfa_register 7
 1004 0006 7860     		str	r0, [r7, #4]
 1005 0008 0B46     		mov	r3, r1
 1006 000a FB70     		strb	r3, [r7, #3]
1239:.\Generated_Source\PSoC5/ultrasonic_uart.c ****         uint8 buf_index = 0u;
 1007              		.loc 1 1239 0
 1008 000c 4FF00003 		mov	r3, #0
 1009 0010 FB73     		strb	r3, [r7, #15]
1240:.\Generated_Source\PSoC5/ultrasonic_uart.c ****         /* If not Initialized then skip this function*/
1241:.\Generated_Source\PSoC5/ultrasonic_uart.c ****         if(ultrasonic_uart_initVar != 0u)
 1010              		.loc 1 1241 0
 1011 0012 40F20003 		movw	r3, #:lower16:ultrasonic_uart_initVar
 1012 0016 C0F20003 		movt	r3, #:upper16:ultrasonic_uart_initVar
 1013 001a 1B78     		ldrb	r3, [r3, #0]	@ zero_extendqisi2
 1014 001c 002B     		cmp	r3, #0
 1015 001e 0ED0     		beq	.L55
 1016              	.L54:
1242:.\Generated_Source\PSoC5/ultrasonic_uart.c ****         {
1243:.\Generated_Source\PSoC5/ultrasonic_uart.c ****             do
1244:.\Generated_Source\PSoC5/ultrasonic_uart.c ****             {
1245:.\Generated_Source\PSoC5/ultrasonic_uart.c ****                 ultrasonic_uart_PutChar(string[buf_index]);
 1017              		.loc 1 1245 0
 1018 0020 FA7B     		ldrb	r2, [r7, #15]	@ zero_extendqisi2
 1019 0022 7B68     		ldr	r3, [r7, #4]
 1020 0024 1344     		add	r3, r2, r3
 1021 0026 1B78     		ldrb	r3, [r3, #0]	@ zero_extendqisi2
 1022 0028 1846     		mov	r0, r3
 1023 002a FFF7FEFF 		bl	ultrasonic_uart_PutChar
1246:.\Generated_Source\PSoC5/ultrasonic_uart.c ****                 buf_index++;
 1024              		.loc 1 1246 0
 1025 002e FB7B     		ldrb	r3, [r7, #15]
 1026 0030 03F10103 		add	r3, r3, #1
 1027 0034 FB73     		strb	r3, [r7, #15]
1247:.\Generated_Source\PSoC5/ultrasonic_uart.c ****             }while(buf_index < byteCount);
 1028              		.loc 1 1247 0
 1029 0036 FA7B     		ldrb	r2, [r7, #15]	@ zero_extendqisi2
ARM GAS  C:\Users\karunmj\AppData\Local\Temp\cc5pDfok.s 			page 41


 1030 0038 FB78     		ldrb	r3, [r7, #3]	@ zero_extendqisi2
 1031 003a 9A42     		cmp	r2, r3
 1032 003c F0D3     		bcc	.L54
 1033              	.L55:
1248:.\Generated_Source\PSoC5/ultrasonic_uart.c ****         }
1249:.\Generated_Source\PSoC5/ultrasonic_uart.c ****     }
 1034              		.loc 1 1249 0
 1035 003e 07F11007 		add	r7, r7, #16
 1036 0042 BD46     		mov	sp, r7
 1037 0044 80BD     		pop	{r7, pc}
 1038              		.cfi_endproc
 1039              	.LFE21:
 1040              		.size	ultrasonic_uart_PutArray, .-ultrasonic_uart_PutArray
 1041 0046 00BF     		.section	.text.ultrasonic_uart_PutCRLF,"ax",%progbits
 1042              		.align	2
 1043              		.global	ultrasonic_uart_PutCRLF
 1044              		.thumb
 1045              		.thumb_func
 1046              		.type	ultrasonic_uart_PutCRLF, %function
 1047              	ultrasonic_uart_PutCRLF:
 1048              	.LFB22:
1250:.\Generated_Source\PSoC5/ultrasonic_uart.c **** 
1251:.\Generated_Source\PSoC5/ultrasonic_uart.c **** 
1252:.\Generated_Source\PSoC5/ultrasonic_uart.c ****     /*******************************************************************************
1253:.\Generated_Source\PSoC5/ultrasonic_uart.c ****     * Function Name: ultrasonic_uart_PutCRLF
1254:.\Generated_Source\PSoC5/ultrasonic_uart.c ****     ********************************************************************************
1255:.\Generated_Source\PSoC5/ultrasonic_uart.c ****     *
1256:.\Generated_Source\PSoC5/ultrasonic_uart.c ****     * Summary:
1257:.\Generated_Source\PSoC5/ultrasonic_uart.c ****     *  Write a character and then carriage return and line feed.
1258:.\Generated_Source\PSoC5/ultrasonic_uart.c ****     *
1259:.\Generated_Source\PSoC5/ultrasonic_uart.c ****     * Parameters:
1260:.\Generated_Source\PSoC5/ultrasonic_uart.c ****     *  txDataByte: uint8 Character to send.
1261:.\Generated_Source\PSoC5/ultrasonic_uart.c ****     *
1262:.\Generated_Source\PSoC5/ultrasonic_uart.c ****     * Return:
1263:.\Generated_Source\PSoC5/ultrasonic_uart.c ****     *  None.
1264:.\Generated_Source\PSoC5/ultrasonic_uart.c ****     *
1265:.\Generated_Source\PSoC5/ultrasonic_uart.c ****     * Global Variables:
1266:.\Generated_Source\PSoC5/ultrasonic_uart.c ****     *  ultrasonic_uart_initVar - checked to identify that the component has been
1267:.\Generated_Source\PSoC5/ultrasonic_uart.c ****     *     initialized.
1268:.\Generated_Source\PSoC5/ultrasonic_uart.c ****     *
1269:.\Generated_Source\PSoC5/ultrasonic_uart.c ****     * Reentrant:
1270:.\Generated_Source\PSoC5/ultrasonic_uart.c ****     *  No.
1271:.\Generated_Source\PSoC5/ultrasonic_uart.c ****     *
1272:.\Generated_Source\PSoC5/ultrasonic_uart.c ****     *******************************************************************************/
1273:.\Generated_Source\PSoC5/ultrasonic_uart.c ****     void ultrasonic_uart_PutCRLF(uint8 txDataByte) 
1274:.\Generated_Source\PSoC5/ultrasonic_uart.c ****     {
 1049              		.loc 1 1274 0
 1050              		.cfi_startproc
 1051              		@ args = 0, pretend = 0, frame = 8
 1052              		@ frame_needed = 1, uses_anonymous_args = 0
 1053 0000 80B5     		push	{r7, lr}
 1054              	.LCFI61:
 1055              		.cfi_def_cfa_offset 8
 1056 0002 82B0     		sub	sp, sp, #8
 1057              	.LCFI62:
 1058              		.cfi_def_cfa_offset 16
 1059 0004 00AF     		add	r7, sp, #0
ARM GAS  C:\Users\karunmj\AppData\Local\Temp\cc5pDfok.s 			page 42


 1060              		.cfi_offset 14, -4
 1061              		.cfi_offset 7, -8
 1062              	.LCFI63:
 1063              		.cfi_def_cfa_register 7
 1064 0006 0346     		mov	r3, r0
 1065 0008 FB71     		strb	r3, [r7, #7]
1275:.\Generated_Source\PSoC5/ultrasonic_uart.c ****         /* If not Initialized then skip this function*/
1276:.\Generated_Source\PSoC5/ultrasonic_uart.c ****         if(ultrasonic_uart_initVar != 0u)
 1066              		.loc 1 1276 0
 1067 000a 40F20003 		movw	r3, #:lower16:ultrasonic_uart_initVar
 1068 000e C0F20003 		movt	r3, #:upper16:ultrasonic_uart_initVar
 1069 0012 1B78     		ldrb	r3, [r3, #0]	@ zero_extendqisi2
 1070 0014 002B     		cmp	r3, #0
 1071 0016 0BD0     		beq	.L58
1277:.\Generated_Source\PSoC5/ultrasonic_uart.c ****         {
1278:.\Generated_Source\PSoC5/ultrasonic_uart.c ****             ultrasonic_uart_PutChar(txDataByte);
 1072              		.loc 1 1278 0
 1073 0018 FB79     		ldrb	r3, [r7, #7]	@ zero_extendqisi2
 1074 001a 1846     		mov	r0, r3
 1075 001c FFF7FEFF 		bl	ultrasonic_uart_PutChar
1279:.\Generated_Source\PSoC5/ultrasonic_uart.c ****             ultrasonic_uart_PutChar(0x0Du);
 1076              		.loc 1 1279 0
 1077 0020 4FF00D00 		mov	r0, #13
 1078 0024 FFF7FEFF 		bl	ultrasonic_uart_PutChar
1280:.\Generated_Source\PSoC5/ultrasonic_uart.c ****             ultrasonic_uart_PutChar(0x0Au);
 1079              		.loc 1 1280 0
 1080 0028 4FF00A00 		mov	r0, #10
 1081 002c FFF7FEFF 		bl	ultrasonic_uart_PutChar
 1082              	.L58:
1281:.\Generated_Source\PSoC5/ultrasonic_uart.c ****         }
1282:.\Generated_Source\PSoC5/ultrasonic_uart.c ****     }
 1083              		.loc 1 1282 0
 1084 0030 07F10807 		add	r7, r7, #8
 1085 0034 BD46     		mov	sp, r7
 1086 0036 80BD     		pop	{r7, pc}
 1087              		.cfi_endproc
 1088              	.LFE22:
 1089              		.size	ultrasonic_uart_PutCRLF, .-ultrasonic_uart_PutCRLF
 1090              		.section	.text.ultrasonic_uart_GetTxBufferSize,"ax",%progbits
 1091              		.align	2
 1092              		.global	ultrasonic_uart_GetTxBufferSize
 1093              		.thumb
 1094              		.thumb_func
 1095              		.type	ultrasonic_uart_GetTxBufferSize, %function
 1096              	ultrasonic_uart_GetTxBufferSize:
 1097              	.LFB23:
1283:.\Generated_Source\PSoC5/ultrasonic_uart.c **** 
1284:.\Generated_Source\PSoC5/ultrasonic_uart.c **** 
1285:.\Generated_Source\PSoC5/ultrasonic_uart.c ****     /*******************************************************************************
1286:.\Generated_Source\PSoC5/ultrasonic_uart.c ****     * Function Name: ultrasonic_uart_GetTxBufferSize
1287:.\Generated_Source\PSoC5/ultrasonic_uart.c ****     ********************************************************************************
1288:.\Generated_Source\PSoC5/ultrasonic_uart.c ****     *
1289:.\Generated_Source\PSoC5/ultrasonic_uart.c ****     * Summary:
1290:.\Generated_Source\PSoC5/ultrasonic_uart.c ****     *  Determine the amount of space left in the TX buffer and return the count in
1291:.\Generated_Source\PSoC5/ultrasonic_uart.c ****     *  bytes
1292:.\Generated_Source\PSoC5/ultrasonic_uart.c ****     *
1293:.\Generated_Source\PSoC5/ultrasonic_uart.c ****     * Parameters:
ARM GAS  C:\Users\karunmj\AppData\Local\Temp\cc5pDfok.s 			page 43


1294:.\Generated_Source\PSoC5/ultrasonic_uart.c ****     *  None.
1295:.\Generated_Source\PSoC5/ultrasonic_uart.c ****     *
1296:.\Generated_Source\PSoC5/ultrasonic_uart.c ****     * Return:
1297:.\Generated_Source\PSoC5/ultrasonic_uart.c ****     *  Integer count of the number of bytes left in the TX buffer
1298:.\Generated_Source\PSoC5/ultrasonic_uart.c ****     *
1299:.\Generated_Source\PSoC5/ultrasonic_uart.c ****     * Global Variables:
1300:.\Generated_Source\PSoC5/ultrasonic_uart.c ****     *  ultrasonic_uart_txBufferWrite - used to calculate left space.
1301:.\Generated_Source\PSoC5/ultrasonic_uart.c ****     *  ultrasonic_uart_txBufferRead - used to calculate left space.
1302:.\Generated_Source\PSoC5/ultrasonic_uart.c ****     *
1303:.\Generated_Source\PSoC5/ultrasonic_uart.c ****     * Reentrant:
1304:.\Generated_Source\PSoC5/ultrasonic_uart.c ****     *  No.
1305:.\Generated_Source\PSoC5/ultrasonic_uart.c ****     *
1306:.\Generated_Source\PSoC5/ultrasonic_uart.c ****     * Theory:
1307:.\Generated_Source\PSoC5/ultrasonic_uart.c ****     *  Allows the user to find out how full the TX Buffer is.
1308:.\Generated_Source\PSoC5/ultrasonic_uart.c ****     *
1309:.\Generated_Source\PSoC5/ultrasonic_uart.c ****     *******************************************************************************/
1310:.\Generated_Source\PSoC5/ultrasonic_uart.c ****     uint8 ultrasonic_uart_GetTxBufferSize(void)
1311:.\Generated_Source\PSoC5/ultrasonic_uart.c ****                                                             
1312:.\Generated_Source\PSoC5/ultrasonic_uart.c ****     {
 1098              		.loc 1 1312 0
 1099              		.cfi_startproc
 1100              		@ args = 0, pretend = 0, frame = 8
 1101              		@ frame_needed = 1, uses_anonymous_args = 0
 1102              		@ link register save eliminated.
 1103 0000 80B4     		push	{r7}
 1104              	.LCFI64:
 1105              		.cfi_def_cfa_offset 4
 1106 0002 83B0     		sub	sp, sp, #12
 1107              	.LCFI65:
 1108              		.cfi_def_cfa_offset 16
 1109 0004 00AF     		add	r7, sp, #0
 1110              		.cfi_offset 7, -4
 1111              	.LCFI66:
 1112              		.cfi_def_cfa_register 7
1313:.\Generated_Source\PSoC5/ultrasonic_uart.c ****         uint8 size;
1314:.\Generated_Source\PSoC5/ultrasonic_uart.c **** 
1315:.\Generated_Source\PSoC5/ultrasonic_uart.c ****         #if(ultrasonic_uart_TXBUFFERSIZE > ultrasonic_uart_FIFO_LENGTH)
1316:.\Generated_Source\PSoC5/ultrasonic_uart.c **** 
1317:.\Generated_Source\PSoC5/ultrasonic_uart.c ****             /* Disable Tx interrupt. */
1318:.\Generated_Source\PSoC5/ultrasonic_uart.c ****             /* Protect variables that could change on interrupt. */
1319:.\Generated_Source\PSoC5/ultrasonic_uart.c ****             #if(ultrasonic_uart_TX_INTERRUPT_ENABLED)
1320:.\Generated_Source\PSoC5/ultrasonic_uart.c ****                 ultrasonic_uart_DisableTxInt();
1321:.\Generated_Source\PSoC5/ultrasonic_uart.c ****             #endif /* End ultrasonic_uart_TX_INTERRUPT_ENABLED */
1322:.\Generated_Source\PSoC5/ultrasonic_uart.c **** 
1323:.\Generated_Source\PSoC5/ultrasonic_uart.c ****             if(ultrasonic_uart_txBufferRead == ultrasonic_uart_txBufferWrite)
1324:.\Generated_Source\PSoC5/ultrasonic_uart.c ****             {
1325:.\Generated_Source\PSoC5/ultrasonic_uart.c ****                 size = 0u;
1326:.\Generated_Source\PSoC5/ultrasonic_uart.c ****             }
1327:.\Generated_Source\PSoC5/ultrasonic_uart.c ****             else if(ultrasonic_uart_txBufferRead < ultrasonic_uart_txBufferWrite)
1328:.\Generated_Source\PSoC5/ultrasonic_uart.c ****             {
1329:.\Generated_Source\PSoC5/ultrasonic_uart.c ****                 size = (ultrasonic_uart_txBufferWrite - ultrasonic_uart_txBufferRead);
1330:.\Generated_Source\PSoC5/ultrasonic_uart.c ****             }
1331:.\Generated_Source\PSoC5/ultrasonic_uart.c ****             else
1332:.\Generated_Source\PSoC5/ultrasonic_uart.c ****             {
1333:.\Generated_Source\PSoC5/ultrasonic_uart.c ****                 size = (ultrasonic_uart_TXBUFFERSIZE - ultrasonic_uart_txBufferRead) + ultrasonic_u
1334:.\Generated_Source\PSoC5/ultrasonic_uart.c ****             }
1335:.\Generated_Source\PSoC5/ultrasonic_uart.c **** 
ARM GAS  C:\Users\karunmj\AppData\Local\Temp\cc5pDfok.s 			page 44


1336:.\Generated_Source\PSoC5/ultrasonic_uart.c ****             /* Enable Tx interrupt. */
1337:.\Generated_Source\PSoC5/ultrasonic_uart.c ****             #if(ultrasonic_uart_TX_INTERRUPT_ENABLED)
1338:.\Generated_Source\PSoC5/ultrasonic_uart.c ****                 ultrasonic_uart_EnableTxInt();
1339:.\Generated_Source\PSoC5/ultrasonic_uart.c ****             #endif /* End ultrasonic_uart_TX_INTERRUPT_ENABLED */
1340:.\Generated_Source\PSoC5/ultrasonic_uart.c **** 
1341:.\Generated_Source\PSoC5/ultrasonic_uart.c ****         #else /* ultrasonic_uart_TXBUFFERSIZE > ultrasonic_uart_FIFO_LENGTH */
1342:.\Generated_Source\PSoC5/ultrasonic_uart.c **** 
1343:.\Generated_Source\PSoC5/ultrasonic_uart.c ****             size = ultrasonic_uart_TXSTATUS_REG;
 1113              		.loc 1 1343 0
 1114 0006 46F26243 		movw	r3, #:lower16:1073767522
 1115 000a C4F20003 		movt	r3, #:upper16:1073767522
 1116 000e 1B78     		ldrb	r3, [r3, #0]
 1117 0010 FB71     		strb	r3, [r7, #7]
1344:.\Generated_Source\PSoC5/ultrasonic_uart.c **** 
1345:.\Generated_Source\PSoC5/ultrasonic_uart.c ****             /* Is the fifo is full. */
1346:.\Generated_Source\PSoC5/ultrasonic_uart.c ****             if((size & ultrasonic_uart_TX_STS_FIFO_FULL) != 0u)
 1118              		.loc 1 1346 0
 1119 0012 FB79     		ldrb	r3, [r7, #7]	@ zero_extendqisi2
 1120 0014 03F00403 		and	r3, r3, #4
 1121 0018 002B     		cmp	r3, #0
 1122 001a 03D0     		beq	.L60
1347:.\Generated_Source\PSoC5/ultrasonic_uart.c ****             {
1348:.\Generated_Source\PSoC5/ultrasonic_uart.c ****                 size = ultrasonic_uart_FIFO_LENGTH;
 1123              		.loc 1 1348 0
 1124 001c 4FF00403 		mov	r3, #4
 1125 0020 FB71     		strb	r3, [r7, #7]
 1126 0022 0BE0     		b	.L61
 1127              	.L60:
1349:.\Generated_Source\PSoC5/ultrasonic_uart.c ****             }
1350:.\Generated_Source\PSoC5/ultrasonic_uart.c ****             else if((size & ultrasonic_uart_TX_STS_FIFO_EMPTY) != 0u)
 1128              		.loc 1 1350 0
 1129 0024 FB79     		ldrb	r3, [r7, #7]	@ zero_extendqisi2
 1130 0026 03F00203 		and	r3, r3, #2
 1131 002a 002B     		cmp	r3, #0
 1132 002c 03D0     		beq	.L62
1351:.\Generated_Source\PSoC5/ultrasonic_uart.c ****             {
1352:.\Generated_Source\PSoC5/ultrasonic_uart.c ****                 size = 0u;
 1133              		.loc 1 1352 0
 1134 002e 4FF00003 		mov	r3, #0
 1135 0032 FB71     		strb	r3, [r7, #7]
 1136 0034 02E0     		b	.L61
 1137              	.L62:
1353:.\Generated_Source\PSoC5/ultrasonic_uart.c ****             }
1354:.\Generated_Source\PSoC5/ultrasonic_uart.c ****             else
1355:.\Generated_Source\PSoC5/ultrasonic_uart.c ****             {
1356:.\Generated_Source\PSoC5/ultrasonic_uart.c ****                 /* We only know there is data in the fifo. */
1357:.\Generated_Source\PSoC5/ultrasonic_uart.c ****                 size = 1u;
 1138              		.loc 1 1357 0
 1139 0036 4FF00103 		mov	r3, #1
 1140 003a FB71     		strb	r3, [r7, #7]
 1141              	.L61:
1358:.\Generated_Source\PSoC5/ultrasonic_uart.c ****             }
1359:.\Generated_Source\PSoC5/ultrasonic_uart.c **** 
1360:.\Generated_Source\PSoC5/ultrasonic_uart.c ****         #endif /* End ultrasonic_uart_TXBUFFERSIZE > ultrasonic_uart_FIFO_LENGTH */
1361:.\Generated_Source\PSoC5/ultrasonic_uart.c **** 
1362:.\Generated_Source\PSoC5/ultrasonic_uart.c ****         return(size);
 1142              		.loc 1 1362 0
ARM GAS  C:\Users\karunmj\AppData\Local\Temp\cc5pDfok.s 			page 45


 1143 003c FB79     		ldrb	r3, [r7, #7]	@ zero_extendqisi2
1363:.\Generated_Source\PSoC5/ultrasonic_uart.c ****     }
 1144              		.loc 1 1363 0
 1145 003e 1846     		mov	r0, r3
 1146 0040 07F10C07 		add	r7, r7, #12
 1147 0044 BD46     		mov	sp, r7
 1148 0046 80BC     		pop	{r7}
 1149 0048 7047     		bx	lr
 1150              		.cfi_endproc
 1151              	.LFE23:
 1152              		.size	ultrasonic_uart_GetTxBufferSize, .-ultrasonic_uart_GetTxBufferSize
 1153 004a 00BF     		.section	.text.ultrasonic_uart_ClearTxBuffer,"ax",%progbits
 1154              		.align	2
 1155              		.global	ultrasonic_uart_ClearTxBuffer
 1156              		.thumb
 1157              		.thumb_func
 1158              		.type	ultrasonic_uart_ClearTxBuffer, %function
 1159              	ultrasonic_uart_ClearTxBuffer:
 1160              	.LFB24:
1364:.\Generated_Source\PSoC5/ultrasonic_uart.c **** 
1365:.\Generated_Source\PSoC5/ultrasonic_uart.c **** 
1366:.\Generated_Source\PSoC5/ultrasonic_uart.c ****     /*******************************************************************************
1367:.\Generated_Source\PSoC5/ultrasonic_uart.c ****     * Function Name: ultrasonic_uart_ClearTxBuffer
1368:.\Generated_Source\PSoC5/ultrasonic_uart.c ****     ********************************************************************************
1369:.\Generated_Source\PSoC5/ultrasonic_uart.c ****     *
1370:.\Generated_Source\PSoC5/ultrasonic_uart.c ****     * Summary:
1371:.\Generated_Source\PSoC5/ultrasonic_uart.c ****     *  Clears the TX RAM buffer by setting the read and write pointers both to zero.
1372:.\Generated_Source\PSoC5/ultrasonic_uart.c ****     *  Clears the hardware TX FIFO.  Any data present in the FIFO will not be sent.
1373:.\Generated_Source\PSoC5/ultrasonic_uart.c ****     *
1374:.\Generated_Source\PSoC5/ultrasonic_uart.c ****     * Parameters:
1375:.\Generated_Source\PSoC5/ultrasonic_uart.c ****     *  None.
1376:.\Generated_Source\PSoC5/ultrasonic_uart.c ****     *
1377:.\Generated_Source\PSoC5/ultrasonic_uart.c ****     * Return:
1378:.\Generated_Source\PSoC5/ultrasonic_uart.c ****     *  None.
1379:.\Generated_Source\PSoC5/ultrasonic_uart.c ****     *
1380:.\Generated_Source\PSoC5/ultrasonic_uart.c ****     * Global Variables:
1381:.\Generated_Source\PSoC5/ultrasonic_uart.c ****     *  ultrasonic_uart_txBufferWrite - cleared to zero.
1382:.\Generated_Source\PSoC5/ultrasonic_uart.c ****     *  ultrasonic_uart_txBufferRead - cleared to zero.
1383:.\Generated_Source\PSoC5/ultrasonic_uart.c ****     *
1384:.\Generated_Source\PSoC5/ultrasonic_uart.c ****     * Reentrant:
1385:.\Generated_Source\PSoC5/ultrasonic_uart.c ****     *  No.
1386:.\Generated_Source\PSoC5/ultrasonic_uart.c ****     *
1387:.\Generated_Source\PSoC5/ultrasonic_uart.c ****     * Theory:
1388:.\Generated_Source\PSoC5/ultrasonic_uart.c ****     *  Setting the pointers to zero makes the system believe there is no data to
1389:.\Generated_Source\PSoC5/ultrasonic_uart.c ****     *  read and writing will resume at address 0 overwriting any data that may have
1390:.\Generated_Source\PSoC5/ultrasonic_uart.c ****     *  remained in the RAM.
1391:.\Generated_Source\PSoC5/ultrasonic_uart.c ****     *
1392:.\Generated_Source\PSoC5/ultrasonic_uart.c ****     * Side Effects:
1393:.\Generated_Source\PSoC5/ultrasonic_uart.c ****     *  Any received data not read from the RAM buffer will be lost when overwritten.
1394:.\Generated_Source\PSoC5/ultrasonic_uart.c ****     *
1395:.\Generated_Source\PSoC5/ultrasonic_uart.c ****     *******************************************************************************/
1396:.\Generated_Source\PSoC5/ultrasonic_uart.c ****     void ultrasonic_uart_ClearTxBuffer(void) 
1397:.\Generated_Source\PSoC5/ultrasonic_uart.c ****     {
 1161              		.loc 1 1397 0
 1162              		.cfi_startproc
 1163              		@ args = 0, pretend = 0, frame = 8
 1164              		@ frame_needed = 1, uses_anonymous_args = 0
ARM GAS  C:\Users\karunmj\AppData\Local\Temp\cc5pDfok.s 			page 46


 1165 0000 80B5     		push	{r7, lr}
 1166              	.LCFI67:
 1167              		.cfi_def_cfa_offset 8
 1168 0002 82B0     		sub	sp, sp, #8
 1169              	.LCFI68:
 1170              		.cfi_def_cfa_offset 16
 1171 0004 00AF     		add	r7, sp, #0
 1172              		.cfi_offset 14, -4
 1173              		.cfi_offset 7, -8
 1174              	.LCFI69:
 1175              		.cfi_def_cfa_register 7
1398:.\Generated_Source\PSoC5/ultrasonic_uart.c ****         uint8 enableInterrupts;
1399:.\Generated_Source\PSoC5/ultrasonic_uart.c **** 
1400:.\Generated_Source\PSoC5/ultrasonic_uart.c ****         /* Enter critical section */
1401:.\Generated_Source\PSoC5/ultrasonic_uart.c ****         enableInterrupts = CyEnterCriticalSection();
 1176              		.loc 1 1401 0
 1177 0006 FFF7FEFF 		bl	CyEnterCriticalSection
 1178 000a 0346     		mov	r3, r0
 1179 000c FB71     		strb	r3, [r7, #7]
1402:.\Generated_Source\PSoC5/ultrasonic_uart.c ****         /* clear the HW FIFO */
1403:.\Generated_Source\PSoC5/ultrasonic_uart.c ****         ultrasonic_uart_TXDATA_AUX_CTL_REG |=  ultrasonic_uart_TX_FIFO_CLR;
 1180              		.loc 1 1403 0
 1181 000e 46F29543 		movw	r3, #:lower16:1073767573
 1182 0012 C4F20003 		movt	r3, #:upper16:1073767573
 1183 0016 46F29542 		movw	r2, #:lower16:1073767573
 1184 001a C4F20002 		movt	r2, #:upper16:1073767573
 1185 001e 1278     		ldrb	r2, [r2, #0]
 1186 0020 D2B2     		uxtb	r2, r2
 1187 0022 42F00102 		orr	r2, r2, #1
 1188 0026 D2B2     		uxtb	r2, r2
 1189 0028 1A70     		strb	r2, [r3, #0]
1404:.\Generated_Source\PSoC5/ultrasonic_uart.c ****         ultrasonic_uart_TXDATA_AUX_CTL_REG &= (uint8)~ultrasonic_uart_TX_FIFO_CLR;
 1190              		.loc 1 1404 0
 1191 002a 46F29543 		movw	r3, #:lower16:1073767573
 1192 002e C4F20003 		movt	r3, #:upper16:1073767573
 1193 0032 46F29542 		movw	r2, #:lower16:1073767573
 1194 0036 C4F20002 		movt	r2, #:upper16:1073767573
 1195 003a 1278     		ldrb	r2, [r2, #0]
 1196 003c D2B2     		uxtb	r2, r2
 1197 003e 02F0FE02 		and	r2, r2, #254
 1198 0042 1A70     		strb	r2, [r3, #0]
1405:.\Generated_Source\PSoC5/ultrasonic_uart.c ****         /* Exit critical section */
1406:.\Generated_Source\PSoC5/ultrasonic_uart.c ****         CyExitCriticalSection(enableInterrupts);
 1199              		.loc 1 1406 0
 1200 0044 FB79     		ldrb	r3, [r7, #7]	@ zero_extendqisi2
 1201 0046 1846     		mov	r0, r3
 1202 0048 FFF7FEFF 		bl	CyExitCriticalSection
1407:.\Generated_Source\PSoC5/ultrasonic_uart.c **** 
1408:.\Generated_Source\PSoC5/ultrasonic_uart.c ****         #if(ultrasonic_uart_TXBUFFERSIZE > ultrasonic_uart_FIFO_LENGTH)
1409:.\Generated_Source\PSoC5/ultrasonic_uart.c **** 
1410:.\Generated_Source\PSoC5/ultrasonic_uart.c ****             /* Disable Tx interrupt. */
1411:.\Generated_Source\PSoC5/ultrasonic_uart.c ****             /* Protect variables that could change on interrupt. */
1412:.\Generated_Source\PSoC5/ultrasonic_uart.c ****             #if(ultrasonic_uart_TX_INTERRUPT_ENABLED)
1413:.\Generated_Source\PSoC5/ultrasonic_uart.c ****                 ultrasonic_uart_DisableTxInt();
1414:.\Generated_Source\PSoC5/ultrasonic_uart.c ****             #endif /* End ultrasonic_uart_TX_INTERRUPT_ENABLED */
1415:.\Generated_Source\PSoC5/ultrasonic_uart.c **** 
1416:.\Generated_Source\PSoC5/ultrasonic_uart.c ****             ultrasonic_uart_txBufferRead = 0u;
ARM GAS  C:\Users\karunmj\AppData\Local\Temp\cc5pDfok.s 			page 47


1417:.\Generated_Source\PSoC5/ultrasonic_uart.c ****             ultrasonic_uart_txBufferWrite = 0u;
1418:.\Generated_Source\PSoC5/ultrasonic_uart.c **** 
1419:.\Generated_Source\PSoC5/ultrasonic_uart.c ****             /* Enable Tx interrupt. */
1420:.\Generated_Source\PSoC5/ultrasonic_uart.c ****             #if(ultrasonic_uart_TX_INTERRUPT_ENABLED)
1421:.\Generated_Source\PSoC5/ultrasonic_uart.c ****                 ultrasonic_uart_EnableTxInt();
1422:.\Generated_Source\PSoC5/ultrasonic_uart.c ****             #endif /* End ultrasonic_uart_TX_INTERRUPT_ENABLED */
1423:.\Generated_Source\PSoC5/ultrasonic_uart.c **** 
1424:.\Generated_Source\PSoC5/ultrasonic_uart.c ****         #endif /* End ultrasonic_uart_TXBUFFERSIZE > ultrasonic_uart_FIFO_LENGTH */
1425:.\Generated_Source\PSoC5/ultrasonic_uart.c ****     }
 1203              		.loc 1 1425 0
 1204 004c 07F10807 		add	r7, r7, #8
 1205 0050 BD46     		mov	sp, r7
 1206 0052 80BD     		pop	{r7, pc}
 1207              		.cfi_endproc
 1208              	.LFE24:
 1209              		.size	ultrasonic_uart_ClearTxBuffer, .-ultrasonic_uart_ClearTxBuffer
 1210              		.section	.text.ultrasonic_uart_SendBreak,"ax",%progbits
 1211              		.align	2
 1212              		.global	ultrasonic_uart_SendBreak
 1213              		.thumb
 1214              		.thumb_func
 1215              		.type	ultrasonic_uart_SendBreak, %function
 1216              	ultrasonic_uart_SendBreak:
 1217              	.LFB25:
1426:.\Generated_Source\PSoC5/ultrasonic_uart.c **** 
1427:.\Generated_Source\PSoC5/ultrasonic_uart.c **** 
1428:.\Generated_Source\PSoC5/ultrasonic_uart.c ****     /*******************************************************************************
1429:.\Generated_Source\PSoC5/ultrasonic_uart.c ****     * Function Name: ultrasonic_uart_SendBreak
1430:.\Generated_Source\PSoC5/ultrasonic_uart.c ****     ********************************************************************************
1431:.\Generated_Source\PSoC5/ultrasonic_uart.c ****     *
1432:.\Generated_Source\PSoC5/ultrasonic_uart.c ****     * Summary:
1433:.\Generated_Source\PSoC5/ultrasonic_uart.c ****     *  Write a Break command to the UART
1434:.\Generated_Source\PSoC5/ultrasonic_uart.c ****     *
1435:.\Generated_Source\PSoC5/ultrasonic_uart.c ****     * Parameters:
1436:.\Generated_Source\PSoC5/ultrasonic_uart.c ****     *  uint8 retMode:  Wait mode,
1437:.\Generated_Source\PSoC5/ultrasonic_uart.c ****     *   0 - Initialize registers for Break, sends the Break signal and return
1438:.\Generated_Source\PSoC5/ultrasonic_uart.c ****     *       imediately.
1439:.\Generated_Source\PSoC5/ultrasonic_uart.c ****     *   1 - Wait until Break sending is complete, reinitialize registers to normal
1440:.\Generated_Source\PSoC5/ultrasonic_uart.c ****     *       transmission mode then return.
1441:.\Generated_Source\PSoC5/ultrasonic_uart.c ****     *   2 - Reinitialize registers to normal transmission mode then return.
1442:.\Generated_Source\PSoC5/ultrasonic_uart.c ****     *   3 - both steps: 0 and 1
1443:.\Generated_Source\PSoC5/ultrasonic_uart.c ****     *       init registers for Break, send Break signal
1444:.\Generated_Source\PSoC5/ultrasonic_uart.c ****     *       wait until Break sending is complete, reinit registers to normal
1445:.\Generated_Source\PSoC5/ultrasonic_uart.c ****     *       transmission mode then return.
1446:.\Generated_Source\PSoC5/ultrasonic_uart.c ****     *
1447:.\Generated_Source\PSoC5/ultrasonic_uart.c ****     * Return:
1448:.\Generated_Source\PSoC5/ultrasonic_uart.c ****     *  None.
1449:.\Generated_Source\PSoC5/ultrasonic_uart.c ****     *
1450:.\Generated_Source\PSoC5/ultrasonic_uart.c ****     * Global Variables:
1451:.\Generated_Source\PSoC5/ultrasonic_uart.c ****     *  ultrasonic_uart_initVar - checked to identify that the component has been
1452:.\Generated_Source\PSoC5/ultrasonic_uart.c ****     *     initialized.
1453:.\Generated_Source\PSoC5/ultrasonic_uart.c ****     *  tx_period - static variable, used for keeping TX period configuration.
1454:.\Generated_Source\PSoC5/ultrasonic_uart.c ****     *
1455:.\Generated_Source\PSoC5/ultrasonic_uart.c ****     * Reentrant:
1456:.\Generated_Source\PSoC5/ultrasonic_uart.c ****     *  No.
1457:.\Generated_Source\PSoC5/ultrasonic_uart.c ****     *
1458:.\Generated_Source\PSoC5/ultrasonic_uart.c ****     * Theory:
ARM GAS  C:\Users\karunmj\AppData\Local\Temp\cc5pDfok.s 			page 48


1459:.\Generated_Source\PSoC5/ultrasonic_uart.c ****     *  SendBreak function initializes registers to send 13-bit break signal. It is
1460:.\Generated_Source\PSoC5/ultrasonic_uart.c ****     *  important to return the registers configuration to normal for continue 8-bit
1461:.\Generated_Source\PSoC5/ultrasonic_uart.c ****     *  operation.
1462:.\Generated_Source\PSoC5/ultrasonic_uart.c ****     *  Trere are 3 variants for this API usage:
1463:.\Generated_Source\PSoC5/ultrasonic_uart.c ****     *  1) SendBreak(3) - function will send the Break signal and take care on the
1464:.\Generated_Source\PSoC5/ultrasonic_uart.c ****     *     configuration returning. Funcition will block CPU untill transmition
1465:.\Generated_Source\PSoC5/ultrasonic_uart.c ****     *     complete.
1466:.\Generated_Source\PSoC5/ultrasonic_uart.c ****     *  2) User may want to use bloking time if UART configured to the low speed
1467:.\Generated_Source\PSoC5/ultrasonic_uart.c ****     *     operation
1468:.\Generated_Source\PSoC5/ultrasonic_uart.c ****     *     Emample for this case:
1469:.\Generated_Source\PSoC5/ultrasonic_uart.c ****     *     SendBreak(0);     - init Break signal transmition
1470:.\Generated_Source\PSoC5/ultrasonic_uart.c ****     *         Add your code here to use CPU time
1471:.\Generated_Source\PSoC5/ultrasonic_uart.c ****     *     SendBreak(1);     - complete Break operation
1472:.\Generated_Source\PSoC5/ultrasonic_uart.c ****     *  3) Same to 2) but user may want to init and use the interrupt for complete
1473:.\Generated_Source\PSoC5/ultrasonic_uart.c ****     *     break operation.
1474:.\Generated_Source\PSoC5/ultrasonic_uart.c ****     *     Example for this case:
1475:.\Generated_Source\PSoC5/ultrasonic_uart.c ****     *     Init TX interrupt whith "TX - On TX Complete" parameter
1476:.\Generated_Source\PSoC5/ultrasonic_uart.c ****     *     SendBreak(0);     - init Break signal transmition
1477:.\Generated_Source\PSoC5/ultrasonic_uart.c ****     *         Add your code here to use CPU time
1478:.\Generated_Source\PSoC5/ultrasonic_uart.c ****     *     When interrupt appear with UART_TX_STS_COMPLETE status:
1479:.\Generated_Source\PSoC5/ultrasonic_uart.c ****     *     SendBreak(2);     - complete Break operation
1480:.\Generated_Source\PSoC5/ultrasonic_uart.c ****     *
1481:.\Generated_Source\PSoC5/ultrasonic_uart.c ****     * Side Effects:
1482:.\Generated_Source\PSoC5/ultrasonic_uart.c ****     *   Uses static variable to keep registers configuration.
1483:.\Generated_Source\PSoC5/ultrasonic_uart.c ****     *
1484:.\Generated_Source\PSoC5/ultrasonic_uart.c ****     *******************************************************************************/
1485:.\Generated_Source\PSoC5/ultrasonic_uart.c ****     void ultrasonic_uart_SendBreak(uint8 retMode) 
1486:.\Generated_Source\PSoC5/ultrasonic_uart.c ****     {
 1218              		.loc 1 1486 0
 1219              		.cfi_startproc
 1220              		@ args = 0, pretend = 0, frame = 16
 1221              		@ frame_needed = 1, uses_anonymous_args = 0
 1222              		@ link register save eliminated.
 1223 0000 80B4     		push	{r7}
 1224              	.LCFI70:
 1225              		.cfi_def_cfa_offset 4
 1226 0002 85B0     		sub	sp, sp, #20
 1227              	.LCFI71:
 1228              		.cfi_def_cfa_offset 24
 1229 0004 00AF     		add	r7, sp, #0
 1230              		.cfi_offset 7, -4
 1231              	.LCFI72:
 1232              		.cfi_def_cfa_register 7
 1233 0006 0346     		mov	r3, r0
 1234 0008 FB71     		strb	r3, [r7, #7]
1487:.\Generated_Source\PSoC5/ultrasonic_uart.c **** 
1488:.\Generated_Source\PSoC5/ultrasonic_uart.c ****         /* If not Initialized then skip this function*/
1489:.\Generated_Source\PSoC5/ultrasonic_uart.c ****         if(ultrasonic_uart_initVar != 0u)
 1235              		.loc 1 1489 0
 1236 000a 40F20003 		movw	r3, #:lower16:ultrasonic_uart_initVar
 1237 000e C0F20003 		movt	r3, #:upper16:ultrasonic_uart_initVar
 1238 0012 1B78     		ldrb	r3, [r3, #0]	@ zero_extendqisi2
 1239 0014 002B     		cmp	r3, #0
 1240 0016 54D0     		beq	.L76
 1241              	.LBB2:
1490:.\Generated_Source\PSoC5/ultrasonic_uart.c ****         {
1491:.\Generated_Source\PSoC5/ultrasonic_uart.c ****             /*Set the Counter to 13-bits and transmit a 00 byte*/
ARM GAS  C:\Users\karunmj\AppData\Local\Temp\cc5pDfok.s 			page 49


1492:.\Generated_Source\PSoC5/ultrasonic_uart.c ****             /*When that is done then reset the counter value back*/
1493:.\Generated_Source\PSoC5/ultrasonic_uart.c ****             uint8 tmpStat;
1494:.\Generated_Source\PSoC5/ultrasonic_uart.c **** 
1495:.\Generated_Source\PSoC5/ultrasonic_uart.c ****             #if(ultrasonic_uart_HD_ENABLED) /* Half Duplex mode*/
1496:.\Generated_Source\PSoC5/ultrasonic_uart.c **** 
1497:.\Generated_Source\PSoC5/ultrasonic_uart.c ****                 if( (retMode == ultrasonic_uart_SEND_BREAK) ||
1498:.\Generated_Source\PSoC5/ultrasonic_uart.c ****                     (retMode == ultrasonic_uart_SEND_WAIT_REINIT ) )
1499:.\Generated_Source\PSoC5/ultrasonic_uart.c ****                 {
1500:.\Generated_Source\PSoC5/ultrasonic_uart.c ****                     /* CTRL_HD_SEND_BREAK - sends break bits in HD mode*/
1501:.\Generated_Source\PSoC5/ultrasonic_uart.c ****                     ultrasonic_uart_WriteControlRegister(ultrasonic_uart_ReadControlRegister() |
1502:.\Generated_Source\PSoC5/ultrasonic_uart.c ****                                                           ultrasonic_uart_CTRL_HD_SEND_BREAK);
1503:.\Generated_Source\PSoC5/ultrasonic_uart.c ****                     /* Send zeros*/
1504:.\Generated_Source\PSoC5/ultrasonic_uart.c ****                     ultrasonic_uart_TXDATA_REG = 0u;
1505:.\Generated_Source\PSoC5/ultrasonic_uart.c **** 
1506:.\Generated_Source\PSoC5/ultrasonic_uart.c ****                     do /*wait until transmit starts*/
1507:.\Generated_Source\PSoC5/ultrasonic_uart.c ****                     {
1508:.\Generated_Source\PSoC5/ultrasonic_uart.c ****                         tmpStat = ultrasonic_uart_TXSTATUS_REG;
1509:.\Generated_Source\PSoC5/ultrasonic_uart.c ****                     }while((tmpStat & ultrasonic_uart_TX_STS_FIFO_EMPTY) != 0u);
1510:.\Generated_Source\PSoC5/ultrasonic_uart.c ****                 }
1511:.\Generated_Source\PSoC5/ultrasonic_uart.c **** 
1512:.\Generated_Source\PSoC5/ultrasonic_uart.c ****                 if( (retMode == ultrasonic_uart_WAIT_FOR_COMPLETE_REINIT) ||
1513:.\Generated_Source\PSoC5/ultrasonic_uart.c ****                     (retMode == ultrasonic_uart_SEND_WAIT_REINIT) )
1514:.\Generated_Source\PSoC5/ultrasonic_uart.c ****                 {
1515:.\Generated_Source\PSoC5/ultrasonic_uart.c ****                     do /*wait until transmit complete*/
1516:.\Generated_Source\PSoC5/ultrasonic_uart.c ****                     {
1517:.\Generated_Source\PSoC5/ultrasonic_uart.c ****                         tmpStat = ultrasonic_uart_TXSTATUS_REG;
1518:.\Generated_Source\PSoC5/ultrasonic_uart.c ****                     }while(((uint8)~tmpStat & ultrasonic_uart_TX_STS_COMPLETE) != 0u);
1519:.\Generated_Source\PSoC5/ultrasonic_uart.c ****                 }
1520:.\Generated_Source\PSoC5/ultrasonic_uart.c **** 
1521:.\Generated_Source\PSoC5/ultrasonic_uart.c ****                 if( (retMode == ultrasonic_uart_WAIT_FOR_COMPLETE_REINIT) ||
1522:.\Generated_Source\PSoC5/ultrasonic_uart.c ****                     (retMode == ultrasonic_uart_REINIT) ||
1523:.\Generated_Source\PSoC5/ultrasonic_uart.c ****                     (retMode == ultrasonic_uart_SEND_WAIT_REINIT) )
1524:.\Generated_Source\PSoC5/ultrasonic_uart.c ****                 {
1525:.\Generated_Source\PSoC5/ultrasonic_uart.c ****                     ultrasonic_uart_WriteControlRegister(ultrasonic_uart_ReadControlRegister() &
1526:.\Generated_Source\PSoC5/ultrasonic_uart.c ****                                                   (uint8)~ultrasonic_uart_CTRL_HD_SEND_BREAK);
1527:.\Generated_Source\PSoC5/ultrasonic_uart.c ****                 }
1528:.\Generated_Source\PSoC5/ultrasonic_uart.c **** 
1529:.\Generated_Source\PSoC5/ultrasonic_uart.c ****             #else /* ultrasonic_uart_HD_ENABLED Full Duplex mode */
1530:.\Generated_Source\PSoC5/ultrasonic_uart.c **** 
1531:.\Generated_Source\PSoC5/ultrasonic_uart.c ****                 static uint8 tx_period;
1532:.\Generated_Source\PSoC5/ultrasonic_uart.c **** 
1533:.\Generated_Source\PSoC5/ultrasonic_uart.c ****                 if( (retMode == ultrasonic_uart_SEND_BREAK) ||
 1242              		.loc 1 1533 0
 1243 0018 FB79     		ldrb	r3, [r7, #7]	@ zero_extendqisi2
 1244 001a 002B     		cmp	r3, #0
 1245 001c 02D0     		beq	.L68
 1246 001e FB79     		ldrb	r3, [r7, #7]	@ zero_extendqisi2
 1247 0020 032B     		cmp	r3, #3
 1248 0022 23D1     		bne	.L69
 1249              	.L68:
1534:.\Generated_Source\PSoC5/ultrasonic_uart.c ****                     (retMode == ultrasonic_uart_SEND_WAIT_REINIT) )
1535:.\Generated_Source\PSoC5/ultrasonic_uart.c ****                 {
1536:.\Generated_Source\PSoC5/ultrasonic_uart.c ****                     /* CTRL_HD_SEND_BREAK - skip to send parity bit at Break signal in Full Duplex 
1537:.\Generated_Source\PSoC5/ultrasonic_uart.c ****                     #if( (ultrasonic_uart_PARITY_TYPE != ultrasonic_uart__B_UART__NONE_REVB) || \
1538:.\Generated_Source\PSoC5/ultrasonic_uart.c ****                                         (ultrasonic_uart_PARITY_TYPE_SW != 0u) )
1539:.\Generated_Source\PSoC5/ultrasonic_uart.c ****                         ultrasonic_uart_WriteControlRegister(ultrasonic_uart_ReadControlRegister() 
1540:.\Generated_Source\PSoC5/ultrasonic_uart.c ****                                                               ultrasonic_uart_CTRL_HD_SEND_BREAK);
ARM GAS  C:\Users\karunmj\AppData\Local\Temp\cc5pDfok.s 			page 50


1541:.\Generated_Source\PSoC5/ultrasonic_uart.c ****                     #endif /* End ultrasonic_uart_PARITY_TYPE != ultrasonic_uart__B_UART__NONE_REVB
1542:.\Generated_Source\PSoC5/ultrasonic_uart.c **** 
1543:.\Generated_Source\PSoC5/ultrasonic_uart.c ****                     #if(ultrasonic_uart_TXCLKGEN_DP)
1544:.\Generated_Source\PSoC5/ultrasonic_uart.c ****                         tx_period = ultrasonic_uart_TXBITCLKTX_COMPLETE_REG;
 1250              		.loc 1 1544 0
 1251 0024 46F23443 		movw	r3, #:lower16:1073767476
 1252 0028 C4F20003 		movt	r3, #:upper16:1073767476
 1253 002c 1B78     		ldrb	r3, [r3, #0]
 1254 002e DAB2     		uxtb	r2, r3
 1255 0030 40F20003 		movw	r3, #:lower16:tx_period.2262
 1256 0034 C0F20003 		movt	r3, #:upper16:tx_period.2262
 1257 0038 1A70     		strb	r2, [r3, #0]
1545:.\Generated_Source\PSoC5/ultrasonic_uart.c ****                         ultrasonic_uart_TXBITCLKTX_COMPLETE_REG = ultrasonic_uart_TXBITCTR_BREAKBIT
 1258              		.loc 1 1545 0
 1259 003a 46F23443 		movw	r3, #:lower16:1073767476
 1260 003e C4F20003 		movt	r3, #:upper16:1073767476
 1261 0042 4FF06702 		mov	r2, #103
 1262 0046 1A70     		strb	r2, [r3, #0]
1546:.\Generated_Source\PSoC5/ultrasonic_uart.c ****                     #else
1547:.\Generated_Source\PSoC5/ultrasonic_uart.c ****                         tx_period = ultrasonic_uart_TXBITCTR_PERIOD_REG;
1548:.\Generated_Source\PSoC5/ultrasonic_uart.c ****                         ultrasonic_uart_TXBITCTR_PERIOD_REG = ultrasonic_uart_TXBITCTR_BREAKBITS8X;
1549:.\Generated_Source\PSoC5/ultrasonic_uart.c ****                     #endif /* End ultrasonic_uart_TXCLKGEN_DP */
1550:.\Generated_Source\PSoC5/ultrasonic_uart.c **** 
1551:.\Generated_Source\PSoC5/ultrasonic_uart.c ****                     /* Send zeros*/
1552:.\Generated_Source\PSoC5/ultrasonic_uart.c ****                     ultrasonic_uart_TXDATA_REG = 0u;
 1263              		.loc 1 1552 0
 1264 0048 46F24543 		movw	r3, #:lower16:1073767493
 1265 004c C4F20003 		movt	r3, #:upper16:1073767493
 1266 0050 4FF00002 		mov	r2, #0
 1267 0054 1A70     		strb	r2, [r3, #0]
 1268              	.L70:
1553:.\Generated_Source\PSoC5/ultrasonic_uart.c **** 
1554:.\Generated_Source\PSoC5/ultrasonic_uart.c ****                     do /* wait until transmit starts */
1555:.\Generated_Source\PSoC5/ultrasonic_uart.c ****                     {
1556:.\Generated_Source\PSoC5/ultrasonic_uart.c ****                         tmpStat = ultrasonic_uart_TXSTATUS_REG;
 1269              		.loc 1 1556 0
 1270 0056 46F26243 		movw	r3, #:lower16:1073767522
 1271 005a C4F20003 		movt	r3, #:upper16:1073767522
 1272 005e 1B78     		ldrb	r3, [r3, #0]
 1273 0060 FB73     		strb	r3, [r7, #15]
1557:.\Generated_Source\PSoC5/ultrasonic_uart.c ****                     }while((tmpStat & ultrasonic_uart_TX_STS_FIFO_EMPTY) != 0u);
 1274              		.loc 1 1557 0
 1275 0062 FB7B     		ldrb	r3, [r7, #15]	@ zero_extendqisi2
 1276 0064 03F00203 		and	r3, r3, #2
 1277 0068 002B     		cmp	r3, #0
 1278 006a F4D1     		bne	.L70
 1279              	.L69:
1558:.\Generated_Source\PSoC5/ultrasonic_uart.c ****                 }
1559:.\Generated_Source\PSoC5/ultrasonic_uart.c **** 
1560:.\Generated_Source\PSoC5/ultrasonic_uart.c ****                 if( (retMode == ultrasonic_uart_WAIT_FOR_COMPLETE_REINIT) ||
 1280              		.loc 1 1560 0
 1281 006c FB79     		ldrb	r3, [r7, #7]	@ zero_extendqisi2
 1282 006e 012B     		cmp	r3, #1
 1283 0070 02D0     		beq	.L71
 1284 0072 FB79     		ldrb	r3, [r7, #7]	@ zero_extendqisi2
 1285 0074 032B     		cmp	r3, #3
 1286 0076 11D1     		bne	.L72
ARM GAS  C:\Users\karunmj\AppData\Local\Temp\cc5pDfok.s 			page 51


 1287              	.L71:
1561:.\Generated_Source\PSoC5/ultrasonic_uart.c ****                     (retMode == ultrasonic_uart_SEND_WAIT_REINIT) )
1562:.\Generated_Source\PSoC5/ultrasonic_uart.c ****                 {
1563:.\Generated_Source\PSoC5/ultrasonic_uart.c ****                     do /*wait until transmit complete*/
1564:.\Generated_Source\PSoC5/ultrasonic_uart.c ****                     {
1565:.\Generated_Source\PSoC5/ultrasonic_uart.c ****                         tmpStat = ultrasonic_uart_TXSTATUS_REG;
 1288              		.loc 1 1565 0
 1289 0078 46F26243 		movw	r3, #:lower16:1073767522
 1290 007c C4F20003 		movt	r3, #:upper16:1073767522
 1291 0080 1B78     		ldrb	r3, [r3, #0]
 1292 0082 FB73     		strb	r3, [r7, #15]
1566:.\Generated_Source\PSoC5/ultrasonic_uart.c ****                     }while(((uint8)~tmpStat & ultrasonic_uart_TX_STS_COMPLETE) != 0u);
 1293              		.loc 1 1566 0
 1294 0084 FB7B     		ldrb	r3, [r7, #15]	@ zero_extendqisi2
 1295 0086 03F00103 		and	r3, r3, #1
 1296 008a 002B     		cmp	r3, #0
 1297 008c 02D1     		bne	.L73
 1298 008e 4FF00103 		mov	r3, #1
 1299 0092 01E0     		b	.L74
 1300              	.L73:
 1301 0094 4FF00003 		mov	r3, #0
 1302              	.L74:
 1303 0098 002B     		cmp	r3, #0
 1304 009a EDD1     		bne	.L71
 1305              	.L72:
1567:.\Generated_Source\PSoC5/ultrasonic_uart.c ****                 }
1568:.\Generated_Source\PSoC5/ultrasonic_uart.c **** 
1569:.\Generated_Source\PSoC5/ultrasonic_uart.c ****                 if( (retMode == ultrasonic_uart_WAIT_FOR_COMPLETE_REINIT) ||
 1306              		.loc 1 1569 0
 1307 009c FB79     		ldrb	r3, [r7, #7]	@ zero_extendqisi2
 1308 009e 012B     		cmp	r3, #1
 1309 00a0 05D0     		beq	.L75
 1310 00a2 FB79     		ldrb	r3, [r7, #7]	@ zero_extendqisi2
 1311 00a4 022B     		cmp	r3, #2
 1312 00a6 02D0     		beq	.L75
 1313 00a8 FB79     		ldrb	r3, [r7, #7]	@ zero_extendqisi2
 1314 00aa 032B     		cmp	r3, #3
 1315 00ac 09D1     		bne	.L76
 1316              	.L75:
1570:.\Generated_Source\PSoC5/ultrasonic_uart.c ****                     (retMode == ultrasonic_uart_REINIT) ||
1571:.\Generated_Source\PSoC5/ultrasonic_uart.c ****                     (retMode == ultrasonic_uart_SEND_WAIT_REINIT) )
1572:.\Generated_Source\PSoC5/ultrasonic_uart.c ****                 {
1573:.\Generated_Source\PSoC5/ultrasonic_uart.c **** 
1574:.\Generated_Source\PSoC5/ultrasonic_uart.c ****                     #if(ultrasonic_uart_TXCLKGEN_DP)
1575:.\Generated_Source\PSoC5/ultrasonic_uart.c ****                         ultrasonic_uart_TXBITCLKTX_COMPLETE_REG = tx_period;
 1317              		.loc 1 1575 0
 1318 00ae 46F23443 		movw	r3, #:lower16:1073767476
 1319 00b2 C4F20003 		movt	r3, #:upper16:1073767476
 1320 00b6 40F20002 		movw	r2, #:lower16:tx_period.2262
 1321 00ba C0F20002 		movt	r2, #:upper16:tx_period.2262
 1322 00be 1278     		ldrb	r2, [r2, #0]	@ zero_extendqisi2
 1323 00c0 1A70     		strb	r2, [r3, #0]
 1324              	.L76:
 1325              	.LBE2:
1576:.\Generated_Source\PSoC5/ultrasonic_uart.c ****                     #else
1577:.\Generated_Source\PSoC5/ultrasonic_uart.c ****                         ultrasonic_uart_TXBITCTR_PERIOD_REG = tx_period;
1578:.\Generated_Source\PSoC5/ultrasonic_uart.c ****                     #endif /* End ultrasonic_uart_TXCLKGEN_DP */
ARM GAS  C:\Users\karunmj\AppData\Local\Temp\cc5pDfok.s 			page 52


1579:.\Generated_Source\PSoC5/ultrasonic_uart.c **** 
1580:.\Generated_Source\PSoC5/ultrasonic_uart.c ****                     #if( (ultrasonic_uart_PARITY_TYPE != ultrasonic_uart__B_UART__NONE_REVB) || \
1581:.\Generated_Source\PSoC5/ultrasonic_uart.c ****                          (ultrasonic_uart_PARITY_TYPE_SW != 0u) )
1582:.\Generated_Source\PSoC5/ultrasonic_uart.c ****                         ultrasonic_uart_WriteControlRegister(ultrasonic_uart_ReadControlRegister() 
1583:.\Generated_Source\PSoC5/ultrasonic_uart.c ****                                                       (uint8)~ultrasonic_uart_CTRL_HD_SEND_BREAK);
1584:.\Generated_Source\PSoC5/ultrasonic_uart.c ****                     #endif /* End ultrasonic_uart_PARITY_TYPE != NONE */
1585:.\Generated_Source\PSoC5/ultrasonic_uart.c ****                 }
1586:.\Generated_Source\PSoC5/ultrasonic_uart.c ****             #endif    /* End ultrasonic_uart_HD_ENABLED */
1587:.\Generated_Source\PSoC5/ultrasonic_uart.c ****         }
1588:.\Generated_Source\PSoC5/ultrasonic_uart.c ****     }
 1326              		.loc 1 1588 0
 1327 00c2 07F11407 		add	r7, r7, #20
 1328 00c6 BD46     		mov	sp, r7
 1329 00c8 80BC     		pop	{r7}
 1330 00ca 7047     		bx	lr
 1331              		.cfi_endproc
 1332              	.LFE25:
 1333              		.size	ultrasonic_uart_SendBreak, .-ultrasonic_uart_SendBreak
 1334              		.section	.text.ultrasonic_uart_SetTxAddressMode,"ax",%progbits
 1335              		.align	2
 1336              		.global	ultrasonic_uart_SetTxAddressMode
 1337              		.thumb
 1338              		.thumb_func
 1339              		.type	ultrasonic_uart_SetTxAddressMode, %function
 1340              	ultrasonic_uart_SetTxAddressMode:
 1341              	.LFB26:
1589:.\Generated_Source\PSoC5/ultrasonic_uart.c **** 
1590:.\Generated_Source\PSoC5/ultrasonic_uart.c **** 
1591:.\Generated_Source\PSoC5/ultrasonic_uart.c ****     /*******************************************************************************
1592:.\Generated_Source\PSoC5/ultrasonic_uart.c ****     * Function Name: ultrasonic_uart_SetTxAddressMode
1593:.\Generated_Source\PSoC5/ultrasonic_uart.c ****     ********************************************************************************
1594:.\Generated_Source\PSoC5/ultrasonic_uart.c ****     *
1595:.\Generated_Source\PSoC5/ultrasonic_uart.c ****     * Summary:
1596:.\Generated_Source\PSoC5/ultrasonic_uart.c ****     *  Set the transmit addressing mode
1597:.\Generated_Source\PSoC5/ultrasonic_uart.c ****     *
1598:.\Generated_Source\PSoC5/ultrasonic_uart.c ****     * Parameters:
1599:.\Generated_Source\PSoC5/ultrasonic_uart.c ****     *  addressMode: 0 -> Space
1600:.\Generated_Source\PSoC5/ultrasonic_uart.c ****     *               1 -> Mark
1601:.\Generated_Source\PSoC5/ultrasonic_uart.c ****     *
1602:.\Generated_Source\PSoC5/ultrasonic_uart.c ****     * Return:
1603:.\Generated_Source\PSoC5/ultrasonic_uart.c ****     *  None.
1604:.\Generated_Source\PSoC5/ultrasonic_uart.c ****     *
1605:.\Generated_Source\PSoC5/ultrasonic_uart.c ****     *******************************************************************************/
1606:.\Generated_Source\PSoC5/ultrasonic_uart.c ****     void ultrasonic_uart_SetTxAddressMode(uint8 addressMode) 
1607:.\Generated_Source\PSoC5/ultrasonic_uart.c ****     {
 1342              		.loc 1 1607 0
 1343              		.cfi_startproc
 1344              		@ args = 0, pretend = 0, frame = 8
 1345              		@ frame_needed = 1, uses_anonymous_args = 0
 1346              		@ link register save eliminated.
 1347 0000 80B4     		push	{r7}
 1348              	.LCFI73:
 1349              		.cfi_def_cfa_offset 4
 1350 0002 83B0     		sub	sp, sp, #12
 1351              	.LCFI74:
 1352              		.cfi_def_cfa_offset 16
 1353 0004 00AF     		add	r7, sp, #0
ARM GAS  C:\Users\karunmj\AppData\Local\Temp\cc5pDfok.s 			page 53


 1354              		.cfi_offset 7, -4
 1355              	.LCFI75:
 1356              		.cfi_def_cfa_register 7
 1357 0006 0346     		mov	r3, r0
 1358 0008 FB71     		strb	r3, [r7, #7]
1608:.\Generated_Source\PSoC5/ultrasonic_uart.c ****         /* Mark/Space sending enable*/
1609:.\Generated_Source\PSoC5/ultrasonic_uart.c ****         if(addressMode != 0u)
1610:.\Generated_Source\PSoC5/ultrasonic_uart.c ****         {
1611:.\Generated_Source\PSoC5/ultrasonic_uart.c ****             #if( ultrasonic_uart_CONTROL_REG_REMOVED == 0u )
1612:.\Generated_Source\PSoC5/ultrasonic_uart.c ****                 ultrasonic_uart_WriteControlRegister(ultrasonic_uart_ReadControlRegister() |
1613:.\Generated_Source\PSoC5/ultrasonic_uart.c ****                                                       ultrasonic_uart_CTRL_MARK);
1614:.\Generated_Source\PSoC5/ultrasonic_uart.c ****             #endif /* End ultrasonic_uart_CONTROL_REG_REMOVED == 0u */
1615:.\Generated_Source\PSoC5/ultrasonic_uart.c ****         }
1616:.\Generated_Source\PSoC5/ultrasonic_uart.c ****         else
1617:.\Generated_Source\PSoC5/ultrasonic_uart.c ****         {
1618:.\Generated_Source\PSoC5/ultrasonic_uart.c ****             #if( ultrasonic_uart_CONTROL_REG_REMOVED == 0u )
1619:.\Generated_Source\PSoC5/ultrasonic_uart.c ****                 ultrasonic_uart_WriteControlRegister(ultrasonic_uart_ReadControlRegister() &
1620:.\Generated_Source\PSoC5/ultrasonic_uart.c ****                                                     (uint8)~ultrasonic_uart_CTRL_MARK);
1621:.\Generated_Source\PSoC5/ultrasonic_uart.c ****             #endif /* End ultrasonic_uart_CONTROL_REG_REMOVED == 0u */
1622:.\Generated_Source\PSoC5/ultrasonic_uart.c ****         }
1623:.\Generated_Source\PSoC5/ultrasonic_uart.c ****     }
 1359              		.loc 1 1623 0
 1360 000a 07F10C07 		add	r7, r7, #12
 1361 000e BD46     		mov	sp, r7
 1362 0010 80BC     		pop	{r7}
 1363 0012 7047     		bx	lr
 1364              		.cfi_endproc
 1365              	.LFE26:
 1366              		.size	ultrasonic_uart_SetTxAddressMode, .-ultrasonic_uart_SetTxAddressMode
 1367              		.bss
 1368              	tx_period.2262:
 1369 0001 00       		.space	1
 1370              		.text
 1371              	.Letext0:
 1372              		.section	.debug_loc,"",%progbits
 1373              	.Ldebug_loc0:
 1374              	.LLST0:
 1375 0000 00000000 		.4byte	.LFB0
 1376 0004 02000000 		.4byte	.LCFI0
 1377 0008 0100     		.2byte	0x1
 1378 000a 5D       		.byte	0x5d
 1379 000b 02000000 		.4byte	.LCFI0
 1380 000f 04000000 		.4byte	.LCFI1
 1381 0013 0200     		.2byte	0x2
 1382 0015 7D       		.byte	0x7d
 1383 0016 08       		.sleb128 8
 1384 0017 04000000 		.4byte	.LCFI1
 1385 001b 2A000000 		.4byte	.LFE0
 1386 001f 0200     		.2byte	0x2
 1387 0021 77       		.byte	0x77
 1388 0022 08       		.sleb128 8
 1389 0023 00000000 		.4byte	0x0
 1390 0027 00000000 		.4byte	0x0
 1391              	.LLST1:
 1392 002b 00000000 		.4byte	.LFB1
 1393 002f 02000000 		.4byte	.LCFI2
 1394 0033 0100     		.2byte	0x1
ARM GAS  C:\Users\karunmj\AppData\Local\Temp\cc5pDfok.s 			page 54


 1395 0035 5D       		.byte	0x5d
 1396 0036 02000000 		.4byte	.LCFI2
 1397 003a 04000000 		.4byte	.LCFI3
 1398 003e 0200     		.2byte	0x2
 1399 0040 7D       		.byte	0x7d
 1400 0041 04       		.sleb128 4
 1401 0042 04000000 		.4byte	.LCFI3
 1402 0046 50000000 		.4byte	.LFE1
 1403 004a 0200     		.2byte	0x2
 1404 004c 77       		.byte	0x77
 1405 004d 04       		.sleb128 4
 1406 004e 00000000 		.4byte	0x0
 1407 0052 00000000 		.4byte	0x0
 1408              	.LLST2:
 1409 0056 00000000 		.4byte	.LFB2
 1410 005a 02000000 		.4byte	.LCFI4
 1411 005e 0100     		.2byte	0x1
 1412 0060 5D       		.byte	0x5d
 1413 0061 02000000 		.4byte	.LCFI4
 1414 0065 04000000 		.4byte	.LCFI5
 1415 0069 0200     		.2byte	0x2
 1416 006b 7D       		.byte	0x7d
 1417 006c 08       		.sleb128 8
 1418 006d 04000000 		.4byte	.LCFI5
 1419 0071 06000000 		.4byte	.LCFI6
 1420 0075 0200     		.2byte	0x2
 1421 0077 7D       		.byte	0x7d
 1422 0078 10       		.sleb128 16
 1423 0079 06000000 		.4byte	.LCFI6
 1424 007d 76000000 		.4byte	.LFE2
 1425 0081 0200     		.2byte	0x2
 1426 0083 77       		.byte	0x77
 1427 0084 10       		.sleb128 16
 1428 0085 00000000 		.4byte	0x0
 1429 0089 00000000 		.4byte	0x0
 1430              	.LLST3:
 1431 008d 00000000 		.4byte	.LFB3
 1432 0091 02000000 		.4byte	.LCFI7
 1433 0095 0100     		.2byte	0x1
 1434 0097 5D       		.byte	0x5d
 1435 0098 02000000 		.4byte	.LCFI7
 1436 009c 04000000 		.4byte	.LCFI8
 1437 00a0 0200     		.2byte	0x2
 1438 00a2 7D       		.byte	0x7d
 1439 00a3 08       		.sleb128 8
 1440 00a4 04000000 		.4byte	.LCFI8
 1441 00a8 06000000 		.4byte	.LCFI9
 1442 00ac 0200     		.2byte	0x2
 1443 00ae 7D       		.byte	0x7d
 1444 00af 10       		.sleb128 16
 1445 00b0 06000000 		.4byte	.LCFI9
 1446 00b4 70000000 		.4byte	.LFE3
 1447 00b8 0200     		.2byte	0x2
 1448 00ba 77       		.byte	0x77
 1449 00bb 10       		.sleb128 16
 1450 00bc 00000000 		.4byte	0x0
 1451 00c0 00000000 		.4byte	0x0
ARM GAS  C:\Users\karunmj\AppData\Local\Temp\cc5pDfok.s 			page 55


 1452              	.LLST4:
 1453 00c4 00000000 		.4byte	.LFB4
 1454 00c8 02000000 		.4byte	.LCFI10
 1455 00cc 0100     		.2byte	0x1
 1456 00ce 5D       		.byte	0x5d
 1457 00cf 02000000 		.4byte	.LCFI10
 1458 00d3 04000000 		.4byte	.LCFI11
 1459 00d7 0200     		.2byte	0x2
 1460 00d9 7D       		.byte	0x7d
 1461 00da 04       		.sleb128 4
 1462 00db 04000000 		.4byte	.LCFI11
 1463 00df 10000000 		.4byte	.LFE4
 1464 00e3 0200     		.2byte	0x2
 1465 00e5 77       		.byte	0x77
 1466 00e6 04       		.sleb128 4
 1467 00e7 00000000 		.4byte	0x0
 1468 00eb 00000000 		.4byte	0x0
 1469              	.LLST5:
 1470 00ef 00000000 		.4byte	.LFB5
 1471 00f3 02000000 		.4byte	.LCFI12
 1472 00f7 0100     		.2byte	0x1
 1473 00f9 5D       		.byte	0x5d
 1474 00fa 02000000 		.4byte	.LCFI12
 1475 00fe 04000000 		.4byte	.LCFI13
 1476 0102 0200     		.2byte	0x2
 1477 0104 7D       		.byte	0x7d
 1478 0105 04       		.sleb128 4
 1479 0106 04000000 		.4byte	.LCFI13
 1480 010a 06000000 		.4byte	.LCFI14
 1481 010e 0200     		.2byte	0x2
 1482 0110 7D       		.byte	0x7d
 1483 0111 10       		.sleb128 16
 1484 0112 06000000 		.4byte	.LCFI14
 1485 0116 14000000 		.4byte	.LFE5
 1486 011a 0200     		.2byte	0x2
 1487 011c 77       		.byte	0x77
 1488 011d 10       		.sleb128 16
 1489 011e 00000000 		.4byte	0x0
 1490 0122 00000000 		.4byte	0x0
 1491              	.LLST6:
 1492 0126 00000000 		.4byte	.LFB6
 1493 012a 02000000 		.4byte	.LCFI15
 1494 012e 0100     		.2byte	0x1
 1495 0130 5D       		.byte	0x5d
 1496 0131 02000000 		.4byte	.LCFI15
 1497 0135 04000000 		.4byte	.LCFI16
 1498 0139 0200     		.2byte	0x2
 1499 013b 7D       		.byte	0x7d
 1500 013c 04       		.sleb128 4
 1501 013d 04000000 		.4byte	.LCFI16
 1502 0141 06000000 		.4byte	.LCFI17
 1503 0145 0200     		.2byte	0x2
 1504 0147 7D       		.byte	0x7d
 1505 0148 10       		.sleb128 16
 1506 0149 06000000 		.4byte	.LCFI17
 1507 014d 20000000 		.4byte	.LFE6
 1508 0151 0200     		.2byte	0x2
ARM GAS  C:\Users\karunmj\AppData\Local\Temp\cc5pDfok.s 			page 56


 1509 0153 77       		.byte	0x77
 1510 0154 10       		.sleb128 16
 1511 0155 00000000 		.4byte	0x0
 1512 0159 00000000 		.4byte	0x0
 1513              	.LLST7:
 1514 015d 00000000 		.4byte	.LFB7
 1515 0161 02000000 		.4byte	.LCFI18
 1516 0165 0100     		.2byte	0x1
 1517 0167 5D       		.byte	0x5d
 1518 0168 02000000 		.4byte	.LCFI18
 1519 016c 04000000 		.4byte	.LCFI19
 1520 0170 0200     		.2byte	0x2
 1521 0172 7D       		.byte	0x7d
 1522 0173 04       		.sleb128 4
 1523 0174 04000000 		.4byte	.LCFI19
 1524 0178 06000000 		.4byte	.LCFI20
 1525 017c 0200     		.2byte	0x2
 1526 017e 7D       		.byte	0x7d
 1527 017f 10       		.sleb128 16
 1528 0180 06000000 		.4byte	.LCFI20
 1529 0184 20000000 		.4byte	.LFE7
 1530 0188 0200     		.2byte	0x2
 1531 018a 77       		.byte	0x77
 1532 018b 10       		.sleb128 16
 1533 018c 00000000 		.4byte	0x0
 1534 0190 00000000 		.4byte	0x0
 1535              	.LLST8:
 1536 0194 00000000 		.4byte	.LFB8
 1537 0198 02000000 		.4byte	.LCFI21
 1538 019c 0100     		.2byte	0x1
 1539 019e 5D       		.byte	0x5d
 1540 019f 02000000 		.4byte	.LCFI21
 1541 01a3 04000000 		.4byte	.LCFI22
 1542 01a7 0200     		.2byte	0x2
 1543 01a9 7D       		.byte	0x7d
 1544 01aa 04       		.sleb128 4
 1545 01ab 04000000 		.4byte	.LCFI22
 1546 01af 06000000 		.4byte	.LCFI23
 1547 01b3 0200     		.2byte	0x2
 1548 01b5 7D       		.byte	0x7d
 1549 01b6 10       		.sleb128 16
 1550 01b7 06000000 		.4byte	.LCFI23
 1551 01bb 26000000 		.4byte	.LFE8
 1552 01bf 0200     		.2byte	0x2
 1553 01c1 77       		.byte	0x77
 1554 01c2 10       		.sleb128 16
 1555 01c3 00000000 		.4byte	0x0
 1556 01c7 00000000 		.4byte	0x0
 1557              	.LLST9:
 1558 01cb 00000000 		.4byte	.LFB9
 1559 01cf 02000000 		.4byte	.LCFI24
 1560 01d3 0100     		.2byte	0x1
 1561 01d5 5D       		.byte	0x5d
 1562 01d6 02000000 		.4byte	.LCFI24
 1563 01da 04000000 		.4byte	.LCFI25
 1564 01de 0200     		.2byte	0x2
 1565 01e0 7D       		.byte	0x7d
ARM GAS  C:\Users\karunmj\AppData\Local\Temp\cc5pDfok.s 			page 57


 1566 01e1 04       		.sleb128 4
 1567 01e2 04000000 		.4byte	.LCFI25
 1568 01e6 06000000 		.4byte	.LCFI26
 1569 01ea 0200     		.2byte	0x2
 1570 01ec 7D       		.byte	0x7d
 1571 01ed 10       		.sleb128 16
 1572 01ee 06000000 		.4byte	.LCFI26
 1573 01f2 4C000000 		.4byte	.LFE9
 1574 01f6 0200     		.2byte	0x2
 1575 01f8 77       		.byte	0x77
 1576 01f9 10       		.sleb128 16
 1577 01fa 00000000 		.4byte	0x0
 1578 01fe 00000000 		.4byte	0x0
 1579              	.LLST10:
 1580 0202 00000000 		.4byte	.LFB10
 1581 0206 02000000 		.4byte	.LCFI27
 1582 020a 0100     		.2byte	0x1
 1583 020c 5D       		.byte	0x5d
 1584 020d 02000000 		.4byte	.LCFI27
 1585 0211 04000000 		.4byte	.LCFI28
 1586 0215 0200     		.2byte	0x2
 1587 0217 7D       		.byte	0x7d
 1588 0218 10       		.sleb128 16
 1589 0219 04000000 		.4byte	.LCFI28
 1590 021d 24000000 		.4byte	.LFE10
 1591 0221 0200     		.2byte	0x2
 1592 0223 77       		.byte	0x77
 1593 0224 10       		.sleb128 16
 1594 0225 00000000 		.4byte	0x0
 1595 0229 00000000 		.4byte	0x0
 1596              	.LLST11:
 1597 022d 00000000 		.4byte	.LFB11
 1598 0231 02000000 		.4byte	.LCFI29
 1599 0235 0100     		.2byte	0x1
 1600 0237 5D       		.byte	0x5d
 1601 0238 02000000 		.4byte	.LCFI29
 1602 023c 04000000 		.4byte	.LCFI30
 1603 0240 0200     		.2byte	0x2
 1604 0242 7D       		.byte	0x7d
 1605 0243 04       		.sleb128 4
 1606 0244 04000000 		.4byte	.LCFI30
 1607 0248 06000000 		.4byte	.LCFI31
 1608 024c 0200     		.2byte	0x2
 1609 024e 7D       		.byte	0x7d
 1610 024f 10       		.sleb128 16
 1611 0250 06000000 		.4byte	.LCFI31
 1612 0254 34000000 		.4byte	.LFE11
 1613 0258 0200     		.2byte	0x2
 1614 025a 77       		.byte	0x77
 1615 025b 10       		.sleb128 16
 1616 025c 00000000 		.4byte	0x0
 1617 0260 00000000 		.4byte	0x0
 1618              	.LLST12:
 1619 0264 00000000 		.4byte	.LFB12
 1620 0268 02000000 		.4byte	.LCFI32
 1621 026c 0100     		.2byte	0x1
 1622 026e 5D       		.byte	0x5d
ARM GAS  C:\Users\karunmj\AppData\Local\Temp\cc5pDfok.s 			page 58


 1623 026f 02000000 		.4byte	.LCFI32
 1624 0273 04000000 		.4byte	.LCFI33
 1625 0277 0200     		.2byte	0x2
 1626 0279 7D       		.byte	0x7d
 1627 027a 08       		.sleb128 8
 1628 027b 04000000 		.4byte	.LCFI33
 1629 027f 06000000 		.4byte	.LCFI34
 1630 0283 0200     		.2byte	0x2
 1631 0285 7D       		.byte	0x7d
 1632 0286 10       		.sleb128 16
 1633 0287 06000000 		.4byte	.LCFI34
 1634 028b 54000000 		.4byte	.LFE12
 1635 028f 0200     		.2byte	0x2
 1636 0291 77       		.byte	0x77
 1637 0292 10       		.sleb128 16
 1638 0293 00000000 		.4byte	0x0
 1639 0297 00000000 		.4byte	0x0
 1640              	.LLST13:
 1641 029b 00000000 		.4byte	.LFB13
 1642 029f 02000000 		.4byte	.LCFI35
 1643 02a3 0100     		.2byte	0x1
 1644 02a5 5D       		.byte	0x5d
 1645 02a6 02000000 		.4byte	.LCFI35
 1646 02aa 04000000 		.4byte	.LCFI36
 1647 02ae 0200     		.2byte	0x2
 1648 02b0 7D       		.byte	0x7d
 1649 02b1 04       		.sleb128 4
 1650 02b2 04000000 		.4byte	.LCFI36
 1651 02b6 06000000 		.4byte	.LCFI37
 1652 02ba 0200     		.2byte	0x2
 1653 02bc 7D       		.byte	0x7d
 1654 02bd 10       		.sleb128 16
 1655 02be 06000000 		.4byte	.LCFI37
 1656 02c2 14000000 		.4byte	.LFE13
 1657 02c6 0200     		.2byte	0x2
 1658 02c8 77       		.byte	0x77
 1659 02c9 10       		.sleb128 16
 1660 02ca 00000000 		.4byte	0x0
 1661 02ce 00000000 		.4byte	0x0
 1662              	.LLST14:
 1663 02d2 00000000 		.4byte	.LFB14
 1664 02d6 02000000 		.4byte	.LCFI38
 1665 02da 0100     		.2byte	0x1
 1666 02dc 5D       		.byte	0x5d
 1667 02dd 02000000 		.4byte	.LCFI38
 1668 02e1 04000000 		.4byte	.LCFI39
 1669 02e5 0200     		.2byte	0x2
 1670 02e7 7D       		.byte	0x7d
 1671 02e8 04       		.sleb128 4
 1672 02e9 04000000 		.4byte	.LCFI39
 1673 02ed 06000000 		.4byte	.LCFI40
 1674 02f1 0200     		.2byte	0x2
 1675 02f3 7D       		.byte	0x7d
 1676 02f4 10       		.sleb128 16
 1677 02f5 06000000 		.4byte	.LCFI40
 1678 02f9 20000000 		.4byte	.LFE14
 1679 02fd 0200     		.2byte	0x2
ARM GAS  C:\Users\karunmj\AppData\Local\Temp\cc5pDfok.s 			page 59


 1680 02ff 77       		.byte	0x77
 1681 0300 10       		.sleb128 16
 1682 0301 00000000 		.4byte	0x0
 1683 0305 00000000 		.4byte	0x0
 1684              	.LLST15:
 1685 0309 00000000 		.4byte	.LFB15
 1686 030d 02000000 		.4byte	.LCFI41
 1687 0311 0100     		.2byte	0x1
 1688 0313 5D       		.byte	0x5d
 1689 0314 02000000 		.4byte	.LCFI41
 1690 0318 04000000 		.4byte	.LCFI42
 1691 031c 0200     		.2byte	0x2
 1692 031e 7D       		.byte	0x7d
 1693 031f 04       		.sleb128 4
 1694 0320 04000000 		.4byte	.LCFI42
 1695 0324 06000000 		.4byte	.LCFI43
 1696 0328 0200     		.2byte	0x2
 1697 032a 7D       		.byte	0x7d
 1698 032b 10       		.sleb128 16
 1699 032c 06000000 		.4byte	.LCFI43
 1700 0330 20000000 		.4byte	.LFE15
 1701 0334 0200     		.2byte	0x2
 1702 0336 77       		.byte	0x77
 1703 0337 10       		.sleb128 16
 1704 0338 00000000 		.4byte	0x0
 1705 033c 00000000 		.4byte	0x0
 1706              	.LLST16:
 1707 0340 00000000 		.4byte	.LFB16
 1708 0344 02000000 		.4byte	.LCFI44
 1709 0348 0100     		.2byte	0x1
 1710 034a 5D       		.byte	0x5d
 1711 034b 02000000 		.4byte	.LCFI44
 1712 034f 04000000 		.4byte	.LCFI45
 1713 0353 0200     		.2byte	0x2
 1714 0355 7D       		.byte	0x7d
 1715 0356 04       		.sleb128 4
 1716 0357 04000000 		.4byte	.LCFI45
 1717 035b 06000000 		.4byte	.LCFI46
 1718 035f 0200     		.2byte	0x2
 1719 0361 7D       		.byte	0x7d
 1720 0362 10       		.sleb128 16
 1721 0363 06000000 		.4byte	.LCFI46
 1722 0367 20000000 		.4byte	.LFE16
 1723 036b 0200     		.2byte	0x2
 1724 036d 77       		.byte	0x77
 1725 036e 10       		.sleb128 16
 1726 036f 00000000 		.4byte	0x0
 1727 0373 00000000 		.4byte	0x0
 1728              	.LLST17:
 1729 0377 00000000 		.4byte	.LFB17
 1730 037b 02000000 		.4byte	.LCFI47
 1731 037f 0100     		.2byte	0x1
 1732 0381 5D       		.byte	0x5d
 1733 0382 02000000 		.4byte	.LCFI47
 1734 0386 04000000 		.4byte	.LCFI48
 1735 038a 0200     		.2byte	0x2
 1736 038c 7D       		.byte	0x7d
ARM GAS  C:\Users\karunmj\AppData\Local\Temp\cc5pDfok.s 			page 60


 1737 038d 04       		.sleb128 4
 1738 038e 04000000 		.4byte	.LCFI48
 1739 0392 06000000 		.4byte	.LCFI49
 1740 0396 0200     		.2byte	0x2
 1741 0398 7D       		.byte	0x7d
 1742 0399 10       		.sleb128 16
 1743 039a 06000000 		.4byte	.LCFI49
 1744 039e 2E000000 		.4byte	.LFE17
 1745 03a2 0200     		.2byte	0x2
 1746 03a4 77       		.byte	0x77
 1747 03a5 10       		.sleb128 16
 1748 03a6 00000000 		.4byte	0x0
 1749 03aa 00000000 		.4byte	0x0
 1750              	.LLST18:
 1751 03ae 00000000 		.4byte	.LFB18
 1752 03b2 02000000 		.4byte	.LCFI50
 1753 03b6 0100     		.2byte	0x1
 1754 03b8 5D       		.byte	0x5d
 1755 03b9 02000000 		.4byte	.LCFI50
 1756 03bd 04000000 		.4byte	.LCFI51
 1757 03c1 0200     		.2byte	0x2
 1758 03c3 7D       		.byte	0x7d
 1759 03c4 04       		.sleb128 4
 1760 03c5 04000000 		.4byte	.LCFI51
 1761 03c9 18000000 		.4byte	.LFE18
 1762 03cd 0200     		.2byte	0x2
 1763 03cf 77       		.byte	0x77
 1764 03d0 04       		.sleb128 4
 1765 03d1 00000000 		.4byte	0x0
 1766 03d5 00000000 		.4byte	0x0
 1767              	.LLST19:
 1768 03d9 00000000 		.4byte	.LFB19
 1769 03dd 02000000 		.4byte	.LCFI52
 1770 03e1 0100     		.2byte	0x1
 1771 03e3 5D       		.byte	0x5d
 1772 03e4 02000000 		.4byte	.LCFI52
 1773 03e8 04000000 		.4byte	.LCFI53
 1774 03ec 0200     		.2byte	0x2
 1775 03ee 7D       		.byte	0x7d
 1776 03ef 04       		.sleb128 4
 1777 03f0 04000000 		.4byte	.LCFI53
 1778 03f4 06000000 		.4byte	.LCFI54
 1779 03f8 0200     		.2byte	0x2
 1780 03fa 7D       		.byte	0x7d
 1781 03fb 10       		.sleb128 16
 1782 03fc 06000000 		.4byte	.LCFI54
 1783 0400 34000000 		.4byte	.LFE19
 1784 0404 0200     		.2byte	0x2
 1785 0406 77       		.byte	0x77
 1786 0407 10       		.sleb128 16
 1787 0408 00000000 		.4byte	0x0
 1788 040c 00000000 		.4byte	0x0
 1789              	.LLST20:
 1790 0410 00000000 		.4byte	.LFB20
 1791 0414 02000000 		.4byte	.LCFI55
 1792 0418 0100     		.2byte	0x1
 1793 041a 5D       		.byte	0x5d
ARM GAS  C:\Users\karunmj\AppData\Local\Temp\cc5pDfok.s 			page 61


 1794 041b 02000000 		.4byte	.LCFI55
 1795 041f 04000000 		.4byte	.LCFI56
 1796 0423 0200     		.2byte	0x2
 1797 0425 7D       		.byte	0x7d
 1798 0426 08       		.sleb128 8
 1799 0427 04000000 		.4byte	.LCFI56
 1800 042b 06000000 		.4byte	.LCFI57
 1801 042f 0200     		.2byte	0x2
 1802 0431 7D       		.byte	0x7d
 1803 0432 18       		.sleb128 24
 1804 0433 06000000 		.4byte	.LCFI57
 1805 0437 48000000 		.4byte	.LFE20
 1806 043b 0200     		.2byte	0x2
 1807 043d 77       		.byte	0x77
 1808 043e 18       		.sleb128 24
 1809 043f 00000000 		.4byte	0x0
 1810 0443 00000000 		.4byte	0x0
 1811              	.LLST21:
 1812 0447 00000000 		.4byte	.LFB21
 1813 044b 02000000 		.4byte	.LCFI58
 1814 044f 0100     		.2byte	0x1
 1815 0451 5D       		.byte	0x5d
 1816 0452 02000000 		.4byte	.LCFI58
 1817 0456 04000000 		.4byte	.LCFI59
 1818 045a 0200     		.2byte	0x2
 1819 045c 7D       		.byte	0x7d
 1820 045d 08       		.sleb128 8
 1821 045e 04000000 		.4byte	.LCFI59
 1822 0462 06000000 		.4byte	.LCFI60
 1823 0466 0200     		.2byte	0x2
 1824 0468 7D       		.byte	0x7d
 1825 0469 18       		.sleb128 24
 1826 046a 06000000 		.4byte	.LCFI60
 1827 046e 46000000 		.4byte	.LFE21
 1828 0472 0200     		.2byte	0x2
 1829 0474 77       		.byte	0x77
 1830 0475 18       		.sleb128 24
 1831 0476 00000000 		.4byte	0x0
 1832 047a 00000000 		.4byte	0x0
 1833              	.LLST22:
 1834 047e 00000000 		.4byte	.LFB22
 1835 0482 02000000 		.4byte	.LCFI61
 1836 0486 0100     		.2byte	0x1
 1837 0488 5D       		.byte	0x5d
 1838 0489 02000000 		.4byte	.LCFI61
 1839 048d 04000000 		.4byte	.LCFI62
 1840 0491 0200     		.2byte	0x2
 1841 0493 7D       		.byte	0x7d
 1842 0494 08       		.sleb128 8
 1843 0495 04000000 		.4byte	.LCFI62
 1844 0499 06000000 		.4byte	.LCFI63
 1845 049d 0200     		.2byte	0x2
 1846 049f 7D       		.byte	0x7d
 1847 04a0 10       		.sleb128 16
 1848 04a1 06000000 		.4byte	.LCFI63
 1849 04a5 38000000 		.4byte	.LFE22
 1850 04a9 0200     		.2byte	0x2
ARM GAS  C:\Users\karunmj\AppData\Local\Temp\cc5pDfok.s 			page 62


 1851 04ab 77       		.byte	0x77
 1852 04ac 10       		.sleb128 16
 1853 04ad 00000000 		.4byte	0x0
 1854 04b1 00000000 		.4byte	0x0
 1855              	.LLST23:
 1856 04b5 00000000 		.4byte	.LFB23
 1857 04b9 02000000 		.4byte	.LCFI64
 1858 04bd 0100     		.2byte	0x1
 1859 04bf 5D       		.byte	0x5d
 1860 04c0 02000000 		.4byte	.LCFI64
 1861 04c4 04000000 		.4byte	.LCFI65
 1862 04c8 0200     		.2byte	0x2
 1863 04ca 7D       		.byte	0x7d
 1864 04cb 04       		.sleb128 4
 1865 04cc 04000000 		.4byte	.LCFI65
 1866 04d0 06000000 		.4byte	.LCFI66
 1867 04d4 0200     		.2byte	0x2
 1868 04d6 7D       		.byte	0x7d
 1869 04d7 10       		.sleb128 16
 1870 04d8 06000000 		.4byte	.LCFI66
 1871 04dc 4A000000 		.4byte	.LFE23
 1872 04e0 0200     		.2byte	0x2
 1873 04e2 77       		.byte	0x77
 1874 04e3 10       		.sleb128 16
 1875 04e4 00000000 		.4byte	0x0
 1876 04e8 00000000 		.4byte	0x0
 1877              	.LLST24:
 1878 04ec 00000000 		.4byte	.LFB24
 1879 04f0 02000000 		.4byte	.LCFI67
 1880 04f4 0100     		.2byte	0x1
 1881 04f6 5D       		.byte	0x5d
 1882 04f7 02000000 		.4byte	.LCFI67
 1883 04fb 04000000 		.4byte	.LCFI68
 1884 04ff 0200     		.2byte	0x2
 1885 0501 7D       		.byte	0x7d
 1886 0502 08       		.sleb128 8
 1887 0503 04000000 		.4byte	.LCFI68
 1888 0507 06000000 		.4byte	.LCFI69
 1889 050b 0200     		.2byte	0x2
 1890 050d 7D       		.byte	0x7d
 1891 050e 10       		.sleb128 16
 1892 050f 06000000 		.4byte	.LCFI69
 1893 0513 54000000 		.4byte	.LFE24
 1894 0517 0200     		.2byte	0x2
 1895 0519 77       		.byte	0x77
 1896 051a 10       		.sleb128 16
 1897 051b 00000000 		.4byte	0x0
 1898 051f 00000000 		.4byte	0x0
 1899              	.LLST25:
 1900 0523 00000000 		.4byte	.LFB25
 1901 0527 02000000 		.4byte	.LCFI70
 1902 052b 0100     		.2byte	0x1
 1903 052d 5D       		.byte	0x5d
 1904 052e 02000000 		.4byte	.LCFI70
 1905 0532 04000000 		.4byte	.LCFI71
 1906 0536 0200     		.2byte	0x2
 1907 0538 7D       		.byte	0x7d
ARM GAS  C:\Users\karunmj\AppData\Local\Temp\cc5pDfok.s 			page 63


 1908 0539 04       		.sleb128 4
 1909 053a 04000000 		.4byte	.LCFI71
 1910 053e 06000000 		.4byte	.LCFI72
 1911 0542 0200     		.2byte	0x2
 1912 0544 7D       		.byte	0x7d
 1913 0545 18       		.sleb128 24
 1914 0546 06000000 		.4byte	.LCFI72
 1915 054a CC000000 		.4byte	.LFE25
 1916 054e 0200     		.2byte	0x2
 1917 0550 77       		.byte	0x77
 1918 0551 18       		.sleb128 24
 1919 0552 00000000 		.4byte	0x0
 1920 0556 00000000 		.4byte	0x0
 1921              	.LLST26:
 1922 055a 00000000 		.4byte	.LFB26
 1923 055e 02000000 		.4byte	.LCFI73
 1924 0562 0100     		.2byte	0x1
 1925 0564 5D       		.byte	0x5d
 1926 0565 02000000 		.4byte	.LCFI73
 1927 0569 04000000 		.4byte	.LCFI74
 1928 056d 0200     		.2byte	0x2
 1929 056f 7D       		.byte	0x7d
 1930 0570 04       		.sleb128 4
 1931 0571 04000000 		.4byte	.LCFI74
 1932 0575 06000000 		.4byte	.LCFI75
 1933 0579 0200     		.2byte	0x2
 1934 057b 7D       		.byte	0x7d
 1935 057c 10       		.sleb128 16
 1936 057d 06000000 		.4byte	.LCFI75
 1937 0581 14000000 		.4byte	.LFE26
 1938 0585 0200     		.2byte	0x2
 1939 0587 77       		.byte	0x77
 1940 0588 10       		.sleb128 16
 1941 0589 00000000 		.4byte	0x0
 1942 058d 00000000 		.4byte	0x0
 1943              		.file 2 ".\\Generated_Source\\PSoC5\\/cytypes.h"
 1944              		.section	.debug_info
 1945 0000 58050000 		.4byte	0x558
 1946 0004 0200     		.2byte	0x2
 1947 0006 00000000 		.4byte	.Ldebug_abbrev0
 1948 000a 04       		.byte	0x4
 1949 000b 01       		.uleb128 0x1
 1950 000c 5A010000 		.4byte	.LASF58
 1951 0010 01       		.byte	0x1
 1952 0011 AD030000 		.4byte	.LASF59
 1953 0015 63040000 		.4byte	.LASF60
 1954 0019 00000000 		.4byte	0x0
 1955 001d 00000000 		.4byte	0x0
 1956 0021 00000000 		.4byte	.Ldebug_ranges0+0x0
 1957 0025 00000000 		.4byte	.Ldebug_line0
 1958 0029 02       		.uleb128 0x2
 1959 002a 01       		.byte	0x1
 1960 002b 06       		.byte	0x6
 1961 002c 02040000 		.4byte	.LASF0
 1962 0030 02       		.uleb128 0x2
 1963 0031 01       		.byte	0x1
 1964 0032 08       		.byte	0x8
ARM GAS  C:\Users\karunmj\AppData\Local\Temp\cc5pDfok.s 			page 64


 1965 0033 E0010000 		.4byte	.LASF1
 1966 0037 02       		.uleb128 0x2
 1967 0038 02       		.byte	0x2
 1968 0039 05       		.byte	0x5
 1969 003a 72030000 		.4byte	.LASF2
 1970 003e 02       		.uleb128 0x2
 1971 003f 02       		.byte	0x2
 1972 0040 07       		.byte	0x7
 1973 0041 26040000 		.4byte	.LASF3
 1974 0045 02       		.uleb128 0x2
 1975 0046 04       		.byte	0x4
 1976 0047 05       		.byte	0x5
 1977 0048 D8030000 		.4byte	.LASF4
 1978 004c 02       		.uleb128 0x2
 1979 004d 04       		.byte	0x4
 1980 004e 07       		.byte	0x7
 1981 004f 9D010000 		.4byte	.LASF5
 1982 0053 02       		.uleb128 0x2
 1983 0054 08       		.byte	0x8
 1984 0055 05       		.byte	0x5
 1985 0056 00000000 		.4byte	.LASF6
 1986 005a 02       		.uleb128 0x2
 1987 005b 08       		.byte	0x8
 1988 005c 07       		.byte	0x7
 1989 005d 93020000 		.4byte	.LASF7
 1990 0061 03       		.uleb128 0x3
 1991 0062 04       		.byte	0x4
 1992 0063 05       		.byte	0x5
 1993 0064 696E7400 		.ascii	"int\000"
 1994 0068 02       		.uleb128 0x2
 1995 0069 04       		.byte	0x4
 1996 006a 07       		.byte	0x7
 1997 006b 01010000 		.4byte	.LASF8
 1998 006f 04       		.uleb128 0x4
 1999 0070 AF010000 		.4byte	.LASF9
 2000 0074 02       		.byte	0x2
 2001 0075 4C       		.byte	0x4c
 2002 0076 30000000 		.4byte	0x30
 2003 007a 04       		.uleb128 0x4
 2004 007b 43020000 		.4byte	.LASF10
 2005 007f 02       		.byte	0x2
 2006 0080 4D       		.byte	0x4d
 2007 0081 3E000000 		.4byte	0x3e
 2008 0085 02       		.uleb128 0x2
 2009 0086 04       		.byte	0x4
 2010 0087 04       		.byte	0x4
 2011 0088 6D010000 		.4byte	.LASF11
 2012 008c 02       		.uleb128 0x2
 2013 008d 08       		.byte	0x8
 2014 008e 04       		.byte	0x4
 2015 008f 2C020000 		.4byte	.LASF12
 2016 0093 04       		.uleb128 0x4
 2017 0094 97010000 		.4byte	.LASF13
 2018 0098 02       		.byte	0x2
 2019 0099 5D       		.byte	0x5d
 2020 009a 9E000000 		.4byte	0x9e
 2021 009e 02       		.uleb128 0x2
ARM GAS  C:\Users\karunmj\AppData\Local\Temp\cc5pDfok.s 			page 65


 2022 009f 01       		.byte	0x1
 2023 00a0 08       		.byte	0x8
 2024 00a1 31030000 		.4byte	.LASF14
 2025 00a5 05       		.uleb128 0x5
 2026 00a6 04       		.byte	0x4
 2027 00a7 07       		.byte	0x7
 2028 00a8 06       		.uleb128 0x6
 2029 00a9 01       		.byte	0x1
 2030 00aa C4020000 		.4byte	.LASF15
 2031 00ae 01       		.byte	0x1
 2032 00af 49       		.byte	0x49
 2033 00b0 01       		.byte	0x1
 2034 00b1 00000000 		.4byte	.LFB0
 2035 00b5 2A000000 		.4byte	.LFE0
 2036 00b9 00000000 		.4byte	.LLST0
 2037 00bd 06       		.uleb128 0x6
 2038 00be 01       		.byte	0x1
 2039 00bf 98030000 		.4byte	.LASF16
 2040 00c3 01       		.byte	0x1
 2041 00c4 65       		.byte	0x65
 2042 00c5 01       		.byte	0x1
 2043 00c6 00000000 		.4byte	.LFB1
 2044 00ca 50000000 		.4byte	.LFE1
 2045 00ce 2B000000 		.4byte	.LLST1
 2046 00d2 07       		.uleb128 0x7
 2047 00d3 01       		.byte	0x1
 2048 00d4 E1030000 		.4byte	.LASF17
 2049 00d8 01       		.byte	0x1
 2050 00d9 AE       		.byte	0xae
 2051 00da 01       		.byte	0x1
 2052 00db 00000000 		.4byte	.LFB2
 2053 00df 76000000 		.4byte	.LFE2
 2054 00e3 56000000 		.4byte	.LLST2
 2055 00e7 FA000000 		.4byte	0xfa
 2056 00eb 08       		.uleb128 0x8
 2057 00ec CF010000 		.4byte	.LASF19
 2058 00f0 01       		.byte	0x1
 2059 00f1 B0       		.byte	0xb0
 2060 00f2 6F000000 		.4byte	0x6f
 2061 00f6 02       		.byte	0x2
 2062 00f7 91       		.byte	0x91
 2063 00f8 77       		.sleb128 -9
 2064 00f9 00       		.byte	0x0
 2065 00fa 07       		.uleb128 0x7
 2066 00fb 01       		.byte	0x1
 2067 00fc EC000000 		.4byte	.LASF18
 2068 0100 01       		.byte	0x1
 2069 0101 E3       		.byte	0xe3
 2070 0102 01       		.byte	0x1
 2071 0103 00000000 		.4byte	.LFB3
 2072 0107 70000000 		.4byte	.LFE3
 2073 010b 8D000000 		.4byte	.LLST3
 2074 010f 22010000 		.4byte	0x122
 2075 0113 08       		.uleb128 0x8
 2076 0114 CF010000 		.4byte	.LASF19
 2077 0118 01       		.byte	0x1
 2078 0119 E5       		.byte	0xe5
ARM GAS  C:\Users\karunmj\AppData\Local\Temp\cc5pDfok.s 			page 66


 2079 011a 6F000000 		.4byte	0x6f
 2080 011e 02       		.byte	0x2
 2081 011f 91       		.byte	0x91
 2082 0120 77       		.sleb128 -9
 2083 0121 00       		.byte	0x0
 2084 0122 09       		.uleb128 0x9
 2085 0123 01       		.byte	0x1
 2086 0124 DA020000 		.4byte	.LASF30
 2087 0128 01       		.byte	0x1
 2088 0129 1901     		.2byte	0x119
 2089 012b 01       		.byte	0x1
 2090 012c 6F000000 		.4byte	0x6f
 2091 0130 00000000 		.4byte	.LFB4
 2092 0134 10000000 		.4byte	.LFE4
 2093 0138 C4000000 		.4byte	.LLST4
 2094 013c 0A       		.uleb128 0xa
 2095 013d 01       		.byte	0x1
 2096 013e 3E040000 		.4byte	.LASF20
 2097 0142 01       		.byte	0x1
 2098 0143 3101     		.2byte	0x131
 2099 0145 01       		.byte	0x1
 2100 0146 00000000 		.4byte	.LFB5
 2101 014a 14000000 		.4byte	.LFE5
 2102 014e EF000000 		.4byte	.LLST5
 2103 0152 66010000 		.4byte	0x166
 2104 0156 0B       		.uleb128 0xb
 2105 0157 B5010000 		.4byte	.LASF22
 2106 015b 01       		.byte	0x1
 2107 015c 3101     		.2byte	0x131
 2108 015e 6F000000 		.4byte	0x6f
 2109 0162 02       		.byte	0x2
 2110 0163 91       		.byte	0x91
 2111 0164 77       		.sleb128 -9
 2112 0165 00       		.byte	0x0
 2113 0166 0A       		.uleb128 0xa
 2114 0167 01       		.byte	0x1
 2115 0168 AE040000 		.4byte	.LASF21
 2116 016c 01       		.byte	0x1
 2117 016d 8101     		.2byte	0x181
 2118 016f 01       		.byte	0x1
 2119 0170 00000000 		.4byte	.LFB6
 2120 0174 20000000 		.4byte	.LFE6
 2121 0178 26010000 		.4byte	.LLST6
 2122 017c 90010000 		.4byte	0x190
 2123 0180 0B       		.uleb128 0xb
 2124 0181 33020000 		.4byte	.LASF23
 2125 0185 01       		.byte	0x1
 2126 0186 8101     		.2byte	0x181
 2127 0188 6F000000 		.4byte	0x6f
 2128 018c 02       		.byte	0x2
 2129 018d 91       		.byte	0x91
 2130 018e 77       		.sleb128 -9
 2131 018f 00       		.byte	0x0
 2132 0190 0C       		.uleb128 0xc
 2133 0191 01       		.byte	0x1
 2134 0192 57030000 		.4byte	.LASF25
 2135 0196 01       		.byte	0x1
ARM GAS  C:\Users\karunmj\AppData\Local\Temp\cc5pDfok.s 			page 67


 2136 0197 A201     		.2byte	0x1a2
 2137 0199 01       		.byte	0x1
 2138 019a 6F000000 		.4byte	0x6f
 2139 019e 00000000 		.4byte	.LFB7
 2140 01a2 20000000 		.4byte	.LFE7
 2141 01a6 5D010000 		.4byte	.LLST7
 2142 01aa BE010000 		.4byte	0x1be
 2143 01ae 0D       		.uleb128 0xd
 2144 01af 66010000 		.4byte	.LASF24
 2145 01b3 01       		.byte	0x1
 2146 01b4 A401     		.2byte	0x1a4
 2147 01b6 6F000000 		.4byte	0x6f
 2148 01ba 02       		.byte	0x2
 2149 01bb 91       		.byte	0x91
 2150 01bc 77       		.sleb128 -9
 2151 01bd 00       		.byte	0x0
 2152 01be 0C       		.uleb128 0xc
 2153 01bf 01       		.byte	0x1
 2154 01c0 0F020000 		.4byte	.LASF26
 2155 01c4 01       		.byte	0x1
 2156 01c5 FD01     		.2byte	0x1fd
 2157 01c7 01       		.byte	0x1
 2158 01c8 6F000000 		.4byte	0x6f
 2159 01cc 00000000 		.4byte	.LFB8
 2160 01d0 26000000 		.4byte	.LFE8
 2161 01d4 94010000 		.4byte	.LLST8
 2162 01d8 EC010000 		.4byte	0x1ec
 2163 01dc 0D       		.uleb128 0xd
 2164 01dd 4C010000 		.4byte	.LASF27
 2165 01e1 01       		.byte	0x1
 2166 01e2 FF01     		.2byte	0x1ff
 2167 01e4 6F000000 		.4byte	0x6f
 2168 01e8 02       		.byte	0x2
 2169 01e9 91       		.byte	0x91
 2170 01ea 77       		.sleb128 -9
 2171 01eb 00       		.byte	0x0
 2172 01ec 0C       		.uleb128 0xc
 2173 01ed 01       		.byte	0x1
 2174 01ee 7F010000 		.4byte	.LASF28
 2175 01f2 01       		.byte	0x1
 2176 01f3 2C02     		.2byte	0x22c
 2177 01f5 01       		.byte	0x1
 2178 01f6 6F000000 		.4byte	0x6f
 2179 01fa 00000000 		.4byte	.LFB9
 2180 01fe 4C000000 		.4byte	.LFE9
 2181 0202 CB010000 		.4byte	.LLST9
 2182 0206 29020000 		.4byte	0x229
 2183 020a 0D       		.uleb128 0xd
 2184 020b 66010000 		.4byte	.LASF24
 2185 020f 01       		.byte	0x1
 2186 0210 2E02     		.2byte	0x22e
 2187 0212 6F000000 		.4byte	0x6f
 2188 0216 02       		.byte	0x2
 2189 0217 91       		.byte	0x91
 2190 0218 76       		.sleb128 -10
 2191 0219 0D       		.uleb128 0xd
 2192 021a 3A020000 		.4byte	.LASF29
ARM GAS  C:\Users\karunmj\AppData\Local\Temp\cc5pDfok.s 			page 68


 2193 021e 01       		.byte	0x1
 2194 021f 2F02     		.2byte	0x22f
 2195 0221 6F000000 		.4byte	0x6f
 2196 0225 02       		.byte	0x2
 2197 0226 91       		.byte	0x91
 2198 0227 77       		.sleb128 -9
 2199 0228 00       		.byte	0x0
 2200 0229 09       		.uleb128 0x9
 2201 022a 01       		.byte	0x1
 2202 022b 0E040000 		.4byte	.LASF31
 2203 022f 01       		.byte	0x1
 2204 0230 9202     		.2byte	0x292
 2205 0232 01       		.byte	0x1
 2206 0233 7A000000 		.4byte	0x7a
 2207 0237 00000000 		.4byte	.LFB10
 2208 023b 24000000 		.4byte	.LFE10
 2209 023f 02020000 		.4byte	.LLST10
 2210 0243 0C       		.uleb128 0xc
 2211 0244 01       		.byte	0x1
 2212 0245 CC000000 		.4byte	.LASF32
 2213 0249 01       		.byte	0x1
 2214 024a B302     		.2byte	0x2b3
 2215 024c 01       		.byte	0x1
 2216 024d 6F000000 		.4byte	0x6f
 2217 0251 00000000 		.4byte	.LFB11
 2218 0255 34000000 		.4byte	.LFE11
 2219 0259 2D020000 		.4byte	.LLST11
 2220 025d 71020000 		.4byte	0x271
 2221 0261 0D       		.uleb128 0xd
 2222 0262 39040000 		.4byte	.LASF33
 2223 0266 01       		.byte	0x1
 2224 0267 B602     		.2byte	0x2b6
 2225 0269 6F000000 		.4byte	0x6f
 2226 026d 02       		.byte	0x2
 2227 026e 91       		.byte	0x91
 2228 026f 77       		.sleb128 -9
 2229 0270 00       		.byte	0x0
 2230 0271 0A       		.uleb128 0xa
 2231 0272 01       		.byte	0x1
 2232 0273 2E010000 		.4byte	.LASF34
 2233 0277 01       		.byte	0x1
 2234 0278 0303     		.2byte	0x303
 2235 027a 01       		.byte	0x1
 2236 027b 00000000 		.4byte	.LFB12
 2237 027f 54000000 		.4byte	.LFE12
 2238 0283 64020000 		.4byte	.LLST12
 2239 0287 9B020000 		.4byte	0x29b
 2240 028b 0D       		.uleb128 0xd
 2241 028c CF010000 		.4byte	.LASF19
 2242 0290 01       		.byte	0x1
 2243 0291 0503     		.2byte	0x305
 2244 0293 6F000000 		.4byte	0x6f
 2245 0297 02       		.byte	0x2
 2246 0298 91       		.byte	0x91
 2247 0299 77       		.sleb128 -9
 2248 029a 00       		.byte	0x0
 2249 029b 0A       		.uleb128 0xa
ARM GAS  C:\Users\karunmj\AppData\Local\Temp\cc5pDfok.s 			page 69


 2250 029c 01       		.byte	0x1
 2251 029d 8D000000 		.4byte	.LASF35
 2252 02a1 01       		.byte	0x1
 2253 02a2 4003     		.2byte	0x340
 2254 02a4 01       		.byte	0x1
 2255 02a5 00000000 		.4byte	.LFB13
 2256 02a9 14000000 		.4byte	.LFE13
 2257 02ad 9B020000 		.4byte	.LLST13
 2258 02b1 C5020000 		.4byte	0x2c5
 2259 02b5 0B       		.uleb128 0xb
 2260 02b6 73010000 		.4byte	.LASF36
 2261 02ba 01       		.byte	0x1
 2262 02bb 4003     		.2byte	0x340
 2263 02bd 6F000000 		.4byte	0x6f
 2264 02c1 02       		.byte	0x2
 2265 02c2 91       		.byte	0x91
 2266 02c3 77       		.sleb128 -9
 2267 02c4 00       		.byte	0x0
 2268 02c5 0A       		.uleb128 0xa
 2269 02c6 01       		.byte	0x1
 2270 02c7 AE000000 		.4byte	.LASF37
 2271 02cb 01       		.byte	0x1
 2272 02cc 6503     		.2byte	0x365
 2273 02ce 01       		.byte	0x1
 2274 02cf 00000000 		.4byte	.LFB14
 2275 02d3 20000000 		.4byte	.LFE14
 2276 02d7 D2020000 		.4byte	.LLST14
 2277 02db EF020000 		.4byte	0x2ef
 2278 02df 0B       		.uleb128 0xb
 2279 02e0 8B020000 		.4byte	.LASF38
 2280 02e4 01       		.byte	0x1
 2281 02e5 6503     		.2byte	0x365
 2282 02e7 6F000000 		.4byte	0x6f
 2283 02eb 02       		.byte	0x2
 2284 02ec 91       		.byte	0x91
 2285 02ed 77       		.sleb128 -9
 2286 02ee 00       		.byte	0x0
 2287 02ef 0A       		.uleb128 0xa
 2288 02f0 01       		.byte	0x1
 2289 02f1 FE020000 		.4byte	.LASF39
 2290 02f5 01       		.byte	0x1
 2291 02f6 7A03     		.2byte	0x37a
 2292 02f8 01       		.byte	0x1
 2293 02f9 00000000 		.4byte	.LFB15
 2294 02fd 20000000 		.4byte	.LFE15
 2295 0301 09030000 		.4byte	.LLST15
 2296 0305 19030000 		.4byte	0x319
 2297 0309 0B       		.uleb128 0xb
 2298 030a 8B020000 		.4byte	.LASF38
 2299 030e 01       		.byte	0x1
 2300 030f 7A03     		.2byte	0x37a
 2301 0311 6F000000 		.4byte	0x6f
 2302 0315 02       		.byte	0x2
 2303 0316 91       		.byte	0x91
 2304 0317 77       		.sleb128 -9
 2305 0318 00       		.byte	0x0
 2306 0319 0A       		.uleb128 0xa
ARM GAS  C:\Users\karunmj\AppData\Local\Temp\cc5pDfok.s 			page 70


 2307 031a 01       		.byte	0x1
 2308 031b 4A020000 		.4byte	.LASF40
 2309 031f 01       		.byte	0x1
 2310 0320 C803     		.2byte	0x3c8
 2311 0322 01       		.byte	0x1
 2312 0323 00000000 		.4byte	.LFB16
 2313 0327 20000000 		.4byte	.LFE16
 2314 032b 40030000 		.4byte	.LLST16
 2315 032f 43030000 		.4byte	0x343
 2316 0333 0B       		.uleb128 0xb
 2317 0334 33020000 		.4byte	.LASF23
 2318 0338 01       		.byte	0x1
 2319 0339 C803     		.2byte	0x3c8
 2320 033b 6F000000 		.4byte	0x6f
 2321 033f 02       		.byte	0x2
 2322 0340 91       		.byte	0x91
 2323 0341 77       		.sleb128 -9
 2324 0342 00       		.byte	0x0
 2325 0343 0A       		.uleb128 0xa
 2326 0344 01       		.byte	0x1
 2327 0345 7C030000 		.4byte	.LASF41
 2328 0349 01       		.byte	0x1
 2329 034a EA03     		.2byte	0x3ea
 2330 034c 01       		.byte	0x1
 2331 034d 00000000 		.4byte	.LFB17
 2332 0351 2E000000 		.4byte	.LFE17
 2333 0355 77030000 		.4byte	.LLST17
 2334 0359 6D030000 		.4byte	0x36d
 2335 035d 0B       		.uleb128 0xb
 2336 035e 1C030000 		.4byte	.LASF42
 2337 0362 01       		.byte	0x1
 2338 0363 EA03     		.2byte	0x3ea
 2339 0365 6F000000 		.4byte	0x6f
 2340 0369 02       		.byte	0x2
 2341 036a 91       		.byte	0x91
 2342 036b 77       		.sleb128 -9
 2343 036c 00       		.byte	0x0
 2344 036d 09       		.uleb128 0x9
 2345 036e 01       		.byte	0x1
 2346 036f 70000000 		.4byte	.LASF43
 2347 0373 01       		.byte	0x1
 2348 0374 2E04     		.2byte	0x42e
 2349 0376 01       		.byte	0x1
 2350 0377 6F000000 		.4byte	0x6f
 2351 037b 00000000 		.4byte	.LFB18
 2352 037f 18000000 		.4byte	.LFE18
 2353 0383 AE030000 		.4byte	.LLST18
 2354 0387 0A       		.uleb128 0xa
 2355 0388 01       		.byte	0x1
 2356 0389 58000000 		.4byte	.LASF44
 2357 038d 01       		.byte	0x1
 2358 038e 5204     		.2byte	0x452
 2359 0390 01       		.byte	0x1
 2360 0391 00000000 		.4byte	.LFB19
 2361 0395 34000000 		.4byte	.LFE19
 2362 0399 D9030000 		.4byte	.LLST19
 2363 039d B1030000 		.4byte	0x3b1
ARM GAS  C:\Users\karunmj\AppData\Local\Temp\cc5pDfok.s 			page 71


 2364 03a1 0B       		.uleb128 0xb
 2365 03a2 1C030000 		.4byte	.LASF42
 2366 03a6 01       		.byte	0x1
 2367 03a7 5204     		.2byte	0x452
 2368 03a9 6F000000 		.4byte	0x6f
 2369 03ad 02       		.byte	0x2
 2370 03ae 91       		.byte	0x91
 2371 03af 77       		.sleb128 -9
 2372 03b0 00       		.byte	0x0
 2373 03b1 0A       		.uleb128 0xa
 2374 03b2 01       		.byte	0x1
 2375 03b3 0E000000 		.4byte	.LASF45
 2376 03b7 01       		.byte	0x1
 2377 03b8 AE04     		.2byte	0x4ae
 2378 03ba 01       		.byte	0x1
 2379 03bb 00000000 		.4byte	.LFB20
 2380 03bf 48000000 		.4byte	.LFE20
 2381 03c3 10040000 		.4byte	.LLST20
 2382 03c7 EA030000 		.4byte	0x3ea
 2383 03cb 0B       		.uleb128 0xb
 2384 03cc 53010000 		.4byte	.LASF46
 2385 03d0 01       		.byte	0x1
 2386 03d1 AE04     		.2byte	0x4ae
 2387 03d3 EA030000 		.4byte	0x3ea
 2388 03d7 02       		.byte	0x2
 2389 03d8 91       		.byte	0x91
 2390 03d9 6C       		.sleb128 -20
 2391 03da 0D       		.uleb128 0xd
 2392 03db F8030000 		.4byte	.LASF47
 2393 03df 01       		.byte	0x1
 2394 03e0 B004     		.2byte	0x4b0
 2395 03e2 7A000000 		.4byte	0x7a
 2396 03e6 02       		.byte	0x2
 2397 03e7 91       		.byte	0x91
 2398 03e8 76       		.sleb128 -10
 2399 03e9 00       		.byte	0x0
 2400 03ea 0E       		.uleb128 0xe
 2401 03eb 04       		.byte	0x4
 2402 03ec F0030000 		.4byte	0x3f0
 2403 03f0 0F       		.uleb128 0xf
 2404 03f1 93000000 		.4byte	0x93
 2405 03f5 0A       		.uleb128 0xa
 2406 03f6 01       		.byte	0x1
 2407 03f7 36030000 		.4byte	.LASF48
 2408 03fb 01       		.byte	0x1
 2409 03fc D404     		.2byte	0x4d4
 2410 03fe 01       		.byte	0x1
 2411 03ff 00000000 		.4byte	.LFB21
 2412 0403 46000000 		.4byte	.LFE21
 2413 0407 47040000 		.4byte	.LLST21
 2414 040b 3D040000 		.4byte	0x43d
 2415 040f 0B       		.uleb128 0xb
 2416 0410 53010000 		.4byte	.LASF46
 2417 0414 01       		.byte	0x1
 2418 0415 D404     		.2byte	0x4d4
 2419 0417 3D040000 		.4byte	0x43d
 2420 041b 02       		.byte	0x2
ARM GAS  C:\Users\karunmj\AppData\Local\Temp\cc5pDfok.s 			page 72


 2421 041c 91       		.byte	0x91
 2422 041d 6C       		.sleb128 -20
 2423 041e 0B       		.uleb128 0xb
 2424 041f C5010000 		.4byte	.LASF49
 2425 0423 01       		.byte	0x1
 2426 0424 D404     		.2byte	0x4d4
 2427 0426 6F000000 		.4byte	0x6f
 2428 042a 02       		.byte	0x2
 2429 042b 91       		.byte	0x91
 2430 042c 6B       		.sleb128 -21
 2431 042d 0D       		.uleb128 0xd
 2432 042e F8030000 		.4byte	.LASF47
 2433 0432 01       		.byte	0x1
 2434 0433 D704     		.2byte	0x4d7
 2435 0435 6F000000 		.4byte	0x6f
 2436 0439 02       		.byte	0x2
 2437 043a 91       		.byte	0x91
 2438 043b 77       		.sleb128 -9
 2439 043c 00       		.byte	0x0
 2440 043d 0E       		.uleb128 0xe
 2441 043e 04       		.byte	0x4
 2442 043f 43040000 		.4byte	0x443
 2443 0443 0F       		.uleb128 0xf
 2444 0444 6F000000 		.4byte	0x6f
 2445 0448 0A       		.uleb128 0xa
 2446 0449 01       		.byte	0x1
 2447 044a 40000000 		.4byte	.LASF50
 2448 044e 01       		.byte	0x1
 2449 044f F904     		.2byte	0x4f9
 2450 0451 01       		.byte	0x1
 2451 0452 00000000 		.4byte	.LFB22
 2452 0456 38000000 		.4byte	.LFE22
 2453 045a 7E040000 		.4byte	.LLST22
 2454 045e 72040000 		.4byte	0x472
 2455 0462 0B       		.uleb128 0xb
 2456 0463 1C030000 		.4byte	.LASF42
 2457 0467 01       		.byte	0x1
 2458 0468 F904     		.2byte	0x4f9
 2459 046a 6F000000 		.4byte	0x6f
 2460 046e 02       		.byte	0x2
 2461 046f 91       		.byte	0x91
 2462 0470 77       		.sleb128 -9
 2463 0471 00       		.byte	0x0
 2464 0472 0C       		.uleb128 0xc
 2465 0473 01       		.byte	0x1
 2466 0474 0E010000 		.4byte	.LASF51
 2467 0478 01       		.byte	0x1
 2468 0479 1E05     		.2byte	0x51e
 2469 047b 01       		.byte	0x1
 2470 047c 6F000000 		.4byte	0x6f
 2471 0480 00000000 		.4byte	.LFB23
 2472 0484 4A000000 		.4byte	.LFE23
 2473 0488 B5040000 		.4byte	.LLST23
 2474 048c A0040000 		.4byte	0x4a0
 2475 0490 0D       		.uleb128 0xd
 2476 0491 39040000 		.4byte	.LASF33
 2477 0495 01       		.byte	0x1
ARM GAS  C:\Users\karunmj\AppData\Local\Temp\cc5pDfok.s 			page 73


 2478 0496 2105     		.2byte	0x521
 2479 0498 6F000000 		.4byte	0x6f
 2480 049c 02       		.byte	0x2
 2481 049d 91       		.byte	0x91
 2482 049e 77       		.sleb128 -9
 2483 049f 00       		.byte	0x0
 2484 04a0 0A       		.uleb128 0xa
 2485 04a1 01       		.byte	0x1
 2486 04a2 6D020000 		.4byte	.LASF52
 2487 04a6 01       		.byte	0x1
 2488 04a7 7405     		.2byte	0x574
 2489 04a9 01       		.byte	0x1
 2490 04aa 00000000 		.4byte	.LFB24
 2491 04ae 54000000 		.4byte	.LFE24
 2492 04b2 EC040000 		.4byte	.LLST24
 2493 04b6 CA040000 		.4byte	0x4ca
 2494 04ba 0D       		.uleb128 0xd
 2495 04bb CF010000 		.4byte	.LASF19
 2496 04bf 01       		.byte	0x1
 2497 04c0 7605     		.2byte	0x576
 2498 04c2 6F000000 		.4byte	0x6f
 2499 04c6 02       		.byte	0x2
 2500 04c7 91       		.byte	0x91
 2501 04c8 77       		.sleb128 -9
 2502 04c9 00       		.byte	0x0
 2503 04ca 0A       		.uleb128 0xa
 2504 04cb 01       		.byte	0x1
 2505 04cc AA020000 		.4byte	.LASF53
 2506 04d0 01       		.byte	0x1
 2507 04d1 CD05     		.2byte	0x5cd
 2508 04d3 01       		.byte	0x1
 2509 04d4 00000000 		.4byte	.LFB25
 2510 04d8 CC000000 		.4byte	.LFE25
 2511 04dc 23050000 		.4byte	.LLST25
 2512 04e0 1F050000 		.4byte	0x51f
 2513 04e4 0B       		.uleb128 0xb
 2514 04e5 4F030000 		.4byte	.LASF54
 2515 04e9 01       		.byte	0x1
 2516 04ea CD05     		.2byte	0x5cd
 2517 04ec 6F000000 		.4byte	0x6f
 2518 04f0 02       		.byte	0x2
 2519 04f1 91       		.byte	0x91
 2520 04f2 6F       		.sleb128 -17
 2521 04f3 10       		.uleb128 0x10
 2522 04f4 18000000 		.4byte	.LBB2
 2523 04f8 C2000000 		.4byte	.LBE2
 2524 04fc 0D       		.uleb128 0xd
 2525 04fd BD010000 		.4byte	.LASF55
 2526 0501 01       		.byte	0x1
 2527 0502 D505     		.2byte	0x5d5
 2528 0504 6F000000 		.4byte	0x6f
 2529 0508 02       		.byte	0x2
 2530 0509 91       		.byte	0x91
 2531 050a 77       		.sleb128 -9
 2532 050b 0D       		.uleb128 0xd
 2533 050c 27030000 		.4byte	.LASF56
 2534 0510 01       		.byte	0x1
ARM GAS  C:\Users\karunmj\AppData\Local\Temp\cc5pDfok.s 			page 74


 2535 0511 FB05     		.2byte	0x5fb
 2536 0513 6F000000 		.4byte	0x6f
 2537 0517 05       		.byte	0x5
 2538 0518 03       		.byte	0x3
 2539 0519 01000000 		.4byte	tx_period.2262
 2540 051d 00       		.byte	0x0
 2541 051e 00       		.byte	0x0
 2542 051f 0A       		.uleb128 0xa
 2543 0520 01       		.byte	0x1
 2544 0521 EE010000 		.4byte	.LASF57
 2545 0525 01       		.byte	0x1
 2546 0526 4606     		.2byte	0x646
 2547 0528 01       		.byte	0x1
 2548 0529 00000000 		.4byte	.LFB26
 2549 052d 14000000 		.4byte	.LFE26
 2550 0531 5A050000 		.4byte	.LLST26
 2551 0535 49050000 		.4byte	0x549
 2552 0539 0B       		.uleb128 0xb
 2553 053a 73010000 		.4byte	.LASF36
 2554 053e 01       		.byte	0x1
 2555 053f 4606     		.2byte	0x646
 2556 0541 6F000000 		.4byte	0x6f
 2557 0545 02       		.byte	0x2
 2558 0546 91       		.byte	0x91
 2559 0547 77       		.sleb128 -9
 2560 0548 00       		.byte	0x0
 2561 0549 11       		.uleb128 0x11
 2562 054a 28000000 		.4byte	.LASF61
 2563 054e 01       		.byte	0x1
 2564 054f 1C       		.byte	0x1c
 2565 0550 6F000000 		.4byte	0x6f
 2566 0554 01       		.byte	0x1
 2567 0555 05       		.byte	0x5
 2568 0556 03       		.byte	0x3
 2569 0557 00000000 		.4byte	ultrasonic_uart_initVar
 2570 055b 00       		.byte	0x0
 2571              		.section	.debug_abbrev
 2572 0000 01       		.uleb128 0x1
 2573 0001 11       		.uleb128 0x11
 2574 0002 01       		.byte	0x1
 2575 0003 25       		.uleb128 0x25
 2576 0004 0E       		.uleb128 0xe
 2577 0005 13       		.uleb128 0x13
 2578 0006 0B       		.uleb128 0xb
 2579 0007 03       		.uleb128 0x3
 2580 0008 0E       		.uleb128 0xe
 2581 0009 1B       		.uleb128 0x1b
 2582 000a 0E       		.uleb128 0xe
 2583 000b 11       		.uleb128 0x11
 2584 000c 01       		.uleb128 0x1
 2585 000d 52       		.uleb128 0x52
 2586 000e 01       		.uleb128 0x1
 2587 000f 55       		.uleb128 0x55
 2588 0010 06       		.uleb128 0x6
 2589 0011 10       		.uleb128 0x10
 2590 0012 06       		.uleb128 0x6
 2591 0013 00       		.byte	0x0
ARM GAS  C:\Users\karunmj\AppData\Local\Temp\cc5pDfok.s 			page 75


 2592 0014 00       		.byte	0x0
 2593 0015 02       		.uleb128 0x2
 2594 0016 24       		.uleb128 0x24
 2595 0017 00       		.byte	0x0
 2596 0018 0B       		.uleb128 0xb
 2597 0019 0B       		.uleb128 0xb
 2598 001a 3E       		.uleb128 0x3e
 2599 001b 0B       		.uleb128 0xb
 2600 001c 03       		.uleb128 0x3
 2601 001d 0E       		.uleb128 0xe
 2602 001e 00       		.byte	0x0
 2603 001f 00       		.byte	0x0
 2604 0020 03       		.uleb128 0x3
 2605 0021 24       		.uleb128 0x24
 2606 0022 00       		.byte	0x0
 2607 0023 0B       		.uleb128 0xb
 2608 0024 0B       		.uleb128 0xb
 2609 0025 3E       		.uleb128 0x3e
 2610 0026 0B       		.uleb128 0xb
 2611 0027 03       		.uleb128 0x3
 2612 0028 08       		.uleb128 0x8
 2613 0029 00       		.byte	0x0
 2614 002a 00       		.byte	0x0
 2615 002b 04       		.uleb128 0x4
 2616 002c 16       		.uleb128 0x16
 2617 002d 00       		.byte	0x0
 2618 002e 03       		.uleb128 0x3
 2619 002f 0E       		.uleb128 0xe
 2620 0030 3A       		.uleb128 0x3a
 2621 0031 0B       		.uleb128 0xb
 2622 0032 3B       		.uleb128 0x3b
 2623 0033 0B       		.uleb128 0xb
 2624 0034 49       		.uleb128 0x49
 2625 0035 13       		.uleb128 0x13
 2626 0036 00       		.byte	0x0
 2627 0037 00       		.byte	0x0
 2628 0038 05       		.uleb128 0x5
 2629 0039 24       		.uleb128 0x24
 2630 003a 00       		.byte	0x0
 2631 003b 0B       		.uleb128 0xb
 2632 003c 0B       		.uleb128 0xb
 2633 003d 3E       		.uleb128 0x3e
 2634 003e 0B       		.uleb128 0xb
 2635 003f 00       		.byte	0x0
 2636 0040 00       		.byte	0x0
 2637 0041 06       		.uleb128 0x6
 2638 0042 2E       		.uleb128 0x2e
 2639 0043 00       		.byte	0x0
 2640 0044 3F       		.uleb128 0x3f
 2641 0045 0C       		.uleb128 0xc
 2642 0046 03       		.uleb128 0x3
 2643 0047 0E       		.uleb128 0xe
 2644 0048 3A       		.uleb128 0x3a
 2645 0049 0B       		.uleb128 0xb
 2646 004a 3B       		.uleb128 0x3b
 2647 004b 0B       		.uleb128 0xb
 2648 004c 27       		.uleb128 0x27
ARM GAS  C:\Users\karunmj\AppData\Local\Temp\cc5pDfok.s 			page 76


 2649 004d 0C       		.uleb128 0xc
 2650 004e 11       		.uleb128 0x11
 2651 004f 01       		.uleb128 0x1
 2652 0050 12       		.uleb128 0x12
 2653 0051 01       		.uleb128 0x1
 2654 0052 40       		.uleb128 0x40
 2655 0053 06       		.uleb128 0x6
 2656 0054 00       		.byte	0x0
 2657 0055 00       		.byte	0x0
 2658 0056 07       		.uleb128 0x7
 2659 0057 2E       		.uleb128 0x2e
 2660 0058 01       		.byte	0x1
 2661 0059 3F       		.uleb128 0x3f
 2662 005a 0C       		.uleb128 0xc
 2663 005b 03       		.uleb128 0x3
 2664 005c 0E       		.uleb128 0xe
 2665 005d 3A       		.uleb128 0x3a
 2666 005e 0B       		.uleb128 0xb
 2667 005f 3B       		.uleb128 0x3b
 2668 0060 0B       		.uleb128 0xb
 2669 0061 27       		.uleb128 0x27
 2670 0062 0C       		.uleb128 0xc
 2671 0063 11       		.uleb128 0x11
 2672 0064 01       		.uleb128 0x1
 2673 0065 12       		.uleb128 0x12
 2674 0066 01       		.uleb128 0x1
 2675 0067 40       		.uleb128 0x40
 2676 0068 06       		.uleb128 0x6
 2677 0069 01       		.uleb128 0x1
 2678 006a 13       		.uleb128 0x13
 2679 006b 00       		.byte	0x0
 2680 006c 00       		.byte	0x0
 2681 006d 08       		.uleb128 0x8
 2682 006e 34       		.uleb128 0x34
 2683 006f 00       		.byte	0x0
 2684 0070 03       		.uleb128 0x3
 2685 0071 0E       		.uleb128 0xe
 2686 0072 3A       		.uleb128 0x3a
 2687 0073 0B       		.uleb128 0xb
 2688 0074 3B       		.uleb128 0x3b
 2689 0075 0B       		.uleb128 0xb
 2690 0076 49       		.uleb128 0x49
 2691 0077 13       		.uleb128 0x13
 2692 0078 02       		.uleb128 0x2
 2693 0079 0A       		.uleb128 0xa
 2694 007a 00       		.byte	0x0
 2695 007b 00       		.byte	0x0
 2696 007c 09       		.uleb128 0x9
 2697 007d 2E       		.uleb128 0x2e
 2698 007e 00       		.byte	0x0
 2699 007f 3F       		.uleb128 0x3f
 2700 0080 0C       		.uleb128 0xc
 2701 0081 03       		.uleb128 0x3
 2702 0082 0E       		.uleb128 0xe
 2703 0083 3A       		.uleb128 0x3a
 2704 0084 0B       		.uleb128 0xb
 2705 0085 3B       		.uleb128 0x3b
ARM GAS  C:\Users\karunmj\AppData\Local\Temp\cc5pDfok.s 			page 77


 2706 0086 05       		.uleb128 0x5
 2707 0087 27       		.uleb128 0x27
 2708 0088 0C       		.uleb128 0xc
 2709 0089 49       		.uleb128 0x49
 2710 008a 13       		.uleb128 0x13
 2711 008b 11       		.uleb128 0x11
 2712 008c 01       		.uleb128 0x1
 2713 008d 12       		.uleb128 0x12
 2714 008e 01       		.uleb128 0x1
 2715 008f 40       		.uleb128 0x40
 2716 0090 06       		.uleb128 0x6
 2717 0091 00       		.byte	0x0
 2718 0092 00       		.byte	0x0
 2719 0093 0A       		.uleb128 0xa
 2720 0094 2E       		.uleb128 0x2e
 2721 0095 01       		.byte	0x1
 2722 0096 3F       		.uleb128 0x3f
 2723 0097 0C       		.uleb128 0xc
 2724 0098 03       		.uleb128 0x3
 2725 0099 0E       		.uleb128 0xe
 2726 009a 3A       		.uleb128 0x3a
 2727 009b 0B       		.uleb128 0xb
 2728 009c 3B       		.uleb128 0x3b
 2729 009d 05       		.uleb128 0x5
 2730 009e 27       		.uleb128 0x27
 2731 009f 0C       		.uleb128 0xc
 2732 00a0 11       		.uleb128 0x11
 2733 00a1 01       		.uleb128 0x1
 2734 00a2 12       		.uleb128 0x12
 2735 00a3 01       		.uleb128 0x1
 2736 00a4 40       		.uleb128 0x40
 2737 00a5 06       		.uleb128 0x6
 2738 00a6 01       		.uleb128 0x1
 2739 00a7 13       		.uleb128 0x13
 2740 00a8 00       		.byte	0x0
 2741 00a9 00       		.byte	0x0
 2742 00aa 0B       		.uleb128 0xb
 2743 00ab 05       		.uleb128 0x5
 2744 00ac 00       		.byte	0x0
 2745 00ad 03       		.uleb128 0x3
 2746 00ae 0E       		.uleb128 0xe
 2747 00af 3A       		.uleb128 0x3a
 2748 00b0 0B       		.uleb128 0xb
 2749 00b1 3B       		.uleb128 0x3b
 2750 00b2 05       		.uleb128 0x5
 2751 00b3 49       		.uleb128 0x49
 2752 00b4 13       		.uleb128 0x13
 2753 00b5 02       		.uleb128 0x2
 2754 00b6 0A       		.uleb128 0xa
 2755 00b7 00       		.byte	0x0
 2756 00b8 00       		.byte	0x0
 2757 00b9 0C       		.uleb128 0xc
 2758 00ba 2E       		.uleb128 0x2e
 2759 00bb 01       		.byte	0x1
 2760 00bc 3F       		.uleb128 0x3f
 2761 00bd 0C       		.uleb128 0xc
 2762 00be 03       		.uleb128 0x3
ARM GAS  C:\Users\karunmj\AppData\Local\Temp\cc5pDfok.s 			page 78


 2763 00bf 0E       		.uleb128 0xe
 2764 00c0 3A       		.uleb128 0x3a
 2765 00c1 0B       		.uleb128 0xb
 2766 00c2 3B       		.uleb128 0x3b
 2767 00c3 05       		.uleb128 0x5
 2768 00c4 27       		.uleb128 0x27
 2769 00c5 0C       		.uleb128 0xc
 2770 00c6 49       		.uleb128 0x49
 2771 00c7 13       		.uleb128 0x13
 2772 00c8 11       		.uleb128 0x11
 2773 00c9 01       		.uleb128 0x1
 2774 00ca 12       		.uleb128 0x12
 2775 00cb 01       		.uleb128 0x1
 2776 00cc 40       		.uleb128 0x40
 2777 00cd 06       		.uleb128 0x6
 2778 00ce 01       		.uleb128 0x1
 2779 00cf 13       		.uleb128 0x13
 2780 00d0 00       		.byte	0x0
 2781 00d1 00       		.byte	0x0
 2782 00d2 0D       		.uleb128 0xd
 2783 00d3 34       		.uleb128 0x34
 2784 00d4 00       		.byte	0x0
 2785 00d5 03       		.uleb128 0x3
 2786 00d6 0E       		.uleb128 0xe
 2787 00d7 3A       		.uleb128 0x3a
 2788 00d8 0B       		.uleb128 0xb
 2789 00d9 3B       		.uleb128 0x3b
 2790 00da 05       		.uleb128 0x5
 2791 00db 49       		.uleb128 0x49
 2792 00dc 13       		.uleb128 0x13
 2793 00dd 02       		.uleb128 0x2
 2794 00de 0A       		.uleb128 0xa
 2795 00df 00       		.byte	0x0
 2796 00e0 00       		.byte	0x0
 2797 00e1 0E       		.uleb128 0xe
 2798 00e2 0F       		.uleb128 0xf
 2799 00e3 00       		.byte	0x0
 2800 00e4 0B       		.uleb128 0xb
 2801 00e5 0B       		.uleb128 0xb
 2802 00e6 49       		.uleb128 0x49
 2803 00e7 13       		.uleb128 0x13
 2804 00e8 00       		.byte	0x0
 2805 00e9 00       		.byte	0x0
 2806 00ea 0F       		.uleb128 0xf
 2807 00eb 26       		.uleb128 0x26
 2808 00ec 00       		.byte	0x0
 2809 00ed 49       		.uleb128 0x49
 2810 00ee 13       		.uleb128 0x13
 2811 00ef 00       		.byte	0x0
 2812 00f0 00       		.byte	0x0
 2813 00f1 10       		.uleb128 0x10
 2814 00f2 0B       		.uleb128 0xb
 2815 00f3 01       		.byte	0x1
 2816 00f4 11       		.uleb128 0x11
 2817 00f5 01       		.uleb128 0x1
 2818 00f6 12       		.uleb128 0x12
 2819 00f7 01       		.uleb128 0x1
ARM GAS  C:\Users\karunmj\AppData\Local\Temp\cc5pDfok.s 			page 79


 2820 00f8 00       		.byte	0x0
 2821 00f9 00       		.byte	0x0
 2822 00fa 11       		.uleb128 0x11
 2823 00fb 34       		.uleb128 0x34
 2824 00fc 00       		.byte	0x0
 2825 00fd 03       		.uleb128 0x3
 2826 00fe 0E       		.uleb128 0xe
 2827 00ff 3A       		.uleb128 0x3a
 2828 0100 0B       		.uleb128 0xb
 2829 0101 3B       		.uleb128 0x3b
 2830 0102 0B       		.uleb128 0xb
 2831 0103 49       		.uleb128 0x49
 2832 0104 13       		.uleb128 0x13
 2833 0105 3F       		.uleb128 0x3f
 2834 0106 0C       		.uleb128 0xc
 2835 0107 02       		.uleb128 0x2
 2836 0108 0A       		.uleb128 0xa
 2837 0109 00       		.byte	0x0
 2838 010a 00       		.byte	0x0
 2839 010b 00       		.byte	0x0
 2840              		.section	.debug_pubnames,"",%progbits
 2841 0000 94030000 		.4byte	0x394
 2842 0004 0200     		.2byte	0x2
 2843 0006 00000000 		.4byte	.Ldebug_info0
 2844 000a 5C050000 		.4byte	0x55c
 2845 000e A8000000 		.4byte	0xa8
 2846 0012 756C7472 		.ascii	"ultrasonic_uart_Start\000"
 2846      61736F6E 
 2846      69635F75 
 2846      6172745F 
 2846      53746172 
 2847 0028 BD000000 		.4byte	0xbd
 2848 002c 756C7472 		.ascii	"ultrasonic_uart_Init\000"
 2848      61736F6E 
 2848      69635F75 
 2848      6172745F 
 2848      496E6974 
 2849 0041 D2000000 		.4byte	0xd2
 2850 0045 756C7472 		.ascii	"ultrasonic_uart_Enable\000"
 2850      61736F6E 
 2850      69635F75 
 2850      6172745F 
 2850      456E6162 
 2851 005c FA000000 		.4byte	0xfa
 2852 0060 756C7472 		.ascii	"ultrasonic_uart_Stop\000"
 2852      61736F6E 
 2852      69635F75 
 2852      6172745F 
 2852      53746F70 
 2853 0075 22010000 		.4byte	0x122
 2854 0079 756C7472 		.ascii	"ultrasonic_uart_ReadControlRegister\000"
 2854      61736F6E 
 2854      69635F75 
 2854      6172745F 
 2854      52656164 
 2855 009d 3C010000 		.4byte	0x13c
 2856 00a1 756C7472 		.ascii	"ultrasonic_uart_WriteControlRegister\000"
ARM GAS  C:\Users\karunmj\AppData\Local\Temp\cc5pDfok.s 			page 80


 2856      61736F6E 
 2856      69635F75 
 2856      6172745F 
 2856      57726974 
 2857 00c6 66010000 		.4byte	0x166
 2858 00ca 756C7472 		.ascii	"ultrasonic_uart_SetRxInterruptMode\000"
 2858      61736F6E 
 2858      69635F75 
 2858      6172745F 
 2858      53657452 
 2859 00ed 90010000 		.4byte	0x190
 2860 00f1 756C7472 		.ascii	"ultrasonic_uart_ReadRxData\000"
 2860      61736F6E 
 2860      69635F75 
 2860      6172745F 
 2860      52656164 
 2861 010c BE010000 		.4byte	0x1be
 2862 0110 756C7472 		.ascii	"ultrasonic_uart_ReadRxStatus\000"
 2862      61736F6E 
 2862      69635F75 
 2862      6172745F 
 2862      52656164 
 2863 012d EC010000 		.4byte	0x1ec
 2864 0131 756C7472 		.ascii	"ultrasonic_uart_GetChar\000"
 2864      61736F6E 
 2864      69635F75 
 2864      6172745F 
 2864      47657443 
 2865 0149 29020000 		.4byte	0x229
 2866 014d 756C7472 		.ascii	"ultrasonic_uart_GetByte\000"
 2866      61736F6E 
 2866      69635F75 
 2866      6172745F 
 2866      47657442 
 2867 0165 43020000 		.4byte	0x243
 2868 0169 756C7472 		.ascii	"ultrasonic_uart_GetRxBufferSize\000"
 2868      61736F6E 
 2868      69635F75 
 2868      6172745F 
 2868      47657452 
 2869 0189 71020000 		.4byte	0x271
 2870 018d 756C7472 		.ascii	"ultrasonic_uart_ClearRxBuffer\000"
 2870      61736F6E 
 2870      69635F75 
 2870      6172745F 
 2870      436C6561 
 2871 01ab 9B020000 		.4byte	0x29b
 2872 01af 756C7472 		.ascii	"ultrasonic_uart_SetRxAddressMode\000"
 2872      61736F6E 
 2872      69635F75 
 2872      6172745F 
 2872      53657452 
 2873 01d0 C5020000 		.4byte	0x2c5
 2874 01d4 756C7472 		.ascii	"ultrasonic_uart_SetRxAddress1\000"
 2874      61736F6E 
 2874      69635F75 
 2874      6172745F 
ARM GAS  C:\Users\karunmj\AppData\Local\Temp\cc5pDfok.s 			page 81


 2874      53657452 
 2875 01f2 EF020000 		.4byte	0x2ef
 2876 01f6 756C7472 		.ascii	"ultrasonic_uart_SetRxAddress2\000"
 2876      61736F6E 
 2876      69635F75 
 2876      6172745F 
 2876      53657452 
 2877 0214 19030000 		.4byte	0x319
 2878 0218 756C7472 		.ascii	"ultrasonic_uart_SetTxInterruptMode\000"
 2878      61736F6E 
 2878      69635F75 
 2878      6172745F 
 2878      53657454 
 2879 023b 43030000 		.4byte	0x343
 2880 023f 756C7472 		.ascii	"ultrasonic_uart_WriteTxData\000"
 2880      61736F6E 
 2880      69635F75 
 2880      6172745F 
 2880      57726974 
 2881 025b 6D030000 		.4byte	0x36d
 2882 025f 756C7472 		.ascii	"ultrasonic_uart_ReadTxStatus\000"
 2882      61736F6E 
 2882      69635F75 
 2882      6172745F 
 2882      52656164 
 2883 027c 87030000 		.4byte	0x387
 2884 0280 756C7472 		.ascii	"ultrasonic_uart_PutChar\000"
 2884      61736F6E 
 2884      69635F75 
 2884      6172745F 
 2884      50757443 
 2885 0298 B1030000 		.4byte	0x3b1
 2886 029c 756C7472 		.ascii	"ultrasonic_uart_PutString\000"
 2886      61736F6E 
 2886      69635F75 
 2886      6172745F 
 2886      50757453 
 2887 02b6 F5030000 		.4byte	0x3f5
 2888 02ba 756C7472 		.ascii	"ultrasonic_uart_PutArray\000"
 2888      61736F6E 
 2888      69635F75 
 2888      6172745F 
 2888      50757441 
 2889 02d3 48040000 		.4byte	0x448
 2890 02d7 756C7472 		.ascii	"ultrasonic_uart_PutCRLF\000"
 2890      61736F6E 
 2890      69635F75 
 2890      6172745F 
 2890      50757443 
 2891 02ef 72040000 		.4byte	0x472
 2892 02f3 756C7472 		.ascii	"ultrasonic_uart_GetTxBufferSize\000"
 2892      61736F6E 
 2892      69635F75 
 2892      6172745F 
 2892      47657454 
 2893 0313 A0040000 		.4byte	0x4a0
 2894 0317 756C7472 		.ascii	"ultrasonic_uart_ClearTxBuffer\000"
ARM GAS  C:\Users\karunmj\AppData\Local\Temp\cc5pDfok.s 			page 82


 2894      61736F6E 
 2894      69635F75 
 2894      6172745F 
 2894      436C6561 
 2895 0335 CA040000 		.4byte	0x4ca
 2896 0339 756C7472 		.ascii	"ultrasonic_uart_SendBreak\000"
 2896      61736F6E 
 2896      69635F75 
 2896      6172745F 
 2896      53656E64 
 2897 0353 1F050000 		.4byte	0x51f
 2898 0357 756C7472 		.ascii	"ultrasonic_uart_SetTxAddressMode\000"
 2898      61736F6E 
 2898      69635F75 
 2898      6172745F 
 2898      53657454 
 2899 0378 49050000 		.4byte	0x549
 2900 037c 756C7472 		.ascii	"ultrasonic_uart_initVar\000"
 2900      61736F6E 
 2900      69635F75 
 2900      6172745F 
 2900      696E6974 
 2901 0394 00000000 		.4byte	0x0
 2902              		.section	.debug_aranges,"",%progbits
 2903 0000 EC000000 		.4byte	0xec
 2904 0004 0200     		.2byte	0x2
 2905 0006 00000000 		.4byte	.Ldebug_info0
 2906 000a 04       		.byte	0x4
 2907 000b 00       		.byte	0x0
 2908 000c 0000     		.2byte	0x0
 2909 000e 0000     		.2byte	0x0
 2910 0010 00000000 		.4byte	.LFB0
 2911 0014 2A000000 		.4byte	.LFE0-.LFB0
 2912 0018 00000000 		.4byte	.LFB1
 2913 001c 50000000 		.4byte	.LFE1-.LFB1
 2914 0020 00000000 		.4byte	.LFB2
 2915 0024 76000000 		.4byte	.LFE2-.LFB2
 2916 0028 00000000 		.4byte	.LFB3
 2917 002c 70000000 		.4byte	.LFE3-.LFB3
 2918 0030 00000000 		.4byte	.LFB4
 2919 0034 10000000 		.4byte	.LFE4-.LFB4
 2920 0038 00000000 		.4byte	.LFB5
 2921 003c 14000000 		.4byte	.LFE5-.LFB5
 2922 0040 00000000 		.4byte	.LFB6
 2923 0044 20000000 		.4byte	.LFE6-.LFB6
 2924 0048 00000000 		.4byte	.LFB7
 2925 004c 20000000 		.4byte	.LFE7-.LFB7
 2926 0050 00000000 		.4byte	.LFB8
 2927 0054 26000000 		.4byte	.LFE8-.LFB8
 2928 0058 00000000 		.4byte	.LFB9
 2929 005c 4C000000 		.4byte	.LFE9-.LFB9
 2930 0060 00000000 		.4byte	.LFB10
 2931 0064 24000000 		.4byte	.LFE10-.LFB10
 2932 0068 00000000 		.4byte	.LFB11
 2933 006c 34000000 		.4byte	.LFE11-.LFB11
 2934 0070 00000000 		.4byte	.LFB12
 2935 0074 54000000 		.4byte	.LFE12-.LFB12
ARM GAS  C:\Users\karunmj\AppData\Local\Temp\cc5pDfok.s 			page 83


 2936 0078 00000000 		.4byte	.LFB13
 2937 007c 14000000 		.4byte	.LFE13-.LFB13
 2938 0080 00000000 		.4byte	.LFB14
 2939 0084 20000000 		.4byte	.LFE14-.LFB14
 2940 0088 00000000 		.4byte	.LFB15
 2941 008c 20000000 		.4byte	.LFE15-.LFB15
 2942 0090 00000000 		.4byte	.LFB16
 2943 0094 20000000 		.4byte	.LFE16-.LFB16
 2944 0098 00000000 		.4byte	.LFB17
 2945 009c 2E000000 		.4byte	.LFE17-.LFB17
 2946 00a0 00000000 		.4byte	.LFB18
 2947 00a4 18000000 		.4byte	.LFE18-.LFB18
 2948 00a8 00000000 		.4byte	.LFB19
 2949 00ac 34000000 		.4byte	.LFE19-.LFB19
 2950 00b0 00000000 		.4byte	.LFB20
 2951 00b4 48000000 		.4byte	.LFE20-.LFB20
 2952 00b8 00000000 		.4byte	.LFB21
 2953 00bc 46000000 		.4byte	.LFE21-.LFB21
 2954 00c0 00000000 		.4byte	.LFB22
 2955 00c4 38000000 		.4byte	.LFE22-.LFB22
 2956 00c8 00000000 		.4byte	.LFB23
 2957 00cc 4A000000 		.4byte	.LFE23-.LFB23
 2958 00d0 00000000 		.4byte	.LFB24
 2959 00d4 54000000 		.4byte	.LFE24-.LFB24
 2960 00d8 00000000 		.4byte	.LFB25
 2961 00dc CC000000 		.4byte	.LFE25-.LFB25
 2962 00e0 00000000 		.4byte	.LFB26
 2963 00e4 14000000 		.4byte	.LFE26-.LFB26
 2964 00e8 00000000 		.4byte	0x0
 2965 00ec 00000000 		.4byte	0x0
 2966              		.section	.debug_ranges,"",%progbits
 2967              	.Ldebug_ranges0:
 2968 0000 00000000 		.4byte	.Ltext0
 2969 0004 00000000 		.4byte	.Letext0
 2970 0008 00000000 		.4byte	.LFB0
 2971 000c 2A000000 		.4byte	.LFE0
 2972 0010 00000000 		.4byte	.LFB1
 2973 0014 50000000 		.4byte	.LFE1
 2974 0018 00000000 		.4byte	.LFB2
 2975 001c 76000000 		.4byte	.LFE2
 2976 0020 00000000 		.4byte	.LFB3
 2977 0024 70000000 		.4byte	.LFE3
 2978 0028 00000000 		.4byte	.LFB4
 2979 002c 10000000 		.4byte	.LFE4
 2980 0030 00000000 		.4byte	.LFB5
 2981 0034 14000000 		.4byte	.LFE5
 2982 0038 00000000 		.4byte	.LFB6
 2983 003c 20000000 		.4byte	.LFE6
 2984 0040 00000000 		.4byte	.LFB7
 2985 0044 20000000 		.4byte	.LFE7
 2986 0048 00000000 		.4byte	.LFB8
 2987 004c 26000000 		.4byte	.LFE8
 2988 0050 00000000 		.4byte	.LFB9
 2989 0054 4C000000 		.4byte	.LFE9
 2990 0058 00000000 		.4byte	.LFB10
 2991 005c 24000000 		.4byte	.LFE10
 2992 0060 00000000 		.4byte	.LFB11
ARM GAS  C:\Users\karunmj\AppData\Local\Temp\cc5pDfok.s 			page 84


 2993 0064 34000000 		.4byte	.LFE11
 2994 0068 00000000 		.4byte	.LFB12
 2995 006c 54000000 		.4byte	.LFE12
 2996 0070 00000000 		.4byte	.LFB13
 2997 0074 14000000 		.4byte	.LFE13
 2998 0078 00000000 		.4byte	.LFB14
 2999 007c 20000000 		.4byte	.LFE14
 3000 0080 00000000 		.4byte	.LFB15
 3001 0084 20000000 		.4byte	.LFE15
 3002 0088 00000000 		.4byte	.LFB16
 3003 008c 20000000 		.4byte	.LFE16
 3004 0090 00000000 		.4byte	.LFB17
 3005 0094 2E000000 		.4byte	.LFE17
 3006 0098 00000000 		.4byte	.LFB18
 3007 009c 18000000 		.4byte	.LFE18
 3008 00a0 00000000 		.4byte	.LFB19
 3009 00a4 34000000 		.4byte	.LFE19
 3010 00a8 00000000 		.4byte	.LFB20
 3011 00ac 48000000 		.4byte	.LFE20
 3012 00b0 00000000 		.4byte	.LFB21
 3013 00b4 46000000 		.4byte	.LFE21
 3014 00b8 00000000 		.4byte	.LFB22
 3015 00bc 38000000 		.4byte	.LFE22
 3016 00c0 00000000 		.4byte	.LFB23
 3017 00c4 4A000000 		.4byte	.LFE23
 3018 00c8 00000000 		.4byte	.LFB24
 3019 00cc 54000000 		.4byte	.LFE24
 3020 00d0 00000000 		.4byte	.LFB25
 3021 00d4 CC000000 		.4byte	.LFE25
 3022 00d8 00000000 		.4byte	.LFB26
 3023 00dc 14000000 		.4byte	.LFE26
 3024 00e0 00000000 		.4byte	0x0
 3025 00e4 00000000 		.4byte	0x0
 3026              		.section	.debug_str,"MS",%progbits,1
 3027              	.LASF6:
 3028 0000 6C6F6E67 		.ascii	"long long int\000"
 3028      206C6F6E 
 3028      6720696E 
 3028      7400
 3029              	.LASF45:
 3030 000e 756C7472 		.ascii	"ultrasonic_uart_PutString\000"
 3030      61736F6E 
 3030      69635F75 
 3030      6172745F 
 3030      50757453 
 3031              	.LASF61:
 3032 0028 756C7472 		.ascii	"ultrasonic_uart_initVar\000"
 3032      61736F6E 
 3032      69635F75 
 3032      6172745F 
 3032      696E6974 
 3033              	.LASF50:
 3034 0040 756C7472 		.ascii	"ultrasonic_uart_PutCRLF\000"
 3034      61736F6E 
 3034      69635F75 
 3034      6172745F 
 3034      50757443 
ARM GAS  C:\Users\karunmj\AppData\Local\Temp\cc5pDfok.s 			page 85


 3035              	.LASF44:
 3036 0058 756C7472 		.ascii	"ultrasonic_uart_PutChar\000"
 3036      61736F6E 
 3036      69635F75 
 3036      6172745F 
 3036      50757443 
 3037              	.LASF43:
 3038 0070 756C7472 		.ascii	"ultrasonic_uart_ReadTxStatus\000"
 3038      61736F6E 
 3038      69635F75 
 3038      6172745F 
 3038      52656164 
 3039              	.LASF35:
 3040 008d 756C7472 		.ascii	"ultrasonic_uart_SetRxAddressMode\000"
 3040      61736F6E 
 3040      69635F75 
 3040      6172745F 
 3040      53657452 
 3041              	.LASF37:
 3042 00ae 756C7472 		.ascii	"ultrasonic_uart_SetRxAddress1\000"
 3042      61736F6E 
 3042      69635F75 
 3042      6172745F 
 3042      53657452 
 3043              	.LASF32:
 3044 00cc 756C7472 		.ascii	"ultrasonic_uart_GetRxBufferSize\000"
 3044      61736F6E 
 3044      69635F75 
 3044      6172745F 
 3044      47657452 
 3045              	.LASF18:
 3046 00ec 756C7472 		.ascii	"ultrasonic_uart_Stop\000"
 3046      61736F6E 
 3046      69635F75 
 3046      6172745F 
 3046      53746F70 
 3047              	.LASF8:
 3048 0101 756E7369 		.ascii	"unsigned int\000"
 3048      676E6564 
 3048      20696E74 
 3048      00
 3049              	.LASF51:
 3050 010e 756C7472 		.ascii	"ultrasonic_uart_GetTxBufferSize\000"
 3050      61736F6E 
 3050      69635F75 
 3050      6172745F 
 3050      47657454 
 3051              	.LASF34:
 3052 012e 756C7472 		.ascii	"ultrasonic_uart_ClearRxBuffer\000"
 3052      61736F6E 
 3052      69635F75 
 3052      6172745F 
 3052      436C6561 
 3053              	.LASF27:
 3054 014c 73746174 		.ascii	"status\000"
 3054      757300
 3055              	.LASF46:
ARM GAS  C:\Users\karunmj\AppData\Local\Temp\cc5pDfok.s 			page 86


 3056 0153 73747269 		.ascii	"string\000"
 3056      6E6700
 3057              	.LASF58:
 3058 015a 474E5520 		.ascii	"GNU C 4.4.1\000"
 3058      4320342E 
 3058      342E3100 
 3059              	.LASF24:
 3060 0166 72784461 		.ascii	"rxData\000"
 3060      746100
 3061              	.LASF11:
 3062 016d 666C6F61 		.ascii	"float\000"
 3062      7400
 3063              	.LASF36:
 3064 0173 61646472 		.ascii	"addressMode\000"
 3064      6573734D 
 3064      6F646500 
 3065              	.LASF28:
 3066 017f 756C7472 		.ascii	"ultrasonic_uart_GetChar\000"
 3066      61736F6E 
 3066      69635F75 
 3066      6172745F 
 3066      47657443 
 3067              	.LASF13:
 3068 0197 63686172 		.ascii	"char8\000"
 3068      3800
 3069              	.LASF5:
 3070 019d 6C6F6E67 		.ascii	"long unsigned int\000"
 3070      20756E73 
 3070      69676E65 
 3070      6420696E 
 3070      7400
 3071              	.LASF9:
 3072 01af 75696E74 		.ascii	"uint8\000"
 3072      3800
 3073              	.LASF22:
 3074 01b5 636F6E74 		.ascii	"control\000"
 3074      726F6C00 
 3075              	.LASF55:
 3076 01bd 746D7053 		.ascii	"tmpStat\000"
 3076      74617400 
 3077              	.LASF49:
 3078 01c5 62797465 		.ascii	"byteCount\000"
 3078      436F756E 
 3078      7400
 3079              	.LASF19:
 3080 01cf 656E6162 		.ascii	"enableInterrupts\000"
 3080      6C65496E 
 3080      74657272 
 3080      75707473 
 3080      00
 3081              	.LASF1:
 3082 01e0 756E7369 		.ascii	"unsigned char\000"
 3082      676E6564 
 3082      20636861 
 3082      7200
 3083              	.LASF57:
 3084 01ee 756C7472 		.ascii	"ultrasonic_uart_SetTxAddressMode\000"
ARM GAS  C:\Users\karunmj\AppData\Local\Temp\cc5pDfok.s 			page 87


 3084      61736F6E 
 3084      69635F75 
 3084      6172745F 
 3084      53657454 
 3085              	.LASF26:
 3086 020f 756C7472 		.ascii	"ultrasonic_uart_ReadRxStatus\000"
 3086      61736F6E 
 3086      69635F75 
 3086      6172745F 
 3086      52656164 
 3087              	.LASF12:
 3088 022c 646F7562 		.ascii	"double\000"
 3088      6C6500
 3089              	.LASF23:
 3090 0233 696E7453 		.ascii	"intSrc\000"
 3090      726300
 3091              	.LASF29:
 3092 023a 72785374 		.ascii	"rxStatus\000"
 3092      61747573 
 3092      00
 3093              	.LASF10:
 3094 0243 75696E74 		.ascii	"uint16\000"
 3094      313600
 3095              	.LASF40:
 3096 024a 756C7472 		.ascii	"ultrasonic_uart_SetTxInterruptMode\000"
 3096      61736F6E 
 3096      69635F75 
 3096      6172745F 
 3096      53657454 
 3097              	.LASF52:
 3098 026d 756C7472 		.ascii	"ultrasonic_uart_ClearTxBuffer\000"
 3098      61736F6E 
 3098      69635F75 
 3098      6172745F 
 3098      436C6561 
 3099              	.LASF38:
 3100 028b 61646472 		.ascii	"address\000"
 3100      65737300 
 3101              	.LASF7:
 3102 0293 6C6F6E67 		.ascii	"long long unsigned int\000"
 3102      206C6F6E 
 3102      6720756E 
 3102      7369676E 
 3102      65642069 
 3103              	.LASF53:
 3104 02aa 756C7472 		.ascii	"ultrasonic_uart_SendBreak\000"
 3104      61736F6E 
 3104      69635F75 
 3104      6172745F 
 3104      53656E64 
 3105              	.LASF15:
 3106 02c4 756C7472 		.ascii	"ultrasonic_uart_Start\000"
 3106      61736F6E 
 3106      69635F75 
 3106      6172745F 
 3106      53746172 
 3107              	.LASF30:
ARM GAS  C:\Users\karunmj\AppData\Local\Temp\cc5pDfok.s 			page 88


 3108 02da 756C7472 		.ascii	"ultrasonic_uart_ReadControlRegister\000"
 3108      61736F6E 
 3108      69635F75 
 3108      6172745F 
 3108      52656164 
 3109              	.LASF39:
 3110 02fe 756C7472 		.ascii	"ultrasonic_uart_SetRxAddress2\000"
 3110      61736F6E 
 3110      69635F75 
 3110      6172745F 
 3110      53657452 
 3111              	.LASF42:
 3112 031c 74784461 		.ascii	"txDataByte\000"
 3112      74614279 
 3112      746500
 3113              	.LASF56:
 3114 0327 74785F70 		.ascii	"tx_period\000"
 3114      6572696F 
 3114      6400
 3115              	.LASF14:
 3116 0331 63686172 		.ascii	"char\000"
 3116      00
 3117              	.LASF48:
 3118 0336 756C7472 		.ascii	"ultrasonic_uart_PutArray\000"
 3118      61736F6E 
 3118      69635F75 
 3118      6172745F 
 3118      50757441 
 3119              	.LASF54:
 3120 034f 7265744D 		.ascii	"retMode\000"
 3120      6F646500 
 3121              	.LASF25:
 3122 0357 756C7472 		.ascii	"ultrasonic_uart_ReadRxData\000"
 3122      61736F6E 
 3122      69635F75 
 3122      6172745F 
 3122      52656164 
 3123              	.LASF2:
 3124 0372 73686F72 		.ascii	"short int\000"
 3124      7420696E 
 3124      7400
 3125              	.LASF41:
 3126 037c 756C7472 		.ascii	"ultrasonic_uart_WriteTxData\000"
 3126      61736F6E 
 3126      69635F75 
 3126      6172745F 
 3126      57726974 
 3127              	.LASF16:
 3128 0398 756C7472 		.ascii	"ultrasonic_uart_Init\000"
 3128      61736F6E 
 3128      69635F75 
 3128      6172745F 
 3128      496E6974 
 3129              	.LASF59:
 3130 03ad 2E5C4765 		.ascii	".\\Generated_Source\\PSoC5\\ultrasonic_uart.c\000"
 3130      6E657261 
 3130      7465645F 
ARM GAS  C:\Users\karunmj\AppData\Local\Temp\cc5pDfok.s 			page 89


 3130      536F7572 
 3130      63655C50 
 3131              	.LASF4:
 3132 03d8 6C6F6E67 		.ascii	"long int\000"
 3132      20696E74 
 3132      00
 3133              	.LASF17:
 3134 03e1 756C7472 		.ascii	"ultrasonic_uart_Enable\000"
 3134      61736F6E 
 3134      69635F75 
 3134      6172745F 
 3134      456E6162 
 3135              	.LASF47:
 3136 03f8 6275665F 		.ascii	"buf_index\000"
 3136      696E6465 
 3136      7800
 3137              	.LASF0:
 3138 0402 7369676E 		.ascii	"signed char\000"
 3138      65642063 
 3138      68617200 
 3139              	.LASF31:
 3140 040e 756C7472 		.ascii	"ultrasonic_uart_GetByte\000"
 3140      61736F6E 
 3140      69635F75 
 3140      6172745F 
 3140      47657442 
 3141              	.LASF3:
 3142 0426 73686F72 		.ascii	"short unsigned int\000"
 3142      7420756E 
 3142      7369676E 
 3142      65642069 
 3142      6E7400
 3143              	.LASF33:
 3144 0439 73697A65 		.ascii	"size\000"
 3144      00
 3145              	.LASF20:
 3146 043e 756C7472 		.ascii	"ultrasonic_uart_WriteControlRegister\000"
 3146      61736F6E 
 3146      69635F75 
 3146      6172745F 
 3146      57726974 
 3147              	.LASF60:
 3148 0463 433A5C55 		.ascii	"C:\\Users\\karunmj\\Documents\\GitHub\\m2m\\hardwar"
 3148      73657273 
 3148      5C6B6172 
 3148      756E6D6A 
 3148      5C446F63 
 3149 0490 655C7073 		.ascii	"e\\psoc5\\PSoC_Datalogger.cydsn\000"
 3149      6F63355C 
 3149      50536F43 
 3149      5F446174 
 3149      616C6F67 
 3150              	.LASF21:
 3151 04ae 756C7472 		.ascii	"ultrasonic_uart_SetRxInterruptMode\000"
 3151      61736F6E 
 3151      69635F75 
 3151      6172745F 
ARM GAS  C:\Users\karunmj\AppData\Local\Temp\cc5pDfok.s 			page 90


 3151      53657452 
 3152              		.ident	"GCC: (Sourcery G++ Lite 2010q1-188) 4.4.1"
