ARM GAS  C:\Users\karunmj\AppData\Local\Temp\ccZVdQyt.s 			page 1


   1              		.syntax unified
   2              		.cpu cortex-m3
   3              		.fpu softvfp
   4              		.eabi_attribute 20, 1
   5              		.eabi_attribute 21, 1
   6              		.eabi_attribute 23, 3
   7              		.eabi_attribute 24, 1
   8              		.eabi_attribute 25, 1
   9              		.eabi_attribute 26, 1
  10              		.eabi_attribute 30, 6
  11              		.eabi_attribute 18, 4
  12              		.thumb
  13              		.file	"emFile_1_ConfigMMC_SPI.c"
  20 0000 BC000000 		.text
  20      02008700 
  20      00000201 
  20      FB0E0D00 
  20      01010101 
  21              	.Ltext0:
  22              		.cfi_sections	.debug_frame
  23              		.bss
  24              		.align	2
  25              	_aMemBlock:
  26 0000 00000000 		.space	4096
  26      00000000 
  26      00000000 
  26      00000000 
  26      00000000 
  27              		.section	.text.FS_X_AddDevices,"ax",%progbits
  28              		.align	2
  29              		.global	FS_X_AddDevices
  30              		.thumb
  31              		.thumb_func
  32              		.type	FS_X_AddDevices, %function
  33              	FS_X_AddDevices:
  34              	.LFB0:
  35              		.file 1 ".\\Generated_Source\\PSoC5\\emFile_1_ConfigMMC_SPI.c"
   1:.\Generated_Source\PSoC5/emFile_1_ConfigMMC_SPI.c **** /*******************************************************************************
   2:.\Generated_Source\PSoC5/emFile_1_ConfigMMC_SPI.c **** * File Name: emFile_1_MMC_HW_SPI.c
   3:.\Generated_Source\PSoC5/emFile_1_ConfigMMC_SPI.c **** * Version 1.20
   4:.\Generated_Source\PSoC5/emFile_1_ConfigMMC_SPI.c **** *
   5:.\Generated_Source\PSoC5/emFile_1_ConfigMMC_SPI.c **** * Description:
   6:.\Generated_Source\PSoC5/emFile_1_ConfigMMC_SPI.c **** *  Contains a set of File System APIs that implement SPI mode driver operation.
   7:.\Generated_Source\PSoC5/emFile_1_ConfigMMC_SPI.c **** *
   8:.\Generated_Source\PSoC5/emFile_1_ConfigMMC_SPI.c **** * Note:
   9:.\Generated_Source\PSoC5/emFile_1_ConfigMMC_SPI.c **** *
  10:.\Generated_Source\PSoC5/emFile_1_ConfigMMC_SPI.c **** ********************************************************************************
  11:.\Generated_Source\PSoC5/emFile_1_ConfigMMC_SPI.c **** * Copyright 2011-2012, Cypress Semiconductor Corporation.  All rights reserved.
  12:.\Generated_Source\PSoC5/emFile_1_ConfigMMC_SPI.c **** * You may use this file only in accordance with the license, terms, conditions,
  13:.\Generated_Source\PSoC5/emFile_1_ConfigMMC_SPI.c **** * disclaimers, and limitations in the end user license agreement accompanying
  14:.\Generated_Source\PSoC5/emFile_1_ConfigMMC_SPI.c **** * the software package with which this file was provided.
ARM GAS  C:\Users\karunmj\AppData\Local\Temp\ccZVdQyt.s 			page 2


  15:.\Generated_Source\PSoC5/emFile_1_ConfigMMC_SPI.c **** *******************************************************************************/
  16:.\Generated_Source\PSoC5/emFile_1_ConfigMMC_SPI.c **** 
  17:.\Generated_Source\PSoC5/emFile_1_ConfigMMC_SPI.c **** 
  18:.\Generated_Source\PSoC5/emFile_1_ConfigMMC_SPI.c **** /*********************************************************************
  19:.\Generated_Source\PSoC5/emFile_1_ConfigMMC_SPI.c **** *                SEGGER MICROCONTROLLER GmbH & Co. KG                *
  20:.\Generated_Source\PSoC5/emFile_1_ConfigMMC_SPI.c **** *        Solutions for real time microcontroller applications        *
  21:.\Generated_Source\PSoC5/emFile_1_ConfigMMC_SPI.c **** **********************************************************************
  22:.\Generated_Source\PSoC5/emFile_1_ConfigMMC_SPI.c **** *                                                                    *
  23:.\Generated_Source\PSoC5/emFile_1_ConfigMMC_SPI.c **** *        (c) 2003-2010     SEGGER Microcontroller GmbH & Co KG       *
  24:.\Generated_Source\PSoC5/emFile_1_ConfigMMC_SPI.c **** *                                                                    *
  25:.\Generated_Source\PSoC5/emFile_1_ConfigMMC_SPI.c **** *        Internet: www.segger.com    Support:  support@segger.com    *
  26:.\Generated_Source\PSoC5/emFile_1_ConfigMMC_SPI.c **** *                                                                    *
  27:.\Generated_Source\PSoC5/emFile_1_ConfigMMC_SPI.c **** **********************************************************************
  28:.\Generated_Source\PSoC5/emFile_1_ConfigMMC_SPI.c **** 
  29:.\Generated_Source\PSoC5/emFile_1_ConfigMMC_SPI.c **** **** emFile file system for embedded applications ****
  30:.\Generated_Source\PSoC5/emFile_1_ConfigMMC_SPI.c **** emFile is protected by international copyright laws. Knowledge of the
  31:.\Generated_Source\PSoC5/emFile_1_ConfigMMC_SPI.c **** source code may not be used to write a similar product. This file may
  32:.\Generated_Source\PSoC5/emFile_1_ConfigMMC_SPI.c **** only be used in accordance with a license and should not be re-
  33:.\Generated_Source\PSoC5/emFile_1_ConfigMMC_SPI.c **** distributed in any way. We appreciate your understanding and fairness.
  34:.\Generated_Source\PSoC5/emFile_1_ConfigMMC_SPI.c **** ----------------------------------------------------------------------
  35:.\Generated_Source\PSoC5/emFile_1_ConfigMMC_SPI.c **** ----------------------------------------------------------------------
  36:.\Generated_Source\PSoC5/emFile_1_ConfigMMC_SPI.c **** File        : ConfigMMC_SPI.c
  37:.\Generated_Source\PSoC5/emFile_1_ConfigMMC_SPI.c **** Purpose     : Configuration file for FS with MMC SPI mode driver
  38:.\Generated_Source\PSoC5/emFile_1_ConfigMMC_SPI.c **** ---------------------------END-OF-HEADER------------------------------
  39:.\Generated_Source\PSoC5/emFile_1_ConfigMMC_SPI.c **** */
  40:.\Generated_Source\PSoC5/emFile_1_ConfigMMC_SPI.c **** 
  41:.\Generated_Source\PSoC5/emFile_1_ConfigMMC_SPI.c **** #include "FS.h"
  42:.\Generated_Source\PSoC5/emFile_1_ConfigMMC_SPI.c **** #include "emFile_1.h"
  43:.\Generated_Source\PSoC5/emFile_1_ConfigMMC_SPI.c **** 
  44:.\Generated_Source\PSoC5/emFile_1_ConfigMMC_SPI.c **** /*********************************************************************
  45:.\Generated_Source\PSoC5/emFile_1_ConfigMMC_SPI.c **** *
  46:.\Generated_Source\PSoC5/emFile_1_ConfigMMC_SPI.c **** *       Defines, configurable
  47:.\Generated_Source\PSoC5/emFile_1_ConfigMMC_SPI.c **** *
  48:.\Generated_Source\PSoC5/emFile_1_ConfigMMC_SPI.c **** *       This section is the only section which requires changes
  49:.\Generated_Source\PSoC5/emFile_1_ConfigMMC_SPI.c **** *       using the MMC/SD card mode disk driver as a single device.
  50:.\Generated_Source\PSoC5/emFile_1_ConfigMMC_SPI.c **** *
  51:.\Generated_Source\PSoC5/emFile_1_ConfigMMC_SPI.c **** **********************************************************************
  52:.\Generated_Source\PSoC5/emFile_1_ConfigMMC_SPI.c **** */
  53:.\Generated_Source\PSoC5/emFile_1_ConfigMMC_SPI.c **** #define ALLOC_SIZE                 (0x1000)      /* Size defined in bytes */
  54:.\Generated_Source\PSoC5/emFile_1_ConfigMMC_SPI.c **** 
  55:.\Generated_Source\PSoC5/emFile_1_ConfigMMC_SPI.c **** /*********************************************************************
  56:.\Generated_Source\PSoC5/emFile_1_ConfigMMC_SPI.c **** *
  57:.\Generated_Source\PSoC5/emFile_1_ConfigMMC_SPI.c **** *       Static data
  58:.\Generated_Source\PSoC5/emFile_1_ConfigMMC_SPI.c **** *
  59:.\Generated_Source\PSoC5/emFile_1_ConfigMMC_SPI.c **** **********************************************************************
  60:.\Generated_Source\PSoC5/emFile_1_ConfigMMC_SPI.c **** */
  61:.\Generated_Source\PSoC5/emFile_1_ConfigMMC_SPI.c **** static U32   _aMemBlock[ALLOC_SIZE / 4u];      /* Memory pool used for semi-dynamic allocation. */
  62:.\Generated_Source\PSoC5/emFile_1_ConfigMMC_SPI.c **** 
  63:.\Generated_Source\PSoC5/emFile_1_ConfigMMC_SPI.c **** /*********************************************************************
  64:.\Generated_Source\PSoC5/emFile_1_ConfigMMC_SPI.c **** *
  65:.\Generated_Source\PSoC5/emFile_1_ConfigMMC_SPI.c **** *       Public code
  66:.\Generated_Source\PSoC5/emFile_1_ConfigMMC_SPI.c **** *
  67:.\Generated_Source\PSoC5/emFile_1_ConfigMMC_SPI.c **** *       This section does not require modifications in most systems.
  68:.\Generated_Source\PSoC5/emFile_1_ConfigMMC_SPI.c **** *
  69:.\Generated_Source\PSoC5/emFile_1_ConfigMMC_SPI.c **** **********************************************************************
  70:.\Generated_Source\PSoC5/emFile_1_ConfigMMC_SPI.c **** */
  71:.\Generated_Source\PSoC5/emFile_1_ConfigMMC_SPI.c **** 
ARM GAS  C:\Users\karunmj\AppData\Local\Temp\ccZVdQyt.s 			page 3


  72:.\Generated_Source\PSoC5/emFile_1_ConfigMMC_SPI.c **** /*********************************************************************
  73:.\Generated_Source\PSoC5/emFile_1_ConfigMMC_SPI.c **** *
  74:.\Generated_Source\PSoC5/emFile_1_ConfigMMC_SPI.c **** *       FS_X_AddDevices
  75:.\Generated_Source\PSoC5/emFile_1_ConfigMMC_SPI.c **** *
  76:.\Generated_Source\PSoC5/emFile_1_ConfigMMC_SPI.c **** *  Function description
  77:.\Generated_Source\PSoC5/emFile_1_ConfigMMC_SPI.c **** *    This function is called by the FS during FS_Init().
  78:.\Generated_Source\PSoC5/emFile_1_ConfigMMC_SPI.c **** *    It is supposed to add all devices, using primarily FS_AddDevice().
  79:.\Generated_Source\PSoC5/emFile_1_ConfigMMC_SPI.c **** *
  80:.\Generated_Source\PSoC5/emFile_1_ConfigMMC_SPI.c **** *  Note
  81:.\Generated_Source\PSoC5/emFile_1_ConfigMMC_SPI.c **** *    (1) Other API functions
  82:.\Generated_Source\PSoC5/emFile_1_ConfigMMC_SPI.c **** *        Other API functions may NOT be called, since this function is called
  83:.\Generated_Source\PSoC5/emFile_1_ConfigMMC_SPI.c **** *        during initialization. The devices are not yet ready at this point.
  84:.\Generated_Source\PSoC5/emFile_1_ConfigMMC_SPI.c **** */
  85:.\Generated_Source\PSoC5/emFile_1_ConfigMMC_SPI.c **** void FS_X_AddDevices(void)
  86:.\Generated_Source\PSoC5/emFile_1_ConfigMMC_SPI.c **** {
  36              		.loc 1 86 0
  37              		.cfi_startproc
  38              		@ args = 0, pretend = 0, frame = 0
  39              		@ frame_needed = 1, uses_anonymous_args = 0
  40 0000 80B5     		push	{r7, lr}
  41              	.LCFI0:
  42              		.cfi_def_cfa_offset 8
  43 0002 00AF     		add	r7, sp, #0
  44              		.cfi_offset 14, -4
  45              		.cfi_offset 7, -8
  46              	.LCFI1:
  47              		.cfi_def_cfa_register 7
  87:.\Generated_Source\PSoC5/emFile_1_ConfigMMC_SPI.c ****     #if(CY_PSOC5)
  88:.\Generated_Source\PSoC5/emFile_1_ConfigMMC_SPI.c ****         FS_AssignMemory(&_aMemBlock[0u], sizeof(_aMemBlock));
  48              		.loc 1 88 0
  49 0004 40F20000 		movw	r0, #:lower16:_aMemBlock
  50 0008 C0F20000 		movt	r0, #:upper16:_aMemBlock
  51 000c 4FF48051 		mov	r1, #4096
  52 0010 FFF7FEFF 		bl	FS_AssignMemory
  89:.\Generated_Source\PSoC5/emFile_1_ConfigMMC_SPI.c ****     #else
  90:.\Generated_Source\PSoC5/emFile_1_ConfigMMC_SPI.c ****         FS_AssignMemory(&_aMemBlock[1u], sizeof(_aMemBlock));
  91:.\Generated_Source\PSoC5/emFile_1_ConfigMMC_SPI.c ****     #endif/* (CY_PSOC5) */
  92:.\Generated_Source\PSoC5/emFile_1_ConfigMMC_SPI.c **** 
  93:.\Generated_Source\PSoC5/emFile_1_ConfigMMC_SPI.c ****     #if (emFile_1_NUMBER_SD_CARDS == 4u)
  94:.\Generated_Source\PSoC5/emFile_1_ConfigMMC_SPI.c ****         FS_AddDevice(&FS_MMC_SPI_Driver);
  95:.\Generated_Source\PSoC5/emFile_1_ConfigMMC_SPI.c ****         FS_AddDevice(&FS_MMC_SPI_Driver);
  96:.\Generated_Source\PSoC5/emFile_1_ConfigMMC_SPI.c ****         FS_AddDevice(&FS_MMC_SPI_Driver);
  97:.\Generated_Source\PSoC5/emFile_1_ConfigMMC_SPI.c ****         FS_AddDevice(&FS_MMC_SPI_Driver);
  98:.\Generated_Source\PSoC5/emFile_1_ConfigMMC_SPI.c ****     #elif (emFile_1_NUMBER_SD_CARDS == 3u)
  99:.\Generated_Source\PSoC5/emFile_1_ConfigMMC_SPI.c ****         FS_AddDevice(&FS_MMC_SPI_Driver);
 100:.\Generated_Source\PSoC5/emFile_1_ConfigMMC_SPI.c ****         FS_AddDevice(&FS_MMC_SPI_Driver);
 101:.\Generated_Source\PSoC5/emFile_1_ConfigMMC_SPI.c ****         FS_AddDevice(&FS_MMC_SPI_Driver);
 102:.\Generated_Source\PSoC5/emFile_1_ConfigMMC_SPI.c ****     #elif (emFile_1_NUMBER_SD_CARDS == 2u)
 103:.\Generated_Source\PSoC5/emFile_1_ConfigMMC_SPI.c ****         FS_AddDevice(&FS_MMC_SPI_Driver);
 104:.\Generated_Source\PSoC5/emFile_1_ConfigMMC_SPI.c ****         FS_AddDevice(&FS_MMC_SPI_Driver);
 105:.\Generated_Source\PSoC5/emFile_1_ConfigMMC_SPI.c ****     #else
 106:.\Generated_Source\PSoC5/emFile_1_ConfigMMC_SPI.c ****         FS_AddDevice(&FS_MMC_SPI_Driver);
  53              		.loc 1 106 0
  54 0014 40F20000 		movw	r0, #:lower16:FS_MMC_SPI_Driver
  55 0018 C0F20000 		movt	r0, #:upper16:FS_MMC_SPI_Driver
  56 001c FFF7FEFF 		bl	FS_AddDevice
 107:.\Generated_Source\PSoC5/emFile_1_ConfigMMC_SPI.c ****     #endif /* (emFile_1_NUMBER_SD_CARDS == 4u) */
ARM GAS  C:\Users\karunmj\AppData\Local\Temp\ccZVdQyt.s 			page 4


 108:.\Generated_Source\PSoC5/emFile_1_ConfigMMC_SPI.c **** }
  57              		.loc 1 108 0
  58 0020 80BD     		pop	{r7, pc}
  59              		.cfi_endproc
  60              	.LFE0:
  61              		.size	FS_X_AddDevices, .-FS_X_AddDevices
  62 0022 00BF     		.section	.text.FS_X_GetTimeDate,"ax",%progbits
  63              		.align	2
  64              		.global	FS_X_GetTimeDate
  65              		.thumb
  66              		.thumb_func
  67              		.type	FS_X_GetTimeDate, %function
  68              	FS_X_GetTimeDate:
  69              	.LFB1:
 109:.\Generated_Source\PSoC5/emFile_1_ConfigMMC_SPI.c **** 
 110:.\Generated_Source\PSoC5/emFile_1_ConfigMMC_SPI.c **** /*********************************************************************
 111:.\Generated_Source\PSoC5/emFile_1_ConfigMMC_SPI.c **** *
 112:.\Generated_Source\PSoC5/emFile_1_ConfigMMC_SPI.c **** *       FS_X_GetTimeDate
 113:.\Generated_Source\PSoC5/emFile_1_ConfigMMC_SPI.c **** *
 114:.\Generated_Source\PSoC5/emFile_1_ConfigMMC_SPI.c **** *  Description:
 115:.\Generated_Source\PSoC5/emFile_1_ConfigMMC_SPI.c **** *    Current time and date in a format suitable for the file system.
 116:.\Generated_Source\PSoC5/emFile_1_ConfigMMC_SPI.c **** *
 117:.\Generated_Source\PSoC5/emFile_1_ConfigMMC_SPI.c **** *    Bit 0-4:   2-second count (0-29)
 118:.\Generated_Source\PSoC5/emFile_1_ConfigMMC_SPI.c **** *    Bit 5-10:  Minutes (0-59)
 119:.\Generated_Source\PSoC5/emFile_1_ConfigMMC_SPI.c **** *    Bit 11-15: Hours (0-23)
 120:.\Generated_Source\PSoC5/emFile_1_ConfigMMC_SPI.c **** *    Bit 16-20: Day of month (1-31)
 121:.\Generated_Source\PSoC5/emFile_1_ConfigMMC_SPI.c **** *    Bit 21-24: Month of year (1-12)
 122:.\Generated_Source\PSoC5/emFile_1_ConfigMMC_SPI.c **** *    Bit 25-31: Count of years from 1980 (0-127)
 123:.\Generated_Source\PSoC5/emFile_1_ConfigMMC_SPI.c **** *
 124:.\Generated_Source\PSoC5/emFile_1_ConfigMMC_SPI.c **** */
 125:.\Generated_Source\PSoC5/emFile_1_ConfigMMC_SPI.c **** U32 FS_X_GetTimeDate(void)
 126:.\Generated_Source\PSoC5/emFile_1_ConfigMMC_SPI.c **** {
  70              		.loc 1 126 0
  71              		.cfi_startproc
  72              		@ args = 0, pretend = 0, frame = 16
  73              		@ frame_needed = 1, uses_anonymous_args = 0
  74              		@ link register save eliminated.
  75 0000 80B4     		push	{r7}
  76              	.LCFI2:
  77              		.cfi_def_cfa_offset 4
  78 0002 85B0     		sub	sp, sp, #20
  79              	.LCFI3:
  80              		.cfi_def_cfa_offset 24
  81 0004 00AF     		add	r7, sp, #0
  82              		.cfi_offset 7, -4
  83              	.LCFI4:
  84              		.cfi_def_cfa_register 7
 127:.\Generated_Source\PSoC5/emFile_1_ConfigMMC_SPI.c ****   U32 r;
 128:.\Generated_Source\PSoC5/emFile_1_ConfigMMC_SPI.c ****   U16 Sec, Min, Hour;
 129:.\Generated_Source\PSoC5/emFile_1_ConfigMMC_SPI.c ****   U16 Day, Month, Year;
 130:.\Generated_Source\PSoC5/emFile_1_ConfigMMC_SPI.c **** 
 131:.\Generated_Source\PSoC5/emFile_1_ConfigMMC_SPI.c ****   Sec   = 0;        /* 0 based.  Valid range: 0..59 */
  85              		.loc 1 131 0
  86 0006 4FF00003 		mov	r3, #0
  87 000a BB80     		strh	r3, [r7, #4]	@ movhi
 132:.\Generated_Source\PSoC5/emFile_1_ConfigMMC_SPI.c ****   Min   = 0;        /* 0 based.  Valid range: 0..59 */
  88              		.loc 1 132 0
ARM GAS  C:\Users\karunmj\AppData\Local\Temp\ccZVdQyt.s 			page 5


  89 000c 4FF00003 		mov	r3, #0
  90 0010 FB80     		strh	r3, [r7, #6]	@ movhi
 133:.\Generated_Source\PSoC5/emFile_1_ConfigMMC_SPI.c ****   Hour  = 0;        /* 0 based.  Valid range: 0..23 */
  91              		.loc 1 133 0
  92 0012 4FF00003 		mov	r3, #0
  93 0016 3B81     		strh	r3, [r7, #8]	@ movhi
 134:.\Generated_Source\PSoC5/emFile_1_ConfigMMC_SPI.c ****   Day   = 1;        /* 1 based.    Means that 1 is 1. Valid range is 1..31 (depending on month) */
  94              		.loc 1 134 0
  95 0018 4FF00103 		mov	r3, #1
  96 001c 7B81     		strh	r3, [r7, #10]	@ movhi
 135:.\Generated_Source\PSoC5/emFile_1_ConfigMMC_SPI.c ****   Month = 1;        /* 1 based.    Means that January is 1. Valid range is 1..12. */
  97              		.loc 1 135 0
  98 001e 4FF00103 		mov	r3, #1
  99 0022 BB81     		strh	r3, [r7, #12]	@ movhi
 136:.\Generated_Source\PSoC5/emFile_1_ConfigMMC_SPI.c ****   Year  = 0;        /* 1980 based. Means that 2007 would be 27. */
 100              		.loc 1 136 0
 101 0024 4FF00003 		mov	r3, #0
 102 0028 FB81     		strh	r3, [r7, #14]	@ movhi
 137:.\Generated_Source\PSoC5/emFile_1_ConfigMMC_SPI.c ****   r   = Sec / 2 + (Min << 5) + (Hour  << 11);
 103              		.loc 1 137 0
 104 002a BB88     		ldrh	r3, [r7, #4]
 105 002c 4FEA5303 		lsr	r3, r3, #1
 106 0030 9BB2     		uxth	r3, r3
 107 0032 1A46     		mov	r2, r3
 108 0034 FB88     		ldrh	r3, [r7, #6]
 109 0036 4FEA4313 		lsl	r3, r3, #5
 110 003a 1A44     		add	r2, r2, r3
 111 003c 3B89     		ldrh	r3, [r7, #8]
 112 003e 4FEAC323 		lsl	r3, r3, #11
 113 0042 1344     		add	r3, r2, r3
 114 0044 3B60     		str	r3, [r7, #0]
 138:.\Generated_Source\PSoC5/emFile_1_ConfigMMC_SPI.c ****   r  |= (U32)(Day + (Month << 5) + (Year  << 9)) << 16;
 115              		.loc 1 138 0
 116 0046 7A89     		ldrh	r2, [r7, #10]
 117 0048 BB89     		ldrh	r3, [r7, #12]
 118 004a 4FEA4313 		lsl	r3, r3, #5
 119 004e 1A44     		add	r2, r2, r3
 120 0050 FB89     		ldrh	r3, [r7, #14]
 121 0052 4FEA4323 		lsl	r3, r3, #9
 122 0056 1344     		add	r3, r2, r3
 123 0058 4FEA0343 		lsl	r3, r3, #16
 124 005c 3A68     		ldr	r2, [r7, #0]
 125 005e 42EA0303 		orr	r3, r2, r3
 126 0062 3B60     		str	r3, [r7, #0]
 139:.\Generated_Source\PSoC5/emFile_1_ConfigMMC_SPI.c ****   return r;
 127              		.loc 1 139 0
 128 0064 3B68     		ldr	r3, [r7, #0]
 140:.\Generated_Source\PSoC5/emFile_1_ConfigMMC_SPI.c **** }
 129              		.loc 1 140 0
 130 0066 1846     		mov	r0, r3
 131 0068 07F11407 		add	r7, r7, #20
 132 006c BD46     		mov	sp, r7
 133 006e 80BC     		pop	{r7}
 134 0070 7047     		bx	lr
 135              		.cfi_endproc
 136              	.LFE1:
 137              		.size	FS_X_GetTimeDate, .-FS_X_GetTimeDate
ARM GAS  C:\Users\karunmj\AppData\Local\Temp\ccZVdQyt.s 			page 6


 138 0072 00BF     		.text
 139              	.Letext0: