ARM GAS  C:\Users\karunmj\AppData\Local\Temp\cc8jsgEJ.s 			page 1


   1              		.syntax unified
   2              		.cpu cortex-m3
   3              		.fpu softvfp
   4              		.eabi_attribute 20, 1
   5              		.eabi_attribute 21, 1
   6              		.eabi_attribute 23, 3
   7              		.eabi_attribute 24, 1
   8              		.eabi_attribute 25, 1
   9              		.eabi_attribute 26, 1
  10              		.eabi_attribute 30, 6
  11              		.eabi_attribute 18, 4
  12              		.thumb
  13              		.file	"main.c"
  20 0000 44010000 		.text
  20      0200E200 
  20      00000201 
  20      FB0E0D00 
  20      01010101 
  21              	.Ltext0:
  22              		.cfi_sections	.debug_frame
  23              		.comm	data_packet,128,4
  24              		.global	solinst_reading
  25              		.bss
  26              		.align	2
  27              		.type	solinst_reading, %object
  28              		.size	solinst_reading, 12
  29              	solinst_reading:
  30 0000 00000000 		.space	12
  30      00000000 
  30      00000000 
  31              		.global	ultrasonic_reading
  32              		.align	2
  33              		.type	ultrasonic_reading, %object
  34              		.size	ultrasonic_reading, 12
  35              	ultrasonic_reading:
  36 000c 00000000 		.space	12
  36      00000000 
  36      00000000 
  37              		.section	.text.main,"ax",%progbits
  38              		.align	2
  39              		.global	main
  40              		.thumb
  41              		.thumb_func
  42              		.type	main, %function
  43              	main:
  44              	.LFB29:
  45              		.file 1 ".\\main.c"
   1:.\main.c      **** /* ========================================
   2:.\main.c      ****  *
   3:.\main.c      ****  * Copyright YOUR COMPANY, THE YEAR
   4:.\main.c      ****  * All Rights Reserved
ARM GAS  C:\Users\karunmj\AppData\Local\Temp\cc8jsgEJ.s 			page 2


   5:.\main.c      ****  * UNPUBLISHED, LICENSED SOFTWARE.
   6:.\main.c      ****  *
   7:.\main.c      ****  * CONFIDENTIAL AND PROPRIETARY INFORMATION
   8:.\main.c      ****  * WHICH IS THE PROPERTY OF your company.
   9:.\main.c      ****  *
  10:.\main.c      ****  * ========================================
  11:.\main.c      **** */
  12:.\main.c      **** #include <device.h>
  13:.\main.c      **** #include <stdio.h>
  14:.\main.c      **** #include <string.h>
  15:.\main.c      **** #include <FS.h>
  16:.\main.c      **** #include "neomote.h"
  17:.\main.c      **** #include "solinst_depth.h"
  18:.\main.c      **** #include "ultrasonic.h"
  19:.\main.c      **** 
  20:.\main.c      **** void rtcCallBackReceived(uint8 alarmType);
  21:.\main.c      **** void Write_To_SD_Card(const char * fileName, const char * pMode, 
  22:.\main.c      ****                                 const void * pData, U32 NumBytes);
  23:.\main.c      **** 
  24:.\main.c      **** #define MAX_PACKET_SIZE 128
  25:.\main.c      **** uint8   data_packet[MAX_PACKET_SIZE];
  26:.\main.c      **** SolinstReading solinst_reading = {.valid = 0};          // Initialize SolinstReading.valid to 0
  27:.\main.c      **** UltrasonicReading ultrasonic_reading = {.valid = 0};    // Initialize UltrasonicReading.valid to 0
  28:.\main.c      **** 
  29:.\main.c      **** void main()
  30:.\main.c      **** {
  46              		.loc 1 30 0
  47              		.cfi_startproc
  48              		@ args = 0, pretend = 0, frame = 0
  49              		@ frame_needed = 1, uses_anonymous_args = 0
  50 0000 80B5     		push	{r7, lr}
  51              	.LCFI0:
  52              		.cfi_def_cfa_offset 8
  53 0002 00AF     		add	r7, sp, #0
  54              		.cfi_offset 14, -4
  55              		.cfi_offset 7, -8
  56              	.LCFI1:
  57              		.cfi_def_cfa_register 7
  31:.\main.c      ****     CyGlobalIntEnable;  /* Uncomment this line to enable global interrupts. */
  58              		.loc 1 31 0
  59              	@ 31 ".\main.c" 1
  60 0004 62B6     		CPSIE   i
  61              	@ 0 "" 2
  32:.\main.c      ****     
  33:.\main.c      ****     /* Place your initialization/startup code here (e.g. MyInst_Start()) */
  34:.\main.c      ****     solinst_start();
  62              		.loc 1 34 0
  63              		.thumb
  64 0006 FFF7FEFF 		bl	solinst_start
  35:.\main.c      ****     ultrasonic_start();
  65              		.loc 1 35 0
  66 000a FFF7FEFF 		bl	ultrasonic_start
  36:.\main.c      ****     
  37:.\main.c      ****     NeoRTC_Start(rtcCallBackReceived); // Start and enable the RTC
  67              		.loc 1 37 0
  68 000e 40F20000 		movw	r0, #:lower16:rtcCallBackReceived
  69 0012 C0F20000 		movt	r0, #:upper16:rtcCallBackReceived
ARM GAS  C:\Users\karunmj\AppData\Local\Temp\cc8jsgEJ.s 			page 3


  70 0016 FFF7FEFF 		bl	NeoRTC_Start
  38:.\main.c      ****     NeoRTC_Set_Repeating_Minute_Alarm(1u);
  71              		.loc 1 38 0
  72 001a 4FF00100 		mov	r0, #1
  73 001e FFF7FEFF 		bl	NeoRTC_Set_Repeating_Minute_Alarm
  39:.\main.c      ****     NeoRTC_Enble_Second_Interrupt();
  74              		.loc 1 39 0
  75 0022 FFF7FEFF 		bl	NeoRTC_Enble_Second_Interrupt
  40:.\main.c      ****     
  41:.\main.c      ****     FS_Init(); // Start the File System
  76              		.loc 1 41 0
  77 0026 FFF7FEFF 		bl	FS_Init
  78              	.L2:
  42:.\main.c      ****        
  43:.\main.c      ****     for(;;)
  44:.\main.c      ****     {
  45:.\main.c      ****         RTC_Process_Tasks();
  79              		.loc 1 45 0
  80 002a FFF7FEFF 		bl	RTC_Process_Tasks
  46:.\main.c      ****         ////SolinstReading reading;
  47:.\main.c      ****         //solinst_get_reading(&reading);
  48:.\main.c      ****         //CyDelay(5000u);
  49:.\main.c      ****        
  50:.\main.c      ****     }
  81              		.loc 1 50 0
  82 002e FCE7     		b	.L2
  83              		.cfi_endproc
  84              	.LFE29:
  85              		.size	main, .-main
  86              		.section	.text.Write_To_SD_Card,"ax",%progbits
  87              		.align	2
  88              		.global	Write_To_SD_Card
  89              		.thumb
  90              		.thumb_func
  91              		.type	Write_To_SD_Card, %function
  92              	Write_To_SD_Card:
  93              	.LFB30:
  51:.\main.c      **** }
  52:.\main.c      **** 
  53:.\main.c      **** void Write_To_SD_Card(const char * fileName, const char * pMode, 
  54:.\main.c      ****                                 const void * pData, U32 NumBytes){
  94              		.loc 1 54 0
  95              		.cfi_startproc
  96              		@ args = 0, pretend = 0, frame = 32
  97              		@ frame_needed = 1, uses_anonymous_args = 0
  98 0000 80B5     		push	{r7, lr}
  99              	.LCFI2:
 100              		.cfi_def_cfa_offset 8
 101 0002 88B0     		sub	sp, sp, #32
 102              	.LCFI3:
 103              		.cfi_def_cfa_offset 40
 104 0004 00AF     		add	r7, sp, #0
 105              		.cfi_offset 14, -4
 106              		.cfi_offset 7, -8
 107              	.LCFI4:
 108              		.cfi_def_cfa_register 7
 109 0006 F860     		str	r0, [r7, #12]
ARM GAS  C:\Users\karunmj\AppData\Local\Temp\cc8jsgEJ.s 			page 4


 110 0008 B960     		str	r1, [r7, #8]
 111 000a 7A60     		str	r2, [r7, #4]
 112 000c 3B60     		str	r3, [r7, #0]
  55:.\main.c      **** 
  56:.\main.c      **** 	NEOMOTE_1_SD_Card_Power_Write(0u); // Power on SD Card
 113              		.loc 1 56 0
 114 000e 4FF00000 		mov	r0, #0
 115 0012 FFF7FEFF 		bl	NEOMOTE_1_SD_Card_Power_Write
  57:.\main.c      ****     
  58:.\main.c      **** 	FS_FILE * pFile;
  59:.\main.c      **** 	char sdVolName[10]; // Buffer that will hold SD card volume name.
  60:.\main.c      ****    
  61:.\main.c      **** 	if(0 != FS_GetVolumeName(0, &sdVolName[0], 9)){
 116              		.loc 1 61 0
 117 0016 07F11003 		add	r3, r7, #16
 118 001a 4FF00000 		mov	r0, #0
 119 001e 1946     		mov	r1, r3
 120 0020 4FF00902 		mov	r2, #9
 121 0024 FFF7FEFF 		bl	FS_GetVolumeName
 122 0028 0346     		mov	r3, r0
 123 002a 002B     		cmp	r3, #0
 124 002c 1AD0     		beq	.L5
  62:.\main.c      **** 		pFile = FS_FOpen(fileName, pMode);
 125              		.loc 1 62 0
 126 002e F868     		ldr	r0, [r7, #12]
 127 0030 B968     		ldr	r1, [r7, #8]
 128 0032 FFF7FEFF 		bl	FS_FOpen
 129 0036 0346     		mov	r3, r0
 130 0038 FB61     		str	r3, [r7, #28]
  63:.\main.c      **** 		if (pFile == 0){ // If the SD card doesn't open.
 131              		.loc 1 63 0
 132 003a FB69     		ldr	r3, [r7, #28]
 133 003c 002B     		cmp	r3, #0
 134 003e 09D1     		bne	.L6
  64:.\main.c      **** 			FS_DeInit();        
 135              		.loc 1 64 0
 136 0040 FFF7FEFF 		bl	FS_DeInit
  65:.\main.c      **** 			FS_Init();
 137              		.loc 1 65 0
 138 0044 FFF7FEFF 		bl	FS_Init
  66:.\main.c      **** 			pFile = FS_FOpen(fileName, pMode);
 139              		.loc 1 66 0
 140 0048 F868     		ldr	r0, [r7, #12]
 141 004a B968     		ldr	r1, [r7, #8]
 142 004c FFF7FEFF 		bl	FS_FOpen
 143 0050 0346     		mov	r3, r0
 144 0052 FB61     		str	r3, [r7, #28]
 145              	.L6:
  67:.\main.c      **** 		}
  68:.\main.c      **** 		FS_Write(pFile, pData, NumBytes);
 146              		.loc 1 68 0
 147 0054 F869     		ldr	r0, [r7, #28]
 148 0056 7968     		ldr	r1, [r7, #4]
 149 0058 3A68     		ldr	r2, [r7, #0]
 150 005a FFF7FEFF 		bl	FS_Write
  69:.\main.c      **** 		FS_FClose(pFile);
 151              		.loc 1 69 0
ARM GAS  C:\Users\karunmj\AppData\Local\Temp\cc8jsgEJ.s 			page 5


 152 005e F869     		ldr	r0, [r7, #28]
 153 0060 FFF7FEFF 		bl	FS_FClose
 154              	.L5:
  70:.\main.c      ****        }
  71:.\main.c      **** 	NEOMOTE_1_SD_Card_Power_Write(1u); // Power off SD Card.
 155              		.loc 1 71 0
 156 0064 4FF00100 		mov	r0, #1
 157 0068 FFF7FEFF 		bl	NEOMOTE_1_SD_Card_Power_Write
  72:.\main.c      **** }
 158              		.loc 1 72 0
 159 006c 07F12007 		add	r7, r7, #32
 160 0070 BD46     		mov	sp, r7
 161 0072 80BD     		pop	{r7, pc}
 162              		.cfi_endproc
 163              	.LFE30:
 164              		.size	Write_To_SD_Card, .-Write_To_SD_Card
 165              		.global	__aeabi_f2d
 166              		.section	.rodata
 167              		.align	2
 168              	.LC0:
 169 0000 0D0A2564 		.ascii	"\015\012%d:%d:%d %d/%d/%d s_d=%f s_t=%f u_d=%f\000"
 169      3A25643A 
 169      25642025 
 169      642F2564 
 169      2F256420 
 170 0029 000000   		.align	2
 171              	.LC1:
 172 002c 6D794461 		.ascii	"myData.txt\000"
 172      74612E74 
 172      787400
 173 0037 00       		.align	2
 174              	.LC2:
 175 0038 6100     		.ascii	"a\000"
 176 003a 0000     		.section	.text.rtcCallBackReceived,"ax",%progbits
 177              		.align	2
 178              		.global	rtcCallBackReceived
 179              		.thumb
 180              		.thumb_func
 181              		.type	rtcCallBackReceived, %function
 182              	rtcCallBackReceived:
 183              	.LFB31:
  73:.\main.c      **** 
  74:.\main.c      **** 
  75:.\main.c      **** void rtcCallBackReceived(uint8 alarmType){ // RTC Event Handler.
 184              		.loc 1 75 0
 185              		.cfi_startproc
 186              		@ args = 0, pretend = 0, frame = 24
 187              		@ frame_needed = 1, uses_anonymous_args = 0
 188 0000 2DE9F04F 		push	{r4, r5, r6, r7, r8, r9, sl, fp, lr}
 189              	.LCFI5:
 190              		.cfi_def_cfa_offset 36
 191 0004 91B0     		sub	sp, sp, #68
 192              	.LCFI6:
 193              		.cfi_def_cfa_offset 104
 194 0006 0AAF     		add	r7, sp, #40
 195              		.cfi_offset 14, -4
 196              		.cfi_offset 11, -8
ARM GAS  C:\Users\karunmj\AppData\Local\Temp\cc8jsgEJ.s 			page 6


 197              		.cfi_offset 10, -12
 198              		.cfi_offset 9, -16
 199              		.cfi_offset 8, -20
 200              		.cfi_offset 7, -24
 201              		.cfi_offset 6, -28
 202              		.cfi_offset 5, -32
 203              		.cfi_offset 4, -36
 204              	.LCFI7:
 205              		.cfi_def_cfa 7, 64
 206 0008 0346     		mov	r3, r0
 207 000a FB73     		strb	r3, [r7, #15]
  76:.\main.c      ****     /*
  77:.\main.c      ****     if(alarmType == RTC_SECOND_ALARM){
  78:.\main.c      ****         
  79:.\main.c      ****     }else */
  80:.\main.c      ****     if(alarmType == RTC_MINUTE_ALARM){
 208              		.loc 1 80 0
 209 000c FB7B     		ldrb	r3, [r7, #15]	@ zero_extendqisi2
 210 000e 012B     		cmp	r3, #1
 211 0010 69D1     		bne	.L10
 212              	.LBB2:
  81:.\main.c      ****         
  82:.\main.c      ****         solinst_get_reading(&solinst_reading);
 213              		.loc 1 82 0
 214 0012 40F20000 		movw	r0, #:lower16:solinst_reading
 215 0016 C0F20000 		movt	r0, #:upper16:solinst_reading
 216 001a FFF7FEFF 		bl	solinst_get_reading
  83:.\main.c      ****         ultrasonic_get_reading(&ultrasonic_reading);
 217              		.loc 1 83 0
 218 001e 40F20000 		movw	r0, #:lower16:ultrasonic_reading
 219 0022 C0F20000 		movt	r0, #:upper16:ultrasonic_reading
 220 0026 FFF7FEFF 		bl	ultrasonic_get_reading
  84:.\main.c      ****         
  85:.\main.c      ****         NeoRtcTimeStruct tm_neo = NeoRTC_Read_Time();
 221              		.loc 1 85 0
 222 002a 07F11003 		add	r3, r7, #16
 223 002e 1846     		mov	r0, r3
 224 0030 FFF7FEFF 		bl	NeoRTC_Read_Time
  86:.\main.c      ****         sprintf(data_packet, "\r\n%d:%d:%d %d/%d/%d s_d=%f s_t=%f u_d=%f", 
  87:.\main.c      ****                         tm_neo.hour, tm_neo.minute, tm_neo.second, tm_neo.day, tm_neo.month, tm_neo
 225              		.loc 1 87 0
 226 0034 BB7C     		ldrb	r3, [r7, #18]	@ zero_extendqisi2
 227              		.loc 1 86 0
 228 0036 9A46     		mov	sl, r3
 229              		.loc 1 87 0
 230 0038 7B7C     		ldrb	r3, [r7, #17]	@ zero_extendqisi2
 231              		.loc 1 86 0
 232 003a 1E46     		mov	r6, r3
 233              		.loc 1 87 0
 234 003c 3B7C     		ldrb	r3, [r7, #16]	@ zero_extendqisi2
 235              		.loc 1 86 0
 236 003e 3B60     		str	r3, [r7, #0]
 237              		.loc 1 87 0
 238 0040 FB7C     		ldrb	r3, [r7, #19]	@ zero_extendqisi2
 239              		.loc 1 86 0
 240 0042 7B60     		str	r3, [r7, #4]
 241              		.loc 1 87 0
ARM GAS  C:\Users\karunmj\AppData\Local\Temp\cc8jsgEJ.s 			page 7


 242 0044 7B7D     		ldrb	r3, [r7, #21]	@ zero_extendqisi2
 243              		.loc 1 86 0
 244 0046 BB60     		str	r3, [r7, #8]
 245              		.loc 1 87 0
 246 0048 FB8A     		ldrh	r3, [r7, #22]
 247              		.loc 1 86 0
 248 004a 9B46     		mov	fp, r3
  88:.\main.c      ****                         solinst_reading.depth, solinst_reading.temp, ultrasonic_reading.depth);
 249              		.loc 1 88 0
 250 004c 40F20003 		movw	r3, #:lower16:solinst_reading
 251 0050 C0F20003 		movt	r3, #:upper16:solinst_reading
 252 0054 5B68     		ldr	r3, [r3, #4]	@ float
 253              		.loc 1 86 0
 254 0056 1846     		mov	r0, r3
 255 0058 FFF7FEFF 		bl	__aeabi_f2d
 256 005c 8046     		mov	r8, r0
 257 005e 8946     		mov	r9, r1
 258              		.loc 1 88 0
 259 0060 40F20003 		movw	r3, #:lower16:solinst_reading
 260 0064 C0F20003 		movt	r3, #:upper16:solinst_reading
 261 0068 1B68     		ldr	r3, [r3, #0]	@ float
 262              		.loc 1 86 0
 263 006a 1846     		mov	r0, r3
 264 006c FFF7FEFF 		bl	__aeabi_f2d
 265 0070 0446     		mov	r4, r0
 266 0072 0D46     		mov	r5, r1
 267              		.loc 1 88 0
 268 0074 40F20003 		movw	r3, #:lower16:ultrasonic_reading
 269 0078 C0F20003 		movt	r3, #:upper16:ultrasonic_reading
 270 007c 5B68     		ldr	r3, [r3, #4]	@ float
 271              		.loc 1 86 0
 272 007e 1846     		mov	r0, r3
 273 0080 FFF7FEFF 		bl	__aeabi_f2d
 274 0084 0246     		mov	r2, r0
 275 0086 0B46     		mov	r3, r1
 276 0088 3968     		ldr	r1, [r7, #0]
 277 008a 0091     		str	r1, [sp, #0]
 278 008c 7968     		ldr	r1, [r7, #4]
 279 008e 0191     		str	r1, [sp, #4]
 280 0090 B968     		ldr	r1, [r7, #8]
 281 0092 0291     		str	r1, [sp, #8]
 282 0094 CDF80CB0 		str	fp, [sp, #12]
 283 0098 CDE90489 		strd	r8, [sp, #16]
 284 009c CDE90645 		strd	r4, [sp, #24]
 285 00a0 CDE90823 		strd	r2, [sp, #32]
 286 00a4 40F20000 		movw	r0, #:lower16:data_packet
 287 00a8 C0F20000 		movt	r0, #:upper16:data_packet
 288 00ac 40F20001 		movw	r1, #:lower16:.LC0
 289 00b0 C0F20001 		movt	r1, #:upper16:.LC0
 290 00b4 5246     		mov	r2, sl
 291 00b6 3346     		mov	r3, r6
 292 00b8 FFF7FEFF 		bl	sprintf
  89:.\main.c      ****         
  90:.\main.c      ****         Write_To_SD_Card("myData.txt","a",data_packet,strlen(data_packet));
 293              		.loc 1 90 0
 294 00bc 40F20000 		movw	r0, #:lower16:data_packet
 295 00c0 C0F20000 		movt	r0, #:upper16:data_packet
ARM GAS  C:\Users\karunmj\AppData\Local\Temp\cc8jsgEJ.s 			page 8


 296 00c4 FFF7FEFF 		bl	strlen
 297 00c8 0346     		mov	r3, r0
 298 00ca 40F20000 		movw	r0, #:lower16:.LC1
 299 00ce C0F20000 		movt	r0, #:upper16:.LC1
 300 00d2 40F20001 		movw	r1, #:lower16:.LC2
 301 00d6 C0F20001 		movt	r1, #:upper16:.LC2
 302 00da 40F20002 		movw	r2, #:lower16:data_packet
 303 00de C0F20002 		movt	r2, #:upper16:data_packet
 304 00e2 FFF7FEFF 		bl	Write_To_SD_Card
 305              	.L10:
 306              	.LBE2:
  91:.\main.c      ****     }
  92:.\main.c      **** }
 307              		.loc 1 92 0
 308 00e6 07F11C07 		add	r7, r7, #28
 309 00ea BD46     		mov	sp, r7
 310 00ec BDE8F08F 		pop	{r4, r5, r6, r7, r8, r9, sl, fp, pc}
 311              		.cfi_endproc
 312              	.LFE31:
 313              		.size	rtcCallBackReceived, .-rtcCallBackReceived
 314              		.text
 315              	.Letext0: