ARM GAS  C:\Users\karunmj\AppData\Local\Temp\ccA4AjCD.s 			page 1


   1              		.syntax unified
   2              		.cpu cortex-m3
   3              		.fpu softvfp
   4              		.eabi_attribute 20, 1
   5              		.eabi_attribute 21, 1
   6              		.eabi_attribute 23, 3
   7              		.eabi_attribute 24, 1
   8              		.eabi_attribute 25, 1
   9              		.eabi_attribute 26, 1
  10              		.eabi_attribute 30, 6
  11              		.eabi_attribute 18, 4
  12              		.thumb
  13              		.file	"solinst_depth.c"
  20 0000 38010000 		.text
  20      02007200 
  20      00000201 
  20      FB0E0D00 
  20      01010101 
  21              	.Ltext0:
  22              		.cfi_sections	.debug_frame
  23              		.comm	uart_solinst_received_string,128,4
  24              		.global	uart_solinst_string_index
  25              		.bss
  26              		.type	uart_solinst_string_index, %object
  27              		.size	uart_solinst_string_index, 1
  28              	uart_solinst_string_index:
  29 0000 00       		.space	1
  30              		.section	.text.solinst_start,"ax",%progbits
  31              		.align	2
  32              		.global	solinst_start
  33              		.thumb
  34              		.thumb_func
  35              		.type	solinst_start, %function
  36              	solinst_start:
  37              	.LFB29:
  38              		.file 1 ".\\solinst_depth.c"
   1:.\solinst_depth.c **** /* ========================================
   2:.\solinst_depth.c ****  *
   3:.\solinst_depth.c ****  * Copyright YOUR COMPANY, THE YEAR
   4:.\solinst_depth.c ****  * All Rights Reserved
   5:.\solinst_depth.c ****  * UNPUBLISHED, LICENSED SOFTWARE.
   6:.\solinst_depth.c ****  *
   7:.\solinst_depth.c ****  * CONFIDENTIAL AND PROPRIETARY INFORMATION
   8:.\solinst_depth.c ****  * WHICH IS THE PROPERTY OF your company.
   9:.\solinst_depth.c ****  *
  10:.\solinst_depth.c ****  * ========================================
  11:.\solinst_depth.c **** */
  12:.\solinst_depth.c **** 
  13:.\solinst_depth.c **** #include "solinst_depth.h"
  14:.\solinst_depth.c **** 
  15:.\solinst_depth.c **** 
ARM GAS  C:\Users\karunmj\AppData\Local\Temp\ccA4AjCD.s 			page 2


  16:.\solinst_depth.c **** // Declare variables
  17:.\solinst_depth.c **** uint8 uart_solinst_received_string[MAX_STRING_LENGTH];
  18:.\solinst_depth.c **** uint8 uart_solinst_string_index = 0;
  19:.\solinst_depth.c **** 
  20:.\solinst_depth.c **** // prototype modem interrupt
  21:.\solinst_depth.c **** CY_ISR_PROTO(isr_solinst_byte_rx);
  22:.\solinst_depth.c **** 
  23:.\solinst_depth.c **** // prototype functions
  24:.\solinst_depth.c **** void uart_solinst_string_reset();
  25:.\solinst_depth.c **** 
  26:.\solinst_depth.c **** 
  27:.\solinst_depth.c **** 
  28:.\solinst_depth.c **** // Start the UART
  29:.\solinst_depth.c **** void solinst_start(){
  39              		.loc 1 29 0
  40              		.cfi_startproc
  41              		@ args = 0, pretend = 0, frame = 0
  42              		@ frame_needed = 1, uses_anonymous_args = 0
  43 0000 80B5     		push	{r7, lr}
  44              	.LCFI0:
  45              		.cfi_def_cfa_offset 8
  46 0002 00AF     		add	r7, sp, #0
  47              		.cfi_offset 14, -4
  48              		.cfi_offset 7, -8
  49              	.LCFI1:
  50              		.cfi_def_cfa_register 7
  30:.\solinst_depth.c ****     uart_solinst_Start();
  51              		.loc 1 30 0
  52 0004 FFF7FEFF 		bl	uart_solinst_Start
  31:.\solinst_depth.c **** }   
  53              		.loc 1 31 0
  54 0008 80BD     		pop	{r7, pc}
  55              		.cfi_endproc
  56              	.LFE29:
  57              		.size	solinst_start, .-solinst_start
  58 000a 00BF     		.section	.text.solinst_stop,"ax",%progbits
  59              		.align	2
  60              		.global	solinst_stop
  61              		.thumb
  62              		.thumb_func
  63              		.type	solinst_stop, %function
  64              	solinst_stop:
  65              	.LFB30:
  32:.\solinst_depth.c **** 
  33:.\solinst_depth.c **** // Stop the UART
  34:.\solinst_depth.c **** void solinst_stop(){
  66              		.loc 1 34 0
  67              		.cfi_startproc
  68              		@ args = 0, pretend = 0, frame = 0
  69              		@ frame_needed = 1, uses_anonymous_args = 0
  70 0000 80B5     		push	{r7, lr}
  71              	.LCFI2:
  72              		.cfi_def_cfa_offset 8
  73 0002 00AF     		add	r7, sp, #0
  74              		.cfi_offset 14, -4
  75              		.cfi_offset 7, -8
  76              	.LCFI3:
ARM GAS  C:\Users\karunmj\AppData\Local\Temp\ccA4AjCD.s 			page 3


  77              		.cfi_def_cfa_register 7
  35:.\solinst_depth.c ****     uart_solinst_Stop();
  78              		.loc 1 35 0
  79 0004 FFF7FEFF 		bl	uart_solinst_Stop
  36:.\solinst_depth.c **** }         
  80              		.loc 1 36 0
  81 0008 80BD     		pop	{r7, pc}
  82              		.cfi_endproc
  83              	.LFE30:
  84              		.size	solinst_stop, .-solinst_stop
  85 000a 00BF     		.section	.text.solinst_power_on,"ax",%progbits
  86              		.align	2
  87              		.global	solinst_power_on
  88              		.thumb
  89              		.thumb_func
  90              		.type	solinst_power_on, %function
  91              	solinst_power_on:
  92              	.LFB31:
  37:.\solinst_depth.c **** 
  38:.\solinst_depth.c **** // Provide power to Solinst sensor
  39:.\solinst_depth.c **** uint8 solinst_power_on(){
  93              		.loc 1 39 0
  94              		.cfi_startproc
  95              		@ args = 0, pretend = 0, frame = 0
  96              		@ frame_needed = 1, uses_anonymous_args = 0
  97 0000 80B5     		push	{r7, lr}
  98              	.LCFI4:
  99              		.cfi_def_cfa_offset 8
 100 0002 00AF     		add	r7, sp, #0
 101              		.cfi_offset 14, -4
 102              		.cfi_offset 7, -8
 103              	.LCFI5:
 104              		.cfi_def_cfa_register 7
  40:.\solinst_depth.c ****     solinst_power_pin_Write(0u);
 105              		.loc 1 40 0
 106 0004 4FF00000 		mov	r0, #0
 107 0008 FFF7FEFF 		bl	solinst_power_pin_Write
  41:.\solinst_depth.c ****     return 1u;
 108              		.loc 1 41 0
 109 000c 4FF00103 		mov	r3, #1
  42:.\solinst_depth.c **** }
 110              		.loc 1 42 0
 111 0010 1846     		mov	r0, r3
 112 0012 80BD     		pop	{r7, pc}
 113              		.cfi_endproc
 114              	.LFE31:
 115              		.size	solinst_power_on, .-solinst_power_on
 116              		.section	.text.solinst_power_off,"ax",%progbits
 117              		.align	2
 118              		.global	solinst_power_off
 119              		.thumb
 120              		.thumb_func
 121              		.type	solinst_power_off, %function
 122              	solinst_power_off:
 123              	.LFB32:
  43:.\solinst_depth.c **** 
  44:.\solinst_depth.c **** // Cut power to the Solinst sensor
ARM GAS  C:\Users\karunmj\AppData\Local\Temp\ccA4AjCD.s 			page 4


  45:.\solinst_depth.c **** uint8 solinst_power_off(){
 124              		.loc 1 45 0
 125              		.cfi_startproc
 126              		@ args = 0, pretend = 0, frame = 0
 127              		@ frame_needed = 1, uses_anonymous_args = 0
 128 0000 80B5     		push	{r7, lr}
 129              	.LCFI6:
 130              		.cfi_def_cfa_offset 8
 131 0002 00AF     		add	r7, sp, #0
 132              		.cfi_offset 14, -4
 133              		.cfi_offset 7, -8
 134              	.LCFI7:
 135              		.cfi_def_cfa_register 7
  46:.\solinst_depth.c ****     solinst_power_pin_Write(0u);
 136              		.loc 1 46 0
 137 0004 4FF00000 		mov	r0, #0
 138 0008 FFF7FEFF 		bl	solinst_power_pin_Write
  47:.\solinst_depth.c ****     return 0u;
 139              		.loc 1 47 0
 140 000c 4FF00003 		mov	r3, #0
  48:.\solinst_depth.c **** }
 141              		.loc 1 48 0
 142 0010 1846     		mov	r0, r3
 143 0012 80BD     		pop	{r7, pc}
 144              		.cfi_endproc
 145              	.LFE32:
 146              		.size	solinst_power_off, .-solinst_power_off
 147              		.global	__aeabi_i2f
 148              		.global	__aeabi_d2f
 149              		.global	__aeabi_fmul
 150              		.section	.text.solinst_get_reading,"ax",%progbits
 151              		.align	2
 152              		.global	solinst_get_reading
 153              		.thumb
 154              		.thumb_func
 155              		.type	solinst_get_reading, %function
 156              	solinst_get_reading:
 157              	.LFB33:
  49:.\solinst_depth.c **** 
  50:.\solinst_depth.c **** // Start ISR, Fill array, Return array, Stop ISR
  51:.\solinst_depth.c **** uint8 solinst_get_reading(SolinstReading *reading){
 158              		.loc 1 51 0
 159              		.cfi_startproc
 160              		@ args = 0, pretend = 0, frame = 56
 161              		@ frame_needed = 1, uses_anonymous_args = 0
 162 0000 90B5     		push	{r4, r7, lr}
 163              	.LCFI8:
 164              		.cfi_def_cfa_offset 12
 165 0002 8FB0     		sub	sp, sp, #60
 166              	.LCFI9:
 167              		.cfi_def_cfa_offset 72
 168 0004 00AF     		add	r7, sp, #0
 169              		.cfi_offset 14, -4
 170              		.cfi_offset 7, -8
 171              		.cfi_offset 4, -12
 172              	.LCFI10:
 173              		.cfi_def_cfa_register 7
ARM GAS  C:\Users\karunmj\AppData\Local\Temp\ccA4AjCD.s 			page 5


 174 0006 7860     		str	r0, [r7, #4]
  52:.\solinst_depth.c **** 
  53:.\solinst_depth.c ****     int i, index;
  54:.\solinst_depth.c ****     int temp_sign = 1, depth_sign = 1;
 175              		.loc 1 54 0
 176 0008 4FF00103 		mov	r3, #1
 177 000c FB62     		str	r3, [r7, #44]
 178 000e 4FF00103 		mov	r3, #1
 179 0012 3B63     		str	r3, [r7, #48]
  55:.\solinst_depth.c ****     uint8 temp[TEMP_STRING_LENGTH], depth[DEPTH_STRING_LENGTH], t;
  56:.\solinst_depth.c ****     uint8 valid = 0;
 180              		.loc 1 56 0
 181 0014 4FF00003 		mov	r3, #0
 182 0018 87F83730 		strb	r3, [r7, #55]
  57:.\solinst_depth.c ****     uint8 command[6] = {0x00, 0x61, 0xff, 0x18, 0x24, 0x10};
 183              		.loc 1 57 0
 184 001c 40F20002 		movw	r2, #:lower16:C.18.4339
 185 0020 C0F20002 		movt	r2, #:upper16:C.18.4339
 186 0024 07F10C03 		add	r3, r7, #12
 187 0028 92E80300 		ldmia	r2, {r0, r1}
 188 002c 1860     		str	r0, [r3, #0]
 189 002e 03F10403 		add	r3, r3, #4
 190 0032 1980     		strh	r1, [r3, #0]	@ movhi
  58:.\solinst_depth.c ****     
  59:.\solinst_depth.c ****     // Reset variables
  60:.\solinst_depth.c ****     (*reading).valid = 0u;
 191              		.loc 1 60 0
 192 0034 7B68     		ldr	r3, [r7, #4]
 193 0036 4FF00002 		mov	r2, #0
 194 003a 1A72     		strb	r2, [r3, #8]
  61:.\solinst_depth.c ****     (*reading).temp = -9999;    // Do not use -9999.99.. (inaccurate double representation)
 195              		.loc 1 61 0
 196 003c 7B68     		ldr	r3, [r7, #4]
 197 003e 734A     		ldr	r2, .L32	@ float
 198 0040 1A60     		str	r2, [r3, #0]	@ float
  62:.\solinst_depth.c ****     (*reading).depth = -9999;
 199              		.loc 1 62 0
 200 0042 7B68     		ldr	r3, [r7, #4]
 201 0044 714A     		ldr	r2, .L32	@ float
 202 0046 5A60     		str	r2, [r3, #4]	@ float
  63:.\solinst_depth.c ****     uart_solinst_string_reset();
 203              		.loc 1 63 0
 204 0048 FFF7FEFF 		bl	uart_solinst_string_reset
  64:.\solinst_depth.c ****     
  65:.\solinst_depth.c ****     // Start the ISR to read the uart
  66:.\solinst_depth.c ****     isr_solinst_byte_rx_StartEx(isr_solinst_byte_rx);
 205              		.loc 1 66 0
 206 004c 40F20000 		movw	r0, #:lower16:isr_solinst_byte_rx
 207 0050 C0F20000 		movt	r0, #:upper16:isr_solinst_byte_rx
 208 0054 FFF7FEFF 		bl	isr_solinst_byte_rx_StartEx
  67:.\solinst_depth.c ****     solinst_power_on();
 209              		.loc 1 67 0
 210 0058 FFF7FEFF 		bl	solinst_power_on
  68:.\solinst_depth.c ****     CyDelay(100u);
 211              		.loc 1 68 0
 212 005c 4FF06400 		mov	r0, #100
 213 0060 FFF7FEFF 		bl	CyDelay
ARM GAS  C:\Users\karunmj\AppData\Local\Temp\ccA4AjCD.s 			page 6


  69:.\solinst_depth.c ****     
  70:.\solinst_depth.c ****     // Write the command to the sensor
  71:.\solinst_depth.c ****     uart_solinst_PutArray(command,6);
 214              		.loc 1 71 0
 215 0064 07F10C03 		add	r3, r7, #12
 216 0068 1846     		mov	r0, r3
 217 006a 4FF00601 		mov	r1, #6
 218 006e FFF7FEFF 		bl	uart_solinst_PutArray
  72:.\solinst_depth.c ****     CyDelay(1000);
 219              		.loc 1 72 0
 220 0072 4FF47A70 		mov	r0, #1000
 221 0076 FFF7FEFF 		bl	CyDelay
  73:.\solinst_depth.c ****     
  74:.\solinst_depth.c ****     // Stop the ISR
  75:.\solinst_depth.c ****     isr_solinst_byte_rx_Stop();
 222              		.loc 1 75 0
 223 007a FFF7FEFF 		bl	isr_solinst_byte_rx_Stop
  76:.\solinst_depth.c ****     solinst_power_off();
 224              		.loc 1 76 0
 225 007e FFF7FEFF 		bl	solinst_power_off
  77:.\solinst_depth.c ****     
  78:.\solinst_depth.c ****     // Process the data
  79:.\solinst_depth.c ****     index = 0;
 226              		.loc 1 79 0
 227 0082 4FF00003 		mov	r3, #0
 228 0086 BB62     		str	r3, [r7, #40]
  80:.\solinst_depth.c ****     for (i = 0; i < sizeof(uart_solinst_received_string); i++) {
 229              		.loc 1 80 0
 230 0088 4FF00003 		mov	r3, #0
 231 008c 7B62     		str	r3, [r7, #36]
 232 008e 3AE0     		b	.L10
 233              	.L18:
  81:.\solinst_depth.c ****         t = uart_solinst_received_string[i];
 234              		.loc 1 81 0
 235 0090 7A6A     		ldr	r2, [r7, #36]
 236 0092 40F20003 		movw	r3, #:lower16:uart_solinst_received_string
 237 0096 C0F20003 		movt	r3, #:upper16:uart_solinst_received_string
 238 009a 9B5C     		ldrb	r3, [r3, r2]
 239 009c 87F83630 		strb	r3, [r7, #54]
  82:.\solinst_depth.c ****         
  83:.\solinst_depth.c ****         if ((t >= '0' && t <= '9') || t == '.') {
 240              		.loc 1 83 0
 241 00a0 97F83630 		ldrb	r3, [r7, #54]	@ zero_extendqisi2
 242 00a4 2F2B     		cmp	r3, #47
 243 00a6 03D9     		bls	.L11
 244 00a8 97F83630 		ldrb	r3, [r7, #54]	@ zero_extendqisi2
 245 00ac 392B     		cmp	r3, #57
 246 00ae 03D9     		bls	.L12
 247              	.L11:
 248 00b0 97F83630 		ldrb	r3, [r7, #54]	@ zero_extendqisi2
 249 00b4 2E2B     		cmp	r3, #46
 250 00b6 0CD1     		bne	.L13
 251              	.L12:
  84:.\solinst_depth.c ****             temp[index] = t;
 252              		.loc 1 84 0
 253 00b8 BB6A     		ldr	r3, [r7, #40]
 254 00ba 07F13802 		add	r2, r7, #56
ARM GAS  C:\Users\karunmj\AppData\Local\Temp\ccA4AjCD.s 			page 7


 255 00be 1344     		add	r3, r2, r3
 256 00c0 97F83620 		ldrb	r2, [r7, #54]
 257 00c4 03F81C2C 		strb	r2, [r3, #-28]
  85:.\solinst_depth.c ****             index++;
 258              		.loc 1 85 0
 259 00c8 BB6A     		ldr	r3, [r7, #40]
 260 00ca 03F10103 		add	r3, r3, #1
 261 00ce BB62     		str	r3, [r7, #40]
 262              		.loc 1 83 0
 263 00d0 15E0     		b	.L14
 264              	.L13:
  86:.\solinst_depth.c ****         }
  87:.\solinst_depth.c ****         else if (t == '+')
 265              		.loc 1 87 0
 266 00d2 97F83630 		ldrb	r3, [r7, #54]	@ zero_extendqisi2
 267 00d6 2B2B     		cmp	r3, #43
 268 00d8 10D0     		beq	.L30
 269              	.L15:
  88:.\solinst_depth.c ****             continue;
  89:.\solinst_depth.c ****         else if (t == '-') {
 270              		.loc 1 89 0
 271 00da 97F83630 		ldrb	r3, [r7, #54]	@ zero_extendqisi2
 272 00de 2D2B     		cmp	r3, #45
 273 00e0 03D1     		bne	.L16
  90:.\solinst_depth.c ****             temp_sign = -1;
 274              		.loc 1 90 0
 275 00e2 4FF0FF33 		mov	r3, #-1
 276 00e6 FB62     		str	r3, [r7, #44]
 277 00e8 09E0     		b	.L14
 278              	.L16:
  91:.\solinst_depth.c ****         }
  92:.\solinst_depth.c ****         else if (t == 'C') {
 279              		.loc 1 92 0
 280 00ea 97F83630 		ldrb	r3, [r7, #54]	@ zero_extendqisi2
 281 00ee 432B     		cmp	r3, #67
 282 00f0 05D1     		bne	.L14
  93:.\solinst_depth.c ****             valid = 1u;
 283              		.loc 1 93 0
 284 00f2 4FF00103 		mov	r3, #1
 285 00f6 87F83730 		strb	r3, [r7, #55]
  94:.\solinst_depth.c ****             break;
 286              		.loc 1 94 0
 287 00fa 07E0     		b	.L17
 288              	.L30:
 289              		.loc 1 88 0
 290 00fc 00BF     		nop
 291              	.L14:
 292              		.loc 1 80 0
 293 00fe 7B6A     		ldr	r3, [r7, #36]
 294 0100 03F10103 		add	r3, r3, #1
 295 0104 7B62     		str	r3, [r7, #36]
 296              	.L10:
 297 0106 7B6A     		ldr	r3, [r7, #36]
 298 0108 7F2B     		cmp	r3, #127
 299 010a C1D9     		bls	.L18
 300              	.L17:
  95:.\solinst_depth.c ****         }
ARM GAS  C:\Users\karunmj\AppData\Local\Temp\ccA4AjCD.s 			page 8


  96:.\solinst_depth.c ****     }
  97:.\solinst_depth.c ****     
  98:.\solinst_depth.c ****     index = 0;
 301              		.loc 1 98 0
 302 010c 4FF00003 		mov	r3, #0
 303 0110 BB62     		str	r3, [r7, #40]
  99:.\solinst_depth.c ****     for (; i < sizeof(uart_solinst_received_string); i++) {
 304              		.loc 1 99 0
 305 0112 3CE0     		b	.L19
 306              	.L27:
 100:.\solinst_depth.c ****         t = uart_solinst_received_string[i];
 307              		.loc 1 100 0
 308 0114 7A6A     		ldr	r2, [r7, #36]
 309 0116 40F20003 		movw	r3, #:lower16:uart_solinst_received_string
 310 011a C0F20003 		movt	r3, #:upper16:uart_solinst_received_string
 311 011e 9B5C     		ldrb	r3, [r3, r2]
 312 0120 87F83630 		strb	r3, [r7, #54]
 101:.\solinst_depth.c ****         
 102:.\solinst_depth.c ****         if ((t >= '0' && t <= '9') || t == '.') {
 313              		.loc 1 102 0
 314 0124 97F83630 		ldrb	r3, [r7, #54]	@ zero_extendqisi2
 315 0128 2F2B     		cmp	r3, #47
 316 012a 03D9     		bls	.L20
 317 012c 97F83630 		ldrb	r3, [r7, #54]	@ zero_extendqisi2
 318 0130 392B     		cmp	r3, #57
 319 0132 03D9     		bls	.L21
 320              	.L20:
 321 0134 97F83630 		ldrb	r3, [r7, #54]	@ zero_extendqisi2
 322 0138 2E2B     		cmp	r3, #46
 323 013a 0CD1     		bne	.L22
 324              	.L21:
 103:.\solinst_depth.c ****             depth[index] = t;
 325              		.loc 1 103 0
 326 013c BB6A     		ldr	r3, [r7, #40]
 327 013e 07F13802 		add	r2, r7, #56
 328 0142 1344     		add	r3, r2, r3
 329 0144 97F83620 		ldrb	r2, [r7, #54]
 330 0148 03F8242C 		strb	r2, [r3, #-36]
 104:.\solinst_depth.c ****             index++;
 331              		.loc 1 104 0
 332 014c BB6A     		ldr	r3, [r7, #40]
 333 014e 03F10103 		add	r3, r3, #1
 334 0152 BB62     		str	r3, [r7, #40]
 335              		.loc 1 102 0
 336 0154 17E0     		b	.L23
 337              	.L22:
 105:.\solinst_depth.c ****         }
 106:.\solinst_depth.c ****         else if (t == '+')
 338              		.loc 1 106 0
 339 0156 97F83630 		ldrb	r3, [r7, #54]	@ zero_extendqisi2
 340 015a 2B2B     		cmp	r3, #43
 341 015c 12D0     		beq	.L31
 342              	.L24:
 107:.\solinst_depth.c ****             continue;
 108:.\solinst_depth.c ****         else if (t == '-') {
 343              		.loc 1 108 0
 344 015e 97F83630 		ldrb	r3, [r7, #54]	@ zero_extendqisi2
ARM GAS  C:\Users\karunmj\AppData\Local\Temp\ccA4AjCD.s 			page 9


 345 0162 2D2B     		cmp	r3, #45
 346 0164 03D1     		bne	.L25
 109:.\solinst_depth.c ****             depth_sign = -1;  
 347              		.loc 1 109 0
 348 0166 4FF0FF33 		mov	r3, #-1
 349 016a 3B63     		str	r3, [r7, #48]
 350 016c 0BE0     		b	.L23
 351              	.L25:
 110:.\solinst_depth.c ****         }
 111:.\solinst_depth.c ****         else if (t == 'm') {
 352              		.loc 1 111 0
 353 016e 97F83630 		ldrb	r3, [r7, #54]	@ zero_extendqisi2
 354 0172 6D2B     		cmp	r3, #109
 355 0174 07D1     		bne	.L23
 112:.\solinst_depth.c ****             (*reading).valid = 1u & valid;
 356              		.loc 1 112 0
 357 0176 97F83730 		ldrb	r3, [r7, #55]	@ zero_extendqisi2
 358 017a 03F00103 		and	r3, r3, #1
 359 017e 7A68     		ldr	r2, [r7, #4]
 360 0180 1372     		strb	r3, [r2, #8]
 113:.\solinst_depth.c ****             break;
 361              		.loc 1 113 0
 362 0182 07E0     		b	.L26
 363              	.L31:
 364              		.loc 1 107 0
 365 0184 00BF     		nop
 366              	.L23:
 367              		.loc 1 99 0
 368 0186 7B6A     		ldr	r3, [r7, #36]
 369 0188 03F10103 		add	r3, r3, #1
 370 018c 7B62     		str	r3, [r7, #36]
 371              	.L19:
 372 018e 7B6A     		ldr	r3, [r7, #36]
 373 0190 7F2B     		cmp	r3, #127
 374 0192 BFD9     		bls	.L27
 375              	.L26:
 114:.\solinst_depth.c ****         }
 115:.\solinst_depth.c ****            
 116:.\solinst_depth.c ****     }    
 117:.\solinst_depth.c ****     /*
 118:.\solinst_depth.c ****     (*reading).temp = (float)temp_sign * (float)atof(temp);
 119:.\solinst_depth.c ****     (*reading).depth = (float)depth_sign * (float)atof(depth);
 120:.\solinst_depth.c ****     
 121:.\solinst_depth.c ****     
 122:.\solinst_depth.c ****     if ( (*reading).temp != -9999 && (*reading).depth != -9999) {
 123:.\solinst_depth.c ****         (*reading).valid = 1u;
 124:.\solinst_depth.c ****     }
 125:.\solinst_depth.c ****     */
 126:.\solinst_depth.c ****     
 127:.\solinst_depth.c ****     if ((*reading).valid) {
 376              		.loc 1 127 0
 377 0194 7B68     		ldr	r3, [r7, #4]
 378 0196 1B7A     		ldrb	r3, [r3, #8]	@ zero_extendqisi2
 379 0198 002B     		cmp	r3, #0
 380 019a 2FD0     		beq	.L28
 128:.\solinst_depth.c ****         (*reading).temp = (float)temp_sign * (float)atof(temp);
 381              		.loc 1 128 0
ARM GAS  C:\Users\karunmj\AppData\Local\Temp\ccA4AjCD.s 			page 10


 382 019c F86A     		ldr	r0, [r7, #44]
 383 019e FFF7FEFF 		bl	__aeabi_i2f
 384 01a2 0446     		mov	r4, r0
 385 01a4 07F11C03 		add	r3, r7, #28
 386 01a8 1846     		mov	r0, r3
 387 01aa FFF7FEFF 		bl	atof
 388 01ae 0246     		mov	r2, r0
 389 01b0 0B46     		mov	r3, r1
 390 01b2 1046     		mov	r0, r2
 391 01b4 1946     		mov	r1, r3
 392 01b6 FFF7FEFF 		bl	__aeabi_d2f
 393 01ba 0346     		mov	r3, r0
 394 01bc 2046     		mov	r0, r4
 395 01be 1946     		mov	r1, r3
 396 01c0 FFF7FEFF 		bl	__aeabi_fmul
 397 01c4 0346     		mov	r3, r0
 398 01c6 1A46     		mov	r2, r3
 399 01c8 7B68     		ldr	r3, [r7, #4]
 400 01ca 1A60     		str	r2, [r3, #0]	@ float
 129:.\solinst_depth.c ****         (*reading).depth = (float)depth_sign * (float)atof(depth);
 401              		.loc 1 129 0
 402 01cc 386B     		ldr	r0, [r7, #48]
 403 01ce FFF7FEFF 		bl	__aeabi_i2f
 404 01d2 0446     		mov	r4, r0
 405 01d4 07F11403 		add	r3, r7, #20
 406 01d8 1846     		mov	r0, r3
 407 01da FFF7FEFF 		bl	atof
 408 01de 0246     		mov	r2, r0
 409 01e0 0B46     		mov	r3, r1
 410 01e2 1046     		mov	r0, r2
 411 01e4 1946     		mov	r1, r3
 412 01e6 FFF7FEFF 		bl	__aeabi_d2f
 413 01ea 0346     		mov	r3, r0
 414 01ec 2046     		mov	r0, r4
 415 01ee 1946     		mov	r1, r3
 416 01f0 FFF7FEFF 		bl	__aeabi_fmul
 417 01f4 0346     		mov	r3, r0
 418 01f6 1A46     		mov	r2, r3
 419 01f8 7B68     		ldr	r3, [r7, #4]
 420 01fa 5A60     		str	r2, [r3, #4]	@ float
 421              	.L28:
 130:.\solinst_depth.c ****     }
 131:.\solinst_depth.c ****     
 132:.\solinst_depth.c ****     return (*reading).valid;
 422              		.loc 1 132 0
 423 01fc 7B68     		ldr	r3, [r7, #4]
 424 01fe 1B7A     		ldrb	r3, [r3, #8]	@ zero_extendqisi2
 133:.\solinst_depth.c **** }  
 425              		.loc 1 133 0
 426 0200 1846     		mov	r0, r3
 427 0202 07F13C07 		add	r7, r7, #60
 428 0206 BD46     		mov	sp, r7
 429 0208 90BD     		pop	{r4, r7, pc}
 430              	.L33:
 431 020a 00BF     		.align	2
 432              	.L32:
 433 020c 003C1CC6 		.word	-971228160
ARM GAS  C:\Users\karunmj\AppData\Local\Temp\ccA4AjCD.s 			page 11


 434              		.cfi_endproc
 435              	.LFE33:
 436              		.size	solinst_get_reading, .-solinst_get_reading
 437              		.section	.text.isr_solinst_byte_rx,"ax",%progbits
 438              		.align	2
 439              		.global	isr_solinst_byte_rx
 440              		.thumb
 441              		.thumb_func
 442              		.type	isr_solinst_byte_rx, %function
 443              	isr_solinst_byte_rx:
 444              	.LFB34:
 134:.\solinst_depth.c **** 
 135:.\solinst_depth.c **** 
 136:.\solinst_depth.c **** CY_ISR(isr_solinst_byte_rx){
 445              		.loc 1 136 0
 446              		.cfi_startproc
 447              		@ args = 0, pretend = 0, frame = 8
 448              		@ frame_needed = 1, uses_anonymous_args = 0
 449 0000 80B5     		push	{r7, lr}
 450              	.LCFI11:
 451              		.cfi_def_cfa_offset 8
 452 0002 82B0     		sub	sp, sp, #8
 453              	.LCFI12:
 454              		.cfi_def_cfa_offset 16
 455 0004 00AF     		add	r7, sp, #0
 456              		.cfi_offset 14, -4
 457              		.cfi_offset 7, -8
 458              	.LCFI13:
 459              		.cfi_def_cfa_register 7
 137:.\solinst_depth.c ****     // hold the next char in the rx register as a temporary variable
 138:.\solinst_depth.c ****     uint8 rx_char_hold = uart_solinst_GetChar();
 460              		.loc 1 138 0
 461 0006 FFF7FEFF 		bl	uart_solinst_GetChar
 462 000a 0346     		mov	r3, r0
 463 000c FB71     		strb	r3, [r7, #7]
 139:.\solinst_depth.c ****     
 140:.\solinst_depth.c ****     // store the char in uart_received_string
 141:.\solinst_depth.c ****     if(rx_char_hold && uart_solinst_string_index < MAX_STRING_LENGTH){
 464              		.loc 1 141 0
 465 000e FB79     		ldrb	r3, [r7, #7]	@ zero_extendqisi2
 466 0010 002B     		cmp	r3, #0
 467 0012 20D0     		beq	.L36
 468 0014 40F20003 		movw	r3, #:lower16:uart_solinst_string_index
 469 0018 C0F20003 		movt	r3, #:upper16:uart_solinst_string_index
 470 001c 1B78     		ldrb	r3, [r3, #0]	@ zero_extendqisi2
 471 001e 5BB2     		sxtb	r3, r3
 472 0020 002B     		cmp	r3, #0
 473 0022 18DB     		blt	.L36
 142:.\solinst_depth.c ****         uart_solinst_received_string[uart_solinst_string_index] = rx_char_hold;
 474              		.loc 1 142 0
 475 0024 40F20003 		movw	r3, #:lower16:uart_solinst_string_index
 476 0028 C0F20003 		movt	r3, #:upper16:uart_solinst_string_index
 477 002c 1B78     		ldrb	r3, [r3, #0]	@ zero_extendqisi2
 478 002e 1A46     		mov	r2, r3
 479 0030 40F20003 		movw	r3, #:lower16:uart_solinst_received_string
 480 0034 C0F20003 		movt	r3, #:upper16:uart_solinst_received_string
 481 0038 F979     		ldrb	r1, [r7, #7]
ARM GAS  C:\Users\karunmj\AppData\Local\Temp\ccA4AjCD.s 			page 12


 482 003a 9954     		strb	r1, [r3, r2]
 143:.\solinst_depth.c ****         uart_solinst_string_index++;
 483              		.loc 1 143 0
 484 003c 40F20003 		movw	r3, #:lower16:uart_solinst_string_index
 485 0040 C0F20003 		movt	r3, #:upper16:uart_solinst_string_index
 486 0044 1B78     		ldrb	r3, [r3, #0]	@ zero_extendqisi2
 487 0046 03F10103 		add	r3, r3, #1
 488 004a DAB2     		uxtb	r2, r3
 489 004c 40F20003 		movw	r3, #:lower16:uart_solinst_string_index
 490 0050 C0F20003 		movt	r3, #:upper16:uart_solinst_string_index
 491 0054 1A70     		strb	r2, [r3, #0]
 492              	.L36:
 144:.\solinst_depth.c ****     }    
 145:.\solinst_depth.c **** }
 493              		.loc 1 145 0
 494 0056 07F10807 		add	r7, r7, #8
 495 005a BD46     		mov	sp, r7
 496 005c 80BD     		pop	{r7, pc}
 497              		.cfi_endproc
 498              	.LFE34:
 499              		.size	isr_solinst_byte_rx, .-isr_solinst_byte_rx
 500 005e 00BF     		.section	.text.uart_solinst_string_reset,"ax",%progbits
 501              		.align	2
 502              		.global	uart_solinst_string_reset
 503              		.thumb
 504              		.thumb_func
 505              		.type	uart_solinst_string_reset, %function
 506              	uart_solinst_string_reset:
 507              	.LFB35:
 146:.\solinst_depth.c **** 
 147:.\solinst_depth.c **** 
 148:.\solinst_depth.c **** void uart_solinst_string_reset(){
 508              		.loc 1 148 0
 509              		.cfi_startproc
 510              		@ args = 0, pretend = 0, frame = 8
 511              		@ frame_needed = 1, uses_anonymous_args = 0
 512 0000 80B5     		push	{r7, lr}
 513              	.LCFI14:
 514              		.cfi_def_cfa_offset 8
 515 0002 82B0     		sub	sp, sp, #8
 516              	.LCFI15:
 517              		.cfi_def_cfa_offset 16
 518 0004 00AF     		add	r7, sp, #0
 519              		.cfi_offset 14, -4
 520              		.cfi_offset 7, -8
 521              	.LCFI16:
 522              		.cfi_def_cfa_register 7
 149:.\solinst_depth.c ****     // reset uart_received_string to zero
 150:.\solinst_depth.c ****     uint8 i = 0;
 523              		.loc 1 150 0
 524 0006 4FF00003 		mov	r3, #0
 525 000a FB71     		strb	r3, [r7, #7]
 151:.\solinst_depth.c ****     
 152:.\solinst_depth.c ****     for(i = 0; i < MAX_STRING_LENGTH; i++){
 526              		.loc 1 152 0
 527 000c 4FF00003 		mov	r3, #0
 528 0010 FB71     		strb	r3, [r7, #7]
ARM GAS  C:\Users\karunmj\AppData\Local\Temp\ccA4AjCD.s 			page 13


 529 0012 0BE0     		b	.L38
 530              	.L39:
 153:.\solinst_depth.c ****         uart_solinst_received_string[i] = 0;
 531              		.loc 1 153 0
 532 0014 FA79     		ldrb	r2, [r7, #7]	@ zero_extendqisi2
 533 0016 40F20003 		movw	r3, #:lower16:uart_solinst_received_string
 534 001a C0F20003 		movt	r3, #:upper16:uart_solinst_received_string
 535 001e 4FF00001 		mov	r1, #0
 536 0022 9954     		strb	r1, [r3, r2]
 537              		.loc 1 152 0
 538 0024 FB79     		ldrb	r3, [r7, #7]
 539 0026 03F10103 		add	r3, r3, #1
 540 002a FB71     		strb	r3, [r7, #7]
 541              	.L38:
 542 002c FB79     		ldrb	r3, [r7, #7]	@ zero_extendqisi2
 543 002e 5BB2     		sxtb	r3, r3
 544 0030 002B     		cmp	r3, #0
 545 0032 EFDA     		bge	.L39
 154:.\solinst_depth.c ****     }
 155:.\solinst_depth.c ****     uart_solinst_string_index = 0;
 546              		.loc 1 155 0
 547 0034 40F20003 		movw	r3, #:lower16:uart_solinst_string_index
 548 0038 C0F20003 		movt	r3, #:upper16:uart_solinst_string_index
 549 003c 4FF00002 		mov	r2, #0
 550 0040 1A70     		strb	r2, [r3, #0]
 156:.\solinst_depth.c ****     uart_solinst_ClearRxBuffer();
 551              		.loc 1 156 0
 552 0042 FFF7FEFF 		bl	uart_solinst_ClearRxBuffer
 157:.\solinst_depth.c **** }
 553              		.loc 1 157 0
 554 0046 07F10807 		add	r7, r7, #8
 555 004a BD46     		mov	sp, r7
 556 004c 80BD     		pop	{r7, pc}
 557              		.cfi_endproc
 558              	.LFE35:
 559              		.size	uart_solinst_string_reset, .-uart_solinst_string_reset
 560 004e 00BF     		.section	.rodata
 561              		.align	2
 562              		.type	C.18.4339, %object
 563              		.size	C.18.4339, 6
 564              	C.18.4339:
 565 0000 00       		.byte	0
 566 0001 61       		.byte	97
 567 0002 FF       		.byte	-1
 568 0003 18       		.byte	24
 569 0004 24       		.byte	36
 570 0005 10       		.byte	16
 571 0006 0000     		.text
 572              	.Letext0: