ARM GAS  C:\Users\karunmj\AppData\Local\Temp\cc1MCx1R.s 			page 1


   1              		.syntax unified
   2              		.cpu cortex-m3
   3              		.fpu softvfp
   4              		.eabi_attribute 20, 1
   5              		.eabi_attribute 21, 1
   6              		.eabi_attribute 23, 3
   7              		.eabi_attribute 24, 1
   8              		.eabi_attribute 25, 1
   9              		.eabi_attribute 26, 1
  10              		.eabi_attribute 30, 6
  11              		.eabi_attribute 18, 4
  12              		.thumb
  13              		.file	"main.c"
  20 0000 C6000000 		.text
  20      02006100 
  20      00000201 
  20      FB0E0D00 
  20      01010101 
  21              	.Ltext0:
  22              		.cfi_sections	.debug_frame
  23              		.comm	modem_state,1,1
  24              		.comm	packet_ready,1,1
  25              		.comm	data_packet,128,4
  26              		.comm	data_packet_size,1,1
  27              		.section	.text.main,"ax",%progbits
  28              		.align	2
  29              		.global	main
  30              		.thumb
  31              		.thumb_func
  32              		.type	main, %function
  33              	main:
  34              	.LFB29:
  35              		.file 1 ".\\main.c"
   1:.\main.c      **** /* M2M SMS Datalogger */ 
   2:.\main.c      **** 
   3:.\main.c      **** #include <stdio.h>
   4:.\main.c      **** #include <string.h>
   5:.\main.c      **** #include <device.h>
   6:.\main.c      **** #include "slre.h"           /* simple regular expression library */ 
   7:.\main.c      **** #include "modem.h"
   8:.\main.c      **** #include "ultrasonic.h"
   9:.\main.c      **** #include "sleep.h"
  10:.\main.c      **** 
  11:.\main.c      **** // define global variables
  12:.\main.c      **** #define MAX_PACKET_SIZE 128
  13:.\main.c      **** uint8   packet_ready;
  14:.\main.c      **** uint8   data_packet[MAX_PACKET_SIZE];
  15:.\main.c      **** uint8   data_packet_size;
  16:.\main.c      **** 
  17:.\main.c      **** // prototype functions
  18:.\main.c      **** void clear_packet();
ARM GAS  C:\Users\karunmj\AppData\Local\Temp\cc1MCx1R.s 			page 2


  19:.\main.c      **** void write_packet(uint8* packet, uint8 size);
  20:.\main.c      **** CY_ISR_PROTO(isr_timer);
  21:.\main.c      **** 
  22:.\main.c      **** void main(){
  36              		.loc 1 22 0
  37              		.cfi_startproc
  38              		@ args = 0, pretend = 0, frame = 0
  39              		@ frame_needed = 1, uses_anonymous_args = 0
  40 0000 80B5     		push	{r7, lr}
  41              	.LCFI0:
  42              		.cfi_def_cfa_offset 8
  43 0002 00AF     		add	r7, sp, #0
  44              		.cfi_offset 14, -4
  45              		.cfi_offset 7, -8
  46              	.LCFI1:
  47              		.cfi_def_cfa_register 7
  23:.\main.c      ****     // intialize modem
  24:.\main.c      ****     modem_start();
  48              		.loc 1 24 0
  49 0004 FFF7FEFF 		bl	modem_start
  25:.\main.c      ****     ultrasonic_start();
  50              		.loc 1 25 0
  51 0008 FFF7FEFF 		bl	ultrasonic_start
  26:.\main.c      ****     timer_Start();
  52              		.loc 1 26 0
  53 000c FFF7FEFF 		bl	timer_Start
  27:.\main.c      ****     isr_timer_StartEx(isr_timer);
  54              		.loc 1 27 0
  55 0010 40F20000 		movw	r0, #:lower16:isr_timer
  56 0014 C0F20000 		movt	r0, #:upper16:isr_timer
  57 0018 FFF7FEFF 		bl	isr_timer_StartEx
  28:.\main.c      ****     SleepTimer_Start();
  58              		.loc 1 28 0
  59 001c FFF7FEFF 		bl	SleepTimer_Start
  29:.\main.c      ****     clear_packet();
  60              		.loc 1 29 0
  61 0020 FFF7FEFF 		bl	clear_packet
  30:.\main.c      ****     CyGlobalIntEnable;
  62              		.loc 1 30 0
  63              	@ 30 ".\main.c" 1
  64 0024 62B6     		CPSIE   i
  65              	@ 0 "" 2
  31:.\main.c      ****     
  32:.\main.c      ****     // =======
  33:.\main.c      ****     modem_power_on();
  66              		.loc 1 33 0
  67              		.thumb
  68 0026 FFF7FEFF 		bl	modem_power_on
  34:.\main.c      ****     CyDelay(5000);
  69              		.loc 1 34 0
  70 002a 41F28830 		movw	r0, #5000
  71 002e FFF7FEFF 		bl	CyDelay
  35:.\main.c      ****     modem_power_off();
  72              		.loc 1 35 0
  73 0032 FFF7FEFF 		bl	modem_power_off
  74              	.L2:
  36:.\main.c      ****     while(1){}
ARM GAS  C:\Users\karunmj\AppData\Local\Temp\cc1MCx1R.s 			page 3


  75              		.loc 1 36 0
  76 0036 FEE7     		b	.L2
  77              		.cfi_endproc
  78              	.LFE29:
  79              		.size	main, .-main
  80              		.section	.text.isr_timer,"ax",%progbits
  81              		.align	2
  82              		.global	isr_timer
  83              		.thumb
  84              		.thumb_func
  85              		.type	isr_timer, %function
  86              	isr_timer:
  87              	.LFB30:
  37:.\main.c      ****     // =======
  38:.\main.c      ****     
  39:.\main.c      ****     for(;;){
  40:.\main.c      ****         if(packet_ready){
  41:.\main.c      ****             if(modem_state == MODEM_STATE_OFF){
  42:.\main.c      ****                 modem_power_on();
  43:.\main.c      ****             }
  44:.\main.c      ****             else if(modem_state == MODEM_STATE_IDLE){
  45:.\main.c      ****                 // send packet
  46:.\main.c      ****                 if(!modem_send_packet(data_packet)){      // if packet failed to send
  47:.\main.c      ****                     modem_reset();
  48:.\main.c      ****                     modem_power_off();
  49:.\main.c      ****                 }
  50:.\main.c      ****                 else{                                     // if packet successfully sent
  51:.\main.c      ****                     modem_power_off();
  52:.\main.c      ****                     clear_packet();
  53:.\main.c      ****                 }
  54:.\main.c      ****             }
  55:.\main.c      ****         }
  56:.\main.c      ****         else{
  57:.\main.c      ****             //go to sleep
  58:.\main.c      ****         }
  59:.\main.c      ****     }
  60:.\main.c      **** }
  61:.\main.c      **** 
  62:.\main.c      **** CY_ISR(isr_timer){
  88              		.loc 1 62 0
  89              		.cfi_startproc
  90              		@ args = 0, pretend = 0, frame = 24
  91              		@ frame_needed = 1, uses_anonymous_args = 0
  92 0000 80B5     		push	{r7, lr}
  93              	.LCFI2:
  94              		.cfi_def_cfa_offset 8
  95 0002 86B0     		sub	sp, sp, #24
  96              	.LCFI3:
  97              		.cfi_def_cfa_offset 32
  98 0004 00AF     		add	r7, sp, #0
  99              		.cfi_offset 14, -4
 100              		.cfi_offset 7, -8
 101              	.LCFI4:
 102              		.cfi_def_cfa_register 7
  63:.\main.c      ****     uint8 i, j;
  64:.\main.c      ****     uint8 ultrasonic_packet[16]; 
  65:.\main.c      ****     ultrasonic_read(ultrasonic_packet, 16u);
ARM GAS  C:\Users\karunmj\AppData\Local\Temp\cc1MCx1R.s 			page 4


 103              		.loc 1 65 0
 104 0006 07F10403 		add	r3, r7, #4
 105 000a 1846     		mov	r0, r3
 106 000c 4FF01001 		mov	r1, #16
 107 0010 FFF7FEFF 		bl	ultrasonic_read
  66:.\main.c      ****     
  67:.\main.c      ****     // add terminal sequence to packet
  68:.\main.c      ****     char term_seq[] = "\032";
 108              		.loc 1 68 0
 109 0014 4FF01A03 		mov	r3, #26
 110 0018 3B80     		strh	r3, [r7, #0]	@ movhi
  69:.\main.c      ****     for(i=0, j=0; j<sizeof(term_seq); i++){
 111              		.loc 1 69 0
 112 001a 4FF00003 		mov	r3, #0
 113 001e BB75     		strb	r3, [r7, #22]
 114 0020 4FF00003 		mov	r3, #0
 115 0024 FB75     		strb	r3, [r7, #23]
 116 0026 1BE0     		b	.L5
 117              	.L7:
  70:.\main.c      ****         if(ultrasonic_packet[i] == 0u){
 118              		.loc 1 70 0
 119 0028 BB7D     		ldrb	r3, [r7, #22]	@ zero_extendqisi2
 120 002a 07F11801 		add	r1, r7, #24
 121 002e 0B44     		add	r3, r1, r3
 122 0030 13F8143C 		ldrb	r3, [r3, #-20]	@ zero_extendqisi2
 123 0034 002B     		cmp	r3, #0
 124 0036 0FD1     		bne	.L6
  71:.\main.c      ****             ultrasonic_packet[i] = term_seq[j];
 125              		.loc 1 71 0
 126 0038 BB7D     		ldrb	r3, [r7, #22]	@ zero_extendqisi2
 127 003a FA7D     		ldrb	r2, [r7, #23]	@ zero_extendqisi2
 128 003c 07F11801 		add	r1, r7, #24
 129 0040 0A44     		add	r2, r1, r2
 130 0042 12F8182C 		ldrb	r2, [r2, #-24]	@ zero_extendqisi2
 131 0046 07F11801 		add	r1, r7, #24
 132 004a 0B44     		add	r3, r1, r3
 133 004c 03F8142C 		strb	r2, [r3, #-20]
  72:.\main.c      ****             j++;
 134              		.loc 1 72 0
 135 0050 FB7D     		ldrb	r3, [r7, #23]
 136 0052 03F10103 		add	r3, r3, #1
 137 0056 FB75     		strb	r3, [r7, #23]
 138              	.L6:
 139              		.loc 1 69 0
 140 0058 BB7D     		ldrb	r3, [r7, #22]
 141 005a 03F10103 		add	r3, r3, #1
 142 005e BB75     		strb	r3, [r7, #22]
 143              	.L5:
 144 0060 FB7D     		ldrb	r3, [r7, #23]	@ zero_extendqisi2
 145 0062 012B     		cmp	r3, #1
 146 0064 E0D9     		bls	.L7
  73:.\main.c      ****         }
  74:.\main.c      ****     }
  75:.\main.c      **** 
  76:.\main.c      ****     write_packet(ultrasonic_packet, 16u);
 147              		.loc 1 76 0
 148 0066 07F10403 		add	r3, r7, #4
ARM GAS  C:\Users\karunmj\AppData\Local\Temp\cc1MCx1R.s 			page 5


 149 006a 1846     		mov	r0, r3
 150 006c 4FF01001 		mov	r1, #16
 151 0070 FFF7FEFF 		bl	write_packet
  77:.\main.c      ****     timer_ReadStatusRegister();
 152              		.loc 1 77 0
 153 0074 FFF7FEFF 		bl	timer_ReadStatusRegister
  78:.\main.c      **** }
 154              		.loc 1 78 0
 155 0078 07F11807 		add	r7, r7, #24
 156 007c BD46     		mov	sp, r7
 157 007e 80BD     		pop	{r7, pc}
 158              		.cfi_endproc
 159              	.LFE30:
 160              		.size	isr_timer, .-isr_timer
 161              		.section	.text.write_packet,"ax",%progbits
 162              		.align	2
 163              		.global	write_packet
 164              		.thumb
 165              		.thumb_func
 166              		.type	write_packet, %function
 167              	write_packet:
 168              	.LFB31:
  79:.\main.c      **** 
  80:.\main.c      **** void write_packet(uint8* packet, uint8 size){
 169              		.loc 1 80 0
 170              		.cfi_startproc
 171              		@ args = 0, pretend = 0, frame = 16
 172              		@ frame_needed = 1, uses_anonymous_args = 0
 173              		@ link register save eliminated.
 174 0000 80B4     		push	{r7}
 175              	.LCFI5:
 176              		.cfi_def_cfa_offset 4
 177 0002 85B0     		sub	sp, sp, #20
 178              	.LCFI6:
 179              		.cfi_def_cfa_offset 24
 180 0004 00AF     		add	r7, sp, #0
 181              		.cfi_offset 7, -4
 182              	.LCFI7:
 183              		.cfi_def_cfa_register 7
 184 0006 7860     		str	r0, [r7, #4]
 185 0008 0B46     		mov	r3, r1
 186 000a FB70     		strb	r3, [r7, #3]
  81:.\main.c      ****     uint8 i;
  82:.\main.c      ****     for(i = 0u; i < size; i++){
 187              		.loc 1 82 0
 188 000c 4FF00003 		mov	r3, #0
 189 0010 FB73     		strb	r3, [r7, #15]
 190 0012 0DE0     		b	.L10
 191              	.L11:
  83:.\main.c      ****         data_packet[i] = packet[i];
 192              		.loc 1 83 0
 193 0014 FA7B     		ldrb	r2, [r7, #15]	@ zero_extendqisi2
 194 0016 F97B     		ldrb	r1, [r7, #15]	@ zero_extendqisi2
 195 0018 7B68     		ldr	r3, [r7, #4]
 196 001a 0B44     		add	r3, r1, r3
 197 001c 1978     		ldrb	r1, [r3, #0]	@ zero_extendqisi2
 198 001e 40F20003 		movw	r3, #:lower16:data_packet
ARM GAS  C:\Users\karunmj\AppData\Local\Temp\cc1MCx1R.s 			page 6


 199 0022 C0F20003 		movt	r3, #:upper16:data_packet
 200 0026 9954     		strb	r1, [r3, r2]
 201              		.loc 1 82 0
 202 0028 FB7B     		ldrb	r3, [r7, #15]
 203 002a 03F10103 		add	r3, r3, #1
 204 002e FB73     		strb	r3, [r7, #15]
 205              	.L10:
 206 0030 FA7B     		ldrb	r2, [r7, #15]	@ zero_extendqisi2
 207 0032 FB78     		ldrb	r3, [r7, #3]	@ zero_extendqisi2
 208 0034 9A42     		cmp	r2, r3
 209 0036 EDD3     		bcc	.L11
  84:.\main.c      ****     }
  85:.\main.c      ****     packet_ready = 1u; 
 210              		.loc 1 85 0
 211 0038 40F20003 		movw	r3, #:lower16:packet_ready
 212 003c C0F20003 		movt	r3, #:upper16:packet_ready
 213 0040 4FF00102 		mov	r2, #1
 214 0044 1A70     		strb	r2, [r3, #0]
  86:.\main.c      ****     data_packet_size = size;
 215              		.loc 1 86 0
 216 0046 40F20003 		movw	r3, #:lower16:data_packet_size
 217 004a C0F20003 		movt	r3, #:upper16:data_packet_size
 218 004e FA78     		ldrb	r2, [r7, #3]
 219 0050 1A70     		strb	r2, [r3, #0]
  87:.\main.c      **** }
 220              		.loc 1 87 0
 221 0052 07F11407 		add	r7, r7, #20
 222 0056 BD46     		mov	sp, r7
 223 0058 80BC     		pop	{r7}
 224 005a 7047     		bx	lr
 225              		.cfi_endproc
 226              	.LFE31:
 227              		.size	write_packet, .-write_packet
 228              		.section	.text.clear_packet,"ax",%progbits
 229              		.align	2
 230              		.global	clear_packet
 231              		.thumb
 232              		.thumb_func
 233              		.type	clear_packet, %function
 234              	clear_packet:
 235              	.LFB32:
  88:.\main.c      **** 
  89:.\main.c      **** void clear_packet(){
 236              		.loc 1 89 0
 237              		.cfi_startproc
 238              		@ args = 0, pretend = 0, frame = 8
 239              		@ frame_needed = 1, uses_anonymous_args = 0
 240              		@ link register save eliminated.
 241 0000 80B4     		push	{r7}
 242              	.LCFI8:
 243              		.cfi_def_cfa_offset 4
 244 0002 83B0     		sub	sp, sp, #12
 245              	.LCFI9:
 246              		.cfi_def_cfa_offset 16
 247 0004 00AF     		add	r7, sp, #0
 248              		.cfi_offset 7, -4
 249              	.LCFI10:
ARM GAS  C:\Users\karunmj\AppData\Local\Temp\cc1MCx1R.s 			page 7


 250              		.cfi_def_cfa_register 7
  90:.\main.c      ****     uint8 i;
  91:.\main.c      ****     for(i = 0u; i < MAX_PACKET_SIZE; i++){
 251              		.loc 1 91 0
 252 0006 4FF00003 		mov	r3, #0
 253 000a FB71     		strb	r3, [r7, #7]
 254 000c 0BE0     		b	.L14
 255              	.L15:
  92:.\main.c      ****         data_packet[i] = 0;
 256              		.loc 1 92 0
 257 000e FA79     		ldrb	r2, [r7, #7]	@ zero_extendqisi2
 258 0010 40F20003 		movw	r3, #:lower16:data_packet
 259 0014 C0F20003 		movt	r3, #:upper16:data_packet
 260 0018 4FF00001 		mov	r1, #0
 261 001c 9954     		strb	r1, [r3, r2]
 262              		.loc 1 91 0
 263 001e FB79     		ldrb	r3, [r7, #7]
 264 0020 03F10103 		add	r3, r3, #1
 265 0024 FB71     		strb	r3, [r7, #7]
 266              	.L14:
 267 0026 FB79     		ldrb	r3, [r7, #7]	@ zero_extendqisi2
 268 0028 5BB2     		sxtb	r3, r3
 269 002a 002B     		cmp	r3, #0
 270 002c EFDA     		bge	.L15
  93:.\main.c      ****     }
  94:.\main.c      ****     packet_ready = 0u;
 271              		.loc 1 94 0
 272 002e 40F20003 		movw	r3, #:lower16:packet_ready
 273 0032 C0F20003 		movt	r3, #:upper16:packet_ready
 274 0036 4FF00002 		mov	r2, #0
 275 003a 1A70     		strb	r2, [r3, #0]
  95:.\main.c      ****     data_packet_size = 0u;
 276              		.loc 1 95 0
 277 003c 40F20003 		movw	r3, #:lower16:data_packet_size
 278 0040 C0F20003 		movt	r3, #:upper16:data_packet_size
 279 0044 4FF00002 		mov	r2, #0
 280 0048 1A70     		strb	r2, [r3, #0]
  96:.\main.c      **** }
 281              		.loc 1 96 0
 282 004a 07F10C07 		add	r7, r7, #12
 283 004e BD46     		mov	sp, r7
 284 0050 80BC     		pop	{r7}
 285 0052 7047     		bx	lr
 286              		.cfi_endproc
 287              	.LFE32:
 288              		.size	clear_packet, .-clear_packet
 289              		.text
 290              	.Letext0: