ARM GAS  C:\Users\karunmj\AppData\Local\Temp\ccW0Daas.s 			page 1


   1              		.syntax unified
   2              		.cpu cortex-m3
   3              		.fpu softvfp
   4              		.eabi_attribute 20, 1
   5              		.eabi_attribute 21, 1
   6              		.eabi_attribute 23, 3
   7              		.eabi_attribute 24, 1
   8              		.eabi_attribute 25, 1
   9              		.eabi_attribute 26, 1
  10              		.eabi_attribute 30, 6
  11              		.eabi_attribute 18, 4
  12              		.thumb
  13              		.file	"modem.c"
  20 0000 24010000 		.text
  20      02006200 
  20      00000201 
  20      FB0E0D00 
  20      01010101 
  21              	.Ltext0:
  22              		.cfi_sections	.debug_frame
  23              		.comm	modem_state,1,1
  24              		.comm	uart_received_string,128,4
  25              		.global	uart_string_index
  26              		.bss
  27              		.type	uart_string_index, %object
  28              		.size	uart_string_index, 1
  29              	uart_string_index:
  30 0000 00       		.space	1
  31              		.section	.text.modem_start,"ax",%progbits
  32              		.align	2
  33              		.global	modem_start
  34              		.thumb
  35              		.thumb_func
  36              		.type	modem_start, %function
  37              	modem_start:
  38              	.LFB29:
  39              		.file 1 ".\\modem.c"
   1:.\modem.c     **** ///* ========================================
   2:.\modem.c     **** // *
   3:.\modem.c     **** // * Copyright YOUR COMPANY, THE YEAR
   4:.\modem.c     **** // * All Rights Reserved
   5:.\modem.c     **** // * UNPUBLISHED, LICENSED SOFTWARE.
   6:.\modem.c     **** // *
   7:.\modem.c     **** // * CONFIDENTIAL AND PROPRIETARY INFORMATION
   8:.\modem.c     **** // * WHICH IS THE PROPERTY OF your company.
   9:.\modem.c     **** // *
  10:.\modem.c     **** // * ========================================
  11:.\modem.c     **** //*/
  12:.\modem.c     **** //
  13:.\modem.c     **** 
  14:.\modem.c     **** #include <device.h>
ARM GAS  C:\Users\karunmj\AppData\Local\Temp\ccW0Daas.s 			page 2


  15:.\modem.c     **** #include <string.h>
  16:.\modem.c     **** #include "modem.h"
  17:.\modem.c     **** 
  18:.\modem.c     **** // declare varaiables
  19:.\modem.c     **** uint8 uart_received_string[128];
  20:.\modem.c     **** uint8 uart_string_index = 0;
  21:.\modem.c     **** 
  22:.\modem.c     **** // prototype modem interrupt
  23:.\modem.c     **** CY_ISR_PROTO(isr_byte_rx);
  24:.\modem.c     **** 
  25:.\modem.c     **** // prototype functions
  26:.\modem.c     **** void uart_string_reset();
  27:.\modem.c     **** void at_command_write(uint8 uart_string, uint8 uart_timeout);
  28:.\modem.c     **** 
  29:.\modem.c     **** // initialize modem
  30:.\modem.c     **** void modem_start(){
  40              		.loc 1 30 0
  41              		.cfi_startproc
  42              		@ args = 0, pretend = 0, frame = 0
  43              		@ frame_needed = 1, uses_anonymous_args = 0
  44 0000 80B5     		push	{r7, lr}
  45              	.LCFI0:
  46              		.cfi_def_cfa_offset 8
  47 0002 00AF     		add	r7, sp, #0
  48              		.cfi_offset 14, -4
  49              		.cfi_offset 7, -8
  50              	.LCFI1:
  51              		.cfi_def_cfa_register 7
  31:.\modem.c     ****     uart_Start();
  52              		.loc 1 31 0
  53 0004 FFF7FEFF 		bl	uart_Start
  32:.\modem.c     ****     isr_byte_rx_StartEx(isr_byte_rx);
  54              		.loc 1 32 0
  55 0008 40F20000 		movw	r0, #:lower16:isr_byte_rx
  56 000c C0F20000 		movt	r0, #:upper16:isr_byte_rx
  57 0010 FFF7FEFF 		bl	isr_byte_rx_StartEx
  33:.\modem.c     ****     modem_state = MODEM_STATE_OFF;
  58              		.loc 1 33 0
  59 0014 40F20003 		movw	r3, #:lower16:modem_state
  60 0018 C0F20003 		movt	r3, #:upper16:modem_state
  61 001c 4FF00002 		mov	r2, #0
  62 0020 1A70     		strb	r2, [r3, #0]
  34:.\modem.c     **** }
  63              		.loc 1 34 0
  64 0022 80BD     		pop	{r7, pc}
  65              		.cfi_endproc
  66              	.LFE29:
  67              		.size	modem_start, .-modem_start
  68              		.section	.rodata
  69              		.align	2
  70              	.LC0:
  71 0000 00       		.ascii	"\000"
  72              		.section	.text.at_write_command,"ax",%progbits
  73              		.align	2
  74              		.global	at_write_command
  75              		.thumb
  76              		.thumb_func
ARM GAS  C:\Users\karunmj\AppData\Local\Temp\ccW0Daas.s 			page 3


  77              		.type	at_write_command, %function
  78              	at_write_command:
  79              	.LFB30:
  35:.\modem.c     **** 
  36:.\modem.c     **** // send at-command to modem
  37:.\modem.c     **** uint8 at_write_command(uint8* uart_string, uint8* expected_response, uint32 uart_timeout){
  80              		.loc 1 37 0
  81              		.cfi_startproc
  82              		@ args = 0, pretend = 0, frame = 40
  83              		@ frame_needed = 1, uses_anonymous_args = 0
  84 0000 80B5     		push	{r7, lr}
  85              	.LCFI2:
  86              		.cfi_def_cfa_offset 8
  87 0002 8AB0     		sub	sp, sp, #40
  88              	.LCFI3:
  89              		.cfi_def_cfa_offset 48
  90 0004 00AF     		add	r7, sp, #0
  91              		.cfi_offset 14, -4
  92              		.cfi_offset 7, -8
  93              	.LCFI4:
  94              		.cfi_def_cfa_register 7
  95 0006 F860     		str	r0, [r7, #12]
  96 0008 B960     		str	r1, [r7, #8]
  97 000a 7A60     		str	r2, [r7, #4]
  38:.\modem.c     ****     uint8 response = 0u;
  98              		.loc 1 38 0
  99 000c 4FF00003 		mov	r3, #0
 100 0010 FB75     		strb	r3, [r7, #23]
  39:.\modem.c     ****     uint32 i = 0u;
 101              		.loc 1 39 0
 102 0012 4FF00003 		mov	r3, #0
 103 0016 BB61     		str	r3, [r7, #24]
  40:.\modem.c     ****     uint32 delay = 100u;
 104              		.loc 1 40 0
 105 0018 4FF06403 		mov	r3, #100
 106 001c FB61     		str	r3, [r7, #28]
  41:.\modem.c     ****     uint32 interval = uart_timeout/delay;
 107              		.loc 1 41 0
 108 001e 7A68     		ldr	r2, [r7, #4]
 109 0020 FB69     		ldr	r3, [r7, #28]
 110 0022 B2FBF3F3 		udiv	r3, r2, r3
 111 0026 3B62     		str	r3, [r7, #32]
  42:.\modem.c     ****     
  43:.\modem.c     ****     uart_string_reset();
 112              		.loc 1 43 0
 113 0028 FFF7FEFF 		bl	uart_string_reset
  44:.\modem.c     ****     uart_PutString(uart_string);
 114              		.loc 1 44 0
 115 002c F868     		ldr	r0, [r7, #12]
 116 002e FFF7FEFF 		bl	uart_PutString
  45:.\modem.c     ****     
  46:.\modem.c     ****     if(expected_response != ""){
 117              		.loc 1 46 0
 118 0032 BA68     		ldr	r2, [r7, #8]
 119 0034 40F20003 		movw	r3, #:lower16:.LC0
 120 0038 C0F20003 		movt	r3, #:upper16:.LC0
 121 003c 9A42     		cmp	r2, r3
ARM GAS  C:\Users\karunmj\AppData\Local\Temp\ccW0Daas.s 			page 4


 122 003e 1ED0     		beq	.L4
  47:.\modem.c     ****         for(i=0;i<interval;i++){
 123              		.loc 1 47 0
 124 0040 4FF00003 		mov	r3, #0
 125 0044 BB61     		str	r3, [r7, #24]
 126 0046 16E0     		b	.L5
 127              	.L7:
 128              	.LBB2:
  48:.\modem.c     ****             uint16 valid = strstr ( uart_received_string, expected_response );
 129              		.loc 1 48 0
 130 0048 40F20000 		movw	r0, #:lower16:uart_received_string
 131 004c C0F20000 		movt	r0, #:upper16:uart_received_string
 132 0050 B968     		ldr	r1, [r7, #8]
 133 0052 FFF7FEFF 		bl	strstr
 134 0056 0346     		mov	r3, r0
 135 0058 FB84     		strh	r3, [r7, #38]	@ movhi
  49:.\modem.c     ****             if(valid != NULL){
 136              		.loc 1 49 0
 137 005a FB8C     		ldrh	r3, [r7, #38]
 138 005c 002B     		cmp	r3, #0
 139 005e 03D0     		beq	.L6
  50:.\modem.c     ****                 response = 1u;
 140              		.loc 1 50 0
 141 0060 4FF00103 		mov	r3, #1
 142 0064 FB75     		strb	r3, [r7, #23]
  51:.\modem.c     ****                 break;
 143              		.loc 1 51 0
 144 0066 0AE0     		b	.L4
 145              	.L6:
  52:.\modem.c     ****             }
  53:.\modem.c     ****         CyDelay(delay);
 146              		.loc 1 53 0
 147 0068 F869     		ldr	r0, [r7, #28]
 148 006a FFF7FEFF 		bl	CyDelay
 149              	.LBE2:
 150              		.loc 1 47 0
 151 006e BB69     		ldr	r3, [r7, #24]
 152 0070 03F10103 		add	r3, r3, #1
 153 0074 BB61     		str	r3, [r7, #24]
 154              	.L5:
 155 0076 BA69     		ldr	r2, [r7, #24]
 156 0078 3B6A     		ldr	r3, [r7, #32]
 157 007a 9A42     		cmp	r2, r3
 158 007c E4D3     		bcc	.L7
 159              	.L4:
  54:.\modem.c     ****         }
  55:.\modem.c     ****     }
  56:.\modem.c     ****     
  57:.\modem.c     ****     modem_voltage_pin_Write(1u);
 160              		.loc 1 57 0
 161 007e 4FF00100 		mov	r0, #1
 162 0082 FFF7FEFF 		bl	modem_voltage_pin_Write
  58:.\modem.c     ****     
  59:.\modem.c     ****     return response;
 163              		.loc 1 59 0
 164 0086 FB7D     		ldrb	r3, [r7, #23]	@ zero_extendqisi2
  60:.\modem.c     **** }
ARM GAS  C:\Users\karunmj\AppData\Local\Temp\ccW0Daas.s 			page 5


 165              		.loc 1 60 0
 166 0088 1846     		mov	r0, r3
 167 008a 07F12807 		add	r7, r7, #40
 168 008e BD46     		mov	sp, r7
 169 0090 80BD     		pop	{r7, pc}
 170              		.cfi_endproc
 171              	.LFE30:
 172              		.size	at_write_command, .-at_write_command
 173 0092 00BF     		.section	.text.modem_power_on,"ax",%progbits
 174              		.align	2
 175              		.global	modem_power_on
 176              		.thumb
 177              		.thumb_func
 178              		.type	modem_power_on, %function
 179              	modem_power_on:
 180              	.LFB31:
  61:.\modem.c     **** 
  62:.\modem.c     **** uint8 modem_power_on(){
 181              		.loc 1 62 0
 182              		.cfi_startproc
 183              		@ args = 0, pretend = 0, frame = 0
 184              		@ frame_needed = 1, uses_anonymous_args = 0
 185 0000 80B5     		push	{r7, lr}
 186              	.LCFI5:
 187              		.cfi_def_cfa_offset 8
 188 0002 00AF     		add	r7, sp, #0
 189              		.cfi_offset 14, -4
 190              		.cfi_offset 7, -8
 191              	.LCFI6:
 192              		.cfi_def_cfa_register 7
  63:.\modem.c     ****     modem_voltage_pin_Write(0u); //provide power to modem
 193              		.loc 1 63 0
 194 0004 4FF00000 		mov	r0, #0
 195 0008 FFF7FEFF 		bl	modem_voltage_pin_Write
  64:.\modem.c     ****     modem_power_pin_Write(0u);
 196              		.loc 1 64 0
 197 000c 4FF00000 		mov	r0, #0
 198 0010 FFF7FEFF 		bl	modem_power_pin_Write
  65:.\modem.c     ****     CyDelay(1500u);
 199              		.loc 1 65 0
 200 0014 40F2DC50 		movw	r0, #1500
 201 0018 FFF7FEFF 		bl	CyDelay
  66:.\modem.c     ****     modem_power_pin_Write(1u);
 202              		.loc 1 66 0
 203 001c 4FF00100 		mov	r0, #1
 204 0020 FFF7FEFF 		bl	modem_power_pin_Write
  67:.\modem.c     ****     CyDelay(5000u);
 205              		.loc 1 67 0
 206 0024 41F28830 		movw	r0, #5000
 207 0028 FFF7FEFF 		bl	CyDelay
  68:.\modem.c     ****     modem_state = MODEM_STATE_IDLE;
 208              		.loc 1 68 0
 209 002c 40F20003 		movw	r3, #:lower16:modem_state
 210 0030 C0F20003 		movt	r3, #:upper16:modem_state
 211 0034 4FF00102 		mov	r2, #1
 212 0038 1A70     		strb	r2, [r3, #0]
  69:.\modem.c     **** }
ARM GAS  C:\Users\karunmj\AppData\Local\Temp\ccW0Daas.s 			page 6


 213              		.loc 1 69 0
 214 003a 80BD     		pop	{r7, pc}
 215              		.cfi_endproc
 216              	.LFE31:
 217              		.size	modem_power_on, .-modem_power_on
 218              		.section	.text.modem_power_off,"ax",%progbits
 219              		.align	2
 220              		.global	modem_power_off
 221              		.thumb
 222              		.thumb_func
 223              		.type	modem_power_off, %function
 224              	modem_power_off:
 225              	.LFB32:
  70:.\modem.c     **** 
  71:.\modem.c     **** uint8 modem_power_off(){
 226              		.loc 1 71 0
 227              		.cfi_startproc
 228              		@ args = 0, pretend = 0, frame = 0
 229              		@ frame_needed = 1, uses_anonymous_args = 0
 230 0000 80B5     		push	{r7, lr}
 231              	.LCFI7:
 232              		.cfi_def_cfa_offset 8
 233 0002 00AF     		add	r7, sp, #0
 234              		.cfi_offset 14, -4
 235              		.cfi_offset 7, -8
 236              	.LCFI8:
 237              		.cfi_def_cfa_register 7
  72:.\modem.c     ****     modem_power_pin_Write(0u);
 238              		.loc 1 72 0
 239 0004 4FF00000 		mov	r0, #0
 240 0008 FFF7FEFF 		bl	modem_power_pin_Write
  73:.\modem.c     ****     CyDelay(1500u);
 241              		.loc 1 73 0
 242 000c 40F2DC50 		movw	r0, #1500
 243 0010 FFF7FEFF 		bl	CyDelay
  74:.\modem.c     ****     modem_power_pin_Write(1u);
 244              		.loc 1 74 0
 245 0014 4FF00100 		mov	r0, #1
 246 0018 FFF7FEFF 		bl	modem_power_pin_Write
  75:.\modem.c     ****     CyDelay(5000u); // wait for module to turn off
 247              		.loc 1 75 0
 248 001c 41F28830 		movw	r0, #5000
 249 0020 FFF7FEFF 		bl	CyDelay
  76:.\modem.c     ****     modem_voltage_pin_Write(1u); // cut power to modem
 250              		.loc 1 76 0
 251 0024 4FF00100 		mov	r0, #1
 252 0028 FFF7FEFF 		bl	modem_voltage_pin_Write
  77:.\modem.c     ****     modem_state = MODEM_STATE_OFF;
 253              		.loc 1 77 0
 254 002c 40F20003 		movw	r3, #:lower16:modem_state
 255 0030 C0F20003 		movt	r3, #:upper16:modem_state
 256 0034 4FF00002 		mov	r2, #0
 257 0038 1A70     		strb	r2, [r3, #0]
  78:.\modem.c     **** }
 258              		.loc 1 78 0
 259 003a 80BD     		pop	{r7, pc}
 260              		.cfi_endproc
ARM GAS  C:\Users\karunmj\AppData\Local\Temp\ccW0Daas.s 			page 7


 261              	.LFE32:
 262              		.size	modem_power_off, .-modem_power_off
 263              		.section	.text.modem_reset,"ax",%progbits
 264              		.align	2
 265              		.global	modem_reset
 266              		.thumb
 267              		.thumb_func
 268              		.type	modem_reset, %function
 269              	modem_reset:
 270              	.LFB33:
  79:.\modem.c     **** 
  80:.\modem.c     **** // resets the modem
  81:.\modem.c     **** uint8 modem_reset(){
 271              		.loc 1 81 0
 272              		.cfi_startproc
 273              		@ args = 0, pretend = 0, frame = 0
 274              		@ frame_needed = 1, uses_anonymous_args = 0
 275              		@ link register save eliminated.
 276 0000 80B4     		push	{r7}
 277              	.LCFI9:
 278              		.cfi_def_cfa_offset 4
 279 0002 00AF     		add	r7, sp, #0
 280              		.cfi_offset 7, -4
 281              	.LCFI10:
 282              		.cfi_def_cfa_register 7
  82:.\modem.c     **** }
 283              		.loc 1 82 0
 284 0004 BD46     		mov	sp, r7
 285 0006 80BC     		pop	{r7}
 286 0008 7047     		bx	lr
 287              		.cfi_endproc
 288              	.LFE33:
 289              		.size	modem_reset, .-modem_reset
 290 000a 00BF     		.section	.rodata
 291 0001 000000   		.align	2
 292              	.LC1:
 293 0004 41542B43 		.ascii	"AT+CMGF=1\015\000"
 293      4D47463D 
 293      310D00
 294 000f 00       		.align	2
 295              	.LC2:
 296 0010 4F4B00   		.ascii	"OK\000"
 297 0013 00       		.align	2
 298              	.LC3:
 299 0014 41542B43 		.ascii	"AT+CMGS=\"+6174407448\"\015\000"
 299      4D47533D 
 299      222B3631 
 299      37343430 
 299      37343438 
 300 002b 00       		.align	2
 301              	.LC4:
 302 002c 3E00     		.ascii	">\000"
 303 002e 0000     		.section	.text.modem_send_packet,"ax",%progbits
 304              		.align	2
 305              		.global	modem_send_packet
 306              		.thumb
 307              		.thumb_func
ARM GAS  C:\Users\karunmj\AppData\Local\Temp\ccW0Daas.s 			page 8


 308              		.type	modem_send_packet, %function
 309              	modem_send_packet:
 310              	.LFB34:
  83:.\modem.c     **** 
  84:.\modem.c     **** // send sms to twilio server
  85:.\modem.c     **** uint8 modem_send_packet(uint8* packet){
 311              		.loc 1 85 0
 312              		.cfi_startproc
 313              		@ args = 0, pretend = 0, frame = 8
 314              		@ frame_needed = 1, uses_anonymous_args = 0
 315 0000 80B5     		push	{r7, lr}
 316              	.LCFI11:
 317              		.cfi_def_cfa_offset 8
 318 0002 82B0     		sub	sp, sp, #8
 319              	.LCFI12:
 320              		.cfi_def_cfa_offset 16
 321 0004 00AF     		add	r7, sp, #0
 322              		.cfi_offset 14, -4
 323              		.cfi_offset 7, -8
 324              	.LCFI13:
 325              		.cfi_def_cfa_register 7
 326 0006 7860     		str	r0, [r7, #4]
  86:.\modem.c     ****     // provide power
  87:.\modem.c     ****     uart_rx_voltage_pin_Write(0u);
 327              		.loc 1 87 0
 328 0008 4FF00000 		mov	r0, #0
 329 000c FFF7FEFF 		bl	uart_rx_voltage_pin_Write
  88:.\modem.c     ****     uart_tx_voltage_pin_Write(0u);
 330              		.loc 1 88 0
 331 0010 4FF00000 		mov	r0, #0
 332 0014 FFF7FEFF 		bl	uart_tx_voltage_pin_Write
  89:.\modem.c     ****     
  90:.\modem.c     ****     // send packet
  91:.\modem.c     ****     if(at_write_command("AT+CMGF=1\r","OK",15000u) != 0){
 333              		.loc 1 91 0
 334 0018 40F20000 		movw	r0, #:lower16:.LC1
 335 001c C0F20000 		movt	r0, #:upper16:.LC1
 336 0020 40F20001 		movw	r1, #:lower16:.LC2
 337 0024 C0F20001 		movt	r1, #:upper16:.LC2
 338 0028 43F69822 		movw	r2, #15000
 339 002c FFF7FEFF 		bl	at_write_command
 340 0030 0346     		mov	r3, r0
 341 0032 002B     		cmp	r3, #0
 342 0034 24D0     		beq	.L16
  92:.\modem.c     ****         if(at_write_command("AT+CMGS=\"+6174407448\"\r",">",5000u) != 0){
 343              		.loc 1 92 0
 344 0036 40F20000 		movw	r0, #:lower16:.LC3
 345 003a C0F20000 		movt	r0, #:upper16:.LC3
 346 003e 40F20001 		movw	r1, #:lower16:.LC4
 347 0042 C0F20001 		movt	r1, #:upper16:.LC4
 348 0046 41F28832 		movw	r2, #5000
 349 004a FFF7FEFF 		bl	at_write_command
 350 004e 0346     		mov	r3, r0
 351 0050 002B     		cmp	r3, #0
 352 0052 15D0     		beq	.L16
  93:.\modem.c     ****             if(at_write_command(packet,"OK",20000u) != 0){
 353              		.loc 1 93 0
ARM GAS  C:\Users\karunmj\AppData\Local\Temp\ccW0Daas.s 			page 9


 354 0054 7868     		ldr	r0, [r7, #4]
 355 0056 40F20001 		movw	r1, #:lower16:.LC2
 356 005a C0F20001 		movt	r1, #:upper16:.LC2
 357 005e 44F62062 		movw	r2, #20000
 358 0062 FFF7FEFF 		bl	at_write_command
 359 0066 0346     		mov	r3, r0
 360 0068 002B     		cmp	r3, #0
 361 006a 09D0     		beq	.L16
  94:.\modem.c     ****                 modem_state = MODEM_STATE_READY;
 362              		.loc 1 94 0
 363 006c 40F20003 		movw	r3, #:lower16:modem_state
 364 0070 C0F20003 		movt	r3, #:upper16:modem_state
 365 0074 4FF00302 		mov	r2, #3
 366 0078 1A70     		strb	r2, [r3, #0]
  95:.\modem.c     ****                 return 1u;   // return 1 if succesfully sent sms
 367              		.loc 1 95 0
 368 007a 4FF00103 		mov	r3, #1
 369 007e 09E0     		b	.L17
 370              	.L16:
  96:.\modem.c     ****             }
  97:.\modem.c     ****         }
  98:.\modem.c     ****     }
  99:.\modem.c     ****     
 100:.\modem.c     ****     // cut power
 101:.\modem.c     ****     uart_rx_voltage_pin_Write(1u);
 371              		.loc 1 101 0
 372 0080 4FF00100 		mov	r0, #1
 373 0084 FFF7FEFF 		bl	uart_rx_voltage_pin_Write
 102:.\modem.c     ****     uart_rx_voltage_pin_Write(1u);
 374              		.loc 1 102 0
 375 0088 4FF00100 		mov	r0, #1
 376 008c FFF7FEFF 		bl	uart_rx_voltage_pin_Write
 103:.\modem.c     ****     return 0u;   // return 0 if failure to send sms
 377              		.loc 1 103 0
 378 0090 4FF00003 		mov	r3, #0
 379              	.L17:
 104:.\modem.c     **** }
 380              		.loc 1 104 0
 381 0094 1846     		mov	r0, r3
 382 0096 07F10807 		add	r7, r7, #8
 383 009a BD46     		mov	sp, r7
 384 009c 80BD     		pop	{r7, pc}
 385              		.cfi_endproc
 386              	.LFE34:
 387              		.size	modem_send_packet, .-modem_send_packet
 388 009e 00BF     		.section	.text.uart_string_reset,"ax",%progbits
 389              		.align	2
 390              		.global	uart_string_reset
 391              		.thumb
 392              		.thumb_func
 393              		.type	uart_string_reset, %function
 394              	uart_string_reset:
 395              	.LFB35:
 105:.\modem.c     **** 
 106:.\modem.c     **** void uart_string_reset(){
 396              		.loc 1 106 0
 397              		.cfi_startproc
ARM GAS  C:\Users\karunmj\AppData\Local\Temp\ccW0Daas.s 			page 10


 398              		@ args = 0, pretend = 0, frame = 8
 399              		@ frame_needed = 1, uses_anonymous_args = 0
 400 0000 80B5     		push	{r7, lr}
 401              	.LCFI14:
 402              		.cfi_def_cfa_offset 8
 403 0002 82B0     		sub	sp, sp, #8
 404              	.LCFI15:
 405              		.cfi_def_cfa_offset 16
 406 0004 00AF     		add	r7, sp, #0
 407              		.cfi_offset 14, -4
 408              		.cfi_offset 7, -8
 409              	.LCFI16:
 410              		.cfi_def_cfa_register 7
 107:.\modem.c     ****     // reset uart_received_string to zero
 108:.\modem.c     ****     uint8 i = 0;
 411              		.loc 1 108 0
 412 0006 4FF00003 		mov	r3, #0
 413 000a FB71     		strb	r3, [r7, #7]
 109:.\modem.c     ****     
 110:.\modem.c     ****     for(i = 0; i < 128; i++){
 414              		.loc 1 110 0
 415 000c 4FF00003 		mov	r3, #0
 416 0010 FB71     		strb	r3, [r7, #7]
 417 0012 0BE0     		b	.L20
 418              	.L21:
 111:.\modem.c     ****         uart_received_string[i] = 0;
 419              		.loc 1 111 0
 420 0014 FA79     		ldrb	r2, [r7, #7]	@ zero_extendqisi2
 421 0016 40F20003 		movw	r3, #:lower16:uart_received_string
 422 001a C0F20003 		movt	r3, #:upper16:uart_received_string
 423 001e 4FF00001 		mov	r1, #0
 424 0022 9954     		strb	r1, [r3, r2]
 425              		.loc 1 110 0
 426 0024 FB79     		ldrb	r3, [r7, #7]
 427 0026 03F10103 		add	r3, r3, #1
 428 002a FB71     		strb	r3, [r7, #7]
 429              	.L20:
 430 002c FB79     		ldrb	r3, [r7, #7]	@ zero_extendqisi2
 431 002e 5BB2     		sxtb	r3, r3
 432 0030 002B     		cmp	r3, #0
 433 0032 EFDA     		bge	.L21
 112:.\modem.c     ****     }
 113:.\modem.c     ****     uart_string_index = 0;
 434              		.loc 1 113 0
 435 0034 40F20003 		movw	r3, #:lower16:uart_string_index
 436 0038 C0F20003 		movt	r3, #:upper16:uart_string_index
 437 003c 4FF00002 		mov	r2, #0
 438 0040 1A70     		strb	r2, [r3, #0]
 114:.\modem.c     ****     uart_ClearRxBuffer();
 439              		.loc 1 114 0
 440 0042 FFF7FEFF 		bl	uart_ClearRxBuffer
 115:.\modem.c     **** }
 441              		.loc 1 115 0
 442 0046 07F10807 		add	r7, r7, #8
 443 004a BD46     		mov	sp, r7
 444 004c 80BD     		pop	{r7, pc}
 445              		.cfi_endproc
ARM GAS  C:\Users\karunmj\AppData\Local\Temp\ccW0Daas.s 			page 11


 446              	.LFE35:
 447              		.size	uart_string_reset, .-uart_string_reset
 448 004e 00BF     		.section	.text.isr_byte_rx,"ax",%progbits
 449              		.align	2
 450              		.global	isr_byte_rx
 451              		.thumb
 452              		.thumb_func
 453              		.type	isr_byte_rx, %function
 454              	isr_byte_rx:
 455              	.LFB36:
 116:.\modem.c     **** 
 117:.\modem.c     **** // this function fires when uart rx receives bytes (when modem is sending bytes)
 118:.\modem.c     **** CY_ISR(isr_byte_rx){
 456              		.loc 1 118 0
 457              		.cfi_startproc
 458              		@ args = 0, pretend = 0, frame = 8
 459              		@ frame_needed = 1, uses_anonymous_args = 0
 460 0000 80B5     		push	{r7, lr}
 461              	.LCFI17:
 462              		.cfi_def_cfa_offset 8
 463 0002 82B0     		sub	sp, sp, #8
 464              	.LCFI18:
 465              		.cfi_def_cfa_offset 16
 466 0004 00AF     		add	r7, sp, #0
 467              		.cfi_offset 14, -4
 468              		.cfi_offset 7, -8
 469              	.LCFI19:
 470              		.cfi_def_cfa_register 7
 119:.\modem.c     ****     // hold the next char in the rx register as a temporary variable
 120:.\modem.c     ****     uint8 rx_char_hold = uart_GetChar();
 471              		.loc 1 120 0
 472 0006 FFF7FEFF 		bl	uart_GetChar
 473 000a 0346     		mov	r3, r0
 474 000c FB71     		strb	r3, [r7, #7]
 121:.\modem.c     ****     
 122:.\modem.c     ****     // store the char in uart_received_string
 123:.\modem.c     ****     if(rx_char_hold){
 475              		.loc 1 123 0
 476 000e FB79     		ldrb	r3, [r7, #7]	@ zero_extendqisi2
 477 0010 002B     		cmp	r3, #0
 478 0012 18D0     		beq	.L25
 124:.\modem.c     ****         uart_received_string[uart_string_index] = rx_char_hold;
 479              		.loc 1 124 0
 480 0014 40F20003 		movw	r3, #:lower16:uart_string_index
 481 0018 C0F20003 		movt	r3, #:upper16:uart_string_index
 482 001c 1B78     		ldrb	r3, [r3, #0]	@ zero_extendqisi2
 483 001e 1A46     		mov	r2, r3
 484 0020 40F20003 		movw	r3, #:lower16:uart_received_string
 485 0024 C0F20003 		movt	r3, #:upper16:uart_received_string
 486 0028 F979     		ldrb	r1, [r7, #7]
 487 002a 9954     		strb	r1, [r3, r2]
 125:.\modem.c     ****         uart_string_index++;
 488              		.loc 1 125 0
 489 002c 40F20003 		movw	r3, #:lower16:uart_string_index
 490 0030 C0F20003 		movt	r3, #:upper16:uart_string_index
 491 0034 1B78     		ldrb	r3, [r3, #0]	@ zero_extendqisi2
 492 0036 03F10103 		add	r3, r3, #1
ARM GAS  C:\Users\karunmj\AppData\Local\Temp\ccW0Daas.s 			page 12


 493 003a DAB2     		uxtb	r2, r3
 494 003c 40F20003 		movw	r3, #:lower16:uart_string_index
 495 0040 C0F20003 		movt	r3, #:upper16:uart_string_index
 496 0044 1A70     		strb	r2, [r3, #0]
 497              	.L25:
 126:.\modem.c     ****     }
 127:.\modem.c     **** }
 498              		.loc 1 127 0
 499 0046 07F10807 		add	r7, r7, #8
 500 004a BD46     		mov	sp, r7
 501 004c 80BD     		pop	{r7, pc}
 502              		.cfi_endproc
 503              	.LFE36:
 504              		.size	isr_byte_rx, .-isr_byte_rx
 505 004e 00BF     		.text
 506              	.Letext0: