ARM GAS  C:\Users\karunmj\AppData\Local\Temp\ccrE1ixd.s 			page 1


   1              		.syntax unified
   2              		.cpu cortex-m3
   3              		.fpu softvfp
   4              		.eabi_attribute 20, 1
   5              		.eabi_attribute 21, 1
   6              		.eabi_attribute 23, 3
   7              		.eabi_attribute 24, 1
   8              		.eabi_attribute 25, 1
   9              		.eabi_attribute 26, 1
  10              		.eabi_attribute 30, 6
  11              		.eabi_attribute 18, 4
  12              		.thumb
  13              		.file	"autosampler.c"
  20 0000 FB000000 		.text
  20      02006D00 
  20      00000201 
  20      FB0E0D00 
  20      01010101 
  21              	.Ltext0:
  22              		.cfi_sections	.debug_frame
  23              		.global	SampleCount
  24              		.bss
  25              		.type	SampleCount, %object
  26              		.size	SampleCount, 1
  27              	SampleCount:
  28 0000 00       		.space	1
  29              		.global	SampleCount1
  30              		.type	SampleCount1, %object
  31              		.size	SampleCount1, 1
  32              	SampleCount1:
  33 0001 00       		.space	1
  34              		.comm	autosampler_state,1,1
  35              		.section	.text.autosampler_start,"ax",%progbits
  36              		.align	2
  37              		.global	autosampler_start
  38              		.thumb
  39              		.thumb_func
  40              		.type	autosampler_start, %function
  41              	autosampler_start:
  42              	.LFB29:
  43              		.file 1 "..\\AutoSampler.cydsn\\autosampler.c"
   1:..\AutoSampler.cydsn/autosampler.c **** /* ========================================
   2:..\AutoSampler.cydsn/autosampler.c ****  *
   3:..\AutoSampler.cydsn/autosampler.c ****  * Copyright YOUR COMPANY, THE YEAR
   4:..\AutoSampler.cydsn/autosampler.c ****  * All Rights Reserved
   5:..\AutoSampler.cydsn/autosampler.c ****  * UNPUBLISHED, LICENSED SOFTWARE.
   6:..\AutoSampler.cydsn/autosampler.c ****  *
   7:..\AutoSampler.cydsn/autosampler.c ****  * CONFIDENTIAL AND PROPRIETARY INFORMATION
   8:..\AutoSampler.cydsn/autosampler.c ****  * WHICH IS THE PROPERTY OF your company.
   9:..\AutoSampler.cydsn/autosampler.c ****  *
  10:..\AutoSampler.cydsn/autosampler.c ****  * ========================================
ARM GAS  C:\Users\karunmj\AppData\Local\Temp\ccrE1ixd.s 			page 2


  11:..\AutoSampler.cydsn/autosampler.c **** */
  12:..\AutoSampler.cydsn/autosampler.c **** #include <device.h>
  13:..\AutoSampler.cydsn/autosampler.c **** #include <string.h>
  14:..\AutoSampler.cydsn/autosampler.c **** #include "autosampler.h"
  15:..\AutoSampler.cydsn/autosampler.c **** #include "debug.h"
  16:..\AutoSampler.cydsn/autosampler.c **** 
  17:..\AutoSampler.cydsn/autosampler.c **** // prototype bottle_count interrupt
  18:..\AutoSampler.cydsn/autosampler.c **** CY_ISR_PROTO(isr_SampleCounter);
  19:..\AutoSampler.cydsn/autosampler.c **** 
  20:..\AutoSampler.cydsn/autosampler.c **** // Declare variables
  21:..\AutoSampler.cydsn/autosampler.c **** uint8 SampleCount = 0, SampleCount1 = 0, autosampler_state;;
  22:..\AutoSampler.cydsn/autosampler.c **** 
  23:..\AutoSampler.cydsn/autosampler.c **** uint8 autosampler_start(){
  44              		.loc 1 23 0
  45              		.cfi_startproc
  46              		@ args = 0, pretend = 0, frame = 0
  47              		@ frame_needed = 1, uses_anonymous_args = 0
  48 0000 80B5     		push	{r7, lr}
  49              	.LCFI0:
  50              		.cfi_def_cfa_offset 8
  51 0002 00AF     		add	r7, sp, #0
  52              		.cfi_offset 14, -4
  53              		.cfi_offset 7, -8
  54              	.LCFI1:
  55              		.cfi_def_cfa_register 7
  24:..\AutoSampler.cydsn/autosampler.c ****     isr_SampleCounter_StartEx(isr_SampleCounter);
  56              		.loc 1 24 0
  57 0004 40F20000 		movw	r0, #:lower16:isr_SampleCounter
  58 0008 C0F20000 		movt	r0, #:upper16:isr_SampleCounter
  59 000c FFF7FEFF 		bl	isr_SampleCounter_StartEx
  25:..\AutoSampler.cydsn/autosampler.c ****     autosampler_state = AUTOSAMPLER_STATE_OFF;
  60              		.loc 1 25 0
  61 0010 40F20003 		movw	r3, #:lower16:autosampler_state
  62 0014 C0F20003 		movt	r3, #:upper16:autosampler_state
  63 0018 4FF00002 		mov	r2, #0
  64 001c 1A70     		strb	r2, [r3, #0]
  26:..\AutoSampler.cydsn/autosampler.c ****     
  27:..\AutoSampler.cydsn/autosampler.c ****     return 1u;
  65              		.loc 1 27 0
  66 001e 4FF00103 		mov	r3, #1
  28:..\AutoSampler.cydsn/autosampler.c **** }
  67              		.loc 1 28 0
  68 0022 1846     		mov	r0, r3
  69 0024 80BD     		pop	{r7, pc}
  70              		.cfi_endproc
  71              	.LFE29:
  72              		.size	autosampler_start, .-autosampler_start
  73 0026 00BF     		.section	.text.autosampler_stop,"ax",%progbits
  74              		.align	2
  75              		.global	autosampler_stop
  76              		.thumb
  77              		.thumb_func
  78              		.type	autosampler_stop, %function
  79              	autosampler_stop:
  80              	.LFB30:
  29:..\AutoSampler.cydsn/autosampler.c **** 
  30:..\AutoSampler.cydsn/autosampler.c **** uint8 autosampler_stop() {
ARM GAS  C:\Users\karunmj\AppData\Local\Temp\ccrE1ixd.s 			page 3


  81              		.loc 1 30 0
  82              		.cfi_startproc
  83              		@ args = 0, pretend = 0, frame = 0
  84              		@ frame_needed = 1, uses_anonymous_args = 0
  85              		@ link register save eliminated.
  86 0000 80B4     		push	{r7}
  87              	.LCFI2:
  88              		.cfi_def_cfa_offset 4
  89 0002 00AF     		add	r7, sp, #0
  90              		.cfi_offset 7, -4
  91              	.LCFI3:
  92              		.cfi_def_cfa_register 7
  31:..\AutoSampler.cydsn/autosampler.c ****     return 1u;
  93              		.loc 1 31 0
  94 0004 4FF00103 		mov	r3, #1
  32:..\AutoSampler.cydsn/autosampler.c **** }
  95              		.loc 1 32 0
  96 0008 1846     		mov	r0, r3
  97 000a BD46     		mov	sp, r7
  98 000c 80BC     		pop	{r7}
  99 000e 7047     		bx	lr
 100              		.cfi_endproc
 101              	.LFE30:
 102              		.size	autosampler_stop, .-autosampler_stop
 103              		.section	.text.autosampler_power_on,"ax",%progbits
 104              		.align	2
 105              		.global	autosampler_power_on
 106              		.thumb
 107              		.thumb_func
 108              		.type	autosampler_power_on, %function
 109              	autosampler_power_on:
 110              	.LFB31:
  33:..\AutoSampler.cydsn/autosampler.c **** 
  34:..\AutoSampler.cydsn/autosampler.c **** /*
  35:..\AutoSampler.cydsn/autosampler.c **** Start the autosampler.  Then power it on.
  36:..\AutoSampler.cydsn/autosampler.c **** */
  37:..\AutoSampler.cydsn/autosampler.c **** uint8 autosampler_power_on() {
 111              		.loc 1 37 0
 112              		.cfi_startproc
 113              		@ args = 0, pretend = 0, frame = 0
 114              		@ frame_needed = 1, uses_anonymous_args = 0
 115 0000 80B5     		push	{r7, lr}
 116              	.LCFI4:
 117              		.cfi_def_cfa_offset 8
 118 0002 00AF     		add	r7, sp, #0
 119              		.cfi_offset 14, -4
 120              		.cfi_offset 7, -8
 121              	.LCFI5:
 122              		.cfi_def_cfa_register 7
  38:..\AutoSampler.cydsn/autosampler.c ****     Pin_Sampler_Power_Write(0u);
 123              		.loc 1 38 0
 124 0004 4FF00000 		mov	r0, #0
 125 0008 FFF7FEFF 		bl	Pin_Sampler_Power_Write
  39:..\AutoSampler.cydsn/autosampler.c ****     CyDelay(1000u);//give the sampler time to boot
 126              		.loc 1 39 0
 127 000c 4FF47A70 		mov	r0, #1000
 128 0010 FFF7FEFF 		bl	CyDelay
ARM GAS  C:\Users\karunmj\AppData\Local\Temp\ccrE1ixd.s 			page 4


  40:..\AutoSampler.cydsn/autosampler.c ****     
  41:..\AutoSampler.cydsn/autosampler.c ****     autosampler_state = AUTOSAMPLER_STATE_IDLE;
 129              		.loc 1 41 0
 130 0014 40F20003 		movw	r3, #:lower16:autosampler_state
 131 0018 C0F20003 		movt	r3, #:upper16:autosampler_state
 132 001c 4FF00102 		mov	r2, #1
 133 0020 1A70     		strb	r2, [r3, #0]
  42:..\AutoSampler.cydsn/autosampler.c ****     
  43:..\AutoSampler.cydsn/autosampler.c ****     return 1u;
 134              		.loc 1 43 0
 135 0022 4FF00103 		mov	r3, #1
  44:..\AutoSampler.cydsn/autosampler.c **** }
 136              		.loc 1 44 0
 137 0026 1846     		mov	r0, r3
 138 0028 80BD     		pop	{r7, pc}
 139              		.cfi_endproc
 140              	.LFE31:
 141              		.size	autosampler_power_on, .-autosampler_power_on
 142 002a 00BF     		.section	.text.autosampler_power_off,"ax",%progbits
 143              		.align	2
 144              		.global	autosampler_power_off
 145              		.thumb
 146              		.thumb_func
 147              		.type	autosampler_power_off, %function
 148              	autosampler_power_off:
 149              	.LFB32:
  45:..\AutoSampler.cydsn/autosampler.c **** 
  46:..\AutoSampler.cydsn/autosampler.c **** uint8 autosampler_power_off() {
 150              		.loc 1 46 0
 151              		.cfi_startproc
 152              		@ args = 0, pretend = 0, frame = 0
 153              		@ frame_needed = 1, uses_anonymous_args = 0
 154 0000 80B5     		push	{r7, lr}
 155              	.LCFI6:
 156              		.cfi_def_cfa_offset 8
 157 0002 00AF     		add	r7, sp, #0
 158              		.cfi_offset 14, -4
 159              		.cfi_offset 7, -8
 160              	.LCFI7:
 161              		.cfi_def_cfa_register 7
  47:..\AutoSampler.cydsn/autosampler.c ****     Pin_Sampler_Power_Write(1u);
 162              		.loc 1 47 0
 163 0004 4FF00100 		mov	r0, #1
 164 0008 FFF7FEFF 		bl	Pin_Sampler_Power_Write
  48:..\AutoSampler.cydsn/autosampler.c ****     autosampler_state = AUTOSAMPLER_STATE_OFF;
 165              		.loc 1 48 0
 166 000c 40F20003 		movw	r3, #:lower16:autosampler_state
 167 0010 C0F20003 		movt	r3, #:upper16:autosampler_state
 168 0014 4FF00002 		mov	r2, #0
 169 0018 1A70     		strb	r2, [r3, #0]
  49:..\AutoSampler.cydsn/autosampler.c ****     
  50:..\AutoSampler.cydsn/autosampler.c ****     return 1u;
 170              		.loc 1 50 0
 171 001a 4FF00103 		mov	r3, #1
  51:..\AutoSampler.cydsn/autosampler.c **** }
 172              		.loc 1 51 0
 173 001e 1846     		mov	r0, r3
ARM GAS  C:\Users\karunmj\AppData\Local\Temp\ccrE1ixd.s 			page 5


 174 0020 80BD     		pop	{r7, pc}
 175              		.cfi_endproc
 176              	.LFE32:
 177              		.size	autosampler_power_off, .-autosampler_power_off
 178 0022 00BF     		.section	.rodata
 179              		.align	2
 180              	.LC0:
 181 0000 28617574 		.ascii	"(autosampler(): MAX_BOTTLE_COUNT met\000"
 181      6F73616D 
 181      706C6572 
 181      28293A20 
 181      4D41585F 
 182 0025 000000   		.section	.text.autosampler_take_sample,"ax",%progbits
 183              		.align	2
 184              		.global	autosampler_take_sample
 185              		.thumb
 186              		.thumb_func
 187              		.type	autosampler_take_sample, %function
 188              	autosampler_take_sample:
 189              	.LFB33:
  52:..\AutoSampler.cydsn/autosampler.c **** 
  53:..\AutoSampler.cydsn/autosampler.c **** uint8 autosampler_take_sample(uint8* count){
 190              		.loc 1 53 0
 191              		.cfi_startproc
 192              		@ args = 0, pretend = 0, frame = 24
 193              		@ frame_needed = 1, uses_anonymous_args = 0
 194 0000 80B5     		push	{r7, lr}
 195              	.LCFI8:
 196              		.cfi_def_cfa_offset 8
 197 0002 86B0     		sub	sp, sp, #24
 198              	.LCFI9:
 199              		.cfi_def_cfa_offset 32
 200 0004 00AF     		add	r7, sp, #0
 201              		.cfi_offset 14, -4
 202              		.cfi_offset 7, -8
 203              	.LCFI10:
 204              		.cfi_def_cfa_register 7
 205 0006 7860     		str	r0, [r7, #4]
  54:..\AutoSampler.cydsn/autosampler.c ****     
  55:..\AutoSampler.cydsn/autosampler.c ****     if (*count >= MAX_BOTTLE_COUNT) {        
 206              		.loc 1 55 0
 207 0008 7B68     		ldr	r3, [r7, #4]
 208 000a 1B78     		ldrb	r3, [r3, #0]	@ zero_extendqisi2
 209 000c 172B     		cmp	r3, #23
 210 000e 08D9     		bls	.L10
  56:..\AutoSampler.cydsn/autosampler.c ****         debug_write("(autosampler(): MAX_BOTTLE_COUNT met");
 211              		.loc 1 56 0
 212 0010 40F20000 		movw	r0, #:lower16:.LC0
 213 0014 C0F20000 		movt	r0, #:upper16:.LC0
 214 0018 FFF7FEFF 		bl	debug_write
  57:..\AutoSampler.cydsn/autosampler.c ****         return 0;
 215              		.loc 1 57 0
 216 001c 4FF00003 		mov	r3, #0
 217 0020 74E0     		b	.L11
 218              	.L10:
  58:..\AutoSampler.cydsn/autosampler.c ****     }
  59:..\AutoSampler.cydsn/autosampler.c ****     
ARM GAS  C:\Users\karunmj\AppData\Local\Temp\ccrE1ixd.s 			page 6


  60:..\AutoSampler.cydsn/autosampler.c ****     uint32 i = 0u, delay = 100u, interval;
 219              		.loc 1 60 0
 220 0022 4FF00003 		mov	r3, #0
 221 0026 FB60     		str	r3, [r7, #12]
 222 0028 4FF06403 		mov	r3, #100
 223 002c 3B61     		str	r3, [r7, #16]
  61:..\AutoSampler.cydsn/autosampler.c ****     
  62:..\AutoSampler.cydsn/autosampler.c ****     autosampler_state = AUTOSAMPLER_STATE_BUSY;
 224              		.loc 1 62 0
 225 002e 40F20003 		movw	r3, #:lower16:autosampler_state
 226 0032 C0F20003 		movt	r3, #:upper16:autosampler_state
 227 0036 4FF00302 		mov	r2, #3
 228 003a 1A70     		strb	r2, [r3, #0]
  63:..\AutoSampler.cydsn/autosampler.c ****     
  64:..\AutoSampler.cydsn/autosampler.c ****     // Initially set trigger high
  65:..\AutoSampler.cydsn/autosampler.c ****     Pin_Sampler_Trigger_Write(1u);
 229              		.loc 1 65 0
 230 003c 4FF00100 		mov	r0, #1
 231 0040 FFF7FEFF 		bl	Pin_Sampler_Trigger_Write
  66:..\AutoSampler.cydsn/autosampler.c ****         
  67:..\AutoSampler.cydsn/autosampler.c ****     // Send PULSE_COUNT pulses @ 10Hz to trigger sampler
  68:..\AutoSampler.cydsn/autosampler.c ****     for(i=0; i < PULSE_COUNT; i++){
 232              		.loc 1 68 0
 233 0044 4FF00003 		mov	r3, #0
 234 0048 FB60     		str	r3, [r7, #12]
 235 004a 13E0     		b	.L12
 236              	.L13:
  69:..\AutoSampler.cydsn/autosampler.c ****         Pin_Sampler_Trigger_Write(0u);
 237              		.loc 1 69 0
 238 004c 4FF00000 		mov	r0, #0
 239 0050 FFF7FEFF 		bl	Pin_Sampler_Trigger_Write
  70:..\AutoSampler.cydsn/autosampler.c ****         CyDelay(100u);
 240              		.loc 1 70 0
 241 0054 4FF06400 		mov	r0, #100
 242 0058 FFF7FEFF 		bl	CyDelay
  71:..\AutoSampler.cydsn/autosampler.c ****         Pin_Sampler_Trigger_Write(1u);
 243              		.loc 1 71 0
 244 005c 4FF00100 		mov	r0, #1
 245 0060 FFF7FEFF 		bl	Pin_Sampler_Trigger_Write
  72:..\AutoSampler.cydsn/autosampler.c ****         CyDelay(100u);
 246              		.loc 1 72 0
 247 0064 4FF06400 		mov	r0, #100
 248 0068 FFF7FEFF 		bl	CyDelay
 249              		.loc 1 68 0
 250 006c FB68     		ldr	r3, [r7, #12]
 251 006e 03F10103 		add	r3, r3, #1
 252 0072 FB60     		str	r3, [r7, #12]
 253              	.L12:
 254 0074 FB68     		ldr	r3, [r7, #12]
 255 0076 132B     		cmp	r3, #19
 256 0078 E8D9     		bls	.L13
  73:..\AutoSampler.cydsn/autosampler.c ****     }
  74:..\AutoSampler.cydsn/autosampler.c ****     
  75:..\AutoSampler.cydsn/autosampler.c ****     interval =  2u*60*1000/delay;           // Wait Max of 2 Minutes for distributor arm to move
 257              		.loc 1 75 0
 258 007a 4DF2C043 		movw	r3, #:lower16:120000
 259 007e C0F20103 		movt	r3, #:upper16:120000
ARM GAS  C:\Users\karunmj\AppData\Local\Temp\ccrE1ixd.s 			page 7


 260 0082 3A69     		ldr	r2, [r7, #16]
 261 0084 B3FBF2F3 		udiv	r3, r3, r2
 262 0088 7B61     		str	r3, [r7, #20]
  76:..\AutoSampler.cydsn/autosampler.c ****     //while(Pin_Sampler_Completed_Sample_Read()==0);
  77:..\AutoSampler.cydsn/autosampler.c ****     for (i = 0; i < interval ; i++) {  
 263              		.loc 1 77 0
 264 008a 4FF00003 		mov	r3, #0
 265 008e FB60     		str	r3, [r7, #12]
 266 0090 0BE0     		b	.L14
 267              	.L17:
  78:..\AutoSampler.cydsn/autosampler.c ****         CyDelay(delay);
 268              		.loc 1 78 0
 269 0092 3869     		ldr	r0, [r7, #16]
 270 0094 FFF7FEFF 		bl	CyDelay
  79:..\AutoSampler.cydsn/autosampler.c ****         if (Pin_Sampler_Completed_Sample_Read()!=0) {
 271              		.loc 1 79 0
 272 0098 FFF7FEFF 		bl	Pin_Sampler_Completed_Sample_Read
 273 009c 0346     		mov	r3, r0
 274 009e 002B     		cmp	r3, #0
 275 00a0 08D1     		bne	.L23
 276              	.L15:
 277              		.loc 1 77 0
 278 00a2 FB68     		ldr	r3, [r7, #12]
 279 00a4 03F10103 		add	r3, r3, #1
 280 00a8 FB60     		str	r3, [r7, #12]
 281              	.L14:
 282 00aa FA68     		ldr	r2, [r7, #12]
 283 00ac 7B69     		ldr	r3, [r7, #20]
 284 00ae 9A42     		cmp	r2, r3
 285 00b0 EFD3     		bcc	.L17
 286 00b2 00E0     		b	.L16
 287              	.L23:
  80:..\AutoSampler.cydsn/autosampler.c ****             break;
 288              		.loc 1 80 0
 289 00b4 00BF     		nop
 290              	.L16:
  81:..\AutoSampler.cydsn/autosampler.c ****         }
  82:..\AutoSampler.cydsn/autosampler.c ****     }
  83:..\AutoSampler.cydsn/autosampler.c ****     
  84:..\AutoSampler.cydsn/autosampler.c ****     //while(Pin_Sampler_Completed_Sample_Read()!=0);
  85:..\AutoSampler.cydsn/autosampler.c ****     if (Pin_Sampler_Completed_Sample_Read() != 0) {
 291              		.loc 1 85 0
 292 00b6 FFF7FEFF 		bl	Pin_Sampler_Completed_Sample_Read
 293 00ba 0346     		mov	r3, r0
 294 00bc 002B     		cmp	r3, #0
 295 00be 1DD0     		beq	.L18
  86:..\AutoSampler.cydsn/autosampler.c ****         //SampleCount = BottleCount_Read(); // Should be zero always
  87:..\AutoSampler.cydsn/autosampler.c ****         
  88:..\AutoSampler.cydsn/autosampler.c ****         interval =  4u*60*1000/delay;       // Wait Max of 4 Minutes for pumping to complete
 296              		.loc 1 88 0
 297 00c0 4AF68013 		movw	r3, #:lower16:240000
 298 00c4 C0F20303 		movt	r3, #:upper16:240000
 299 00c8 3A69     		ldr	r2, [r7, #16]
 300 00ca B3FBF2F3 		udiv	r3, r3, r2
 301 00ce 7B61     		str	r3, [r7, #20]
  89:..\AutoSampler.cydsn/autosampler.c ****         for (i = 0; i < interval ; i++) { 
 302              		.loc 1 89 0
ARM GAS  C:\Users\karunmj\AppData\Local\Temp\ccrE1ixd.s 			page 8


 303 00d0 4FF00003 		mov	r3, #0
 304 00d4 FB60     		str	r3, [r7, #12]
 305 00d6 0BE0     		b	.L19
 306              	.L21:
  90:..\AutoSampler.cydsn/autosampler.c ****             CyDelay(delay);
 307              		.loc 1 90 0
 308 00d8 3869     		ldr	r0, [r7, #16]
 309 00da FFF7FEFF 		bl	CyDelay
  91:..\AutoSampler.cydsn/autosampler.c ****             if (Pin_Sampler_Completed_Sample_Read()==0) {
 310              		.loc 1 91 0
 311 00de FFF7FEFF 		bl	Pin_Sampler_Completed_Sample_Read
 312 00e2 0346     		mov	r3, r0
 313 00e4 002B     		cmp	r3, #0
 314 00e6 08D0     		beq	.L24
 315              	.L20:
 316              		.loc 1 89 0
 317 00e8 FB68     		ldr	r3, [r7, #12]
 318 00ea 03F10103 		add	r3, r3, #1
 319 00ee FB60     		str	r3, [r7, #12]
 320              	.L19:
 321 00f0 FA68     		ldr	r2, [r7, #12]
 322 00f2 7B69     		ldr	r3, [r7, #20]
 323 00f4 9A42     		cmp	r2, r3
 324 00f6 EFD3     		bcc	.L21
 325 00f8 00E0     		b	.L18
 326              	.L24:
  92:..\AutoSampler.cydsn/autosampler.c ****                 break;
 327              		.loc 1 92 0
 328 00fa 00BF     		nop
 329              	.L18:
  93:..\AutoSampler.cydsn/autosampler.c ****             }
  94:..\AutoSampler.cydsn/autosampler.c ****         }
  95:..\AutoSampler.cydsn/autosampler.c ****     }
  96:..\AutoSampler.cydsn/autosampler.c ****     *count = BottleCount_Read();
 330              		.loc 1 96 0
 331 00fc FFF7FEFF 		bl	BottleCount_Read
 332 0100 0346     		mov	r3, r0
 333 0102 1A46     		mov	r2, r3
 334 0104 7B68     		ldr	r3, [r7, #4]
 335 0106 1A70     		strb	r2, [r3, #0]
  97:..\AutoSampler.cydsn/autosampler.c ****     return 1u;
 336              		.loc 1 97 0
 337 0108 4FF00103 		mov	r3, #1
 338              	.L11:
  98:..\AutoSampler.cydsn/autosampler.c **** }
 339              		.loc 1 98 0
 340 010c 1846     		mov	r0, r3
 341 010e 07F11807 		add	r7, r7, #24
 342 0112 BD46     		mov	sp, r7
 343 0114 80BD     		pop	{r7, pc}
 344              		.cfi_endproc
 345              	.LFE33:
 346              		.size	autosampler_take_sample, .-autosampler_take_sample
 347 0116 00BF     		.section	.text.isr_SampleCounter,"ax",%progbits
 348              		.align	2
 349              		.global	isr_SampleCounter
 350              		.thumb
ARM GAS  C:\Users\karunmj\AppData\Local\Temp\ccrE1ixd.s 			page 9


 351              		.thumb_func
 352              		.type	isr_SampleCounter, %function
 353              	isr_SampleCounter:
 354              	.LFB34:
  99:..\AutoSampler.cydsn/autosampler.c **** 
 100:..\AutoSampler.cydsn/autosampler.c **** CY_ISR(isr_SampleCounter){
 355              		.loc 1 100 0
 356              		.cfi_startproc
 357              		@ args = 0, pretend = 0, frame = 0
 358              		@ frame_needed = 1, uses_anonymous_args = 0
 359              		@ link register save eliminated.
 360 0000 80B4     		push	{r7}
 361              	.LCFI11:
 362              		.cfi_def_cfa_offset 4
 363 0002 00AF     		add	r7, sp, #0
 364              		.cfi_offset 7, -4
 365              	.LCFI12:
 366              		.cfi_def_cfa_register 7
 101:..\AutoSampler.cydsn/autosampler.c ****     SampleCount1++;
 367              		.loc 1 101 0
 368 0004 40F20003 		movw	r3, #:lower16:SampleCount1
 369 0008 C0F20003 		movt	r3, #:upper16:SampleCount1
 370 000c 1B78     		ldrb	r3, [r3, #0]	@ zero_extendqisi2
 371 000e 03F10103 		add	r3, r3, #1
 372 0012 DAB2     		uxtb	r2, r3
 373 0014 40F20003 		movw	r3, #:lower16:SampleCount1
 374 0018 C0F20003 		movt	r3, #:upper16:SampleCount1
 375 001c 1A70     		strb	r2, [r3, #0]
 102:..\AutoSampler.cydsn/autosampler.c **** }
 376              		.loc 1 102 0
 377 001e BD46     		mov	sp, r7
 378 0020 80BC     		pop	{r7}
 379 0022 7047     		bx	lr
 380              		.cfi_endproc
 381              	.LFE34:
 382              		.size	isr_SampleCounter, .-isr_SampleCounter
 383              		.text
 384              	.Letext0: