ARM GAS  C:\Users\karunmj\AppData\Local\Temp\ccQmU4th.s 			page 1


   1              		.syntax unified
   2              		.cpu cortex-m3
   3              		.fpu softvfp
   4              		.eabi_attribute 20, 1
   5              		.eabi_attribute 21, 1
   6              		.eabi_attribute 23, 3
   7              		.eabi_attribute 24, 1
   8              		.eabi_attribute 25, 1
   9              		.eabi_attribute 26, 1
  10              		.eabi_attribute 30, 6
  11              		.eabi_attribute 18, 4
  12              		.thumb
  13              		.file	"BatteryVoltage.c"
  20 0000 6F000000 		.text
  20      02005000 
  20      00000201 
  20      FB0E0D00 
  20      01010101 
  21              	.Ltext0:
  22              		.cfi_sections	.debug_frame
  23              		.global	__aeabi_fmul
  24              		.section	.text.ReadBatterVoltage,"ax",%progbits
  25              		.align	2
  26              		.global	ReadBatterVoltage
  27              		.thumb
  28              		.thumb_func
  29              		.type	ReadBatterVoltage, %function
  30              	ReadBatterVoltage:
  31              	.LFB29:
  32              		.file 1 ".\\BatteryVoltage.c"
   1:.\BatteryVoltage.c **** /* ========================================
   2:.\BatteryVoltage.c ****  *
   3:.\BatteryVoltage.c ****  * Copyright YOUR COMPANY, THE YEAR
   4:.\BatteryVoltage.c ****  * All Rights Reserved
   5:.\BatteryVoltage.c ****  * UNPUBLISHED, LICENSED SOFTWARE.
   6:.\BatteryVoltage.c ****  *
   7:.\BatteryVoltage.c ****  * CONFIDENTIAL AND PROPRIETARY INFORMATION
   8:.\BatteryVoltage.c ****  * WHICH IS THE PROPERTY OF your company.
   9:.\BatteryVoltage.c ****  *
  10:.\BatteryVoltage.c ****  * ========================================
  11:.\BatteryVoltage.c **** */
  12:.\BatteryVoltage.c **** 
  13:.\BatteryVoltage.c **** #include "BatteryVoltage.h"
  14:.\BatteryVoltage.c **** #include "ADC_SAR_1.h"
  15:.\BatteryVoltage.c **** 
  16:.\BatteryVoltage.c **** float ReadBatterVoltage(){
  33              		.loc 1 16 0
  34              		.cfi_startproc
  35              		@ args = 0, pretend = 0, frame = 8
  36              		@ frame_needed = 1, uses_anonymous_args = 0
  37 0000 80B5     		push	{r7, lr}
ARM GAS  C:\Users\karunmj\AppData\Local\Temp\ccQmU4th.s 			page 2


  38              	.LCFI0:
  39              		.cfi_def_cfa_offset 8
  40 0002 82B0     		sub	sp, sp, #8
  41              	.LCFI1:
  42              		.cfi_def_cfa_offset 16
  43 0004 00AF     		add	r7, sp, #0
  44              		.cfi_offset 14, -4
  45              		.cfi_offset 7, -8
  46              	.LCFI2:
  47              		.cfi_def_cfa_register 7
  17:.\BatteryVoltage.c ****     //Enable battery volatge input
  18:.\BatteryVoltage.c ****     VBAT_EN_Write(1u);
  48              		.loc 1 18 0
  49 0006 4FF00100 		mov	r0, #1
  50 000a FFF7FEFF 		bl	VBAT_EN_Write
  19:.\BatteryVoltage.c ****     //let it settle 50us
  20:.\BatteryVoltage.c ****     CyDelay(10u);
  51              		.loc 1 20 0
  52 000e 4FF00A00 		mov	r0, #10
  53 0012 FFF7FEFF 		bl	CyDelay
  21:.\BatteryVoltage.c ****     ADC_SAR_1_StartConvert();
  54              		.loc 1 21 0
  55 0016 FFF7FEFF 		bl	ADC_SAR_1_StartConvert
  22:.\BatteryVoltage.c ****     CyDelay(10u);
  56              		.loc 1 22 0
  57 001a 4FF00A00 		mov	r0, #10
  58 001e FFF7FEFF 		bl	CyDelay
  23:.\BatteryVoltage.c ****     //ADC_SAR_1_IsEndConversion(ADC_SAR_1_RETURN_STATUS);
  24:.\BatteryVoltage.c ****     float voltage =  ADC_SAR_1_CountsTo_Volts(ADC_SAR_1_GetResult16());
  59              		.loc 1 24 0
  60 0022 FFF7FEFF 		bl	ADC_SAR_1_GetResult16
  61 0026 0346     		mov	r3, r0
  62 0028 9BB2     		uxth	r3, r3
  63 002a 1BB2     		sxth	r3, r3
  64 002c 1846     		mov	r0, r3
  65 002e FFF7FEFF 		bl	ADC_SAR_1_CountsTo_Volts
  66 0032 0346     		mov	r3, r0
  67 0034 7B60     		str	r3, [r7, #4]	@ float
  25:.\BatteryVoltage.c ****     ADC_SAR_1_StopConvert();
  68              		.loc 1 25 0
  69 0036 FFF7FEFF 		bl	ADC_SAR_1_StopConvert
  26:.\BatteryVoltage.c ****     //Disable battery volatge input
  27:.\BatteryVoltage.c ****     VBAT_EN_Write(0u);
  70              		.loc 1 27 0
  71 003a 4FF00000 		mov	r0, #0
  72 003e FFF7FEFF 		bl	VBAT_EN_Write
  28:.\BatteryVoltage.c ****     voltage = voltage*(11);//convert based on voltage divider (1KOhm and 10 KOhm)
  73              		.loc 1 28 0
  74 0042 7868     		ldr	r0, [r7, #4]	@ float
  75 0044 0549     		ldr	r1, .L3	@ float
  76 0046 FFF7FEFF 		bl	__aeabi_fmul
  77 004a 0346     		mov	r3, r0
  78 004c 7B60     		str	r3, [r7, #4]	@ float
  29:.\BatteryVoltage.c ****     return voltage;
  79              		.loc 1 29 0
  80 004e 7B68     		ldr	r3, [r7, #4]	@ float
  30:.\BatteryVoltage.c **** }...
ARM GAS  C:\Users\karunmj\AppData\Local\Temp\ccQmU4th.s 			page 3


  81              		.loc 1 30 0
  82 0050 1846     		mov	r0, r3
  83 0052 07F10807 		add	r7, r7, #8
  84 0056 BD46     		mov	sp, r7
  85 0058 80BD     		pop	{r7, pc}
  86              	.L4:
  87 005a 00BF     		.align	2
  88              	.L3:
  89 005c 00003041 		.word	1093664768
  90              		.cfi_endproc
  91              	.LFE29:
  92              		.size	ReadBatterVoltage, .-ReadBatterVoltage
  93              		.text
  94              	.Letext0: