ARM GAS  C:\Users\karunmj\AppData\Local\Temp\ccia1kJ3.s 			page 1


   1              		.syntax unified
   2              		.cpu cortex-m3
   3              		.fpu softvfp
   4              		.eabi_attribute 20, 1
   5              		.eabi_attribute 21, 1
   6              		.eabi_attribute 23, 3
   7              		.eabi_attribute 24, 1
   8              		.eabi_attribute 25, 1
   9              		.eabi_attribute 26, 1
  10              		.eabi_attribute 30, 6
  11              		.eabi_attribute 18, 4
  12              		.thumb
  13              		.file	"CyDmac.c"
  20 0000 AB020000 		.text
  20      02006B00 
  20      00000201 
  20      FB0E0D00 
  20      01010101 
  21              	.Ltext0:
  22              		.cfi_sections	.debug_frame
  23              		.bss
  24              	CyDmaTdCurrentNumber:
  25 0000 00       		.space	1
  26              	CyDmaTdFreeIndex:
  27 0001 00       		.space	1
  28 0002 0000     		.align	2
  29              	CyDmaChannels:
  30 0004 00000000 		.space	4
  31              		.section	.text.CyDmacConfigure,"ax",%progbits
  32              		.align	2
  33              		.global	CyDmacConfigure
  34              		.thumb
  35              		.thumb_func
  36              		.type	CyDmacConfigure, %function
  37              	CyDmacConfigure:
  38              	.LFB0:
  39              		.file 1 ".\\Generated_Source\\PSoC5\\CyDmac.c"
   1:.\Generated_Source\PSoC5/CyDmac.c **** /*******************************************************************************
   2:.\Generated_Source\PSoC5/CyDmac.c **** * File Name: CyDmac.c
   3:.\Generated_Source\PSoC5/CyDmac.c **** * Version 3.40
   4:.\Generated_Source\PSoC5/CyDmac.c **** *
   5:.\Generated_Source\PSoC5/CyDmac.c **** * Description:
   6:.\Generated_Source\PSoC5/CyDmac.c **** *  Provides an API for the DMAC component. The API includes functions for the
   7:.\Generated_Source\PSoC5/CyDmac.c **** *  DMA controller, DMA channels and Transfer Descriptors.
   8:.\Generated_Source\PSoC5/CyDmac.c **** *
   9:.\Generated_Source\PSoC5/CyDmac.c **** *  This API is the library version not the auto generated code that gets
  10:.\Generated_Source\PSoC5/CyDmac.c **** *  generated when the user places a DMA component on the schematic.
  11:.\Generated_Source\PSoC5/CyDmac.c **** *
  12:.\Generated_Source\PSoC5/CyDmac.c **** *  The auto generated code would use the APi's in this module.
  13:.\Generated_Source\PSoC5/CyDmac.c **** *
  14:.\Generated_Source\PSoC5/CyDmac.c **** * Note:
ARM GAS  C:\Users\karunmj\AppData\Local\Temp\ccia1kJ3.s 			page 2


  15:.\Generated_Source\PSoC5/CyDmac.c **** *  This code is endian agnostic.
  16:.\Generated_Source\PSoC5/CyDmac.c **** *
  17:.\Generated_Source\PSoC5/CyDmac.c **** *  The Transfer Descriptor memory can be used as regular memory if the TD's are
  18:.\Generated_Source\PSoC5/CyDmac.c **** *  not being used.
  19:.\Generated_Source\PSoC5/CyDmac.c **** *
  20:.\Generated_Source\PSoC5/CyDmac.c **** *  This code uses the first byte of each TD to manage the free list of TD's.
  21:.\Generated_Source\PSoC5/CyDmac.c **** *  The user can over write this once the TD is allocated.
  22:.\Generated_Source\PSoC5/CyDmac.c **** *
  23:.\Generated_Source\PSoC5/CyDmac.c **** ********************************************************************************
  24:.\Generated_Source\PSoC5/CyDmac.c **** * Copyright 2008-2013, Cypress Semiconductor Corporation.  All rights reserved.
  25:.\Generated_Source\PSoC5/CyDmac.c **** * You may use this file only in accordance with the license, terms, conditions,
  26:.\Generated_Source\PSoC5/CyDmac.c **** * disclaimers, and limitations in the end user license agreement accompanying
  27:.\Generated_Source\PSoC5/CyDmac.c **** * the software package with which this file was provided.
  28:.\Generated_Source\PSoC5/CyDmac.c **** *******************************************************************************/
  29:.\Generated_Source\PSoC5/CyDmac.c **** 
  30:.\Generated_Source\PSoC5/CyDmac.c **** #include "CyDmac.h"
  31:.\Generated_Source\PSoC5/CyDmac.c **** 
  32:.\Generated_Source\PSoC5/CyDmac.c **** static uint8  CyDmaTdCurrentNumber;                      /* Current Number of free elements in the 
  33:.\Generated_Source\PSoC5/CyDmac.c **** static uint8  CyDmaTdFreeIndex;                          /* Index of the first available TD */
  34:.\Generated_Source\PSoC5/CyDmac.c **** static uint32 CyDmaChannels = DMA_CHANNELS_USED__MASK0;  /* Bit map of DMA channel ownership */
  35:.\Generated_Source\PSoC5/CyDmac.c **** 
  36:.\Generated_Source\PSoC5/CyDmac.c **** 
  37:.\Generated_Source\PSoC5/CyDmac.c **** /*******************************************************************************
  38:.\Generated_Source\PSoC5/CyDmac.c **** * Function Name: CyDmacConfigure
  39:.\Generated_Source\PSoC5/CyDmac.c **** ********************************************************************************
  40:.\Generated_Source\PSoC5/CyDmac.c **** *
  41:.\Generated_Source\PSoC5/CyDmac.c **** * Summary:
  42:.\Generated_Source\PSoC5/CyDmac.c **** *  Creates a linked list of all the TDs to be allocated. This function is called
  43:.\Generated_Source\PSoC5/CyDmac.c **** *  by the startup code; you do not normally need to call it. You could call this
  44:.\Generated_Source\PSoC5/CyDmac.c **** *  function if all of the DMA channels are inactive.
  45:.\Generated_Source\PSoC5/CyDmac.c **** *
  46:.\Generated_Source\PSoC5/CyDmac.c **** * Parameters:
  47:.\Generated_Source\PSoC5/CyDmac.c **** *  None
  48:.\Generated_Source\PSoC5/CyDmac.c **** *
  49:.\Generated_Source\PSoC5/CyDmac.c **** * Return:
  50:.\Generated_Source\PSoC5/CyDmac.c **** *  None
  51:.\Generated_Source\PSoC5/CyDmac.c **** *
  52:.\Generated_Source\PSoC5/CyDmac.c **** *******************************************************************************/
  53:.\Generated_Source\PSoC5/CyDmac.c **** void CyDmacConfigure(void) 
  54:.\Generated_Source\PSoC5/CyDmac.c **** {
  40              		.loc 1 54 0
  41              		.cfi_startproc
  42              		@ args = 0, pretend = 0, frame = 8
  43              		@ frame_needed = 1, uses_anonymous_args = 0
  44              		@ link register save eliminated.
  45 0000 80B4     		push	{r7}
  46              	.LCFI0:
  47              		.cfi_def_cfa_offset 4
  48 0002 83B0     		sub	sp, sp, #12
  49              	.LCFI1:
  50              		.cfi_def_cfa_offset 16
  51 0004 00AF     		add	r7, sp, #0
  52              		.cfi_offset 7, -4
  53              	.LCFI2:
  54              		.cfi_def_cfa_register 7
  55:.\Generated_Source\PSoC5/CyDmac.c ****     uint8 dmaIndex;
  56:.\Generated_Source\PSoC5/CyDmac.c **** 
ARM GAS  C:\Users\karunmj\AppData\Local\Temp\ccia1kJ3.s 			page 3


  57:.\Generated_Source\PSoC5/CyDmac.c ****     /* Set TD list variables. */
  58:.\Generated_Source\PSoC5/CyDmac.c ****     CyDmaTdFreeIndex     = ((uint8) (CY_DMA_NUMBEROF_TDS - 1u));
  55              		.loc 1 58 0
  56 0006 40F20003 		movw	r3, #:lower16:CyDmaTdFreeIndex
  57 000a C0F20003 		movt	r3, #:upper16:CyDmaTdFreeIndex
  58 000e 4FF07F02 		mov	r2, #127
  59 0012 1A70     		strb	r2, [r3, #0]
  59:.\Generated_Source\PSoC5/CyDmac.c ****     CyDmaTdCurrentNumber = CY_DMA_NUMBEROF_TDS;
  60              		.loc 1 59 0
  61 0014 40F20003 		movw	r3, #:lower16:CyDmaTdCurrentNumber
  62 0018 C0F20003 		movt	r3, #:upper16:CyDmaTdCurrentNumber
  63 001c 6FF07F02 		mvn	r2, #127
  64 0020 1A70     		strb	r2, [r3, #0]
  60:.\Generated_Source\PSoC5/CyDmac.c **** 
  61:.\Generated_Source\PSoC5/CyDmac.c ****     /* Make TD free list. */
  62:.\Generated_Source\PSoC5/CyDmac.c ****     for(dmaIndex = ((uint8)(CY_DMA_NUMBEROF_TDS - 1u)); dmaIndex != 0u; dmaIndex--)
  65              		.loc 1 62 0
  66 0022 4FF07F03 		mov	r3, #127
  67 0026 FB71     		strb	r3, [r7, #7]
  68 0028 0FE0     		b	.L2
  69              	.L3:
  63:.\Generated_Source\PSoC5/CyDmac.c ****     {
  64:.\Generated_Source\PSoC5/CyDmac.c ****         CY_DMA_TDMEM_STRUCT_PTR[dmaIndex].TD0[0u] = ((uint8)(dmaIndex - 1u));
  70              		.loc 1 64 0
  71 002a FB79     		ldrb	r3, [r7, #7]	@ zero_extendqisi2
  72 002c 4FEAC303 		lsl	r3, r3, #3
  73 0030 03F18043 		add	r3, r3, #1073741824
  74 0034 03F5F043 		add	r3, r3, #30720
  75 0038 FA79     		ldrb	r2, [r7, #7]
  76 003a 02F1FF32 		add	r2, r2, #-1
  77 003e D2B2     		uxtb	r2, r2
  78 0040 1A70     		strb	r2, [r3, #0]
  79              		.loc 1 62 0
  80 0042 FB79     		ldrb	r3, [r7, #7]
  81 0044 03F1FF33 		add	r3, r3, #-1
  82 0048 FB71     		strb	r3, [r7, #7]
  83              	.L2:
  84 004a FB79     		ldrb	r3, [r7, #7]	@ zero_extendqisi2
  85 004c 002B     		cmp	r3, #0
  86 004e ECD1     		bne	.L3
  65:.\Generated_Source\PSoC5/CyDmac.c ****     }
  66:.\Generated_Source\PSoC5/CyDmac.c **** 
  67:.\Generated_Source\PSoC5/CyDmac.c ****     /* Make the last one point to zero. */
  68:.\Generated_Source\PSoC5/CyDmac.c ****     CY_DMA_TDMEM_STRUCT_PTR[dmaIndex].TD0[0u] = 0u;
  87              		.loc 1 68 0
  88 0050 FB79     		ldrb	r3, [r7, #7]	@ zero_extendqisi2
  89 0052 4FEAC303 		lsl	r3, r3, #3
  90 0056 03F18043 		add	r3, r3, #1073741824
  91 005a 03F5F043 		add	r3, r3, #30720
  92 005e 4FF00002 		mov	r2, #0
  93 0062 1A70     		strb	r2, [r3, #0]
  69:.\Generated_Source\PSoC5/CyDmac.c **** }
  94              		.loc 1 69 0
  95 0064 07F10C07 		add	r7, r7, #12
  96 0068 BD46     		mov	sp, r7
  97 006a 80BC     		pop	{r7}
  98 006c 7047     		bx	lr
ARM GAS  C:\Users\karunmj\AppData\Local\Temp\ccia1kJ3.s 			page 4


  99              		.cfi_endproc
 100              	.LFE0:
 101              		.size	CyDmacConfigure, .-CyDmacConfigure
 102 006e 00BF     		.section	.text.CyDmacError,"ax",%progbits
 103              		.align	2
 104              		.global	CyDmacError
 105              		.thumb
 106              		.thumb_func
 107              		.type	CyDmacError, %function
 108              	CyDmacError:
 109              	.LFB1:
  70:.\Generated_Source\PSoC5/CyDmac.c **** 
  71:.\Generated_Source\PSoC5/CyDmac.c **** 
  72:.\Generated_Source\PSoC5/CyDmac.c **** /*******************************************************************************
  73:.\Generated_Source\PSoC5/CyDmac.c **** * Function Name: CyDmacError
  74:.\Generated_Source\PSoC5/CyDmac.c **** ********************************************************************************
  75:.\Generated_Source\PSoC5/CyDmac.c **** *
  76:.\Generated_Source\PSoC5/CyDmac.c **** * Summary:
  77:.\Generated_Source\PSoC5/CyDmac.c **** *  Returns errors of the last failed DMA transaction.
  78:.\Generated_Source\PSoC5/CyDmac.c **** *
  79:.\Generated_Source\PSoC5/CyDmac.c **** * Parameters:
  80:.\Generated_Source\PSoC5/CyDmac.c **** *  None
  81:.\Generated_Source\PSoC5/CyDmac.c **** *
  82:.\Generated_Source\PSoC5/CyDmac.c **** * Return:
  83:.\Generated_Source\PSoC5/CyDmac.c **** *  Errors of the last failed DMA transaction.
  84:.\Generated_Source\PSoC5/CyDmac.c **** *
  85:.\Generated_Source\PSoC5/CyDmac.c **** *  DMAC_PERIPH_ERR:
  86:.\Generated_Source\PSoC5/CyDmac.c **** *   Set to 1 when a peripheral responds to a bus transaction with an error
  87:.\Generated_Source\PSoC5/CyDmac.c **** *   response.
  88:.\Generated_Source\PSoC5/CyDmac.c **** *
  89:.\Generated_Source\PSoC5/CyDmac.c **** *  DMAC_UNPOP_ACC:
  90:.\Generated_Source\PSoC5/CyDmac.c **** *   Set to 1 when an access is attempted to an invalid address.
  91:.\Generated_Source\PSoC5/CyDmac.c **** *
  92:.\Generated_Source\PSoC5/CyDmac.c **** *  DMAC_BUS_TIMEOUT:
  93:.\Generated_Source\PSoC5/CyDmac.c **** *   Set to 1 when a bus timeout occurs. Cleared by writing a 1. Timeout values
  94:.\Generated_Source\PSoC5/CyDmac.c **** *   are determined by the BUS_TIMEOUT field in the PHUBCFG register.
  95:.\Generated_Source\PSoC5/CyDmac.c **** *
  96:.\Generated_Source\PSoC5/CyDmac.c **** * Theory:
  97:.\Generated_Source\PSoC5/CyDmac.c **** *  Once an error occurs the error bits are sticky and are only cleared by a
  98:.\Generated_Source\PSoC5/CyDmac.c **** *  write 1 to the error register.
  99:.\Generated_Source\PSoC5/CyDmac.c **** *
 100:.\Generated_Source\PSoC5/CyDmac.c **** *******************************************************************************/
 101:.\Generated_Source\PSoC5/CyDmac.c **** uint8 CyDmacError(void) 
 102:.\Generated_Source\PSoC5/CyDmac.c **** {
 110              		.loc 1 102 0
 111              		.cfi_startproc
 112              		@ args = 0, pretend = 0, frame = 0
 113              		@ frame_needed = 1, uses_anonymous_args = 0
 114              		@ link register save eliminated.
 115 0000 80B4     		push	{r7}
 116              	.LCFI3:
 117              		.cfi_def_cfa_offset 4
 118 0002 00AF     		add	r7, sp, #0
 119              		.cfi_offset 7, -4
 120              	.LCFI4:
 121              		.cfi_def_cfa_register 7
 103:.\Generated_Source\PSoC5/CyDmac.c ****     return((uint8)(((uint32) 0x0Fu) & *CY_DMA_ERR_PTR));
ARM GAS  C:\Users\karunmj\AppData\Local\Temp\ccia1kJ3.s 			page 5


 122              		.loc 1 103 0
 123 0004 47F20403 		movw	r3, #:lower16:1073770500
 124 0008 C4F20003 		movt	r3, #:upper16:1073770500
 125 000c 1B68     		ldr	r3, [r3, #0]
 126 000e DBB2     		uxtb	r3, r3
 127 0010 03F00F03 		and	r3, r3, #15
 104:.\Generated_Source\PSoC5/CyDmac.c **** }
 128              		.loc 1 104 0
 129 0014 1846     		mov	r0, r3
 130 0016 BD46     		mov	sp, r7
 131 0018 80BC     		pop	{r7}
 132 001a 7047     		bx	lr
 133              		.cfi_endproc
 134              	.LFE1:
 135              		.size	CyDmacError, .-CyDmacError
 136              		.section	.text.CyDmacClearError,"ax",%progbits
 137              		.align	2
 138              		.global	CyDmacClearError
 139              		.thumb
 140              		.thumb_func
 141              		.type	CyDmacClearError, %function
 142              	CyDmacClearError:
 143              	.LFB2:
 105:.\Generated_Source\PSoC5/CyDmac.c **** 
 106:.\Generated_Source\PSoC5/CyDmac.c **** 
 107:.\Generated_Source\PSoC5/CyDmac.c **** /*******************************************************************************
 108:.\Generated_Source\PSoC5/CyDmac.c **** * Function Name: CyDmacClearError
 109:.\Generated_Source\PSoC5/CyDmac.c **** ********************************************************************************
 110:.\Generated_Source\PSoC5/CyDmac.c **** *
 111:.\Generated_Source\PSoC5/CyDmac.c **** * Summary:
 112:.\Generated_Source\PSoC5/CyDmac.c **** *  Clears the error bits in the error register of the DMAC.
 113:.\Generated_Source\PSoC5/CyDmac.c **** *
 114:.\Generated_Source\PSoC5/CyDmac.c **** * Parameters:
 115:.\Generated_Source\PSoC5/CyDmac.c **** * error:
 116:.\Generated_Source\PSoC5/CyDmac.c **** *   Clears the error bits in the DMAC error register.
 117:.\Generated_Source\PSoC5/CyDmac.c **** *
 118:.\Generated_Source\PSoC5/CyDmac.c **** *  DMAC_PERIPH_ERR:
 119:.\Generated_Source\PSoC5/CyDmac.c **** *   Set to 1 when a peripheral responds to a bus transaction with an error
 120:.\Generated_Source\PSoC5/CyDmac.c **** *   response.
 121:.\Generated_Source\PSoC5/CyDmac.c **** *
 122:.\Generated_Source\PSoC5/CyDmac.c **** *  DMAC_UNPOP_ACC:
 123:.\Generated_Source\PSoC5/CyDmac.c **** *   Set to 1 when an access is attempted to an invalid address.
 124:.\Generated_Source\PSoC5/CyDmac.c **** *
 125:.\Generated_Source\PSoC5/CyDmac.c **** *  DMAC_BUS_TIMEOUT:
 126:.\Generated_Source\PSoC5/CyDmac.c **** *   Set to 1 when a bus timeout occurs. Cleared by writing a 1. Timeout values
 127:.\Generated_Source\PSoC5/CyDmac.c **** *   are determined by the BUS_TIMEOUT field in the PHUBCFG register.
 128:.\Generated_Source\PSoC5/CyDmac.c **** *
 129:.\Generated_Source\PSoC5/CyDmac.c **** * Return:
 130:.\Generated_Source\PSoC5/CyDmac.c **** *  None
 131:.\Generated_Source\PSoC5/CyDmac.c **** *
 132:.\Generated_Source\PSoC5/CyDmac.c **** * Theory:
 133:.\Generated_Source\PSoC5/CyDmac.c **** *  Once an error occurs the error bits are sticky and are only cleared by a
 134:.\Generated_Source\PSoC5/CyDmac.c **** *  write 1 to the error register.
 135:.\Generated_Source\PSoC5/CyDmac.c **** *
 136:.\Generated_Source\PSoC5/CyDmac.c **** *******************************************************************************/
 137:.\Generated_Source\PSoC5/CyDmac.c **** void CyDmacClearError(uint8 error) 
 138:.\Generated_Source\PSoC5/CyDmac.c **** {
ARM GAS  C:\Users\karunmj\AppData\Local\Temp\ccia1kJ3.s 			page 6


 144              		.loc 1 138 0
 145              		.cfi_startproc
 146              		@ args = 0, pretend = 0, frame = 8
 147              		@ frame_needed = 1, uses_anonymous_args = 0
 148              		@ link register save eliminated.
 149 0000 80B4     		push	{r7}
 150              	.LCFI5:
 151              		.cfi_def_cfa_offset 4
 152 0002 83B0     		sub	sp, sp, #12
 153              	.LCFI6:
 154              		.cfi_def_cfa_offset 16
 155 0004 00AF     		add	r7, sp, #0
 156              		.cfi_offset 7, -4
 157              	.LCFI7:
 158              		.cfi_def_cfa_register 7
 159 0006 0346     		mov	r3, r0
 160 0008 FB71     		strb	r3, [r7, #7]
 139:.\Generated_Source\PSoC5/CyDmac.c ****     *CY_DMA_ERR_PTR = (((uint32)0x0Fu) & ((uint32)error));
 161              		.loc 1 139 0
 162 000a 47F20403 		movw	r3, #:lower16:1073770500
 163 000e C4F20003 		movt	r3, #:upper16:1073770500
 164 0012 FA79     		ldrb	r2, [r7, #7]	@ zero_extendqisi2
 165 0014 02F00F02 		and	r2, r2, #15
 166 0018 1A60     		str	r2, [r3, #0]
 140:.\Generated_Source\PSoC5/CyDmac.c **** }
 167              		.loc 1 140 0
 168 001a 07F10C07 		add	r7, r7, #12
 169 001e BD46     		mov	sp, r7
 170 0020 80BC     		pop	{r7}
 171 0022 7047     		bx	lr
 172              		.cfi_endproc
 173              	.LFE2:
 174              		.size	CyDmacClearError, .-CyDmacClearError
 175              		.section	.text.CyDmacErrorAddress,"ax",%progbits
 176              		.align	2
 177              		.global	CyDmacErrorAddress
 178              		.thumb
 179              		.thumb_func
 180              		.type	CyDmacErrorAddress, %function
 181              	CyDmacErrorAddress:
 182              	.LFB3:
 141:.\Generated_Source\PSoC5/CyDmac.c **** 
 142:.\Generated_Source\PSoC5/CyDmac.c **** 
 143:.\Generated_Source\PSoC5/CyDmac.c **** /*******************************************************************************
 144:.\Generated_Source\PSoC5/CyDmac.c **** * Function Name: CyDmacErrorAddress
 145:.\Generated_Source\PSoC5/CyDmac.c **** ********************************************************************************
 146:.\Generated_Source\PSoC5/CyDmac.c **** *
 147:.\Generated_Source\PSoC5/CyDmac.c **** * Summary:
 148:.\Generated_Source\PSoC5/CyDmac.c **** *  When an DMAC_BUS_TIMEOUT, DMAC_UNPOP_ACC and DMAC_PERIPH_ERR occurs the
 149:.\Generated_Source\PSoC5/CyDmac.c **** *  address of the error is written to the error address register and can be read
 150:.\Generated_Source\PSoC5/CyDmac.c **** *  with this function.
 151:.\Generated_Source\PSoC5/CyDmac.c **** *
 152:.\Generated_Source\PSoC5/CyDmac.c **** *  If there are multiple errors, only the address of the first is saved.
 153:.\Generated_Source\PSoC5/CyDmac.c **** *
 154:.\Generated_Source\PSoC5/CyDmac.c **** * Parameters:
 155:.\Generated_Source\PSoC5/CyDmac.c **** *  None
 156:.\Generated_Source\PSoC5/CyDmac.c **** *
ARM GAS  C:\Users\karunmj\AppData\Local\Temp\ccia1kJ3.s 			page 7


 157:.\Generated_Source\PSoC5/CyDmac.c **** * Return:
 158:.\Generated_Source\PSoC5/CyDmac.c **** *  The address that caused the error.
 159:.\Generated_Source\PSoC5/CyDmac.c **** *
 160:.\Generated_Source\PSoC5/CyDmac.c **** *******************************************************************************/
 161:.\Generated_Source\PSoC5/CyDmac.c **** uint32 CyDmacErrorAddress(void) 
 162:.\Generated_Source\PSoC5/CyDmac.c **** {
 183              		.loc 1 162 0
 184              		.cfi_startproc
 185              		@ args = 0, pretend = 0, frame = 0
 186              		@ frame_needed = 1, uses_anonymous_args = 0
 187              		@ link register save eliminated.
 188 0000 80B4     		push	{r7}
 189              	.LCFI8:
 190              		.cfi_def_cfa_offset 4
 191 0002 00AF     		add	r7, sp, #0
 192              		.cfi_offset 7, -4
 193              	.LCFI9:
 194              		.cfi_def_cfa_register 7
 163:.\Generated_Source\PSoC5/CyDmac.c ****     return(CY_GET_REG32(CY_DMA_ERR_ADR_PTR));
 195              		.loc 1 163 0
 196 0004 47F20803 		movw	r3, #:lower16:1073770504
 197 0008 C4F20003 		movt	r3, #:upper16:1073770504
 198 000c 1B68     		ldr	r3, [r3, #0]
 164:.\Generated_Source\PSoC5/CyDmac.c **** }
 199              		.loc 1 164 0
 200 000e 1846     		mov	r0, r3
 201 0010 BD46     		mov	sp, r7
 202 0012 80BC     		pop	{r7}
 203 0014 7047     		bx	lr
 204              		.cfi_endproc
 205              	.LFE3:
 206              		.size	CyDmacErrorAddress, .-CyDmacErrorAddress
 207 0016 00BF     		.section	.text.CyDmaChAlloc,"ax",%progbits
 208              		.align	2
 209              		.global	CyDmaChAlloc
 210              		.thumb
 211              		.thumb_func
 212              		.type	CyDmaChAlloc, %function
 213              	CyDmaChAlloc:
 214              	.LFB4:
 165:.\Generated_Source\PSoC5/CyDmac.c **** 
 166:.\Generated_Source\PSoC5/CyDmac.c **** 
 167:.\Generated_Source\PSoC5/CyDmac.c **** /*******************************************************************************
 168:.\Generated_Source\PSoC5/CyDmac.c **** * Function Name: CyDmaChAlloc
 169:.\Generated_Source\PSoC5/CyDmac.c **** ********************************************************************************
 170:.\Generated_Source\PSoC5/CyDmac.c **** *
 171:.\Generated_Source\PSoC5/CyDmac.c **** * Summary:
 172:.\Generated_Source\PSoC5/CyDmac.c **** *  Allocates a channel from the DMAC to be used in all functions that require a
 173:.\Generated_Source\PSoC5/CyDmac.c **** *  channel handle.
 174:.\Generated_Source\PSoC5/CyDmac.c **** *
 175:.\Generated_Source\PSoC5/CyDmac.c **** * Parameters:
 176:.\Generated_Source\PSoC5/CyDmac.c **** *  None
 177:.\Generated_Source\PSoC5/CyDmac.c **** *
 178:.\Generated_Source\PSoC5/CyDmac.c **** * Return:
 179:.\Generated_Source\PSoC5/CyDmac.c **** *  The allocated channel number. Zero is a valid channel number.
 180:.\Generated_Source\PSoC5/CyDmac.c **** *  DMA_INVALID_CHANNEL is returned if there are no channels available.
 181:.\Generated_Source\PSoC5/CyDmac.c **** *
ARM GAS  C:\Users\karunmj\AppData\Local\Temp\ccia1kJ3.s 			page 8


 182:.\Generated_Source\PSoC5/CyDmac.c **** *******************************************************************************/
 183:.\Generated_Source\PSoC5/CyDmac.c **** uint8 CyDmaChAlloc(void) 
 184:.\Generated_Source\PSoC5/CyDmac.c **** {
 215              		.loc 1 184 0
 216              		.cfi_startproc
 217              		@ args = 0, pretend = 0, frame = 8
 218              		@ frame_needed = 1, uses_anonymous_args = 0
 219 0000 80B5     		push	{r7, lr}
 220              	.LCFI10:
 221              		.cfi_def_cfa_offset 8
 222 0002 82B0     		sub	sp, sp, #8
 223              	.LCFI11:
 224              		.cfi_def_cfa_offset 16
 225 0004 00AF     		add	r7, sp, #0
 226              		.cfi_offset 14, -4
 227              		.cfi_offset 7, -8
 228              	.LCFI12:
 229              		.cfi_def_cfa_register 7
 185:.\Generated_Source\PSoC5/CyDmac.c ****     uint8 interruptState;
 186:.\Generated_Source\PSoC5/CyDmac.c ****     uint8 dmaIndex;
 187:.\Generated_Source\PSoC5/CyDmac.c ****     uint32 channel = 1u;
 230              		.loc 1 187 0
 231 0006 4FF00103 		mov	r3, #1
 232 000a 7B60     		str	r3, [r7, #4]
 188:.\Generated_Source\PSoC5/CyDmac.c **** 
 189:.\Generated_Source\PSoC5/CyDmac.c **** 
 190:.\Generated_Source\PSoC5/CyDmac.c ****     /* Enter critical section! */
 191:.\Generated_Source\PSoC5/CyDmac.c ****     interruptState = CyEnterCriticalSection();
 233              		.loc 1 191 0
 234 000c FFF7FEFF 		bl	CyEnterCriticalSection
 235 0010 0346     		mov	r3, r0
 236 0012 BB70     		strb	r3, [r7, #2]
 192:.\Generated_Source\PSoC5/CyDmac.c **** 
 193:.\Generated_Source\PSoC5/CyDmac.c ****     /* Look for a free channel. */
 194:.\Generated_Source\PSoC5/CyDmac.c ****     for(dmaIndex = 0u; dmaIndex < CY_DMA_NUMBEROF_CHANNELS; dmaIndex++)
 237              		.loc 1 194 0
 238 0014 4FF00003 		mov	r3, #0
 239 0018 FB70     		strb	r3, [r7, #3]
 240 001a 1FE0     		b	.L12
 241              	.L15:
 195:.\Generated_Source\PSoC5/CyDmac.c ****     {
 196:.\Generated_Source\PSoC5/CyDmac.c ****         if(0uL == (CyDmaChannels & channel))
 242              		.loc 1 196 0
 243 001c 40F20003 		movw	r3, #:lower16:CyDmaChannels
 244 0020 C0F20003 		movt	r3, #:upper16:CyDmaChannels
 245 0024 1A68     		ldr	r2, [r3, #0]
 246 0026 7B68     		ldr	r3, [r7, #4]
 247 0028 02EA0303 		and	r3, r2, r3
 248 002c 002B     		cmp	r3, #0
 249 002e 0DD1     		bne	.L13
 197:.\Generated_Source\PSoC5/CyDmac.c ****         {
 198:.\Generated_Source\PSoC5/CyDmac.c ****             /* Mark the channel as used. */
 199:.\Generated_Source\PSoC5/CyDmac.c ****             CyDmaChannels |= channel;
 250              		.loc 1 199 0
 251 0030 40F20003 		movw	r3, #:lower16:CyDmaChannels
 252 0034 C0F20003 		movt	r3, #:upper16:CyDmaChannels
 253 0038 1A68     		ldr	r2, [r3, #0]
ARM GAS  C:\Users\karunmj\AppData\Local\Temp\ccia1kJ3.s 			page 9


 254 003a 7B68     		ldr	r3, [r7, #4]
 255 003c 42EA0302 		orr	r2, r2, r3
 256 0040 40F20003 		movw	r3, #:lower16:CyDmaChannels
 257 0044 C0F20003 		movt	r3, #:upper16:CyDmaChannels
 258 0048 1A60     		str	r2, [r3, #0]
 200:.\Generated_Source\PSoC5/CyDmac.c ****             break;
 259              		.loc 1 200 0
 260 004a 0AE0     		b	.L14
 261              	.L13:
 201:.\Generated_Source\PSoC5/CyDmac.c ****         }
 202:.\Generated_Source\PSoC5/CyDmac.c **** 
 203:.\Generated_Source\PSoC5/CyDmac.c ****         channel <<= 1u;
 262              		.loc 1 203 0
 263 004c 7B68     		ldr	r3, [r7, #4]
 264 004e 4FEA4303 		lsl	r3, r3, #1
 265 0052 7B60     		str	r3, [r7, #4]
 266              		.loc 1 194 0
 267 0054 FB78     		ldrb	r3, [r7, #3]
 268 0056 03F10103 		add	r3, r3, #1
 269 005a FB70     		strb	r3, [r7, #3]
 270              	.L12:
 271 005c FB78     		ldrb	r3, [r7, #3]	@ zero_extendqisi2
 272 005e 172B     		cmp	r3, #23
 273 0060 DCD9     		bls	.L15
 274              	.L14:
 204:.\Generated_Source\PSoC5/CyDmac.c ****     }
 205:.\Generated_Source\PSoC5/CyDmac.c **** 
 206:.\Generated_Source\PSoC5/CyDmac.c ****     if(dmaIndex >= CY_DMA_NUMBEROF_CHANNELS)
 275              		.loc 1 206 0
 276 0062 FB78     		ldrb	r3, [r7, #3]	@ zero_extendqisi2
 277 0064 172B     		cmp	r3, #23
 278 0066 02D9     		bls	.L16
 207:.\Generated_Source\PSoC5/CyDmac.c ****     {
 208:.\Generated_Source\PSoC5/CyDmac.c ****         dmaIndex = CY_DMA_INVALID_CHANNEL;
 279              		.loc 1 208 0
 280 0068 4FF0FF33 		mov	r3, #-1
 281 006c FB70     		strb	r3, [r7, #3]
 282              	.L16:
 209:.\Generated_Source\PSoC5/CyDmac.c ****     }
 210:.\Generated_Source\PSoC5/CyDmac.c **** 
 211:.\Generated_Source\PSoC5/CyDmac.c ****     /* Exit critical section! */
 212:.\Generated_Source\PSoC5/CyDmac.c ****     CyExitCriticalSection(interruptState);
 283              		.loc 1 212 0
 284 006e BB78     		ldrb	r3, [r7, #2]	@ zero_extendqisi2
 285 0070 1846     		mov	r0, r3
 286 0072 FFF7FEFF 		bl	CyExitCriticalSection
 213:.\Generated_Source\PSoC5/CyDmac.c **** 
 214:.\Generated_Source\PSoC5/CyDmac.c ****     return(dmaIndex);
 287              		.loc 1 214 0
 288 0076 FB78     		ldrb	r3, [r7, #3]	@ zero_extendqisi2
 215:.\Generated_Source\PSoC5/CyDmac.c **** }
 289              		.loc 1 215 0
 290 0078 1846     		mov	r0, r3
 291 007a 07F10807 		add	r7, r7, #8
 292 007e BD46     		mov	sp, r7
 293 0080 80BD     		pop	{r7, pc}
 294              		.cfi_endproc
ARM GAS  C:\Users\karunmj\AppData\Local\Temp\ccia1kJ3.s 			page 10


 295              	.LFE4:
 296              		.size	CyDmaChAlloc, .-CyDmaChAlloc
 297 0082 00BF     		.section	.text.CyDmaChFree,"ax",%progbits
 298              		.align	2
 299              		.global	CyDmaChFree
 300              		.thumb
 301              		.thumb_func
 302              		.type	CyDmaChFree, %function
 303              	CyDmaChFree:
 304              	.LFB5:
 216:.\Generated_Source\PSoC5/CyDmac.c **** 
 217:.\Generated_Source\PSoC5/CyDmac.c **** 
 218:.\Generated_Source\PSoC5/CyDmac.c **** /*******************************************************************************
 219:.\Generated_Source\PSoC5/CyDmac.c **** * Function Name: CyDmaChFree
 220:.\Generated_Source\PSoC5/CyDmac.c **** ********************************************************************************
 221:.\Generated_Source\PSoC5/CyDmac.c **** *
 222:.\Generated_Source\PSoC5/CyDmac.c **** * Summary:
 223:.\Generated_Source\PSoC5/CyDmac.c **** *  Frees a channel allocated by DmaChAlloc().
 224:.\Generated_Source\PSoC5/CyDmac.c **** *
 225:.\Generated_Source\PSoC5/CyDmac.c **** * Parameters:
 226:.\Generated_Source\PSoC5/CyDmac.c **** *  uint8 chHandle:
 227:.\Generated_Source\PSoC5/CyDmac.c **** *   The handle previously returned by CyDmaChAlloc() or DMA_DmaInitalize().
 228:.\Generated_Source\PSoC5/CyDmac.c **** *
 229:.\Generated_Source\PSoC5/CyDmac.c **** * Return:
 230:.\Generated_Source\PSoC5/CyDmac.c **** *  CYRET_SUCCESS if successful.
 231:.\Generated_Source\PSoC5/CyDmac.c **** *  CYRET_BAD_PARAM if chHandle is invalid.
 232:.\Generated_Source\PSoC5/CyDmac.c **** *
 233:.\Generated_Source\PSoC5/CyDmac.c **** *******************************************************************************/
 234:.\Generated_Source\PSoC5/CyDmac.c **** cystatus CyDmaChFree(uint8 chHandle) 
 235:.\Generated_Source\PSoC5/CyDmac.c **** {
 305              		.loc 1 235 0
 306              		.cfi_startproc
 307              		@ args = 0, pretend = 0, frame = 16
 308              		@ frame_needed = 1, uses_anonymous_args = 0
 309 0000 80B5     		push	{r7, lr}
 310              	.LCFI13:
 311              		.cfi_def_cfa_offset 8
 312 0002 84B0     		sub	sp, sp, #16
 313              	.LCFI14:
 314              		.cfi_def_cfa_offset 24
 315 0004 00AF     		add	r7, sp, #0
 316              		.cfi_offset 14, -4
 317              		.cfi_offset 7, -8
 318              	.LCFI15:
 319              		.cfi_def_cfa_register 7
 320 0006 0346     		mov	r3, r0
 321 0008 FB71     		strb	r3, [r7, #7]
 236:.\Generated_Source\PSoC5/CyDmac.c ****     cystatus status = CYRET_BAD_PARAM;
 322              		.loc 1 236 0
 323 000a 4FF00103 		mov	r3, #1
 324 000e BB60     		str	r3, [r7, #8]
 237:.\Generated_Source\PSoC5/CyDmac.c ****     uint8 interruptState;
 238:.\Generated_Source\PSoC5/CyDmac.c **** 
 239:.\Generated_Source\PSoC5/CyDmac.c ****     if(chHandle < CY_DMA_NUMBEROF_CHANNELS)
 325              		.loc 1 239 0
 326 0010 FB79     		ldrb	r3, [r7, #7]	@ zero_extendqisi2
 327 0012 172B     		cmp	r3, #23
ARM GAS  C:\Users\karunmj\AppData\Local\Temp\ccia1kJ3.s 			page 11


 328 0014 1DD8     		bhi	.L19
 240:.\Generated_Source\PSoC5/CyDmac.c ****     {
 241:.\Generated_Source\PSoC5/CyDmac.c ****         /* Enter critical section */
 242:.\Generated_Source\PSoC5/CyDmac.c ****         interruptState = CyEnterCriticalSection();
 329              		.loc 1 242 0
 330 0016 FFF7FEFF 		bl	CyEnterCriticalSection
 331 001a 0346     		mov	r3, r0
 332 001c FB73     		strb	r3, [r7, #15]
 243:.\Generated_Source\PSoC5/CyDmac.c **** 
 244:.\Generated_Source\PSoC5/CyDmac.c ****         /* Clear the bit mask that keeps track of ownership. */
 245:.\Generated_Source\PSoC5/CyDmac.c ****         CyDmaChannels &= ~(((uint32) 1u) << chHandle);
 333              		.loc 1 245 0
 334 001e FB79     		ldrb	r3, [r7, #7]	@ zero_extendqisi2
 335 0020 4FF00102 		mov	r2, #1
 336 0024 02FA03F3 		lsl	r3, r2, r3
 337 0028 6FEA0302 		mvn	r2, r3
 338 002c 40F20003 		movw	r3, #:lower16:CyDmaChannels
 339 0030 C0F20003 		movt	r3, #:upper16:CyDmaChannels
 340 0034 1B68     		ldr	r3, [r3, #0]
 341 0036 02EA0302 		and	r2, r2, r3
 342 003a 40F20003 		movw	r3, #:lower16:CyDmaChannels
 343 003e C0F20003 		movt	r3, #:upper16:CyDmaChannels
 344 0042 1A60     		str	r2, [r3, #0]
 246:.\Generated_Source\PSoC5/CyDmac.c **** 
 247:.\Generated_Source\PSoC5/CyDmac.c ****         /* Exit critical section */
 248:.\Generated_Source\PSoC5/CyDmac.c ****         CyExitCriticalSection(interruptState);
 345              		.loc 1 248 0
 346 0044 FB7B     		ldrb	r3, [r7, #15]	@ zero_extendqisi2
 347 0046 1846     		mov	r0, r3
 348 0048 FFF7FEFF 		bl	CyExitCriticalSection
 249:.\Generated_Source\PSoC5/CyDmac.c ****         status = CYRET_SUCCESS;
 349              		.loc 1 249 0
 350 004c 4FF00003 		mov	r3, #0
 351 0050 BB60     		str	r3, [r7, #8]
 352              	.L19:
 250:.\Generated_Source\PSoC5/CyDmac.c ****     }
 251:.\Generated_Source\PSoC5/CyDmac.c **** 
 252:.\Generated_Source\PSoC5/CyDmac.c ****     return(status);
 353              		.loc 1 252 0
 354 0052 BB68     		ldr	r3, [r7, #8]
 253:.\Generated_Source\PSoC5/CyDmac.c **** }
 355              		.loc 1 253 0
 356 0054 1846     		mov	r0, r3
 357 0056 07F11007 		add	r7, r7, #16
 358 005a BD46     		mov	sp, r7
 359 005c 80BD     		pop	{r7, pc}
 360              		.cfi_endproc
 361              	.LFE5:
 362              		.size	CyDmaChFree, .-CyDmaChFree
 363 005e 00BF     		.section	.text.CyDmaChEnable,"ax",%progbits
 364              		.align	2
 365              		.global	CyDmaChEnable
 366              		.thumb
 367              		.thumb_func
 368              		.type	CyDmaChEnable, %function
 369              	CyDmaChEnable:
 370              	.LFB6:
ARM GAS  C:\Users\karunmj\AppData\Local\Temp\ccia1kJ3.s 			page 12


 254:.\Generated_Source\PSoC5/CyDmac.c **** 
 255:.\Generated_Source\PSoC5/CyDmac.c **** 
 256:.\Generated_Source\PSoC5/CyDmac.c **** /*******************************************************************************
 257:.\Generated_Source\PSoC5/CyDmac.c **** * Function Name: CyDmaChEnable
 258:.\Generated_Source\PSoC5/CyDmac.c **** ********************************************************************************
 259:.\Generated_Source\PSoC5/CyDmac.c **** *
 260:.\Generated_Source\PSoC5/CyDmac.c **** * Summary:
 261:.\Generated_Source\PSoC5/CyDmac.c **** *  Enables the DMA channel. A software or hardware request still must happen
 262:.\Generated_Source\PSoC5/CyDmac.c **** *  before the channel is executed.
 263:.\Generated_Source\PSoC5/CyDmac.c **** *
 264:.\Generated_Source\PSoC5/CyDmac.c **** * Parameters:
 265:.\Generated_Source\PSoC5/CyDmac.c **** *  uint8 chHandle:
 266:.\Generated_Source\PSoC5/CyDmac.c **** *   A handle previously returned by CyDmaChAlloc() or DMA_DmaInitalize().
 267:.\Generated_Source\PSoC5/CyDmac.c **** *
 268:.\Generated_Source\PSoC5/CyDmac.c **** *  uint8 preserveTds:
 269:.\Generated_Source\PSoC5/CyDmac.c **** *   Preserves the original TD state when the TD has completed. This parameter
 270:.\Generated_Source\PSoC5/CyDmac.c **** *   applies to all TDs in the channel.
 271:.\Generated_Source\PSoC5/CyDmac.c **** *
 272:.\Generated_Source\PSoC5/CyDmac.c **** *   0 - When a TD is completed, the DMAC leaves the TD configuration values in
 273:.\Generated_Source\PSoC5/CyDmac.c **** *   their current state, and does not restore them to their original state.
 274:.\Generated_Source\PSoC5/CyDmac.c **** *
 275:.\Generated_Source\PSoC5/CyDmac.c **** *   1 - When a TD is completed, the DMAC restores the original configuration
 276:.\Generated_Source\PSoC5/CyDmac.c **** *   values of the TD.
 277:.\Generated_Source\PSoC5/CyDmac.c **** *
 278:.\Generated_Source\PSoC5/CyDmac.c **** *  When preserveTds is set, the TD slot that equals the channel number becomes
 279:.\Generated_Source\PSoC5/CyDmac.c **** *  RESERVED and that becomes where the working registers exist. So, for example,
 280:.\Generated_Source\PSoC5/CyDmac.c **** *  if you are using CH06 and preserveTds is set, you are not allowed to use TD
 281:.\Generated_Source\PSoC5/CyDmac.c **** *  slot 6. That is reclaimed by the DMA engine for its private use.
 282:.\Generated_Source\PSoC5/CyDmac.c **** *
 283:.\Generated_Source\PSoC5/CyDmac.c **** *  Note Do not chain back to a completed TD if the preserveTds for the channel
 284:.\Generated_Source\PSoC5/CyDmac.c **** *  is set to 0. When a TD has completed preserveTds for the channel set to 0,
 285:.\Generated_Source\PSoC5/CyDmac.c **** *  the transfer count will be at 0. If a TD with a transfer count of 0 is
 286:.\Generated_Source\PSoC5/CyDmac.c **** *  started, the TD will transfer an indefinite amount of data.
 287:.\Generated_Source\PSoC5/CyDmac.c **** *
 288:.\Generated_Source\PSoC5/CyDmac.c **** *  Take extra precautions when using the hardware request (DRQ) option when the
 289:.\Generated_Source\PSoC5/CyDmac.c **** *  preserveTds is set to 0, as you might be requesting the wrong data.
 290:.\Generated_Source\PSoC5/CyDmac.c **** *
 291:.\Generated_Source\PSoC5/CyDmac.c **** * Return:
 292:.\Generated_Source\PSoC5/CyDmac.c **** *  CYRET_SUCCESS if successful.
 293:.\Generated_Source\PSoC5/CyDmac.c **** *  CYRET_BAD_PARAM if chHandle is invalid.
 294:.\Generated_Source\PSoC5/CyDmac.c **** *
 295:.\Generated_Source\PSoC5/CyDmac.c **** *******************************************************************************/
 296:.\Generated_Source\PSoC5/CyDmac.c **** cystatus CyDmaChEnable(uint8 chHandle, uint8 preserveTds) 
 297:.\Generated_Source\PSoC5/CyDmac.c **** {
 371              		.loc 1 297 0
 372              		.cfi_startproc
 373              		@ args = 0, pretend = 0, frame = 16
 374              		@ frame_needed = 1, uses_anonymous_args = 0
 375              		@ link register save eliminated.
 376 0000 80B4     		push	{r7}
 377              	.LCFI16:
 378              		.cfi_def_cfa_offset 4
 379 0002 85B0     		sub	sp, sp, #20
 380              	.LCFI17:
 381              		.cfi_def_cfa_offset 24
 382 0004 00AF     		add	r7, sp, #0
 383              		.cfi_offset 7, -4
ARM GAS  C:\Users\karunmj\AppData\Local\Temp\ccia1kJ3.s 			page 13


 384              	.LCFI18:
 385              		.cfi_def_cfa_register 7
 386 0006 0246     		mov	r2, r0
 387 0008 0B46     		mov	r3, r1
 388 000a FA71     		strb	r2, [r7, #7]
 389 000c BB71     		strb	r3, [r7, #6]
 298:.\Generated_Source\PSoC5/CyDmac.c ****     cystatus status = CYRET_BAD_PARAM;
 390              		.loc 1 298 0
 391 000e 4FF00103 		mov	r3, #1
 392 0012 FB60     		str	r3, [r7, #12]
 299:.\Generated_Source\PSoC5/CyDmac.c **** 
 300:.\Generated_Source\PSoC5/CyDmac.c ****     if(chHandle < CY_DMA_NUMBEROF_CHANNELS)
 393              		.loc 1 300 0
 394 0014 FB79     		ldrb	r3, [r7, #7]	@ zero_extendqisi2
 395 0016 172B     		cmp	r3, #23
 396 0018 22D8     		bhi	.L22
 301:.\Generated_Source\PSoC5/CyDmac.c ****     {
 302:.\Generated_Source\PSoC5/CyDmac.c ****         CY_DMA_CH_STRUCT_PTR[chHandle].basic_cfg[0u] =
 397              		.loc 1 302 0
 398 001a FB79     		ldrb	r3, [r7, #7]	@ zero_extendqisi2
 399 001c 4FEA0312 		lsl	r2, r3, #4
 400 0020 47F21003 		movw	r3, #:lower16:1073770512
 401 0024 C4F20003 		movt	r3, #:upper16:1073770512
 402 0028 1344     		add	r3, r2, r3
 303:.\Generated_Source\PSoC5/CyDmac.c ****                 (CY_DMA_CH_STRUCT_PTR[chHandle].basic_cfg[0u] & ((uint8)(~0x20u))) | ((0u != preser
 403              		.loc 1 303 0
 404 002a FA79     		ldrb	r2, [r7, #7]	@ zero_extendqisi2
 405 002c 4FEA0211 		lsl	r1, r2, #4
 406 0030 47F21002 		movw	r2, #:lower16:1073770512
 407 0034 C4F20002 		movt	r2, #:upper16:1073770512
 408 0038 0A44     		add	r2, r1, r2
 409 003a 1278     		ldrb	r2, [r2, #0]
 410 003c D2B2     		uxtb	r2, r2
 411              		.loc 1 302 0
 412 003e 02F0DF02 		and	r2, r2, #223
 413 0042 B979     		ldrb	r1, [r7, #6]	@ zero_extendqisi2
 414 0044 0029     		cmp	r1, #0
 415 0046 02D0     		beq	.L23
 416 0048 4FF02101 		mov	r1, #33
 417 004c 01E0     		b	.L24
 418              	.L23:
 419 004e 4FF00101 		mov	r1, #1
 420              	.L24:
 421 0052 42EA0102 		orr	r2, r2, r1
 422 0056 D2B2     		uxtb	r2, r2
 423 0058 1A70     		strb	r2, [r3, #0]
 304:.\Generated_Source\PSoC5/CyDmac.c ****         status = CYRET_SUCCESS;
 424              		.loc 1 304 0
 425 005a 4FF00003 		mov	r3, #0
 426 005e FB60     		str	r3, [r7, #12]
 427              	.L22:
 305:.\Generated_Source\PSoC5/CyDmac.c ****     }
 306:.\Generated_Source\PSoC5/CyDmac.c **** 
 307:.\Generated_Source\PSoC5/CyDmac.c ****     return(status);
 428              		.loc 1 307 0
 429 0060 FB68     		ldr	r3, [r7, #12]
 308:.\Generated_Source\PSoC5/CyDmac.c **** }
ARM GAS  C:\Users\karunmj\AppData\Local\Temp\ccia1kJ3.s 			page 14


 430              		.loc 1 308 0
 431 0062 1846     		mov	r0, r3
 432 0064 07F11407 		add	r7, r7, #20
 433 0068 BD46     		mov	sp, r7
 434 006a 80BC     		pop	{r7}
 435 006c 7047     		bx	lr
 436              		.cfi_endproc
 437              	.LFE6:
 438              		.size	CyDmaChEnable, .-CyDmaChEnable
 439 006e 00BF     		.section	.text.CyDmaChDisable,"ax",%progbits
 440              		.align	2
 441              		.global	CyDmaChDisable
 442              		.thumb
 443              		.thumb_func
 444              		.type	CyDmaChDisable, %function
 445              	CyDmaChDisable:
 446              	.LFB7:
 309:.\Generated_Source\PSoC5/CyDmac.c **** 
 310:.\Generated_Source\PSoC5/CyDmac.c **** 
 311:.\Generated_Source\PSoC5/CyDmac.c **** /*******************************************************************************
 312:.\Generated_Source\PSoC5/CyDmac.c **** * Function Name: CyDmaChDisable
 313:.\Generated_Source\PSoC5/CyDmac.c **** ********************************************************************************
 314:.\Generated_Source\PSoC5/CyDmac.c **** *
 315:.\Generated_Source\PSoC5/CyDmac.c **** * Summary:
 316:.\Generated_Source\PSoC5/CyDmac.c **** *  Disables the DMA channel. Once this function is called, CyDmaChStatus() may
 317:.\Generated_Source\PSoC5/CyDmac.c **** *  be called to determine when the channel is disabled and which TDs were being
 318:.\Generated_Source\PSoC5/CyDmac.c **** *  executed.
 319:.\Generated_Source\PSoC5/CyDmac.c **** *
 320:.\Generated_Source\PSoC5/CyDmac.c **** *  If it is currently executing it will allow the current burst to finish
 321:.\Generated_Source\PSoC5/CyDmac.c **** *  naturally.
 322:.\Generated_Source\PSoC5/CyDmac.c **** *
 323:.\Generated_Source\PSoC5/CyDmac.c **** * Parameters:
 324:.\Generated_Source\PSoC5/CyDmac.c **** *  uint8 chHandle:
 325:.\Generated_Source\PSoC5/CyDmac.c **** *   A handle previously returned by CyDmaChAlloc() or DMA_DmaInitalize().
 326:.\Generated_Source\PSoC5/CyDmac.c **** *
 327:.\Generated_Source\PSoC5/CyDmac.c **** * Return:
 328:.\Generated_Source\PSoC5/CyDmac.c **** *  CYRET_SUCCESS if successful.
 329:.\Generated_Source\PSoC5/CyDmac.c **** *  CYRET_BAD_PARAM if chHandle is invalid.
 330:.\Generated_Source\PSoC5/CyDmac.c **** *
 331:.\Generated_Source\PSoC5/CyDmac.c **** *******************************************************************************/
 332:.\Generated_Source\PSoC5/CyDmac.c **** cystatus CyDmaChDisable(uint8 chHandle) 
 333:.\Generated_Source\PSoC5/CyDmac.c **** {
 447              		.loc 1 333 0
 448              		.cfi_startproc
 449              		@ args = 0, pretend = 0, frame = 16
 450              		@ frame_needed = 1, uses_anonymous_args = 0
 451              		@ link register save eliminated.
 452 0000 80B4     		push	{r7}
 453              	.LCFI19:
 454              		.cfi_def_cfa_offset 4
 455 0002 85B0     		sub	sp, sp, #20
 456              	.LCFI20:
 457              		.cfi_def_cfa_offset 24
 458 0004 00AF     		add	r7, sp, #0
 459              		.cfi_offset 7, -4
 460              	.LCFI21:
 461              		.cfi_def_cfa_register 7
ARM GAS  C:\Users\karunmj\AppData\Local\Temp\ccia1kJ3.s 			page 15


 462 0006 0346     		mov	r3, r0
 463 0008 FB71     		strb	r3, [r7, #7]
 334:.\Generated_Source\PSoC5/CyDmac.c ****     cystatus status = CYRET_BAD_PARAM;
 464              		.loc 1 334 0
 465 000a 4FF00103 		mov	r3, #1
 466 000e FB60     		str	r3, [r7, #12]
 335:.\Generated_Source\PSoC5/CyDmac.c **** 
 336:.\Generated_Source\PSoC5/CyDmac.c ****     if(chHandle < CY_DMA_NUMBEROF_CHANNELS)
 467              		.loc 1 336 0
 468 0010 FB79     		ldrb	r3, [r7, #7]	@ zero_extendqisi2
 469 0012 172B     		cmp	r3, #23
 470 0014 17D8     		bhi	.L27
 337:.\Generated_Source\PSoC5/CyDmac.c ****     {
 338:.\Generated_Source\PSoC5/CyDmac.c ****         CY_DMA_CH_STRUCT_PTR[chHandle].basic_cfg[0] &= ((uint8) (~0x21u));
 471              		.loc 1 338 0
 472 0016 FB79     		ldrb	r3, [r7, #7]	@ zero_extendqisi2
 473 0018 4FEA0312 		lsl	r2, r3, #4
 474 001c 47F21003 		movw	r3, #:lower16:1073770512
 475 0020 C4F20003 		movt	r3, #:upper16:1073770512
 476 0024 1344     		add	r3, r2, r3
 477 0026 FA79     		ldrb	r2, [r7, #7]	@ zero_extendqisi2
 478 0028 4FEA0211 		lsl	r1, r2, #4
 479 002c 47F21002 		movw	r2, #:lower16:1073770512
 480 0030 C4F20002 		movt	r2, #:upper16:1073770512
 481 0034 0A44     		add	r2, r1, r2
 482 0036 1278     		ldrb	r2, [r2, #0]
 483 0038 D2B2     		uxtb	r2, r2
 484 003a 02F0DE02 		and	r2, r2, #222
 485 003e 1A70     		strb	r2, [r3, #0]
 339:.\Generated_Source\PSoC5/CyDmac.c ****         status = CYRET_SUCCESS;
 486              		.loc 1 339 0
 487 0040 4FF00003 		mov	r3, #0
 488 0044 FB60     		str	r3, [r7, #12]
 489              	.L27:
 340:.\Generated_Source\PSoC5/CyDmac.c ****     }
 341:.\Generated_Source\PSoC5/CyDmac.c **** 
 342:.\Generated_Source\PSoC5/CyDmac.c ****     return(status);
 490              		.loc 1 342 0
 491 0046 FB68     		ldr	r3, [r7, #12]
 343:.\Generated_Source\PSoC5/CyDmac.c **** }
 492              		.loc 1 343 0
 493 0048 1846     		mov	r0, r3
 494 004a 07F11407 		add	r7, r7, #20
 495 004e BD46     		mov	sp, r7
 496 0050 80BC     		pop	{r7}
 497 0052 7047     		bx	lr
 498              		.cfi_endproc
 499              	.LFE7:
 500              		.size	CyDmaChDisable, .-CyDmaChDisable
 501              		.section	.text.CyDmaClearPendingDrq,"ax",%progbits
 502              		.align	2
 503              		.global	CyDmaClearPendingDrq
 504              		.thumb
 505              		.thumb_func
 506              		.type	CyDmaClearPendingDrq, %function
 507              	CyDmaClearPendingDrq:
 508              	.LFB8:
ARM GAS  C:\Users\karunmj\AppData\Local\Temp\ccia1kJ3.s 			page 16


 344:.\Generated_Source\PSoC5/CyDmac.c **** 
 345:.\Generated_Source\PSoC5/CyDmac.c **** 
 346:.\Generated_Source\PSoC5/CyDmac.c **** /*******************************************************************************
 347:.\Generated_Source\PSoC5/CyDmac.c **** * Function Name: CyDmaClearPendingDrq
 348:.\Generated_Source\PSoC5/CyDmac.c **** ********************************************************************************
 349:.\Generated_Source\PSoC5/CyDmac.c **** *
 350:.\Generated_Source\PSoC5/CyDmac.c **** * Summary:
 351:.\Generated_Source\PSoC5/CyDmac.c **** *  Clears pending DMA data request.
 352:.\Generated_Source\PSoC5/CyDmac.c **** *
 353:.\Generated_Source\PSoC5/CyDmac.c **** * Parameters:
 354:.\Generated_Source\PSoC5/CyDmac.c **** *  uint8 chHandle:
 355:.\Generated_Source\PSoC5/CyDmac.c **** *   Handle to the dma channel.
 356:.\Generated_Source\PSoC5/CyDmac.c **** *
 357:.\Generated_Source\PSoC5/CyDmac.c **** * Return:
 358:.\Generated_Source\PSoC5/CyDmac.c **** *  CYRET_SUCCESS if successful.
 359:.\Generated_Source\PSoC5/CyDmac.c **** *  CYRET_BAD_PARAM if chHandle is invalid.
 360:.\Generated_Source\PSoC5/CyDmac.c **** *
 361:.\Generated_Source\PSoC5/CyDmac.c **** *******************************************************************************/
 362:.\Generated_Source\PSoC5/CyDmac.c **** cystatus CyDmaClearPendingDrq(uint8 chHandle) 
 363:.\Generated_Source\PSoC5/CyDmac.c **** {
 509              		.loc 1 363 0
 510              		.cfi_startproc
 511              		@ args = 0, pretend = 0, frame = 16
 512              		@ frame_needed = 1, uses_anonymous_args = 0
 513              		@ link register save eliminated.
 514 0000 80B4     		push	{r7}
 515              	.LCFI22:
 516              		.cfi_def_cfa_offset 4
 517 0002 85B0     		sub	sp, sp, #20
 518              	.LCFI23:
 519              		.cfi_def_cfa_offset 24
 520 0004 00AF     		add	r7, sp, #0
 521              		.cfi_offset 7, -4
 522              	.LCFI24:
 523              		.cfi_def_cfa_register 7
 524 0006 0346     		mov	r3, r0
 525 0008 FB71     		strb	r3, [r7, #7]
 364:.\Generated_Source\PSoC5/CyDmac.c ****     cystatus status = CYRET_BAD_PARAM;
 526              		.loc 1 364 0
 527 000a 4FF00103 		mov	r3, #1
 528 000e FB60     		str	r3, [r7, #12]
 365:.\Generated_Source\PSoC5/CyDmac.c **** 
 366:.\Generated_Source\PSoC5/CyDmac.c ****     if(chHandle < CY_DMA_NUMBEROF_CHANNELS)
 529              		.loc 1 366 0
 530 0010 FB79     		ldrb	r3, [r7, #7]	@ zero_extendqisi2
 531 0012 172B     		cmp	r3, #23
 532 0014 2ED8     		bhi	.L30
 367:.\Generated_Source\PSoC5/CyDmac.c ****     {
 368:.\Generated_Source\PSoC5/CyDmac.c ****         CY_DMA_CH_STRUCT_PTR[chHandle].action[0] |= CY_DMA_CPU_TERM_CHAIN;
 533              		.loc 1 368 0
 534 0016 FB79     		ldrb	r3, [r7, #7]	@ zero_extendqisi2
 535 0018 4FEA0312 		lsl	r2, r3, #4
 536 001c 47F21003 		movw	r3, #:lower16:1073770512
 537 0020 C4F20003 		movt	r3, #:upper16:1073770512
 538 0024 1344     		add	r3, r2, r3
 539 0026 FA79     		ldrb	r2, [r7, #7]	@ zero_extendqisi2
 540 0028 4FEA0211 		lsl	r1, r2, #4
ARM GAS  C:\Users\karunmj\AppData\Local\Temp\ccia1kJ3.s 			page 17


 541 002c 47F21002 		movw	r2, #:lower16:1073770512
 542 0030 C4F20002 		movt	r2, #:upper16:1073770512
 543 0034 0A44     		add	r2, r1, r2
 544 0036 1279     		ldrb	r2, [r2, #4]
 545 0038 D2B2     		uxtb	r2, r2
 546 003a 42F00402 		orr	r2, r2, #4
 547 003e D2B2     		uxtb	r2, r2
 548 0040 1A71     		strb	r2, [r3, #4]
 369:.\Generated_Source\PSoC5/CyDmac.c ****         CY_DMA_CH_STRUCT_PTR[chHandle].basic_cfg[0] |= 0x01u;
 549              		.loc 1 369 0
 550 0042 FB79     		ldrb	r3, [r7, #7]	@ zero_extendqisi2
 551 0044 4FEA0312 		lsl	r2, r3, #4
 552 0048 47F21003 		movw	r3, #:lower16:1073770512
 553 004c C4F20003 		movt	r3, #:upper16:1073770512
 554 0050 1344     		add	r3, r2, r3
 555 0052 FA79     		ldrb	r2, [r7, #7]	@ zero_extendqisi2
 556 0054 4FEA0211 		lsl	r1, r2, #4
 557 0058 47F21002 		movw	r2, #:lower16:1073770512
 558 005c C4F20002 		movt	r2, #:upper16:1073770512
 559 0060 0A44     		add	r2, r1, r2
 560 0062 1278     		ldrb	r2, [r2, #0]
 561 0064 D2B2     		uxtb	r2, r2
 562 0066 42F00102 		orr	r2, r2, #1
 563 006a D2B2     		uxtb	r2, r2
 564 006c 1A70     		strb	r2, [r3, #0]
 370:.\Generated_Source\PSoC5/CyDmac.c ****         status = CYRET_SUCCESS;
 565              		.loc 1 370 0
 566 006e 4FF00003 		mov	r3, #0
 567 0072 FB60     		str	r3, [r7, #12]
 568              	.L30:
 371:.\Generated_Source\PSoC5/CyDmac.c ****     }
 372:.\Generated_Source\PSoC5/CyDmac.c **** 
 373:.\Generated_Source\PSoC5/CyDmac.c ****     return(status);
 569              		.loc 1 373 0
 570 0074 FB68     		ldr	r3, [r7, #12]
 374:.\Generated_Source\PSoC5/CyDmac.c **** }
 571              		.loc 1 374 0
 572 0076 1846     		mov	r0, r3
 573 0078 07F11407 		add	r7, r7, #20
 574 007c BD46     		mov	sp, r7
 575 007e 80BC     		pop	{r7}
 576 0080 7047     		bx	lr
 577              		.cfi_endproc
 578              	.LFE8:
 579              		.size	CyDmaClearPendingDrq, .-CyDmaClearPendingDrq
 580 0082 00BF     		.section	.text.CyDmaChPriority,"ax",%progbits
 581              		.align	2
 582              		.global	CyDmaChPriority
 583              		.thumb
 584              		.thumb_func
 585              		.type	CyDmaChPriority, %function
 586              	CyDmaChPriority:
 587              	.LFB9:
 375:.\Generated_Source\PSoC5/CyDmac.c **** 
 376:.\Generated_Source\PSoC5/CyDmac.c **** 
 377:.\Generated_Source\PSoC5/CyDmac.c **** /*******************************************************************************
 378:.\Generated_Source\PSoC5/CyDmac.c **** * Function Name: CyDmaChPriority
ARM GAS  C:\Users\karunmj\AppData\Local\Temp\ccia1kJ3.s 			page 18


 379:.\Generated_Source\PSoC5/CyDmac.c **** ********************************************************************************
 380:.\Generated_Source\PSoC5/CyDmac.c **** *
 381:.\Generated_Source\PSoC5/CyDmac.c **** * Summary:
 382:.\Generated_Source\PSoC5/CyDmac.c **** *  Sets the priority of a DMA channel. You can use this function when you want
 383:.\Generated_Source\PSoC5/CyDmac.c **** *  to change the priority at run time. If the priority remains the same for a
 384:.\Generated_Source\PSoC5/CyDmac.c **** *  DMA channel, then you can configure the priority in the .cydwr file.
 385:.\Generated_Source\PSoC5/CyDmac.c **** *
 386:.\Generated_Source\PSoC5/CyDmac.c **** * Parameters:
 387:.\Generated_Source\PSoC5/CyDmac.c **** *  uint8 chHandle:
 388:.\Generated_Source\PSoC5/CyDmac.c **** *   A handle previously returned by CyDmaChAlloc() or DMA_DmaInitalize().
 389:.\Generated_Source\PSoC5/CyDmac.c **** *
 390:.\Generated_Source\PSoC5/CyDmac.c **** *  uint8 priority:
 391:.\Generated_Source\PSoC5/CyDmac.c **** *   Priority to set the channel to, 0 - 7.
 392:.\Generated_Source\PSoC5/CyDmac.c **** *
 393:.\Generated_Source\PSoC5/CyDmac.c **** * Return:
 394:.\Generated_Source\PSoC5/CyDmac.c **** *  CYRET_SUCCESS if successful.
 395:.\Generated_Source\PSoC5/CyDmac.c **** *  CYRET_BAD_PARAM if chHandle is invalid.
 396:.\Generated_Source\PSoC5/CyDmac.c **** *
 397:.\Generated_Source\PSoC5/CyDmac.c **** *******************************************************************************/
 398:.\Generated_Source\PSoC5/CyDmac.c **** cystatus CyDmaChPriority(uint8 chHandle, uint8 priority) 
 399:.\Generated_Source\PSoC5/CyDmac.c **** {
 588              		.loc 1 399 0
 589              		.cfi_startproc
 590              		@ args = 0, pretend = 0, frame = 16
 591              		@ frame_needed = 1, uses_anonymous_args = 0
 592              		@ link register save eliminated.
 593 0000 80B4     		push	{r7}
 594              	.LCFI25:
 595              		.cfi_def_cfa_offset 4
 596 0002 85B0     		sub	sp, sp, #20
 597              	.LCFI26:
 598              		.cfi_def_cfa_offset 24
 599 0004 00AF     		add	r7, sp, #0
 600              		.cfi_offset 7, -4
 601              	.LCFI27:
 602              		.cfi_def_cfa_register 7
 603 0006 0246     		mov	r2, r0
 604 0008 0B46     		mov	r3, r1
 605 000a FA71     		strb	r2, [r7, #7]
 606 000c BB71     		strb	r3, [r7, #6]
 400:.\Generated_Source\PSoC5/CyDmac.c ****     uint8 value;
 401:.\Generated_Source\PSoC5/CyDmac.c ****     cystatus status = CYRET_BAD_PARAM;
 607              		.loc 1 401 0
 608 000e 4FF00103 		mov	r3, #1
 609 0012 FB60     		str	r3, [r7, #12]
 402:.\Generated_Source\PSoC5/CyDmac.c **** 
 403:.\Generated_Source\PSoC5/CyDmac.c ****     if(chHandle < CY_DMA_NUMBEROF_CHANNELS)
 610              		.loc 1 403 0
 611 0014 FB79     		ldrb	r3, [r7, #7]	@ zero_extendqisi2
 612 0016 172B     		cmp	r3, #23
 613 0018 22D8     		bhi	.L33
 404:.\Generated_Source\PSoC5/CyDmac.c ****     {
 405:.\Generated_Source\PSoC5/CyDmac.c ****         value = CY_DMA_CH_STRUCT_PTR[chHandle].basic_cfg[0u] & ((uint8)(~(0x0Eu)));
 614              		.loc 1 405 0
 615 001a FB79     		ldrb	r3, [r7, #7]	@ zero_extendqisi2
 616 001c 4FEA0312 		lsl	r2, r3, #4
 617 0020 47F21003 		movw	r3, #:lower16:1073770512
ARM GAS  C:\Users\karunmj\AppData\Local\Temp\ccia1kJ3.s 			page 19


 618 0024 C4F20003 		movt	r3, #:upper16:1073770512
 619 0028 1344     		add	r3, r2, r3
 620 002a 1B78     		ldrb	r3, [r3, #0]
 621 002c DBB2     		uxtb	r3, r3
 622 002e 23F00E03 		bic	r3, r3, #14
 623 0032 FB72     		strb	r3, [r7, #11]
 406:.\Generated_Source\PSoC5/CyDmac.c **** 
 407:.\Generated_Source\PSoC5/CyDmac.c ****         CY_DMA_CH_STRUCT_PTR[chHandle].basic_cfg[0u] = value | ((uint8) ((priority & 0x7u) << 0x01u
 624              		.loc 1 407 0
 625 0034 FB79     		ldrb	r3, [r7, #7]	@ zero_extendqisi2
 626 0036 4FEA0312 		lsl	r2, r3, #4
 627 003a 47F21003 		movw	r3, #:lower16:1073770512
 628 003e C4F20003 		movt	r3, #:upper16:1073770512
 629 0042 1344     		add	r3, r2, r3
 630 0044 BA79     		ldrb	r2, [r7, #6]	@ zero_extendqisi2
 631 0046 02F00702 		and	r2, r2, #7
 632 004a 4FEA4202 		lsl	r2, r2, #1
 633 004e D1B2     		uxtb	r1, r2
 634 0050 FA7A     		ldrb	r2, [r7, #11]
 635 0052 41EA0202 		orr	r2, r1, r2
 636 0056 D2B2     		uxtb	r2, r2
 637 0058 1A70     		strb	r2, [r3, #0]
 408:.\Generated_Source\PSoC5/CyDmac.c **** 
 409:.\Generated_Source\PSoC5/CyDmac.c ****         status = CYRET_SUCCESS;
 638              		.loc 1 409 0
 639 005a 4FF00003 		mov	r3, #0
 640 005e FB60     		str	r3, [r7, #12]
 641              	.L33:
 410:.\Generated_Source\PSoC5/CyDmac.c ****     }
 411:.\Generated_Source\PSoC5/CyDmac.c **** 
 412:.\Generated_Source\PSoC5/CyDmac.c ****     return(status);
 642              		.loc 1 412 0
 643 0060 FB68     		ldr	r3, [r7, #12]
 413:.\Generated_Source\PSoC5/CyDmac.c **** }
 644              		.loc 1 413 0
 645 0062 1846     		mov	r0, r3
 646 0064 07F11407 		add	r7, r7, #20
 647 0068 BD46     		mov	sp, r7
 648 006a 80BC     		pop	{r7}
 649 006c 7047     		bx	lr
 650              		.cfi_endproc
 651              	.LFE9:
 652              		.size	CyDmaChPriority, .-CyDmaChPriority
 653 006e 00BF     		.section	.text.CyDmaChSetExtendedAddress,"ax",%progbits
 654              		.align	2
 655              		.global	CyDmaChSetExtendedAddress
 656              		.thumb
 657              		.thumb_func
 658              		.type	CyDmaChSetExtendedAddress, %function
 659              	CyDmaChSetExtendedAddress:
 660              	.LFB10:
 414:.\Generated_Source\PSoC5/CyDmac.c **** 
 415:.\Generated_Source\PSoC5/CyDmac.c **** 
 416:.\Generated_Source\PSoC5/CyDmac.c **** /*******************************************************************************
 417:.\Generated_Source\PSoC5/CyDmac.c **** * Function Name: CyDmaChSetExtendedAddress
 418:.\Generated_Source\PSoC5/CyDmac.c **** ********************************************************************************
 419:.\Generated_Source\PSoC5/CyDmac.c **** *
ARM GAS  C:\Users\karunmj\AppData\Local\Temp\ccia1kJ3.s 			page 20


 420:.\Generated_Source\PSoC5/CyDmac.c **** * Summary:
 421:.\Generated_Source\PSoC5/CyDmac.c **** *  Sets the high 16 bits of the source and destination addresses for the DMA
 422:.\Generated_Source\PSoC5/CyDmac.c **** *  channel (valid for all TDs in the chain).
 423:.\Generated_Source\PSoC5/CyDmac.c **** *
 424:.\Generated_Source\PSoC5/CyDmac.c **** * Parameters:
 425:.\Generated_Source\PSoC5/CyDmac.c **** *  uint8 chHandle:
 426:.\Generated_Source\PSoC5/CyDmac.c **** *   A handle previously returned by CyDmaChAlloc() or DMA_DmaInitalize().
 427:.\Generated_Source\PSoC5/CyDmac.c **** *
 428:.\Generated_Source\PSoC5/CyDmac.c **** *  uint16 source:
 429:.\Generated_Source\PSoC5/CyDmac.c **** *   Upper 16 bit address of the DMA transfer source.
 430:.\Generated_Source\PSoC5/CyDmac.c **** *
 431:.\Generated_Source\PSoC5/CyDmac.c **** *  uint16 destination:
 432:.\Generated_Source\PSoC5/CyDmac.c **** *   Upper 16 bit address of the DMA transfer destination.
 433:.\Generated_Source\PSoC5/CyDmac.c **** *
 434:.\Generated_Source\PSoC5/CyDmac.c **** * Return:
 435:.\Generated_Source\PSoC5/CyDmac.c **** *  CYRET_SUCCESS if successful.
 436:.\Generated_Source\PSoC5/CyDmac.c **** *  CYRET_BAD_PARAM if chHandle is invalid.
 437:.\Generated_Source\PSoC5/CyDmac.c **** *
 438:.\Generated_Source\PSoC5/CyDmac.c **** *******************************************************************************/
 439:.\Generated_Source\PSoC5/CyDmac.c **** cystatus CyDmaChSetExtendedAddress(uint8 chHandle, uint16 source, uint16 destination) \
 440:.\Generated_Source\PSoC5/CyDmac.c ****     
 441:.\Generated_Source\PSoC5/CyDmac.c **** {
 661              		.loc 1 441 0
 662              		.cfi_startproc
 663              		@ args = 0, pretend = 0, frame = 16
 664              		@ frame_needed = 1, uses_anonymous_args = 0
 665              		@ link register save eliminated.
 666 0000 80B4     		push	{r7}
 667              	.LCFI28:
 668              		.cfi_def_cfa_offset 4
 669 0002 85B0     		sub	sp, sp, #20
 670              	.LCFI29:
 671              		.cfi_def_cfa_offset 24
 672 0004 00AF     		add	r7, sp, #0
 673              		.cfi_offset 7, -4
 674              	.LCFI30:
 675              		.cfi_def_cfa_register 7
 676 0006 1346     		mov	r3, r2
 677 0008 0246     		mov	r2, r0
 678 000a FA71     		strb	r2, [r7, #7]
 679 000c 0A46     		mov	r2, r1	@ movhi
 680 000e BA80     		strh	r2, [r7, #4]	@ movhi
 681 0010 7B80     		strh	r3, [r7, #2]	@ movhi
 442:.\Generated_Source\PSoC5/CyDmac.c ****     cystatus status = CYRET_BAD_PARAM;
 682              		.loc 1 442 0
 683 0012 4FF00103 		mov	r3, #1
 684 0016 BB60     		str	r3, [r7, #8]
 443:.\Generated_Source\PSoC5/CyDmac.c **** 
 444:.\Generated_Source\PSoC5/CyDmac.c ****     #if(CY_PSOC5)
 445:.\Generated_Source\PSoC5/CyDmac.c **** 
 446:.\Generated_Source\PSoC5/CyDmac.c ****         /* 0x1FFF8000-0x1FFFFFFF needs to use alias at 0x20008000-0x2000FFFF */
 447:.\Generated_Source\PSoC5/CyDmac.c ****         if(source == 0x1FFFu)
 685              		.loc 1 447 0
 686 0018 BA88     		ldrh	r2, [r7, #4]
 687 001a 41F6FF73 		movw	r3, #8191
 688 001e 9A42     		cmp	r2, r3
 689 0020 02D1     		bne	.L36
ARM GAS  C:\Users\karunmj\AppData\Local\Temp\ccia1kJ3.s 			page 21


 448:.\Generated_Source\PSoC5/CyDmac.c ****         {
 449:.\Generated_Source\PSoC5/CyDmac.c ****             source = 0x2000u;
 690              		.loc 1 449 0
 691 0022 4FF40053 		mov	r3, #8192
 692 0026 BB80     		strh	r3, [r7, #4]	@ movhi
 693              	.L36:
 450:.\Generated_Source\PSoC5/CyDmac.c ****         }
 451:.\Generated_Source\PSoC5/CyDmac.c **** 
 452:.\Generated_Source\PSoC5/CyDmac.c ****         if(destination == 0x1FFFu)
 694              		.loc 1 452 0
 695 0028 7A88     		ldrh	r2, [r7, #2]
 696 002a 41F6FF73 		movw	r3, #8191
 697 002e 9A42     		cmp	r2, r3
 698 0030 02D1     		bne	.L37
 453:.\Generated_Source\PSoC5/CyDmac.c ****         {
 454:.\Generated_Source\PSoC5/CyDmac.c ****             destination = 0x2000u;
 699              		.loc 1 454 0
 700 0032 4FF40053 		mov	r3, #8192
 701 0036 7B80     		strh	r3, [r7, #2]	@ movhi
 702              	.L37:
 455:.\Generated_Source\PSoC5/CyDmac.c ****         }
 456:.\Generated_Source\PSoC5/CyDmac.c **** 
 457:.\Generated_Source\PSoC5/CyDmac.c ****     #endif  /* (CY_PSOC5) */
 458:.\Generated_Source\PSoC5/CyDmac.c **** 
 459:.\Generated_Source\PSoC5/CyDmac.c **** 
 460:.\Generated_Source\PSoC5/CyDmac.c ****     if(chHandle < CY_DMA_NUMBEROF_CHANNELS)
 703              		.loc 1 460 0
 704 0038 FB79     		ldrb	r3, [r7, #7]	@ zero_extendqisi2
 705 003a 172B     		cmp	r3, #23
 706 003c 1CD8     		bhi	.L38
 707              	.LBB2:
 461:.\Generated_Source\PSoC5/CyDmac.c ****     {
 462:.\Generated_Source\PSoC5/CyDmac.c ****         /* Set source address */
 463:.\Generated_Source\PSoC5/CyDmac.c ****         reg16 *convert = (reg16 *) &CY_DMA_CFGMEM_STRUCT_PTR[chHandle].CFG1[0];
 708              		.loc 1 463 0
 709 003e FB79     		ldrb	r3, [r7, #7]	@ zero_extendqisi2
 710 0040 4FEAC303 		lsl	r3, r3, #3
 711 0044 03F18043 		add	r3, r3, #1073741824
 712 0048 03F5EC43 		add	r3, r3, #30208
 713 004c 03F10403 		add	r3, r3, #4
 714 0050 FB60     		str	r3, [r7, #12]
 464:.\Generated_Source\PSoC5/CyDmac.c ****         CY_SET_REG16(convert, source);
 715              		.loc 1 464 0
 716 0052 FB68     		ldr	r3, [r7, #12]
 717 0054 BA88     		ldrh	r2, [r7, #4]	@ movhi
 718 0056 1A80     		strh	r2, [r3, #0]	@ movhi
 465:.\Generated_Source\PSoC5/CyDmac.c **** 
 466:.\Generated_Source\PSoC5/CyDmac.c ****         /* Set destination address */
 467:.\Generated_Source\PSoC5/CyDmac.c ****         CY_SET_REG16((reg16 *) &CY_DMA_CFGMEM_STRUCT_PTR[chHandle].CFG1[2], destination);
 719              		.loc 1 467 0
 720 0058 FB79     		ldrb	r3, [r7, #7]	@ zero_extendqisi2
 721 005a 4FEAC303 		lsl	r3, r3, #3
 722 005e 03F18043 		add	r3, r3, #1073741824
 723 0062 03F5EC43 		add	r3, r3, #30208
 724 0066 03F10403 		add	r3, r3, #4
 725 006a 03F10203 		add	r3, r3, #2
 726 006e 7A88     		ldrh	r2, [r7, #2]	@ movhi
ARM GAS  C:\Users\karunmj\AppData\Local\Temp\ccia1kJ3.s 			page 22


 727 0070 1A80     		strh	r2, [r3, #0]	@ movhi
 468:.\Generated_Source\PSoC5/CyDmac.c ****         status = CYRET_SUCCESS;
 728              		.loc 1 468 0
 729 0072 4FF00003 		mov	r3, #0
 730 0076 BB60     		str	r3, [r7, #8]
 731              	.L38:
 732              	.LBE2:
 469:.\Generated_Source\PSoC5/CyDmac.c ****     }
 470:.\Generated_Source\PSoC5/CyDmac.c **** 
 471:.\Generated_Source\PSoC5/CyDmac.c ****     return(status);
 733              		.loc 1 471 0
 734 0078 BB68     		ldr	r3, [r7, #8]
 472:.\Generated_Source\PSoC5/CyDmac.c **** }
 735              		.loc 1 472 0
 736 007a 1846     		mov	r0, r3
 737 007c 07F11407 		add	r7, r7, #20
 738 0080 BD46     		mov	sp, r7
 739 0082 80BC     		pop	{r7}
 740 0084 7047     		bx	lr
 741              		.cfi_endproc
 742              	.LFE10:
 743              		.size	CyDmaChSetExtendedAddress, .-CyDmaChSetExtendedAddress
 744 0086 00BF     		.section	.text.CyDmaChSetInitialTd,"ax",%progbits
 745              		.align	2
 746              		.global	CyDmaChSetInitialTd
 747              		.thumb
 748              		.thumb_func
 749              		.type	CyDmaChSetInitialTd, %function
 750              	CyDmaChSetInitialTd:
 751              	.LFB11:
 473:.\Generated_Source\PSoC5/CyDmac.c **** 
 474:.\Generated_Source\PSoC5/CyDmac.c **** 
 475:.\Generated_Source\PSoC5/CyDmac.c **** /*******************************************************************************
 476:.\Generated_Source\PSoC5/CyDmac.c **** * Function Name: CyDmaChSetInitialTd
 477:.\Generated_Source\PSoC5/CyDmac.c **** ********************************************************************************
 478:.\Generated_Source\PSoC5/CyDmac.c **** *
 479:.\Generated_Source\PSoC5/CyDmac.c **** * Summary:
 480:.\Generated_Source\PSoC5/CyDmac.c **** *  Sets the initial TD to be executed for the channel when the CyDmaChEnable()
 481:.\Generated_Source\PSoC5/CyDmac.c **** *  function is called.
 482:.\Generated_Source\PSoC5/CyDmac.c **** *
 483:.\Generated_Source\PSoC5/CyDmac.c **** * Parameters:
 484:.\Generated_Source\PSoC5/CyDmac.c **** *  uint8 chHandle:
 485:.\Generated_Source\PSoC5/CyDmac.c **** *   A handle previously returned by CyDmaChAlloc() or DMA_DmaInitialize().
 486:.\Generated_Source\PSoC5/CyDmac.c **** *
 487:.\Generated_Source\PSoC5/CyDmac.c **** *  uint8 startTd:
 488:.\Generated_Source\PSoC5/CyDmac.c **** *   The index of TD to set as the first TD associated with the channel. Zero is
 489:.\Generated_Source\PSoC5/CyDmac.c **** *   a valid TD index.
 490:.\Generated_Source\PSoC5/CyDmac.c **** *
 491:.\Generated_Source\PSoC5/CyDmac.c **** * Return:
 492:.\Generated_Source\PSoC5/CyDmac.c **** *  CYRET_SUCCESS if successful.
 493:.\Generated_Source\PSoC5/CyDmac.c **** *  CYRET_BAD_PARAM if chHandle is invalid.
 494:.\Generated_Source\PSoC5/CyDmac.c **** *
 495:.\Generated_Source\PSoC5/CyDmac.c **** *******************************************************************************/
 496:.\Generated_Source\PSoC5/CyDmac.c **** cystatus CyDmaChSetInitialTd(uint8 chHandle, uint8 startTd) 
 497:.\Generated_Source\PSoC5/CyDmac.c **** {
 752              		.loc 1 497 0
 753              		.cfi_startproc
ARM GAS  C:\Users\karunmj\AppData\Local\Temp\ccia1kJ3.s 			page 23


 754              		@ args = 0, pretend = 0, frame = 16
 755              		@ frame_needed = 1, uses_anonymous_args = 0
 756              		@ link register save eliminated.
 757 0000 80B4     		push	{r7}
 758              	.LCFI31:
 759              		.cfi_def_cfa_offset 4
 760 0002 85B0     		sub	sp, sp, #20
 761              	.LCFI32:
 762              		.cfi_def_cfa_offset 24
 763 0004 00AF     		add	r7, sp, #0
 764              		.cfi_offset 7, -4
 765              	.LCFI33:
 766              		.cfi_def_cfa_register 7
 767 0006 0246     		mov	r2, r0
 768 0008 0B46     		mov	r3, r1
 769 000a FA71     		strb	r2, [r7, #7]
 770 000c BB71     		strb	r3, [r7, #6]
 498:.\Generated_Source\PSoC5/CyDmac.c ****     cystatus status = CYRET_BAD_PARAM;
 771              		.loc 1 498 0
 772 000e 4FF00103 		mov	r3, #1
 773 0012 FB60     		str	r3, [r7, #12]
 499:.\Generated_Source\PSoC5/CyDmac.c **** 
 500:.\Generated_Source\PSoC5/CyDmac.c ****     if(chHandle < CY_DMA_NUMBEROF_CHANNELS)
 774              		.loc 1 500 0
 775 0014 FB79     		ldrb	r3, [r7, #7]	@ zero_extendqisi2
 776 0016 172B     		cmp	r3, #23
 777 0018 0CD8     		bhi	.L41
 501:.\Generated_Source\PSoC5/CyDmac.c ****     {
 502:.\Generated_Source\PSoC5/CyDmac.c ****         CY_DMA_CH_STRUCT_PTR[chHandle].basic_status[1u] = startTd;
 778              		.loc 1 502 0
 779 001a FB79     		ldrb	r3, [r7, #7]	@ zero_extendqisi2
 780 001c 4FEA0312 		lsl	r2, r3, #4
 781 0020 47F21003 		movw	r3, #:lower16:1073770512
 782 0024 C4F20003 		movt	r3, #:upper16:1073770512
 783 0028 1344     		add	r3, r2, r3
 784 002a BA79     		ldrb	r2, [r7, #6]
 785 002c 5A72     		strb	r2, [r3, #9]
 503:.\Generated_Source\PSoC5/CyDmac.c ****         status = CYRET_SUCCESS;
 786              		.loc 1 503 0
 787 002e 4FF00003 		mov	r3, #0
 788 0032 FB60     		str	r3, [r7, #12]
 789              	.L41:
 504:.\Generated_Source\PSoC5/CyDmac.c ****     }
 505:.\Generated_Source\PSoC5/CyDmac.c **** 
 506:.\Generated_Source\PSoC5/CyDmac.c ****     return(status);
 790              		.loc 1 506 0
 791 0034 FB68     		ldr	r3, [r7, #12]
 507:.\Generated_Source\PSoC5/CyDmac.c **** }
 792              		.loc 1 507 0
 793 0036 1846     		mov	r0, r3
 794 0038 07F11407 		add	r7, r7, #20
 795 003c BD46     		mov	sp, r7
 796 003e 80BC     		pop	{r7}
 797 0040 7047     		bx	lr
 798              		.cfi_endproc
 799              	.LFE11:
 800              		.size	CyDmaChSetInitialTd, .-CyDmaChSetInitialTd
ARM GAS  C:\Users\karunmj\AppData\Local\Temp\ccia1kJ3.s 			page 24


 801 0042 00BF     		.section	.text.CyDmaChSetRequest,"ax",%progbits
 802              		.align	2
 803              		.global	CyDmaChSetRequest
 804              		.thumb
 805              		.thumb_func
 806              		.type	CyDmaChSetRequest, %function
 807              	CyDmaChSetRequest:
 808              	.LFB12:
 508:.\Generated_Source\PSoC5/CyDmac.c **** 
 509:.\Generated_Source\PSoC5/CyDmac.c **** 
 510:.\Generated_Source\PSoC5/CyDmac.c **** /*******************************************************************************
 511:.\Generated_Source\PSoC5/CyDmac.c **** * Function Name: CyDmaChSetRequest
 512:.\Generated_Source\PSoC5/CyDmac.c **** ********************************************************************************
 513:.\Generated_Source\PSoC5/CyDmac.c **** *
 514:.\Generated_Source\PSoC5/CyDmac.c **** * Summary:
 515:.\Generated_Source\PSoC5/CyDmac.c **** *  Allows the caller to terminate a chain of TDs, terminate one TD, or create a
 516:.\Generated_Source\PSoC5/CyDmac.c **** *  direct request to start the DMA channel.
 517:.\Generated_Source\PSoC5/CyDmac.c **** *
 518:.\Generated_Source\PSoC5/CyDmac.c **** * Parameters:
 519:.\Generated_Source\PSoC5/CyDmac.c **** *  uint8 chHandle:
 520:.\Generated_Source\PSoC5/CyDmac.c **** *   A handle previously returned by CyDmaChAlloc() or DMA_DmaInitalize().
 521:.\Generated_Source\PSoC5/CyDmac.c **** *
 522:.\Generated_Source\PSoC5/CyDmac.c **** *  uint8 request:
 523:.\Generated_Source\PSoC5/CyDmac.c **** *   One of the following constants. Each of the constants is a three-bit value.
 524:.\Generated_Source\PSoC5/CyDmac.c **** *
 525:.\Generated_Source\PSoC5/CyDmac.c **** *   CPU_REQ         - Create a direct request to start the DMA channel
 526:.\Generated_Source\PSoC5/CyDmac.c **** *   CPU_TERM_TD     - Terminate one TD
 527:.\Generated_Source\PSoC5/CyDmac.c **** *   CPU_TERM_CHAIN  - Terminate a chain of TDs
 528:.\Generated_Source\PSoC5/CyDmac.c **** *
 529:.\Generated_Source\PSoC5/CyDmac.c **** * Return:
 530:.\Generated_Source\PSoC5/CyDmac.c **** *  CYRET_SUCCESS if successful.
 531:.\Generated_Source\PSoC5/CyDmac.c **** *  CYRET_BAD_PARAM if chHandle is invalid.
 532:.\Generated_Source\PSoC5/CyDmac.c **** *
 533:.\Generated_Source\PSoC5/CyDmac.c **** *******************************************************************************/
 534:.\Generated_Source\PSoC5/CyDmac.c **** cystatus CyDmaChSetRequest(uint8 chHandle, uint8 request) 
 535:.\Generated_Source\PSoC5/CyDmac.c **** {
 809              		.loc 1 535 0
 810              		.cfi_startproc
 811              		@ args = 0, pretend = 0, frame = 16
 812              		@ frame_needed = 1, uses_anonymous_args = 0
 813              		@ link register save eliminated.
 814 0000 80B4     		push	{r7}
 815              	.LCFI34:
 816              		.cfi_def_cfa_offset 4
 817 0002 85B0     		sub	sp, sp, #20
 818              	.LCFI35:
 819              		.cfi_def_cfa_offset 24
 820 0004 00AF     		add	r7, sp, #0
 821              		.cfi_offset 7, -4
 822              	.LCFI36:
 823              		.cfi_def_cfa_register 7
 824 0006 0246     		mov	r2, r0
 825 0008 0B46     		mov	r3, r1
 826 000a FA71     		strb	r2, [r7, #7]
 827 000c BB71     		strb	r3, [r7, #6]
 536:.\Generated_Source\PSoC5/CyDmac.c ****     cystatus status = CYRET_BAD_PARAM;
 828              		.loc 1 536 0
ARM GAS  C:\Users\karunmj\AppData\Local\Temp\ccia1kJ3.s 			page 25


 829 000e 4FF00103 		mov	r3, #1
 830 0012 FB60     		str	r3, [r7, #12]
 537:.\Generated_Source\PSoC5/CyDmac.c **** 
 538:.\Generated_Source\PSoC5/CyDmac.c ****     if(chHandle < CY_DMA_NUMBEROF_CHANNELS)
 831              		.loc 1 538 0
 832 0014 FB79     		ldrb	r3, [r7, #7]	@ zero_extendqisi2
 833 0016 172B     		cmp	r3, #23
 834 0018 1ED8     		bhi	.L44
 539:.\Generated_Source\PSoC5/CyDmac.c ****     {
 540:.\Generated_Source\PSoC5/CyDmac.c ****         CY_DMA_CH_STRUCT_PTR[chHandle].action[0u] |= (request & (CPU_REQ | CPU_TERM_TD | CPU_TERM_C
 835              		.loc 1 540 0
 836 001a FB79     		ldrb	r3, [r7, #7]	@ zero_extendqisi2
 837 001c 4FEA0312 		lsl	r2, r3, #4
 838 0020 47F21003 		movw	r3, #:lower16:1073770512
 839 0024 C4F20003 		movt	r3, #:upper16:1073770512
 840 0028 1344     		add	r3, r2, r3
 841 002a FA79     		ldrb	r2, [r7, #7]	@ zero_extendqisi2
 842 002c 4FEA0211 		lsl	r1, r2, #4
 843 0030 47F21002 		movw	r2, #:lower16:1073770512
 844 0034 C4F20002 		movt	r2, #:upper16:1073770512
 845 0038 0A44     		add	r2, r1, r2
 846 003a 1279     		ldrb	r2, [r2, #4]
 847 003c D2B2     		uxtb	r2, r2
 848 003e 1146     		mov	r1, r2
 849 0040 BA79     		ldrb	r2, [r7, #6]	@ zero_extendqisi2
 850 0042 D2B2     		uxtb	r2, r2
 851 0044 02F00702 		and	r2, r2, #7
 852 0048 41EA0202 		orr	r2, r1, r2
 853 004c D2B2     		uxtb	r2, r2
 854 004e D2B2     		uxtb	r2, r2
 855 0050 1A71     		strb	r2, [r3, #4]
 541:.\Generated_Source\PSoC5/CyDmac.c ****         status = CYRET_SUCCESS;
 856              		.loc 1 541 0
 857 0052 4FF00003 		mov	r3, #0
 858 0056 FB60     		str	r3, [r7, #12]
 859              	.L44:
 542:.\Generated_Source\PSoC5/CyDmac.c ****     }
 543:.\Generated_Source\PSoC5/CyDmac.c **** 
 544:.\Generated_Source\PSoC5/CyDmac.c ****     return(status);
 860              		.loc 1 544 0
 861 0058 FB68     		ldr	r3, [r7, #12]
 545:.\Generated_Source\PSoC5/CyDmac.c **** }
 862              		.loc 1 545 0
 863 005a 1846     		mov	r0, r3
 864 005c 07F11407 		add	r7, r7, #20
 865 0060 BD46     		mov	sp, r7
 866 0062 80BC     		pop	{r7}
 867 0064 7047     		bx	lr
 868              		.cfi_endproc
 869              	.LFE12:
 870              		.size	CyDmaChSetRequest, .-CyDmaChSetRequest
 871 0066 00BF     		.section	.text.CyDmaChGetRequest,"ax",%progbits
 872              		.align	2
 873              		.global	CyDmaChGetRequest
 874              		.thumb
 875              		.thumb_func
 876              		.type	CyDmaChGetRequest, %function
ARM GAS  C:\Users\karunmj\AppData\Local\Temp\ccia1kJ3.s 			page 26


 877              	CyDmaChGetRequest:
 878              	.LFB13:
 546:.\Generated_Source\PSoC5/CyDmac.c **** 
 547:.\Generated_Source\PSoC5/CyDmac.c **** 
 548:.\Generated_Source\PSoC5/CyDmac.c **** /*******************************************************************************
 549:.\Generated_Source\PSoC5/CyDmac.c **** * Function Name: CyDmaChGetRequest
 550:.\Generated_Source\PSoC5/CyDmac.c **** ********************************************************************************
 551:.\Generated_Source\PSoC5/CyDmac.c **** *
 552:.\Generated_Source\PSoC5/CyDmac.c **** * Summary:
 553:.\Generated_Source\PSoC5/CyDmac.c **** *  This function allows the caller of CyDmaChSetRequest() to determine if the
 554:.\Generated_Source\PSoC5/CyDmac.c **** *  request was completed.
 555:.\Generated_Source\PSoC5/CyDmac.c **** *
 556:.\Generated_Source\PSoC5/CyDmac.c **** * Parameters:
 557:.\Generated_Source\PSoC5/CyDmac.c **** *  uint8 chHandle:
 558:.\Generated_Source\PSoC5/CyDmac.c **** *   A handle previously returned by CyDmaChAlloc() or DMA_DmaInitalize().
 559:.\Generated_Source\PSoC5/CyDmac.c **** *
 560:.\Generated_Source\PSoC5/CyDmac.c **** * Return:
 561:.\Generated_Source\PSoC5/CyDmac.c **** *  Returns a three-bit field, corresponding to the three bits of the request,
 562:.\Generated_Source\PSoC5/CyDmac.c **** *  which describes the state of the previously posted request. If the value is
 563:.\Generated_Source\PSoC5/CyDmac.c **** *  zero, the request was completed. CY_DMA_INVALID_CHANNEL if the handle is
 564:.\Generated_Source\PSoC5/CyDmac.c **** *  invalid.
 565:.\Generated_Source\PSoC5/CyDmac.c **** *
 566:.\Generated_Source\PSoC5/CyDmac.c **** *******************************************************************************/
 567:.\Generated_Source\PSoC5/CyDmac.c **** cystatus CyDmaChGetRequest(uint8 chHandle) 
 568:.\Generated_Source\PSoC5/CyDmac.c **** {
 879              		.loc 1 568 0
 880              		.cfi_startproc
 881              		@ args = 0, pretend = 0, frame = 16
 882              		@ frame_needed = 1, uses_anonymous_args = 0
 883              		@ link register save eliminated.
 884 0000 80B4     		push	{r7}
 885              	.LCFI37:
 886              		.cfi_def_cfa_offset 4
 887 0002 85B0     		sub	sp, sp, #20
 888              	.LCFI38:
 889              		.cfi_def_cfa_offset 24
 890 0004 00AF     		add	r7, sp, #0
 891              		.cfi_offset 7, -4
 892              	.LCFI39:
 893              		.cfi_def_cfa_register 7
 894 0006 0346     		mov	r3, r0
 895 0008 FB71     		strb	r3, [r7, #7]
 569:.\Generated_Source\PSoC5/CyDmac.c ****     cystatus status = CY_DMA_INVALID_CHANNEL;
 896              		.loc 1 569 0
 897 000a 4FF0FF03 		mov	r3, #255
 898 000e FB60     		str	r3, [r7, #12]
 570:.\Generated_Source\PSoC5/CyDmac.c **** 
 571:.\Generated_Source\PSoC5/CyDmac.c ****     if(chHandle < CY_DMA_NUMBEROF_CHANNELS)
 899              		.loc 1 571 0
 900 0010 FB79     		ldrb	r3, [r7, #7]	@ zero_extendqisi2
 901 0012 172B     		cmp	r3, #23
 902 0014 0CD8     		bhi	.L47
 572:.\Generated_Source\PSoC5/CyDmac.c ****     {
 573:.\Generated_Source\PSoC5/CyDmac.c ****         status = (cystatus) ((uint32)CY_DMA_CH_STRUCT_PTR[chHandle].action[0u] & 
 903              		.loc 1 573 0
 904 0016 FB79     		ldrb	r3, [r7, #7]	@ zero_extendqisi2
 905 0018 4FEA0312 		lsl	r2, r3, #4
ARM GAS  C:\Users\karunmj\AppData\Local\Temp\ccia1kJ3.s 			page 27


 906 001c 47F21003 		movw	r3, #:lower16:1073770512
 907 0020 C4F20003 		movt	r3, #:upper16:1073770512
 908 0024 1344     		add	r3, r2, r3
 909 0026 1B79     		ldrb	r3, [r3, #4]
 910 0028 DBB2     		uxtb	r3, r3
 911 002a 03F00703 		and	r3, r3, #7
 912 002e FB60     		str	r3, [r7, #12]
 913              	.L47:
 574:.\Generated_Source\PSoC5/CyDmac.c ****                             (uint32)(CY_DMA_CPU_REQ | CY_DMA_CPU_TERM_TD | CY_DMA_CPU_TERM_CHAIN));
 575:.\Generated_Source\PSoC5/CyDmac.c ****     }
 576:.\Generated_Source\PSoC5/CyDmac.c **** 
 577:.\Generated_Source\PSoC5/CyDmac.c ****     return(status);
 914              		.loc 1 577 0
 915 0030 FB68     		ldr	r3, [r7, #12]
 578:.\Generated_Source\PSoC5/CyDmac.c **** }
 916              		.loc 1 578 0
 917 0032 1846     		mov	r0, r3
 918 0034 07F11407 		add	r7, r7, #20
 919 0038 BD46     		mov	sp, r7
 920 003a 80BC     		pop	{r7}
 921 003c 7047     		bx	lr
 922              		.cfi_endproc
 923              	.LFE13:
 924              		.size	CyDmaChGetRequest, .-CyDmaChGetRequest
 925 003e 00BF     		.section	.text.CyDmaChStatus,"ax",%progbits
 926              		.align	2
 927              		.global	CyDmaChStatus
 928              		.thumb
 929              		.thumb_func
 930              		.type	CyDmaChStatus, %function
 931              	CyDmaChStatus:
 932              	.LFB14:
 579:.\Generated_Source\PSoC5/CyDmac.c **** 
 580:.\Generated_Source\PSoC5/CyDmac.c **** 
 581:.\Generated_Source\PSoC5/CyDmac.c **** /*******************************************************************************
 582:.\Generated_Source\PSoC5/CyDmac.c **** * Function Name: CyDmaChStatus
 583:.\Generated_Source\PSoC5/CyDmac.c **** ********************************************************************************
 584:.\Generated_Source\PSoC5/CyDmac.c **** *
 585:.\Generated_Source\PSoC5/CyDmac.c **** * Summary:
 586:.\Generated_Source\PSoC5/CyDmac.c **** *  Determines the status of the DMA channel.
 587:.\Generated_Source\PSoC5/CyDmac.c **** *
 588:.\Generated_Source\PSoC5/CyDmac.c **** * Parameters:
 589:.\Generated_Source\PSoC5/CyDmac.c **** *  uint8 chHandle:
 590:.\Generated_Source\PSoC5/CyDmac.c **** *   A handle previously returned by CyDmaChAlloc() or DMA_DmaInitalize().
 591:.\Generated_Source\PSoC5/CyDmac.c **** *
 592:.\Generated_Source\PSoC5/CyDmac.c **** *  uint8 * currentTd:
 593:.\Generated_Source\PSoC5/CyDmac.c **** *   The address to store the index of the current TD. Can be NULL if the value
 594:.\Generated_Source\PSoC5/CyDmac.c **** *   is not needed.
 595:.\Generated_Source\PSoC5/CyDmac.c **** *
 596:.\Generated_Source\PSoC5/CyDmac.c **** *  uint8 * state:
 597:.\Generated_Source\PSoC5/CyDmac.c **** *   The address to store the state of the channel. Can be NULL if the value is
 598:.\Generated_Source\PSoC5/CyDmac.c **** *   not needed.
 599:.\Generated_Source\PSoC5/CyDmac.c **** *
 600:.\Generated_Source\PSoC5/CyDmac.c **** *   STATUS_TD_ACTIVE
 601:.\Generated_Source\PSoC5/CyDmac.c **** *    0: Channel is not currently being serviced by DMAC
 602:.\Generated_Source\PSoC5/CyDmac.c **** *    1: Channel is currently being serviced by DMAC
 603:.\Generated_Source\PSoC5/CyDmac.c **** *
ARM GAS  C:\Users\karunmj\AppData\Local\Temp\ccia1kJ3.s 			page 28


 604:.\Generated_Source\PSoC5/CyDmac.c **** *   STATUS_CHAIN_ACTIVE
 605:.\Generated_Source\PSoC5/CyDmac.c **** *    0: TD chain is inactive; either no DMA requests have triggered a new chain
 606:.\Generated_Source\PSoC5/CyDmac.c **** *       or the previous chain has completed.
 607:.\Generated_Source\PSoC5/CyDmac.c **** *    1: TD chain has been triggered by a DMA request
 608:.\Generated_Source\PSoC5/CyDmac.c **** *
 609:.\Generated_Source\PSoC5/CyDmac.c **** * Return:
 610:.\Generated_Source\PSoC5/CyDmac.c **** *  CYRET_SUCCESS if successful.
 611:.\Generated_Source\PSoC5/CyDmac.c **** *  CYRET_BAD_PARAM if chHandle is invalid.
 612:.\Generated_Source\PSoC5/CyDmac.c **** *
 613:.\Generated_Source\PSoC5/CyDmac.c **** * Theory:
 614:.\Generated_Source\PSoC5/CyDmac.c **** *   The caller can check on the activity of the Current TD and the Chain.
 615:.\Generated_Source\PSoC5/CyDmac.c **** *
 616:.\Generated_Source\PSoC5/CyDmac.c **** *******************************************************************************/
 617:.\Generated_Source\PSoC5/CyDmac.c **** cystatus CyDmaChStatus(uint8 chHandle, uint8 * currentTd, uint8 * state) 
 618:.\Generated_Source\PSoC5/CyDmac.c **** {
 933              		.loc 1 618 0
 934              		.cfi_startproc
 935              		@ args = 0, pretend = 0, frame = 24
 936              		@ frame_needed = 1, uses_anonymous_args = 0
 937              		@ link register save eliminated.
 938 0000 80B4     		push	{r7}
 939              	.LCFI40:
 940              		.cfi_def_cfa_offset 4
 941 0002 87B0     		sub	sp, sp, #28
 942              	.LCFI41:
 943              		.cfi_def_cfa_offset 32
 944 0004 00AF     		add	r7, sp, #0
 945              		.cfi_offset 7, -4
 946              	.LCFI42:
 947              		.cfi_def_cfa_register 7
 948 0006 0346     		mov	r3, r0
 949 0008 B960     		str	r1, [r7, #8]
 950 000a 7A60     		str	r2, [r7, #4]
 951 000c FB73     		strb	r3, [r7, #15]
 619:.\Generated_Source\PSoC5/CyDmac.c ****     cystatus status = CYRET_BAD_PARAM;
 952              		.loc 1 619 0
 953 000e 4FF00103 		mov	r3, #1
 954 0012 7B61     		str	r3, [r7, #20]
 620:.\Generated_Source\PSoC5/CyDmac.c **** 
 621:.\Generated_Source\PSoC5/CyDmac.c ****     if(chHandle < CY_DMA_NUMBEROF_CHANNELS)
 955              		.loc 1 621 0
 956 0014 FB7B     		ldrb	r3, [r7, #15]	@ zero_extendqisi2
 957 0016 172B     		cmp	r3, #23
 958 0018 22D8     		bhi	.L50
 622:.\Generated_Source\PSoC5/CyDmac.c ****     {
 623:.\Generated_Source\PSoC5/CyDmac.c ****         if(NULL != currentTd)
 959              		.loc 1 623 0
 960 001a BB68     		ldr	r3, [r7, #8]
 961 001c 002B     		cmp	r3, #0
 962 001e 0DD0     		beq	.L51
 624:.\Generated_Source\PSoC5/CyDmac.c ****         {
 625:.\Generated_Source\PSoC5/CyDmac.c ****             *currentTd = CY_DMA_CH_STRUCT_PTR[chHandle].basic_status[1] & 0x7Fu;
 963              		.loc 1 625 0
 964 0020 FB7B     		ldrb	r3, [r7, #15]	@ zero_extendqisi2
 965 0022 4FEA0312 		lsl	r2, r3, #4
 966 0026 47F21003 		movw	r3, #:lower16:1073770512
 967 002a C4F20003 		movt	r3, #:upper16:1073770512
ARM GAS  C:\Users\karunmj\AppData\Local\Temp\ccia1kJ3.s 			page 29


 968 002e 1344     		add	r3, r2, r3
 969 0030 5B7A     		ldrb	r3, [r3, #9]
 970 0032 DBB2     		uxtb	r3, r3
 971 0034 03F07F03 		and	r3, r3, #127
 972 0038 BA68     		ldr	r2, [r7, #8]
 973 003a 1370     		strb	r3, [r2, #0]
 974              	.L51:
 626:.\Generated_Source\PSoC5/CyDmac.c ****         }
 627:.\Generated_Source\PSoC5/CyDmac.c **** 
 628:.\Generated_Source\PSoC5/CyDmac.c ****         if(NULL != state)
 975              		.loc 1 628 0
 976 003c 7B68     		ldr	r3, [r7, #4]
 977 003e 002B     		cmp	r3, #0
 978 0040 0BD0     		beq	.L52
 629:.\Generated_Source\PSoC5/CyDmac.c ****         {
 630:.\Generated_Source\PSoC5/CyDmac.c ****             *state= CY_DMA_CH_STRUCT_PTR[chHandle].basic_status[0];
 979              		.loc 1 630 0
 980 0042 FB7B     		ldrb	r3, [r7, #15]	@ zero_extendqisi2
 981 0044 4FEA0312 		lsl	r2, r3, #4
 982 0048 47F21003 		movw	r3, #:lower16:1073770512
 983 004c C4F20003 		movt	r3, #:upper16:1073770512
 984 0050 1344     		add	r3, r2, r3
 985 0052 1B7A     		ldrb	r3, [r3, #8]
 986 0054 DAB2     		uxtb	r2, r3
 987 0056 7B68     		ldr	r3, [r7, #4]
 988 0058 1A70     		strb	r2, [r3, #0]
 989              	.L52:
 631:.\Generated_Source\PSoC5/CyDmac.c ****         }
 632:.\Generated_Source\PSoC5/CyDmac.c **** 
 633:.\Generated_Source\PSoC5/CyDmac.c ****         status = CYRET_SUCCESS;
 990              		.loc 1 633 0
 991 005a 4FF00003 		mov	r3, #0
 992 005e 7B61     		str	r3, [r7, #20]
 993              	.L50:
 634:.\Generated_Source\PSoC5/CyDmac.c ****     }
 635:.\Generated_Source\PSoC5/CyDmac.c **** 
 636:.\Generated_Source\PSoC5/CyDmac.c ****     return (status);
 994              		.loc 1 636 0
 995 0060 7B69     		ldr	r3, [r7, #20]
 637:.\Generated_Source\PSoC5/CyDmac.c **** }
 996              		.loc 1 637 0
 997 0062 1846     		mov	r0, r3
 998 0064 07F11C07 		add	r7, r7, #28
 999 0068 BD46     		mov	sp, r7
 1000 006a 80BC     		pop	{r7}
 1001 006c 7047     		bx	lr
 1002              		.cfi_endproc
 1003              	.LFE14:
 1004              		.size	CyDmaChStatus, .-CyDmaChStatus
 1005 006e 00BF     		.section	.text.CyDmaChSetConfiguration,"ax",%progbits
 1006              		.align	2
 1007              		.global	CyDmaChSetConfiguration
 1008              		.thumb
 1009              		.thumb_func
 1010              		.type	CyDmaChSetConfiguration, %function
 1011              	CyDmaChSetConfiguration:
 1012              	.LFB15:
ARM GAS  C:\Users\karunmj\AppData\Local\Temp\ccia1kJ3.s 			page 30


 638:.\Generated_Source\PSoC5/CyDmac.c **** 
 639:.\Generated_Source\PSoC5/CyDmac.c **** 
 640:.\Generated_Source\PSoC5/CyDmac.c **** /*******************************************************************************
 641:.\Generated_Source\PSoC5/CyDmac.c **** * Function Name: CyDmaChSetConfiguration
 642:.\Generated_Source\PSoC5/CyDmac.c **** ********************************************************************************
 643:.\Generated_Source\PSoC5/CyDmac.c **** *
 644:.\Generated_Source\PSoC5/CyDmac.c **** * Summary:
 645:.\Generated_Source\PSoC5/CyDmac.c **** * Sets configuration information of the channel.
 646:.\Generated_Source\PSoC5/CyDmac.c **** *
 647:.\Generated_Source\PSoC5/CyDmac.c **** * Parameters:
 648:.\Generated_Source\PSoC5/CyDmac.c **** *  uint8 chHandle:
 649:.\Generated_Source\PSoC5/CyDmac.c **** *   A handle previously returned by CyDmaChAlloc() or DMA_DmaInitialize().
 650:.\Generated_Source\PSoC5/CyDmac.c **** *
 651:.\Generated_Source\PSoC5/CyDmac.c **** *  uint8 burstCount:
 652:.\Generated_Source\PSoC5/CyDmac.c **** *   Specifies the size of bursts (1 to 127) the data transfer should be divided
 653:.\Generated_Source\PSoC5/CyDmac.c **** *   into. If this value is zero then the whole transfer is done in one burst.
 654:.\Generated_Source\PSoC5/CyDmac.c **** *
 655:.\Generated_Source\PSoC5/CyDmac.c **** *  uint8 requestPerBurst:
 656:.\Generated_Source\PSoC5/CyDmac.c **** *   The whole of the data can be split into multiple bursts, if this is
 657:.\Generated_Source\PSoC5/CyDmac.c **** *   required to complete the transaction:
 658:.\Generated_Source\PSoC5/CyDmac.c **** *    0: All subsequent bursts after the first burst will be automatically
 659:.\Generated_Source\PSoC5/CyDmac.c **** *       requested and carried out
 660:.\Generated_Source\PSoC5/CyDmac.c **** *    1: All subsequent bursts after the first burst must also be individually
 661:.\Generated_Source\PSoC5/CyDmac.c **** *       requested.
 662:.\Generated_Source\PSoC5/CyDmac.c **** *
 663:.\Generated_Source\PSoC5/CyDmac.c **** *  uint8 tdDone0:
 664:.\Generated_Source\PSoC5/CyDmac.c **** *   Selects one of the TERMOUT0 interrupt lines to signal completion. The line
 665:.\Generated_Source\PSoC5/CyDmac.c **** *   connected to the nrq terminal will determine the TERMOUT0_SEL definition and
 666:.\Generated_Source\PSoC5/CyDmac.c **** *   should be used as supplied by cyfitter.h
 667:.\Generated_Source\PSoC5/CyDmac.c **** *
 668:.\Generated_Source\PSoC5/CyDmac.c **** *  uint8 tdDone1:
 669:.\Generated_Source\PSoC5/CyDmac.c **** *   Selects one of the TERMOUT1 interrupt lines to signal completion. The line
 670:.\Generated_Source\PSoC5/CyDmac.c **** *   connected to the nrq terminal will determine the TERMOUT1_SEL definition and
 671:.\Generated_Source\PSoC5/CyDmac.c **** *   should be used as supplied by cyfitter.h
 672:.\Generated_Source\PSoC5/CyDmac.c **** *
 673:.\Generated_Source\PSoC5/CyDmac.c **** *  uint8 tdStop:
 674:.\Generated_Source\PSoC5/CyDmac.c **** *   Selects one of the TERMIN interrupt lines to signal to the DMAC that the TD
 675:.\Generated_Source\PSoC5/CyDmac.c **** *   should terminate. The signal connected to the trq terminal will determine
 676:.\Generated_Source\PSoC5/CyDmac.c **** *   which TERMIN (termination request) is used.
 677:.\Generated_Source\PSoC5/CyDmac.c **** *
 678:.\Generated_Source\PSoC5/CyDmac.c **** * Return:
 679:.\Generated_Source\PSoC5/CyDmac.c **** *  CYRET_SUCCESS if successful.
 680:.\Generated_Source\PSoC5/CyDmac.c **** *  CYRET_BAD_PARAM if chHandle is invalid.
 681:.\Generated_Source\PSoC5/CyDmac.c **** *
 682:.\Generated_Source\PSoC5/CyDmac.c **** *******************************************************************************/
 683:.\Generated_Source\PSoC5/CyDmac.c **** cystatus CyDmaChSetConfiguration(uint8 chHandle, uint8 burstCount, uint8 requestPerBurst,
 684:.\Generated_Source\PSoC5/CyDmac.c ****                                  uint8 tdDone0, uint8 tdDone1, uint8 tdStop) 
 685:.\Generated_Source\PSoC5/CyDmac.c **** {
 1013              		.loc 1 685 0
 1014              		.cfi_startproc
 1015              		@ args = 8, pretend = 0, frame = 16
 1016              		@ frame_needed = 1, uses_anonymous_args = 0
 1017              		@ link register save eliminated.
 1018 0000 80B4     		push	{r7}
 1019              	.LCFI43:
 1020              		.cfi_def_cfa_offset 4
 1021 0002 85B0     		sub	sp, sp, #20
ARM GAS  C:\Users\karunmj\AppData\Local\Temp\ccia1kJ3.s 			page 31


 1022              	.LCFI44:
 1023              		.cfi_def_cfa_offset 24
 1024 0004 00AF     		add	r7, sp, #0
 1025              		.cfi_offset 7, -4
 1026              	.LCFI45:
 1027              		.cfi_def_cfa_register 7
 1028 0006 F871     		strb	r0, [r7, #7]
 1029 0008 B971     		strb	r1, [r7, #6]
 1030 000a 7A71     		strb	r2, [r7, #5]
 1031 000c 3B71     		strb	r3, [r7, #4]
 686:.\Generated_Source\PSoC5/CyDmac.c ****     cystatus status = CYRET_BAD_PARAM;
 1032              		.loc 1 686 0
 1033 000e 4FF00103 		mov	r3, #1
 1034 0012 FB60     		str	r3, [r7, #12]
 687:.\Generated_Source\PSoC5/CyDmac.c **** 
 688:.\Generated_Source\PSoC5/CyDmac.c ****     if(chHandle < CY_DMA_NUMBEROF_CHANNELS)
 1035              		.loc 1 688 0
 1036 0014 FB79     		ldrb	r3, [r7, #7]	@ zero_extendqisi2
 1037 0016 172B     		cmp	r3, #23
 1038 0018 3BD8     		bhi	.L55
 689:.\Generated_Source\PSoC5/CyDmac.c ****     {
 690:.\Generated_Source\PSoC5/CyDmac.c ****         CY_DMA_CFGMEM_STRUCT_PTR[chHandle].CFG0[0] = (burstCount & 0x7Fu) | ((uint8)((requestPerBur
 1039              		.loc 1 690 0
 1040 001a FB79     		ldrb	r3, [r7, #7]	@ zero_extendqisi2
 1041 001c 4FEAC303 		lsl	r3, r3, #3
 1042 0020 03F18043 		add	r3, r3, #1073741824
 1043 0024 03F5EC43 		add	r3, r3, #30208
 1044 0028 BA79     		ldrb	r2, [r7, #6]	@ zero_extendqisi2
 1045 002a 02F07F02 		and	r2, r2, #127
 1046 002e 7979     		ldrb	r1, [r7, #5]
 1047 0030 4FEAC111 		lsl	r1, r1, #7
 1048 0034 C9B2     		uxtb	r1, r1
 1049 0036 42EA0102 		orr	r2, r2, r1
 1050 003a D2B2     		uxtb	r2, r2
 1051 003c 1A70     		strb	r2, [r3, #0]
 691:.\Generated_Source\PSoC5/CyDmac.c ****         CY_DMA_CFGMEM_STRUCT_PTR[chHandle].CFG0[1] = ((uint8)((tdDone1 & 0xFu) << 4u)) | (tdDone0 &
 1052              		.loc 1 691 0
 1053 003e FB79     		ldrb	r3, [r7, #7]	@ zero_extendqisi2
 1054 0040 4FEAC303 		lsl	r3, r3, #3
 1055 0044 03F18043 		add	r3, r3, #1073741824
 1056 0048 03F5EC43 		add	r3, r3, #30208
 1057 004c 3A7E     		ldrb	r2, [r7, #24]
 1058 004e 4FEA0212 		lsl	r2, r2, #4
 1059 0052 D1B2     		uxtb	r1, r2
 1060 0054 3A79     		ldrb	r2, [r7, #4]	@ zero_extendqisi2
 1061 0056 02F00F02 		and	r2, r2, #15
 1062 005a 41EA0202 		orr	r2, r1, r2
 1063 005e D2B2     		uxtb	r2, r2
 1064 0060 5A70     		strb	r2, [r3, #1]
 692:.\Generated_Source\PSoC5/CyDmac.c ****         CY_DMA_CFGMEM_STRUCT_PTR[chHandle].CFG0[2] = 0x0Fu & tdStop;
 1065              		.loc 1 692 0
 1066 0062 FB79     		ldrb	r3, [r7, #7]	@ zero_extendqisi2
 1067 0064 4FEAC303 		lsl	r3, r3, #3
 1068 0068 03F18043 		add	r3, r3, #1073741824
 1069 006c 03F5EC43 		add	r3, r3, #30208
 1070 0070 3A7F     		ldrb	r2, [r7, #28]	@ zero_extendqisi2
 1071 0072 02F00F02 		and	r2, r2, #15
ARM GAS  C:\Users\karunmj\AppData\Local\Temp\ccia1kJ3.s 			page 32


 1072 0076 9A70     		strb	r2, [r3, #2]
 693:.\Generated_Source\PSoC5/CyDmac.c ****         CY_DMA_CFGMEM_STRUCT_PTR[chHandle].CFG0[3] = 0u; /* burstcount_remain. */
 1073              		.loc 1 693 0
 1074 0078 FB79     		ldrb	r3, [r7, #7]	@ zero_extendqisi2
 1075 007a 4FEAC303 		lsl	r3, r3, #3
 1076 007e 03F18043 		add	r3, r3, #1073741824
 1077 0082 03F5EC43 		add	r3, r3, #30208
 1078 0086 4FF00002 		mov	r2, #0
 1079 008a DA70     		strb	r2, [r3, #3]
 694:.\Generated_Source\PSoC5/CyDmac.c **** 
 695:.\Generated_Source\PSoC5/CyDmac.c ****         status = CYRET_SUCCESS;
 1080              		.loc 1 695 0
 1081 008c 4FF00003 		mov	r3, #0
 1082 0090 FB60     		str	r3, [r7, #12]
 1083              	.L55:
 696:.\Generated_Source\PSoC5/CyDmac.c ****     }
 697:.\Generated_Source\PSoC5/CyDmac.c **** 
 698:.\Generated_Source\PSoC5/CyDmac.c ****     return (status);
 1084              		.loc 1 698 0
 1085 0092 FB68     		ldr	r3, [r7, #12]
 699:.\Generated_Source\PSoC5/CyDmac.c **** }
 1086              		.loc 1 699 0
 1087 0094 1846     		mov	r0, r3
 1088 0096 07F11407 		add	r7, r7, #20
 1089 009a BD46     		mov	sp, r7
 1090 009c 80BC     		pop	{r7}
 1091 009e 7047     		bx	lr
 1092              		.cfi_endproc
 1093              	.LFE15:
 1094              		.size	CyDmaChSetConfiguration, .-CyDmaChSetConfiguration
 1095              		.section	.text.CyDmaTdAllocate,"ax",%progbits
 1096              		.align	2
 1097              		.global	CyDmaTdAllocate
 1098              		.thumb
 1099              		.thumb_func
 1100              		.type	CyDmaTdAllocate, %function
 1101              	CyDmaTdAllocate:
 1102              	.LFB16:
 700:.\Generated_Source\PSoC5/CyDmac.c **** 
 701:.\Generated_Source\PSoC5/CyDmac.c **** 
 702:.\Generated_Source\PSoC5/CyDmac.c **** /*******************************************************************************
 703:.\Generated_Source\PSoC5/CyDmac.c **** * Function Name: CyDmaTdAllocate
 704:.\Generated_Source\PSoC5/CyDmac.c **** ********************************************************************************
 705:.\Generated_Source\PSoC5/CyDmac.c **** *
 706:.\Generated_Source\PSoC5/CyDmac.c **** * Summary:
 707:.\Generated_Source\PSoC5/CyDmac.c **** *  Allocates a TD for use with an allocated DMA channel.
 708:.\Generated_Source\PSoC5/CyDmac.c **** *
 709:.\Generated_Source\PSoC5/CyDmac.c **** * Parameters:
 710:.\Generated_Source\PSoC5/CyDmac.c **** *  None
 711:.\Generated_Source\PSoC5/CyDmac.c **** *
 712:.\Generated_Source\PSoC5/CyDmac.c **** * Return:
 713:.\Generated_Source\PSoC5/CyDmac.c **** *  Zero-based index of the TD to be used by the caller. Since there are 128 TDs
 714:.\Generated_Source\PSoC5/CyDmac.c **** *  minus the reserved TDs (0 to 23), the value returned would range from 24 to
 715:.\Generated_Source\PSoC5/CyDmac.c **** *  127 not 24 to 128. DMA_INVALID_TD is returned if there are no free TDs
 716:.\Generated_Source\PSoC5/CyDmac.c **** *  available.
 717:.\Generated_Source\PSoC5/CyDmac.c **** *
 718:.\Generated_Source\PSoC5/CyDmac.c **** *******************************************************************************/
ARM GAS  C:\Users\karunmj\AppData\Local\Temp\ccia1kJ3.s 			page 33


 719:.\Generated_Source\PSoC5/CyDmac.c **** uint8 CyDmaTdAllocate(void) 
 720:.\Generated_Source\PSoC5/CyDmac.c **** {
 1103              		.loc 1 720 0
 1104              		.cfi_startproc
 1105              		@ args = 0, pretend = 0, frame = 8
 1106              		@ frame_needed = 1, uses_anonymous_args = 0
 1107 0000 80B5     		push	{r7, lr}
 1108              	.LCFI46:
 1109              		.cfi_def_cfa_offset 8
 1110 0002 82B0     		sub	sp, sp, #8
 1111              	.LCFI47:
 1112              		.cfi_def_cfa_offset 16
 1113 0004 00AF     		add	r7, sp, #0
 1114              		.cfi_offset 14, -4
 1115              		.cfi_offset 7, -8
 1116              	.LCFI48:
 1117              		.cfi_def_cfa_register 7
 721:.\Generated_Source\PSoC5/CyDmac.c ****     uint8 interruptState;
 722:.\Generated_Source\PSoC5/CyDmac.c ****     uint8 element = CY_DMA_INVALID_TD;
 1118              		.loc 1 722 0
 1119 0006 4FF0FF33 		mov	r3, #-1
 1120 000a FB71     		strb	r3, [r7, #7]
 723:.\Generated_Source\PSoC5/CyDmac.c **** 
 724:.\Generated_Source\PSoC5/CyDmac.c ****     /* Enter critical section! */
 725:.\Generated_Source\PSoC5/CyDmac.c ****     interruptState = CyEnterCriticalSection();
 1121              		.loc 1 725 0
 1122 000c FFF7FEFF 		bl	CyEnterCriticalSection
 1123 0010 0346     		mov	r3, r0
 1124 0012 BB71     		strb	r3, [r7, #6]
 726:.\Generated_Source\PSoC5/CyDmac.c **** 
 727:.\Generated_Source\PSoC5/CyDmac.c ****     if(CyDmaTdCurrentNumber > NUMBEROF_CHANNELS)
 1125              		.loc 1 727 0
 1126 0014 40F20003 		movw	r3, #:lower16:CyDmaTdCurrentNumber
 1127 0018 C0F20003 		movt	r3, #:upper16:CyDmaTdCurrentNumber
 1128 001c 1B78     		ldrb	r3, [r3, #0]	@ zero_extendqisi2
 1129 001e 182B     		cmp	r3, #24
 1130 0020 20D9     		bls	.L58
 728:.\Generated_Source\PSoC5/CyDmac.c ****     {
 729:.\Generated_Source\PSoC5/CyDmac.c ****         /* Get pointer to the Next available. */
 730:.\Generated_Source\PSoC5/CyDmac.c ****         element = CyDmaTdFreeIndex;
 1131              		.loc 1 730 0
 1132 0022 40F20003 		movw	r3, #:lower16:CyDmaTdFreeIndex
 1133 0026 C0F20003 		movt	r3, #:upper16:CyDmaTdFreeIndex
 1134 002a 1B78     		ldrb	r3, [r3, #0]
 1135 002c FB71     		strb	r3, [r7, #7]
 731:.\Generated_Source\PSoC5/CyDmac.c **** 
 732:.\Generated_Source\PSoC5/CyDmac.c ****         /* Decrement the count. */
 733:.\Generated_Source\PSoC5/CyDmac.c ****         CyDmaTdCurrentNumber--;
 1136              		.loc 1 733 0
 1137 002e 40F20003 		movw	r3, #:lower16:CyDmaTdCurrentNumber
 1138 0032 C0F20003 		movt	r3, #:upper16:CyDmaTdCurrentNumber
 1139 0036 1B78     		ldrb	r3, [r3, #0]	@ zero_extendqisi2
 1140 0038 03F1FF33 		add	r3, r3, #-1
 1141 003c DAB2     		uxtb	r2, r3
 1142 003e 40F20003 		movw	r3, #:lower16:CyDmaTdCurrentNumber
 1143 0042 C0F20003 		movt	r3, #:upper16:CyDmaTdCurrentNumber
 1144 0046 1A70     		strb	r2, [r3, #0]
ARM GAS  C:\Users\karunmj\AppData\Local\Temp\ccia1kJ3.s 			page 34


 734:.\Generated_Source\PSoC5/CyDmac.c **** 
 735:.\Generated_Source\PSoC5/CyDmac.c ****         /* Update the next available pointer. */
 736:.\Generated_Source\PSoC5/CyDmac.c ****         CyDmaTdFreeIndex = CY_DMA_TDMEM_STRUCT_PTR[element].TD0[0];
 1145              		.loc 1 736 0
 1146 0048 FB79     		ldrb	r3, [r7, #7]	@ zero_extendqisi2
 1147 004a 4FEAC303 		lsl	r3, r3, #3
 1148 004e 03F18043 		add	r3, r3, #1073741824
 1149 0052 03F5F043 		add	r3, r3, #30720
 1150 0056 1B78     		ldrb	r3, [r3, #0]
 1151 0058 DAB2     		uxtb	r2, r3
 1152 005a 40F20003 		movw	r3, #:lower16:CyDmaTdFreeIndex
 1153 005e C0F20003 		movt	r3, #:upper16:CyDmaTdFreeIndex
 1154 0062 1A70     		strb	r2, [r3, #0]
 1155              	.L58:
 737:.\Generated_Source\PSoC5/CyDmac.c ****     }
 738:.\Generated_Source\PSoC5/CyDmac.c **** 
 739:.\Generated_Source\PSoC5/CyDmac.c ****     /* Exit critical section! */
 740:.\Generated_Source\PSoC5/CyDmac.c ****     CyExitCriticalSection(interruptState);
 1156              		.loc 1 740 0
 1157 0064 BB79     		ldrb	r3, [r7, #6]	@ zero_extendqisi2
 1158 0066 1846     		mov	r0, r3
 1159 0068 FFF7FEFF 		bl	CyExitCriticalSection
 741:.\Generated_Source\PSoC5/CyDmac.c **** 
 742:.\Generated_Source\PSoC5/CyDmac.c ****     return(element);
 1160              		.loc 1 742 0
 1161 006c FB79     		ldrb	r3, [r7, #7]	@ zero_extendqisi2
 743:.\Generated_Source\PSoC5/CyDmac.c **** }
 1162              		.loc 1 743 0
 1163 006e 1846     		mov	r0, r3
 1164 0070 07F10807 		add	r7, r7, #8
 1165 0074 BD46     		mov	sp, r7
 1166 0076 80BD     		pop	{r7, pc}
 1167              		.cfi_endproc
 1168              	.LFE16:
 1169              		.size	CyDmaTdAllocate, .-CyDmaTdAllocate
 1170              		.section	.text.CyDmaTdFree,"ax",%progbits
 1171              		.align	2
 1172              		.global	CyDmaTdFree
 1173              		.thumb
 1174              		.thumb_func
 1175              		.type	CyDmaTdFree, %function
 1176              	CyDmaTdFree:
 1177              	.LFB17:
 744:.\Generated_Source\PSoC5/CyDmac.c **** 
 745:.\Generated_Source\PSoC5/CyDmac.c **** 
 746:.\Generated_Source\PSoC5/CyDmac.c **** /*******************************************************************************
 747:.\Generated_Source\PSoC5/CyDmac.c **** * Function Name: CyDmaTdFree
 748:.\Generated_Source\PSoC5/CyDmac.c **** ********************************************************************************
 749:.\Generated_Source\PSoC5/CyDmac.c **** *
 750:.\Generated_Source\PSoC5/CyDmac.c **** * Summary:
 751:.\Generated_Source\PSoC5/CyDmac.c **** *  Returns a TD to the free list.
 752:.\Generated_Source\PSoC5/CyDmac.c **** *
 753:.\Generated_Source\PSoC5/CyDmac.c **** * Parameters:
 754:.\Generated_Source\PSoC5/CyDmac.c **** *  uint8 tdHandle:
 755:.\Generated_Source\PSoC5/CyDmac.c **** *   The TD handle returned by the CyDmaTdAllocate().
 756:.\Generated_Source\PSoC5/CyDmac.c **** *
 757:.\Generated_Source\PSoC5/CyDmac.c **** * Return:
ARM GAS  C:\Users\karunmj\AppData\Local\Temp\ccia1kJ3.s 			page 35


 758:.\Generated_Source\PSoC5/CyDmac.c **** *  None
 759:.\Generated_Source\PSoC5/CyDmac.c **** *
 760:.\Generated_Source\PSoC5/CyDmac.c **** *******************************************************************************/
 761:.\Generated_Source\PSoC5/CyDmac.c **** void CyDmaTdFree(uint8 tdHandle) 
 762:.\Generated_Source\PSoC5/CyDmac.c **** {
 1178              		.loc 1 762 0
 1179              		.cfi_startproc
 1180              		@ args = 0, pretend = 0, frame = 16
 1181              		@ frame_needed = 1, uses_anonymous_args = 0
 1182 0000 80B5     		push	{r7, lr}
 1183              	.LCFI49:
 1184              		.cfi_def_cfa_offset 8
 1185 0002 84B0     		sub	sp, sp, #16
 1186              	.LCFI50:
 1187              		.cfi_def_cfa_offset 24
 1188 0004 00AF     		add	r7, sp, #0
 1189              		.cfi_offset 14, -4
 1190              		.cfi_offset 7, -8
 1191              	.LCFI51:
 1192              		.cfi_def_cfa_register 7
 1193 0006 0346     		mov	r3, r0
 1194 0008 FB71     		strb	r3, [r7, #7]
 763:.\Generated_Source\PSoC5/CyDmac.c ****     if(tdHandle < CY_DMA_NUMBEROF_TDS)
 1195              		.loc 1 763 0
 1196 000a FB79     		ldrb	r3, [r7, #7]	@ zero_extendqisi2
 1197 000c 5BB2     		sxtb	r3, r3
 1198 000e 002B     		cmp	r3, #0
 1199 0010 27DB     		blt	.L62
 1200              	.LBB3:
 764:.\Generated_Source\PSoC5/CyDmac.c ****     {
 765:.\Generated_Source\PSoC5/CyDmac.c ****         /* Enter critical section! */
 766:.\Generated_Source\PSoC5/CyDmac.c ****         uint8 interruptState = CyEnterCriticalSection();
 1201              		.loc 1 766 0
 1202 0012 FFF7FEFF 		bl	CyEnterCriticalSection
 1203 0016 0346     		mov	r3, r0
 1204 0018 FB73     		strb	r3, [r7, #15]
 767:.\Generated_Source\PSoC5/CyDmac.c **** 
 768:.\Generated_Source\PSoC5/CyDmac.c ****         /* Get pointer to the Next available. */
 769:.\Generated_Source\PSoC5/CyDmac.c ****         CY_DMA_TDMEM_STRUCT_PTR[tdHandle].TD0[0u] = CyDmaTdFreeIndex;
 1205              		.loc 1 769 0
 1206 001a FB79     		ldrb	r3, [r7, #7]	@ zero_extendqisi2
 1207 001c 4FEAC303 		lsl	r3, r3, #3
 1208 0020 03F18043 		add	r3, r3, #1073741824
 1209 0024 03F5F043 		add	r3, r3, #30720
 1210 0028 40F20002 		movw	r2, #:lower16:CyDmaTdFreeIndex
 1211 002c C0F20002 		movt	r2, #:upper16:CyDmaTdFreeIndex
 1212 0030 1278     		ldrb	r2, [r2, #0]	@ zero_extendqisi2
 1213 0032 1A70     		strb	r2, [r3, #0]
 770:.\Generated_Source\PSoC5/CyDmac.c **** 
 771:.\Generated_Source\PSoC5/CyDmac.c ****         /* Set new Next Available. */
 772:.\Generated_Source\PSoC5/CyDmac.c ****         CyDmaTdFreeIndex = tdHandle;
 1214              		.loc 1 772 0
 1215 0034 40F20003 		movw	r3, #:lower16:CyDmaTdFreeIndex
 1216 0038 C0F20003 		movt	r3, #:upper16:CyDmaTdFreeIndex
 1217 003c FA79     		ldrb	r2, [r7, #7]
 1218 003e 1A70     		strb	r2, [r3, #0]
 773:.\Generated_Source\PSoC5/CyDmac.c **** 
ARM GAS  C:\Users\karunmj\AppData\Local\Temp\ccia1kJ3.s 			page 36


 774:.\Generated_Source\PSoC5/CyDmac.c ****         /* Keep track of how many left. */
 775:.\Generated_Source\PSoC5/CyDmac.c ****         CyDmaTdCurrentNumber++;
 1219              		.loc 1 775 0
 1220 0040 40F20003 		movw	r3, #:lower16:CyDmaTdCurrentNumber
 1221 0044 C0F20003 		movt	r3, #:upper16:CyDmaTdCurrentNumber
 1222 0048 1B78     		ldrb	r3, [r3, #0]	@ zero_extendqisi2
 1223 004a 03F10103 		add	r3, r3, #1
 1224 004e DAB2     		uxtb	r2, r3
 1225 0050 40F20003 		movw	r3, #:lower16:CyDmaTdCurrentNumber
 1226 0054 C0F20003 		movt	r3, #:upper16:CyDmaTdCurrentNumber
 1227 0058 1A70     		strb	r2, [r3, #0]
 776:.\Generated_Source\PSoC5/CyDmac.c **** 
 777:.\Generated_Source\PSoC5/CyDmac.c ****         /* Exit critical section! */
 778:.\Generated_Source\PSoC5/CyDmac.c ****         CyExitCriticalSection(interruptState);
 1228              		.loc 1 778 0
 1229 005a FB7B     		ldrb	r3, [r7, #15]	@ zero_extendqisi2
 1230 005c 1846     		mov	r0, r3
 1231 005e FFF7FEFF 		bl	CyExitCriticalSection
 1232              	.L62:
 1233              	.LBE3:
 779:.\Generated_Source\PSoC5/CyDmac.c ****     }
 780:.\Generated_Source\PSoC5/CyDmac.c **** }
 1234              		.loc 1 780 0
 1235 0062 07F11007 		add	r7, r7, #16
 1236 0066 BD46     		mov	sp, r7
 1237 0068 80BD     		pop	{r7, pc}
 1238              		.cfi_endproc
 1239              	.LFE17:
 1240              		.size	CyDmaTdFree, .-CyDmaTdFree
 1241 006a 00BF     		.section	.text.CyDmaTdFreeCount,"ax",%progbits
 1242              		.align	2
 1243              		.global	CyDmaTdFreeCount
 1244              		.thumb
 1245              		.thumb_func
 1246              		.type	CyDmaTdFreeCount, %function
 1247              	CyDmaTdFreeCount:
 1248              	.LFB18:
 781:.\Generated_Source\PSoC5/CyDmac.c **** 
 782:.\Generated_Source\PSoC5/CyDmac.c **** 
 783:.\Generated_Source\PSoC5/CyDmac.c **** /*******************************************************************************
 784:.\Generated_Source\PSoC5/CyDmac.c **** * Function Name: CyDmaTdFreeCount
 785:.\Generated_Source\PSoC5/CyDmac.c **** ********************************************************************************
 786:.\Generated_Source\PSoC5/CyDmac.c **** *
 787:.\Generated_Source\PSoC5/CyDmac.c **** * Summary:
 788:.\Generated_Source\PSoC5/CyDmac.c **** *  Returns the number of free TDs available to be allocated.
 789:.\Generated_Source\PSoC5/CyDmac.c **** *
 790:.\Generated_Source\PSoC5/CyDmac.c **** * Parameters:
 791:.\Generated_Source\PSoC5/CyDmac.c **** *  None
 792:.\Generated_Source\PSoC5/CyDmac.c **** *
 793:.\Generated_Source\PSoC5/CyDmac.c **** * Return:
 794:.\Generated_Source\PSoC5/CyDmac.c **** *  The number of free TDs.
 795:.\Generated_Source\PSoC5/CyDmac.c **** *
 796:.\Generated_Source\PSoC5/CyDmac.c **** *******************************************************************************/
 797:.\Generated_Source\PSoC5/CyDmac.c **** uint8 CyDmaTdFreeCount(void) 
 798:.\Generated_Source\PSoC5/CyDmac.c **** {
 1249              		.loc 1 798 0
 1250              		.cfi_startproc
ARM GAS  C:\Users\karunmj\AppData\Local\Temp\ccia1kJ3.s 			page 37


 1251              		@ args = 0, pretend = 0, frame = 0
 1252              		@ frame_needed = 1, uses_anonymous_args = 0
 1253              		@ link register save eliminated.
 1254 0000 80B4     		push	{r7}
 1255              	.LCFI52:
 1256              		.cfi_def_cfa_offset 4
 1257 0002 00AF     		add	r7, sp, #0
 1258              		.cfi_offset 7, -4
 1259              	.LCFI53:
 1260              		.cfi_def_cfa_register 7
 799:.\Generated_Source\PSoC5/CyDmac.c ****     return(CyDmaTdCurrentNumber - CY_DMA_NUMBEROF_CHANNELS);
 1261              		.loc 1 799 0
 1262 0004 40F20003 		movw	r3, #:lower16:CyDmaTdCurrentNumber
 1263 0008 C0F20003 		movt	r3, #:upper16:CyDmaTdCurrentNumber
 1264 000c 1B78     		ldrb	r3, [r3, #0]	@ zero_extendqisi2
 1265 000e A3F11803 		sub	r3, r3, #24
 1266 0012 DBB2     		uxtb	r3, r3
 800:.\Generated_Source\PSoC5/CyDmac.c **** }
 1267              		.loc 1 800 0
 1268 0014 1846     		mov	r0, r3
 1269 0016 BD46     		mov	sp, r7
 1270 0018 80BC     		pop	{r7}
 1271 001a 7047     		bx	lr
 1272              		.cfi_endproc
 1273              	.LFE18:
 1274              		.size	CyDmaTdFreeCount, .-CyDmaTdFreeCount
 1275              		.section	.text.CyDmaTdSetConfiguration,"ax",%progbits
 1276              		.align	2
 1277              		.global	CyDmaTdSetConfiguration
 1278              		.thumb
 1279              		.thumb_func
 1280              		.type	CyDmaTdSetConfiguration, %function
 1281              	CyDmaTdSetConfiguration:
 1282              	.LFB19:
 801:.\Generated_Source\PSoC5/CyDmac.c **** 
 802:.\Generated_Source\PSoC5/CyDmac.c **** 
 803:.\Generated_Source\PSoC5/CyDmac.c **** /*******************************************************************************
 804:.\Generated_Source\PSoC5/CyDmac.c **** * Function Name: CyDmaTdSetConfiguration
 805:.\Generated_Source\PSoC5/CyDmac.c **** ********************************************************************************
 806:.\Generated_Source\PSoC5/CyDmac.c **** *
 807:.\Generated_Source\PSoC5/CyDmac.c **** * Summary:
 808:.\Generated_Source\PSoC5/CyDmac.c **** *  Configures the TD.
 809:.\Generated_Source\PSoC5/CyDmac.c **** *
 810:.\Generated_Source\PSoC5/CyDmac.c **** * Parameters:
 811:.\Generated_Source\PSoC5/CyDmac.c **** *  uint8 tdHandle:
 812:.\Generated_Source\PSoC5/CyDmac.c **** *   A handle previously returned by CyDmaTdAlloc().
 813:.\Generated_Source\PSoC5/CyDmac.c **** *
 814:.\Generated_Source\PSoC5/CyDmac.c **** *  uint16 transferCount:
 815:.\Generated_Source\PSoC5/CyDmac.c **** *   The size of the data transfer (in bytes) for this TD. A size of zero will
 816:.\Generated_Source\PSoC5/CyDmac.c **** *   cause the transfer to continue indefinitely. This parameter is limited to
 817:.\Generated_Source\PSoC5/CyDmac.c **** *   4095 bytes; the TD is not initialized at all when a higher value is passed.
 818:.\Generated_Source\PSoC5/CyDmac.c **** *
 819:.\Generated_Source\PSoC5/CyDmac.c **** *  uint8 nextTd:
 820:.\Generated_Source\PSoC5/CyDmac.c **** *   Zero based index of the next Transfer Descriptor in the TD chain. Zero is a
 821:.\Generated_Source\PSoC5/CyDmac.c **** *   valid pointer to the next TD; DMA_END_CHAIN_TD is the end of the chain.
 822:.\Generated_Source\PSoC5/CyDmac.c **** *   DMA_DISABLE_TD indicates an end to the chain and the DMA is disabled. No
 823:.\Generated_Source\PSoC5/CyDmac.c **** *   further TDs are fetched. DMA_DISABLE_TD is only supported on PSoC3 and
ARM GAS  C:\Users\karunmj\AppData\Local\Temp\ccia1kJ3.s 			page 38


 824:.\Generated_Source\PSoC5/CyDmac.c **** *   PSoC 5LP silicons.
 825:.\Generated_Source\PSoC5/CyDmac.c **** *
 826:.\Generated_Source\PSoC5/CyDmac.c **** *  uint8 configuration:
 827:.\Generated_Source\PSoC5/CyDmac.c **** *   Stores the Bit field of configuration bits.
 828:.\Generated_Source\PSoC5/CyDmac.c **** *
 829:.\Generated_Source\PSoC5/CyDmac.c **** *   CY_DMA_TD_SWAP_EN        - Perform endian swap
 830:.\Generated_Source\PSoC5/CyDmac.c **** *
 831:.\Generated_Source\PSoC5/CyDmac.c **** *   CY_DMA_TD_SWAP_SIZE4     - Swap size = 4 bytes
 832:.\Generated_Source\PSoC5/CyDmac.c **** *
 833:.\Generated_Source\PSoC5/CyDmac.c **** *   CY_DMA_TD_AUTO_EXEC_NEXT - The next TD in the chain will trigger
 834:.\Generated_Source\PSoC5/CyDmac.c **** *                              automatically when the current TD completes.
 835:.\Generated_Source\PSoC5/CyDmac.c **** *
 836:.\Generated_Source\PSoC5/CyDmac.c **** *   CY_DMA_TD_TERMIN_EN      - Terminate this TD if a positive edge on the trq
 837:.\Generated_Source\PSoC5/CyDmac.c **** *                              input line occurs. The positive edge must occur
 838:.\Generated_Source\PSoC5/CyDmac.c **** *                              during a burst. That is the only time the DMAC
 839:.\Generated_Source\PSoC5/CyDmac.c **** *                              will listen for it.
 840:.\Generated_Source\PSoC5/CyDmac.c **** *
 841:.\Generated_Source\PSoC5/CyDmac.c **** *   DMA__TD_TERMOUT_EN       - When this TD completes, the TERMOUT signal will
 842:.\Generated_Source\PSoC5/CyDmac.c **** *                              generate a pulse. Note that this option is
 843:.\Generated_Source\PSoC5/CyDmac.c **** *                              instance specific with the instance name followed
 844:.\Generated_Source\PSoC5/CyDmac.c **** *                              by two underscores. In this example, the instance
 845:.\Generated_Source\PSoC5/CyDmac.c **** *                              name is DMA.
 846:.\Generated_Source\PSoC5/CyDmac.c **** *
 847:.\Generated_Source\PSoC5/CyDmac.c **** *   CY_DMA_TD_INC_DST_ADR    - Increment DST_ADR according to the size of each
 848:.\Generated_Source\PSoC5/CyDmac.c **** *                              data transaction in the burst.
 849:.\Generated_Source\PSoC5/CyDmac.c **** *
 850:.\Generated_Source\PSoC5/CyDmac.c **** *   CY_DMA_TD_INC_SRC_ADR    - Increment SRC_ADR according to the size of each
 851:.\Generated_Source\PSoC5/CyDmac.c **** *                              data transaction in the burst.
 852:.\Generated_Source\PSoC5/CyDmac.c **** *
 853:.\Generated_Source\PSoC5/CyDmac.c **** * Return:
 854:.\Generated_Source\PSoC5/CyDmac.c **** *  CYRET_SUCCESS if successful.
 855:.\Generated_Source\PSoC5/CyDmac.c **** *  CYRET_BAD_PARAM if tdHandle or transferCount is invalid.
 856:.\Generated_Source\PSoC5/CyDmac.c **** *
 857:.\Generated_Source\PSoC5/CyDmac.c **** *******************************************************************************/
 858:.\Generated_Source\PSoC5/CyDmac.c **** cystatus CyDmaTdSetConfiguration(uint8 tdHandle, uint16 transferCount, uint8 nextTd, uint8 configur
 859:.\Generated_Source\PSoC5/CyDmac.c ****     
 860:.\Generated_Source\PSoC5/CyDmac.c **** {
 1283              		.loc 1 860 0
 1284              		.cfi_startproc
 1285              		@ args = 0, pretend = 0, frame = 16
 1286              		@ frame_needed = 1, uses_anonymous_args = 0
 1287              		@ link register save eliminated.
 1288 0000 80B4     		push	{r7}
 1289              	.LCFI54:
 1290              		.cfi_def_cfa_offset 4
 1291 0002 85B0     		sub	sp, sp, #20
 1292              	.LCFI55:
 1293              		.cfi_def_cfa_offset 24
 1294 0004 00AF     		add	r7, sp, #0
 1295              		.cfi_offset 7, -4
 1296              	.LCFI56:
 1297              		.cfi_def_cfa_register 7
 1298 0006 F871     		strb	r0, [r7, #7]
 1299 0008 B980     		strh	r1, [r7, #4]	@ movhi
 1300 000a FA70     		strb	r2, [r7, #3]
 1301 000c BB70     		strb	r3, [r7, #2]
 861:.\Generated_Source\PSoC5/CyDmac.c ****     cystatus status = CYRET_BAD_PARAM;
ARM GAS  C:\Users\karunmj\AppData\Local\Temp\ccia1kJ3.s 			page 39


 1302              		.loc 1 861 0
 1303 000e 4FF00103 		mov	r3, #1
 1304 0012 BB60     		str	r3, [r7, #8]
 862:.\Generated_Source\PSoC5/CyDmac.c **** 
 863:.\Generated_Source\PSoC5/CyDmac.c ****     if((tdHandle < CY_DMA_NUMBEROF_TDS) && (0u == (0xF000u & transferCount)))
 1305              		.loc 1 863 0
 1306 0014 FB79     		ldrb	r3, [r7, #7]	@ zero_extendqisi2
 1307 0016 5BB2     		sxtb	r3, r3
 1308 0018 002B     		cmp	r3, #0
 1309 001a 24DB     		blt	.L66
 1310 001c BB88     		ldrh	r3, [r7, #4]
 1311 001e 03F47043 		and	r3, r3, #61440
 1312 0022 002B     		cmp	r3, #0
 1313 0024 1FD1     		bne	.L66
 1314              	.LBB4:
 864:.\Generated_Source\PSoC5/CyDmac.c ****     {
 865:.\Generated_Source\PSoC5/CyDmac.c ****         /* Set 12 bits transfer count. */
 866:.\Generated_Source\PSoC5/CyDmac.c ****         reg16 *convert = (reg16 *) &CY_DMA_TDMEM_STRUCT_PTR[tdHandle].TD0[0u];
 1315              		.loc 1 866 0
 1316 0026 FB79     		ldrb	r3, [r7, #7]	@ zero_extendqisi2
 1317 0028 4FEAC303 		lsl	r3, r3, #3
 1318 002c 03F18043 		add	r3, r3, #1073741824
 1319 0030 03F5F043 		add	r3, r3, #30720
 1320 0034 FB60     		str	r3, [r7, #12]
 867:.\Generated_Source\PSoC5/CyDmac.c ****         CY_SET_REG16(convert, transferCount);
 1321              		.loc 1 867 0
 1322 0036 FB68     		ldr	r3, [r7, #12]
 1323 0038 BA88     		ldrh	r2, [r7, #4]	@ movhi
 1324 003a 1A80     		strh	r2, [r3, #0]	@ movhi
 868:.\Generated_Source\PSoC5/CyDmac.c **** 
 869:.\Generated_Source\PSoC5/CyDmac.c ****         /* Set Next TD pointer. */
 870:.\Generated_Source\PSoC5/CyDmac.c ****         CY_DMA_TDMEM_STRUCT_PTR[tdHandle].TD0[2u] = nextTd;
 1325              		.loc 1 870 0
 1326 003c FB79     		ldrb	r3, [r7, #7]	@ zero_extendqisi2
 1327 003e 4FEAC303 		lsl	r3, r3, #3
 1328 0042 03F18043 		add	r3, r3, #1073741824
 1329 0046 03F5F043 		add	r3, r3, #30720
 1330 004a FA78     		ldrb	r2, [r7, #3]
 1331 004c 9A70     		strb	r2, [r3, #2]
 871:.\Generated_Source\PSoC5/CyDmac.c **** 
 872:.\Generated_Source\PSoC5/CyDmac.c ****         /* Configure the TD */
 873:.\Generated_Source\PSoC5/CyDmac.c ****         CY_DMA_TDMEM_STRUCT_PTR[tdHandle].TD0[3u] = configuration;
 1332              		.loc 1 873 0
 1333 004e FB79     		ldrb	r3, [r7, #7]	@ zero_extendqisi2
 1334 0050 4FEAC303 		lsl	r3, r3, #3
 1335 0054 03F18043 		add	r3, r3, #1073741824
 1336 0058 03F5F043 		add	r3, r3, #30720
 1337 005c BA78     		ldrb	r2, [r7, #2]
 1338 005e DA70     		strb	r2, [r3, #3]
 874:.\Generated_Source\PSoC5/CyDmac.c **** 
 875:.\Generated_Source\PSoC5/CyDmac.c ****         status = CYRET_SUCCESS;
 1339              		.loc 1 875 0
 1340 0060 4FF00003 		mov	r3, #0
 1341 0064 BB60     		str	r3, [r7, #8]
 1342              	.L66:
 1343              	.LBE4:
 876:.\Generated_Source\PSoC5/CyDmac.c ****     }
ARM GAS  C:\Users\karunmj\AppData\Local\Temp\ccia1kJ3.s 			page 40


 877:.\Generated_Source\PSoC5/CyDmac.c **** 
 878:.\Generated_Source\PSoC5/CyDmac.c ****     return(status);
 1344              		.loc 1 878 0
 1345 0066 BB68     		ldr	r3, [r7, #8]
 879:.\Generated_Source\PSoC5/CyDmac.c **** }
 1346              		.loc 1 879 0
 1347 0068 1846     		mov	r0, r3
 1348 006a 07F11407 		add	r7, r7, #20
 1349 006e BD46     		mov	sp, r7
 1350 0070 80BC     		pop	{r7}
 1351 0072 7047     		bx	lr
 1352              		.cfi_endproc
 1353              	.LFE19:
 1354              		.size	CyDmaTdSetConfiguration, .-CyDmaTdSetConfiguration
 1355              		.section	.text.CyDmaTdGetConfiguration,"ax",%progbits
 1356              		.align	2
 1357              		.global	CyDmaTdGetConfiguration
 1358              		.thumb
 1359              		.thumb_func
 1360              		.type	CyDmaTdGetConfiguration, %function
 1361              	CyDmaTdGetConfiguration:
 1362              	.LFB20:
 880:.\Generated_Source\PSoC5/CyDmac.c **** 
 881:.\Generated_Source\PSoC5/CyDmac.c **** 
 882:.\Generated_Source\PSoC5/CyDmac.c **** /*******************************************************************************
 883:.\Generated_Source\PSoC5/CyDmac.c **** * Function Name: CyDmaTdGetConfiguration
 884:.\Generated_Source\PSoC5/CyDmac.c **** ********************************************************************************
 885:.\Generated_Source\PSoC5/CyDmac.c **** *
 886:.\Generated_Source\PSoC5/CyDmac.c **** * Summary:
 887:.\Generated_Source\PSoC5/CyDmac.c **** *  Retrieves the configuration of the TD. If a NULL pointer is passed as a
 888:.\Generated_Source\PSoC5/CyDmac.c **** *  parameter, that parameter is skipped. You may request only the values you are
 889:.\Generated_Source\PSoC5/CyDmac.c **** *  interested in.
 890:.\Generated_Source\PSoC5/CyDmac.c **** *
 891:.\Generated_Source\PSoC5/CyDmac.c **** * Parameters:
 892:.\Generated_Source\PSoC5/CyDmac.c **** *  uint8 tdHandle:
 893:.\Generated_Source\PSoC5/CyDmac.c **** *   A handle previously returned by CyDmaTdAlloc().
 894:.\Generated_Source\PSoC5/CyDmac.c **** *
 895:.\Generated_Source\PSoC5/CyDmac.c **** *  uint16 * transferCount:
 896:.\Generated_Source\PSoC5/CyDmac.c **** *   The address to store the size of the data transfer (in bytes) for this TD.
 897:.\Generated_Source\PSoC5/CyDmac.c **** *   A size of zero could indicate that the TD has completed its transfer, or
 898:.\Generated_Source\PSoC5/CyDmac.c **** *   that the TD is doing an indefinite transfer.
 899:.\Generated_Source\PSoC5/CyDmac.c **** *
 900:.\Generated_Source\PSoC5/CyDmac.c **** *  uint8 * nextTd:
 901:.\Generated_Source\PSoC5/CyDmac.c **** *   The address to store the index of the next TD in the TD chain.
 902:.\Generated_Source\PSoC5/CyDmac.c **** *
 903:.\Generated_Source\PSoC5/CyDmac.c **** *  uint8 * configuration:
 904:.\Generated_Source\PSoC5/CyDmac.c **** *   The address to store the Bit field of configuration bits.
 905:.\Generated_Source\PSoC5/CyDmac.c **** *   See CyDmaTdSetConfiguration() function description.
 906:.\Generated_Source\PSoC5/CyDmac.c **** *
 907:.\Generated_Source\PSoC5/CyDmac.c **** * Return:
 908:.\Generated_Source\PSoC5/CyDmac.c **** *  CYRET_SUCCESS if successful.
 909:.\Generated_Source\PSoC5/CyDmac.c **** *  CYRET_BAD_PARAM if tdHandle is invalid.
 910:.\Generated_Source\PSoC5/CyDmac.c **** *
 911:.\Generated_Source\PSoC5/CyDmac.c **** * Side Effects:
 912:.\Generated_Source\PSoC5/CyDmac.c **** *  If a TD has a transfer count of N and is executed, the transfer count becomes
 913:.\Generated_Source\PSoC5/CyDmac.c **** *  0. If it is reexecuted, the Transfer count of zero will be interpreted as a
 914:.\Generated_Source\PSoC5/CyDmac.c **** *  request for indefinite transfer. Be careful when requesting a TD with a
ARM GAS  C:\Users\karunmj\AppData\Local\Temp\ccia1kJ3.s 			page 41


 915:.\Generated_Source\PSoC5/CyDmac.c **** *  transfer count of zero.
 916:.\Generated_Source\PSoC5/CyDmac.c **** *
 917:.\Generated_Source\PSoC5/CyDmac.c **** *******************************************************************************/
 918:.\Generated_Source\PSoC5/CyDmac.c **** cystatus CyDmaTdGetConfiguration(uint8 tdHandle, uint16 * transferCount, uint8 * nextTd, uint8 * co
 919:.\Generated_Source\PSoC5/CyDmac.c ****     
 920:.\Generated_Source\PSoC5/CyDmac.c **** {
 1363              		.loc 1 920 0
 1364              		.cfi_startproc
 1365              		@ args = 0, pretend = 0, frame = 24
 1366              		@ frame_needed = 1, uses_anonymous_args = 0
 1367              		@ link register save eliminated.
 1368 0000 80B4     		push	{r7}
 1369              	.LCFI57:
 1370              		.cfi_def_cfa_offset 4
 1371 0002 87B0     		sub	sp, sp, #28
 1372              	.LCFI58:
 1373              		.cfi_def_cfa_offset 32
 1374 0004 00AF     		add	r7, sp, #0
 1375              		.cfi_offset 7, -4
 1376              	.LCFI59:
 1377              		.cfi_def_cfa_register 7
 1378 0006 B960     		str	r1, [r7, #8]
 1379 0008 7A60     		str	r2, [r7, #4]
 1380 000a 3B60     		str	r3, [r7, #0]
 1381 000c 0346     		mov	r3, r0
 1382 000e FB73     		strb	r3, [r7, #15]
 921:.\Generated_Source\PSoC5/CyDmac.c ****     cystatus status = CYRET_BAD_PARAM;
 1383              		.loc 1 921 0
 1384 0010 4FF00103 		mov	r3, #1
 1385 0014 3B61     		str	r3, [r7, #16]
 922:.\Generated_Source\PSoC5/CyDmac.c **** 
 923:.\Generated_Source\PSoC5/CyDmac.c ****     if(tdHandle < CY_DMA_NUMBEROF_TDS)
 1386              		.loc 1 923 0
 1387 0016 FB7B     		ldrb	r3, [r7, #15]	@ zero_extendqisi2
 1388 0018 5BB2     		sxtb	r3, r3
 1389 001a 002B     		cmp	r3, #0
 1390 001c 32DB     		blt	.L69
 924:.\Generated_Source\PSoC5/CyDmac.c ****     {
 925:.\Generated_Source\PSoC5/CyDmac.c ****         /* If we have a pointer */
 926:.\Generated_Source\PSoC5/CyDmac.c ****         if(NULL != transferCount)
 1391              		.loc 1 926 0
 1392 001e BB68     		ldr	r3, [r7, #8]
 1393 0020 002B     		cmp	r3, #0
 1394 0022 10D0     		beq	.L70
 1395              	.LBB5:
 927:.\Generated_Source\PSoC5/CyDmac.c ****         {
 928:.\Generated_Source\PSoC5/CyDmac.c ****             /* Get the 12 bits of the transfer count */
 929:.\Generated_Source\PSoC5/CyDmac.c ****             reg16 *convert = (reg16 *) &CY_DMA_TDMEM_STRUCT_PTR[tdHandle].TD0[0];
 1396              		.loc 1 929 0
 1397 0024 FB7B     		ldrb	r3, [r7, #15]	@ zero_extendqisi2
 1398 0026 4FEAC303 		lsl	r3, r3, #3
 1399 002a 03F18043 		add	r3, r3, #1073741824
 1400 002e 03F5F043 		add	r3, r3, #30720
 1401 0032 7B61     		str	r3, [r7, #20]
 930:.\Generated_Source\PSoC5/CyDmac.c ****             *transferCount = 0x0FFFu & CY_GET_REG16(convert);
 1402              		.loc 1 930 0
 1403 0034 7B69     		ldr	r3, [r7, #20]
ARM GAS  C:\Users\karunmj\AppData\Local\Temp\ccia1kJ3.s 			page 42


 1404 0036 1B88     		ldrh	r3, [r3, #0]	@ movhi
 1405 0038 9BB2     		uxth	r3, r3
 1406 003a 4FEA0353 		lsl	r3, r3, #20
 1407 003e 4FEA1353 		lsr	r3, r3, #20
 1408 0042 BA68     		ldr	r2, [r7, #8]
 1409 0044 1380     		strh	r3, [r2, #0]	@ movhi
 1410              	.L70:
 1411              	.LBE5:
 931:.\Generated_Source\PSoC5/CyDmac.c ****         }
 932:.\Generated_Source\PSoC5/CyDmac.c **** 
 933:.\Generated_Source\PSoC5/CyDmac.c ****         /* If we have a pointer */
 934:.\Generated_Source\PSoC5/CyDmac.c ****         if(NULL != nextTd)
 1412              		.loc 1 934 0
 1413 0046 7B68     		ldr	r3, [r7, #4]
 1414 0048 002B     		cmp	r3, #0
 1415 004a 0AD0     		beq	.L71
 935:.\Generated_Source\PSoC5/CyDmac.c ****         {
 936:.\Generated_Source\PSoC5/CyDmac.c ****             /* Get the Next TD pointer */
 937:.\Generated_Source\PSoC5/CyDmac.c ****             *nextTd = CY_DMA_TDMEM_STRUCT_PTR[tdHandle].TD0[2u];
 1416              		.loc 1 937 0
 1417 004c FB7B     		ldrb	r3, [r7, #15]	@ zero_extendqisi2
 1418 004e 4FEAC303 		lsl	r3, r3, #3
 1419 0052 03F18043 		add	r3, r3, #1073741824
 1420 0056 03F5F043 		add	r3, r3, #30720
 1421 005a 9B78     		ldrb	r3, [r3, #2]
 1422 005c DAB2     		uxtb	r2, r3
 1423 005e 7B68     		ldr	r3, [r7, #4]
 1424 0060 1A70     		strb	r2, [r3, #0]
 1425              	.L71:
 938:.\Generated_Source\PSoC5/CyDmac.c ****         }
 939:.\Generated_Source\PSoC5/CyDmac.c **** 
 940:.\Generated_Source\PSoC5/CyDmac.c ****         /* If we have a pointer */
 941:.\Generated_Source\PSoC5/CyDmac.c ****         if(NULL != configuration)
 1426              		.loc 1 941 0
 1427 0062 3B68     		ldr	r3, [r7, #0]
 1428 0064 002B     		cmp	r3, #0
 1429 0066 0AD0     		beq	.L72
 942:.\Generated_Source\PSoC5/CyDmac.c ****         {
 943:.\Generated_Source\PSoC5/CyDmac.c ****             /* Get the configuration the TD */
 944:.\Generated_Source\PSoC5/CyDmac.c ****             *configuration = CY_DMA_TDMEM_STRUCT_PTR[tdHandle].TD0[3u];
 1430              		.loc 1 944 0
 1431 0068 FB7B     		ldrb	r3, [r7, #15]	@ zero_extendqisi2
 1432 006a 4FEAC303 		lsl	r3, r3, #3
 1433 006e 03F18043 		add	r3, r3, #1073741824
 1434 0072 03F5F043 		add	r3, r3, #30720
 1435 0076 DB78     		ldrb	r3, [r3, #3]
 1436 0078 DAB2     		uxtb	r2, r3
 1437 007a 3B68     		ldr	r3, [r7, #0]
 1438 007c 1A70     		strb	r2, [r3, #0]
 1439              	.L72:
 945:.\Generated_Source\PSoC5/CyDmac.c ****         }
 946:.\Generated_Source\PSoC5/CyDmac.c **** 
 947:.\Generated_Source\PSoC5/CyDmac.c ****         status = CYRET_SUCCESS;
 1440              		.loc 1 947 0
 1441 007e 4FF00003 		mov	r3, #0
 1442 0082 3B61     		str	r3, [r7, #16]
 1443              	.L69:
ARM GAS  C:\Users\karunmj\AppData\Local\Temp\ccia1kJ3.s 			page 43


 948:.\Generated_Source\PSoC5/CyDmac.c ****     }
 949:.\Generated_Source\PSoC5/CyDmac.c **** 
 950:.\Generated_Source\PSoC5/CyDmac.c ****     return(status);
 1444              		.loc 1 950 0
 1445 0084 3B69     		ldr	r3, [r7, #16]
 951:.\Generated_Source\PSoC5/CyDmac.c **** }
 1446              		.loc 1 951 0
 1447 0086 1846     		mov	r0, r3
 1448 0088 07F11C07 		add	r7, r7, #28
 1449 008c BD46     		mov	sp, r7
 1450 008e 80BC     		pop	{r7}
 1451 0090 7047     		bx	lr
 1452              		.cfi_endproc
 1453              	.LFE20:
 1454              		.size	CyDmaTdGetConfiguration, .-CyDmaTdGetConfiguration
 1455 0092 00BF     		.section	.text.CyDmaTdSetAddress,"ax",%progbits
 1456              		.align	2
 1457              		.global	CyDmaTdSetAddress
 1458              		.thumb
 1459              		.thumb_func
 1460              		.type	CyDmaTdSetAddress, %function
 1461              	CyDmaTdSetAddress:
 1462              	.LFB21:
 952:.\Generated_Source\PSoC5/CyDmac.c **** 
 953:.\Generated_Source\PSoC5/CyDmac.c **** 
 954:.\Generated_Source\PSoC5/CyDmac.c **** /*******************************************************************************
 955:.\Generated_Source\PSoC5/CyDmac.c **** * Function Name: CyDmaTdSetAddress
 956:.\Generated_Source\PSoC5/CyDmac.c **** ********************************************************************************
 957:.\Generated_Source\PSoC5/CyDmac.c **** *
 958:.\Generated_Source\PSoC5/CyDmac.c **** * Summary:
 959:.\Generated_Source\PSoC5/CyDmac.c **** *  Sets the lower 16 bits of the source and destination addresses for this TD
 960:.\Generated_Source\PSoC5/CyDmac.c **** *  only.
 961:.\Generated_Source\PSoC5/CyDmac.c **** *
 962:.\Generated_Source\PSoC5/CyDmac.c **** * Parameters:
 963:.\Generated_Source\PSoC5/CyDmac.c **** *  uint8 tdHandle:
 964:.\Generated_Source\PSoC5/CyDmac.c **** *   A handle previously returned by CyDmaTdAlloc().
 965:.\Generated_Source\PSoC5/CyDmac.c **** *
 966:.\Generated_Source\PSoC5/CyDmac.c **** *  uint16 source:
 967:.\Generated_Source\PSoC5/CyDmac.c **** *   The lower 16 address bits of the source of the data transfer.
 968:.\Generated_Source\PSoC5/CyDmac.c **** *
 969:.\Generated_Source\PSoC5/CyDmac.c **** *  uint16 destination:
 970:.\Generated_Source\PSoC5/CyDmac.c **** *   The lower 16 address bits of the destination of the data transfer.
 971:.\Generated_Source\PSoC5/CyDmac.c **** *
 972:.\Generated_Source\PSoC5/CyDmac.c **** * Return:
 973:.\Generated_Source\PSoC5/CyDmac.c **** *  CYRET_SUCCESS if successful.
 974:.\Generated_Source\PSoC5/CyDmac.c **** *  CYRET_BAD_PARAM if tdHandle is invalid.
 975:.\Generated_Source\PSoC5/CyDmac.c **** *
 976:.\Generated_Source\PSoC5/CyDmac.c **** *******************************************************************************/
 977:.\Generated_Source\PSoC5/CyDmac.c **** cystatus CyDmaTdSetAddress(uint8 tdHandle, uint16 source, uint16 destination) 
 978:.\Generated_Source\PSoC5/CyDmac.c **** {
 1463              		.loc 1 978 0
 1464              		.cfi_startproc
 1465              		@ args = 0, pretend = 0, frame = 16
 1466              		@ frame_needed = 1, uses_anonymous_args = 0
 1467              		@ link register save eliminated.
 1468 0000 80B4     		push	{r7}
 1469              	.LCFI60:
ARM GAS  C:\Users\karunmj\AppData\Local\Temp\ccia1kJ3.s 			page 44


 1470              		.cfi_def_cfa_offset 4
 1471 0002 85B0     		sub	sp, sp, #20
 1472              	.LCFI61:
 1473              		.cfi_def_cfa_offset 24
 1474 0004 00AF     		add	r7, sp, #0
 1475              		.cfi_offset 7, -4
 1476              	.LCFI62:
 1477              		.cfi_def_cfa_register 7
 1478 0006 1346     		mov	r3, r2
 1479 0008 0246     		mov	r2, r0
 1480 000a FA71     		strb	r2, [r7, #7]
 1481 000c 0A46     		mov	r2, r1	@ movhi
 1482 000e BA80     		strh	r2, [r7, #4]	@ movhi
 1483 0010 7B80     		strh	r3, [r7, #2]	@ movhi
 979:.\Generated_Source\PSoC5/CyDmac.c ****     cystatus status = CYRET_BAD_PARAM;
 1484              		.loc 1 979 0
 1485 0012 4FF00103 		mov	r3, #1
 1486 0016 BB60     		str	r3, [r7, #8]
 980:.\Generated_Source\PSoC5/CyDmac.c **** 
 981:.\Generated_Source\PSoC5/CyDmac.c ****     if(tdHandle < CY_DMA_NUMBEROF_TDS)
 1487              		.loc 1 981 0
 1488 0018 FB79     		ldrb	r3, [r7, #7]	@ zero_extendqisi2
 1489 001a 5BB2     		sxtb	r3, r3
 1490 001c 002B     		cmp	r3, #0
 1491 001e 1CDB     		blt	.L75
 1492              	.LBB6:
 982:.\Generated_Source\PSoC5/CyDmac.c ****     {
 983:.\Generated_Source\PSoC5/CyDmac.c ****         /* Set source address */
 984:.\Generated_Source\PSoC5/CyDmac.c ****         reg16 *convert = (reg16 *) &CY_DMA_TDMEM_STRUCT_PTR[tdHandle].TD1[0];
 1493              		.loc 1 984 0
 1494 0020 FB79     		ldrb	r3, [r7, #7]	@ zero_extendqisi2
 1495 0022 4FEAC303 		lsl	r3, r3, #3
 1496 0026 03F18043 		add	r3, r3, #1073741824
 1497 002a 03F5F043 		add	r3, r3, #30720
 1498 002e 03F10403 		add	r3, r3, #4
 1499 0032 FB60     		str	r3, [r7, #12]
 985:.\Generated_Source\PSoC5/CyDmac.c ****         CY_SET_REG16(convert, source);
 1500              		.loc 1 985 0
 1501 0034 FB68     		ldr	r3, [r7, #12]
 1502 0036 BA88     		ldrh	r2, [r7, #4]	@ movhi
 1503 0038 1A80     		strh	r2, [r3, #0]	@ movhi
 986:.\Generated_Source\PSoC5/CyDmac.c **** 
 987:.\Generated_Source\PSoC5/CyDmac.c ****         /* Set destination address */
 988:.\Generated_Source\PSoC5/CyDmac.c ****         CY_SET_REG16((reg16 *) &CY_DMA_TDMEM_STRUCT_PTR[tdHandle].TD1[2], destination);
 1504              		.loc 1 988 0
 1505 003a FB79     		ldrb	r3, [r7, #7]	@ zero_extendqisi2
 1506 003c 4FEAC303 		lsl	r3, r3, #3
 1507 0040 03F18043 		add	r3, r3, #1073741824
 1508 0044 03F5F043 		add	r3, r3, #30720
 1509 0048 03F10403 		add	r3, r3, #4
 1510 004c 03F10203 		add	r3, r3, #2
 1511 0050 7A88     		ldrh	r2, [r7, #2]	@ movhi
 1512 0052 1A80     		strh	r2, [r3, #0]	@ movhi
 989:.\Generated_Source\PSoC5/CyDmac.c **** 
 990:.\Generated_Source\PSoC5/CyDmac.c ****         status = CYRET_SUCCESS;
 1513              		.loc 1 990 0
 1514 0054 4FF00003 		mov	r3, #0
ARM GAS  C:\Users\karunmj\AppData\Local\Temp\ccia1kJ3.s 			page 45


 1515 0058 BB60     		str	r3, [r7, #8]
 1516              	.L75:
 1517              	.LBE6:
 991:.\Generated_Source\PSoC5/CyDmac.c ****     }
 992:.\Generated_Source\PSoC5/CyDmac.c **** 
 993:.\Generated_Source\PSoC5/CyDmac.c ****     return(status);
 1518              		.loc 1 993 0
 1519 005a BB68     		ldr	r3, [r7, #8]
 994:.\Generated_Source\PSoC5/CyDmac.c **** }
 1520              		.loc 1 994 0
 1521 005c 1846     		mov	r0, r3
 1522 005e 07F11407 		add	r7, r7, #20
 1523 0062 BD46     		mov	sp, r7
 1524 0064 80BC     		pop	{r7}
 1525 0066 7047     		bx	lr
 1526              		.cfi_endproc
 1527              	.LFE21:
 1528              		.size	CyDmaTdSetAddress, .-CyDmaTdSetAddress
 1529              		.section	.text.CyDmaTdGetAddress,"ax",%progbits
 1530              		.align	2
 1531              		.global	CyDmaTdGetAddress
 1532              		.thumb
 1533              		.thumb_func
 1534              		.type	CyDmaTdGetAddress, %function
 1535              	CyDmaTdGetAddress:
 1536              	.LFB22:
 995:.\Generated_Source\PSoC5/CyDmac.c **** 
 996:.\Generated_Source\PSoC5/CyDmac.c **** 
 997:.\Generated_Source\PSoC5/CyDmac.c **** /*******************************************************************************
 998:.\Generated_Source\PSoC5/CyDmac.c **** * Function Name: CyDmaTdGetAddress
 999:.\Generated_Source\PSoC5/CyDmac.c **** ********************************************************************************
1000:.\Generated_Source\PSoC5/CyDmac.c **** *
1001:.\Generated_Source\PSoC5/CyDmac.c **** * Summary:
1002:.\Generated_Source\PSoC5/CyDmac.c **** *  Retrieves the lower 16 bits of the source and/or destination addresses for
1003:.\Generated_Source\PSoC5/CyDmac.c **** *  this TD only. If NULL is passed for a pointer parameter, that value is
1004:.\Generated_Source\PSoC5/CyDmac.c **** *  skipped. You may request only the values of interest.
1005:.\Generated_Source\PSoC5/CyDmac.c **** *
1006:.\Generated_Source\PSoC5/CyDmac.c **** * Parameters:
1007:.\Generated_Source\PSoC5/CyDmac.c **** *  uint8 tdHandle:
1008:.\Generated_Source\PSoC5/CyDmac.c **** *   A handle previously returned by CyDmaTdAlloc().
1009:.\Generated_Source\PSoC5/CyDmac.c **** *
1010:.\Generated_Source\PSoC5/CyDmac.c **** *  uint16 * source:
1011:.\Generated_Source\PSoC5/CyDmac.c **** *   The address to store the lower 16 address bits of the source of the data
1012:.\Generated_Source\PSoC5/CyDmac.c **** *   transfer.
1013:.\Generated_Source\PSoC5/CyDmac.c **** *
1014:.\Generated_Source\PSoC5/CyDmac.c **** *  uint16 * destination:
1015:.\Generated_Source\PSoC5/CyDmac.c **** *   The address to store the lower 16 address bits of the destination of the
1016:.\Generated_Source\PSoC5/CyDmac.c **** *   data transfer.
1017:.\Generated_Source\PSoC5/CyDmac.c **** *
1018:.\Generated_Source\PSoC5/CyDmac.c **** * Return:
1019:.\Generated_Source\PSoC5/CyDmac.c **** *  CYRET_SUCCESS if successful.
1020:.\Generated_Source\PSoC5/CyDmac.c **** *  CYRET_BAD_PARAM if tdHandle is invalid.
1021:.\Generated_Source\PSoC5/CyDmac.c **** *
1022:.\Generated_Source\PSoC5/CyDmac.c **** *******************************************************************************/
1023:.\Generated_Source\PSoC5/CyDmac.c **** cystatus CyDmaTdGetAddress(uint8 tdHandle, uint16 * source, uint16 * destination) 
1024:.\Generated_Source\PSoC5/CyDmac.c **** {
 1537              		.loc 1 1024 0
ARM GAS  C:\Users\karunmj\AppData\Local\Temp\ccia1kJ3.s 			page 46


 1538              		.cfi_startproc
 1539              		@ args = 0, pretend = 0, frame = 24
 1540              		@ frame_needed = 1, uses_anonymous_args = 0
 1541              		@ link register save eliminated.
 1542 0000 80B4     		push	{r7}
 1543              	.LCFI63:
 1544              		.cfi_def_cfa_offset 4
 1545 0002 87B0     		sub	sp, sp, #28
 1546              	.LCFI64:
 1547              		.cfi_def_cfa_offset 32
 1548 0004 00AF     		add	r7, sp, #0
 1549              		.cfi_offset 7, -4
 1550              	.LCFI65:
 1551              		.cfi_def_cfa_register 7
 1552 0006 0346     		mov	r3, r0
 1553 0008 B960     		str	r1, [r7, #8]
 1554 000a 7A60     		str	r2, [r7, #4]
 1555 000c FB73     		strb	r3, [r7, #15]
1025:.\Generated_Source\PSoC5/CyDmac.c ****     cystatus status = CYRET_BAD_PARAM;
 1556              		.loc 1 1025 0
 1557 000e 4FF00103 		mov	r3, #1
 1558 0012 3B61     		str	r3, [r7, #16]
1026:.\Generated_Source\PSoC5/CyDmac.c **** 
1027:.\Generated_Source\PSoC5/CyDmac.c ****     if(tdHandle < CY_DMA_NUMBEROF_TDS)
 1559              		.loc 1 1027 0
 1560 0014 FB7B     		ldrb	r3, [r7, #15]	@ zero_extendqisi2
 1561 0016 5BB2     		sxtb	r3, r3
 1562 0018 002B     		cmp	r3, #0
 1563 001a 26DB     		blt	.L78
1028:.\Generated_Source\PSoC5/CyDmac.c ****     {
1029:.\Generated_Source\PSoC5/CyDmac.c ****         /* If we have a pointer. */
1030:.\Generated_Source\PSoC5/CyDmac.c ****         if(NULL != source)
 1564              		.loc 1 1030 0
 1565 001c BB68     		ldr	r3, [r7, #8]
 1566 001e 002B     		cmp	r3, #0
 1567 0020 0ED0     		beq	.L79
 1568              	.LBB7:
1031:.\Generated_Source\PSoC5/CyDmac.c ****         {
1032:.\Generated_Source\PSoC5/CyDmac.c ****             /* Get source address */
1033:.\Generated_Source\PSoC5/CyDmac.c ****             reg16 *convert = (reg16 *) &CY_DMA_TDMEM_STRUCT_PTR[tdHandle].TD1[0];
 1569              		.loc 1 1033 0
 1570 0022 FB7B     		ldrb	r3, [r7, #15]	@ zero_extendqisi2
 1571 0024 4FEAC303 		lsl	r3, r3, #3
 1572 0028 03F18043 		add	r3, r3, #1073741824
 1573 002c 03F5F043 		add	r3, r3, #30720
 1574 0030 03F10403 		add	r3, r3, #4
 1575 0034 7B61     		str	r3, [r7, #20]
1034:.\Generated_Source\PSoC5/CyDmac.c ****             *source = CY_GET_REG16(convert);
 1576              		.loc 1 1034 0
 1577 0036 7B69     		ldr	r3, [r7, #20]
 1578 0038 1B88     		ldrh	r3, [r3, #0]	@ movhi
 1579 003a 9AB2     		uxth	r2, r3
 1580 003c BB68     		ldr	r3, [r7, #8]
 1581 003e 1A80     		strh	r2, [r3, #0]	@ movhi
 1582              	.L79:
 1583              	.LBE7:
1035:.\Generated_Source\PSoC5/CyDmac.c ****         }
ARM GAS  C:\Users\karunmj\AppData\Local\Temp\ccia1kJ3.s 			page 47


1036:.\Generated_Source\PSoC5/CyDmac.c **** 
1037:.\Generated_Source\PSoC5/CyDmac.c ****         /* If we have a pointer. */
1038:.\Generated_Source\PSoC5/CyDmac.c ****         if(NULL != destination)
 1584              		.loc 1 1038 0
 1585 0040 7B68     		ldr	r3, [r7, #4]
 1586 0042 002B     		cmp	r3, #0
 1587 0044 0ED0     		beq	.L80
1039:.\Generated_Source\PSoC5/CyDmac.c ****         {
1040:.\Generated_Source\PSoC5/CyDmac.c ****             /* Get Destination address. */
1041:.\Generated_Source\PSoC5/CyDmac.c ****             *destination = CY_GET_REG16((reg16 *) &CY_DMA_TDMEM_STRUCT_PTR[tdHandle].TD1[2]);
 1588              		.loc 1 1041 0
 1589 0046 FB7B     		ldrb	r3, [r7, #15]	@ zero_extendqisi2
 1590 0048 4FEAC303 		lsl	r3, r3, #3
 1591 004c 03F18043 		add	r3, r3, #1073741824
 1592 0050 03F5F043 		add	r3, r3, #30720
 1593 0054 03F10403 		add	r3, r3, #4
 1594 0058 03F10203 		add	r3, r3, #2
 1595 005c 1B88     		ldrh	r3, [r3, #0]	@ movhi
 1596 005e 9AB2     		uxth	r2, r3
 1597 0060 7B68     		ldr	r3, [r7, #4]
 1598 0062 1A80     		strh	r2, [r3, #0]	@ movhi
 1599              	.L80:
1042:.\Generated_Source\PSoC5/CyDmac.c ****         }
1043:.\Generated_Source\PSoC5/CyDmac.c **** 
1044:.\Generated_Source\PSoC5/CyDmac.c ****         status = CYRET_SUCCESS;
 1600              		.loc 1 1044 0
 1601 0064 4FF00003 		mov	r3, #0
 1602 0068 3B61     		str	r3, [r7, #16]
 1603              	.L78:
1045:.\Generated_Source\PSoC5/CyDmac.c ****     }
1046:.\Generated_Source\PSoC5/CyDmac.c **** 
1047:.\Generated_Source\PSoC5/CyDmac.c ****     return(status);
 1604              		.loc 1 1047 0
 1605 006a 3B69     		ldr	r3, [r7, #16]
1048:.\Generated_Source\PSoC5/CyDmac.c **** }
 1606              		.loc 1 1048 0
 1607 006c 1846     		mov	r0, r3
 1608 006e 07F11C07 		add	r7, r7, #28
 1609 0072 BD46     		mov	sp, r7
 1610 0074 80BC     		pop	{r7}
 1611 0076 7047     		bx	lr
 1612              		.cfi_endproc
 1613              	.LFE22:
 1614              		.size	CyDmaTdGetAddress, .-CyDmaTdGetAddress
 1615              		.section	.text.CyDmaChRoundRobin,"ax",%progbits
 1616              		.align	2
 1617              		.global	CyDmaChRoundRobin
 1618              		.thumb
 1619              		.thumb_func
 1620              		.type	CyDmaChRoundRobin, %function
 1621              	CyDmaChRoundRobin:
 1622              	.LFB23:
1049:.\Generated_Source\PSoC5/CyDmac.c **** 
1050:.\Generated_Source\PSoC5/CyDmac.c **** 
1051:.\Generated_Source\PSoC5/CyDmac.c **** /*******************************************************************************
1052:.\Generated_Source\PSoC5/CyDmac.c **** * Function Name: CyDmaChRoundRobin
1053:.\Generated_Source\PSoC5/CyDmac.c **** ********************************************************************************
ARM GAS  C:\Users\karunmj\AppData\Local\Temp\ccia1kJ3.s 			page 48


1054:.\Generated_Source\PSoC5/CyDmac.c **** *
1055:.\Generated_Source\PSoC5/CyDmac.c **** * Summary:
1056:.\Generated_Source\PSoC5/CyDmac.c **** *  Either enables or disables the Round-Robin scheduling enforcement algorithm.
1057:.\Generated_Source\PSoC5/CyDmac.c **** *  Within a priority level a Round-Robin fairness algorithm is enforced.
1058:.\Generated_Source\PSoC5/CyDmac.c **** *
1059:.\Generated_Source\PSoC5/CyDmac.c **** * Parameters:
1060:.\Generated_Source\PSoC5/CyDmac.c **** *  uint8 chHandle:
1061:.\Generated_Source\PSoC5/CyDmac.c **** *   A handle previously returned by CyDmaChAlloc() or Dma_DmaInitialize().
1062:.\Generated_Source\PSoC5/CyDmac.c **** *
1063:.\Generated_Source\PSoC5/CyDmac.c **** *  uint8 enableRR:
1064:.\Generated_Source\PSoC5/CyDmac.c **** *   0: Disable Round-Robin fairness algorithm
1065:.\Generated_Source\PSoC5/CyDmac.c **** *   1: Enable Round-Robin fairness algorithm
1066:.\Generated_Source\PSoC5/CyDmac.c **** *
1067:.\Generated_Source\PSoC5/CyDmac.c **** * Return:
1068:.\Generated_Source\PSoC5/CyDmac.c **** *  CYRET_SUCCESS if successful.
1069:.\Generated_Source\PSoC5/CyDmac.c **** *  CYRET_BAD_PARAM if chHandle is invalid.
1070:.\Generated_Source\PSoC5/CyDmac.c **** *
1071:.\Generated_Source\PSoC5/CyDmac.c **** *******************************************************************************/
1072:.\Generated_Source\PSoC5/CyDmac.c **** cystatus CyDmaChRoundRobin(uint8 chHandle, uint8 enableRR) 
1073:.\Generated_Source\PSoC5/CyDmac.c **** {
 1623              		.loc 1 1073 0
 1624              		.cfi_startproc
 1625              		@ args = 0, pretend = 0, frame = 16
 1626              		@ frame_needed = 1, uses_anonymous_args = 0
 1627              		@ link register save eliminated.
 1628 0000 80B4     		push	{r7}
 1629              	.LCFI66:
 1630              		.cfi_def_cfa_offset 4
 1631 0002 85B0     		sub	sp, sp, #20
 1632              	.LCFI67:
 1633              		.cfi_def_cfa_offset 24
 1634 0004 00AF     		add	r7, sp, #0
 1635              		.cfi_offset 7, -4
 1636              	.LCFI68:
 1637              		.cfi_def_cfa_register 7
 1638 0006 0246     		mov	r2, r0
 1639 0008 0B46     		mov	r3, r1
 1640 000a FA71     		strb	r2, [r7, #7]
 1641 000c BB71     		strb	r3, [r7, #6]
1074:.\Generated_Source\PSoC5/CyDmac.c ****     cystatus status = CYRET_BAD_PARAM;
 1642              		.loc 1 1074 0
 1643 000e 4FF00103 		mov	r3, #1
 1644 0012 FB60     		str	r3, [r7, #12]
1075:.\Generated_Source\PSoC5/CyDmac.c **** 
1076:.\Generated_Source\PSoC5/CyDmac.c ****     if(chHandle < CY_DMA_NUMBEROF_CHANNELS)
 1645              		.loc 1 1076 0
 1646 0014 FB79     		ldrb	r3, [r7, #7]	@ zero_extendqisi2
 1647 0016 172B     		cmp	r3, #23
 1648 0018 26D8     		bhi	.L83
1077:.\Generated_Source\PSoC5/CyDmac.c ****     {
1078:.\Generated_Source\PSoC5/CyDmac.c ****         CY_DMA_CH_STRUCT_PTR[chHandle].basic_cfg[0u] =
 1649              		.loc 1 1078 0
 1650 001a FB79     		ldrb	r3, [r7, #7]	@ zero_extendqisi2
 1651 001c 4FEA0312 		lsl	r2, r3, #4
 1652 0020 47F21003 		movw	r3, #:lower16:1073770512
 1653 0024 C4F20003 		movt	r3, #:upper16:1073770512
 1654 0028 1344     		add	r3, r2, r3
ARM GAS  C:\Users\karunmj\AppData\Local\Temp\ccia1kJ3.s 			page 49


1079:.\Generated_Source\PSoC5/CyDmac.c ****                 (CY_DMA_CH_STRUCT_PTR[chHandle].basic_cfg[0u] &  ((uint8)(~CY_DMA_ROUND_ROBIN_ENABL
 1655              		.loc 1 1079 0
 1656 002a FA79     		ldrb	r2, [r7, #7]	@ zero_extendqisi2
 1657 002c 4FEA0211 		lsl	r1, r2, #4
 1658 0030 47F21002 		movw	r2, #:lower16:1073770512
 1659 0034 C4F20002 		movt	r2, #:upper16:1073770512
 1660 0038 0A44     		add	r2, r1, r2
 1661 003a 1278     		ldrb	r2, [r2, #0]
 1662 003c D2B2     		uxtb	r2, r2
 1663              		.loc 1 1078 0
 1664 003e D2B2     		uxtb	r2, r2
 1665 0040 02F0EF02 		and	r2, r2, #239
 1666 0044 B979     		ldrb	r1, [r7, #6]	@ zero_extendqisi2
 1667 0046 0029     		cmp	r1, #0
 1668 0048 02D0     		beq	.L84
 1669 004a 4FF01001 		mov	r1, #16
 1670 004e 01E0     		b	.L85
 1671              	.L84:
 1672 0050 4FF0EF01 		mov	r1, #239
 1673              	.L85:
 1674 0054 1046     		mov	r0, r2
 1675 0056 0A46     		mov	r2, r1
 1676 0058 40EA0202 		orr	r2, r0, r2
 1677 005c D2B2     		uxtb	r2, r2
 1678 005e D2B2     		uxtb	r2, r2
 1679 0060 1A70     		strb	r2, [r3, #0]
1080:.\Generated_Source\PSoC5/CyDmac.c ****                 ((0u != enableRR) ? CY_DMA_ROUND_ROBIN_ENABLE : ((uint8)(~CY_DMA_ROUND_ROBIN_ENABLE
1081:.\Generated_Source\PSoC5/CyDmac.c **** 
1082:.\Generated_Source\PSoC5/CyDmac.c ****         status = CYRET_SUCCESS;
 1680              		.loc 1 1082 0
 1681 0062 4FF00003 		mov	r3, #0
 1682 0066 FB60     		str	r3, [r7, #12]
 1683              	.L83:
1083:.\Generated_Source\PSoC5/CyDmac.c ****     }
1084:.\Generated_Source\PSoC5/CyDmac.c **** 
1085:.\Generated_Source\PSoC5/CyDmac.c ****     return(status);
 1684              		.loc 1 1085 0
 1685 0068 FB68     		ldr	r3, [r7, #12]
1086:.\Generated_Source\PSoC5/CyDmac.c **** }
 1686              		.loc 1 1086 0
 1687 006a 1846     		mov	r0, r3
 1688 006c 07F11407 		add	r7, r7, #20
 1689 0070 BD46     		mov	sp, r7
 1690 0072 80BC     		pop	{r7}
 1691 0074 7047     		bx	lr
 1692              		.cfi_endproc
 1693              	.LFE23:
 1694              		.size	CyDmaChRoundRobin, .-CyDmaChRoundRobin
 1695 0076 00BF     		.text
 1696              	.Letext0: