ARM GAS  C:\Users\karunmj\AppData\Local\Temp\cceFJIz4.s 			page 1


   1              		.syntax unified
   2              		.cpu cortex-m3
   3              		.fpu softvfp
   4              		.eabi_attribute 20, 1
   5              		.eabi_attribute 21, 1
   6              		.eabi_attribute 23, 3
   7              		.eabi_attribute 24, 1
   8              		.eabi_attribute 25, 1
   9              		.eabi_attribute 26, 1
  10              		.eabi_attribute 30, 6
  11              		.eabi_attribute 18, 4
  12              		.thumb
  13              		.file	"CyLib.c"
  14              		.section	.debug_abbrev,"",%progbits
  15              	.Ldebug_abbrev0:
  16              		.section	.debug_info,"",%progbits
  17              	.Ldebug_info0:
  18              		.section	.debug_line,"",%progbits
  19              	.Ldebug_line0:
  20 0000 55060000 		.text
  20      02005E00 
  20      00000201 
  20      FB0E0D00 
  20      01010101 
  21              	.Ltext0:
  22              		.cfi_sections	.debug_frame
  23              		.comm	CyResetStatus,1,1
  24              		.global	cydelay_freq_hz
  25              		.data
  26              		.align	2
  27              		.type	cydelay_freq_hz, %object
  28              		.size	cydelay_freq_hz, 4
  29              	cydelay_freq_hz:
  30 0000 00366E01 		.word	24000000
  31              		.global	cydelay_freq_khz
  32              		.align	2
  33              		.type	cydelay_freq_khz, %object
  34              		.size	cydelay_freq_khz, 4
  35              	cydelay_freq_khz:
  36 0004 C05D0000 		.word	24000
  37              		.global	cydelay_freq_mhz
  38              		.type	cydelay_freq_mhz, %object
  39              		.size	cydelay_freq_mhz, 1
  40              	cydelay_freq_mhz:
  41 0008 18       		.byte	24
  42              		.global	cydelay_32k_ms
  43 0009 000000   		.align	2
  44              		.type	cydelay_32k_ms, %object
  45              		.size	cydelay_32k_ms, 4
  46              	cydelay_32k_ms:
  47 000c 0000E02E 		.word	786432000
  48              		.section	.text.CyPLL_OUT_Start,"ax",%progbits
  49              		.align	2
  50              		.global	CyPLL_OUT_Start
  51              		.thumb
  52              		.thumb_func
  53              		.type	CyPLL_OUT_Start, %function
ARM GAS  C:\Users\karunmj\AppData\Local\Temp\cceFJIz4.s 			page 2


  54              	CyPLL_OUT_Start:
  55              	.LFB0:
  56              		.file 1 ".\\Generated_Source\\PSoC5\\CyLib.c"
   1:.\Generated_Source\PSoC5/CyLib.c **** /*******************************************************************************
   2:.\Generated_Source\PSoC5/CyLib.c **** * File Name: CyLib.c
   3:.\Generated_Source\PSoC5/CyLib.c **** * Version 3.40
   4:.\Generated_Source\PSoC5/CyLib.c **** *
   5:.\Generated_Source\PSoC5/CyLib.c **** *  Description:
   6:.\Generated_Source\PSoC5/CyLib.c **** *   Provides system API for the clocking, interrupts and watchdog timer.
   7:.\Generated_Source\PSoC5/CyLib.c **** *
   8:.\Generated_Source\PSoC5/CyLib.c **** *  Note:
   9:.\Generated_Source\PSoC5/CyLib.c **** *   Documentation of the API's in this file is located in the
  10:.\Generated_Source\PSoC5/CyLib.c **** *   System Reference Guide provided with PSoC Creator.
  11:.\Generated_Source\PSoC5/CyLib.c **** *
  12:.\Generated_Source\PSoC5/CyLib.c **** ********************************************************************************
  13:.\Generated_Source\PSoC5/CyLib.c **** * Copyright 2008-2013, Cypress Semiconductor Corporation.  All rights reserved.
  14:.\Generated_Source\PSoC5/CyLib.c **** * You may use this file only in accordance with the license, terms, conditions,
  15:.\Generated_Source\PSoC5/CyLib.c **** * disclaimers, and limitations in the end user license agreement accompanying
  16:.\Generated_Source\PSoC5/CyLib.c **** * the software package with which this file was provided.
  17:.\Generated_Source\PSoC5/CyLib.c **** *******************************************************************************/
  18:.\Generated_Source\PSoC5/CyLib.c **** 
  19:.\Generated_Source\PSoC5/CyLib.c **** #include "CyLib.h"
  20:.\Generated_Source\PSoC5/CyLib.c **** 
  21:.\Generated_Source\PSoC5/CyLib.c **** 
  22:.\Generated_Source\PSoC5/CyLib.c **** /*******************************************************************************
  23:.\Generated_Source\PSoC5/CyLib.c **** * The CyResetStatus variable is used to obtain value of RESET_SR0 register after
  24:.\Generated_Source\PSoC5/CyLib.c **** * a device reset.
  25:.\Generated_Source\PSoC5/CyLib.c **** *******************************************************************************/
  26:.\Generated_Source\PSoC5/CyLib.c **** uint8 CYXDATA CyResetStatus;
  27:.\Generated_Source\PSoC5/CyLib.c **** 
  28:.\Generated_Source\PSoC5/CyLib.c **** 
  29:.\Generated_Source\PSoC5/CyLib.c **** #if(!CY_PSOC5A)
  30:.\Generated_Source\PSoC5/CyLib.c **** 
  31:.\Generated_Source\PSoC5/CyLib.c ****     /* Variable Vdda */
  32:.\Generated_Source\PSoC5/CyLib.c ****     #if(CYDEV_VARIABLE_VDDA == 1)
  33:.\Generated_Source\PSoC5/CyLib.c **** 
  34:.\Generated_Source\PSoC5/CyLib.c ****         uint8 CyScPumpEnabled = (uint8)(CYDEV_VDDA_MV < 2700);
  35:.\Generated_Source\PSoC5/CyLib.c **** 
  36:.\Generated_Source\PSoC5/CyLib.c ****     #endif  /* (CYDEV_VARIABLE_VDDA == 1) */
  37:.\Generated_Source\PSoC5/CyLib.c **** 
  38:.\Generated_Source\PSoC5/CyLib.c **** #endif /* (!CY_PSOC5A) */
  39:.\Generated_Source\PSoC5/CyLib.c **** 
  40:.\Generated_Source\PSoC5/CyLib.c **** 
  41:.\Generated_Source\PSoC5/CyLib.c **** /* Do not use these definitions directly in your application */
  42:.\Generated_Source\PSoC5/CyLib.c **** uint32 cydelay_freq_hz  = BCLK__BUS_CLK__HZ;
  43:.\Generated_Source\PSoC5/CyLib.c **** uint32 cydelay_freq_khz = (BCLK__BUS_CLK__HZ + 999u) / 1000u;
  44:.\Generated_Source\PSoC5/CyLib.c **** uint8  cydelay_freq_mhz = (uint8)((BCLK__BUS_CLK__HZ + 999999u) / 1000000u);
  45:.\Generated_Source\PSoC5/CyLib.c **** uint32 cydelay_32k_ms   = 32768u * ((BCLK__BUS_CLK__HZ + 999u) / 1000u);
  46:.\Generated_Source\PSoC5/CyLib.c **** 
  47:.\Generated_Source\PSoC5/CyLib.c **** 
  48:.\Generated_Source\PSoC5/CyLib.c **** /* Function Prototypes */
  49:.\Generated_Source\PSoC5/CyLib.c **** static uint8 CyUSB_PowerOnCheck(void)  ;
  50:.\Generated_Source\PSoC5/CyLib.c **** static void CyIMO_SetTrimValue(uint8 freq) ;
  51:.\Generated_Source\PSoC5/CyLib.c **** static void CyBusClk_Internal_SetDivider(uint16 divider);
  52:.\Generated_Source\PSoC5/CyLib.c **** 
  53:.\Generated_Source\PSoC5/CyLib.c **** 
  54:.\Generated_Source\PSoC5/CyLib.c **** /*******************************************************************************
ARM GAS  C:\Users\karunmj\AppData\Local\Temp\cceFJIz4.s 			page 3


  55:.\Generated_Source\PSoC5/CyLib.c **** * Function Name: CyPLL_OUT_Start
  56:.\Generated_Source\PSoC5/CyLib.c **** ********************************************************************************
  57:.\Generated_Source\PSoC5/CyLib.c **** *
  58:.\Generated_Source\PSoC5/CyLib.c **** * Summary:
  59:.\Generated_Source\PSoC5/CyLib.c **** *   Enables the PLL.  Optionally waits for it to become stable.
  60:.\Generated_Source\PSoC5/CyLib.c **** *   Waits at least 250 us or until it is detected that the PLL is stable.
  61:.\Generated_Source\PSoC5/CyLib.c **** *
  62:.\Generated_Source\PSoC5/CyLib.c **** * Parameters:
  63:.\Generated_Source\PSoC5/CyLib.c **** *   wait:
  64:.\Generated_Source\PSoC5/CyLib.c **** *    0: Return immediately after configuration
  65:.\Generated_Source\PSoC5/CyLib.c **** *    1: Wait for PLL lock or timeout.
  66:.\Generated_Source\PSoC5/CyLib.c **** *
  67:.\Generated_Source\PSoC5/CyLib.c **** * Return:
  68:.\Generated_Source\PSoC5/CyLib.c **** *   Status
  69:.\Generated_Source\PSoC5/CyLib.c **** *    CYRET_SUCCESS - Completed successfully
  70:.\Generated_Source\PSoC5/CyLib.c **** *    CYRET_TIMEOUT - Timeout occurred without detecting a stable clock.
  71:.\Generated_Source\PSoC5/CyLib.c **** *     If the input source of the clock is jittery, then the lock indication
  72:.\Generated_Source\PSoC5/CyLib.c **** *     may not occur.  However, after the timeout has expired the generated PLL
  73:.\Generated_Source\PSoC5/CyLib.c **** *     clock can still be used.
  74:.\Generated_Source\PSoC5/CyLib.c **** *
  75:.\Generated_Source\PSoC5/CyLib.c **** * Side Effects:
  76:.\Generated_Source\PSoC5/CyLib.c **** *  If wait is enabled: This function wses the Fast Time Wheel to time the wait.
  77:.\Generated_Source\PSoC5/CyLib.c **** *  Any other use of the Fast Time Wheel will be stopped during the period of
  78:.\Generated_Source\PSoC5/CyLib.c **** *  this function and then restored. This function also uses the 100 KHz ILO.
  79:.\Generated_Source\PSoC5/CyLib.c **** *  If not enabled, this function will enable the 100 KHz ILO for the period of
  80:.\Generated_Source\PSoC5/CyLib.c **** *  this function.
  81:.\Generated_Source\PSoC5/CyLib.c **** *
  82:.\Generated_Source\PSoC5/CyLib.c **** *  No changes to the setup of the ILO, Fast Time Wheel, Central Time Wheel or
  83:.\Generated_Source\PSoC5/CyLib.c **** *  Once Per Second interrupt may be made by interrupt routines during the period
  84:.\Generated_Source\PSoC5/CyLib.c **** *  of this function execution. The current operation of the ILO, Central Time
  85:.\Generated_Source\PSoC5/CyLib.c **** *  Wheel and Once Per Second interrupt are maintained during the operation of
  86:.\Generated_Source\PSoC5/CyLib.c **** *  this function provided the reading of the Power Manager Interrupt Status
  87:.\Generated_Source\PSoC5/CyLib.c **** *  Register is only done using the CyPmReadStatus() function.
  88:.\Generated_Source\PSoC5/CyLib.c **** *
  89:.\Generated_Source\PSoC5/CyLib.c **** *******************************************************************************/
  90:.\Generated_Source\PSoC5/CyLib.c **** cystatus CyPLL_OUT_Start(uint8 wait) 
  91:.\Generated_Source\PSoC5/CyLib.c **** {
  57              		.loc 1 91 0
  58              		.cfi_startproc
  59              		@ args = 0, pretend = 0, frame = 16
  60              		@ frame_needed = 1, uses_anonymous_args = 0
  61 0000 80B5     		push	{r7, lr}
  62              	.LCFI0:
  63              		.cfi_def_cfa_offset 8
  64 0002 84B0     		sub	sp, sp, #16
  65              	.LCFI1:
  66              		.cfi_def_cfa_offset 24
  67 0004 00AF     		add	r7, sp, #0
  68              		.cfi_offset 14, -4
  69              		.cfi_offset 7, -8
  70              	.LCFI2:
  71              		.cfi_def_cfa_register 7
  72 0006 0346     		mov	r3, r0
  73 0008 FB71     		strb	r3, [r7, #7]
  92:.\Generated_Source\PSoC5/CyLib.c ****     cystatus status = CYRET_SUCCESS;
  74              		.loc 1 92 0
  75 000a 4FF00003 		mov	r3, #0
ARM GAS  C:\Users\karunmj\AppData\Local\Temp\cceFJIz4.s 			page 4


  76 000e BB60     		str	r3, [r7, #8]
  93:.\Generated_Source\PSoC5/CyLib.c **** 
  94:.\Generated_Source\PSoC5/CyLib.c ****     uint8 iloEnableState;
  95:.\Generated_Source\PSoC5/CyLib.c ****     uint8 pmTwCfg0State;
  96:.\Generated_Source\PSoC5/CyLib.c ****     uint8 pmTwCfg2State;
  97:.\Generated_Source\PSoC5/CyLib.c **** 
  98:.\Generated_Source\PSoC5/CyLib.c **** 
  99:.\Generated_Source\PSoC5/CyLib.c ****     /* Enables the PLL circuit  */
 100:.\Generated_Source\PSoC5/CyLib.c ****     CY_CLK_PLL_CFG0_REG |= CY_CLK_PLL_ENABLE;
  77              		.loc 1 100 0
  78 0010 44F22023 		movw	r3, #:lower16:1073758752
  79 0014 C4F20003 		movt	r3, #:upper16:1073758752
  80 0018 44F22022 		movw	r2, #:lower16:1073758752
  81 001c C4F20002 		movt	r2, #:upper16:1073758752
  82 0020 1278     		ldrb	r2, [r2, #0]
  83 0022 D2B2     		uxtb	r2, r2
  84 0024 42F00102 		orr	r2, r2, #1
  85 0028 D2B2     		uxtb	r2, r2
  86 002a 1A70     		strb	r2, [r3, #0]
 101:.\Generated_Source\PSoC5/CyLib.c **** 
 102:.\Generated_Source\PSoC5/CyLib.c ****     if(wait != 0u)
  87              		.loc 1 102 0
  88 002c FB79     		ldrb	r3, [r7, #7]	@ zero_extendqisi2
  89 002e 002B     		cmp	r3, #0
  90 0030 4DD0     		beq	.L2
 103:.\Generated_Source\PSoC5/CyLib.c ****     {
 104:.\Generated_Source\PSoC5/CyLib.c ****         /* Save 100 KHz ILO, FTW interval, enable and interrupt enable */
 105:.\Generated_Source\PSoC5/CyLib.c ****         iloEnableState = SLOWCLK_ILO_CR0;
  91              		.loc 1 105 0
  92 0032 44F20033 		movw	r3, #:lower16:1073758976
  93 0036 C4F20003 		movt	r3, #:upper16:1073758976
  94 003a 1B78     		ldrb	r3, [r3, #0]
  95 003c 7B73     		strb	r3, [r7, #13]
 106:.\Generated_Source\PSoC5/CyLib.c ****         pmTwCfg0State = CY_PM_TW_CFG0_REG;
  96              		.loc 1 106 0
  97 003e 44F28033 		movw	r3, #:lower16:1073759104
  98 0042 C4F20003 		movt	r3, #:upper16:1073759104
  99 0046 1B78     		ldrb	r3, [r3, #0]
 100 0048 BB73     		strb	r3, [r7, #14]
 107:.\Generated_Source\PSoC5/CyLib.c ****         pmTwCfg2State = CY_PM_TW_CFG2_REG;
 101              		.loc 1 107 0
 102 004a 44F28233 		movw	r3, #:lower16:1073759106
 103 004e C4F20003 		movt	r3, #:upper16:1073759106
 104 0052 1B78     		ldrb	r3, [r3, #0]
 105 0054 FB73     		strb	r3, [r7, #15]
 108:.\Generated_Source\PSoC5/CyLib.c **** 
 109:.\Generated_Source\PSoC5/CyLib.c ****         CyPmFtwSetInterval(CY_CLK_PLL_FTW_INTERVAL);
 106              		.loc 1 109 0
 107 0056 4FF01800 		mov	r0, #24
 108 005a FFF7FEFF 		bl	CyPmFtwSetInterval
 110:.\Generated_Source\PSoC5/CyLib.c **** 
 111:.\Generated_Source\PSoC5/CyLib.c ****         status = CYRET_TIMEOUT;
 109              		.loc 1 111 0
 110 005e 4FF01003 		mov	r3, #16
 111 0062 BB60     		str	r3, [r7, #8]
 112:.\Generated_Source\PSoC5/CyLib.c **** 
 113:.\Generated_Source\PSoC5/CyLib.c **** 
ARM GAS  C:\Users\karunmj\AppData\Local\Temp\cceFJIz4.s 			page 5


 114:.\Generated_Source\PSoC5/CyLib.c ****         while(CyPmReadStatus(CY_PM_FTW_INT) != CY_PM_FTW_INT)
 112              		.loc 1 114 0
 113 0064 19E0     		b	.L3
 114              	.L5:
 115:.\Generated_Source\PSoC5/CyLib.c ****         {
 116:.\Generated_Source\PSoC5/CyLib.c ****             /* Wait for the interrupt status */
 117:.\Generated_Source\PSoC5/CyLib.c ****             if(0u != (CY_CLK_PLL_SR_REG & CY_CLK_PLL_LOCK_STATUS))
 115              		.loc 1 117 0
 116 0066 44F22523 		movw	r3, #:lower16:1073758757
 117 006a C4F20003 		movt	r3, #:upper16:1073758757
 118 006e 1B78     		ldrb	r3, [r3, #0]
 119 0070 DBB2     		uxtb	r3, r3
 120 0072 03F00103 		and	r3, r3, #1
 121 0076 DBB2     		uxtb	r3, r3
 122 0078 002B     		cmp	r3, #0
 123 007a 0ED0     		beq	.L3
 118:.\Generated_Source\PSoC5/CyLib.c ****             {
 119:.\Generated_Source\PSoC5/CyLib.c ****                 if(0u != (CY_CLK_PLL_SR_REG & CY_CLK_PLL_LOCK_STATUS))
 124              		.loc 1 119 0
 125 007c 44F22523 		movw	r3, #:lower16:1073758757
 126 0080 C4F20003 		movt	r3, #:upper16:1073758757
 127 0084 1B78     		ldrb	r3, [r3, #0]
 128 0086 DBB2     		uxtb	r3, r3
 129 0088 03F00103 		and	r3, r3, #1
 130 008c DBB2     		uxtb	r3, r3
 131 008e 002B     		cmp	r3, #0
 132 0090 03D0     		beq	.L3
 120:.\Generated_Source\PSoC5/CyLib.c ****                 {
 121:.\Generated_Source\PSoC5/CyLib.c ****                     status = CYRET_SUCCESS;
 133              		.loc 1 121 0
 134 0092 4FF00003 		mov	r3, #0
 135 0096 BB60     		str	r3, [r7, #8]
 122:.\Generated_Source\PSoC5/CyLib.c ****                     break;
 136              		.loc 1 122 0
 137 0098 06E0     		b	.L4
 138              	.L3:
 139              		.loc 1 114 0
 140 009a 4FF00100 		mov	r0, #1
 141 009e FFF7FEFF 		bl	CyPmReadStatus
 142 00a2 0346     		mov	r3, r0
 143 00a4 012B     		cmp	r3, #1
 144 00a6 DED1     		bne	.L5
 145              	.L4:
 123:.\Generated_Source\PSoC5/CyLib.c ****                 }
 124:.\Generated_Source\PSoC5/CyLib.c ****             }
 125:.\Generated_Source\PSoC5/CyLib.c ****         }
 126:.\Generated_Source\PSoC5/CyLib.c **** 
 127:.\Generated_Source\PSoC5/CyLib.c **** 
 128:.\Generated_Source\PSoC5/CyLib.c ****         /* Restore 100 KHz ILO, FTW interval, enable and interrupt enable */
 129:.\Generated_Source\PSoC5/CyLib.c ****         if(0u == (iloEnableState & ILO_CONTROL_100KHZ_ON))
 146              		.loc 1 129 0
 147 00a8 7B7B     		ldrb	r3, [r7, #13]	@ zero_extendqisi2
 148 00aa 03F00403 		and	r3, r3, #4
 149 00ae 002B     		cmp	r3, #0
 150 00b0 01D1     		bne	.L6
 130:.\Generated_Source\PSoC5/CyLib.c ****         {
 131:.\Generated_Source\PSoC5/CyLib.c ****             CyILO_Stop100K();
ARM GAS  C:\Users\karunmj\AppData\Local\Temp\cceFJIz4.s 			page 6


 151              		.loc 1 131 0
 152 00b2 FFF7FEFF 		bl	CyILO_Stop100K
 153              	.L6:
 132:.\Generated_Source\PSoC5/CyLib.c ****         }
 133:.\Generated_Source\PSoC5/CyLib.c ****         CY_PM_TW_CFG0_REG = pmTwCfg0State;
 154              		.loc 1 133 0
 155 00b6 44F28033 		movw	r3, #:lower16:1073759104
 156 00ba C4F20003 		movt	r3, #:upper16:1073759104
 157 00be BA7B     		ldrb	r2, [r7, #14]
 158 00c0 1A70     		strb	r2, [r3, #0]
 134:.\Generated_Source\PSoC5/CyLib.c ****         CY_PM_TW_CFG2_REG = pmTwCfg2State;
 159              		.loc 1 134 0
 160 00c2 44F28233 		movw	r3, #:lower16:1073759106
 161 00c6 C4F20003 		movt	r3, #:upper16:1073759106
 162 00ca FA7B     		ldrb	r2, [r7, #15]
 163 00cc 1A70     		strb	r2, [r3, #0]
 164              	.L2:
 135:.\Generated_Source\PSoC5/CyLib.c ****     }
 136:.\Generated_Source\PSoC5/CyLib.c **** 
 137:.\Generated_Source\PSoC5/CyLib.c ****     return(status);
 165              		.loc 1 137 0
 166 00ce BB68     		ldr	r3, [r7, #8]
 138:.\Generated_Source\PSoC5/CyLib.c **** }
 167              		.loc 1 138 0
 168 00d0 1846     		mov	r0, r3
 169 00d2 07F11007 		add	r7, r7, #16
 170 00d6 BD46     		mov	sp, r7
 171 00d8 80BD     		pop	{r7, pc}
 172              		.cfi_endproc
 173              	.LFE0:
 174              		.size	CyPLL_OUT_Start, .-CyPLL_OUT_Start
 175 00da 00BF     		.section	.text.CyPLL_OUT_Stop,"ax",%progbits
 176              		.align	2
 177              		.global	CyPLL_OUT_Stop
 178              		.thumb
 179              		.thumb_func
 180              		.type	CyPLL_OUT_Stop, %function
 181              	CyPLL_OUT_Stop:
 182              	.LFB1:
 139:.\Generated_Source\PSoC5/CyLib.c **** 
 140:.\Generated_Source\PSoC5/CyLib.c **** 
 141:.\Generated_Source\PSoC5/CyLib.c **** /*******************************************************************************
 142:.\Generated_Source\PSoC5/CyLib.c **** * Function Name: CyPLL_OUT_Stop
 143:.\Generated_Source\PSoC5/CyLib.c **** ********************************************************************************
 144:.\Generated_Source\PSoC5/CyLib.c **** *
 145:.\Generated_Source\PSoC5/CyLib.c **** * Summary:
 146:.\Generated_Source\PSoC5/CyLib.c **** *  Disables the PLL.
 147:.\Generated_Source\PSoC5/CyLib.c **** *
 148:.\Generated_Source\PSoC5/CyLib.c **** * Parameters:
 149:.\Generated_Source\PSoC5/CyLib.c **** *  None
 150:.\Generated_Source\PSoC5/CyLib.c **** *
 151:.\Generated_Source\PSoC5/CyLib.c **** * Return:
 152:.\Generated_Source\PSoC5/CyLib.c **** *  None
 153:.\Generated_Source\PSoC5/CyLib.c **** *
 154:.\Generated_Source\PSoC5/CyLib.c **** *******************************************************************************/
 155:.\Generated_Source\PSoC5/CyLib.c **** void CyPLL_OUT_Stop(void) 
 156:.\Generated_Source\PSoC5/CyLib.c **** {
ARM GAS  C:\Users\karunmj\AppData\Local\Temp\cceFJIz4.s 			page 7


 183              		.loc 1 156 0
 184              		.cfi_startproc
 185              		@ args = 0, pretend = 0, frame = 0
 186              		@ frame_needed = 1, uses_anonymous_args = 0
 187              		@ link register save eliminated.
 188 0000 80B4     		push	{r7}
 189              	.LCFI3:
 190              		.cfi_def_cfa_offset 4
 191 0002 00AF     		add	r7, sp, #0
 192              		.cfi_offset 7, -4
 193              	.LCFI4:
 194              		.cfi_def_cfa_register 7
 157:.\Generated_Source\PSoC5/CyLib.c ****     CY_CLK_PLL_CFG0_REG &= ((uint8)(~CY_CLK_PLL_ENABLE));
 195              		.loc 1 157 0
 196 0004 44F22023 		movw	r3, #:lower16:1073758752
 197 0008 C4F20003 		movt	r3, #:upper16:1073758752
 198 000c 44F22022 		movw	r2, #:lower16:1073758752
 199 0010 C4F20002 		movt	r2, #:upper16:1073758752
 200 0014 1278     		ldrb	r2, [r2, #0]
 201 0016 D2B2     		uxtb	r2, r2
 202 0018 02F0FE02 		and	r2, r2, #254
 203 001c 1A70     		strb	r2, [r3, #0]
 158:.\Generated_Source\PSoC5/CyLib.c **** }
 204              		.loc 1 158 0
 205 001e BD46     		mov	sp, r7
 206 0020 80BC     		pop	{r7}
 207 0022 7047     		bx	lr
 208              		.cfi_endproc
 209              	.LFE1:
 210              		.size	CyPLL_OUT_Stop, .-CyPLL_OUT_Stop
 211              		.section	.text.CyPLL_OUT_SetPQ,"ax",%progbits
 212              		.align	2
 213              		.global	CyPLL_OUT_SetPQ
 214              		.thumb
 215              		.thumb_func
 216              		.type	CyPLL_OUT_SetPQ, %function
 217              	CyPLL_OUT_SetPQ:
 218              	.LFB2:
 159:.\Generated_Source\PSoC5/CyLib.c **** 
 160:.\Generated_Source\PSoC5/CyLib.c **** 
 161:.\Generated_Source\PSoC5/CyLib.c **** /*******************************************************************************
 162:.\Generated_Source\PSoC5/CyLib.c **** * Function Name: CyPLL_OUT_SetPQ
 163:.\Generated_Source\PSoC5/CyLib.c **** ********************************************************************************
 164:.\Generated_Source\PSoC5/CyLib.c **** *
 165:.\Generated_Source\PSoC5/CyLib.c **** * Summary:
 166:.\Generated_Source\PSoC5/CyLib.c **** *  Sets the P and Q dividers and the charge pump current.
 167:.\Generated_Source\PSoC5/CyLib.c **** *  The Frequency Out will be P/Q * Frequency In.
 168:.\Generated_Source\PSoC5/CyLib.c **** *  The PLL must be disabled before calling this function.
 169:.\Generated_Source\PSoC5/CyLib.c **** *
 170:.\Generated_Source\PSoC5/CyLib.c **** * Parameters:
 171:.\Generated_Source\PSoC5/CyLib.c **** *  uint8 pDiv:
 172:.\Generated_Source\PSoC5/CyLib.c **** *   Valid range [8 - 255].
 173:.\Generated_Source\PSoC5/CyLib.c **** *
 174:.\Generated_Source\PSoC5/CyLib.c **** *  uint8 qDiv:
 175:.\Generated_Source\PSoC5/CyLib.c **** *   Valid range [1 - 16]. Input Frequency / Q must be in range of 1 to 3 MHz.
 176:.\Generated_Source\PSoC5/CyLib.c **** 
 177:.\Generated_Source\PSoC5/CyLib.c **** *  uint8 current:
ARM GAS  C:\Users\karunmj\AppData\Local\Temp\cceFJIz4.s 			page 8


 178:.\Generated_Source\PSoC5/CyLib.c **** *   Valid range [1 - 7]. Charge pump current in uA. Refer to the device TRM and
 179:.\Generated_Source\PSoC5/CyLib.c **** *   datasheet for more information.
 180:.\Generated_Source\PSoC5/CyLib.c **** *
 181:.\Generated_Source\PSoC5/CyLib.c **** * Return:
 182:.\Generated_Source\PSoC5/CyLib.c **** *  None
 183:.\Generated_Source\PSoC5/CyLib.c **** *
 184:.\Generated_Source\PSoC5/CyLib.c **** * Side Effects:
 185:.\Generated_Source\PSoC5/CyLib.c **** *  If as result of this function execution the CPU clock frequency is increased
 186:.\Generated_Source\PSoC5/CyLib.c **** *  then the number of clock cycles the cache will wait before it samples data
 187:.\Generated_Source\PSoC5/CyLib.c **** *  coming back from Flash must be adjusted by calling CyFlash_SetWaitCycles()
 188:.\Generated_Source\PSoC5/CyLib.c **** *  with appropriate parameter. It can be optionally called if CPU clock
 189:.\Generated_Source\PSoC5/CyLib.c **** *  frequency is lowered in order to improve CPU performance.
 190:.\Generated_Source\PSoC5/CyLib.c **** *  See CyFlash_SetWaitCycles() description for more information.
 191:.\Generated_Source\PSoC5/CyLib.c **** *
 192:.\Generated_Source\PSoC5/CyLib.c **** *******************************************************************************/
 193:.\Generated_Source\PSoC5/CyLib.c **** void CyPLL_OUT_SetPQ(uint8 pDiv, uint8 qDiv, uint8 current) 
 194:.\Generated_Source\PSoC5/CyLib.c **** {
 219              		.loc 1 194 0
 220              		.cfi_startproc
 221              		@ args = 0, pretend = 0, frame = 8
 222              		@ frame_needed = 1, uses_anonymous_args = 0
 223 0000 80B5     		push	{r7, lr}
 224              	.LCFI5:
 225              		.cfi_def_cfa_offset 8
 226 0002 82B0     		sub	sp, sp, #8
 227              	.LCFI6:
 228              		.cfi_def_cfa_offset 16
 229 0004 00AF     		add	r7, sp, #0
 230              		.cfi_offset 14, -4
 231              		.cfi_offset 7, -8
 232              	.LCFI7:
 233              		.cfi_def_cfa_register 7
 234 0006 1346     		mov	r3, r2
 235 0008 0246     		mov	r2, r0
 236 000a FA71     		strb	r2, [r7, #7]
 237 000c 0A46     		mov	r2, r1
 238 000e BA71     		strb	r2, [r7, #6]
 239 0010 7B71     		strb	r3, [r7, #5]
 195:.\Generated_Source\PSoC5/CyLib.c ****     /* Halt CPU in debug mode if PLL is enabled */
 196:.\Generated_Source\PSoC5/CyLib.c ****     CYASSERT(0u == (CY_CLK_PLL_CFG0_REG & CY_CLK_PLL_ENABLE));
 240              		.loc 1 196 0
 241 0012 44F22023 		movw	r3, #:lower16:1073758752
 242 0016 C4F20003 		movt	r3, #:upper16:1073758752
 243 001a 1B78     		ldrb	r3, [r3, #0]
 244 001c DBB2     		uxtb	r3, r3
 245 001e 03F00103 		and	r3, r3, #1
 246 0022 002B     		cmp	r3, #0
 247 0024 03D0     		beq	.L11
 248 0026 4FF00000 		mov	r0, #0
 249 002a FFF7FEFF 		bl	CyHalt
 250              	.L11:
 197:.\Generated_Source\PSoC5/CyLib.c **** 
 198:.\Generated_Source\PSoC5/CyLib.c ****     if((pDiv    >= CY_CLK_PLL_MIN_P_VALUE  ) &&
 251              		.loc 1 198 0
 252 002e FB79     		ldrb	r3, [r7, #7]	@ zero_extendqisi2
 253 0030 072B     		cmp	r3, #7
 254 0032 32D9     		bls	.L12
ARM GAS  C:\Users\karunmj\AppData\Local\Temp\cceFJIz4.s 			page 9


 255 0034 BB79     		ldrb	r3, [r7, #6]	@ zero_extendqisi2
 256 0036 102B     		cmp	r3, #16
 257 0038 2FD8     		bhi	.L12
 258 003a BB79     		ldrb	r3, [r7, #6]	@ zero_extendqisi2
 259 003c 002B     		cmp	r3, #0
 260 003e 2CD0     		beq	.L12
 261 0040 7B79     		ldrb	r3, [r7, #5]	@ zero_extendqisi2
 262 0042 002B     		cmp	r3, #0
 263 0044 29D0     		beq	.L12
 264 0046 7B79     		ldrb	r3, [r7, #5]	@ zero_extendqisi2
 265 0048 072B     		cmp	r3, #7
 266 004a 26D8     		bhi	.L12
 199:.\Generated_Source\PSoC5/CyLib.c ****        (qDiv    <= CY_CLK_PLL_MAX_Q_VALUE  ) && (qDiv    >= CY_CLK_PLL_MIN_Q_VALUE  ) &&
 200:.\Generated_Source\PSoC5/CyLib.c ****        (current >= CY_CLK_PLL_MIN_CUR_VALUE) && (current <= CY_CLK_PLL_MAX_CUR_VALUE))
 201:.\Generated_Source\PSoC5/CyLib.c ****     {
 202:.\Generated_Source\PSoC5/CyLib.c ****         /* Set new values */
 203:.\Generated_Source\PSoC5/CyLib.c ****         CY_CLK_PLL_P_REG = pDiv;
 267              		.loc 1 203 0
 268 004c 44F22223 		movw	r3, #:lower16:1073758754
 269 0050 C4F20003 		movt	r3, #:upper16:1073758754
 270 0054 FA79     		ldrb	r2, [r7, #7]
 271 0056 1A70     		strb	r2, [r3, #0]
 204:.\Generated_Source\PSoC5/CyLib.c ****         CY_CLK_PLL_Q_REG = ((uint8)(qDiv - 1u));
 272              		.loc 1 204 0
 273 0058 44F22323 		movw	r3, #:lower16:1073758755
 274 005c C4F20003 		movt	r3, #:upper16:1073758755
 275 0060 BA79     		ldrb	r2, [r7, #6]
 276 0062 02F1FF32 		add	r2, r2, #-1
 277 0066 D2B2     		uxtb	r2, r2
 278 0068 1A70     		strb	r2, [r3, #0]
 205:.\Generated_Source\PSoC5/CyLib.c ****         CY_CLK_PLL_CFG1_REG = (CY_CLK_PLL_CFG1_REG & CY_CLK_PLL_CURRENT_MASK) |
 279              		.loc 1 205 0
 280 006a 44F22123 		movw	r3, #:lower16:1073758753
 281 006e C4F20003 		movt	r3, #:upper16:1073758753
 282 0072 44F22122 		movw	r2, #:lower16:1073758753
 283 0076 C4F20002 		movt	r2, #:upper16:1073758753
 284 007a 1278     		ldrb	r2, [r2, #0]
 285 007c D2B2     		uxtb	r2, r2
 286 007e 02F08F02 		and	r2, r2, #143
 206:.\Generated_Source\PSoC5/CyLib.c ****                                 ((uint8)(((uint8)(current - 1u)) << CY_CLK_PLL_CURRENT_POSITION));
 287              		.loc 1 206 0
 288 0082 7979     		ldrb	r1, [r7, #5]
 289 0084 01F1FF31 		add	r1, r1, #-1
 290 0088 C9B2     		uxtb	r1, r1
 291 008a 4FEA0111 		lsl	r1, r1, #4
 292 008e C9B2     		uxtb	r1, r1
 293              		.loc 1 205 0
 294 0090 42EA0102 		orr	r2, r2, r1
 295 0094 D2B2     		uxtb	r2, r2
 296 0096 1A70     		strb	r2, [r3, #0]
 297              		.loc 1 198 0
 298 0098 03E0     		b	.L14
 299              	.L12:
 207:.\Generated_Source\PSoC5/CyLib.c ****     }
 208:.\Generated_Source\PSoC5/CyLib.c ****     else
 209:.\Generated_Source\PSoC5/CyLib.c ****     {
 210:.\Generated_Source\PSoC5/CyLib.c ****         /***********************************************************************
ARM GAS  C:\Users\karunmj\AppData\Local\Temp\cceFJIz4.s 			page 10


 211:.\Generated_Source\PSoC5/CyLib.c ****         * Halt CPU in debug mode if:
 212:.\Generated_Source\PSoC5/CyLib.c ****         * - P divider is less than required
 213:.\Generated_Source\PSoC5/CyLib.c ****         * - Q divider is out of range
 214:.\Generated_Source\PSoC5/CyLib.c ****         * - pump current is out of range
 215:.\Generated_Source\PSoC5/CyLib.c ****         ***********************************************************************/
 216:.\Generated_Source\PSoC5/CyLib.c ****         CYASSERT(0u != 0u);
 300              		.loc 1 216 0
 301 009a 4FF00000 		mov	r0, #0
 302 009e FFF7FEFF 		bl	CyHalt
 303              	.L14:
 217:.\Generated_Source\PSoC5/CyLib.c ****     }
 218:.\Generated_Source\PSoC5/CyLib.c **** 
 219:.\Generated_Source\PSoC5/CyLib.c **** }
 304              		.loc 1 219 0
 305 00a2 07F10807 		add	r7, r7, #8
 306 00a6 BD46     		mov	sp, r7
 307 00a8 80BD     		pop	{r7, pc}
 308              		.cfi_endproc
 309              	.LFE2:
 310              		.size	CyPLL_OUT_SetPQ, .-CyPLL_OUT_SetPQ
 311 00aa 00BF     		.section	.text.CyPLL_OUT_SetSource,"ax",%progbits
 312              		.align	2
 313              		.global	CyPLL_OUT_SetSource
 314              		.thumb
 315              		.thumb_func
 316              		.type	CyPLL_OUT_SetSource, %function
 317              	CyPLL_OUT_SetSource:
 318              	.LFB3:
 220:.\Generated_Source\PSoC5/CyLib.c **** 
 221:.\Generated_Source\PSoC5/CyLib.c **** 
 222:.\Generated_Source\PSoC5/CyLib.c **** /*******************************************************************************
 223:.\Generated_Source\PSoC5/CyLib.c **** * Function Name: CyPLL_OUT_SetSource
 224:.\Generated_Source\PSoC5/CyLib.c **** ********************************************************************************
 225:.\Generated_Source\PSoC5/CyLib.c **** *
 226:.\Generated_Source\PSoC5/CyLib.c **** * Summary:
 227:.\Generated_Source\PSoC5/CyLib.c **** *  Sets the input clock source to the PLL. The PLL must be disabled before
 228:.\Generated_Source\PSoC5/CyLib.c **** *  calling this function.
 229:.\Generated_Source\PSoC5/CyLib.c **** *
 230:.\Generated_Source\PSoC5/CyLib.c **** * Parameters:
 231:.\Generated_Source\PSoC5/CyLib.c **** *   source: One of the three available PLL clock sources
 232:.\Generated_Source\PSoC5/CyLib.c **** *            0 :        IMO
 233:.\Generated_Source\PSoC5/CyLib.c **** *            1 :        MHz Crystal
 234:.\Generated_Source\PSoC5/CyLib.c **** *            2 :        DSI
 235:.\Generated_Source\PSoC5/CyLib.c **** *
 236:.\Generated_Source\PSoC5/CyLib.c **** * Return:
 237:.\Generated_Source\PSoC5/CyLib.c **** *  None
 238:.\Generated_Source\PSoC5/CyLib.c **** *
 239:.\Generated_Source\PSoC5/CyLib.c **** * Side Effects:
 240:.\Generated_Source\PSoC5/CyLib.c **** *  If as result of this function execution the CPU clock frequency is increased
 241:.\Generated_Source\PSoC5/CyLib.c **** *  then the number of clock cycles the cache will wait before it samples data
 242:.\Generated_Source\PSoC5/CyLib.c **** *  coming back from Flash must be adjusted by calling CyFlash_SetWaitCycles()
 243:.\Generated_Source\PSoC5/CyLib.c **** *  with appropriate parameter. It can be optionally called if CPU clock
 244:.\Generated_Source\PSoC5/CyLib.c **** *  frequency is lowered in order to improve CPU performance.
 245:.\Generated_Source\PSoC5/CyLib.c **** *  See CyFlash_SetWaitCycles() description for more information.
 246:.\Generated_Source\PSoC5/CyLib.c **** *
 247:.\Generated_Source\PSoC5/CyLib.c **** *******************************************************************************/
 248:.\Generated_Source\PSoC5/CyLib.c **** void CyPLL_OUT_SetSource(uint8 source) 
ARM GAS  C:\Users\karunmj\AppData\Local\Temp\cceFJIz4.s 			page 11


 249:.\Generated_Source\PSoC5/CyLib.c **** {
 319              		.loc 1 249 0
 320              		.cfi_startproc
 321              		@ args = 0, pretend = 0, frame = 8
 322              		@ frame_needed = 1, uses_anonymous_args = 0
 323 0000 80B5     		push	{r7, lr}
 324              	.LCFI8:
 325              		.cfi_def_cfa_offset 8
 326 0002 82B0     		sub	sp, sp, #8
 327              	.LCFI9:
 328              		.cfi_def_cfa_offset 16
 329 0004 00AF     		add	r7, sp, #0
 330              		.cfi_offset 14, -4
 331              		.cfi_offset 7, -8
 332              	.LCFI10:
 333              		.cfi_def_cfa_register 7
 334 0006 0346     		mov	r3, r0
 335 0008 FB71     		strb	r3, [r7, #7]
 250:.\Generated_Source\PSoC5/CyLib.c ****     /* Halt CPU in debug mode if PLL is enabled */
 251:.\Generated_Source\PSoC5/CyLib.c ****     CYASSERT(0u == (CY_CLK_PLL_CFG0_REG & CY_CLK_PLL_ENABLE));
 336              		.loc 1 251 0
 337 000a 44F22023 		movw	r3, #:lower16:1073758752
 338 000e C4F20003 		movt	r3, #:upper16:1073758752
 339 0012 1B78     		ldrb	r3, [r3, #0]
 340 0014 DBB2     		uxtb	r3, r3
 341 0016 03F00103 		and	r3, r3, #1
 342 001a 002B     		cmp	r3, #0
 343 001c 03D0     		beq	.L16
 344 001e 4FF00000 		mov	r0, #0
 345 0022 FFF7FEFF 		bl	CyHalt
 346              	.L16:
 252:.\Generated_Source\PSoC5/CyLib.c **** 
 253:.\Generated_Source\PSoC5/CyLib.c ****     switch(source)
 347              		.loc 1 253 0
 348 0026 FB79     		ldrb	r3, [r7, #7]	@ zero_extendqisi2
 349 0028 03F10003 		add	r3, r3, #0
 350 002c 022B     		cmp	r3, #2
 351 002e 11D8     		bhi	.L17
 254:.\Generated_Source\PSoC5/CyLib.c ****     {
 255:.\Generated_Source\PSoC5/CyLib.c ****         case CY_PLL_SOURCE_IMO:
 256:.\Generated_Source\PSoC5/CyLib.c ****         case CY_PLL_SOURCE_XTAL:
 257:.\Generated_Source\PSoC5/CyLib.c ****         case CY_PLL_SOURCE_DSI:
 258:.\Generated_Source\PSoC5/CyLib.c ****             CY_LIB_CLKDIST_CR_REG = ((CY_LIB_CLKDIST_CR_REG & CY_LIB_CLKDIST_CR_PLL_SCR_MASK) | sou
 352              		.loc 1 258 0
 353 0030 44F20003 		movw	r3, #:lower16:1073758208
 354 0034 C4F20003 		movt	r3, #:upper16:1073758208
 355 0038 44F20002 		movw	r2, #:lower16:1073758208
 356 003c C4F20002 		movt	r2, #:upper16:1073758208
 357 0040 1278     		ldrb	r2, [r2, #0]
 358 0042 D2B2     		uxtb	r2, r2
 359 0044 02F0FC02 		and	r2, r2, #252
 360 0048 F979     		ldrb	r1, [r7, #7]
 361 004a 42EA0102 		orr	r2, r2, r1
 362 004e D2B2     		uxtb	r2, r2
 363 0050 1A70     		strb	r2, [r3, #0]
 259:.\Generated_Source\PSoC5/CyLib.c ****         break;
 364              		.loc 1 259 0
ARM GAS  C:\Users\karunmj\AppData\Local\Temp\cceFJIz4.s 			page 12


 365 0052 03E0     		b	.L20
 366              	.L17:
 260:.\Generated_Source\PSoC5/CyLib.c **** 
 261:.\Generated_Source\PSoC5/CyLib.c ****         default:
 262:.\Generated_Source\PSoC5/CyLib.c ****             CYASSERT(0u != 0u);
 367              		.loc 1 262 0
 368 0054 4FF00000 		mov	r0, #0
 369 0058 FFF7FEFF 		bl	CyHalt
 370              	.L20:
 263:.\Generated_Source\PSoC5/CyLib.c ****         break;
 264:.\Generated_Source\PSoC5/CyLib.c ****     }
 265:.\Generated_Source\PSoC5/CyLib.c **** }
 371              		.loc 1 265 0
 372 005c 07F10807 		add	r7, r7, #8
 373 0060 BD46     		mov	sp, r7
 374 0062 80BD     		pop	{r7, pc}
 375              		.cfi_endproc
 376              	.LFE3:
 377              		.size	CyPLL_OUT_SetSource, .-CyPLL_OUT_SetSource
 378              		.section	.text.CyIMO_Start,"ax",%progbits
 379              		.align	2
 380              		.global	CyIMO_Start
 381              		.thumb
 382              		.thumb_func
 383              		.type	CyIMO_Start, %function
 384              	CyIMO_Start:
 385              	.LFB4:
 266:.\Generated_Source\PSoC5/CyLib.c **** 
 267:.\Generated_Source\PSoC5/CyLib.c **** 
 268:.\Generated_Source\PSoC5/CyLib.c **** /*******************************************************************************
 269:.\Generated_Source\PSoC5/CyLib.c **** * Function Name: CyIMO_Start
 270:.\Generated_Source\PSoC5/CyLib.c **** ********************************************************************************
 271:.\Generated_Source\PSoC5/CyLib.c **** *
 272:.\Generated_Source\PSoC5/CyLib.c **** * Summary:
 273:.\Generated_Source\PSoC5/CyLib.c **** *  Enables the IMO. Optionally waits at least 6 us for it to settle.
 274:.\Generated_Source\PSoC5/CyLib.c **** *
 275:.\Generated_Source\PSoC5/CyLib.c **** * Parameters:
 276:.\Generated_Source\PSoC5/CyLib.c **** *  uint8 wait:
 277:.\Generated_Source\PSoC5/CyLib.c **** *   0: Return immediately after configuration
 278:.\Generated_Source\PSoC5/CyLib.c **** *   1: Wait for at least 6 us for the IMO to settle.
 279:.\Generated_Source\PSoC5/CyLib.c **** *
 280:.\Generated_Source\PSoC5/CyLib.c **** * Return:
 281:.\Generated_Source\PSoC5/CyLib.c **** *  None
 282:.\Generated_Source\PSoC5/CyLib.c **** *
 283:.\Generated_Source\PSoC5/CyLib.c **** * Side Effects:
 284:.\Generated_Source\PSoC5/CyLib.c **** *  If wait is enabled: This function wses the Fast Time Wheel to time the wait.
 285:.\Generated_Source\PSoC5/CyLib.c **** *  Any other use of the Fast Time Wheel will be stopped during the period of
 286:.\Generated_Source\PSoC5/CyLib.c **** *  this function and then restored. This function also uses the 100 KHz ILO.
 287:.\Generated_Source\PSoC5/CyLib.c **** *  If not enabled, this function will enable the 100 KHz ILO for the period of
 288:.\Generated_Source\PSoC5/CyLib.c **** *  this function.
 289:.\Generated_Source\PSoC5/CyLib.c **** *
 290:.\Generated_Source\PSoC5/CyLib.c **** *  No changes to the setup of the ILO, Fast Time Wheel, Central Time Wheel or
 291:.\Generated_Source\PSoC5/CyLib.c **** *  Once Per Second interrupt may be made by interrupt routines during the period
 292:.\Generated_Source\PSoC5/CyLib.c **** *  of this function execution. The current operation of the ILO, Central Time
 293:.\Generated_Source\PSoC5/CyLib.c **** *  Wheel and Once Per Second interrupt are maintained during the operation of
 294:.\Generated_Source\PSoC5/CyLib.c **** *  this function provided the reading of the Power Manager Interrupt Status
 295:.\Generated_Source\PSoC5/CyLib.c **** *  Register is only done using the CyPmReadStatus() function.
ARM GAS  C:\Users\karunmj\AppData\Local\Temp\cceFJIz4.s 			page 13


 296:.\Generated_Source\PSoC5/CyLib.c **** *
 297:.\Generated_Source\PSoC5/CyLib.c **** *******************************************************************************/
 298:.\Generated_Source\PSoC5/CyLib.c **** void CyIMO_Start(uint8 wait) 
 299:.\Generated_Source\PSoC5/CyLib.c **** {
 386              		.loc 1 299 0
 387              		.cfi_startproc
 388              		@ args = 0, pretend = 0, frame = 16
 389              		@ frame_needed = 1, uses_anonymous_args = 0
 390 0000 80B5     		push	{r7, lr}
 391              	.LCFI11:
 392              		.cfi_def_cfa_offset 8
 393 0002 84B0     		sub	sp, sp, #16
 394              	.LCFI12:
 395              		.cfi_def_cfa_offset 24
 396 0004 00AF     		add	r7, sp, #0
 397              		.cfi_offset 14, -4
 398              		.cfi_offset 7, -8
 399              	.LCFI13:
 400              		.cfi_def_cfa_register 7
 401 0006 0346     		mov	r3, r0
 402 0008 FB71     		strb	r3, [r7, #7]
 300:.\Generated_Source\PSoC5/CyLib.c ****     uint8 pmFtwCfg2Reg;
 301:.\Generated_Source\PSoC5/CyLib.c ****     uint8 pmFtwCfg0Reg;
 302:.\Generated_Source\PSoC5/CyLib.c ****     uint8 iloControlReg;
 303:.\Generated_Source\PSoC5/CyLib.c **** 
 304:.\Generated_Source\PSoC5/CyLib.c ****     /* Set the bit to enable the clock. */
 305:.\Generated_Source\PSoC5/CyLib.c ****     PM_ACT_CFG0 |= IMO_PM_ENABLE;
 403              		.loc 1 305 0
 404 000a 44F2A033 		movw	r3, #:lower16:1073759136
 405 000e C4F20003 		movt	r3, #:upper16:1073759136
 406 0012 44F2A032 		movw	r2, #:lower16:1073759136
 407 0016 C4F20002 		movt	r2, #:upper16:1073759136
 408 001a 1278     		ldrb	r2, [r2, #0]
 409 001c D2B2     		uxtb	r2, r2
 410 001e 42F01002 		orr	r2, r2, #16
 411 0022 D2B2     		uxtb	r2, r2
 412 0024 1A70     		strb	r2, [r3, #0]
 306:.\Generated_Source\PSoC5/CyLib.c **** 
 307:.\Generated_Source\PSoC5/CyLib.c ****     /* Wait for 6 us */
 308:.\Generated_Source\PSoC5/CyLib.c ****     if(0u != wait)
 413              		.loc 1 308 0
 414 0026 FB79     		ldrb	r3, [r7, #7]	@ zero_extendqisi2
 415 0028 002B     		cmp	r3, #0
 416 002a 4DD0     		beq	.L26
 309:.\Generated_Source\PSoC5/CyLib.c ****     {
 310:.\Generated_Source\PSoC5/CyLib.c ****         /* Need to turn on the 100KHz ILO if it happens to not already be running.*/
 311:.\Generated_Source\PSoC5/CyLib.c ****         iloControlReg = SLOWCLK_ILO_CR0;
 417              		.loc 1 311 0
 418 002c 44F20033 		movw	r3, #:lower16:1073758976
 419 0030 C4F20003 		movt	r3, #:upper16:1073758976
 420 0034 1B78     		ldrb	r3, [r3, #0]
 421 0036 FB73     		strb	r3, [r7, #15]
 312:.\Generated_Source\PSoC5/CyLib.c **** 
 313:.\Generated_Source\PSoC5/CyLib.c ****         if(0u == (iloControlReg & ILO_CONTROL_100KHZ_ON))
 422              		.loc 1 313 0
 423 0038 FB7B     		ldrb	r3, [r7, #15]	@ zero_extendqisi2
 424 003a 03F00403 		and	r3, r3, #4
ARM GAS  C:\Users\karunmj\AppData\Local\Temp\cceFJIz4.s 			page 14


 425 003e 002B     		cmp	r3, #0
 426 0040 01D1     		bne	.L23
 314:.\Generated_Source\PSoC5/CyLib.c ****         {
 315:.\Generated_Source\PSoC5/CyLib.c ****             CyILO_Start100K();
 427              		.loc 1 315 0
 428 0042 FFF7FEFF 		bl	CyILO_Start100K
 429              	.L23:
 316:.\Generated_Source\PSoC5/CyLib.c ****         }
 317:.\Generated_Source\PSoC5/CyLib.c **** 
 318:.\Generated_Source\PSoC5/CyLib.c ****         /* Use ILO 100 KHz */
 319:.\Generated_Source\PSoC5/CyLib.c ****         pmFtwCfg2Reg = PM_TW_CFG2;
 430              		.loc 1 319 0
 431 0046 44F28233 		movw	r3, #:lower16:1073759106
 432 004a C4F20003 		movt	r3, #:upper16:1073759106
 433 004e 1B78     		ldrb	r3, [r3, #0]
 434 0050 7B73     		strb	r3, [r7, #13]
 320:.\Generated_Source\PSoC5/CyLib.c ****         pmFtwCfg0Reg = PM_TW_CFG0;
 435              		.loc 1 320 0
 436 0052 44F28033 		movw	r3, #:lower16:1073759104
 437 0056 C4F20003 		movt	r3, #:upper16:1073759104
 438 005a 1B78     		ldrb	r3, [r3, #0]
 439 005c BB73     		strb	r3, [r7, #14]
 321:.\Generated_Source\PSoC5/CyLib.c **** 
 322:.\Generated_Source\PSoC5/CyLib.c ****         /* FTW_EN (bit 0) must be clear to change the period*/
 323:.\Generated_Source\PSoC5/CyLib.c ****         PM_TW_CFG2 &= FTW_CLEAR_FTW_BITS;
 440              		.loc 1 323 0
 441 005e 44F28233 		movw	r3, #:lower16:1073759106
 442 0062 C4F20003 		movt	r3, #:upper16:1073759106
 443 0066 44F28232 		movw	r2, #:lower16:1073759106
 444 006a C4F20002 		movt	r2, #:upper16:1073759106
 445 006e 1278     		ldrb	r2, [r2, #0]
 446 0070 D2B2     		uxtb	r2, r2
 447 0072 02F0FC02 		and	r2, r2, #252
 448 0076 1A70     		strb	r2, [r3, #0]
 324:.\Generated_Source\PSoC5/CyLib.c **** 
 325:.\Generated_Source\PSoC5/CyLib.c ****         /* Set the FTW interval of 1 100KHz ILO clocks
 326:.\Generated_Source\PSoC5/CyLib.c ****         Should result in status getting set at a (100/1)KHz rate*/
 327:.\Generated_Source\PSoC5/CyLib.c ****         PM_TW_CFG0 = 0u;
 449              		.loc 1 327 0
 450 0078 44F28033 		movw	r3, #:lower16:1073759104
 451 007c C4F20003 		movt	r3, #:upper16:1073759104
 452 0080 4FF00002 		mov	r2, #0
 453 0084 1A70     		strb	r2, [r3, #0]
 328:.\Generated_Source\PSoC5/CyLib.c **** 
 329:.\Generated_Source\PSoC5/CyLib.c ****         /* Enable FTW, but not the interrupt */
 330:.\Generated_Source\PSoC5/CyLib.c ****         PM_TW_CFG2 = FTW_ENABLE;
 454              		.loc 1 330 0
 455 0086 44F28233 		movw	r3, #:lower16:1073759106
 456 008a C4F20003 		movt	r3, #:upper16:1073759106
 457 008e 4FF00102 		mov	r2, #1
 458 0092 1A70     		strb	r2, [r3, #0]
 459              	.L24:
 331:.\Generated_Source\PSoC5/CyLib.c **** 
 332:.\Generated_Source\PSoC5/CyLib.c ****         /* Read FTW value */
 333:.\Generated_Source\PSoC5/CyLib.c ****         while (CyPmReadStatus(CY_PM_FTW_INT) == 0u)
 460              		.loc 1 333 0
 461 0094 4FF00100 		mov	r0, #1
ARM GAS  C:\Users\karunmj\AppData\Local\Temp\cceFJIz4.s 			page 15


 462 0098 FFF7FEFF 		bl	CyPmReadStatus
 463 009c 0346     		mov	r3, r0
 464 009e 002B     		cmp	r3, #0
 465 00a0 F8D0     		beq	.L24
 334:.\Generated_Source\PSoC5/CyLib.c ****         {
 335:.\Generated_Source\PSoC5/CyLib.c ****             /* Wait for the interrupt status */
 336:.\Generated_Source\PSoC5/CyLib.c ****         }
 337:.\Generated_Source\PSoC5/CyLib.c **** 
 338:.\Generated_Source\PSoC5/CyLib.c ****         /* Reset the clock */
 339:.\Generated_Source\PSoC5/CyLib.c ****         if(0u == (iloControlReg & ILO_CONTROL_100KHZ_ON))
 466              		.loc 1 339 0
 467 00a2 FB7B     		ldrb	r3, [r7, #15]	@ zero_extendqisi2
 468 00a4 03F00403 		and	r3, r3, #4
 469 00a8 002B     		cmp	r3, #0
 470 00aa 01D1     		bne	.L25
 340:.\Generated_Source\PSoC5/CyLib.c ****         {
 341:.\Generated_Source\PSoC5/CyLib.c ****             CyILO_Stop100K();
 471              		.loc 1 341 0
 472 00ac FFF7FEFF 		bl	CyILO_Stop100K
 473              	.L25:
 342:.\Generated_Source\PSoC5/CyLib.c ****         }
 343:.\Generated_Source\PSoC5/CyLib.c **** 
 344:.\Generated_Source\PSoC5/CyLib.c ****         /* Restore the FTW */
 345:.\Generated_Source\PSoC5/CyLib.c ****         PM_TW_CFG0 = pmFtwCfg0Reg;
 474              		.loc 1 345 0
 475 00b0 44F28033 		movw	r3, #:lower16:1073759104
 476 00b4 C4F20003 		movt	r3, #:upper16:1073759104
 477 00b8 BA7B     		ldrb	r2, [r7, #14]
 478 00ba 1A70     		strb	r2, [r3, #0]
 346:.\Generated_Source\PSoC5/CyLib.c ****         PM_TW_CFG2 = pmFtwCfg2Reg;
 479              		.loc 1 346 0
 480 00bc 44F28233 		movw	r3, #:lower16:1073759106
 481 00c0 C4F20003 		movt	r3, #:upper16:1073759106
 482 00c4 7A7B     		ldrb	r2, [r7, #13]
 483 00c6 1A70     		strb	r2, [r3, #0]
 484              	.L26:
 347:.\Generated_Source\PSoC5/CyLib.c ****     }
 348:.\Generated_Source\PSoC5/CyLib.c **** }
 485              		.loc 1 348 0
 486 00c8 07F11007 		add	r7, r7, #16
 487 00cc BD46     		mov	sp, r7
 488 00ce 80BD     		pop	{r7, pc}
 489              		.cfi_endproc
 490              	.LFE4:
 491              		.size	CyIMO_Start, .-CyIMO_Start
 492              		.section	.text.CyIMO_Stop,"ax",%progbits
 493              		.align	2
 494              		.global	CyIMO_Stop
 495              		.thumb
 496              		.thumb_func
 497              		.type	CyIMO_Stop, %function
 498              	CyIMO_Stop:
 499              	.LFB5:
 349:.\Generated_Source\PSoC5/CyLib.c **** 
 350:.\Generated_Source\PSoC5/CyLib.c **** 
 351:.\Generated_Source\PSoC5/CyLib.c **** /*******************************************************************************
 352:.\Generated_Source\PSoC5/CyLib.c **** * Function Name: CyIMO_Stop
ARM GAS  C:\Users\karunmj\AppData\Local\Temp\cceFJIz4.s 			page 16


 353:.\Generated_Source\PSoC5/CyLib.c **** ********************************************************************************
 354:.\Generated_Source\PSoC5/CyLib.c **** *
 355:.\Generated_Source\PSoC5/CyLib.c **** * Summary:
 356:.\Generated_Source\PSoC5/CyLib.c **** *   Disables the IMO.
 357:.\Generated_Source\PSoC5/CyLib.c **** *
 358:.\Generated_Source\PSoC5/CyLib.c **** * Parameters:
 359:.\Generated_Source\PSoC5/CyLib.c **** *  None
 360:.\Generated_Source\PSoC5/CyLib.c **** *
 361:.\Generated_Source\PSoC5/CyLib.c **** * Return:
 362:.\Generated_Source\PSoC5/CyLib.c **** *  None
 363:.\Generated_Source\PSoC5/CyLib.c **** *
 364:.\Generated_Source\PSoC5/CyLib.c **** *******************************************************************************/
 365:.\Generated_Source\PSoC5/CyLib.c **** void CyIMO_Stop(void) 
 366:.\Generated_Source\PSoC5/CyLib.c **** {
 500              		.loc 1 366 0
 501              		.cfi_startproc
 502              		@ args = 0, pretend = 0, frame = 0
 503              		@ frame_needed = 1, uses_anonymous_args = 0
 504              		@ link register save eliminated.
 505 0000 80B4     		push	{r7}
 506              	.LCFI14:
 507              		.cfi_def_cfa_offset 4
 508 0002 00AF     		add	r7, sp, #0
 509              		.cfi_offset 7, -4
 510              	.LCFI15:
 511              		.cfi_def_cfa_register 7
 367:.\Generated_Source\PSoC5/CyLib.c ****     /* Clear the bit to disable the clock. */
 368:.\Generated_Source\PSoC5/CyLib.c ****     PM_ACT_CFG0 &= ((uint8)(~IMO_PM_ENABLE));
 512              		.loc 1 368 0
 513 0004 44F2A033 		movw	r3, #:lower16:1073759136
 514 0008 C4F20003 		movt	r3, #:upper16:1073759136
 515 000c 44F2A032 		movw	r2, #:lower16:1073759136
 516 0010 C4F20002 		movt	r2, #:upper16:1073759136
 517 0014 1278     		ldrb	r2, [r2, #0]
 518 0016 D2B2     		uxtb	r2, r2
 519 0018 02F0EF02 		and	r2, r2, #239
 520 001c 1A70     		strb	r2, [r3, #0]
 369:.\Generated_Source\PSoC5/CyLib.c **** }
 521              		.loc 1 369 0
 522 001e BD46     		mov	sp, r7
 523 0020 80BC     		pop	{r7}
 524 0022 7047     		bx	lr
 525              		.cfi_endproc
 526              	.LFE5:
 527              		.size	CyIMO_Stop, .-CyIMO_Stop
 528              		.section	.text.CyUSB_PowerOnCheck,"ax",%progbits
 529              		.align	2
 530              		.thumb
 531              		.thumb_func
 532              		.type	CyUSB_PowerOnCheck, %function
 533              	CyUSB_PowerOnCheck:
 534              	.LFB6:
 370:.\Generated_Source\PSoC5/CyLib.c **** 
 371:.\Generated_Source\PSoC5/CyLib.c **** 
 372:.\Generated_Source\PSoC5/CyLib.c **** /*******************************************************************************
 373:.\Generated_Source\PSoC5/CyLib.c **** * Function Name: CyUSB_PowerOnCheck
 374:.\Generated_Source\PSoC5/CyLib.c **** ********************************************************************************
ARM GAS  C:\Users\karunmj\AppData\Local\Temp\cceFJIz4.s 			page 17


 375:.\Generated_Source\PSoC5/CyLib.c **** *
 376:.\Generated_Source\PSoC5/CyLib.c **** * Summary:
 377:.\Generated_Source\PSoC5/CyLib.c **** *  Returns the USB power status value. A private function to cy_boot.
 378:.\Generated_Source\PSoC5/CyLib.c **** *
 379:.\Generated_Source\PSoC5/CyLib.c **** * Parameters:
 380:.\Generated_Source\PSoC5/CyLib.c **** *   None
 381:.\Generated_Source\PSoC5/CyLib.c **** *
 382:.\Generated_Source\PSoC5/CyLib.c **** * Return:
 383:.\Generated_Source\PSoC5/CyLib.c **** *   uint8: one if the USB is enabled, 0 if not enabled.
 384:.\Generated_Source\PSoC5/CyLib.c **** *
 385:.\Generated_Source\PSoC5/CyLib.c **** *******************************************************************************/
 386:.\Generated_Source\PSoC5/CyLib.c **** static uint8 CyUSB_PowerOnCheck(void)  
 387:.\Generated_Source\PSoC5/CyLib.c **** {
 535              		.loc 1 387 0
 536              		.cfi_startproc
 537              		@ args = 0, pretend = 0, frame = 8
 538              		@ frame_needed = 1, uses_anonymous_args = 0
 539              		@ link register save eliminated.
 540 0000 80B4     		push	{r7}
 541              	.LCFI16:
 542              		.cfi_def_cfa_offset 4
 543 0002 83B0     		sub	sp, sp, #12
 544              	.LCFI17:
 545              		.cfi_def_cfa_offset 16
 546 0004 00AF     		add	r7, sp, #0
 547              		.cfi_offset 7, -4
 548              	.LCFI18:
 549              		.cfi_def_cfa_register 7
 388:.\Generated_Source\PSoC5/CyLib.c ****     uint8 poweredOn = 0u;
 550              		.loc 1 388 0
 551 0006 4FF00003 		mov	r3, #0
 552 000a FB71     		strb	r3, [r7, #7]
 389:.\Generated_Source\PSoC5/CyLib.c **** 
 390:.\Generated_Source\PSoC5/CyLib.c ****     /* Check whether device is in Active or AltActiv and if USB is powered on */
 391:.\Generated_Source\PSoC5/CyLib.c ****     if((((CY_PM_MODE_CSR_REG & CY_PM_MODE_CSR_MASK) == CY_PM_MODE_CSR_ACTIVE ) &&
 553              		.loc 1 391 0
 554 000c 44F29333 		movw	r3, #:lower16:1073759123
 555 0010 C4F20003 		movt	r3, #:upper16:1073759123
 556 0014 1B78     		ldrb	r3, [r3, #0]
 557 0016 DBB2     		uxtb	r3, r3
 558 0018 03F00703 		and	r3, r3, #7
 559 001c 002B     		cmp	r3, #0
 560 001e 0AD1     		bne	.L30
 392:.\Generated_Source\PSoC5/CyLib.c ****        (0u != (CY_PM_ACT_CFG5_REG & CY_ACT_USB_ENABLED     )))  ||
 561              		.loc 1 392 0
 562 0020 44F2A533 		movw	r3, #:lower16:1073759141
 563 0024 C4F20003 		movt	r3, #:upper16:1073759141
 564 0028 1B78     		ldrb	r3, [r3, #0]
 565 002a DBB2     		uxtb	r3, r3
 566 002c 03F00103 		and	r3, r3, #1
 567              		.loc 1 391 0
 568 0030 DBB2     		uxtb	r3, r3
 569 0032 002B     		cmp	r3, #0
 570 0034 14D1     		bne	.L31
 571              	.L30:
 393:.\Generated_Source\PSoC5/CyLib.c ****        (((CY_PM_MODE_CSR_REG & CY_PM_MODE_CSR_MASK) == CY_PM_MODE_CSR_ALT_ACT) &&
 572              		.loc 1 393 0
ARM GAS  C:\Users\karunmj\AppData\Local\Temp\cceFJIz4.s 			page 18


 573 0036 44F29333 		movw	r3, #:lower16:1073759123
 574 003a C4F20003 		movt	r3, #:upper16:1073759123
 575 003e 1B78     		ldrb	r3, [r3, #0]
 576 0040 DBB2     		uxtb	r3, r3
 577 0042 03F00703 		and	r3, r3, #7
 578              		.loc 1 391 0
 579 0046 012B     		cmp	r3, #1
 580 0048 0DD1     		bne	.L32
 394:.\Generated_Source\PSoC5/CyLib.c ****        (0u != (CY_PM_STBY_CFG5_REG & CY_ALT_ACT_USB_ENABLED))))
 581              		.loc 1 394 0
 582 004a 44F2B533 		movw	r3, #:lower16:1073759157
 583 004e C4F20003 		movt	r3, #:upper16:1073759157
 584 0052 1B78     		ldrb	r3, [r3, #0]
 585 0054 DBB2     		uxtb	r3, r3
 586 0056 03F00103 		and	r3, r3, #1
 587              		.loc 1 391 0
 588 005a DBB2     		uxtb	r3, r3
 589 005c 002B     		cmp	r3, #0
 590 005e 02D0     		beq	.L32
 591              	.L31:
 395:.\Generated_Source\PSoC5/CyLib.c ****     {
 396:.\Generated_Source\PSoC5/CyLib.c ****         poweredOn = 1u;
 592              		.loc 1 396 0
 593 0060 4FF00103 		mov	r3, #1
 594 0064 FB71     		strb	r3, [r7, #7]
 595              	.L32:
 397:.\Generated_Source\PSoC5/CyLib.c ****     }
 398:.\Generated_Source\PSoC5/CyLib.c **** 
 399:.\Generated_Source\PSoC5/CyLib.c ****     return (poweredOn);
 596              		.loc 1 399 0
 597 0066 FB79     		ldrb	r3, [r7, #7]	@ zero_extendqisi2
 400:.\Generated_Source\PSoC5/CyLib.c **** }
 598              		.loc 1 400 0
 599 0068 1846     		mov	r0, r3
 600 006a 07F10C07 		add	r7, r7, #12
 601 006e BD46     		mov	sp, r7
 602 0070 80BC     		pop	{r7}
 603 0072 7047     		bx	lr
 604              		.cfi_endproc
 605              	.LFE6:
 606              		.size	CyUSB_PowerOnCheck, .-CyUSB_PowerOnCheck
 607              		.section	.text.CyIMO_SetTrimValue,"ax",%progbits
 608              		.align	2
 609              		.thumb
 610              		.thumb_func
 611              		.type	CyIMO_SetTrimValue, %function
 612              	CyIMO_SetTrimValue:
 613              	.LFB7:
 401:.\Generated_Source\PSoC5/CyLib.c **** 
 402:.\Generated_Source\PSoC5/CyLib.c **** 
 403:.\Generated_Source\PSoC5/CyLib.c **** /*******************************************************************************
 404:.\Generated_Source\PSoC5/CyLib.c **** * Function Name: CyIMO_SetTrimValue
 405:.\Generated_Source\PSoC5/CyLib.c **** ********************************************************************************
 406:.\Generated_Source\PSoC5/CyLib.c **** *
 407:.\Generated_Source\PSoC5/CyLib.c **** * Summary:
 408:.\Generated_Source\PSoC5/CyLib.c **** *  Sets the IMO factory trim values.
 409:.\Generated_Source\PSoC5/CyLib.c **** *
ARM GAS  C:\Users\karunmj\AppData\Local\Temp\cceFJIz4.s 			page 19


 410:.\Generated_Source\PSoC5/CyLib.c **** * Parameters:
 411:.\Generated_Source\PSoC5/CyLib.c **** *  uint8 freq - frequency for which trims must be set
 412:.\Generated_Source\PSoC5/CyLib.c **** *
 413:.\Generated_Source\PSoC5/CyLib.c **** * Return:
 414:.\Generated_Source\PSoC5/CyLib.c **** *  None
 415:.\Generated_Source\PSoC5/CyLib.c **** *
 416:.\Generated_Source\PSoC5/CyLib.c **** *******************************************************************************/
 417:.\Generated_Source\PSoC5/CyLib.c **** static void CyIMO_SetTrimValue(uint8 freq) 
 418:.\Generated_Source\PSoC5/CyLib.c **** {
 614              		.loc 1 418 0
 615              		.cfi_startproc
 616              		@ args = 0, pretend = 0, frame = 16
 617              		@ frame_needed = 1, uses_anonymous_args = 0
 618 0000 80B5     		push	{r7, lr}
 619              	.LCFI19:
 620              		.cfi_def_cfa_offset 8
 621 0002 84B0     		sub	sp, sp, #16
 622              	.LCFI20:
 623              		.cfi_def_cfa_offset 24
 624 0004 00AF     		add	r7, sp, #0
 625              		.cfi_offset 14, -4
 626              		.cfi_offset 7, -8
 627              	.LCFI21:
 628              		.cfi_def_cfa_register 7
 629 0006 0346     		mov	r3, r0
 630 0008 FB71     		strb	r3, [r7, #7]
 419:.\Generated_Source\PSoC5/CyLib.c ****     uint8 usb_power_on = CyUSB_PowerOnCheck();
 631              		.loc 1 419 0
 632 000a FFF7FEFF 		bl	CyUSB_PowerOnCheck
 633 000e 0346     		mov	r3, r0
 634 0010 FB73     		strb	r3, [r7, #15]
 420:.\Generated_Source\PSoC5/CyLib.c **** 
 421:.\Generated_Source\PSoC5/CyLib.c ****     /* If USB is powered */
 422:.\Generated_Source\PSoC5/CyLib.c ****     if(usb_power_on == 1u)
 635              		.loc 1 422 0
 636 0012 FB7B     		ldrb	r3, [r7, #15]	@ zero_extendqisi2
 637 0014 012B     		cmp	r3, #1
 638 0016 0CD1     		bne	.L35
 423:.\Generated_Source\PSoC5/CyLib.c ****     {
 424:.\Generated_Source\PSoC5/CyLib.c ****         /* Unlock USB write */
 425:.\Generated_Source\PSoC5/CyLib.c ****         CY_USB_CR1 &= ((uint8)(~CLOCK_USB_ENABLE));
 639              		.loc 1 425 0
 640 0018 46F20903 		movw	r3, #:lower16:1073766409
 641 001c C4F20003 		movt	r3, #:upper16:1073766409
 642 0020 46F20902 		movw	r2, #:lower16:1073766409
 643 0024 C4F20002 		movt	r2, #:upper16:1073766409
 644 0028 1278     		ldrb	r2, [r2, #0]
 645 002a D2B2     		uxtb	r2, r2
 646 002c 02F0FD02 		and	r2, r2, #253
 647 0030 1A70     		strb	r2, [r3, #0]
 648              	.L35:
 426:.\Generated_Source\PSoC5/CyLib.c ****     }
 427:.\Generated_Source\PSoC5/CyLib.c ****     switch(freq)
 649              		.loc 1 427 0
 650 0032 FB79     		ldrb	r3, [r7, #7]	@ zero_extendqisi2
 651 0034 082B     		cmp	r3, #8
 652 0036 7AD8     		bhi	.L36
ARM GAS  C:\Users\karunmj\AppData\Local\Temp\cceFJIz4.s 			page 20


 653 0038 01A2     		adr	r2, .L44
 654 003a 52F823F0 		ldr	pc, [r2, r3, lsl #2]
 655 003e 00BF     		.align	2
 656              	.L44:
 657 0040 65000000 		.word	.L37+1
 658 0044 7D000000 		.word	.L38+1
 659 0048 95000000 		.word	.L39+1
 660 004c AD000000 		.word	.L40+1
 661 0050 C5000000 		.word	.L41+1
 662 0054 DD000000 		.word	.L42+1
 663 0058 2F010000 		.word	.L36+1
 664 005c 2F010000 		.word	.L36+1
 665 0060 F5000000 		.word	.L43+1
 666              	.L37:
 428:.\Generated_Source\PSoC5/CyLib.c ****     {
 429:.\Generated_Source\PSoC5/CyLib.c ****     case CY_IMO_FREQ_3MHZ:
 430:.\Generated_Source\PSoC5/CyLib.c ****         IMO_TR1 = CY_GET_XTND_REG8(FLSHID_CUST_TABLES_IMO_3MHZ_PTR);
 667              		.loc 1 430 0
 668 0064 44F2A163 		movw	r3, #:lower16:1073759905
 669 0068 C4F20003 		movt	r3, #:upper16:1073759905
 670 006c 40F20812 		movw	r2, #:lower16:1224737032
 671 0070 C4F60012 		movt	r2, #:upper16:1224737032
 672 0074 1278     		ldrb	r2, [r2, #0]
 673 0076 D2B2     		uxtb	r2, r2
 674 0078 1A70     		strb	r2, [r3, #0]
 431:.\Generated_Source\PSoC5/CyLib.c ****         break;
 675              		.loc 1 431 0
 676 007a 5EE0     		b	.L47
 677              	.L38:
 432:.\Generated_Source\PSoC5/CyLib.c **** 
 433:.\Generated_Source\PSoC5/CyLib.c ****     case CY_IMO_FREQ_6MHZ:
 434:.\Generated_Source\PSoC5/CyLib.c ****         IMO_TR1 = CY_GET_XTND_REG8(FLSHID_CUST_TABLES_IMO_6MHZ_PTR);
 678              		.loc 1 434 0
 679 007c 44F2A163 		movw	r3, #:lower16:1073759905
 680 0080 C4F20003 		movt	r3, #:upper16:1073759905
 681 0084 40F20912 		movw	r2, #:lower16:1224737033
 682 0088 C4F60012 		movt	r2, #:upper16:1224737033
 683 008c 1278     		ldrb	r2, [r2, #0]
 684 008e D2B2     		uxtb	r2, r2
 685 0090 1A70     		strb	r2, [r3, #0]
 435:.\Generated_Source\PSoC5/CyLib.c ****         break;
 686              		.loc 1 435 0
 687 0092 52E0     		b	.L47
 688              	.L39:
 436:.\Generated_Source\PSoC5/CyLib.c **** 
 437:.\Generated_Source\PSoC5/CyLib.c ****     case CY_IMO_FREQ_12MHZ:
 438:.\Generated_Source\PSoC5/CyLib.c ****         IMO_TR1 = CY_GET_XTND_REG8(FLSHID_CUST_TABLES_IMO_12MHZ_PTR);
 689              		.loc 1 438 0
 690 0094 44F2A163 		movw	r3, #:lower16:1073759905
 691 0098 C4F20003 		movt	r3, #:upper16:1073759905
 692 009c 40F20A12 		movw	r2, #:lower16:1224737034
 693 00a0 C4F60012 		movt	r2, #:upper16:1224737034
 694 00a4 1278     		ldrb	r2, [r2, #0]
 695 00a6 D2B2     		uxtb	r2, r2
 696 00a8 1A70     		strb	r2, [r3, #0]
 439:.\Generated_Source\PSoC5/CyLib.c ****         break;
 697              		.loc 1 439 0
ARM GAS  C:\Users\karunmj\AppData\Local\Temp\cceFJIz4.s 			page 21


 698 00aa 46E0     		b	.L47
 699              	.L40:
 440:.\Generated_Source\PSoC5/CyLib.c **** 
 441:.\Generated_Source\PSoC5/CyLib.c ****     case CY_IMO_FREQ_24MHZ:
 442:.\Generated_Source\PSoC5/CyLib.c ****         IMO_TR1 = CY_GET_XTND_REG8(FLSHID_CUST_TABLES_IMO_24MHZ_PTR);
 700              		.loc 1 442 0
 701 00ac 44F2A163 		movw	r3, #:lower16:1073759905
 702 00b0 C4F20003 		movt	r3, #:upper16:1073759905
 703 00b4 40F20B12 		movw	r2, #:lower16:1224737035
 704 00b8 C4F60012 		movt	r2, #:upper16:1224737035
 705 00bc 1278     		ldrb	r2, [r2, #0]
 706 00be D2B2     		uxtb	r2, r2
 707 00c0 1A70     		strb	r2, [r3, #0]
 443:.\Generated_Source\PSoC5/CyLib.c ****         break;
 708              		.loc 1 443 0
 709 00c2 3AE0     		b	.L47
 710              	.L41:
 444:.\Generated_Source\PSoC5/CyLib.c **** 
 445:.\Generated_Source\PSoC5/CyLib.c ****     case CY_IMO_FREQ_48MHZ:
 446:.\Generated_Source\PSoC5/CyLib.c ****         IMO_TR1 = CY_GET_XTND_REG8(FLSHID_MFG_CFG_IMO_TR1_PTR);
 711              		.loc 1 446 0
 712 00c4 44F2A163 		movw	r3, #:lower16:1073759905
 713 00c8 C4F20003 		movt	r3, #:upper16:1073759905
 714 00cc 40F28912 		movw	r2, #:lower16:1224737161
 715 00d0 C4F60012 		movt	r2, #:upper16:1224737161
 716 00d4 1278     		ldrb	r2, [r2, #0]
 717 00d6 D2B2     		uxtb	r2, r2
 718 00d8 1A70     		strb	r2, [r3, #0]
 447:.\Generated_Source\PSoC5/CyLib.c ****         break;
 719              		.loc 1 447 0
 720 00da 2EE0     		b	.L47
 721              	.L42:
 448:.\Generated_Source\PSoC5/CyLib.c **** 
 449:.\Generated_Source\PSoC5/CyLib.c ****     /* The IMO frequencies above 48 MHz are not supported by PSoC5 */
 450:.\Generated_Source\PSoC5/CyLib.c ****     #if(!CY_PSOC5A)
 451:.\Generated_Source\PSoC5/CyLib.c **** 
 452:.\Generated_Source\PSoC5/CyLib.c ****         case CY_IMO_FREQ_62MHZ:
 453:.\Generated_Source\PSoC5/CyLib.c ****             IMO_TR1 = CY_GET_XTND_REG8(FLSHID_CUST_TABLES_IMO_67MHZ_PTR);
 722              		.loc 1 453 0
 723 00dc 44F2A163 		movw	r3, #:lower16:1073759905
 724 00e0 C4F20003 		movt	r3, #:upper16:1073759905
 725 00e4 40F20C12 		movw	r2, #:lower16:1224737036
 726 00e8 C4F60012 		movt	r2, #:upper16:1224737036
 727 00ec 1278     		ldrb	r2, [r2, #0]
 728 00ee D2B2     		uxtb	r2, r2
 729 00f0 1A70     		strb	r2, [r3, #0]
 454:.\Generated_Source\PSoC5/CyLib.c ****             break;
 730              		.loc 1 454 0
 731 00f2 22E0     		b	.L47
 732              	.L43:
 455:.\Generated_Source\PSoC5/CyLib.c **** 
 456:.\Generated_Source\PSoC5/CyLib.c ****     #endif  /* (!CY_PSOC5A) */
 457:.\Generated_Source\PSoC5/CyLib.c **** 
 458:.\Generated_Source\PSoC5/CyLib.c ****     case CY_IMO_FREQ_USB:
 459:.\Generated_Source\PSoC5/CyLib.c ****         IMO_TR1 = CY_GET_XTND_REG8(FLSHID_CUST_TABLES_IMO_USB_PTR);
 733              		.loc 1 459 0
 734 00f4 44F2A163 		movw	r3, #:lower16:1073759905
ARM GAS  C:\Users\karunmj\AppData\Local\Temp\cceFJIz4.s 			page 22


 735 00f8 C4F20003 		movt	r3, #:upper16:1073759905
 736 00fc 40F20F12 		movw	r2, #:lower16:1224737039
 737 0100 C4F60012 		movt	r2, #:upper16:1224737039
 738 0104 1278     		ldrb	r2, [r2, #0]
 739 0106 D2B2     		uxtb	r2, r2
 740 0108 1A70     		strb	r2, [r3, #0]
 460:.\Generated_Source\PSoC5/CyLib.c **** 
 461:.\Generated_Source\PSoC5/CyLib.c ****         /* If USB is powered */
 462:.\Generated_Source\PSoC5/CyLib.c ****         if(usb_power_on == 1u)
 741              		.loc 1 462 0
 742 010a FB7B     		ldrb	r3, [r7, #15]	@ zero_extendqisi2
 743 010c 012B     		cmp	r3, #1
 744 010e 13D1     		bne	.L48
 463:.\Generated_Source\PSoC5/CyLib.c ****         {
 464:.\Generated_Source\PSoC5/CyLib.c ****             /* Lock the USB Oscillator */
 465:.\Generated_Source\PSoC5/CyLib.c ****             CY_USB_CR1 |= CLOCK_USB_ENABLE;
 745              		.loc 1 465 0
 746 0110 46F20903 		movw	r3, #:lower16:1073766409
 747 0114 C4F20003 		movt	r3, #:upper16:1073766409
 748 0118 46F20902 		movw	r2, #:lower16:1073766409
 749 011c C4F20002 		movt	r2, #:upper16:1073766409
 750 0120 1278     		ldrb	r2, [r2, #0]
 751 0122 D2B2     		uxtb	r2, r2
 752 0124 42F00202 		orr	r2, r2, #2
 753 0128 D2B2     		uxtb	r2, r2
 754 012a 1A70     		strb	r2, [r3, #0]
 466:.\Generated_Source\PSoC5/CyLib.c ****         }
 467:.\Generated_Source\PSoC5/CyLib.c ****         break;
 755              		.loc 1 467 0
 756 012c 05E0     		b	.L47
 757              	.L36:
 468:.\Generated_Source\PSoC5/CyLib.c **** 
 469:.\Generated_Source\PSoC5/CyLib.c ****     default:
 470:.\Generated_Source\PSoC5/CyLib.c ****             CYASSERT(0u != 0u);
 758              		.loc 1 470 0
 759 012e 4FF00000 		mov	r0, #0
 760 0132 FFF7FEFF 		bl	CyHalt
 761 0136 00E0     		b	.L47
 762              	.L48:
 763              		.loc 1 467 0
 764 0138 00BF     		nop
 765              	.L47:
 471:.\Generated_Source\PSoC5/CyLib.c ****         break;
 472:.\Generated_Source\PSoC5/CyLib.c ****     }
 473:.\Generated_Source\PSoC5/CyLib.c **** 
 474:.\Generated_Source\PSoC5/CyLib.c **** }
 766              		.loc 1 474 0
 767 013a 07F11007 		add	r7, r7, #16
 768 013e BD46     		mov	sp, r7
 769 0140 80BD     		pop	{r7, pc}
 770              		.cfi_endproc
 771              	.LFE7:
 772              		.size	CyIMO_SetTrimValue, .-CyIMO_SetTrimValue
 773 0142 00BF     		.section	.text.CyIMO_SetFreq,"ax",%progbits
 774              		.align	2
 775              		.global	CyIMO_SetFreq
 776              		.thumb
ARM GAS  C:\Users\karunmj\AppData\Local\Temp\cceFJIz4.s 			page 23


 777              		.thumb_func
 778              		.type	CyIMO_SetFreq, %function
 779              	CyIMO_SetFreq:
 780              	.LFB8:
 475:.\Generated_Source\PSoC5/CyLib.c **** 
 476:.\Generated_Source\PSoC5/CyLib.c **** 
 477:.\Generated_Source\PSoC5/CyLib.c **** /*******************************************************************************
 478:.\Generated_Source\PSoC5/CyLib.c **** * Function Name: CyIMO_SetFreq
 479:.\Generated_Source\PSoC5/CyLib.c **** ********************************************************************************
 480:.\Generated_Source\PSoC5/CyLib.c **** *
 481:.\Generated_Source\PSoC5/CyLib.c **** * Summary:
 482:.\Generated_Source\PSoC5/CyLib.c **** *  Sets the frequency of the IMO. Changes may be made while the IMO is running.
 483:.\Generated_Source\PSoC5/CyLib.c **** *
 484:.\Generated_Source\PSoC5/CyLib.c **** * Parameters:
 485:.\Generated_Source\PSoC5/CyLib.c **** *  freq: Frequency of IMO operation
 486:.\Generated_Source\PSoC5/CyLib.c **** *       CY_IMO_FREQ_3MHZ  to set  3   MHz
 487:.\Generated_Source\PSoC5/CyLib.c **** *       CY_IMO_FREQ_6MHZ  to set  6   MHz
 488:.\Generated_Source\PSoC5/CyLib.c **** *       CY_IMO_FREQ_12MHZ to set 12   MHz
 489:.\Generated_Source\PSoC5/CyLib.c **** *       CY_IMO_FREQ_24MHZ to set 24   MHz
 490:.\Generated_Source\PSoC5/CyLib.c **** *       CY_IMO_FREQ_48MHZ to set 48   MHz
 491:.\Generated_Source\PSoC5/CyLib.c **** *       CY_IMO_FREQ_62MHZ to set 62 MHz (unsupported by PSoC 5)
 492:.\Generated_Source\PSoC5/CyLib.c **** *       CY_IMO_FREQ_USB   to set 24   MHz (Trimmed for USB operation)
 493:.\Generated_Source\PSoC5/CyLib.c **** *
 494:.\Generated_Source\PSoC5/CyLib.c **** * Return:
 495:.\Generated_Source\PSoC5/CyLib.c **** *  None
 496:.\Generated_Source\PSoC5/CyLib.c **** *
 497:.\Generated_Source\PSoC5/CyLib.c **** * Side Effects:
 498:.\Generated_Source\PSoC5/CyLib.c **** *  If as result of this function execution the CPU clock frequency is increased
 499:.\Generated_Source\PSoC5/CyLib.c **** *  then the number of clock cycles the cache will wait before it samples data
 500:.\Generated_Source\PSoC5/CyLib.c **** *  coming back from Flash must be adjusted by calling CyFlash_SetWaitCycles()
 501:.\Generated_Source\PSoC5/CyLib.c **** *  with appropriate parameter. It can be optionally called if CPU clock
 502:.\Generated_Source\PSoC5/CyLib.c **** *  frequency is lowered in order to improve CPU performance.
 503:.\Generated_Source\PSoC5/CyLib.c **** *  See CyFlash_SetWaitCycles() description for more information.
 504:.\Generated_Source\PSoC5/CyLib.c **** *
 505:.\Generated_Source\PSoC5/CyLib.c **** *  When the USB setting is chosen, the USB clock locking circuit is enabled.
 506:.\Generated_Source\PSoC5/CyLib.c **** *  Otherwise this circuit is disabled. The USB block must be powered before
 507:.\Generated_Source\PSoC5/CyLib.c **** *  selecting the USB setting.
 508:.\Generated_Source\PSoC5/CyLib.c **** *
 509:.\Generated_Source\PSoC5/CyLib.c **** *******************************************************************************/
 510:.\Generated_Source\PSoC5/CyLib.c **** void CyIMO_SetFreq(uint8 freq) 
 511:.\Generated_Source\PSoC5/CyLib.c **** {
 781              		.loc 1 511 0
 782              		.cfi_startproc
 783              		@ args = 0, pretend = 0, frame = 16
 784              		@ frame_needed = 1, uses_anonymous_args = 0
 785 0000 80B5     		push	{r7, lr}
 786              	.LCFI22:
 787              		.cfi_def_cfa_offset 8
 788 0002 84B0     		sub	sp, sp, #16
 789              	.LCFI23:
 790              		.cfi_def_cfa_offset 24
 791 0004 00AF     		add	r7, sp, #0
 792              		.cfi_offset 14, -4
 793              		.cfi_offset 7, -8
 794              	.LCFI24:
 795              		.cfi_def_cfa_register 7
 796 0006 0346     		mov	r3, r0
ARM GAS  C:\Users\karunmj\AppData\Local\Temp\cceFJIz4.s 			page 24


 797 0008 FB71     		strb	r3, [r7, #7]
 512:.\Generated_Source\PSoC5/CyLib.c ****     uint8 currentFreq;
 513:.\Generated_Source\PSoC5/CyLib.c ****     uint8 nextFreq;
 514:.\Generated_Source\PSoC5/CyLib.c **** 
 515:.\Generated_Source\PSoC5/CyLib.c ****     /***************************************************************************
 516:.\Generated_Source\PSoC5/CyLib.c ****     * When changing the IMO frequency the Trim values must also be set
 517:.\Generated_Source\PSoC5/CyLib.c ****     * accordingly.This requires reading the current frequency. If the new
 518:.\Generated_Source\PSoC5/CyLib.c ****     * frequency is faster, then set the new trim and then change the frequency,
 519:.\Generated_Source\PSoC5/CyLib.c ****     * otherwise change the frequency and then set the new trim values.
 520:.\Generated_Source\PSoC5/CyLib.c ****     ***************************************************************************/
 521:.\Generated_Source\PSoC5/CyLib.c **** 
 522:.\Generated_Source\PSoC5/CyLib.c ****     currentFreq = CY_LIB_FASTCLK_IMO_CR_REG & ((uint8)(~CY_LIB_FASTCLK_IMO_CR_RANGE_MASK));
 798              		.loc 1 522 0
 799 000a 44F20023 		movw	r3, #:lower16:1073758720
 800 000e C4F20003 		movt	r3, #:upper16:1073758720
 801 0012 1B78     		ldrb	r3, [r3, #0]
 802 0014 DBB2     		uxtb	r3, r3
 803 0016 03F00703 		and	r3, r3, #7
 804 001a BB73     		strb	r3, [r7, #14]
 523:.\Generated_Source\PSoC5/CyLib.c **** 
 524:.\Generated_Source\PSoC5/CyLib.c ****     /* Check if the requested frequency is USB. */
 525:.\Generated_Source\PSoC5/CyLib.c ****     nextFreq = (freq == CY_IMO_FREQ_USB) ? CY_IMO_FREQ_24MHZ : freq;
 805              		.loc 1 525 0
 806 001c FB79     		ldrb	r3, [r7, #7]	@ zero_extendqisi2
 807 001e 082B     		cmp	r3, #8
 808 0020 01D0     		beq	.L50
 809 0022 FB79     		ldrb	r3, [r7, #7]	@ zero_extendqisi2
 810 0024 01E0     		b	.L51
 811              	.L50:
 812 0026 4FF00303 		mov	r3, #3
 813              	.L51:
 814 002a FB73     		strb	r3, [r7, #15]
 526:.\Generated_Source\PSoC5/CyLib.c **** 
 527:.\Generated_Source\PSoC5/CyLib.c ****     switch (currentFreq)
 815              		.loc 1 527 0
 816 002c BB7B     		ldrb	r3, [r7, #14]	@ zero_extendqisi2
 817 002e 052B     		cmp	r3, #5
 818 0030 26D8     		bhi	.L52
 819 0032 01A2     		adr	r2, .L59
 820 0034 52F823F0 		ldr	pc, [r2, r3, lsl #2]
 821              		.align	2
 822              	.L59:
 823 0038 51000000 		.word	.L53+1
 824 003c 59000000 		.word	.L54+1
 825 0040 61000000 		.word	.L55+1
 826 0044 69000000 		.word	.L56+1
 827 0048 71000000 		.word	.L57+1
 828 004c 79000000 		.word	.L58+1
 829              	.L53:
 528:.\Generated_Source\PSoC5/CyLib.c ****     {
 529:.\Generated_Source\PSoC5/CyLib.c ****     case 0u:
 530:.\Generated_Source\PSoC5/CyLib.c ****         currentFreq = CY_IMO_FREQ_12MHZ;
 830              		.loc 1 530 0
 831 0050 4FF00203 		mov	r3, #2
 832 0054 BB73     		strb	r3, [r7, #14]
 531:.\Generated_Source\PSoC5/CyLib.c ****         break;
 833              		.loc 1 531 0
ARM GAS  C:\Users\karunmj\AppData\Local\Temp\cceFJIz4.s 			page 25


 834 0056 17E0     		b	.L60
 835              	.L54:
 532:.\Generated_Source\PSoC5/CyLib.c **** 
 533:.\Generated_Source\PSoC5/CyLib.c ****     case 1u:
 534:.\Generated_Source\PSoC5/CyLib.c ****         currentFreq = CY_IMO_FREQ_6MHZ;
 836              		.loc 1 534 0
 837 0058 4FF00103 		mov	r3, #1
 838 005c BB73     		strb	r3, [r7, #14]
 535:.\Generated_Source\PSoC5/CyLib.c ****         break;
 839              		.loc 1 535 0
 840 005e 13E0     		b	.L60
 841              	.L55:
 536:.\Generated_Source\PSoC5/CyLib.c **** 
 537:.\Generated_Source\PSoC5/CyLib.c ****     case 2u:
 538:.\Generated_Source\PSoC5/CyLib.c ****         currentFreq = CY_IMO_FREQ_24MHZ;
 842              		.loc 1 538 0
 843 0060 4FF00303 		mov	r3, #3
 844 0064 BB73     		strb	r3, [r7, #14]
 539:.\Generated_Source\PSoC5/CyLib.c ****         break;
 845              		.loc 1 539 0
 846 0066 0FE0     		b	.L60
 847              	.L56:
 540:.\Generated_Source\PSoC5/CyLib.c **** 
 541:.\Generated_Source\PSoC5/CyLib.c ****     case 3u:
 542:.\Generated_Source\PSoC5/CyLib.c ****         currentFreq = CY_IMO_FREQ_3MHZ;
 848              		.loc 1 542 0
 849 0068 4FF00003 		mov	r3, #0
 850 006c BB73     		strb	r3, [r7, #14]
 543:.\Generated_Source\PSoC5/CyLib.c ****         break;
 851              		.loc 1 543 0
 852 006e 0BE0     		b	.L60
 853              	.L57:
 544:.\Generated_Source\PSoC5/CyLib.c **** 
 545:.\Generated_Source\PSoC5/CyLib.c ****     case 4u:
 546:.\Generated_Source\PSoC5/CyLib.c ****         currentFreq = CY_IMO_FREQ_48MHZ;
 854              		.loc 1 546 0
 855 0070 4FF00403 		mov	r3, #4
 856 0074 BB73     		strb	r3, [r7, #14]
 547:.\Generated_Source\PSoC5/CyLib.c ****         break;
 857              		.loc 1 547 0
 858 0076 07E0     		b	.L60
 859              	.L58:
 548:.\Generated_Source\PSoC5/CyLib.c **** 
 549:.\Generated_Source\PSoC5/CyLib.c ****     /* The IMO frequencies above 48 MHz are not supported by PSoC5 */
 550:.\Generated_Source\PSoC5/CyLib.c ****     #if(!CY_PSOC5A)
 551:.\Generated_Source\PSoC5/CyLib.c **** 
 552:.\Generated_Source\PSoC5/CyLib.c ****         case 5u:
 553:.\Generated_Source\PSoC5/CyLib.c ****             currentFreq = CY_IMO_FREQ_62MHZ;
 860              		.loc 1 553 0
 861 0078 4FF00503 		mov	r3, #5
 862 007c BB73     		strb	r3, [r7, #14]
 554:.\Generated_Source\PSoC5/CyLib.c ****             break;
 863              		.loc 1 554 0
 864 007e 03E0     		b	.L60
 865              	.L52:
 555:.\Generated_Source\PSoC5/CyLib.c **** 
 556:.\Generated_Source\PSoC5/CyLib.c ****     #endif  /* (!CY_PSOC5A) */
ARM GAS  C:\Users\karunmj\AppData\Local\Temp\cceFJIz4.s 			page 26


 557:.\Generated_Source\PSoC5/CyLib.c **** 
 558:.\Generated_Source\PSoC5/CyLib.c ****     default:
 559:.\Generated_Source\PSoC5/CyLib.c ****         CYASSERT(0u != 0u);
 866              		.loc 1 559 0
 867 0080 4FF00000 		mov	r0, #0
 868 0084 FFF7FEFF 		bl	CyHalt
 869              	.L60:
 560:.\Generated_Source\PSoC5/CyLib.c ****         break;
 561:.\Generated_Source\PSoC5/CyLib.c ****     }
 562:.\Generated_Source\PSoC5/CyLib.c **** 
 563:.\Generated_Source\PSoC5/CyLib.c ****     if (nextFreq >= currentFreq)
 870              		.loc 1 563 0
 871 0088 FA7B     		ldrb	r2, [r7, #15]	@ zero_extendqisi2
 872 008a BB7B     		ldrb	r3, [r7, #14]	@ zero_extendqisi2
 873 008c 9A42     		cmp	r2, r3
 874 008e 03D3     		bcc	.L61
 564:.\Generated_Source\PSoC5/CyLib.c ****     {
 565:.\Generated_Source\PSoC5/CyLib.c ****         /* Set the new trim first */
 566:.\Generated_Source\PSoC5/CyLib.c ****         CyIMO_SetTrimValue(freq);
 875              		.loc 1 566 0
 876 0090 FB79     		ldrb	r3, [r7, #7]	@ zero_extendqisi2
 877 0092 1846     		mov	r0, r3
 878 0094 FFF7FEFF 		bl	CyIMO_SetTrimValue
 879              	.L61:
 567:.\Generated_Source\PSoC5/CyLib.c ****     }
 568:.\Generated_Source\PSoC5/CyLib.c **** 
 569:.\Generated_Source\PSoC5/CyLib.c ****     /* Set the usbclk_on bit when using CY_IMO_FREQ_USB, if not clear it */
 570:.\Generated_Source\PSoC5/CyLib.c ****     switch(freq)
 880              		.loc 1 570 0
 881 0098 FB79     		ldrb	r3, [r7, #7]	@ zero_extendqisi2
 882 009a 082B     		cmp	r3, #8
 883 009c 00F28A80 		bhi	.L62
 884 00a0 01A2     		adr	r2, .L70
 885 00a2 52F823F0 		ldr	pc, [r2, r3, lsl #2]
 886 00a6 00BF     		.align	2
 887              	.L70:
 888 00a8 CD000000 		.word	.L63+1
 889 00ac EF000000 		.word	.L64+1
 890 00b0 11010000 		.word	.L65+1
 891 00b4 2D010000 		.word	.L66+1
 892 00b8 4F010000 		.word	.L67+1
 893 00bc 71010000 		.word	.L68+1
 894 00c0 B5010000 		.word	.L62+1
 895 00c4 B5010000 		.word	.L62+1
 896 00c8 93010000 		.word	.L69+1
 897              	.L63:
 571:.\Generated_Source\PSoC5/CyLib.c ****     {
 572:.\Generated_Source\PSoC5/CyLib.c ****     case CY_IMO_FREQ_3MHZ:
 573:.\Generated_Source\PSoC5/CyLib.c ****         CY_LIB_FASTCLK_IMO_CR_REG = ((CY_LIB_FASTCLK_IMO_CR_REG & CY_LIB_FASTCLK_IMO_CR_RANGE_MASK)
 898              		.loc 1 573 0
 899 00cc 44F20023 		movw	r3, #:lower16:1073758720
 900 00d0 C4F20003 		movt	r3, #:upper16:1073758720
 901 00d4 44F20022 		movw	r2, #:lower16:1073758720
 902 00d8 C4F20002 		movt	r2, #:upper16:1073758720
 903 00dc 1278     		ldrb	r2, [r2, #0]
 904 00de D2B2     		uxtb	r2, r2
 905 00e0 02F0B802 		and	r2, r2, #184
ARM GAS  C:\Users\karunmj\AppData\Local\Temp\cceFJIz4.s 			page 27


 906 00e4 42F00302 		orr	r2, r2, #3
 907 00e8 D2B2     		uxtb	r2, r2
 908 00ea 1A70     		strb	r2, [r3, #0]
 574:.\Generated_Source\PSoC5/CyLib.c ****             CLOCK_IMO_3MHZ_VALUE) & ((uint8)(~FASTCLK_IMO_USBCLK_ON_SET));
 575:.\Generated_Source\PSoC5/CyLib.c ****         break;
 909              		.loc 1 575 0
 910 00ec 66E0     		b	.L71
 911              	.L64:
 576:.\Generated_Source\PSoC5/CyLib.c **** 
 577:.\Generated_Source\PSoC5/CyLib.c ****     case CY_IMO_FREQ_6MHZ:
 578:.\Generated_Source\PSoC5/CyLib.c ****         CY_LIB_FASTCLK_IMO_CR_REG = ((CY_LIB_FASTCLK_IMO_CR_REG & CY_LIB_FASTCLK_IMO_CR_RANGE_MASK)
 912              		.loc 1 578 0
 913 00ee 44F20023 		movw	r3, #:lower16:1073758720
 914 00f2 C4F20003 		movt	r3, #:upper16:1073758720
 915 00f6 44F20022 		movw	r2, #:lower16:1073758720
 916 00fa C4F20002 		movt	r2, #:upper16:1073758720
 917 00fe 1278     		ldrb	r2, [r2, #0]
 918 0100 D2B2     		uxtb	r2, r2
 919 0102 02F0B802 		and	r2, r2, #184
 920 0106 42F00102 		orr	r2, r2, #1
 921 010a D2B2     		uxtb	r2, r2
 922 010c 1A70     		strb	r2, [r3, #0]
 579:.\Generated_Source\PSoC5/CyLib.c ****             CLOCK_IMO_6MHZ_VALUE) & ((uint8)(~FASTCLK_IMO_USBCLK_ON_SET));
 580:.\Generated_Source\PSoC5/CyLib.c ****         break;
 923              		.loc 1 580 0
 924 010e 55E0     		b	.L71
 925              	.L65:
 581:.\Generated_Source\PSoC5/CyLib.c **** 
 582:.\Generated_Source\PSoC5/CyLib.c ****     case CY_IMO_FREQ_12MHZ:
 583:.\Generated_Source\PSoC5/CyLib.c ****         CY_LIB_FASTCLK_IMO_CR_REG = ((CY_LIB_FASTCLK_IMO_CR_REG & CY_LIB_FASTCLK_IMO_CR_RANGE_MASK)
 926              		.loc 1 583 0
 927 0110 44F20023 		movw	r3, #:lower16:1073758720
 928 0114 C4F20003 		movt	r3, #:upper16:1073758720
 929 0118 44F20022 		movw	r2, #:lower16:1073758720
 930 011c C4F20002 		movt	r2, #:upper16:1073758720
 931 0120 1278     		ldrb	r2, [r2, #0]
 932 0122 D2B2     		uxtb	r2, r2
 933 0124 02F0B802 		and	r2, r2, #184
 934 0128 1A70     		strb	r2, [r3, #0]
 584:.\Generated_Source\PSoC5/CyLib.c ****             CLOCK_IMO_12MHZ_VALUE) & ((uint8)(~FASTCLK_IMO_USBCLK_ON_SET));
 585:.\Generated_Source\PSoC5/CyLib.c ****         break;
 935              		.loc 1 585 0
 936 012a 47E0     		b	.L71
 937              	.L66:
 586:.\Generated_Source\PSoC5/CyLib.c **** 
 587:.\Generated_Source\PSoC5/CyLib.c ****     case CY_IMO_FREQ_24MHZ:
 588:.\Generated_Source\PSoC5/CyLib.c ****         CY_LIB_FASTCLK_IMO_CR_REG = ((CY_LIB_FASTCLK_IMO_CR_REG & CY_LIB_FASTCLK_IMO_CR_RANGE_MASK)
 938              		.loc 1 588 0
 939 012c 44F20023 		movw	r3, #:lower16:1073758720
 940 0130 C4F20003 		movt	r3, #:upper16:1073758720
 941 0134 44F20022 		movw	r2, #:lower16:1073758720
 942 0138 C4F20002 		movt	r2, #:upper16:1073758720
 943 013c 1278     		ldrb	r2, [r2, #0]
 944 013e D2B2     		uxtb	r2, r2
 945 0140 02F0B802 		and	r2, r2, #184
 946 0144 42F00202 		orr	r2, r2, #2
 947 0148 D2B2     		uxtb	r2, r2
ARM GAS  C:\Users\karunmj\AppData\Local\Temp\cceFJIz4.s 			page 28


 948 014a 1A70     		strb	r2, [r3, #0]
 589:.\Generated_Source\PSoC5/CyLib.c ****             CLOCK_IMO_24MHZ_VALUE) & ((uint8)(~FASTCLK_IMO_USBCLK_ON_SET));
 590:.\Generated_Source\PSoC5/CyLib.c ****         break;
 949              		.loc 1 590 0
 950 014c 36E0     		b	.L71
 951              	.L67:
 591:.\Generated_Source\PSoC5/CyLib.c **** 
 592:.\Generated_Source\PSoC5/CyLib.c ****     case CY_IMO_FREQ_48MHZ:
 593:.\Generated_Source\PSoC5/CyLib.c ****         CY_LIB_FASTCLK_IMO_CR_REG = ((CY_LIB_FASTCLK_IMO_CR_REG & CY_LIB_FASTCLK_IMO_CR_RANGE_MASK)
 952              		.loc 1 593 0
 953 014e 44F20023 		movw	r3, #:lower16:1073758720
 954 0152 C4F20003 		movt	r3, #:upper16:1073758720
 955 0156 44F20022 		movw	r2, #:lower16:1073758720
 956 015a C4F20002 		movt	r2, #:upper16:1073758720
 957 015e 1278     		ldrb	r2, [r2, #0]
 958 0160 D2B2     		uxtb	r2, r2
 959 0162 02F0B802 		and	r2, r2, #184
 960 0166 42F00402 		orr	r2, r2, #4
 961 016a D2B2     		uxtb	r2, r2
 962 016c 1A70     		strb	r2, [r3, #0]
 594:.\Generated_Source\PSoC5/CyLib.c ****             CLOCK_IMO_48MHZ_VALUE) & ((uint8)(~FASTCLK_IMO_USBCLK_ON_SET));
 595:.\Generated_Source\PSoC5/CyLib.c ****         break;
 963              		.loc 1 595 0
 964 016e 25E0     		b	.L71
 965              	.L68:
 596:.\Generated_Source\PSoC5/CyLib.c **** 
 597:.\Generated_Source\PSoC5/CyLib.c ****     /* The IMO frequencies above 48 MHz are not supported by PSoC5 */
 598:.\Generated_Source\PSoC5/CyLib.c ****     #if(!CY_PSOC5A)
 599:.\Generated_Source\PSoC5/CyLib.c **** 
 600:.\Generated_Source\PSoC5/CyLib.c ****     case CY_IMO_FREQ_62MHZ:
 601:.\Generated_Source\PSoC5/CyLib.c ****         CY_LIB_FASTCLK_IMO_CR_REG = ((CY_LIB_FASTCLK_IMO_CR_REG & CY_LIB_FASTCLK_IMO_CR_RANGE_MASK)
 966              		.loc 1 601 0
 967 0170 44F20023 		movw	r3, #:lower16:1073758720
 968 0174 C4F20003 		movt	r3, #:upper16:1073758720
 969 0178 44F20022 		movw	r2, #:lower16:1073758720
 970 017c C4F20002 		movt	r2, #:upper16:1073758720
 971 0180 1278     		ldrb	r2, [r2, #0]
 972 0182 D2B2     		uxtb	r2, r2
 973 0184 02F0B802 		and	r2, r2, #184
 974 0188 42F00502 		orr	r2, r2, #5
 975 018c D2B2     		uxtb	r2, r2
 976 018e 1A70     		strb	r2, [r3, #0]
 602:.\Generated_Source\PSoC5/CyLib.c ****             CLOCK_IMO_62MHZ_VALUE) & ((uint8)(~FASTCLK_IMO_USBCLK_ON_SET));
 603:.\Generated_Source\PSoC5/CyLib.c ****         break;
 977              		.loc 1 603 0
 978 0190 14E0     		b	.L71
 979              	.L69:
 604:.\Generated_Source\PSoC5/CyLib.c **** 
 605:.\Generated_Source\PSoC5/CyLib.c ****     #endif  /* (!CY_PSOC5A) */
 606:.\Generated_Source\PSoC5/CyLib.c **** 
 607:.\Generated_Source\PSoC5/CyLib.c ****     case CY_IMO_FREQ_USB:
 608:.\Generated_Source\PSoC5/CyLib.c ****         CY_LIB_FASTCLK_IMO_CR_REG = ((CY_LIB_FASTCLK_IMO_CR_REG & CY_LIB_FASTCLK_IMO_CR_RANGE_MASK)
 980              		.loc 1 608 0
 981 0192 44F20023 		movw	r3, #:lower16:1073758720
 982 0196 C4F20003 		movt	r3, #:upper16:1073758720
 983 019a 44F20022 		movw	r2, #:lower16:1073758720
 984 019e C4F20002 		movt	r2, #:upper16:1073758720
ARM GAS  C:\Users\karunmj\AppData\Local\Temp\cceFJIz4.s 			page 29


 985 01a2 1278     		ldrb	r2, [r2, #0]
 986 01a4 D2B2     		uxtb	r2, r2
 987 01a6 02F0B802 		and	r2, r2, #184
 988 01aa 42F04202 		orr	r2, r2, #66
 989 01ae D2B2     		uxtb	r2, r2
 990 01b0 1A70     		strb	r2, [r3, #0]
 609:.\Generated_Source\PSoC5/CyLib.c ****             CLOCK_IMO_24MHZ_VALUE) | FASTCLK_IMO_USBCLK_ON_SET;
 610:.\Generated_Source\PSoC5/CyLib.c ****         break;
 991              		.loc 1 610 0
 992 01b2 03E0     		b	.L71
 993              	.L62:
 611:.\Generated_Source\PSoC5/CyLib.c **** 
 612:.\Generated_Source\PSoC5/CyLib.c ****     default:
 613:.\Generated_Source\PSoC5/CyLib.c ****         CYASSERT(0u != 0u);
 994              		.loc 1 613 0
 995 01b4 4FF00000 		mov	r0, #0
 996 01b8 FFF7FEFF 		bl	CyHalt
 997              	.L71:
 614:.\Generated_Source\PSoC5/CyLib.c ****         break;
 615:.\Generated_Source\PSoC5/CyLib.c ****     }
 616:.\Generated_Source\PSoC5/CyLib.c **** 
 617:.\Generated_Source\PSoC5/CyLib.c ****     /* Turn on the IMO Doubler, if switching to CY_IMO_FREQ_USB */
 618:.\Generated_Source\PSoC5/CyLib.c ****     if (freq == CY_IMO_FREQ_USB)
 998              		.loc 1 618 0
 999 01bc FB79     		ldrb	r3, [r7, #7]	@ zero_extendqisi2
 1000 01be 082B     		cmp	r3, #8
 1001 01c0 02D1     		bne	.L72
 619:.\Generated_Source\PSoC5/CyLib.c ****     {
 620:.\Generated_Source\PSoC5/CyLib.c ****         CyIMO_EnableDoubler();
 1002              		.loc 1 620 0
 1003 01c2 FFF7FEFF 		bl	CyIMO_EnableDoubler
 1004 01c6 01E0     		b	.L73
 1005              	.L72:
 621:.\Generated_Source\PSoC5/CyLib.c ****     }
 622:.\Generated_Source\PSoC5/CyLib.c ****     else
 623:.\Generated_Source\PSoC5/CyLib.c ****     {
 624:.\Generated_Source\PSoC5/CyLib.c ****         CyIMO_DisableDoubler();
 1006              		.loc 1 624 0
 1007 01c8 FFF7FEFF 		bl	CyIMO_DisableDoubler
 1008              	.L73:
 625:.\Generated_Source\PSoC5/CyLib.c ****     }
 626:.\Generated_Source\PSoC5/CyLib.c **** 
 627:.\Generated_Source\PSoC5/CyLib.c ****     if (nextFreq < currentFreq)
 1009              		.loc 1 627 0
 1010 01cc FA7B     		ldrb	r2, [r7, #15]	@ zero_extendqisi2
 1011 01ce BB7B     		ldrb	r3, [r7, #14]	@ zero_extendqisi2
 1012 01d0 9A42     		cmp	r2, r3
 1013 01d2 03D2     		bcs	.L75
 628:.\Generated_Source\PSoC5/CyLib.c ****     {
 629:.\Generated_Source\PSoC5/CyLib.c ****         /* Set the new trim after setting the frequency */
 630:.\Generated_Source\PSoC5/CyLib.c ****         CyIMO_SetTrimValue(freq);
 1014              		.loc 1 630 0
 1015 01d4 FB79     		ldrb	r3, [r7, #7]	@ zero_extendqisi2
 1016 01d6 1846     		mov	r0, r3
 1017 01d8 FFF7FEFF 		bl	CyIMO_SetTrimValue
 1018              	.L75:
 631:.\Generated_Source\PSoC5/CyLib.c ****     }
ARM GAS  C:\Users\karunmj\AppData\Local\Temp\cceFJIz4.s 			page 30


 632:.\Generated_Source\PSoC5/CyLib.c **** }
 1019              		.loc 1 632 0
 1020 01dc 07F11007 		add	r7, r7, #16
 1021 01e0 BD46     		mov	sp, r7
 1022 01e2 80BD     		pop	{r7, pc}
 1023              		.cfi_endproc
 1024              	.LFE8:
 1025              		.size	CyIMO_SetFreq, .-CyIMO_SetFreq
 1026              		.section	.text.CyIMO_SetSource,"ax",%progbits
 1027              		.align	2
 1028              		.global	CyIMO_SetSource
 1029              		.thumb
 1030              		.thumb_func
 1031              		.type	CyIMO_SetSource, %function
 1032              	CyIMO_SetSource:
 1033              	.LFB9:
 633:.\Generated_Source\PSoC5/CyLib.c **** 
 634:.\Generated_Source\PSoC5/CyLib.c **** 
 635:.\Generated_Source\PSoC5/CyLib.c **** /*******************************************************************************
 636:.\Generated_Source\PSoC5/CyLib.c **** * Function Name: CyIMO_SetSource
 637:.\Generated_Source\PSoC5/CyLib.c **** ********************************************************************************
 638:.\Generated_Source\PSoC5/CyLib.c **** *
 639:.\Generated_Source\PSoC5/CyLib.c **** * Summary:
 640:.\Generated_Source\PSoC5/CyLib.c **** *  Sets the source of the clock output from the IMO block.
 641:.\Generated_Source\PSoC5/CyLib.c **** *
 642:.\Generated_Source\PSoC5/CyLib.c **** *  The output from the IMO is by default the IMO itself. Optionally the MHz
 643:.\Generated_Source\PSoC5/CyLib.c **** *  Crystal or a DSI input can be the source of the IMO output instead.
 644:.\Generated_Source\PSoC5/CyLib.c **** *
 645:.\Generated_Source\PSoC5/CyLib.c **** * Parameters:
 646:.\Generated_Source\PSoC5/CyLib.c **** *   source, CY_IMO_SOURCE_DSI to set the DSI as source.
 647:.\Generated_Source\PSoC5/CyLib.c **** *           CY_IMO_SOURCE_XTAL to set the MHz as source.
 648:.\Generated_Source\PSoC5/CyLib.c **** *           CY_IMO_SOURCE_IMO to set the IMO itself.
 649:.\Generated_Source\PSoC5/CyLib.c **** *
 650:.\Generated_Source\PSoC5/CyLib.c **** * Return:
 651:.\Generated_Source\PSoC5/CyLib.c **** *  None
 652:.\Generated_Source\PSoC5/CyLib.c **** *
 653:.\Generated_Source\PSoC5/CyLib.c **** * Side Effects:
 654:.\Generated_Source\PSoC5/CyLib.c **** *  If as result of this function execution the CPU clock frequency is increased
 655:.\Generated_Source\PSoC5/CyLib.c **** *  then the number of clock cycles the cache will wait before it samples data
 656:.\Generated_Source\PSoC5/CyLib.c **** *  coming back from Flash must be adjusted by calling CyFlash_SetWaitCycles()
 657:.\Generated_Source\PSoC5/CyLib.c **** *  with appropriate parameter. It can be optionally called if CPU clock
 658:.\Generated_Source\PSoC5/CyLib.c **** *  frequency is lowered in order to improve CPU performance.
 659:.\Generated_Source\PSoC5/CyLib.c **** *  See CyFlash_SetWaitCycles() description for more information.
 660:.\Generated_Source\PSoC5/CyLib.c **** *
 661:.\Generated_Source\PSoC5/CyLib.c **** *******************************************************************************/
 662:.\Generated_Source\PSoC5/CyLib.c **** void CyIMO_SetSource(uint8 source) 
 663:.\Generated_Source\PSoC5/CyLib.c **** {
 1034              		.loc 1 663 0
 1035              		.cfi_startproc
 1036              		@ args = 0, pretend = 0, frame = 8
 1037              		@ frame_needed = 1, uses_anonymous_args = 0
 1038 0000 80B5     		push	{r7, lr}
 1039              	.LCFI25:
 1040              		.cfi_def_cfa_offset 8
 1041 0002 82B0     		sub	sp, sp, #8
 1042              	.LCFI26:
 1043              		.cfi_def_cfa_offset 16
ARM GAS  C:\Users\karunmj\AppData\Local\Temp\cceFJIz4.s 			page 31


 1044 0004 00AF     		add	r7, sp, #0
 1045              		.cfi_offset 14, -4
 1046              		.cfi_offset 7, -8
 1047              	.LCFI27:
 1048              		.cfi_def_cfa_register 7
 1049 0006 0346     		mov	r3, r0
 1050 0008 FB71     		strb	r3, [r7, #7]
 664:.\Generated_Source\PSoC5/CyLib.c ****     switch(source)
 1051              		.loc 1 664 0
 1052 000a FB79     		ldrb	r3, [r7, #7]	@ zero_extendqisi2
 1053 000c 012B     		cmp	r3, #1
 1054 000e 20D0     		beq	.L79
 1055 0010 022B     		cmp	r3, #2
 1056 0012 02D0     		beq	.L80
 1057 0014 002B     		cmp	r3, #0
 1058 0016 39D0     		beq	.L78
 1059 0018 46E0     		b	.L83
 1060              	.L80:
 665:.\Generated_Source\PSoC5/CyLib.c ****     {
 666:.\Generated_Source\PSoC5/CyLib.c ****     case CY_IMO_SOURCE_DSI:
 667:.\Generated_Source\PSoC5/CyLib.c ****         CY_LIB_CLKDIST_CR_REG     &= ((uint8)(~CY_LIB_CLKDIST_CR_IMO2X));
 1061              		.loc 1 667 0
 1062 001a 44F20003 		movw	r3, #:lower16:1073758208
 1063 001e C4F20003 		movt	r3, #:upper16:1073758208
 1064 0022 44F20002 		movw	r2, #:lower16:1073758208
 1065 0026 C4F20002 		movt	r2, #:upper16:1073758208
 1066 002a 1278     		ldrb	r2, [r2, #0]
 1067 002c D2B2     		uxtb	r2, r2
 1068 002e 02F0BF02 		and	r2, r2, #191
 1069 0032 1A70     		strb	r2, [r3, #0]
 668:.\Generated_Source\PSoC5/CyLib.c ****         CY_LIB_FASTCLK_IMO_CR_REG |= CY_LIB_FASTCLK_IMO_IMO;
 1070              		.loc 1 668 0
 1071 0034 44F20023 		movw	r3, #:lower16:1073758720
 1072 0038 C4F20003 		movt	r3, #:upper16:1073758720
 1073 003c 44F20022 		movw	r2, #:lower16:1073758720
 1074 0040 C4F20002 		movt	r2, #:upper16:1073758720
 1075 0044 1278     		ldrb	r2, [r2, #0]
 1076 0046 D2B2     		uxtb	r2, r2
 1077 0048 42F02002 		orr	r2, r2, #32
 1078 004c D2B2     		uxtb	r2, r2
 1079 004e 1A70     		strb	r2, [r3, #0]
 669:.\Generated_Source\PSoC5/CyLib.c ****         break;
 1080              		.loc 1 669 0
 1081 0050 2EE0     		b	.L82
 1082              	.L79:
 670:.\Generated_Source\PSoC5/CyLib.c **** 
 671:.\Generated_Source\PSoC5/CyLib.c ****     case CY_IMO_SOURCE_XTAL:
 672:.\Generated_Source\PSoC5/CyLib.c ****         CY_LIB_CLKDIST_CR_REG     |= CY_LIB_CLKDIST_CR_IMO2X;
 1083              		.loc 1 672 0
 1084 0052 44F20003 		movw	r3, #:lower16:1073758208
 1085 0056 C4F20003 		movt	r3, #:upper16:1073758208
 1086 005a 44F20002 		movw	r2, #:lower16:1073758208
 1087 005e C4F20002 		movt	r2, #:upper16:1073758208
 1088 0062 1278     		ldrb	r2, [r2, #0]
 1089 0064 D2B2     		uxtb	r2, r2
 1090 0066 42F04002 		orr	r2, r2, #64
 1091 006a D2B2     		uxtb	r2, r2
ARM GAS  C:\Users\karunmj\AppData\Local\Temp\cceFJIz4.s 			page 32


 1092 006c 1A70     		strb	r2, [r3, #0]
 673:.\Generated_Source\PSoC5/CyLib.c ****         CY_LIB_FASTCLK_IMO_CR_REG |= CY_LIB_FASTCLK_IMO_IMO;
 1093              		.loc 1 673 0
 1094 006e 44F20023 		movw	r3, #:lower16:1073758720
 1095 0072 C4F20003 		movt	r3, #:upper16:1073758720
 1096 0076 44F20022 		movw	r2, #:lower16:1073758720
 1097 007a C4F20002 		movt	r2, #:upper16:1073758720
 1098 007e 1278     		ldrb	r2, [r2, #0]
 1099 0080 D2B2     		uxtb	r2, r2
 1100 0082 42F02002 		orr	r2, r2, #32
 1101 0086 D2B2     		uxtb	r2, r2
 1102 0088 1A70     		strb	r2, [r3, #0]
 674:.\Generated_Source\PSoC5/CyLib.c ****         break;
 1103              		.loc 1 674 0
 1104 008a 11E0     		b	.L82
 1105              	.L78:
 675:.\Generated_Source\PSoC5/CyLib.c **** 
 676:.\Generated_Source\PSoC5/CyLib.c ****     case CY_IMO_SOURCE_IMO:
 677:.\Generated_Source\PSoC5/CyLib.c ****         CY_LIB_FASTCLK_IMO_CR_REG &= ((uint8)(~CY_LIB_FASTCLK_IMO_IMO));
 1106              		.loc 1 677 0
 1107 008c 44F20023 		movw	r3, #:lower16:1073758720
 1108 0090 C4F20003 		movt	r3, #:upper16:1073758720
 1109 0094 44F20022 		movw	r2, #:lower16:1073758720
 1110 0098 C4F20002 		movt	r2, #:upper16:1073758720
 1111 009c 1278     		ldrb	r2, [r2, #0]
 1112 009e D2B2     		uxtb	r2, r2
 1113 00a0 02F0DF02 		and	r2, r2, #223
 1114 00a4 1A70     		strb	r2, [r3, #0]
 678:.\Generated_Source\PSoC5/CyLib.c ****         break;
 1115              		.loc 1 678 0
 1116 00a6 03E0     		b	.L82
 1117              	.L83:
 679:.\Generated_Source\PSoC5/CyLib.c **** 
 680:.\Generated_Source\PSoC5/CyLib.c ****     default:
 681:.\Generated_Source\PSoC5/CyLib.c ****         /* Incorrect source value */
 682:.\Generated_Source\PSoC5/CyLib.c ****         CYASSERT(0u != 0u);
 1118              		.loc 1 682 0
 1119 00a8 4FF00000 		mov	r0, #0
 1120 00ac FFF7FEFF 		bl	CyHalt
 1121              	.L82:
 683:.\Generated_Source\PSoC5/CyLib.c ****         break;
 684:.\Generated_Source\PSoC5/CyLib.c ****     }
 685:.\Generated_Source\PSoC5/CyLib.c **** }
 1122              		.loc 1 685 0
 1123 00b0 07F10807 		add	r7, r7, #8
 1124 00b4 BD46     		mov	sp, r7
 1125 00b6 80BD     		pop	{r7, pc}
 1126              		.cfi_endproc
 1127              	.LFE9:
 1128              		.size	CyIMO_SetSource, .-CyIMO_SetSource
 1129              		.section	.text.CyIMO_EnableDoubler,"ax",%progbits
 1130              		.align	2
 1131              		.global	CyIMO_EnableDoubler
 1132              		.thumb
 1133              		.thumb_func
 1134              		.type	CyIMO_EnableDoubler, %function
 1135              	CyIMO_EnableDoubler:
ARM GAS  C:\Users\karunmj\AppData\Local\Temp\cceFJIz4.s 			page 33


 1136              	.LFB10:
 686:.\Generated_Source\PSoC5/CyLib.c **** 
 687:.\Generated_Source\PSoC5/CyLib.c **** 
 688:.\Generated_Source\PSoC5/CyLib.c **** /*******************************************************************************
 689:.\Generated_Source\PSoC5/CyLib.c **** * Function Name: CyIMO_EnableDoubler
 690:.\Generated_Source\PSoC5/CyLib.c **** ********************************************************************************
 691:.\Generated_Source\PSoC5/CyLib.c **** *
 692:.\Generated_Source\PSoC5/CyLib.c **** * Summary:
 693:.\Generated_Source\PSoC5/CyLib.c **** *  Enables the IMO doubler.  The 2x frequency clock is used to convert a 24 MHz
 694:.\Generated_Source\PSoC5/CyLib.c **** *  input to a 48 MHz output for use by the USB block.
 695:.\Generated_Source\PSoC5/CyLib.c **** *
 696:.\Generated_Source\PSoC5/CyLib.c **** * Parameters:
 697:.\Generated_Source\PSoC5/CyLib.c **** *  None
 698:.\Generated_Source\PSoC5/CyLib.c **** *
 699:.\Generated_Source\PSoC5/CyLib.c **** * Return:
 700:.\Generated_Source\PSoC5/CyLib.c **** *  None
 701:.\Generated_Source\PSoC5/CyLib.c **** *
 702:.\Generated_Source\PSoC5/CyLib.c **** *******************************************************************************/
 703:.\Generated_Source\PSoC5/CyLib.c **** void CyIMO_EnableDoubler(void) 
 704:.\Generated_Source\PSoC5/CyLib.c **** {
 1137              		.loc 1 704 0
 1138              		.cfi_startproc
 1139              		@ args = 0, pretend = 0, frame = 0
 1140              		@ frame_needed = 1, uses_anonymous_args = 0
 1141              		@ link register save eliminated.
 1142 0000 80B4     		push	{r7}
 1143              	.LCFI28:
 1144              		.cfi_def_cfa_offset 4
 1145 0002 00AF     		add	r7, sp, #0
 1146              		.cfi_offset 7, -4
 1147              	.LCFI29:
 1148              		.cfi_def_cfa_register 7
 705:.\Generated_Source\PSoC5/CyLib.c ****     /* Set the FASTCLK_IMO_CR_PTR regigster's 4th bit */
 706:.\Generated_Source\PSoC5/CyLib.c ****     CY_LIB_FASTCLK_IMO_CR_REG |= CY_LIB_FASTCLK_IMO_DOUBLER;
 1149              		.loc 1 706 0
 1150 0004 44F20023 		movw	r3, #:lower16:1073758720
 1151 0008 C4F20003 		movt	r3, #:upper16:1073758720
 1152 000c 44F20022 		movw	r2, #:lower16:1073758720
 1153 0010 C4F20002 		movt	r2, #:upper16:1073758720
 1154 0014 1278     		ldrb	r2, [r2, #0]
 1155 0016 D2B2     		uxtb	r2, r2
 1156 0018 42F01002 		orr	r2, r2, #16
 1157 001c D2B2     		uxtb	r2, r2
 1158 001e 1A70     		strb	r2, [r3, #0]
 707:.\Generated_Source\PSoC5/CyLib.c **** }
 1159              		.loc 1 707 0
 1160 0020 BD46     		mov	sp, r7
 1161 0022 80BC     		pop	{r7}
 1162 0024 7047     		bx	lr
 1163              		.cfi_endproc
 1164              	.LFE10:
 1165              		.size	CyIMO_EnableDoubler, .-CyIMO_EnableDoubler
 1166 0026 00BF     		.section	.text.CyIMO_DisableDoubler,"ax",%progbits
 1167              		.align	2
 1168              		.global	CyIMO_DisableDoubler
 1169              		.thumb
 1170              		.thumb_func
ARM GAS  C:\Users\karunmj\AppData\Local\Temp\cceFJIz4.s 			page 34


 1171              		.type	CyIMO_DisableDoubler, %function
 1172              	CyIMO_DisableDoubler:
 1173              	.LFB11:
 708:.\Generated_Source\PSoC5/CyLib.c **** 
 709:.\Generated_Source\PSoC5/CyLib.c **** 
 710:.\Generated_Source\PSoC5/CyLib.c **** /*******************************************************************************
 711:.\Generated_Source\PSoC5/CyLib.c **** * Function Name: CyIMO_DisableDoubler
 712:.\Generated_Source\PSoC5/CyLib.c **** ********************************************************************************
 713:.\Generated_Source\PSoC5/CyLib.c **** *
 714:.\Generated_Source\PSoC5/CyLib.c **** * Summary:
 715:.\Generated_Source\PSoC5/CyLib.c **** *   Disables the IMO doubler.
 716:.\Generated_Source\PSoC5/CyLib.c **** *
 717:.\Generated_Source\PSoC5/CyLib.c **** * Parameters:
 718:.\Generated_Source\PSoC5/CyLib.c **** *  None
 719:.\Generated_Source\PSoC5/CyLib.c **** *
 720:.\Generated_Source\PSoC5/CyLib.c **** * Return:
 721:.\Generated_Source\PSoC5/CyLib.c **** *  None
 722:.\Generated_Source\PSoC5/CyLib.c **** *
 723:.\Generated_Source\PSoC5/CyLib.c **** *******************************************************************************/
 724:.\Generated_Source\PSoC5/CyLib.c **** void CyIMO_DisableDoubler(void) 
 725:.\Generated_Source\PSoC5/CyLib.c **** {
 1174              		.loc 1 725 0
 1175              		.cfi_startproc
 1176              		@ args = 0, pretend = 0, frame = 0
 1177              		@ frame_needed = 1, uses_anonymous_args = 0
 1178              		@ link register save eliminated.
 1179 0000 80B4     		push	{r7}
 1180              	.LCFI30:
 1181              		.cfi_def_cfa_offset 4
 1182 0002 00AF     		add	r7, sp, #0
 1183              		.cfi_offset 7, -4
 1184              	.LCFI31:
 1185              		.cfi_def_cfa_register 7
 726:.\Generated_Source\PSoC5/CyLib.c ****     CY_LIB_FASTCLK_IMO_CR_REG &= ((uint8)(~CY_LIB_FASTCLK_IMO_DOUBLER));
 1186              		.loc 1 726 0
 1187 0004 44F20023 		movw	r3, #:lower16:1073758720
 1188 0008 C4F20003 		movt	r3, #:upper16:1073758720
 1189 000c 44F20022 		movw	r2, #:lower16:1073758720
 1190 0010 C4F20002 		movt	r2, #:upper16:1073758720
 1191 0014 1278     		ldrb	r2, [r2, #0]
 1192 0016 D2B2     		uxtb	r2, r2
 1193 0018 02F0EF02 		and	r2, r2, #239
 1194 001c 1A70     		strb	r2, [r3, #0]
 727:.\Generated_Source\PSoC5/CyLib.c **** }
 1195              		.loc 1 727 0
 1196 001e BD46     		mov	sp, r7
 1197 0020 80BC     		pop	{r7}
 1198 0022 7047     		bx	lr
 1199              		.cfi_endproc
 1200              	.LFE11:
 1201              		.size	CyIMO_DisableDoubler, .-CyIMO_DisableDoubler
 1202              		.section	.text.CyMasterClk_SetSource,"ax",%progbits
 1203              		.align	2
 1204              		.global	CyMasterClk_SetSource
 1205              		.thumb
 1206              		.thumb_func
 1207              		.type	CyMasterClk_SetSource, %function
ARM GAS  C:\Users\karunmj\AppData\Local\Temp\cceFJIz4.s 			page 35


 1208              	CyMasterClk_SetSource:
 1209              	.LFB12:
 728:.\Generated_Source\PSoC5/CyLib.c **** 
 729:.\Generated_Source\PSoC5/CyLib.c **** 
 730:.\Generated_Source\PSoC5/CyLib.c **** /*******************************************************************************
 731:.\Generated_Source\PSoC5/CyLib.c **** * Function Name: CyMasterClk_SetSource
 732:.\Generated_Source\PSoC5/CyLib.c **** ********************************************************************************
 733:.\Generated_Source\PSoC5/CyLib.c **** *
 734:.\Generated_Source\PSoC5/CyLib.c **** * Summary:
 735:.\Generated_Source\PSoC5/CyLib.c **** *  Sets the source of the master clock.
 736:.\Generated_Source\PSoC5/CyLib.c **** *
 737:.\Generated_Source\PSoC5/CyLib.c **** * Parameters:
 738:.\Generated_Source\PSoC5/CyLib.c **** *   source: One of the four available Master clock sources.
 739:.\Generated_Source\PSoC5/CyLib.c **** *     CY_MASTER_SOURCE_IMO
 740:.\Generated_Source\PSoC5/CyLib.c **** *     CY_MASTER_SOURCE_PLL
 741:.\Generated_Source\PSoC5/CyLib.c **** *     CY_MASTER_SOURCE_XTAL
 742:.\Generated_Source\PSoC5/CyLib.c **** *     CY_MASTER_SOURCE_DSI
 743:.\Generated_Source\PSoC5/CyLib.c **** *
 744:.\Generated_Source\PSoC5/CyLib.c **** * Return:
 745:.\Generated_Source\PSoC5/CyLib.c **** *  None
 746:.\Generated_Source\PSoC5/CyLib.c **** *
 747:.\Generated_Source\PSoC5/CyLib.c **** * Side Effects:
 748:.\Generated_Source\PSoC5/CyLib.c **** *  The current source and the new source must both be running and stable before
 749:.\Generated_Source\PSoC5/CyLib.c **** *  calling this function.
 750:.\Generated_Source\PSoC5/CyLib.c **** *
 751:.\Generated_Source\PSoC5/CyLib.c **** *  If as result of this function execution the CPU clock frequency is increased
 752:.\Generated_Source\PSoC5/CyLib.c **** *  then the number of clock cycles the cache will wait before it samples data
 753:.\Generated_Source\PSoC5/CyLib.c **** *  coming back from Flash must be adjusted by calling CyFlash_SetWaitCycles()
 754:.\Generated_Source\PSoC5/CyLib.c **** *  with appropriate parameter. It can be optionally called if CPU clock
 755:.\Generated_Source\PSoC5/CyLib.c **** *  frequency is lowered in order to improve CPU performance.
 756:.\Generated_Source\PSoC5/CyLib.c **** *  See CyFlash_SetWaitCycles() description for more information.
 757:.\Generated_Source\PSoC5/CyLib.c **** *
 758:.\Generated_Source\PSoC5/CyLib.c **** *******************************************************************************/
 759:.\Generated_Source\PSoC5/CyLib.c **** void CyMasterClk_SetSource(uint8 source) 
 760:.\Generated_Source\PSoC5/CyLib.c **** {
 1210              		.loc 1 760 0
 1211              		.cfi_startproc
 1212              		@ args = 0, pretend = 0, frame = 8
 1213              		@ frame_needed = 1, uses_anonymous_args = 0
 1214              		@ link register save eliminated.
 1215 0000 80B4     		push	{r7}
 1216              	.LCFI32:
 1217              		.cfi_def_cfa_offset 4
 1218 0002 83B0     		sub	sp, sp, #12
 1219              	.LCFI33:
 1220              		.cfi_def_cfa_offset 16
 1221 0004 00AF     		add	r7, sp, #0
 1222              		.cfi_offset 7, -4
 1223              	.LCFI34:
 1224              		.cfi_def_cfa_register 7
 1225 0006 0346     		mov	r3, r0
 1226 0008 FB71     		strb	r3, [r7, #7]
 761:.\Generated_Source\PSoC5/CyLib.c ****     #if(CY_PSOC5A)
 762:.\Generated_Source\PSoC5/CyLib.c **** 
 763:.\Generated_Source\PSoC5/CyLib.c ****         uint8 masterReg0;
 764:.\Generated_Source\PSoC5/CyLib.c **** 
 765:.\Generated_Source\PSoC5/CyLib.c ****         /* Read the current setting */
ARM GAS  C:\Users\karunmj\AppData\Local\Temp\cceFJIz4.s 			page 36


 766:.\Generated_Source\PSoC5/CyLib.c ****         masterReg0 = CY_LIB_CLKDIST_MSTR0_REG;
 767:.\Generated_Source\PSoC5/CyLib.c **** 
 768:.\Generated_Source\PSoC5/CyLib.c ****         /* Write a non-zero period to the master mux clock divider */
 769:.\Generated_Source\PSoC5/CyLib.c ****         if (masterReg0 == 0x00u)
 770:.\Generated_Source\PSoC5/CyLib.c ****         {
 771:.\Generated_Source\PSoC5/CyLib.c ****             CY_LIB_CLKDIST_MSTR0_REG = 3u;
 772:.\Generated_Source\PSoC5/CyLib.c ****         }
 773:.\Generated_Source\PSoC5/CyLib.c **** 
 774:.\Generated_Source\PSoC5/CyLib.c ****     #endif  /* (CY_PSOC5A) */
 775:.\Generated_Source\PSoC5/CyLib.c **** 
 776:.\Generated_Source\PSoC5/CyLib.c ****     CY_LIB_CLKDIST_MSTR1_REG = (CY_LIB_CLKDIST_MSTR1_REG & MASTER_CLK_SRC_CLEAR) |
 1227              		.loc 1 776 0
 1228 000a 44F20503 		movw	r3, #:lower16:1073758213
 1229 000e C4F20003 		movt	r3, #:upper16:1073758213
 1230 0012 44F20502 		movw	r2, #:lower16:1073758213
 1231 0016 C4F20002 		movt	r2, #:upper16:1073758213
 1232 001a 1278     		ldrb	r2, [r2, #0]
 1233 001c D2B2     		uxtb	r2, r2
 1234 001e 1146     		mov	r1, r2
 1235 0020 01F0FC01 		and	r1, r1, #252
 1236 0024 FA79     		ldrb	r2, [r7, #7]	@ zero_extendqisi2
 1237 0026 02F00302 		and	r2, r2, #3
 1238 002a 41EA0202 		orr	r2, r1, r2
 1239 002e D2B2     		uxtb	r2, r2
 1240 0030 1A70     		strb	r2, [r3, #0]
 777:.\Generated_Source\PSoC5/CyLib.c ****                                 (source & ((uint8)(~MASTER_CLK_SRC_CLEAR)));
 778:.\Generated_Source\PSoC5/CyLib.c **** 
 779:.\Generated_Source\PSoC5/CyLib.c ****     #if(CY_PSOC5A)
 780:.\Generated_Source\PSoC5/CyLib.c **** 
 781:.\Generated_Source\PSoC5/CyLib.c ****         /* Restore zero period (if desired) to the master mux clock divider */
 782:.\Generated_Source\PSoC5/CyLib.c ****         if (masterReg0 == 0x00u)
 783:.\Generated_Source\PSoC5/CyLib.c ****         {
 784:.\Generated_Source\PSoC5/CyLib.c ****             CY_LIB_CLKDIST_MSTR0_REG = 0u;
 785:.\Generated_Source\PSoC5/CyLib.c ****         }
 786:.\Generated_Source\PSoC5/CyLib.c **** 
 787:.\Generated_Source\PSoC5/CyLib.c ****     #endif  /* (CY_PSOC5A) */
 788:.\Generated_Source\PSoC5/CyLib.c **** }
 1241              		.loc 1 788 0
 1242 0032 07F10C07 		add	r7, r7, #12
 1243 0036 BD46     		mov	sp, r7
 1244 0038 80BC     		pop	{r7}
 1245 003a 7047     		bx	lr
 1246              		.cfi_endproc
 1247              	.LFE12:
 1248              		.size	CyMasterClk_SetSource, .-CyMasterClk_SetSource
 1249              		.section	.text.CyMasterClk_SetDivider,"ax",%progbits
 1250              		.align	2
 1251              		.global	CyMasterClk_SetDivider
 1252              		.thumb
 1253              		.thumb_func
 1254              		.type	CyMasterClk_SetDivider, %function
 1255              	CyMasterClk_SetDivider:
 1256              	.LFB13:
 789:.\Generated_Source\PSoC5/CyLib.c **** 
 790:.\Generated_Source\PSoC5/CyLib.c **** 
 791:.\Generated_Source\PSoC5/CyLib.c **** /*******************************************************************************
 792:.\Generated_Source\PSoC5/CyLib.c **** * Function Name: CyMasterClk_SetDivider
ARM GAS  C:\Users\karunmj\AppData\Local\Temp\cceFJIz4.s 			page 37


 793:.\Generated_Source\PSoC5/CyLib.c **** ********************************************************************************
 794:.\Generated_Source\PSoC5/CyLib.c **** *
 795:.\Generated_Source\PSoC5/CyLib.c **** * Summary:
 796:.\Generated_Source\PSoC5/CyLib.c **** *  Sets the divider value used to generate Master Clock.
 797:.\Generated_Source\PSoC5/CyLib.c **** *
 798:.\Generated_Source\PSoC5/CyLib.c **** * Parameters:
 799:.\Generated_Source\PSoC5/CyLib.c **** *  uint8 divider:
 800:.\Generated_Source\PSoC5/CyLib.c **** *   Valid range [0-255]. The clock will be divided by this value + 1.
 801:.\Generated_Source\PSoC5/CyLib.c **** *   For example to divide by 2 this parameter should be set to 1.
 802:.\Generated_Source\PSoC5/CyLib.c **** *
 803:.\Generated_Source\PSoC5/CyLib.c **** * Return:
 804:.\Generated_Source\PSoC5/CyLib.c **** *  None
 805:.\Generated_Source\PSoC5/CyLib.c **** *
 806:.\Generated_Source\PSoC5/CyLib.c **** * Side Effects:
 807:.\Generated_Source\PSoC5/CyLib.c **** *  If as result of this function execution the CPU clock frequency is increased
 808:.\Generated_Source\PSoC5/CyLib.c **** *  then the number of clock cycles the cache will wait before it samples data
 809:.\Generated_Source\PSoC5/CyLib.c **** *  coming back from Flash must be adjusted by calling CyFlash_SetWaitCycles()
 810:.\Generated_Source\PSoC5/CyLib.c **** *  with appropriate parameter. It can be optionally called if CPU clock
 811:.\Generated_Source\PSoC5/CyLib.c **** *  frequency is lowered in order to improve CPU performance.
 812:.\Generated_Source\PSoC5/CyLib.c **** *  See CyFlash_SetWaitCycles() description for more information.
 813:.\Generated_Source\PSoC5/CyLib.c **** *
 814:.\Generated_Source\PSoC5/CyLib.c **** *  When changing the Master or Bus clock divider value from div-by-n to div-by-1
 815:.\Generated_Source\PSoC5/CyLib.c **** *  the first clock cycle output after the div-by-1 can be up to 4 ns shorter
 816:.\Generated_Source\PSoC5/CyLib.c **** *  than the final/expected div-by-1 period.
 817:.\Generated_Source\PSoC5/CyLib.c **** *
 818:.\Generated_Source\PSoC5/CyLib.c **** *******************************************************************************/
 819:.\Generated_Source\PSoC5/CyLib.c **** void CyMasterClk_SetDivider(uint8 divider) 
 820:.\Generated_Source\PSoC5/CyLib.c **** {
 1257              		.loc 1 820 0
 1258              		.cfi_startproc
 1259              		@ args = 0, pretend = 0, frame = 8
 1260              		@ frame_needed = 1, uses_anonymous_args = 0
 1261              		@ link register save eliminated.
 1262 0000 80B4     		push	{r7}
 1263              	.LCFI35:
 1264              		.cfi_def_cfa_offset 4
 1265 0002 83B0     		sub	sp, sp, #12
 1266              	.LCFI36:
 1267              		.cfi_def_cfa_offset 16
 1268 0004 00AF     		add	r7, sp, #0
 1269              		.cfi_offset 7, -4
 1270              	.LCFI37:
 1271              		.cfi_def_cfa_register 7
 1272 0006 0346     		mov	r3, r0
 1273 0008 FB71     		strb	r3, [r7, #7]
 821:.\Generated_Source\PSoC5/CyLib.c ****     CY_LIB_CLKDIST_MSTR0_REG = divider;
 1274              		.loc 1 821 0
 1275 000a 44F20403 		movw	r3, #:lower16:1073758212
 1276 000e C4F20003 		movt	r3, #:upper16:1073758212
 1277 0012 FA79     		ldrb	r2, [r7, #7]
 1278 0014 1A70     		strb	r2, [r3, #0]
 822:.\Generated_Source\PSoC5/CyLib.c **** }
 1279              		.loc 1 822 0
 1280 0016 07F10C07 		add	r7, r7, #12
 1281 001a BD46     		mov	sp, r7
 1282 001c 80BC     		pop	{r7}
 1283 001e 7047     		bx	lr
ARM GAS  C:\Users\karunmj\AppData\Local\Temp\cceFJIz4.s 			page 38


 1284              		.cfi_endproc
 1285              	.LFE13:
 1286              		.size	CyMasterClk_SetDivider, .-CyMasterClk_SetDivider
 1287              		.section	.text.CyBusClk_Internal_SetDivider,"ax",%progbits
 1288              		.align	2
 1289              		.thumb
 1290              		.thumb_func
 1291              		.type	CyBusClk_Internal_SetDivider, %function
 1292              	CyBusClk_Internal_SetDivider:
 1293              	.LFB14:
 823:.\Generated_Source\PSoC5/CyLib.c **** 
 824:.\Generated_Source\PSoC5/CyLib.c **** 
 825:.\Generated_Source\PSoC5/CyLib.c **** /*******************************************************************************
 826:.\Generated_Source\PSoC5/CyLib.c **** * Function Name: CyBusClk_Internal_SetDivider
 827:.\Generated_Source\PSoC5/CyLib.c **** ********************************************************************************
 828:.\Generated_Source\PSoC5/CyLib.c **** *
 829:.\Generated_Source\PSoC5/CyLib.c **** * Summary:
 830:.\Generated_Source\PSoC5/CyLib.c **** *  Function used by CyBusClk_SetDivider(). For internal use only.
 831:.\Generated_Source\PSoC5/CyLib.c **** *
 832:.\Generated_Source\PSoC5/CyLib.c **** * Parameters:
 833:.\Generated_Source\PSoC5/CyLib.c **** *   divider: Valid range [0-65535].
 834:.\Generated_Source\PSoC5/CyLib.c **** *   The clock will be divided by this value + 1.
 835:.\Generated_Source\PSoC5/CyLib.c **** *   For example to divide by 2 this parameter should be set to 1.
 836:.\Generated_Source\PSoC5/CyLib.c **** *
 837:.\Generated_Source\PSoC5/CyLib.c **** * Return:
 838:.\Generated_Source\PSoC5/CyLib.c **** *  None
 839:.\Generated_Source\PSoC5/CyLib.c **** *
 840:.\Generated_Source\PSoC5/CyLib.c **** *******************************************************************************/
 841:.\Generated_Source\PSoC5/CyLib.c **** static void CyBusClk_Internal_SetDivider(uint16 divider)
 842:.\Generated_Source\PSoC5/CyLib.c **** {
 1294              		.loc 1 842 0
 1295              		.cfi_startproc
 1296              		@ args = 0, pretend = 0, frame = 8
 1297              		@ frame_needed = 1, uses_anonymous_args = 0
 1298              		@ link register save eliminated.
 1299 0000 80B4     		push	{r7}
 1300              	.LCFI38:
 1301              		.cfi_def_cfa_offset 4
 1302 0002 83B0     		sub	sp, sp, #12
 1303              	.LCFI39:
 1304              		.cfi_def_cfa_offset 16
 1305 0004 00AF     		add	r7, sp, #0
 1306              		.cfi_offset 7, -4
 1307              	.LCFI40:
 1308              		.cfi_def_cfa_register 7
 1309 0006 0346     		mov	r3, r0
 1310 0008 FB80     		strh	r3, [r7, #6]	@ movhi
 843:.\Generated_Source\PSoC5/CyLib.c ****     /* Mask bits to enable shadow loads  */
 844:.\Generated_Source\PSoC5/CyLib.c ****     CY_LIB_CLKDIST_AMASK_REG &= CY_LIB_CLKDIST_AMASK_MASK;
 1311              		.loc 1 844 0
 1312 000a 44F21403 		movw	r3, #:lower16:1073758228
 1313 000e C4F20003 		movt	r3, #:upper16:1073758228
 1314 0012 44F21402 		movw	r2, #:lower16:1073758228
 1315 0016 C4F20002 		movt	r2, #:upper16:1073758228
 1316 001a 1278     		ldrb	r2, [r2, #0]
 1317 001c D2B2     		uxtb	r2, r2
 1318 001e 02F0F002 		and	r2, r2, #240
ARM GAS  C:\Users\karunmj\AppData\Local\Temp\cceFJIz4.s 			page 39


 1319 0022 1A70     		strb	r2, [r3, #0]
 845:.\Generated_Source\PSoC5/CyLib.c ****     CY_LIB_CLKDIST_DMASK_REG  = CY_LIB_CLKDIST_DMASK_MASK;
 1320              		.loc 1 845 0
 1321 0024 44F21003 		movw	r3, #:lower16:1073758224
 1322 0028 C4F20003 		movt	r3, #:upper16:1073758224
 1323 002c 4FF00002 		mov	r2, #0
 1324 0030 1A70     		strb	r2, [r3, #0]
 846:.\Generated_Source\PSoC5/CyLib.c **** 
 847:.\Generated_Source\PSoC5/CyLib.c ****     /* Enable mask bits to enable shadow loads */
 848:.\Generated_Source\PSoC5/CyLib.c ****     CY_LIB_CLKDIST_BCFG2_REG |= CY_LIB_CLKDIST_BCFG2_MASK;
 1325              		.loc 1 848 0
 1326 0032 44F20803 		movw	r3, #:lower16:1073758216
 1327 0036 C4F20003 		movt	r3, #:upper16:1073758216
 1328 003a 44F20802 		movw	r2, #:lower16:1073758216
 1329 003e C4F20002 		movt	r2, #:upper16:1073758216
 1330 0042 1278     		ldrb	r2, [r2, #0]
 1331 0044 D2B2     		uxtb	r2, r2
 1332 0046 6FEA4262 		mvn	r2, r2, lsl #25
 1333 004a 6FEA5262 		mvn	r2, r2, lsr #25
 1334 004e D2B2     		uxtb	r2, r2
 1335 0050 1A70     		strb	r2, [r3, #0]
 849:.\Generated_Source\PSoC5/CyLib.c **** 
 850:.\Generated_Source\PSoC5/CyLib.c ****     /* Update Shadow Divider Value Register with the new divider */
 851:.\Generated_Source\PSoC5/CyLib.c ****     CY_LIB_CLKDIST_WRK_LSB_REG = LO8(divider);
 1336              		.loc 1 851 0
 1337 0052 44F20203 		movw	r3, #:lower16:1073758210
 1338 0056 C4F20003 		movt	r3, #:upper16:1073758210
 1339 005a FA88     		ldrh	r2, [r7, #6]	@ movhi
 1340 005c D2B2     		uxtb	r2, r2
 1341 005e 1A70     		strb	r2, [r3, #0]
 852:.\Generated_Source\PSoC5/CyLib.c ****     CY_LIB_CLKDIST_WRK_MSB_REG = HI8(divider);
 1342              		.loc 1 852 0
 1343 0060 44F20303 		movw	r3, #:lower16:1073758211
 1344 0064 C4F20003 		movt	r3, #:upper16:1073758211
 1345 0068 FA88     		ldrh	r2, [r7, #6]
 1346 006a 4FEA1222 		lsr	r2, r2, #8
 1347 006e 92B2     		uxth	r2, r2
 1348 0070 D2B2     		uxtb	r2, r2
 1349 0072 1A70     		strb	r2, [r3, #0]
 853:.\Generated_Source\PSoC5/CyLib.c **** 
 854:.\Generated_Source\PSoC5/CyLib.c **** 
 855:.\Generated_Source\PSoC5/CyLib.c ****     /***************************************************************************
 856:.\Generated_Source\PSoC5/CyLib.c ****     * Copy shadow value defined in Shadow Divider Value Register
 857:.\Generated_Source\PSoC5/CyLib.c ****     * (CY_LIB_CLKDIST_WRK_LSB_REG and CY_LIB_CLKDIST_WRK_MSB_REG) to all
 858:.\Generated_Source\PSoC5/CyLib.c ****     * dividers selected in Analog and Digital Clock Mask Registers
 859:.\Generated_Source\PSoC5/CyLib.c ****     * (CY_LIB_CLKDIST_AMASK_REG and CY_LIB_CLKDIST_DMASK_REG).
 860:.\Generated_Source\PSoC5/CyLib.c ****     ***************************************************************************/
 861:.\Generated_Source\PSoC5/CyLib.c ****     CY_LIB_CLKDIST_LD_REG |= CY_LIB_CLKDIST_LD_LOAD;
 1350              		.loc 1 861 0
 1351 0074 44F20103 		movw	r3, #:lower16:1073758209
 1352 0078 C4F20003 		movt	r3, #:upper16:1073758209
 1353 007c 44F20102 		movw	r2, #:lower16:1073758209
 1354 0080 C4F20002 		movt	r2, #:upper16:1073758209
 1355 0084 1278     		ldrb	r2, [r2, #0]
 1356 0086 D2B2     		uxtb	r2, r2
 1357 0088 42F00102 		orr	r2, r2, #1
 1358 008c D2B2     		uxtb	r2, r2
ARM GAS  C:\Users\karunmj\AppData\Local\Temp\cceFJIz4.s 			page 40


 1359 008e 1A70     		strb	r2, [r3, #0]
 862:.\Generated_Source\PSoC5/CyLib.c **** }
 1360              		.loc 1 862 0
 1361 0090 07F10C07 		add	r7, r7, #12
 1362 0094 BD46     		mov	sp, r7
 1363 0096 80BC     		pop	{r7}
 1364 0098 7047     		bx	lr
 1365              		.cfi_endproc
 1366              	.LFE14:
 1367              		.size	CyBusClk_Internal_SetDivider, .-CyBusClk_Internal_SetDivider
 1368 009a 00BF     		.section	.text.CyBusClk_SetDivider,"ax",%progbits
 1369              		.align	2
 1370              		.global	CyBusClk_SetDivider
 1371              		.thumb
 1372              		.thumb_func
 1373              		.type	CyBusClk_SetDivider, %function
 1374              	CyBusClk_SetDivider:
 1375              	.LFB15:
 863:.\Generated_Source\PSoC5/CyLib.c **** 
 864:.\Generated_Source\PSoC5/CyLib.c **** 
 865:.\Generated_Source\PSoC5/CyLib.c **** /*******************************************************************************
 866:.\Generated_Source\PSoC5/CyLib.c **** * Function Name: CyBusClk_SetDivider
 867:.\Generated_Source\PSoC5/CyLib.c **** ********************************************************************************
 868:.\Generated_Source\PSoC5/CyLib.c **** *
 869:.\Generated_Source\PSoC5/CyLib.c **** * Summary:
 870:.\Generated_Source\PSoC5/CyLib.c **** *  Sets the divider value used to generate Bus Clock.
 871:.\Generated_Source\PSoC5/CyLib.c **** *
 872:.\Generated_Source\PSoC5/CyLib.c **** * Parameters:
 873:.\Generated_Source\PSoC5/CyLib.c **** *  divider: Valid range [0-65535]. The clock will be divided by this value + 1.
 874:.\Generated_Source\PSoC5/CyLib.c **** *  For example to divide by 2 this parameter should be set to 1.
 875:.\Generated_Source\PSoC5/CyLib.c **** *
 876:.\Generated_Source\PSoC5/CyLib.c **** * Return:
 877:.\Generated_Source\PSoC5/CyLib.c **** *  None
 878:.\Generated_Source\PSoC5/CyLib.c **** *
 879:.\Generated_Source\PSoC5/CyLib.c **** * Side Effects:
 880:.\Generated_Source\PSoC5/CyLib.c **** *  If as result of this function execution the CPU clock frequency is increased
 881:.\Generated_Source\PSoC5/CyLib.c **** *  then the number of clock cycles the cache will wait before it samples data
 882:.\Generated_Source\PSoC5/CyLib.c **** *  coming back from Flash must be adjusted by calling CyFlash_SetWaitCycles()
 883:.\Generated_Source\PSoC5/CyLib.c **** *  with appropriate parameter. It can be optionally called if CPU clock
 884:.\Generated_Source\PSoC5/CyLib.c **** *  frequency is lowered in order to improve CPU performance.
 885:.\Generated_Source\PSoC5/CyLib.c **** *  See CyFlash_SetWaitCycles() description for more information.
 886:.\Generated_Source\PSoC5/CyLib.c **** *
 887:.\Generated_Source\PSoC5/CyLib.c **** *******************************************************************************/
 888:.\Generated_Source\PSoC5/CyLib.c **** void CyBusClk_SetDivider(uint16 divider) 
 889:.\Generated_Source\PSoC5/CyLib.c **** {
 1376              		.loc 1 889 0
 1377              		.cfi_startproc
 1378              		@ args = 0, pretend = 0, frame = 16
 1379              		@ frame_needed = 1, uses_anonymous_args = 0
 1380 0000 80B5     		push	{r7, lr}
 1381              	.LCFI41:
 1382              		.cfi_def_cfa_offset 8
 1383 0002 84B0     		sub	sp, sp, #16
 1384              	.LCFI42:
 1385              		.cfi_def_cfa_offset 24
 1386 0004 00AF     		add	r7, sp, #0
 1387              		.cfi_offset 14, -4
ARM GAS  C:\Users\karunmj\AppData\Local\Temp\cceFJIz4.s 			page 41


 1388              		.cfi_offset 7, -8
 1389              	.LCFI43:
 1390              		.cfi_def_cfa_register 7
 1391 0006 0346     		mov	r3, r0
 1392 0008 FB80     		strh	r3, [r7, #6]	@ movhi
 890:.\Generated_Source\PSoC5/CyLib.c ****     uint8  masterClkDiv;
 891:.\Generated_Source\PSoC5/CyLib.c ****     uint16 busClkDiv;
 892:.\Generated_Source\PSoC5/CyLib.c ****     uint8 interruptState;
 893:.\Generated_Source\PSoC5/CyLib.c **** 
 894:.\Generated_Source\PSoC5/CyLib.c ****     interruptState = CyEnterCriticalSection();
 1393              		.loc 1 894 0
 1394 000a FFF7FEFF 		bl	CyEnterCriticalSection
 1395 000e 0346     		mov	r3, r0
 1396 0010 FB73     		strb	r3, [r7, #15]
 895:.\Generated_Source\PSoC5/CyLib.c **** 
 896:.\Generated_Source\PSoC5/CyLib.c ****     /* Work around to set the bus clock divider value */
 897:.\Generated_Source\PSoC5/CyLib.c ****     busClkDiv = ((uint16)(((uint16)(CY_LIB_CLKDIST_BCFG_MSB_REG)) << 8u)) | CY_LIB_CLKDIST_BCFG_LSB
 1397              		.loc 1 897 0
 1398 0012 44F20703 		movw	r3, #:lower16:1073758215
 1399 0016 C4F20003 		movt	r3, #:upper16:1073758215
 1400 001a 1B78     		ldrb	r3, [r3, #0]
 1401 001c DBB2     		uxtb	r3, r3
 1402 001e 4FEA0323 		lsl	r3, r3, #8
 1403 0022 9AB2     		uxth	r2, r3
 1404 0024 44F20603 		movw	r3, #:lower16:1073758214
 1405 0028 C4F20003 		movt	r3, #:upper16:1073758214
 1406 002c 1B78     		ldrb	r3, [r3, #0]
 1407 002e DBB2     		uxtb	r3, r3
 1408 0030 42EA0303 		orr	r3, r2, r3
 1409 0034 BB81     		strh	r3, [r7, #12]	@ movhi
 898:.\Generated_Source\PSoC5/CyLib.c **** 
 899:.\Generated_Source\PSoC5/CyLib.c ****     if ((divider == 0u) || (busClkDiv == 0u))
 1410              		.loc 1 899 0
 1411 0036 FB88     		ldrh	r3, [r7, #6]
 1412 0038 002B     		cmp	r3, #0
 1413 003a 02D0     		beq	.L95
 1414 003c BB89     		ldrh	r3, [r7, #12]
 1415 003e 002B     		cmp	r3, #0
 1416 0040 38D1     		bne	.L96
 1417              	.L95:
 900:.\Generated_Source\PSoC5/CyLib.c ****     {
 901:.\Generated_Source\PSoC5/CyLib.c ****         /* Save away the master clock divider value */
 902:.\Generated_Source\PSoC5/CyLib.c ****         masterClkDiv = CY_LIB_CLKDIST_MSTR0_REG;
 1418              		.loc 1 902 0
 1419 0042 44F20403 		movw	r3, #:lower16:1073758212
 1420 0046 C4F20003 		movt	r3, #:upper16:1073758212
 1421 004a 1B78     		ldrb	r3, [r3, #0]
 1422 004c FB72     		strb	r3, [r7, #11]
 903:.\Generated_Source\PSoC5/CyLib.c **** 
 904:.\Generated_Source\PSoC5/CyLib.c ****         if (masterClkDiv < CY_LIB_CLKDIST_MASTERCLK_DIV)
 1423              		.loc 1 904 0
 1424 004e FB7A     		ldrb	r3, [r7, #11]	@ zero_extendqisi2
 1425 0050 062B     		cmp	r3, #6
 1426 0052 03D8     		bhi	.L97
 905:.\Generated_Source\PSoC5/CyLib.c ****         {
 906:.\Generated_Source\PSoC5/CyLib.c ****             /* Set master clock divider to 7 */
 907:.\Generated_Source\PSoC5/CyLib.c ****             CyMasterClk_SetDivider(CY_LIB_CLKDIST_MASTERCLK_DIV);
ARM GAS  C:\Users\karunmj\AppData\Local\Temp\cceFJIz4.s 			page 42


 1427              		.loc 1 907 0
 1428 0054 4FF00700 		mov	r0, #7
 1429 0058 FFF7FEFF 		bl	CyMasterClk_SetDivider
 1430              	.L97:
 908:.\Generated_Source\PSoC5/CyLib.c ****         }
 909:.\Generated_Source\PSoC5/CyLib.c **** 
 910:.\Generated_Source\PSoC5/CyLib.c ****         if (divider == 0u)
 1431              		.loc 1 910 0
 1432 005c FB88     		ldrh	r3, [r7, #6]
 1433 005e 002B     		cmp	r3, #0
 1434 0060 12D1     		bne	.L98
 911:.\Generated_Source\PSoC5/CyLib.c ****         {
 912:.\Generated_Source\PSoC5/CyLib.c ****             /* Set the SSS bit and the divider register desired value */
 913:.\Generated_Source\PSoC5/CyLib.c ****             CY_LIB_CLKDIST_BCFG2_REG |= CY_LIB_CLKDIST_BCFG2_SSS;
 1435              		.loc 1 913 0
 1436 0062 44F20803 		movw	r3, #:lower16:1073758216
 1437 0066 C4F20003 		movt	r3, #:upper16:1073758216
 1438 006a 44F20802 		movw	r2, #:lower16:1073758216
 1439 006e C4F20002 		movt	r2, #:upper16:1073758216
 1440 0072 1278     		ldrb	r2, [r2, #0]
 1441 0074 D2B2     		uxtb	r2, r2
 1442 0076 42F04002 		orr	r2, r2, #64
 1443 007a D2B2     		uxtb	r2, r2
 1444 007c 1A70     		strb	r2, [r3, #0]
 914:.\Generated_Source\PSoC5/CyLib.c ****             CyBusClk_Internal_SetDivider(divider);
 1445              		.loc 1 914 0
 1446 007e FB88     		ldrh	r3, [r7, #6]
 1447 0080 1846     		mov	r0, r3
 1448 0082 FFF7FEFF 		bl	CyBusClk_Internal_SetDivider
 1449 0086 10E0     		b	.L99
 1450              	.L98:
 915:.\Generated_Source\PSoC5/CyLib.c ****         }
 916:.\Generated_Source\PSoC5/CyLib.c ****         else
 917:.\Generated_Source\PSoC5/CyLib.c ****         {
 918:.\Generated_Source\PSoC5/CyLib.c ****             CyBusClk_Internal_SetDivider(divider);
 1451              		.loc 1 918 0
 1452 0088 FB88     		ldrh	r3, [r7, #6]
 1453 008a 1846     		mov	r0, r3
 1454 008c FFF7FEFF 		bl	CyBusClk_Internal_SetDivider
 919:.\Generated_Source\PSoC5/CyLib.c ****             CY_LIB_CLKDIST_BCFG2_REG &= ((uint8)(~CY_LIB_CLKDIST_BCFG2_SSS));
 1455              		.loc 1 919 0
 1456 0090 44F20803 		movw	r3, #:lower16:1073758216
 1457 0094 C4F20003 		movt	r3, #:upper16:1073758216
 1458 0098 44F20802 		movw	r2, #:lower16:1073758216
 1459 009c C4F20002 		movt	r2, #:upper16:1073758216
 1460 00a0 1278     		ldrb	r2, [r2, #0]
 1461 00a2 D2B2     		uxtb	r2, r2
 1462 00a4 02F0BF02 		and	r2, r2, #191
 1463 00a8 1A70     		strb	r2, [r3, #0]
 1464              	.L99:
 920:.\Generated_Source\PSoC5/CyLib.c ****         }
 921:.\Generated_Source\PSoC5/CyLib.c **** 
 922:.\Generated_Source\PSoC5/CyLib.c ****         /* Restore the master clock */
 923:.\Generated_Source\PSoC5/CyLib.c ****         CyMasterClk_SetDivider(masterClkDiv);
 1465              		.loc 1 923 0
 1466 00aa FB7A     		ldrb	r3, [r7, #11]	@ zero_extendqisi2
 1467 00ac 1846     		mov	r0, r3
ARM GAS  C:\Users\karunmj\AppData\Local\Temp\cceFJIz4.s 			page 43


 1468 00ae FFF7FEFF 		bl	CyMasterClk_SetDivider
 1469              		.loc 1 899 0
 1470 00b2 03E0     		b	.L100
 1471              	.L96:
 924:.\Generated_Source\PSoC5/CyLib.c ****     }
 925:.\Generated_Source\PSoC5/CyLib.c ****     else
 926:.\Generated_Source\PSoC5/CyLib.c ****     {
 927:.\Generated_Source\PSoC5/CyLib.c ****         CyBusClk_Internal_SetDivider(divider);
 1472              		.loc 1 927 0
 1473 00b4 FB88     		ldrh	r3, [r7, #6]
 1474 00b6 1846     		mov	r0, r3
 1475 00b8 FFF7FEFF 		bl	CyBusClk_Internal_SetDivider
 1476              	.L100:
 928:.\Generated_Source\PSoC5/CyLib.c ****     }
 929:.\Generated_Source\PSoC5/CyLib.c **** 
 930:.\Generated_Source\PSoC5/CyLib.c ****     CyExitCriticalSection(interruptState);
 1477              		.loc 1 930 0
 1478 00bc FB7B     		ldrb	r3, [r7, #15]	@ zero_extendqisi2
 1479 00be 1846     		mov	r0, r3
 1480 00c0 FFF7FEFF 		bl	CyExitCriticalSection
 931:.\Generated_Source\PSoC5/CyLib.c **** }
 1481              		.loc 1 931 0
 1482 00c4 07F11007 		add	r7, r7, #16
 1483 00c8 BD46     		mov	sp, r7
 1484 00ca 80BD     		pop	{r7, pc}
 1485              		.cfi_endproc
 1486              	.LFE15:
 1487              		.size	CyBusClk_SetDivider, .-CyBusClk_SetDivider
 1488              		.section	.text.CyUsbClk_SetSource,"ax",%progbits
 1489              		.align	2
 1490              		.global	CyUsbClk_SetSource
 1491              		.thumb
 1492              		.thumb_func
 1493              		.type	CyUsbClk_SetSource, %function
 1494              	CyUsbClk_SetSource:
 1495              	.LFB16:
 932:.\Generated_Source\PSoC5/CyLib.c **** 
 933:.\Generated_Source\PSoC5/CyLib.c **** 
 934:.\Generated_Source\PSoC5/CyLib.c **** #if(CY_PSOC3)
 935:.\Generated_Source\PSoC5/CyLib.c **** 
 936:.\Generated_Source\PSoC5/CyLib.c ****     /*******************************************************************************
 937:.\Generated_Source\PSoC5/CyLib.c ****     * Function Name: CyCpuClk_SetDivider
 938:.\Generated_Source\PSoC5/CyLib.c ****     ********************************************************************************
 939:.\Generated_Source\PSoC5/CyLib.c ****     *
 940:.\Generated_Source\PSoC5/CyLib.c ****     * Summary:
 941:.\Generated_Source\PSoC5/CyLib.c ****     *  Sets the divider value used to generate the CPU Clock. Only applicable for
 942:.\Generated_Source\PSoC5/CyLib.c ****     *  PSoC 3 parts.
 943:.\Generated_Source\PSoC5/CyLib.c ****     *
 944:.\Generated_Source\PSoC5/CyLib.c ****     * Parameters:
 945:.\Generated_Source\PSoC5/CyLib.c ****     *  divider: Valid range [0-15]. The clock will be divided by this value + 1.
 946:.\Generated_Source\PSoC5/CyLib.c ****     *  For example to divide by 2 this parameter should be set to 1.
 947:.\Generated_Source\PSoC5/CyLib.c ****     *
 948:.\Generated_Source\PSoC5/CyLib.c ****     * Return:
 949:.\Generated_Source\PSoC5/CyLib.c ****     *  None
 950:.\Generated_Source\PSoC5/CyLib.c ****     *
 951:.\Generated_Source\PSoC5/CyLib.c ****     * Side Effects:
 952:.\Generated_Source\PSoC5/CyLib.c ****     *  If as result of this function execution the CPU clock frequency is increased
ARM GAS  C:\Users\karunmj\AppData\Local\Temp\cceFJIz4.s 			page 44


 953:.\Generated_Source\PSoC5/CyLib.c ****     *  then the number of clock cycles the cache will wait before it samples data
 954:.\Generated_Source\PSoC5/CyLib.c ****     *  coming back from Flash must be adjusted by calling CyFlash_SetWaitCycles()
 955:.\Generated_Source\PSoC5/CyLib.c ****     *  with appropriate parameter. It can be optionally called if CPU clock
 956:.\Generated_Source\PSoC5/CyLib.c ****     *  frequency is lowered in order to improve CPU performance.
 957:.\Generated_Source\PSoC5/CyLib.c ****     *  See CyFlash_SetWaitCycles() description for more information.
 958:.\Generated_Source\PSoC5/CyLib.c ****     *
 959:.\Generated_Source\PSoC5/CyLib.c ****     *******************************************************************************/
 960:.\Generated_Source\PSoC5/CyLib.c ****     void CyCpuClk_SetDivider(uint8 divider) 
 961:.\Generated_Source\PSoC5/CyLib.c ****     {
 962:.\Generated_Source\PSoC5/CyLib.c ****             CLKDIST_MSTR1 = (CLKDIST_MSTR1 & CLKDIST_MSTR1_DIV_CLEAR) |
 963:.\Generated_Source\PSoC5/CyLib.c ****                                 ((uint8)(divider << CLKDIST_DIV_POSITION));
 964:.\Generated_Source\PSoC5/CyLib.c ****     }
 965:.\Generated_Source\PSoC5/CyLib.c **** 
 966:.\Generated_Source\PSoC5/CyLib.c **** #endif /* (CY_PSOC3) */
 967:.\Generated_Source\PSoC5/CyLib.c **** 
 968:.\Generated_Source\PSoC5/CyLib.c **** 
 969:.\Generated_Source\PSoC5/CyLib.c **** /*******************************************************************************
 970:.\Generated_Source\PSoC5/CyLib.c **** * Function Name: CyUsbClk_SetSource
 971:.\Generated_Source\PSoC5/CyLib.c **** ********************************************************************************
 972:.\Generated_Source\PSoC5/CyLib.c **** *
 973:.\Generated_Source\PSoC5/CyLib.c **** * Summary:
 974:.\Generated_Source\PSoC5/CyLib.c **** *  Sets the source of the USB clock.
 975:.\Generated_Source\PSoC5/CyLib.c **** *
 976:.\Generated_Source\PSoC5/CyLib.c **** * Parameters:
 977:.\Generated_Source\PSoC5/CyLib.c **** *  source: One of the four available USB clock sources
 978:.\Generated_Source\PSoC5/CyLib.c **** *             USB_CLK_IMO2X     - IMO 2x
 979:.\Generated_Source\PSoC5/CyLib.c **** *             USB_CLK_IMO       - IMO
 980:.\Generated_Source\PSoC5/CyLib.c **** *             USB_CLK_PLL       - PLL
 981:.\Generated_Source\PSoC5/CyLib.c **** *             USB_CLK_DSI       - DSI
 982:.\Generated_Source\PSoC5/CyLib.c **** *
 983:.\Generated_Source\PSoC5/CyLib.c **** * Return:
 984:.\Generated_Source\PSoC5/CyLib.c **** *  None
 985:.\Generated_Source\PSoC5/CyLib.c **** *
 986:.\Generated_Source\PSoC5/CyLib.c **** *******************************************************************************/
 987:.\Generated_Source\PSoC5/CyLib.c **** void CyUsbClk_SetSource(uint8 source) 
 988:.\Generated_Source\PSoC5/CyLib.c **** {
 1496              		.loc 1 988 0
 1497              		.cfi_startproc
 1498              		@ args = 0, pretend = 0, frame = 8
 1499              		@ frame_needed = 1, uses_anonymous_args = 0
 1500              		@ link register save eliminated.
 1501 0000 80B4     		push	{r7}
 1502              	.LCFI44:
 1503              		.cfi_def_cfa_offset 4
 1504 0002 83B0     		sub	sp, sp, #12
 1505              	.LCFI45:
 1506              		.cfi_def_cfa_offset 16
 1507 0004 00AF     		add	r7, sp, #0
 1508              		.cfi_offset 7, -4
 1509              	.LCFI46:
 1510              		.cfi_def_cfa_register 7
 1511 0006 0346     		mov	r3, r0
 1512 0008 FB71     		strb	r3, [r7, #7]
 989:.\Generated_Source\PSoC5/CyLib.c ****     CLKDIST_UCFG = (CLKDIST_UCFG & ((uint8)(~USB_CLKDIST_CONFIG_MASK))) |
 1513              		.loc 1 989 0
 1514 000a 44F20903 		movw	r3, #:lower16:1073758217
 1515 000e C4F20003 		movt	r3, #:upper16:1073758217
ARM GAS  C:\Users\karunmj\AppData\Local\Temp\cceFJIz4.s 			page 45


 1516 0012 44F20902 		movw	r2, #:lower16:1073758217
 1517 0016 C4F20002 		movt	r2, #:upper16:1073758217
 1518 001a 1278     		ldrb	r2, [r2, #0]
 1519 001c D2B2     		uxtb	r2, r2
 1520 001e 1146     		mov	r1, r2
 1521 0020 01F0FC01 		and	r1, r1, #252
 1522 0024 FA79     		ldrb	r2, [r7, #7]	@ zero_extendqisi2
 1523 0026 02F00302 		and	r2, r2, #3
 1524 002a 41EA0202 		orr	r2, r1, r2
 1525 002e D2B2     		uxtb	r2, r2
 1526 0030 1A70     		strb	r2, [r3, #0]
 990:.\Generated_Source\PSoC5/CyLib.c ****                         (USB_CLKDIST_CONFIG_MASK & source);
 991:.\Generated_Source\PSoC5/CyLib.c **** }
 1527              		.loc 1 991 0
 1528 0032 07F10C07 		add	r7, r7, #12
 1529 0036 BD46     		mov	sp, r7
 1530 0038 80BC     		pop	{r7}
 1531 003a 7047     		bx	lr
 1532              		.cfi_endproc
 1533              	.LFE16:
 1534              		.size	CyUsbClk_SetSource, .-CyUsbClk_SetSource
 1535              		.section	.text.CyILO_Start1K,"ax",%progbits
 1536              		.align	2
 1537              		.global	CyILO_Start1K
 1538              		.thumb
 1539              		.thumb_func
 1540              		.type	CyILO_Start1K, %function
 1541              	CyILO_Start1K:
 1542              	.LFB17:
 992:.\Generated_Source\PSoC5/CyLib.c **** 
 993:.\Generated_Source\PSoC5/CyLib.c **** 
 994:.\Generated_Source\PSoC5/CyLib.c **** /*******************************************************************************
 995:.\Generated_Source\PSoC5/CyLib.c **** * Function Name: CyILO_Start1K
 996:.\Generated_Source\PSoC5/CyLib.c **** ********************************************************************************
 997:.\Generated_Source\PSoC5/CyLib.c **** *
 998:.\Generated_Source\PSoC5/CyLib.c **** * Summary:
 999:.\Generated_Source\PSoC5/CyLib.c **** *  Enables the ILO 1 KHz oscillator.
1000:.\Generated_Source\PSoC5/CyLib.c **** *
1001:.\Generated_Source\PSoC5/CyLib.c **** *  Note The ILO 1 KHz oscillator is always enabled by default, regardless of the
1002:.\Generated_Source\PSoC5/CyLib.c **** *  selection in the Clock Editor. Therefore, this API is only needed if the
1003:.\Generated_Source\PSoC5/CyLib.c **** *  oscillator was turned off manually.
1004:.\Generated_Source\PSoC5/CyLib.c **** *
1005:.\Generated_Source\PSoC5/CyLib.c **** * Parameters:
1006:.\Generated_Source\PSoC5/CyLib.c **** *  None
1007:.\Generated_Source\PSoC5/CyLib.c **** *
1008:.\Generated_Source\PSoC5/CyLib.c **** * Return:
1009:.\Generated_Source\PSoC5/CyLib.c **** *  None
1010:.\Generated_Source\PSoC5/CyLib.c **** *
1011:.\Generated_Source\PSoC5/CyLib.c **** *******************************************************************************/
1012:.\Generated_Source\PSoC5/CyLib.c **** void CyILO_Start1K(void) 
1013:.\Generated_Source\PSoC5/CyLib.c **** {
 1543              		.loc 1 1013 0
 1544              		.cfi_startproc
 1545              		@ args = 0, pretend = 0, frame = 0
 1546              		@ frame_needed = 1, uses_anonymous_args = 0
 1547              		@ link register save eliminated.
 1548 0000 80B4     		push	{r7}
ARM GAS  C:\Users\karunmj\AppData\Local\Temp\cceFJIz4.s 			page 46


 1549              	.LCFI47:
 1550              		.cfi_def_cfa_offset 4
 1551 0002 00AF     		add	r7, sp, #0
 1552              		.cfi_offset 7, -4
 1553              	.LCFI48:
 1554              		.cfi_def_cfa_register 7
1014:.\Generated_Source\PSoC5/CyLib.c ****     /* Set the bit 1 of ILO RS */
1015:.\Generated_Source\PSoC5/CyLib.c ****     SLOWCLK_ILO_CR0 |= ILO_CONTROL_1KHZ_ON;
 1555              		.loc 1 1015 0
 1556 0004 44F20033 		movw	r3, #:lower16:1073758976
 1557 0008 C4F20003 		movt	r3, #:upper16:1073758976
 1558 000c 44F20032 		movw	r2, #:lower16:1073758976
 1559 0010 C4F20002 		movt	r2, #:upper16:1073758976
 1560 0014 1278     		ldrb	r2, [r2, #0]
 1561 0016 D2B2     		uxtb	r2, r2
 1562 0018 42F00202 		orr	r2, r2, #2
 1563 001c D2B2     		uxtb	r2, r2
 1564 001e 1A70     		strb	r2, [r3, #0]
1016:.\Generated_Source\PSoC5/CyLib.c **** }
 1565              		.loc 1 1016 0
 1566 0020 BD46     		mov	sp, r7
 1567 0022 80BC     		pop	{r7}
 1568 0024 7047     		bx	lr
 1569              		.cfi_endproc
 1570              	.LFE17:
 1571              		.size	CyILO_Start1K, .-CyILO_Start1K
 1572 0026 00BF     		.section	.text.CyILO_Stop1K,"ax",%progbits
 1573              		.align	2
 1574              		.global	CyILO_Stop1K
 1575              		.thumb
 1576              		.thumb_func
 1577              		.type	CyILO_Stop1K, %function
 1578              	CyILO_Stop1K:
 1579              	.LFB18:
1017:.\Generated_Source\PSoC5/CyLib.c **** 
1018:.\Generated_Source\PSoC5/CyLib.c **** 
1019:.\Generated_Source\PSoC5/CyLib.c **** /*******************************************************************************
1020:.\Generated_Source\PSoC5/CyLib.c **** * Function Name: CyILO_Stop1K
1021:.\Generated_Source\PSoC5/CyLib.c **** ********************************************************************************
1022:.\Generated_Source\PSoC5/CyLib.c **** *
1023:.\Generated_Source\PSoC5/CyLib.c **** * Summary:
1024:.\Generated_Source\PSoC5/CyLib.c **** *  Disables the ILO 1 KHz oscillator.
1025:.\Generated_Source\PSoC5/CyLib.c **** *
1026:.\Generated_Source\PSoC5/CyLib.c **** *  Note The ILO 1 KHz oscillator must be enabled if Sleep or Hibernate low power
1027:.\Generated_Source\PSoC5/CyLib.c **** *  mode APIs are expected to be used. For more information, refer to the Power
1028:.\Generated_Source\PSoC5/CyLib.c **** *  Management section of this document.
1029:.\Generated_Source\PSoC5/CyLib.c **** *
1030:.\Generated_Source\PSoC5/CyLib.c **** * Parameters:
1031:.\Generated_Source\PSoC5/CyLib.c **** *  None
1032:.\Generated_Source\PSoC5/CyLib.c **** *
1033:.\Generated_Source\PSoC5/CyLib.c **** * Return:
1034:.\Generated_Source\PSoC5/CyLib.c **** *  None
1035:.\Generated_Source\PSoC5/CyLib.c **** *
1036:.\Generated_Source\PSoC5/CyLib.c **** * Side Effects:
1037:.\Generated_Source\PSoC5/CyLib.c **** *  PSoC5: Stopping the ILO 1 kHz could break the active WDT functionality.
1038:.\Generated_Source\PSoC5/CyLib.c **** *
1039:.\Generated_Source\PSoC5/CyLib.c **** *******************************************************************************/
ARM GAS  C:\Users\karunmj\AppData\Local\Temp\cceFJIz4.s 			page 47


1040:.\Generated_Source\PSoC5/CyLib.c **** void CyILO_Stop1K(void) 
1041:.\Generated_Source\PSoC5/CyLib.c **** {
 1580              		.loc 1 1041 0
 1581              		.cfi_startproc
 1582              		@ args = 0, pretend = 0, frame = 0
 1583              		@ frame_needed = 1, uses_anonymous_args = 0
 1584              		@ link register save eliminated.
 1585 0000 80B4     		push	{r7}
 1586              	.LCFI49:
 1587              		.cfi_def_cfa_offset 4
 1588 0002 00AF     		add	r7, sp, #0
 1589              		.cfi_offset 7, -4
 1590              	.LCFI50:
 1591              		.cfi_def_cfa_register 7
1042:.\Generated_Source\PSoC5/CyLib.c ****     /* Clear the bit 1 of ILO RS */
1043:.\Generated_Source\PSoC5/CyLib.c ****     SLOWCLK_ILO_CR0 &= ((uint8)(~ILO_CONTROL_1KHZ_ON));
 1592              		.loc 1 1043 0
 1593 0004 44F20033 		movw	r3, #:lower16:1073758976
 1594 0008 C4F20003 		movt	r3, #:upper16:1073758976
 1595 000c 44F20032 		movw	r2, #:lower16:1073758976
 1596 0010 C4F20002 		movt	r2, #:upper16:1073758976
 1597 0014 1278     		ldrb	r2, [r2, #0]
 1598 0016 D2B2     		uxtb	r2, r2
 1599 0018 02F0FD02 		and	r2, r2, #253
 1600 001c 1A70     		strb	r2, [r3, #0]
1044:.\Generated_Source\PSoC5/CyLib.c **** }
 1601              		.loc 1 1044 0
 1602 001e BD46     		mov	sp, r7
 1603 0020 80BC     		pop	{r7}
 1604 0022 7047     		bx	lr
 1605              		.cfi_endproc
 1606              	.LFE18:
 1607              		.size	CyILO_Stop1K, .-CyILO_Stop1K
 1608              		.section	.text.CyILO_Start100K,"ax",%progbits
 1609              		.align	2
 1610              		.global	CyILO_Start100K
 1611              		.thumb
 1612              		.thumb_func
 1613              		.type	CyILO_Start100K, %function
 1614              	CyILO_Start100K:
 1615              	.LFB19:
1045:.\Generated_Source\PSoC5/CyLib.c **** 
1046:.\Generated_Source\PSoC5/CyLib.c **** 
1047:.\Generated_Source\PSoC5/CyLib.c **** /*******************************************************************************
1048:.\Generated_Source\PSoC5/CyLib.c **** * Function Name: CyILO_Start100K
1049:.\Generated_Source\PSoC5/CyLib.c **** ********************************************************************************
1050:.\Generated_Source\PSoC5/CyLib.c **** *
1051:.\Generated_Source\PSoC5/CyLib.c **** * Summary:
1052:.\Generated_Source\PSoC5/CyLib.c **** *  Enables the ILO 100 KHz oscillator.
1053:.\Generated_Source\PSoC5/CyLib.c **** *
1054:.\Generated_Source\PSoC5/CyLib.c **** * Parameters:
1055:.\Generated_Source\PSoC5/CyLib.c **** *  None
1056:.\Generated_Source\PSoC5/CyLib.c **** *
1057:.\Generated_Source\PSoC5/CyLib.c **** * Return:
1058:.\Generated_Source\PSoC5/CyLib.c **** *  None
1059:.\Generated_Source\PSoC5/CyLib.c **** *
1060:.\Generated_Source\PSoC5/CyLib.c **** *******************************************************************************/
ARM GAS  C:\Users\karunmj\AppData\Local\Temp\cceFJIz4.s 			page 48


1061:.\Generated_Source\PSoC5/CyLib.c **** void CyILO_Start100K(void) 
1062:.\Generated_Source\PSoC5/CyLib.c **** {
 1616              		.loc 1 1062 0
 1617              		.cfi_startproc
 1618              		@ args = 0, pretend = 0, frame = 0
 1619              		@ frame_needed = 1, uses_anonymous_args = 0
 1620              		@ link register save eliminated.
 1621 0000 80B4     		push	{r7}
 1622              	.LCFI51:
 1623              		.cfi_def_cfa_offset 4
 1624 0002 00AF     		add	r7, sp, #0
 1625              		.cfi_offset 7, -4
 1626              	.LCFI52:
 1627              		.cfi_def_cfa_register 7
1063:.\Generated_Source\PSoC5/CyLib.c ****     /* Set the bit 2 of ILO RS */
1064:.\Generated_Source\PSoC5/CyLib.c ****     SLOWCLK_ILO_CR0 |= ILO_CONTROL_100KHZ_ON;
 1628              		.loc 1 1064 0
 1629 0004 44F20033 		movw	r3, #:lower16:1073758976
 1630 0008 C4F20003 		movt	r3, #:upper16:1073758976
 1631 000c 44F20032 		movw	r2, #:lower16:1073758976
 1632 0010 C4F20002 		movt	r2, #:upper16:1073758976
 1633 0014 1278     		ldrb	r2, [r2, #0]
 1634 0016 D2B2     		uxtb	r2, r2
 1635 0018 42F00402 		orr	r2, r2, #4
 1636 001c D2B2     		uxtb	r2, r2
 1637 001e 1A70     		strb	r2, [r3, #0]
1065:.\Generated_Source\PSoC5/CyLib.c **** }
 1638              		.loc 1 1065 0
 1639 0020 BD46     		mov	sp, r7
 1640 0022 80BC     		pop	{r7}
 1641 0024 7047     		bx	lr
 1642              		.cfi_endproc
 1643              	.LFE19:
 1644              		.size	CyILO_Start100K, .-CyILO_Start100K
 1645 0026 00BF     		.section	.text.CyILO_Stop100K,"ax",%progbits
 1646              		.align	2
 1647              		.global	CyILO_Stop100K
 1648              		.thumb
 1649              		.thumb_func
 1650              		.type	CyILO_Stop100K, %function
 1651              	CyILO_Stop100K:
 1652              	.LFB20:
1066:.\Generated_Source\PSoC5/CyLib.c **** 
1067:.\Generated_Source\PSoC5/CyLib.c **** 
1068:.\Generated_Source\PSoC5/CyLib.c **** /*******************************************************************************
1069:.\Generated_Source\PSoC5/CyLib.c **** * Function Name: CyILO_Stop100K
1070:.\Generated_Source\PSoC5/CyLib.c **** ********************************************************************************
1071:.\Generated_Source\PSoC5/CyLib.c **** *
1072:.\Generated_Source\PSoC5/CyLib.c **** * Summary:
1073:.\Generated_Source\PSoC5/CyLib.c **** *  Disables the ILO 100 KHz oscillator.
1074:.\Generated_Source\PSoC5/CyLib.c **** *
1075:.\Generated_Source\PSoC5/CyLib.c **** * Parameters:
1076:.\Generated_Source\PSoC5/CyLib.c **** *  None
1077:.\Generated_Source\PSoC5/CyLib.c **** *
1078:.\Generated_Source\PSoC5/CyLib.c **** * Return:
1079:.\Generated_Source\PSoC5/CyLib.c **** *  None
1080:.\Generated_Source\PSoC5/CyLib.c **** *
ARM GAS  C:\Users\karunmj\AppData\Local\Temp\cceFJIz4.s 			page 49


1081:.\Generated_Source\PSoC5/CyLib.c **** *******************************************************************************/
1082:.\Generated_Source\PSoC5/CyLib.c **** void CyILO_Stop100K(void) 
1083:.\Generated_Source\PSoC5/CyLib.c **** {
 1653              		.loc 1 1083 0
 1654              		.cfi_startproc
 1655              		@ args = 0, pretend = 0, frame = 0
 1656              		@ frame_needed = 1, uses_anonymous_args = 0
 1657              		@ link register save eliminated.
 1658 0000 80B4     		push	{r7}
 1659              	.LCFI53:
 1660              		.cfi_def_cfa_offset 4
 1661 0002 00AF     		add	r7, sp, #0
 1662              		.cfi_offset 7, -4
 1663              	.LCFI54:
 1664              		.cfi_def_cfa_register 7
1084:.\Generated_Source\PSoC5/CyLib.c ****     /* Clear the bit 2 of ILO RS */
1085:.\Generated_Source\PSoC5/CyLib.c ****     SLOWCLK_ILO_CR0 &= ((uint8)(~ILO_CONTROL_100KHZ_ON));
 1665              		.loc 1 1085 0
 1666 0004 44F20033 		movw	r3, #:lower16:1073758976
 1667 0008 C4F20003 		movt	r3, #:upper16:1073758976
 1668 000c 44F20032 		movw	r2, #:lower16:1073758976
 1669 0010 C4F20002 		movt	r2, #:upper16:1073758976
 1670 0014 1278     		ldrb	r2, [r2, #0]
 1671 0016 D2B2     		uxtb	r2, r2
 1672 0018 02F0FB02 		and	r2, r2, #251
 1673 001c 1A70     		strb	r2, [r3, #0]
1086:.\Generated_Source\PSoC5/CyLib.c **** }
 1674              		.loc 1 1086 0
 1675 001e BD46     		mov	sp, r7
 1676 0020 80BC     		pop	{r7}
 1677 0022 7047     		bx	lr
 1678              		.cfi_endproc
 1679              	.LFE20:
 1680              		.size	CyILO_Stop100K, .-CyILO_Stop100K
 1681              		.section	.text.CyILO_Enable33K,"ax",%progbits
 1682              		.align	2
 1683              		.global	CyILO_Enable33K
 1684              		.thumb
 1685              		.thumb_func
 1686              		.type	CyILO_Enable33K, %function
 1687              	CyILO_Enable33K:
 1688              	.LFB21:
1087:.\Generated_Source\PSoC5/CyLib.c **** 
1088:.\Generated_Source\PSoC5/CyLib.c **** 
1089:.\Generated_Source\PSoC5/CyLib.c **** /*******************************************************************************
1090:.\Generated_Source\PSoC5/CyLib.c **** * Function Name: CyILO_Enable33K
1091:.\Generated_Source\PSoC5/CyLib.c **** ********************************************************************************
1092:.\Generated_Source\PSoC5/CyLib.c **** *
1093:.\Generated_Source\PSoC5/CyLib.c **** * Summary:
1094:.\Generated_Source\PSoC5/CyLib.c **** *  Enables the ILO 33 KHz divider.
1095:.\Generated_Source\PSoC5/CyLib.c **** *
1096:.\Generated_Source\PSoC5/CyLib.c **** *  Note that the 33 KHz clock is generated from the 100 KHz oscillator,
1097:.\Generated_Source\PSoC5/CyLib.c **** *  so it must also be running in order to generate the 33 KHz output.
1098:.\Generated_Source\PSoC5/CyLib.c **** *
1099:.\Generated_Source\PSoC5/CyLib.c **** * Parameters:
1100:.\Generated_Source\PSoC5/CyLib.c **** *  None
1101:.\Generated_Source\PSoC5/CyLib.c **** *
ARM GAS  C:\Users\karunmj\AppData\Local\Temp\cceFJIz4.s 			page 50


1102:.\Generated_Source\PSoC5/CyLib.c **** * Return:
1103:.\Generated_Source\PSoC5/CyLib.c **** *  None
1104:.\Generated_Source\PSoC5/CyLib.c **** *
1105:.\Generated_Source\PSoC5/CyLib.c **** *******************************************************************************/
1106:.\Generated_Source\PSoC5/CyLib.c **** void CyILO_Enable33K(void) 
1107:.\Generated_Source\PSoC5/CyLib.c **** {
 1689              		.loc 1 1107 0
 1690              		.cfi_startproc
 1691              		@ args = 0, pretend = 0, frame = 0
 1692              		@ frame_needed = 1, uses_anonymous_args = 0
 1693              		@ link register save eliminated.
 1694 0000 80B4     		push	{r7}
 1695              	.LCFI55:
 1696              		.cfi_def_cfa_offset 4
 1697 0002 00AF     		add	r7, sp, #0
 1698              		.cfi_offset 7, -4
 1699              	.LCFI56:
 1700              		.cfi_def_cfa_register 7
1108:.\Generated_Source\PSoC5/CyLib.c ****     /* Set the bit 5 of ILO RS */
1109:.\Generated_Source\PSoC5/CyLib.c ****     SLOWCLK_ILO_CR0 |= ILO_CONTROL_33KHZ_ON;
 1701              		.loc 1 1109 0
 1702 0004 44F20033 		movw	r3, #:lower16:1073758976
 1703 0008 C4F20003 		movt	r3, #:upper16:1073758976
 1704 000c 44F20032 		movw	r2, #:lower16:1073758976
 1705 0010 C4F20002 		movt	r2, #:upper16:1073758976
 1706 0014 1278     		ldrb	r2, [r2, #0]
 1707 0016 D2B2     		uxtb	r2, r2
 1708 0018 42F02002 		orr	r2, r2, #32
 1709 001c D2B2     		uxtb	r2, r2
 1710 001e 1A70     		strb	r2, [r3, #0]
1110:.\Generated_Source\PSoC5/CyLib.c **** }
 1711              		.loc 1 1110 0
 1712 0020 BD46     		mov	sp, r7
 1713 0022 80BC     		pop	{r7}
 1714 0024 7047     		bx	lr
 1715              		.cfi_endproc
 1716              	.LFE21:
 1717              		.size	CyILO_Enable33K, .-CyILO_Enable33K
 1718 0026 00BF     		.section	.text.CyILO_Disable33K,"ax",%progbits
 1719              		.align	2
 1720              		.global	CyILO_Disable33K
 1721              		.thumb
 1722              		.thumb_func
 1723              		.type	CyILO_Disable33K, %function
 1724              	CyILO_Disable33K:
 1725              	.LFB22:
1111:.\Generated_Source\PSoC5/CyLib.c **** 
1112:.\Generated_Source\PSoC5/CyLib.c **** 
1113:.\Generated_Source\PSoC5/CyLib.c **** /*******************************************************************************
1114:.\Generated_Source\PSoC5/CyLib.c **** * Function Name: CyILO_Disable33K
1115:.\Generated_Source\PSoC5/CyLib.c **** ********************************************************************************
1116:.\Generated_Source\PSoC5/CyLib.c **** *
1117:.\Generated_Source\PSoC5/CyLib.c **** * Summary:
1118:.\Generated_Source\PSoC5/CyLib.c **** *  Disables the ILO 33 KHz divider.
1119:.\Generated_Source\PSoC5/CyLib.c **** *
1120:.\Generated_Source\PSoC5/CyLib.c **** *  Note that the 33 KHz clock is generated from the 100 KHz oscillator, but this
1121:.\Generated_Source\PSoC5/CyLib.c **** *  API does not disable the 100 KHz clock.
ARM GAS  C:\Users\karunmj\AppData\Local\Temp\cceFJIz4.s 			page 51


1122:.\Generated_Source\PSoC5/CyLib.c **** *
1123:.\Generated_Source\PSoC5/CyLib.c **** * Parameters:
1124:.\Generated_Source\PSoC5/CyLib.c **** *  None
1125:.\Generated_Source\PSoC5/CyLib.c **** *
1126:.\Generated_Source\PSoC5/CyLib.c **** * Return:
1127:.\Generated_Source\PSoC5/CyLib.c **** *  None
1128:.\Generated_Source\PSoC5/CyLib.c **** *
1129:.\Generated_Source\PSoC5/CyLib.c **** *******************************************************************************/
1130:.\Generated_Source\PSoC5/CyLib.c **** void CyILO_Disable33K(void) 
1131:.\Generated_Source\PSoC5/CyLib.c **** {
 1726              		.loc 1 1131 0
 1727              		.cfi_startproc
 1728              		@ args = 0, pretend = 0, frame = 0
 1729              		@ frame_needed = 1, uses_anonymous_args = 0
 1730              		@ link register save eliminated.
 1731 0000 80B4     		push	{r7}
 1732              	.LCFI57:
 1733              		.cfi_def_cfa_offset 4
 1734 0002 00AF     		add	r7, sp, #0
 1735              		.cfi_offset 7, -4
 1736              	.LCFI58:
 1737              		.cfi_def_cfa_register 7
1132:.\Generated_Source\PSoC5/CyLib.c ****     /* Clear the bit 5 of ILO RS */
1133:.\Generated_Source\PSoC5/CyLib.c ****     SLOWCLK_ILO_CR0 &= ((uint8)(~ILO_CONTROL_33KHZ_ON));
 1738              		.loc 1 1133 0
 1739 0004 44F20033 		movw	r3, #:lower16:1073758976
 1740 0008 C4F20003 		movt	r3, #:upper16:1073758976
 1741 000c 44F20032 		movw	r2, #:lower16:1073758976
 1742 0010 C4F20002 		movt	r2, #:upper16:1073758976
 1743 0014 1278     		ldrb	r2, [r2, #0]
 1744 0016 D2B2     		uxtb	r2, r2
 1745 0018 02F0DF02 		and	r2, r2, #223
 1746 001c 1A70     		strb	r2, [r3, #0]
1134:.\Generated_Source\PSoC5/CyLib.c **** }
 1747              		.loc 1 1134 0
 1748 001e BD46     		mov	sp, r7
 1749 0020 80BC     		pop	{r7}
 1750 0022 7047     		bx	lr
 1751              		.cfi_endproc
 1752              	.LFE22:
 1753              		.size	CyILO_Disable33K, .-CyILO_Disable33K
 1754              		.section	.text.CyILO_SetSource,"ax",%progbits
 1755              		.align	2
 1756              		.global	CyILO_SetSource
 1757              		.thumb
 1758              		.thumb_func
 1759              		.type	CyILO_SetSource, %function
 1760              	CyILO_SetSource:
 1761              	.LFB23:
1135:.\Generated_Source\PSoC5/CyLib.c **** 
1136:.\Generated_Source\PSoC5/CyLib.c **** 
1137:.\Generated_Source\PSoC5/CyLib.c **** /*******************************************************************************
1138:.\Generated_Source\PSoC5/CyLib.c **** * Function Name: CyILO_SetSource
1139:.\Generated_Source\PSoC5/CyLib.c **** ********************************************************************************
1140:.\Generated_Source\PSoC5/CyLib.c **** *
1141:.\Generated_Source\PSoC5/CyLib.c **** * Summary:
1142:.\Generated_Source\PSoC5/CyLib.c **** *  Sets the source of the clock output from the ILO block.
ARM GAS  C:\Users\karunmj\AppData\Local\Temp\cceFJIz4.s 			page 52


1143:.\Generated_Source\PSoC5/CyLib.c **** *
1144:.\Generated_Source\PSoC5/CyLib.c **** * Parameters:
1145:.\Generated_Source\PSoC5/CyLib.c **** *  source: One of the three available ILO output sources
1146:.\Generated_Source\PSoC5/CyLib.c **** *       Value        Define                Source
1147:.\Generated_Source\PSoC5/CyLib.c **** *       0            CY_ILO_SOURCE_100K    ILO 100 KHz
1148:.\Generated_Source\PSoC5/CyLib.c **** *       1            CY_ILO_SOURCE_33K     ILO 33 KHz
1149:.\Generated_Source\PSoC5/CyLib.c **** *       2            CY_ILO_SOURCE_1K      ILO 1 KHz
1150:.\Generated_Source\PSoC5/CyLib.c **** *
1151:.\Generated_Source\PSoC5/CyLib.c **** * Return:
1152:.\Generated_Source\PSoC5/CyLib.c **** *  None
1153:.\Generated_Source\PSoC5/CyLib.c **** *
1154:.\Generated_Source\PSoC5/CyLib.c **** *******************************************************************************/
1155:.\Generated_Source\PSoC5/CyLib.c **** void CyILO_SetSource(uint8 source) 
1156:.\Generated_Source\PSoC5/CyLib.c **** {
 1762              		.loc 1 1156 0
 1763              		.cfi_startproc
 1764              		@ args = 0, pretend = 0, frame = 8
 1765              		@ frame_needed = 1, uses_anonymous_args = 0
 1766              		@ link register save eliminated.
 1767 0000 80B4     		push	{r7}
 1768              	.LCFI59:
 1769              		.cfi_def_cfa_offset 4
 1770 0002 83B0     		sub	sp, sp, #12
 1771              	.LCFI60:
 1772              		.cfi_def_cfa_offset 16
 1773 0004 00AF     		add	r7, sp, #0
 1774              		.cfi_offset 7, -4
 1775              	.LCFI61:
 1776              		.cfi_def_cfa_register 7
 1777 0006 0346     		mov	r3, r0
 1778 0008 FB71     		strb	r3, [r7, #7]
1157:.\Generated_Source\PSoC5/CyLib.c ****     CLKDIST_CR = (CLKDIST_CR & CY_ILO_SOURCE_BITS_CLEAR) |
 1779              		.loc 1 1157 0
 1780 000a 44F20003 		movw	r3, #:lower16:1073758208
 1781 000e C4F20003 		movt	r3, #:upper16:1073758208
 1782 0012 44F20002 		movw	r2, #:lower16:1073758208
 1783 0016 C4F20002 		movt	r2, #:upper16:1073758208
 1784 001a 1278     		ldrb	r2, [r2, #0]
 1785 001c D2B2     		uxtb	r2, r2
 1786 001e 1146     		mov	r1, r2
 1787 0020 01F0F301 		and	r1, r1, #243
1158:.\Generated_Source\PSoC5/CyLib.c ****                     (((uint8) (source << 2u)) & ((uint8)(~CY_ILO_SOURCE_BITS_CLEAR)));
 1788              		.loc 1 1158 0
 1789 0024 FA79     		ldrb	r2, [r7, #7]
 1790 0026 4FEA8202 		lsl	r2, r2, #2
 1791 002a D2B2     		uxtb	r2, r2
 1792              		.loc 1 1157 0
 1793 002c 02F00C02 		and	r2, r2, #12
 1794 0030 41EA0202 		orr	r2, r1, r2
 1795 0034 D2B2     		uxtb	r2, r2
 1796 0036 1A70     		strb	r2, [r3, #0]
1159:.\Generated_Source\PSoC5/CyLib.c **** }
 1797              		.loc 1 1159 0
 1798 0038 07F10C07 		add	r7, r7, #12
 1799 003c BD46     		mov	sp, r7
 1800 003e 80BC     		pop	{r7}
 1801 0040 7047     		bx	lr
ARM GAS  C:\Users\karunmj\AppData\Local\Temp\cceFJIz4.s 			page 53


 1802              		.cfi_endproc
 1803              	.LFE23:
 1804              		.size	CyILO_SetSource, .-CyILO_SetSource
 1805 0042 00BF     		.section	.text.CyILO_SetPowerMode,"ax",%progbits
 1806              		.align	2
 1807              		.global	CyILO_SetPowerMode
 1808              		.thumb
 1809              		.thumb_func
 1810              		.type	CyILO_SetPowerMode, %function
 1811              	CyILO_SetPowerMode:
 1812              	.LFB24:
1160:.\Generated_Source\PSoC5/CyLib.c **** 
1161:.\Generated_Source\PSoC5/CyLib.c **** 
1162:.\Generated_Source\PSoC5/CyLib.c **** /*******************************************************************************
1163:.\Generated_Source\PSoC5/CyLib.c **** * Function Name: CyILO_SetPowerMode
1164:.\Generated_Source\PSoC5/CyLib.c **** ********************************************************************************
1165:.\Generated_Source\PSoC5/CyLib.c **** *
1166:.\Generated_Source\PSoC5/CyLib.c **** * Summary:
1167:.\Generated_Source\PSoC5/CyLib.c **** *  Sets the power mode used by the ILO during power down. Allows for lower power
1168:.\Generated_Source\PSoC5/CyLib.c **** *  down power usage resulting in a slower startup time.
1169:.\Generated_Source\PSoC5/CyLib.c **** *
1170:.\Generated_Source\PSoC5/CyLib.c **** * Parameters:
1171:.\Generated_Source\PSoC5/CyLib.c **** *  uint8 mode
1172:.\Generated_Source\PSoC5/CyLib.c **** *   CY_ILO_FAST_START - Faster start-up, internal bias left on when powered down
1173:.\Generated_Source\PSoC5/CyLib.c **** *   CY_ILO_SLOW_START - Slower start-up, internal bias off when powered down
1174:.\Generated_Source\PSoC5/CyLib.c **** *
1175:.\Generated_Source\PSoC5/CyLib.c **** * Return:
1176:.\Generated_Source\PSoC5/CyLib.c **** *   Prevous power mode state.
1177:.\Generated_Source\PSoC5/CyLib.c **** *
1178:.\Generated_Source\PSoC5/CyLib.c **** *******************************************************************************/
1179:.\Generated_Source\PSoC5/CyLib.c **** uint8 CyILO_SetPowerMode(uint8 mode) 
1180:.\Generated_Source\PSoC5/CyLib.c **** {
 1813              		.loc 1 1180 0
 1814              		.cfi_startproc
 1815              		@ args = 0, pretend = 0, frame = 16
 1816              		@ frame_needed = 1, uses_anonymous_args = 0
 1817              		@ link register save eliminated.
 1818 0000 80B4     		push	{r7}
 1819              	.LCFI62:
 1820              		.cfi_def_cfa_offset 4
 1821 0002 85B0     		sub	sp, sp, #20
 1822              	.LCFI63:
 1823              		.cfi_def_cfa_offset 24
 1824 0004 00AF     		add	r7, sp, #0
 1825              		.cfi_offset 7, -4
 1826              	.LCFI64:
 1827              		.cfi_def_cfa_register 7
 1828 0006 0346     		mov	r3, r0
 1829 0008 FB71     		strb	r3, [r7, #7]
1181:.\Generated_Source\PSoC5/CyLib.c ****     uint8 state;
1182:.\Generated_Source\PSoC5/CyLib.c **** 
1183:.\Generated_Source\PSoC5/CyLib.c ****     /* Get current state. */
1184:.\Generated_Source\PSoC5/CyLib.c ****     state = SLOWCLK_ILO_CR0;
 1830              		.loc 1 1184 0
 1831 000a 44F20033 		movw	r3, #:lower16:1073758976
 1832 000e C4F20003 		movt	r3, #:upper16:1073758976
 1833 0012 1B78     		ldrb	r3, [r3, #0]
ARM GAS  C:\Users\karunmj\AppData\Local\Temp\cceFJIz4.s 			page 54


 1834 0014 FB73     		strb	r3, [r7, #15]
1185:.\Generated_Source\PSoC5/CyLib.c **** 
1186:.\Generated_Source\PSoC5/CyLib.c ****     /* Set the the oscillator power mode. */
1187:.\Generated_Source\PSoC5/CyLib.c ****     if(mode != CY_ILO_FAST_START)
 1835              		.loc 1 1187 0
 1836 0016 FB79     		ldrb	r3, [r7, #7]	@ zero_extendqisi2
 1837 0018 002B     		cmp	r3, #0
 1838 001a 09D0     		beq	.L119
1188:.\Generated_Source\PSoC5/CyLib.c ****     {
1189:.\Generated_Source\PSoC5/CyLib.c ****         SLOWCLK_ILO_CR0 = (state | ILO_CONTROL_PD_MODE);
 1839              		.loc 1 1189 0
 1840 001c 44F20033 		movw	r3, #:lower16:1073758976
 1841 0020 C4F20003 		movt	r3, #:upper16:1073758976
 1842 0024 FA7B     		ldrb	r2, [r7, #15]
 1843 0026 42F01002 		orr	r2, r2, #16
 1844 002a D2B2     		uxtb	r2, r2
 1845 002c 1A70     		strb	r2, [r3, #0]
 1846 002e 07E0     		b	.L120
 1847              	.L119:
1190:.\Generated_Source\PSoC5/CyLib.c ****     }
1191:.\Generated_Source\PSoC5/CyLib.c ****     else
1192:.\Generated_Source\PSoC5/CyLib.c ****     {
1193:.\Generated_Source\PSoC5/CyLib.c ****         SLOWCLK_ILO_CR0 = (state & ((uint8)(~ILO_CONTROL_PD_MODE)));
 1848              		.loc 1 1193 0
 1849 0030 44F20033 		movw	r3, #:lower16:1073758976
 1850 0034 C4F20003 		movt	r3, #:upper16:1073758976
 1851 0038 FA7B     		ldrb	r2, [r7, #15]	@ zero_extendqisi2
 1852 003a 02F0EF02 		and	r2, r2, #239
 1853 003e 1A70     		strb	r2, [r3, #0]
 1854              	.L120:
1194:.\Generated_Source\PSoC5/CyLib.c ****     }
1195:.\Generated_Source\PSoC5/CyLib.c **** 
1196:.\Generated_Source\PSoC5/CyLib.c ****     /* Return the old mode. */
1197:.\Generated_Source\PSoC5/CyLib.c ****     return ((state & ILO_CONTROL_PD_MODE) >> ILO_CONTROL_PD_POSITION);
 1855              		.loc 1 1197 0
 1856 0040 FB7B     		ldrb	r3, [r7, #15]	@ zero_extendqisi2
 1857 0042 03F01003 		and	r3, r3, #16
 1858 0046 4FEA1313 		lsr	r3, r3, #4
 1859 004a DBB2     		uxtb	r3, r3
1198:.\Generated_Source\PSoC5/CyLib.c **** }
 1860              		.loc 1 1198 0
 1861 004c 1846     		mov	r0, r3
 1862 004e 07F11407 		add	r7, r7, #20
 1863 0052 BD46     		mov	sp, r7
 1864 0054 80BC     		pop	{r7}
 1865 0056 7047     		bx	lr
 1866              		.cfi_endproc
 1867              	.LFE24:
 1868              		.size	CyILO_SetPowerMode, .-CyILO_SetPowerMode
 1869              		.section	.text.CyXTAL_32KHZ_Start,"ax",%progbits
 1870              		.align	2
 1871              		.global	CyXTAL_32KHZ_Start
 1872              		.thumb
 1873              		.thumb_func
 1874              		.type	CyXTAL_32KHZ_Start, %function
 1875              	CyXTAL_32KHZ_Start:
 1876              	.LFB25:
ARM GAS  C:\Users\karunmj\AppData\Local\Temp\cceFJIz4.s 			page 55


1199:.\Generated_Source\PSoC5/CyLib.c **** 
1200:.\Generated_Source\PSoC5/CyLib.c **** 
1201:.\Generated_Source\PSoC5/CyLib.c **** /*******************************************************************************
1202:.\Generated_Source\PSoC5/CyLib.c **** * Function Name: CyXTAL_32KHZ_Start
1203:.\Generated_Source\PSoC5/CyLib.c **** ********************************************************************************
1204:.\Generated_Source\PSoC5/CyLib.c **** *
1205:.\Generated_Source\PSoC5/CyLib.c **** * Summary:
1206:.\Generated_Source\PSoC5/CyLib.c **** *  Enables the 32 KHz Crystal Oscillator.
1207:.\Generated_Source\PSoC5/CyLib.c **** *
1208:.\Generated_Source\PSoC5/CyLib.c **** * Parameters:
1209:.\Generated_Source\PSoC5/CyLib.c **** *  None
1210:.\Generated_Source\PSoC5/CyLib.c **** *
1211:.\Generated_Source\PSoC5/CyLib.c **** * Return:
1212:.\Generated_Source\PSoC5/CyLib.c **** *  None
1213:.\Generated_Source\PSoC5/CyLib.c **** *
1214:.\Generated_Source\PSoC5/CyLib.c **** *******************************************************************************/
1215:.\Generated_Source\PSoC5/CyLib.c **** void CyXTAL_32KHZ_Start(void) 
1216:.\Generated_Source\PSoC5/CyLib.c **** {
 1877              		.loc 1 1216 0
 1878              		.cfi_startproc
 1879              		@ args = 0, pretend = 0, frame = 8
 1880              		@ frame_needed = 1, uses_anonymous_args = 0
 1881 0000 80B5     		push	{r7, lr}
 1882              	.LCFI65:
 1883              		.cfi_def_cfa_offset 8
 1884 0002 82B0     		sub	sp, sp, #8
 1885              	.LCFI66:
 1886              		.cfi_def_cfa_offset 16
 1887 0004 00AF     		add	r7, sp, #0
 1888              		.cfi_offset 14, -4
 1889              		.cfi_offset 7, -8
 1890              	.LCFI67:
 1891              		.cfi_def_cfa_register 7
1217:.\Generated_Source\PSoC5/CyLib.c ****     volatile uint16 i;
1218:.\Generated_Source\PSoC5/CyLib.c **** 
1219:.\Generated_Source\PSoC5/CyLib.c ****     CY_CLK_XTAL32_TST_REG = CY_CLK_XTAL32_TST_DEFAULT;
 1892              		.loc 1 1219 0
 1893 0006 44F20A33 		movw	r3, #:lower16:1073758986
 1894 000a C4F20003 		movt	r3, #:upper16:1073758986
 1895 000e 6FF00C02 		mvn	r2, #12
 1896 0012 1A70     		strb	r2, [r3, #0]
1220:.\Generated_Source\PSoC5/CyLib.c ****     CY_CLK_XTAL32_TR_REG  = CY_CLK_XTAL32_TR_STARTUP;
 1897              		.loc 1 1220 0
 1898 0014 44F29863 		movw	r3, #:lower16:1073759896
 1899 0018 C4F20003 		movt	r3, #:upper16:1073759896
 1900 001c 4FF00302 		mov	r2, #3
 1901 0020 1A70     		strb	r2, [r3, #0]
1221:.\Generated_Source\PSoC5/CyLib.c ****     CY_CLK_XTAL32_CFG_REG = (CY_CLK_XTAL32_CFG_REG & ((uint8)(~CY_CLK_XTAL32_CFG_LP_MASK))) |
 1902              		.loc 1 1221 0
 1903 0022 44F20933 		movw	r3, #:lower16:1073758985
 1904 0026 C4F20003 		movt	r3, #:upper16:1073758985
 1905 002a 44F20932 		movw	r2, #:lower16:1073758985
 1906 002e C4F20002 		movt	r2, #:upper16:1073758985
 1907 0032 1278     		ldrb	r2, [r2, #0]
 1908 0034 D2B2     		uxtb	r2, r2
 1909 0036 02F0F302 		and	r2, r2, #243
 1910 003a 42F00402 		orr	r2, r2, #4
ARM GAS  C:\Users\karunmj\AppData\Local\Temp\cceFJIz4.s 			page 56


 1911 003e D2B2     		uxtb	r2, r2
 1912 0040 1A70     		strb	r2, [r3, #0]
1222:.\Generated_Source\PSoC5/CyLib.c ****                                 CY_CLK_XTAL32_CFG_LP_DEFAULT;
1223:.\Generated_Source\PSoC5/CyLib.c **** 
1224:.\Generated_Source\PSoC5/CyLib.c ****     #if(CY_PSOC3)
1225:.\Generated_Source\PSoC5/CyLib.c ****         CY_CLK_XTAL32_CR_REG |= CY_CLK_XTAL32_CR_PDBEN;
1226:.\Generated_Source\PSoC5/CyLib.c ****     #endif  /* (CY_PSOC3) */
1227:.\Generated_Source\PSoC5/CyLib.c **** 
1228:.\Generated_Source\PSoC5/CyLib.c ****     /* Enable operation of the 32K Crystal Oscillator */
1229:.\Generated_Source\PSoC5/CyLib.c ****     CY_CLK_XTAL32_CR_REG |= CY_CLK_XTAL32_CR_EN;
 1913              		.loc 1 1229 0
 1914 0042 44F20833 		movw	r3, #:lower16:1073758984
 1915 0046 C4F20003 		movt	r3, #:upper16:1073758984
 1916 004a 44F20832 		movw	r2, #:lower16:1073758984
 1917 004e C4F20002 		movt	r2, #:upper16:1073758984
 1918 0052 1278     		ldrb	r2, [r2, #0]
 1919 0054 D2B2     		uxtb	r2, r2
 1920 0056 42F00102 		orr	r2, r2, #1
 1921 005a D2B2     		uxtb	r2, r2
 1922 005c 1A70     		strb	r2, [r3, #0]
1230:.\Generated_Source\PSoC5/CyLib.c **** 
1231:.\Generated_Source\PSoC5/CyLib.c ****     for (i = 1000u; i > 0u; i--)
 1923              		.loc 1 1231 0
 1924 005e 4FF47A73 		mov	r3, #1000
 1925 0062 FB80     		strh	r3, [r7, #6]	@ movhi
 1926 0064 15E0     		b	.L123
 1927              	.L126:
1232:.\Generated_Source\PSoC5/CyLib.c ****     {
1233:.\Generated_Source\PSoC5/CyLib.c ****         if(0u != (CyXTAL_32KHZ_ReadStatus() & CY_XTAL32K_ANA_STAT))
 1928              		.loc 1 1233 0
 1929 0066 FFF7FEFF 		bl	CyXTAL_32KHZ_ReadStatus
 1930 006a 0346     		mov	r3, r0
 1931 006c 03F02003 		and	r3, r3, #32
 1932 0070 002B     		cmp	r3, #0
 1933 0072 04D0     		beq	.L124
1234:.\Generated_Source\PSoC5/CyLib.c ****         {
1235:.\Generated_Source\PSoC5/CyLib.c ****             /* Ready - switch to the hign power mode */
1236:.\Generated_Source\PSoC5/CyLib.c ****             (void) CyXTAL_32KHZ_SetPowerMode(0u);
 1934              		.loc 1 1236 0
 1935 0074 4FF00000 		mov	r0, #0
 1936 0078 FFF7FEFF 		bl	CyXTAL_32KHZ_SetPowerMode
1237:.\Generated_Source\PSoC5/CyLib.c **** 
1238:.\Generated_Source\PSoC5/CyLib.c ****             break;
 1937              		.loc 1 1238 0
 1938 007c 0DE0     		b	.L127
 1939              	.L124:
1239:.\Generated_Source\PSoC5/CyLib.c ****         }
1240:.\Generated_Source\PSoC5/CyLib.c ****         CyDelayUs(1u);
 1940              		.loc 1 1240 0
 1941 007e 4FF00100 		mov	r0, #1
 1942 0082 FFF7FEFF 		bl	CyDelayUs
 1943              		.loc 1 1231 0
 1944 0086 FB88     		ldrh	r3, [r7, #6]	@ movhi
 1945 0088 9BB2     		uxth	r3, r3
 1946 008a 03F1FF33 		add	r3, r3, #-1
 1947 008e 9BB2     		uxth	r3, r3
 1948 0090 FB80     		strh	r3, [r7, #6]	@ movhi
ARM GAS  C:\Users\karunmj\AppData\Local\Temp\cceFJIz4.s 			page 57


 1949              	.L123:
 1950 0092 FB88     		ldrh	r3, [r7, #6]	@ movhi
 1951 0094 9BB2     		uxth	r3, r3
 1952 0096 002B     		cmp	r3, #0
 1953 0098 E5D1     		bne	.L126
 1954              	.L127:
1241:.\Generated_Source\PSoC5/CyLib.c ****     }
1242:.\Generated_Source\PSoC5/CyLib.c **** }
 1955              		.loc 1 1242 0
 1956 009a 07F10807 		add	r7, r7, #8
 1957 009e BD46     		mov	sp, r7
 1958 00a0 80BD     		pop	{r7, pc}
 1959              		.cfi_endproc
 1960              	.LFE25:
 1961              		.size	CyXTAL_32KHZ_Start, .-CyXTAL_32KHZ_Start
 1962 00a2 00BF     		.section	.text.CyXTAL_32KHZ_Stop,"ax",%progbits
 1963              		.align	2
 1964              		.global	CyXTAL_32KHZ_Stop
 1965              		.thumb
 1966              		.thumb_func
 1967              		.type	CyXTAL_32KHZ_Stop, %function
 1968              	CyXTAL_32KHZ_Stop:
 1969              	.LFB26:
1243:.\Generated_Source\PSoC5/CyLib.c **** 
1244:.\Generated_Source\PSoC5/CyLib.c **** 
1245:.\Generated_Source\PSoC5/CyLib.c **** /*******************************************************************************
1246:.\Generated_Source\PSoC5/CyLib.c **** * Function Name: CyXTAL_32KHZ_Stop
1247:.\Generated_Source\PSoC5/CyLib.c **** ********************************************************************************
1248:.\Generated_Source\PSoC5/CyLib.c **** *
1249:.\Generated_Source\PSoC5/CyLib.c **** * Summary:
1250:.\Generated_Source\PSoC5/CyLib.c **** *  Disables the 32KHz Crystal Oscillator.
1251:.\Generated_Source\PSoC5/CyLib.c **** *
1252:.\Generated_Source\PSoC5/CyLib.c **** * Parameters:
1253:.\Generated_Source\PSoC5/CyLib.c **** *  None
1254:.\Generated_Source\PSoC5/CyLib.c **** *
1255:.\Generated_Source\PSoC5/CyLib.c **** * Return:
1256:.\Generated_Source\PSoC5/CyLib.c **** *  None
1257:.\Generated_Source\PSoC5/CyLib.c **** *
1258:.\Generated_Source\PSoC5/CyLib.c **** *******************************************************************************/
1259:.\Generated_Source\PSoC5/CyLib.c **** void CyXTAL_32KHZ_Stop(void) 
1260:.\Generated_Source\PSoC5/CyLib.c **** {
 1970              		.loc 1 1260 0
 1971              		.cfi_startproc
 1972              		@ args = 0, pretend = 0, frame = 0
 1973              		@ frame_needed = 1, uses_anonymous_args = 0
 1974              		@ link register save eliminated.
 1975 0000 80B4     		push	{r7}
 1976              	.LCFI68:
 1977              		.cfi_def_cfa_offset 4
 1978 0002 00AF     		add	r7, sp, #0
 1979              		.cfi_offset 7, -4
 1980              	.LCFI69:
 1981              		.cfi_def_cfa_register 7
1261:.\Generated_Source\PSoC5/CyLib.c ****     CY_CLK_XTAL32_TST_REG  = CY_CLK_XTAL32_TST_DEFAULT;
 1982              		.loc 1 1261 0
 1983 0004 44F20A33 		movw	r3, #:lower16:1073758986
 1984 0008 C4F20003 		movt	r3, #:upper16:1073758986
ARM GAS  C:\Users\karunmj\AppData\Local\Temp\cceFJIz4.s 			page 58


 1985 000c 6FF00C02 		mvn	r2, #12
 1986 0010 1A70     		strb	r2, [r3, #0]
1262:.\Generated_Source\PSoC5/CyLib.c ****     CY_CLK_XTAL32_TR_REG   = CY_CLK_XTAL32_TR_POWERDOWN;
 1987              		.loc 1 1262 0
 1988 0012 44F29863 		movw	r3, #:lower16:1073759896
 1989 0016 C4F20003 		movt	r3, #:upper16:1073759896
 1990 001a 4FF00002 		mov	r2, #0
 1991 001e 1A70     		strb	r2, [r3, #0]
1263:.\Generated_Source\PSoC5/CyLib.c ****     CY_CLK_XTAL32_CFG_REG = (CY_CLK_XTAL32_CFG_REG & ((uint8)(~CY_CLK_XTAL32_CFG_LP_MASK))) | CY_CL
 1992              		.loc 1 1263 0
 1993 0020 44F20933 		movw	r3, #:lower16:1073758985
 1994 0024 C4F20003 		movt	r3, #:upper16:1073758985
 1995 0028 44F20932 		movw	r2, #:lower16:1073758985
 1996 002c C4F20002 		movt	r2, #:upper16:1073758985
 1997 0030 1278     		ldrb	r2, [r2, #0]
 1998 0032 D2B2     		uxtb	r2, r2
 1999 0034 02F0F302 		and	r2, r2, #243
 2000 0038 42F00402 		orr	r2, r2, #4
 2001 003c D2B2     		uxtb	r2, r2
 2002 003e 1A70     		strb	r2, [r3, #0]
1264:.\Generated_Source\PSoC5/CyLib.c ****     CY_CLK_XTAL32_CR_REG &= ((uint8)(~(CY_CLK_XTAL32_CR_EN | CY_CLK_XTAL32_CR_LPM)));
 2003              		.loc 1 1264 0
 2004 0040 44F20833 		movw	r3, #:lower16:1073758984
 2005 0044 C4F20003 		movt	r3, #:upper16:1073758984
 2006 0048 44F20832 		movw	r2, #:lower16:1073758984
 2007 004c C4F20002 		movt	r2, #:upper16:1073758984
 2008 0050 1278     		ldrb	r2, [r2, #0]
 2009 0052 D2B2     		uxtb	r2, r2
 2010 0054 02F0FC02 		and	r2, r2, #252
 2011 0058 1A70     		strb	r2, [r3, #0]
1265:.\Generated_Source\PSoC5/CyLib.c **** 
1266:.\Generated_Source\PSoC5/CyLib.c ****     #if(CY_PSOC3)
1267:.\Generated_Source\PSoC5/CyLib.c ****         CY_CLK_XTAL32_CR_REG &= ((uint8)(~CY_CLK_XTAL32_CR_PDBEN));
1268:.\Generated_Source\PSoC5/CyLib.c ****     #endif  /* (CY_PSOC3) */
1269:.\Generated_Source\PSoC5/CyLib.c **** }
 2012              		.loc 1 1269 0
 2013 005a BD46     		mov	sp, r7
 2014 005c 80BC     		pop	{r7}
 2015 005e 7047     		bx	lr
 2016              		.cfi_endproc
 2017              	.LFE26:
 2018              		.size	CyXTAL_32KHZ_Stop, .-CyXTAL_32KHZ_Stop
 2019              		.section	.text.CyXTAL_32KHZ_ReadStatus,"ax",%progbits
 2020              		.align	2
 2021              		.global	CyXTAL_32KHZ_ReadStatus
 2022              		.thumb
 2023              		.thumb_func
 2024              		.type	CyXTAL_32KHZ_ReadStatus, %function
 2025              	CyXTAL_32KHZ_ReadStatus:
 2026              	.LFB27:
1270:.\Generated_Source\PSoC5/CyLib.c **** 
1271:.\Generated_Source\PSoC5/CyLib.c **** 
1272:.\Generated_Source\PSoC5/CyLib.c **** /*******************************************************************************
1273:.\Generated_Source\PSoC5/CyLib.c **** * Function Name: CyXTAL_32KHZ_ReadStatus
1274:.\Generated_Source\PSoC5/CyLib.c **** ********************************************************************************
1275:.\Generated_Source\PSoC5/CyLib.c **** *
1276:.\Generated_Source\PSoC5/CyLib.c **** * Summary:
ARM GAS  C:\Users\karunmj\AppData\Local\Temp\cceFJIz4.s 			page 59


1277:.\Generated_Source\PSoC5/CyLib.c **** *  Returns status of the 32 KHz oscillator.
1278:.\Generated_Source\PSoC5/CyLib.c **** *
1279:.\Generated_Source\PSoC5/CyLib.c **** * Parameters:
1280:.\Generated_Source\PSoC5/CyLib.c **** *  None
1281:.\Generated_Source\PSoC5/CyLib.c **** *
1282:.\Generated_Source\PSoC5/CyLib.c **** * Return:
1283:.\Generated_Source\PSoC5/CyLib.c **** *  Value     Define                    Source
1284:.\Generated_Source\PSoC5/CyLib.c **** *  20        CY_XTAL32K_ANA_STAT       Analog measurement
1285:.\Generated_Source\PSoC5/CyLib.c **** *                                       1: Stable
1286:.\Generated_Source\PSoC5/CyLib.c **** *                                       0: Not stable
1287:.\Generated_Source\PSoC5/CyLib.c **** *
1288:.\Generated_Source\PSoC5/CyLib.c **** *******************************************************************************/
1289:.\Generated_Source\PSoC5/CyLib.c **** uint8 CyXTAL_32KHZ_ReadStatus(void) 
1290:.\Generated_Source\PSoC5/CyLib.c **** {
 2027              		.loc 1 1290 0
 2028              		.cfi_startproc
 2029              		@ args = 0, pretend = 0, frame = 0
 2030              		@ frame_needed = 1, uses_anonymous_args = 0
 2031              		@ link register save eliminated.
 2032 0000 80B4     		push	{r7}
 2033              	.LCFI70:
 2034              		.cfi_def_cfa_offset 4
 2035 0002 00AF     		add	r7, sp, #0
 2036              		.cfi_offset 7, -4
 2037              	.LCFI71:
 2038              		.cfi_def_cfa_register 7
1291:.\Generated_Source\PSoC5/CyLib.c ****     return(CY_CLK_XTAL32_CR_REG & CY_XTAL32K_ANA_STAT);
 2039              		.loc 1 1291 0
 2040 0004 44F20833 		movw	r3, #:lower16:1073758984
 2041 0008 C4F20003 		movt	r3, #:upper16:1073758984
 2042 000c 1B78     		ldrb	r3, [r3, #0]
 2043 000e DBB2     		uxtb	r3, r3
 2044 0010 03F02003 		and	r3, r3, #32
1292:.\Generated_Source\PSoC5/CyLib.c **** }
 2045              		.loc 1 1292 0
 2046 0014 1846     		mov	r0, r3
 2047 0016 BD46     		mov	sp, r7
 2048 0018 80BC     		pop	{r7}
 2049 001a 7047     		bx	lr
 2050              		.cfi_endproc
 2051              	.LFE27:
 2052              		.size	CyXTAL_32KHZ_ReadStatus, .-CyXTAL_32KHZ_ReadStatus
 2053              		.section	.text.CyXTAL_32KHZ_SetPowerMode,"ax",%progbits
 2054              		.align	2
 2055              		.global	CyXTAL_32KHZ_SetPowerMode
 2056              		.thumb
 2057              		.thumb_func
 2058              		.type	CyXTAL_32KHZ_SetPowerMode, %function
 2059              	CyXTAL_32KHZ_SetPowerMode:
 2060              	.LFB28:
1293:.\Generated_Source\PSoC5/CyLib.c **** 
1294:.\Generated_Source\PSoC5/CyLib.c **** 
1295:.\Generated_Source\PSoC5/CyLib.c **** /*******************************************************************************
1296:.\Generated_Source\PSoC5/CyLib.c **** * Function Name: CyXTAL_32KHZ_SetPowerMode
1297:.\Generated_Source\PSoC5/CyLib.c **** ********************************************************************************
1298:.\Generated_Source\PSoC5/CyLib.c **** *
1299:.\Generated_Source\PSoC5/CyLib.c **** * Summary:
ARM GAS  C:\Users\karunmj\AppData\Local\Temp\cceFJIz4.s 			page 60


1300:.\Generated_Source\PSoC5/CyLib.c **** *  Sets the power mode for the 32 KHz oscillator used during sleep mode.
1301:.\Generated_Source\PSoC5/CyLib.c **** *  Allows for lower power during sleep when there are fewer sources of noise.
1302:.\Generated_Source\PSoC5/CyLib.c **** *  During active mode the oscillator is always run in high power mode.
1303:.\Generated_Source\PSoC5/CyLib.c **** *
1304:.\Generated_Source\PSoC5/CyLib.c **** * Parameters:
1305:.\Generated_Source\PSoC5/CyLib.c **** *  uint8 mode
1306:.\Generated_Source\PSoC5/CyLib.c **** *       0: High power mode
1307:.\Generated_Source\PSoC5/CyLib.c **** *       1: Low power mode during sleep
1308:.\Generated_Source\PSoC5/CyLib.c **** *
1309:.\Generated_Source\PSoC5/CyLib.c **** * Return:
1310:.\Generated_Source\PSoC5/CyLib.c **** *  Previous power mode.
1311:.\Generated_Source\PSoC5/CyLib.c **** *
1312:.\Generated_Source\PSoC5/CyLib.c **** *******************************************************************************/
1313:.\Generated_Source\PSoC5/CyLib.c **** uint8 CyXTAL_32KHZ_SetPowerMode(uint8 mode) 
1314:.\Generated_Source\PSoC5/CyLib.c **** {
 2061              		.loc 1 1314 0
 2062              		.cfi_startproc
 2063              		@ args = 0, pretend = 0, frame = 16
 2064              		@ frame_needed = 1, uses_anonymous_args = 0
 2065 0000 80B5     		push	{r7, lr}
 2066              	.LCFI72:
 2067              		.cfi_def_cfa_offset 8
 2068 0002 84B0     		sub	sp, sp, #16
 2069              	.LCFI73:
 2070              		.cfi_def_cfa_offset 24
 2071 0004 00AF     		add	r7, sp, #0
 2072              		.cfi_offset 14, -4
 2073              		.cfi_offset 7, -8
 2074              	.LCFI74:
 2075              		.cfi_def_cfa_register 7
 2076 0006 0346     		mov	r3, r0
 2077 0008 FB71     		strb	r3, [r7, #7]
1315:.\Generated_Source\PSoC5/CyLib.c ****     uint8 state = (0u != (CY_CLK_XTAL32_CR_REG & CY_CLK_XTAL32_CR_LPM)) ? 1u : 0u;
 2078              		.loc 1 1315 0
 2079 000a 44F20833 		movw	r3, #:lower16:1073758984
 2080 000e C4F20003 		movt	r3, #:upper16:1073758984
 2081 0012 1B78     		ldrb	r3, [r3, #0]
 2082 0014 DBB2     		uxtb	r3, r3
 2083 0016 03F00203 		and	r3, r3, #2
 2084 001a 002B     		cmp	r3, #0
 2085 001c 02D0     		beq	.L133
 2086 001e 4FF00103 		mov	r3, #1
 2087 0022 01E0     		b	.L134
 2088              	.L133:
 2089 0024 4FF00003 		mov	r3, #0
 2090              	.L134:
 2091 0028 FB73     		strb	r3, [r7, #15]
1316:.\Generated_Source\PSoC5/CyLib.c **** 
1317:.\Generated_Source\PSoC5/CyLib.c ****     CY_CLK_XTAL32_TST_REG = CY_CLK_XTAL32_TST_DEFAULT;
 2092              		.loc 1 1317 0
 2093 002a 44F20A33 		movw	r3, #:lower16:1073758986
 2094 002e C4F20003 		movt	r3, #:upper16:1073758986
 2095 0032 6FF00C02 		mvn	r2, #12
 2096 0036 1A70     		strb	r2, [r3, #0]
1318:.\Generated_Source\PSoC5/CyLib.c **** 
1319:.\Generated_Source\PSoC5/CyLib.c ****     if(1u == mode)
 2097              		.loc 1 1319 0
ARM GAS  C:\Users\karunmj\AppData\Local\Temp\cceFJIz4.s 			page 61


 2098 0038 FB79     		ldrb	r3, [r7, #7]	@ zero_extendqisi2
 2099 003a 012B     		cmp	r3, #1
 2100 003c 2DD1     		bne	.L135
1320:.\Generated_Source\PSoC5/CyLib.c ****     {
1321:.\Generated_Source\PSoC5/CyLib.c ****         /* Low power mode during Sleep */
1322:.\Generated_Source\PSoC5/CyLib.c ****         CY_CLK_XTAL32_TR_REG  = CY_CLK_XTAL32_TR_LOW_POWER;
 2101              		.loc 1 1322 0
 2102 003e 44F29863 		movw	r3, #:lower16:1073759896
 2103 0042 C4F20003 		movt	r3, #:upper16:1073759896
 2104 0046 4FF00102 		mov	r2, #1
 2105 004a 1A70     		strb	r2, [r3, #0]
1323:.\Generated_Source\PSoC5/CyLib.c ****         CyDelayUs(10u);
 2106              		.loc 1 1323 0
 2107 004c 4FF00A00 		mov	r0, #10
 2108 0050 FFF7FEFF 		bl	CyDelayUs
1324:.\Generated_Source\PSoC5/CyLib.c ****         CY_CLK_XTAL32_CFG_REG = (CY_CLK_XTAL32_CFG_REG & ((uint8)(~CY_CLK_XTAL32_CFG_LP_MASK))) | C
 2109              		.loc 1 1324 0
 2110 0054 44F20933 		movw	r3, #:lower16:1073758985
 2111 0058 C4F20003 		movt	r3, #:upper16:1073758985
 2112 005c 44F20932 		movw	r2, #:lower16:1073758985
 2113 0060 C4F20002 		movt	r2, #:upper16:1073758985
 2114 0064 1278     		ldrb	r2, [r2, #0]
 2115 0066 D2B2     		uxtb	r2, r2
 2116 0068 02F0F302 		and	r2, r2, #243
 2117 006c 42F00802 		orr	r2, r2, #8
 2118 0070 D2B2     		uxtb	r2, r2
 2119 0072 1A70     		strb	r2, [r3, #0]
1325:.\Generated_Source\PSoC5/CyLib.c ****         CyDelayUs(20u);
 2120              		.loc 1 1325 0
 2121 0074 4FF01400 		mov	r0, #20
 2122 0078 FFF7FEFF 		bl	CyDelayUs
1326:.\Generated_Source\PSoC5/CyLib.c ****         CY_CLK_XTAL32_CR_REG |= CY_CLK_XTAL32_CR_LPM;
 2123              		.loc 1 1326 0
 2124 007c 44F20833 		movw	r3, #:lower16:1073758984
 2125 0080 C4F20003 		movt	r3, #:upper16:1073758984
 2126 0084 44F20832 		movw	r2, #:lower16:1073758984
 2127 0088 C4F20002 		movt	r2, #:upper16:1073758984
 2128 008c 1278     		ldrb	r2, [r2, #0]
 2129 008e D2B2     		uxtb	r2, r2
 2130 0090 42F00202 		orr	r2, r2, #2
 2131 0094 D2B2     		uxtb	r2, r2
 2132 0096 1A70     		strb	r2, [r3, #0]
 2133 0098 27E0     		b	.L136
 2134              	.L135:
1327:.\Generated_Source\PSoC5/CyLib.c ****     }
1328:.\Generated_Source\PSoC5/CyLib.c ****     else
1329:.\Generated_Source\PSoC5/CyLib.c ****     {
1330:.\Generated_Source\PSoC5/CyLib.c ****         /* High power mode */
1331:.\Generated_Source\PSoC5/CyLib.c ****         CY_CLK_XTAL32_TR_REG  = CY_CLK_XTAL32_TR_HIGH_POWER;
 2135              		.loc 1 1331 0
 2136 009a 44F29863 		movw	r3, #:lower16:1073759896
 2137 009e C4F20003 		movt	r3, #:upper16:1073759896
 2138 00a2 4FF00602 		mov	r2, #6
 2139 00a6 1A70     		strb	r2, [r3, #0]
1332:.\Generated_Source\PSoC5/CyLib.c ****         CyDelayUs(10u);
 2140              		.loc 1 1332 0
 2141 00a8 4FF00A00 		mov	r0, #10
ARM GAS  C:\Users\karunmj\AppData\Local\Temp\cceFJIz4.s 			page 62


 2142 00ac FFF7FEFF 		bl	CyDelayUs
1333:.\Generated_Source\PSoC5/CyLib.c ****         CY_CLK_XTAL32_CFG_REG = (CY_CLK_XTAL32_CFG_REG & ((uint8)(~CY_CLK_XTAL32_CFG_LP_MASK))) | C
 2143              		.loc 1 1333 0
 2144 00b0 44F20933 		movw	r3, #:lower16:1073758985
 2145 00b4 C4F20003 		movt	r3, #:upper16:1073758985
 2146 00b8 44F20932 		movw	r2, #:lower16:1073758985
 2147 00bc C4F20002 		movt	r2, #:upper16:1073758985
 2148 00c0 1278     		ldrb	r2, [r2, #0]
 2149 00c2 D2B2     		uxtb	r2, r2
 2150 00c4 02F0F302 		and	r2, r2, #243
 2151 00c8 42F00402 		orr	r2, r2, #4
 2152 00cc D2B2     		uxtb	r2, r2
 2153 00ce 1A70     		strb	r2, [r3, #0]
1334:.\Generated_Source\PSoC5/CyLib.c ****         CY_CLK_XTAL32_CR_REG &= ((uint8)(~CY_CLK_XTAL32_CR_LPM));
 2154              		.loc 1 1334 0
 2155 00d0 44F20833 		movw	r3, #:lower16:1073758984
 2156 00d4 C4F20003 		movt	r3, #:upper16:1073758984
 2157 00d8 44F20832 		movw	r2, #:lower16:1073758984
 2158 00dc C4F20002 		movt	r2, #:upper16:1073758984
 2159 00e0 1278     		ldrb	r2, [r2, #0]
 2160 00e2 D2B2     		uxtb	r2, r2
 2161 00e4 02F0FD02 		and	r2, r2, #253
 2162 00e8 1A70     		strb	r2, [r3, #0]
 2163              	.L136:
1335:.\Generated_Source\PSoC5/CyLib.c ****     }
1336:.\Generated_Source\PSoC5/CyLib.c **** 
1337:.\Generated_Source\PSoC5/CyLib.c ****     return(state);
 2164              		.loc 1 1337 0
 2165 00ea FB7B     		ldrb	r3, [r7, #15]	@ zero_extendqisi2
1338:.\Generated_Source\PSoC5/CyLib.c **** }
 2166              		.loc 1 1338 0
 2167 00ec 1846     		mov	r0, r3
 2168 00ee 07F11007 		add	r7, r7, #16
 2169 00f2 BD46     		mov	sp, r7
 2170 00f4 80BD     		pop	{r7, pc}
 2171              		.cfi_endproc
 2172              	.LFE28:
 2173              		.size	CyXTAL_32KHZ_SetPowerMode, .-CyXTAL_32KHZ_SetPowerMode
 2174 00f6 00BF     		.section	.text.CyXTAL_Start,"ax",%progbits
 2175              		.align	2
 2176              		.global	CyXTAL_Start
 2177              		.thumb
 2178              		.thumb_func
 2179              		.type	CyXTAL_Start, %function
 2180              	CyXTAL_Start:
 2181              	.LFB29:
1339:.\Generated_Source\PSoC5/CyLib.c **** 
1340:.\Generated_Source\PSoC5/CyLib.c **** 
1341:.\Generated_Source\PSoC5/CyLib.c **** /*******************************************************************************
1342:.\Generated_Source\PSoC5/CyLib.c **** * Function Name: CyXTAL_Start
1343:.\Generated_Source\PSoC5/CyLib.c **** ********************************************************************************
1344:.\Generated_Source\PSoC5/CyLib.c **** *
1345:.\Generated_Source\PSoC5/CyLib.c **** * Summary:
1346:.\Generated_Source\PSoC5/CyLib.c **** *  Enables the megahertz crystal.
1347:.\Generated_Source\PSoC5/CyLib.c **** *
1348:.\Generated_Source\PSoC5/CyLib.c **** *  PSoC3:
1349:.\Generated_Source\PSoC5/CyLib.c **** *  Waits until the XERR bit is low (no error) for a millisecond or until the
ARM GAS  C:\Users\karunmj\AppData\Local\Temp\cceFJIz4.s 			page 63


1350:.\Generated_Source\PSoC5/CyLib.c **** *  number of milliseconds specified by the wait parameter has expired.
1351:.\Generated_Source\PSoC5/CyLib.c **** *
1352:.\Generated_Source\PSoC5/CyLib.c **** *  PSoC5:
1353:.\Generated_Source\PSoC5/CyLib.c **** *  Waits for CY_CLK_XMHZ_MIN_TIMEOUT milliseconds (or number of milliseconds
1354:.\Generated_Source\PSoC5/CyLib.c **** *  specified by parameter if it is greater than CY_CLK_XMHZ_MIN_TIMEOUT. The
1355:.\Generated_Source\PSoC5/CyLib.c **** *  XERR bit status is not checked.
1356:.\Generated_Source\PSoC5/CyLib.c **** *
1357:.\Generated_Source\PSoC5/CyLib.c **** * Parameters:
1358:.\Generated_Source\PSoC5/CyLib.c **** *   wait: Valid range [0-255].
1359:.\Generated_Source\PSoC5/CyLib.c **** *   This is the timeout value in milliseconds.
1360:.\Generated_Source\PSoC5/CyLib.c **** *   The appropriate value is crystal specific.
1361:.\Generated_Source\PSoC5/CyLib.c **** *
1362:.\Generated_Source\PSoC5/CyLib.c **** * Return:
1363:.\Generated_Source\PSoC5/CyLib.c **** *   CYRET_SUCCESS - Completed successfully
1364:.\Generated_Source\PSoC5/CyLib.c **** *   CYRET_TIMEOUT - Timeout occurred without detecting a low value on XERR.
1365:.\Generated_Source\PSoC5/CyLib.c **** *
1366:.\Generated_Source\PSoC5/CyLib.c **** * Side Effects and Restrictions:
1367:.\Generated_Source\PSoC5/CyLib.c **** *  If wait is enabled (non-zero wait). Uses the Fast Timewheel to time the wait.
1368:.\Generated_Source\PSoC5/CyLib.c **** *  Any other use of the Fast Timewheel (FTW) will be stopped during the period
1369:.\Generated_Source\PSoC5/CyLib.c **** *  of this function and then restored.
1370:.\Generated_Source\PSoC5/CyLib.c **** *
1371:.\Generated_Source\PSoC5/CyLib.c **** *  Uses the 100KHz ILO.  If not enabled, this function will enable the 100KHz
1372:.\Generated_Source\PSoC5/CyLib.c **** *  ILO for the period of this function. No changes to the setup of the ILO,
1373:.\Generated_Source\PSoC5/CyLib.c **** *  Fast Timewheel, Central Timewheel or Once Per Second interrupt may be made
1374:.\Generated_Source\PSoC5/CyLib.c **** *  by interrupt routines during the period of this function.
1375:.\Generated_Source\PSoC5/CyLib.c **** *
1376:.\Generated_Source\PSoC5/CyLib.c **** *  The current operation of the ILO, Central Timewheel and Once Per Second
1377:.\Generated_Source\PSoC5/CyLib.c **** *  interrupt are maintained during the operation of this function provided the
1378:.\Generated_Source\PSoC5/CyLib.c **** *  reading of the Power Manager Interrupt Status Register is only done using the
1379:.\Generated_Source\PSoC5/CyLib.c **** *  CyPmReadStatus() function.
1380:.\Generated_Source\PSoC5/CyLib.c **** *
1381:.\Generated_Source\PSoC5/CyLib.c **** *******************************************************************************/
1382:.\Generated_Source\PSoC5/CyLib.c **** cystatus CyXTAL_Start(uint8 wait) 
1383:.\Generated_Source\PSoC5/CyLib.c **** {
 2182              		.loc 1 1383 0
 2183              		.cfi_startproc
 2184              		@ args = 0, pretend = 0, frame = 24
 2185              		@ frame_needed = 1, uses_anonymous_args = 0
 2186 0000 80B5     		push	{r7, lr}
 2187              	.LCFI75:
 2188              		.cfi_def_cfa_offset 8
 2189 0002 86B0     		sub	sp, sp, #24
 2190              	.LCFI76:
 2191              		.cfi_def_cfa_offset 32
 2192 0004 00AF     		add	r7, sp, #0
 2193              		.cfi_offset 14, -4
 2194              		.cfi_offset 7, -8
 2195              	.LCFI77:
 2196              		.cfi_def_cfa_register 7
 2197 0006 0346     		mov	r3, r0
 2198 0008 FB71     		strb	r3, [r7, #7]
1384:.\Generated_Source\PSoC5/CyLib.c ****     cystatus status = CYRET_SUCCESS;
 2199              		.loc 1 1384 0
 2200 000a 4FF00003 		mov	r3, #0
 2201 000e 3B61     		str	r3, [r7, #16]
1385:.\Generated_Source\PSoC5/CyLib.c **** 
1386:.\Generated_Source\PSoC5/CyLib.c ****     #if(CY_PSOC5A)
ARM GAS  C:\Users\karunmj\AppData\Local\Temp\cceFJIz4.s 			page 64


1387:.\Generated_Source\PSoC5/CyLib.c ****         volatile uint8  timeout = (wait < CY_CLK_XMHZ_MIN_TIMEOUT) ? CY_CLK_XMHZ_MIN_TIMEOUT : wait
1388:.\Generated_Source\PSoC5/CyLib.c ****     #else
1389:.\Generated_Source\PSoC5/CyLib.c ****         volatile uint8  timeout = wait;
 2202              		.loc 1 1389 0
 2203 0010 FB79     		ldrb	r3, [r7, #7]
 2204 0012 FB73     		strb	r3, [r7, #15]
1390:.\Generated_Source\PSoC5/CyLib.c ****     #endif  /* (CY_PSOC5A) */
1391:.\Generated_Source\PSoC5/CyLib.c **** 
1392:.\Generated_Source\PSoC5/CyLib.c ****     volatile uint8 count;
1393:.\Generated_Source\PSoC5/CyLib.c ****     uint8 iloEnableState;
1394:.\Generated_Source\PSoC5/CyLib.c ****     uint8 pmTwCfg0Tmp;
1395:.\Generated_Source\PSoC5/CyLib.c ****     uint8 pmTwCfg2Tmp;
1396:.\Generated_Source\PSoC5/CyLib.c **** 
1397:.\Generated_Source\PSoC5/CyLib.c **** 
1398:.\Generated_Source\PSoC5/CyLib.c ****     /* Enables the MHz crystal oscillator circuit  */
1399:.\Generated_Source\PSoC5/CyLib.c ****     CY_CLK_XMHZ_CSR_REG |= CY_CLK_XMHZ_CSR_ENABLE;
 2205              		.loc 1 1399 0
 2206 0014 44F21023 		movw	r3, #:lower16:1073758736
 2207 0018 C4F20003 		movt	r3, #:upper16:1073758736
 2208 001c 44F21022 		movw	r2, #:lower16:1073758736
 2209 0020 C4F20002 		movt	r2, #:upper16:1073758736
 2210 0024 1278     		ldrb	r2, [r2, #0]
 2211 0026 D2B2     		uxtb	r2, r2
 2212 0028 42F00102 		orr	r2, r2, #1
 2213 002c D2B2     		uxtb	r2, r2
 2214 002e 1A70     		strb	r2, [r3, #0]
1400:.\Generated_Source\PSoC5/CyLib.c **** 
1401:.\Generated_Source\PSoC5/CyLib.c **** 
1402:.\Generated_Source\PSoC5/CyLib.c ****     if(wait > 0u)
 2215              		.loc 1 1402 0
 2216 0030 FB79     		ldrb	r3, [r7, #7]	@ zero_extendqisi2
 2217 0032 002B     		cmp	r3, #0
 2218 0034 5DD0     		beq	.L139
1403:.\Generated_Source\PSoC5/CyLib.c ****     {
1404:.\Generated_Source\PSoC5/CyLib.c ****         /* Save 100 KHz ILO, FTW interval, enable and interrupt enable */
1405:.\Generated_Source\PSoC5/CyLib.c ****         iloEnableState = SLOWCLK_ILO_CR0;
 2219              		.loc 1 1405 0
 2220 0036 44F20033 		movw	r3, #:lower16:1073758976
 2221 003a C4F20003 		movt	r3, #:upper16:1073758976
 2222 003e 1B78     		ldrb	r3, [r3, #0]
 2223 0040 7B75     		strb	r3, [r7, #21]
1406:.\Generated_Source\PSoC5/CyLib.c ****         pmTwCfg0Tmp = CY_PM_TW_CFG0_REG;
 2224              		.loc 1 1406 0
 2225 0042 44F28033 		movw	r3, #:lower16:1073759104
 2226 0046 C4F20003 		movt	r3, #:upper16:1073759104
 2227 004a 1B78     		ldrb	r3, [r3, #0]
 2228 004c BB75     		strb	r3, [r7, #22]
1407:.\Generated_Source\PSoC5/CyLib.c ****         pmTwCfg2Tmp = CY_PM_TW_CFG2_REG;
 2229              		.loc 1 1407 0
 2230 004e 44F28233 		movw	r3, #:lower16:1073759106
 2231 0052 C4F20003 		movt	r3, #:upper16:1073759106
 2232 0056 1B78     		ldrb	r3, [r3, #0]
 2233 0058 FB75     		strb	r3, [r7, #23]
1408:.\Generated_Source\PSoC5/CyLib.c **** 
1409:.\Generated_Source\PSoC5/CyLib.c ****         /* Set 250 us interval */
1410:.\Generated_Source\PSoC5/CyLib.c ****         CyPmFtwSetInterval(CY_CLK_XMHZ_FTW_INTERVAL);
 2234              		.loc 1 1410 0
ARM GAS  C:\Users\karunmj\AppData\Local\Temp\cceFJIz4.s 			page 65


 2235 005a 4FF01800 		mov	r0, #24
 2236 005e FFF7FEFF 		bl	CyPmFtwSetInterval
1411:.\Generated_Source\PSoC5/CyLib.c ****         status = CYRET_TIMEOUT;
 2237              		.loc 1 1411 0
 2238 0062 4FF01003 		mov	r3, #16
 2239 0066 3B61     		str	r3, [r7, #16]
1412:.\Generated_Source\PSoC5/CyLib.c **** 
1413:.\Generated_Source\PSoC5/CyLib.c **** 
1414:.\Generated_Source\PSoC5/CyLib.c ****         for( ; timeout > 0u; timeout--)
 2240              		.loc 1 1414 0
 2241 0068 2CE0     		b	.L140
 2242              	.L145:
1415:.\Generated_Source\PSoC5/CyLib.c ****         {
1416:.\Generated_Source\PSoC5/CyLib.c ****             #if(!CY_PSOC5A)
1417:.\Generated_Source\PSoC5/CyLib.c **** 
1418:.\Generated_Source\PSoC5/CyLib.c ****                 /* Read XERR bit to clear it */
1419:.\Generated_Source\PSoC5/CyLib.c ****                 (void) CY_CLK_XMHZ_CSR_REG;
 2243              		.loc 1 1419 0
 2244 006a 44F21023 		movw	r3, #:lower16:1073758736
 2245 006e C4F20003 		movt	r3, #:upper16:1073758736
 2246 0072 1B78     		ldrb	r3, [r3, #0]
1420:.\Generated_Source\PSoC5/CyLib.c **** 
1421:.\Generated_Source\PSoC5/CyLib.c ****             #endif  /* (!CY_PSOC5A) */
1422:.\Generated_Source\PSoC5/CyLib.c **** 
1423:.\Generated_Source\PSoC5/CyLib.c **** 
1424:.\Generated_Source\PSoC5/CyLib.c ****             /* Wait for a millisecond - 4 x 250 us */
1425:.\Generated_Source\PSoC5/CyLib.c ****             for(count = 4u; count > 0u; count--)
 2247              		.loc 1 1425 0
 2248 0074 4FF00403 		mov	r3, #4
 2249 0078 BB73     		strb	r3, [r7, #14]
 2250 007a 0CE0     		b	.L141
 2251              	.L142:
1426:.\Generated_Source\PSoC5/CyLib.c ****             {
1427:.\Generated_Source\PSoC5/CyLib.c ****                 while(!(CY_PM_FTW_INT == CyPmReadStatus(CY_PM_FTW_INT)))
 2252              		.loc 1 1427 0
 2253 007c 4FF00100 		mov	r0, #1
 2254 0080 FFF7FEFF 		bl	CyPmReadStatus
 2255 0084 0346     		mov	r3, r0
 2256 0086 012B     		cmp	r3, #1
 2257 0088 F8D1     		bne	.L142
 2258              		.loc 1 1425 0
 2259 008a BB7B     		ldrb	r3, [r7, #14]
 2260 008c DBB2     		uxtb	r3, r3
 2261 008e 03F1FF33 		add	r3, r3, #-1
 2262 0092 DBB2     		uxtb	r3, r3
 2263 0094 BB73     		strb	r3, [r7, #14]
 2264              	.L141:
 2265 0096 BB7B     		ldrb	r3, [r7, #14]
 2266 0098 DBB2     		uxtb	r3, r3
 2267 009a 002B     		cmp	r3, #0
 2268 009c EED1     		bne	.L142
1428:.\Generated_Source\PSoC5/CyLib.c ****                 {
1429:.\Generated_Source\PSoC5/CyLib.c ****                     /* Wait for the FTW interrupt event */
1430:.\Generated_Source\PSoC5/CyLib.c ****                 }
1431:.\Generated_Source\PSoC5/CyLib.c ****             }
1432:.\Generated_Source\PSoC5/CyLib.c **** 
1433:.\Generated_Source\PSoC5/CyLib.c **** 
ARM GAS  C:\Users\karunmj\AppData\Local\Temp\cceFJIz4.s 			page 66


1434:.\Generated_Source\PSoC5/CyLib.c ****             #if(!CY_PSOC5A)
1435:.\Generated_Source\PSoC5/CyLib.c **** 
1436:.\Generated_Source\PSoC5/CyLib.c ****                 /*******************************************************************
1437:.\Generated_Source\PSoC5/CyLib.c ****                 * High output indicates oscillator failure.
1438:.\Generated_Source\PSoC5/CyLib.c ****                 * Only can be used after start-up interval (1 ms) is completed.
1439:.\Generated_Source\PSoC5/CyLib.c ****                 *******************************************************************/
1440:.\Generated_Source\PSoC5/CyLib.c ****                 if(0u == (CY_CLK_XMHZ_CSR_REG & CY_CLK_XMHZ_CSR_XERR))
 2269              		.loc 1 1440 0
 2270 009e 44F21023 		movw	r3, #:lower16:1073758736
 2271 00a2 C4F20003 		movt	r3, #:upper16:1073758736
 2272 00a6 1B78     		ldrb	r3, [r3, #0]
 2273 00a8 DBB2     		uxtb	r3, r3
 2274 00aa 5BB2     		sxtb	r3, r3
 2275 00ac 002B     		cmp	r3, #0
 2276 00ae 03DB     		blt	.L143
1441:.\Generated_Source\PSoC5/CyLib.c ****                 {
1442:.\Generated_Source\PSoC5/CyLib.c ****                     status = CYRET_SUCCESS;
 2277              		.loc 1 1442 0
 2278 00b0 4FF00003 		mov	r3, #0
 2279 00b4 3B61     		str	r3, [r7, #16]
1443:.\Generated_Source\PSoC5/CyLib.c ****                     break;
 2280              		.loc 1 1443 0
 2281 00b6 09E0     		b	.L144
 2282              	.L143:
 2283              		.loc 1 1414 0
 2284 00b8 FB7B     		ldrb	r3, [r7, #15]
 2285 00ba DBB2     		uxtb	r3, r3
 2286 00bc 03F1FF33 		add	r3, r3, #-1
 2287 00c0 DBB2     		uxtb	r3, r3
 2288 00c2 FB73     		strb	r3, [r7, #15]
 2289              	.L140:
 2290 00c4 FB7B     		ldrb	r3, [r7, #15]
 2291 00c6 DBB2     		uxtb	r3, r3
 2292 00c8 002B     		cmp	r3, #0
 2293 00ca CED1     		bne	.L145
 2294              	.L144:
1444:.\Generated_Source\PSoC5/CyLib.c ****                 }
1445:.\Generated_Source\PSoC5/CyLib.c **** 
1446:.\Generated_Source\PSoC5/CyLib.c ****             #endif  /* (!CY_PSOC5A) */
1447:.\Generated_Source\PSoC5/CyLib.c ****         }
1448:.\Generated_Source\PSoC5/CyLib.c **** 
1449:.\Generated_Source\PSoC5/CyLib.c **** 
1450:.\Generated_Source\PSoC5/CyLib.c ****         /* Restore 100 KHz ILO, FTW interval, enable and interrupt enable */
1451:.\Generated_Source\PSoC5/CyLib.c ****         if(0u == (iloEnableState & ILO_CONTROL_100KHZ_ON))
 2295              		.loc 1 1451 0
 2296 00cc 7B7D     		ldrb	r3, [r7, #21]	@ zero_extendqisi2
 2297 00ce 03F00403 		and	r3, r3, #4
 2298 00d2 002B     		cmp	r3, #0
 2299 00d4 01D1     		bne	.L146
1452:.\Generated_Source\PSoC5/CyLib.c ****         {
1453:.\Generated_Source\PSoC5/CyLib.c ****             CyILO_Stop100K();
 2300              		.loc 1 1453 0
 2301 00d6 FFF7FEFF 		bl	CyILO_Stop100K
 2302              	.L146:
1454:.\Generated_Source\PSoC5/CyLib.c ****         }
1455:.\Generated_Source\PSoC5/CyLib.c ****         CY_PM_TW_CFG0_REG = pmTwCfg0Tmp;
 2303              		.loc 1 1455 0
ARM GAS  C:\Users\karunmj\AppData\Local\Temp\cceFJIz4.s 			page 67


 2304 00da 44F28033 		movw	r3, #:lower16:1073759104
 2305 00de C4F20003 		movt	r3, #:upper16:1073759104
 2306 00e2 BA7D     		ldrb	r2, [r7, #22]
 2307 00e4 1A70     		strb	r2, [r3, #0]
1456:.\Generated_Source\PSoC5/CyLib.c ****         CY_PM_TW_CFG2_REG = pmTwCfg2Tmp;
 2308              		.loc 1 1456 0
 2309 00e6 44F28233 		movw	r3, #:lower16:1073759106
 2310 00ea C4F20003 		movt	r3, #:upper16:1073759106
 2311 00ee FA7D     		ldrb	r2, [r7, #23]
 2312 00f0 1A70     		strb	r2, [r3, #0]
 2313              	.L139:
1457:.\Generated_Source\PSoC5/CyLib.c ****     }
1458:.\Generated_Source\PSoC5/CyLib.c **** 
1459:.\Generated_Source\PSoC5/CyLib.c ****     return(status);
 2314              		.loc 1 1459 0
 2315 00f2 3B69     		ldr	r3, [r7, #16]
1460:.\Generated_Source\PSoC5/CyLib.c **** }
 2316              		.loc 1 1460 0
 2317 00f4 1846     		mov	r0, r3
 2318 00f6 07F11807 		add	r7, r7, #24
 2319 00fa BD46     		mov	sp, r7
 2320 00fc 80BD     		pop	{r7, pc}
 2321              		.cfi_endproc
 2322              	.LFE29:
 2323              		.size	CyXTAL_Start, .-CyXTAL_Start
 2324 00fe 00BF     		.section	.text.CyXTAL_Stop,"ax",%progbits
 2325              		.align	2
 2326              		.global	CyXTAL_Stop
 2327              		.thumb
 2328              		.thumb_func
 2329              		.type	CyXTAL_Stop, %function
 2330              	CyXTAL_Stop:
 2331              	.LFB30:
1461:.\Generated_Source\PSoC5/CyLib.c **** 
1462:.\Generated_Source\PSoC5/CyLib.c **** 
1463:.\Generated_Source\PSoC5/CyLib.c **** /*******************************************************************************
1464:.\Generated_Source\PSoC5/CyLib.c **** * Function Name: CyXTAL_Stop
1465:.\Generated_Source\PSoC5/CyLib.c **** ********************************************************************************
1466:.\Generated_Source\PSoC5/CyLib.c **** *
1467:.\Generated_Source\PSoC5/CyLib.c **** * Summary:
1468:.\Generated_Source\PSoC5/CyLib.c **** *  Disables the megahertz crystal oscillator.
1469:.\Generated_Source\PSoC5/CyLib.c **** *
1470:.\Generated_Source\PSoC5/CyLib.c **** * Parameters:
1471:.\Generated_Source\PSoC5/CyLib.c **** *  None
1472:.\Generated_Source\PSoC5/CyLib.c **** *
1473:.\Generated_Source\PSoC5/CyLib.c **** * Return:
1474:.\Generated_Source\PSoC5/CyLib.c **** *  None
1475:.\Generated_Source\PSoC5/CyLib.c **** *
1476:.\Generated_Source\PSoC5/CyLib.c **** *******************************************************************************/
1477:.\Generated_Source\PSoC5/CyLib.c **** void CyXTAL_Stop(void) 
1478:.\Generated_Source\PSoC5/CyLib.c **** {
 2332              		.loc 1 1478 0
 2333              		.cfi_startproc
 2334              		@ args = 0, pretend = 0, frame = 0
 2335              		@ frame_needed = 1, uses_anonymous_args = 0
 2336              		@ link register save eliminated.
 2337 0000 80B4     		push	{r7}
ARM GAS  C:\Users\karunmj\AppData\Local\Temp\cceFJIz4.s 			page 68


 2338              	.LCFI78:
 2339              		.cfi_def_cfa_offset 4
 2340 0002 00AF     		add	r7, sp, #0
 2341              		.cfi_offset 7, -4
 2342              	.LCFI79:
 2343              		.cfi_def_cfa_register 7
1479:.\Generated_Source\PSoC5/CyLib.c ****     /* Disable the the oscillator. */
1480:.\Generated_Source\PSoC5/CyLib.c ****     FASTCLK_XMHZ_CSR &= ((uint8)(~XMHZ_CONTROL_ENABLE));
 2344              		.loc 1 1480 0
 2345 0004 44F21023 		movw	r3, #:lower16:1073758736
 2346 0008 C4F20003 		movt	r3, #:upper16:1073758736
 2347 000c 44F21022 		movw	r2, #:lower16:1073758736
 2348 0010 C4F20002 		movt	r2, #:upper16:1073758736
 2349 0014 1278     		ldrb	r2, [r2, #0]
 2350 0016 D2B2     		uxtb	r2, r2
 2351 0018 02F0FE02 		and	r2, r2, #254
 2352 001c 1A70     		strb	r2, [r3, #0]
1481:.\Generated_Source\PSoC5/CyLib.c **** }
 2353              		.loc 1 1481 0
 2354 001e BD46     		mov	sp, r7
 2355 0020 80BC     		pop	{r7}
 2356 0022 7047     		bx	lr
 2357              		.cfi_endproc
 2358              	.LFE30:
 2359              		.size	CyXTAL_Stop, .-CyXTAL_Stop
 2360              		.section	.text.CyXTAL_EnableErrStatus,"ax",%progbits
 2361              		.align	2
 2362              		.global	CyXTAL_EnableErrStatus
 2363              		.thumb
 2364              		.thumb_func
 2365              		.type	CyXTAL_EnableErrStatus, %function
 2366              	CyXTAL_EnableErrStatus:
 2367              	.LFB31:
1482:.\Generated_Source\PSoC5/CyLib.c **** 
1483:.\Generated_Source\PSoC5/CyLib.c **** 
1484:.\Generated_Source\PSoC5/CyLib.c **** #if(!CY_PSOC5A)
1485:.\Generated_Source\PSoC5/CyLib.c **** 
1486:.\Generated_Source\PSoC5/CyLib.c ****     /*******************************************************************************
1487:.\Generated_Source\PSoC5/CyLib.c ****     * Function Name: CyXTAL_EnableErrStatus
1488:.\Generated_Source\PSoC5/CyLib.c ****     ********************************************************************************
1489:.\Generated_Source\PSoC5/CyLib.c ****     *
1490:.\Generated_Source\PSoC5/CyLib.c ****     * Summary:
1491:.\Generated_Source\PSoC5/CyLib.c ****     *  Enables the generation of the XERR status bit for the megahertz crystal.
1492:.\Generated_Source\PSoC5/CyLib.c ****     *  This function is not available for PSoC5.
1493:.\Generated_Source\PSoC5/CyLib.c ****     *
1494:.\Generated_Source\PSoC5/CyLib.c ****     * Parameters:
1495:.\Generated_Source\PSoC5/CyLib.c ****     *  None
1496:.\Generated_Source\PSoC5/CyLib.c ****     *
1497:.\Generated_Source\PSoC5/CyLib.c ****     * Return:
1498:.\Generated_Source\PSoC5/CyLib.c ****     *  None
1499:.\Generated_Source\PSoC5/CyLib.c ****     *
1500:.\Generated_Source\PSoC5/CyLib.c ****     *******************************************************************************/
1501:.\Generated_Source\PSoC5/CyLib.c ****     void CyXTAL_EnableErrStatus(void) 
1502:.\Generated_Source\PSoC5/CyLib.c ****     {
 2368              		.loc 1 1502 0
 2369              		.cfi_startproc
 2370              		@ args = 0, pretend = 0, frame = 0
ARM GAS  C:\Users\karunmj\AppData\Local\Temp\cceFJIz4.s 			page 69


 2371              		@ frame_needed = 1, uses_anonymous_args = 0
 2372              		@ link register save eliminated.
 2373 0000 80B4     		push	{r7}
 2374              	.LCFI80:
 2375              		.cfi_def_cfa_offset 4
 2376 0002 00AF     		add	r7, sp, #0
 2377              		.cfi_offset 7, -4
 2378              	.LCFI81:
 2379              		.cfi_def_cfa_register 7
1503:.\Generated_Source\PSoC5/CyLib.c ****         /* If oscillator has insufficient amplitude, XERR bit will be high. */
1504:.\Generated_Source\PSoC5/CyLib.c ****         CY_CLK_XMHZ_CSR_REG &= ((uint8)(~CY_CLK_XMHZ_CSR_XFB));
 2380              		.loc 1 1504 0
 2381 0004 44F21023 		movw	r3, #:lower16:1073758736
 2382 0008 C4F20003 		movt	r3, #:upper16:1073758736
 2383 000c 44F21022 		movw	r2, #:lower16:1073758736
 2384 0010 C4F20002 		movt	r2, #:upper16:1073758736
 2385 0014 1278     		ldrb	r2, [r2, #0]
 2386 0016 D2B2     		uxtb	r2, r2
 2387 0018 02F0FB02 		and	r2, r2, #251
 2388 001c 1A70     		strb	r2, [r3, #0]
1505:.\Generated_Source\PSoC5/CyLib.c ****     }
 2389              		.loc 1 1505 0
 2390 001e BD46     		mov	sp, r7
 2391 0020 80BC     		pop	{r7}
 2392 0022 7047     		bx	lr
 2393              		.cfi_endproc
 2394              	.LFE31:
 2395              		.size	CyXTAL_EnableErrStatus, .-CyXTAL_EnableErrStatus
 2396              		.section	.text.CyXTAL_DisableErrStatus,"ax",%progbits
 2397              		.align	2
 2398              		.global	CyXTAL_DisableErrStatus
 2399              		.thumb
 2400              		.thumb_func
 2401              		.type	CyXTAL_DisableErrStatus, %function
 2402              	CyXTAL_DisableErrStatus:
 2403              	.LFB32:
1506:.\Generated_Source\PSoC5/CyLib.c **** 
1507:.\Generated_Source\PSoC5/CyLib.c **** 
1508:.\Generated_Source\PSoC5/CyLib.c ****     /*******************************************************************************
1509:.\Generated_Source\PSoC5/CyLib.c ****     * Function Name: CyXTAL_DisableErrStatus
1510:.\Generated_Source\PSoC5/CyLib.c ****     ********************************************************************************
1511:.\Generated_Source\PSoC5/CyLib.c ****     *
1512:.\Generated_Source\PSoC5/CyLib.c ****     * Summary:
1513:.\Generated_Source\PSoC5/CyLib.c ****     *  Disables the generation of the XERR status bit for the megahertz crystal.
1514:.\Generated_Source\PSoC5/CyLib.c ****     *  This function is not available for PSoC5.
1515:.\Generated_Source\PSoC5/CyLib.c ****     *
1516:.\Generated_Source\PSoC5/CyLib.c ****     * Parameters:
1517:.\Generated_Source\PSoC5/CyLib.c ****     *  None
1518:.\Generated_Source\PSoC5/CyLib.c ****     *
1519:.\Generated_Source\PSoC5/CyLib.c ****     * Return:
1520:.\Generated_Source\PSoC5/CyLib.c ****     *  None
1521:.\Generated_Source\PSoC5/CyLib.c ****     *
1522:.\Generated_Source\PSoC5/CyLib.c ****     *******************************************************************************/
1523:.\Generated_Source\PSoC5/CyLib.c ****     void CyXTAL_DisableErrStatus(void) 
1524:.\Generated_Source\PSoC5/CyLib.c ****     {
 2404              		.loc 1 1524 0
 2405              		.cfi_startproc
ARM GAS  C:\Users\karunmj\AppData\Local\Temp\cceFJIz4.s 			page 70


 2406              		@ args = 0, pretend = 0, frame = 0
 2407              		@ frame_needed = 1, uses_anonymous_args = 0
 2408              		@ link register save eliminated.
 2409 0000 80B4     		push	{r7}
 2410              	.LCFI82:
 2411              		.cfi_def_cfa_offset 4
 2412 0002 00AF     		add	r7, sp, #0
 2413              		.cfi_offset 7, -4
 2414              	.LCFI83:
 2415              		.cfi_def_cfa_register 7
1525:.\Generated_Source\PSoC5/CyLib.c ****         /* If oscillator has insufficient amplitude, XERR bit will be high. */
1526:.\Generated_Source\PSoC5/CyLib.c ****         CY_CLK_XMHZ_CSR_REG |= CY_CLK_XMHZ_CSR_XFB;
 2416              		.loc 1 1526 0
 2417 0004 44F21023 		movw	r3, #:lower16:1073758736
 2418 0008 C4F20003 		movt	r3, #:upper16:1073758736
 2419 000c 44F21022 		movw	r2, #:lower16:1073758736
 2420 0010 C4F20002 		movt	r2, #:upper16:1073758736
 2421 0014 1278     		ldrb	r2, [r2, #0]
 2422 0016 D2B2     		uxtb	r2, r2
 2423 0018 42F00402 		orr	r2, r2, #4
 2424 001c D2B2     		uxtb	r2, r2
 2425 001e 1A70     		strb	r2, [r3, #0]
1527:.\Generated_Source\PSoC5/CyLib.c ****     }
 2426              		.loc 1 1527 0
 2427 0020 BD46     		mov	sp, r7
 2428 0022 80BC     		pop	{r7}
 2429 0024 7047     		bx	lr
 2430              		.cfi_endproc
 2431              	.LFE32:
 2432              		.size	CyXTAL_DisableErrStatus, .-CyXTAL_DisableErrStatus
 2433 0026 00BF     		.section	.text.CyXTAL_ReadStatus,"ax",%progbits
 2434              		.align	2
 2435              		.global	CyXTAL_ReadStatus
 2436              		.thumb
 2437              		.thumb_func
 2438              		.type	CyXTAL_ReadStatus, %function
 2439              	CyXTAL_ReadStatus:
 2440              	.LFB33:
1528:.\Generated_Source\PSoC5/CyLib.c **** 
1529:.\Generated_Source\PSoC5/CyLib.c **** 
1530:.\Generated_Source\PSoC5/CyLib.c ****     /*******************************************************************************
1531:.\Generated_Source\PSoC5/CyLib.c ****     * Function Name: CyXTAL_ReadStatus
1532:.\Generated_Source\PSoC5/CyLib.c ****     ********************************************************************************
1533:.\Generated_Source\PSoC5/CyLib.c ****     *
1534:.\Generated_Source\PSoC5/CyLib.c ****     * Summary:
1535:.\Generated_Source\PSoC5/CyLib.c ****     *  Reads the XERR status bit for the megahertz crystal. This status bit is a
1536:.\Generated_Source\PSoC5/CyLib.c ****     *  sticky clear on read value. This function is not available for PSoC5.
1537:.\Generated_Source\PSoC5/CyLib.c ****     *
1538:.\Generated_Source\PSoC5/CyLib.c ****     * Parameters:
1539:.\Generated_Source\PSoC5/CyLib.c ****     *  None
1540:.\Generated_Source\PSoC5/CyLib.c ****     *
1541:.\Generated_Source\PSoC5/CyLib.c ****     * Return:
1542:.\Generated_Source\PSoC5/CyLib.c ****     *   Status
1543:.\Generated_Source\PSoC5/CyLib.c ****     *    0: No error
1544:.\Generated_Source\PSoC5/CyLib.c ****     *    1: Error
1545:.\Generated_Source\PSoC5/CyLib.c ****     *
1546:.\Generated_Source\PSoC5/CyLib.c ****     *******************************************************************************/
ARM GAS  C:\Users\karunmj\AppData\Local\Temp\cceFJIz4.s 			page 71


1547:.\Generated_Source\PSoC5/CyLib.c ****     uint8 CyXTAL_ReadStatus(void) 
1548:.\Generated_Source\PSoC5/CyLib.c ****     {
 2441              		.loc 1 1548 0
 2442              		.cfi_startproc
 2443              		@ args = 0, pretend = 0, frame = 0
 2444              		@ frame_needed = 1, uses_anonymous_args = 0
 2445              		@ link register save eliminated.
 2446 0000 80B4     		push	{r7}
 2447              	.LCFI84:
 2448              		.cfi_def_cfa_offset 4
 2449 0002 00AF     		add	r7, sp, #0
 2450              		.cfi_offset 7, -4
 2451              	.LCFI85:
 2452              		.cfi_def_cfa_register 7
1549:.\Generated_Source\PSoC5/CyLib.c ****         /***************************************************************************
1550:.\Generated_Source\PSoC5/CyLib.c ****         * High output indicates oscillator failure. Only use this after start-up
1551:.\Generated_Source\PSoC5/CyLib.c ****         * interval is completed. This can be used for status and failure recovery.
1552:.\Generated_Source\PSoC5/CyLib.c ****         ***************************************************************************/
1553:.\Generated_Source\PSoC5/CyLib.c ****         return((0u != (CY_CLK_XMHZ_CSR_REG & CY_CLK_XMHZ_CSR_XERR)) ? 1u : 0u);
 2453              		.loc 1 1553 0
 2454 0004 44F21023 		movw	r3, #:lower16:1073758736
 2455 0008 C4F20003 		movt	r3, #:upper16:1073758736
 2456 000c 1B78     		ldrb	r3, [r3, #0]
 2457 000e DBB2     		uxtb	r3, r3
 2458 0010 5BB2     		sxtb	r3, r3
 2459 0012 002B     		cmp	r3, #0
 2460 0014 02DA     		bge	.L155
 2461 0016 4FF00103 		mov	r3, #1
 2462 001a 01E0     		b	.L156
 2463              	.L155:
 2464 001c 4FF00003 		mov	r3, #0
 2465              	.L156:
1554:.\Generated_Source\PSoC5/CyLib.c ****     }
 2466              		.loc 1 1554 0
 2467 0020 1846     		mov	r0, r3
 2468 0022 BD46     		mov	sp, r7
 2469 0024 80BC     		pop	{r7}
 2470 0026 7047     		bx	lr
 2471              		.cfi_endproc
 2472              	.LFE33:
 2473              		.size	CyXTAL_ReadStatus, .-CyXTAL_ReadStatus
 2474              		.section	.text.CyXTAL_EnableFaultRecovery,"ax",%progbits
 2475              		.align	2
 2476              		.global	CyXTAL_EnableFaultRecovery
 2477              		.thumb
 2478              		.thumb_func
 2479              		.type	CyXTAL_EnableFaultRecovery, %function
 2480              	CyXTAL_EnableFaultRecovery:
 2481              	.LFB34:
1555:.\Generated_Source\PSoC5/CyLib.c **** 
1556:.\Generated_Source\PSoC5/CyLib.c **** 
1557:.\Generated_Source\PSoC5/CyLib.c ****     /*******************************************************************************
1558:.\Generated_Source\PSoC5/CyLib.c ****     * Function Name: CyXTAL_EnableFaultRecovery
1559:.\Generated_Source\PSoC5/CyLib.c ****     ********************************************************************************
1560:.\Generated_Source\PSoC5/CyLib.c ****     *
1561:.\Generated_Source\PSoC5/CyLib.c ****     * Summary:
1562:.\Generated_Source\PSoC5/CyLib.c ****     *  Enables the fault recovery circuit which will switch to the IMO in the case
ARM GAS  C:\Users\karunmj\AppData\Local\Temp\cceFJIz4.s 			page 72


1563:.\Generated_Source\PSoC5/CyLib.c ****     *  of a fault in the megahertz crystal circuit. The crystal must be up and
1564:.\Generated_Source\PSoC5/CyLib.c ****     *  running with the XERR bit at 0, before calling this function to prevent
1565:.\Generated_Source\PSoC5/CyLib.c ****     *  immediate fault switchover. This function is not available for PSoC5.
1566:.\Generated_Source\PSoC5/CyLib.c ****     *
1567:.\Generated_Source\PSoC5/CyLib.c ****     * Parameters:
1568:.\Generated_Source\PSoC5/CyLib.c ****     *  None
1569:.\Generated_Source\PSoC5/CyLib.c ****     *
1570:.\Generated_Source\PSoC5/CyLib.c ****     * Return:
1571:.\Generated_Source\PSoC5/CyLib.c ****     *  None
1572:.\Generated_Source\PSoC5/CyLib.c ****     *
1573:.\Generated_Source\PSoC5/CyLib.c ****     *******************************************************************************/
1574:.\Generated_Source\PSoC5/CyLib.c ****     void CyXTAL_EnableFaultRecovery(void) 
1575:.\Generated_Source\PSoC5/CyLib.c ****     {
 2482              		.loc 1 1575 0
 2483              		.cfi_startproc
 2484              		@ args = 0, pretend = 0, frame = 0
 2485              		@ frame_needed = 1, uses_anonymous_args = 0
 2486              		@ link register save eliminated.
 2487 0000 80B4     		push	{r7}
 2488              	.LCFI86:
 2489              		.cfi_def_cfa_offset 4
 2490 0002 00AF     		add	r7, sp, #0
 2491              		.cfi_offset 7, -4
 2492              	.LCFI87:
 2493              		.cfi_def_cfa_register 7
1576:.\Generated_Source\PSoC5/CyLib.c ****         CY_CLK_XMHZ_CSR_REG |= CY_CLK_XMHZ_CSR_XPROT;
 2494              		.loc 1 1576 0
 2495 0004 44F21023 		movw	r3, #:lower16:1073758736
 2496 0008 C4F20003 		movt	r3, #:upper16:1073758736
 2497 000c 44F21022 		movw	r2, #:lower16:1073758736
 2498 0010 C4F20002 		movt	r2, #:upper16:1073758736
 2499 0014 1278     		ldrb	r2, [r2, #0]
 2500 0016 D2B2     		uxtb	r2, r2
 2501 0018 42F04002 		orr	r2, r2, #64
 2502 001c D2B2     		uxtb	r2, r2
 2503 001e 1A70     		strb	r2, [r3, #0]
1577:.\Generated_Source\PSoC5/CyLib.c ****     }
 2504              		.loc 1 1577 0
 2505 0020 BD46     		mov	sp, r7
 2506 0022 80BC     		pop	{r7}
 2507 0024 7047     		bx	lr
 2508              		.cfi_endproc
 2509              	.LFE34:
 2510              		.size	CyXTAL_EnableFaultRecovery, .-CyXTAL_EnableFaultRecovery
 2511 0026 00BF     		.section	.text.CyXTAL_DisableFaultRecovery,"ax",%progbits
 2512              		.align	2
 2513              		.global	CyXTAL_DisableFaultRecovery
 2514              		.thumb
 2515              		.thumb_func
 2516              		.type	CyXTAL_DisableFaultRecovery, %function
 2517              	CyXTAL_DisableFaultRecovery:
 2518              	.LFB35:
1578:.\Generated_Source\PSoC5/CyLib.c **** 
1579:.\Generated_Source\PSoC5/CyLib.c **** 
1580:.\Generated_Source\PSoC5/CyLib.c ****     /*******************************************************************************
1581:.\Generated_Source\PSoC5/CyLib.c ****     * Function Name: CyXTAL_DisableFaultRecovery
1582:.\Generated_Source\PSoC5/CyLib.c ****     ********************************************************************************
ARM GAS  C:\Users\karunmj\AppData\Local\Temp\cceFJIz4.s 			page 73


1583:.\Generated_Source\PSoC5/CyLib.c ****     *
1584:.\Generated_Source\PSoC5/CyLib.c ****     * Summary:
1585:.\Generated_Source\PSoC5/CyLib.c ****     *  Disables the fault recovery circuit which will switch to the IMO in the case
1586:.\Generated_Source\PSoC5/CyLib.c ****     *  of a fault in the megahertz crystal circuit. This function is not available
1587:.\Generated_Source\PSoC5/CyLib.c ****     *  for PSoC5.
1588:.\Generated_Source\PSoC5/CyLib.c ****     *
1589:.\Generated_Source\PSoC5/CyLib.c ****     * Parameters:
1590:.\Generated_Source\PSoC5/CyLib.c ****     *  None
1591:.\Generated_Source\PSoC5/CyLib.c ****     *
1592:.\Generated_Source\PSoC5/CyLib.c ****     * Return:
1593:.\Generated_Source\PSoC5/CyLib.c ****     *  None
1594:.\Generated_Source\PSoC5/CyLib.c ****     *
1595:.\Generated_Source\PSoC5/CyLib.c ****     *******************************************************************************/
1596:.\Generated_Source\PSoC5/CyLib.c ****     void CyXTAL_DisableFaultRecovery(void) 
1597:.\Generated_Source\PSoC5/CyLib.c ****     {
 2519              		.loc 1 1597 0
 2520              		.cfi_startproc
 2521              		@ args = 0, pretend = 0, frame = 0
 2522              		@ frame_needed = 1, uses_anonymous_args = 0
 2523              		@ link register save eliminated.
 2524 0000 80B4     		push	{r7}
 2525              	.LCFI88:
 2526              		.cfi_def_cfa_offset 4
 2527 0002 00AF     		add	r7, sp, #0
 2528              		.cfi_offset 7, -4
 2529              	.LCFI89:
 2530              		.cfi_def_cfa_register 7
1598:.\Generated_Source\PSoC5/CyLib.c ****         CY_CLK_XMHZ_CSR_REG &= ((uint8)(~CY_CLK_XMHZ_CSR_XPROT));
 2531              		.loc 1 1598 0
 2532 0004 44F21023 		movw	r3, #:lower16:1073758736
 2533 0008 C4F20003 		movt	r3, #:upper16:1073758736
 2534 000c 44F21022 		movw	r2, #:lower16:1073758736
 2535 0010 C4F20002 		movt	r2, #:upper16:1073758736
 2536 0014 1278     		ldrb	r2, [r2, #0]
 2537 0016 D2B2     		uxtb	r2, r2
 2538 0018 02F0BF02 		and	r2, r2, #191
 2539 001c 1A70     		strb	r2, [r3, #0]
1599:.\Generated_Source\PSoC5/CyLib.c ****     }
 2540              		.loc 1 1599 0
 2541 001e BD46     		mov	sp, r7
 2542 0020 80BC     		pop	{r7}
 2543 0022 7047     		bx	lr
 2544              		.cfi_endproc
 2545              	.LFE35:
 2546              		.size	CyXTAL_DisableFaultRecovery, .-CyXTAL_DisableFaultRecovery
 2547              		.section	.text.CyXTAL_SetStartup,"ax",%progbits
 2548              		.align	2
 2549              		.global	CyXTAL_SetStartup
 2550              		.thumb
 2551              		.thumb_func
 2552              		.type	CyXTAL_SetStartup, %function
 2553              	CyXTAL_SetStartup:
 2554              	.LFB36:
1600:.\Generated_Source\PSoC5/CyLib.c **** 
1601:.\Generated_Source\PSoC5/CyLib.c **** #endif  /* (!CY_PSOC5A) */
1602:.\Generated_Source\PSoC5/CyLib.c **** 
1603:.\Generated_Source\PSoC5/CyLib.c **** /*******************************************************************************
ARM GAS  C:\Users\karunmj\AppData\Local\Temp\cceFJIz4.s 			page 74


1604:.\Generated_Source\PSoC5/CyLib.c **** * Function Name: CyXTAL_SetStartup
1605:.\Generated_Source\PSoC5/CyLib.c **** ********************************************************************************
1606:.\Generated_Source\PSoC5/CyLib.c **** *
1607:.\Generated_Source\PSoC5/CyLib.c **** * Summary:
1608:.\Generated_Source\PSoC5/CyLib.c **** *  Sets the startup settings for the crystal. Logic model outputs a frequency
1609:.\Generated_Source\PSoC5/CyLib.c **** *  (setting + 4) MHz when enabled.
1610:.\Generated_Source\PSoC5/CyLib.c **** *
1611:.\Generated_Source\PSoC5/CyLib.c **** *  This is artificial as the actual frequency is determined by an attached
1612:.\Generated_Source\PSoC5/CyLib.c **** *  external crystal.
1613:.\Generated_Source\PSoC5/CyLib.c **** *
1614:.\Generated_Source\PSoC5/CyLib.c **** * Parameters:
1615:.\Generated_Source\PSoC5/CyLib.c **** *  setting: Valid range [0-31].
1616:.\Generated_Source\PSoC5/CyLib.c **** *   Value is dependent on the frequency and quality of the crystal being used.
1617:.\Generated_Source\PSoC5/CyLib.c **** *   Refer to the device TRM and datasheet for more information.
1618:.\Generated_Source\PSoC5/CyLib.c **** *
1619:.\Generated_Source\PSoC5/CyLib.c **** * Return:
1620:.\Generated_Source\PSoC5/CyLib.c **** *  None
1621:.\Generated_Source\PSoC5/CyLib.c **** *
1622:.\Generated_Source\PSoC5/CyLib.c **** *******************************************************************************/
1623:.\Generated_Source\PSoC5/CyLib.c **** void CyXTAL_SetStartup(uint8 setting) 
1624:.\Generated_Source\PSoC5/CyLib.c **** {
 2555              		.loc 1 1624 0
 2556              		.cfi_startproc
 2557              		@ args = 0, pretend = 0, frame = 8
 2558              		@ frame_needed = 1, uses_anonymous_args = 0
 2559              		@ link register save eliminated.
 2560 0000 80B4     		push	{r7}
 2561              	.LCFI90:
 2562              		.cfi_def_cfa_offset 4
 2563 0002 83B0     		sub	sp, sp, #12
 2564              	.LCFI91:
 2565              		.cfi_def_cfa_offset 16
 2566 0004 00AF     		add	r7, sp, #0
 2567              		.cfi_offset 7, -4
 2568              	.LCFI92:
 2569              		.cfi_def_cfa_register 7
 2570 0006 0346     		mov	r3, r0
 2571 0008 FB71     		strb	r3, [r7, #7]
1625:.\Generated_Source\PSoC5/CyLib.c ****     CY_CLK_XMHZ_CFG0_REG = (CY_CLK_XMHZ_CFG0_REG & ((uint8)(~CY_CLK_XMHZ_CFG0_XCFG_MASK))) |
 2572              		.loc 1 1625 0
 2573 000a 44F21223 		movw	r3, #:lower16:1073758738
 2574 000e C4F20003 		movt	r3, #:upper16:1073758738
 2575 0012 44F21222 		movw	r2, #:lower16:1073758738
 2576 0016 C4F20002 		movt	r2, #:upper16:1073758738
 2577 001a 1278     		ldrb	r2, [r2, #0]
 2578 001c D2B2     		uxtb	r2, r2
 2579 001e 1146     		mov	r1, r2
 2580 0020 01F0E001 		and	r1, r1, #224
 2581 0024 FA79     		ldrb	r2, [r7, #7]	@ zero_extendqisi2
 2582 0026 02F01F02 		and	r2, r2, #31
 2583 002a 41EA0202 		orr	r2, r1, r2
 2584 002e D2B2     		uxtb	r2, r2
 2585 0030 1A70     		strb	r2, [r3, #0]
1626:.\Generated_Source\PSoC5/CyLib.c ****                            (setting & CY_CLK_XMHZ_CFG0_XCFG_MASK);
1627:.\Generated_Source\PSoC5/CyLib.c **** }
 2586              		.loc 1 1627 0
 2587 0032 07F10C07 		add	r7, r7, #12
ARM GAS  C:\Users\karunmj\AppData\Local\Temp\cceFJIz4.s 			page 75


 2588 0036 BD46     		mov	sp, r7
 2589 0038 80BC     		pop	{r7}
 2590 003a 7047     		bx	lr
 2591              		.cfi_endproc
 2592              	.LFE36:
 2593              		.size	CyXTAL_SetStartup, .-CyXTAL_SetStartup
 2594              		.section	.text.CyXTAL_SetFbVoltage,"ax",%progbits
 2595              		.align	2
 2596              		.global	CyXTAL_SetFbVoltage
 2597              		.thumb
 2598              		.thumb_func
 2599              		.type	CyXTAL_SetFbVoltage, %function
 2600              	CyXTAL_SetFbVoltage:
 2601              	.LFB37:
1628:.\Generated_Source\PSoC5/CyLib.c **** 
1629:.\Generated_Source\PSoC5/CyLib.c **** 
1630:.\Generated_Source\PSoC5/CyLib.c **** #if(CY_PSOC3 || CY_PSOC5LP)
1631:.\Generated_Source\PSoC5/CyLib.c ****     /*******************************************************************************
1632:.\Generated_Source\PSoC5/CyLib.c ****     * Function Name: CyXTAL_SetFbVoltage
1633:.\Generated_Source\PSoC5/CyLib.c ****     ********************************************************************************
1634:.\Generated_Source\PSoC5/CyLib.c ****     *
1635:.\Generated_Source\PSoC5/CyLib.c ****     * Summary:
1636:.\Generated_Source\PSoC5/CyLib.c ****     *  Sets the feedback reference voltage to use for the crystal circuit.
1637:.\Generated_Source\PSoC5/CyLib.c ****     *  This function is only available for PSoC3 and PSoC 5LP.
1638:.\Generated_Source\PSoC5/CyLib.c ****     *
1639:.\Generated_Source\PSoC5/CyLib.c ****     * Parameters:
1640:.\Generated_Source\PSoC5/CyLib.c ****     *  setting: Valid range [0-15].
1641:.\Generated_Source\PSoC5/CyLib.c ****     *  Refer to the device TRM and datasheet for more information.
1642:.\Generated_Source\PSoC5/CyLib.c ****     *
1643:.\Generated_Source\PSoC5/CyLib.c ****     * Return:
1644:.\Generated_Source\PSoC5/CyLib.c ****     *  None
1645:.\Generated_Source\PSoC5/CyLib.c ****     *
1646:.\Generated_Source\PSoC5/CyLib.c ****     *******************************************************************************/
1647:.\Generated_Source\PSoC5/CyLib.c ****     void CyXTAL_SetFbVoltage(uint8 setting) 
1648:.\Generated_Source\PSoC5/CyLib.c ****     {
 2602              		.loc 1 1648 0
 2603              		.cfi_startproc
 2604              		@ args = 0, pretend = 0, frame = 8
 2605              		@ frame_needed = 1, uses_anonymous_args = 0
 2606              		@ link register save eliminated.
 2607 0000 80B4     		push	{r7}
 2608              	.LCFI93:
 2609              		.cfi_def_cfa_offset 4
 2610 0002 83B0     		sub	sp, sp, #12
 2611              	.LCFI94:
 2612              		.cfi_def_cfa_offset 16
 2613 0004 00AF     		add	r7, sp, #0
 2614              		.cfi_offset 7, -4
 2615              	.LCFI95:
 2616              		.cfi_def_cfa_register 7
 2617 0006 0346     		mov	r3, r0
 2618 0008 FB71     		strb	r3, [r7, #7]
1649:.\Generated_Source\PSoC5/CyLib.c ****         CY_CLK_XMHZ_CFG1_REG = ((CY_CLK_XMHZ_CFG1_REG & ((uint8)(~CY_CLK_XMHZ_CFG1_VREF_FB_MASK))) 
 2619              		.loc 1 1649 0
 2620 000a 44F21323 		movw	r3, #:lower16:1073758739
 2621 000e C4F20003 		movt	r3, #:upper16:1073758739
 2622 0012 44F21322 		movw	r2, #:lower16:1073758739
ARM GAS  C:\Users\karunmj\AppData\Local\Temp\cceFJIz4.s 			page 76


 2623 0016 C4F20002 		movt	r2, #:upper16:1073758739
 2624 001a 1278     		ldrb	r2, [r2, #0]
 2625 001c D2B2     		uxtb	r2, r2
 2626 001e 1146     		mov	r1, r2
 2627 0020 01F0F001 		and	r1, r1, #240
 2628 0024 FA79     		ldrb	r2, [r7, #7]	@ zero_extendqisi2
 2629 0026 02F00F02 		and	r2, r2, #15
 2630 002a 41EA0202 		orr	r2, r1, r2
 2631 002e D2B2     		uxtb	r2, r2
 2632 0030 1A70     		strb	r2, [r3, #0]
1650:.\Generated_Source\PSoC5/CyLib.c ****                                 (setting & CY_CLK_XMHZ_CFG1_VREF_FB_MASK));
1651:.\Generated_Source\PSoC5/CyLib.c ****     }
 2633              		.loc 1 1651 0
 2634 0032 07F10C07 		add	r7, r7, #12
 2635 0036 BD46     		mov	sp, r7
 2636 0038 80BC     		pop	{r7}
 2637 003a 7047     		bx	lr
 2638              		.cfi_endproc
 2639              	.LFE37:
 2640              		.size	CyXTAL_SetFbVoltage, .-CyXTAL_SetFbVoltage
 2641              		.section	.text.CyXTAL_SetWdVoltage,"ax",%progbits
 2642              		.align	2
 2643              		.global	CyXTAL_SetWdVoltage
 2644              		.thumb
 2645              		.thumb_func
 2646              		.type	CyXTAL_SetWdVoltage, %function
 2647              	CyXTAL_SetWdVoltage:
 2648              	.LFB38:
1652:.\Generated_Source\PSoC5/CyLib.c **** 
1653:.\Generated_Source\PSoC5/CyLib.c **** 
1654:.\Generated_Source\PSoC5/CyLib.c ****     /*******************************************************************************
1655:.\Generated_Source\PSoC5/CyLib.c ****     * Function Name: CyXTAL_SetWdVoltage
1656:.\Generated_Source\PSoC5/CyLib.c ****     ********************************************************************************
1657:.\Generated_Source\PSoC5/CyLib.c ****     *
1658:.\Generated_Source\PSoC5/CyLib.c ****     * Summary:
1659:.\Generated_Source\PSoC5/CyLib.c ****     *  Sets the reference voltage used by the watchdog to detect a failure in the
1660:.\Generated_Source\PSoC5/CyLib.c ****     *  crystal circuit. This function is only available for PSoC3 and PSoC 5LP.
1661:.\Generated_Source\PSoC5/CyLib.c ****     *
1662:.\Generated_Source\PSoC5/CyLib.c ****     * Parameters:
1663:.\Generated_Source\PSoC5/CyLib.c ****     *  setting: Valid range [0-7].
1664:.\Generated_Source\PSoC5/CyLib.c ****     *  Refer to the device TRM and datasheet for more information.
1665:.\Generated_Source\PSoC5/CyLib.c ****     *
1666:.\Generated_Source\PSoC5/CyLib.c ****     * Return:
1667:.\Generated_Source\PSoC5/CyLib.c ****     *  None
1668:.\Generated_Source\PSoC5/CyLib.c ****     *
1669:.\Generated_Source\PSoC5/CyLib.c ****     *******************************************************************************/
1670:.\Generated_Source\PSoC5/CyLib.c ****     void CyXTAL_SetWdVoltage(uint8 setting) 
1671:.\Generated_Source\PSoC5/CyLib.c ****     {
 2649              		.loc 1 1671 0
 2650              		.cfi_startproc
 2651              		@ args = 0, pretend = 0, frame = 8
 2652              		@ frame_needed = 1, uses_anonymous_args = 0
 2653              		@ link register save eliminated.
 2654 0000 80B4     		push	{r7}
 2655              	.LCFI96:
 2656              		.cfi_def_cfa_offset 4
 2657 0002 83B0     		sub	sp, sp, #12
ARM GAS  C:\Users\karunmj\AppData\Local\Temp\cceFJIz4.s 			page 77


 2658              	.LCFI97:
 2659              		.cfi_def_cfa_offset 16
 2660 0004 00AF     		add	r7, sp, #0
 2661              		.cfi_offset 7, -4
 2662              	.LCFI98:
 2663              		.cfi_def_cfa_register 7
 2664 0006 0346     		mov	r3, r0
 2665 0008 FB71     		strb	r3, [r7, #7]
1672:.\Generated_Source\PSoC5/CyLib.c ****         CY_CLK_XMHZ_CFG1_REG = ((CY_CLK_XMHZ_CFG1_REG & ((uint8)(~CY_CLK_XMHZ_CFG1_VREF_WD_MASK))) 
 2666              		.loc 1 1672 0
 2667 000a 44F21323 		movw	r3, #:lower16:1073758739
 2668 000e C4F20003 		movt	r3, #:upper16:1073758739
 2669 0012 44F21322 		movw	r2, #:lower16:1073758739
 2670 0016 C4F20002 		movt	r2, #:upper16:1073758739
 2671 001a 1278     		ldrb	r2, [r2, #0]
 2672 001c D2B2     		uxtb	r2, r2
 2673 001e 1146     		mov	r1, r2
 2674 0020 01F08F01 		and	r1, r1, #143
1673:.\Generated_Source\PSoC5/CyLib.c ****                                 (((uint8)(setting << 4u)) & CY_CLK_XMHZ_CFG1_VREF_WD_MASK));
 2675              		.loc 1 1673 0
 2676 0024 FA79     		ldrb	r2, [r7, #7]
 2677 0026 4FEA0212 		lsl	r2, r2, #4
 2678 002a D2B2     		uxtb	r2, r2
 2679              		.loc 1 1672 0
 2680 002c 02F07002 		and	r2, r2, #112
 2681 0030 41EA0202 		orr	r2, r1, r2
 2682 0034 D2B2     		uxtb	r2, r2
 2683 0036 1A70     		strb	r2, [r3, #0]
1674:.\Generated_Source\PSoC5/CyLib.c ****     }
 2684              		.loc 1 1674 0
 2685 0038 07F10C07 		add	r7, r7, #12
 2686 003c BD46     		mov	sp, r7
 2687 003e 80BC     		pop	{r7}
 2688 0040 7047     		bx	lr
 2689              		.cfi_endproc
 2690              	.LFE38:
 2691              		.size	CyXTAL_SetWdVoltage, .-CyXTAL_SetWdVoltage
 2692 0042 00BF     		.section	.text.CyHalt,"ax",%progbits
 2693              		.align	2
 2694              		.global	CyHalt
 2695              		.thumb
 2696              		.thumb_func
 2697              		.type	CyHalt, %function
 2698              	CyHalt:
 2699              	.LFB39:
1675:.\Generated_Source\PSoC5/CyLib.c **** 
1676:.\Generated_Source\PSoC5/CyLib.c **** #endif /* (CY_PSOC3 || CY_PSOC5LP) */
1677:.\Generated_Source\PSoC5/CyLib.c **** 
1678:.\Generated_Source\PSoC5/CyLib.c **** 
1679:.\Generated_Source\PSoC5/CyLib.c **** /*******************************************************************************
1680:.\Generated_Source\PSoC5/CyLib.c **** * Function Name: CyHalt
1681:.\Generated_Source\PSoC5/CyLib.c **** ********************************************************************************
1682:.\Generated_Source\PSoC5/CyLib.c **** *
1683:.\Generated_Source\PSoC5/CyLib.c **** * Summary:
1684:.\Generated_Source\PSoC5/CyLib.c **** *  Halts the CPU.
1685:.\Generated_Source\PSoC5/CyLib.c **** *
1686:.\Generated_Source\PSoC5/CyLib.c **** * Parameters:
ARM GAS  C:\Users\karunmj\AppData\Local\Temp\cceFJIz4.s 			page 78


1687:.\Generated_Source\PSoC5/CyLib.c **** *  uint8 reason: Value to be used during debugging.
1688:.\Generated_Source\PSoC5/CyLib.c **** *
1689:.\Generated_Source\PSoC5/CyLib.c **** * Return:
1690:.\Generated_Source\PSoC5/CyLib.c **** *  None
1691:.\Generated_Source\PSoC5/CyLib.c **** *
1692:.\Generated_Source\PSoC5/CyLib.c **** *******************************************************************************/
1693:.\Generated_Source\PSoC5/CyLib.c **** void CyHalt(uint8 reason) CYREENTRANT
1694:.\Generated_Source\PSoC5/CyLib.c **** {
 2700              		.loc 1 1694 0
 2701              		.cfi_startproc
 2702              		@ args = 0, pretend = 0, frame = 8
 2703              		@ frame_needed = 1, uses_anonymous_args = 0
 2704              		@ link register save eliminated.
 2705 0000 80B4     		push	{r7}
 2706              	.LCFI99:
 2707              		.cfi_def_cfa_offset 4
 2708 0002 83B0     		sub	sp, sp, #12
 2709              	.LCFI100:
 2710              		.cfi_def_cfa_offset 16
 2711 0004 00AF     		add	r7, sp, #0
 2712              		.cfi_offset 7, -4
 2713              	.LCFI101:
 2714              		.cfi_def_cfa_register 7
 2715 0006 0346     		mov	r3, r0
 2716 0008 FB71     		strb	r3, [r7, #7]
1695:.\Generated_Source\PSoC5/CyLib.c ****     if(0u != reason)
1696:.\Generated_Source\PSoC5/CyLib.c ****     {
1697:.\Generated_Source\PSoC5/CyLib.c ****         /* To remove unreferenced local variable warning */
1698:.\Generated_Source\PSoC5/CyLib.c ****     }
1699:.\Generated_Source\PSoC5/CyLib.c **** 
1700:.\Generated_Source\PSoC5/CyLib.c ****     #if defined (__ARMCC_VERSION)
1701:.\Generated_Source\PSoC5/CyLib.c ****         __breakpoint(0x0);
1702:.\Generated_Source\PSoC5/CyLib.c ****     #elif defined(__GNUC__)
1703:.\Generated_Source\PSoC5/CyLib.c ****         __asm("    bkpt    1");
 2717              		.loc 1 1703 0
 2718              	@ 1703 ".\Generated_Source\PSoC5\CyLib.c" 1
 2719 000a 01BE     		    bkpt    1
 2720              	@ 0 "" 2
1704:.\Generated_Source\PSoC5/CyLib.c ****     #elif defined(__C51__)
1705:.\Generated_Source\PSoC5/CyLib.c ****         CYDEV_HALT_CPU;
1706:.\Generated_Source\PSoC5/CyLib.c ****     #endif  /* (__ARMCC_VERSION) */
1707:.\Generated_Source\PSoC5/CyLib.c **** }
 2721              		.loc 1 1707 0
 2722              		.thumb
 2723 000c 07F10C07 		add	r7, r7, #12
 2724 0010 BD46     		mov	sp, r7
 2725 0012 80BC     		pop	{r7}
 2726 0014 7047     		bx	lr
 2727              		.cfi_endproc
 2728              	.LFE39:
 2729              		.size	CyHalt, .-CyHalt
 2730 0016 00BF     		.section	.text.CySoftwareReset,"ax",%progbits
 2731              		.align	2
 2732              		.global	CySoftwareReset
 2733              		.thumb
 2734              		.thumb_func
 2735              		.type	CySoftwareReset, %function
ARM GAS  C:\Users\karunmj\AppData\Local\Temp\cceFJIz4.s 			page 79


 2736              	CySoftwareReset:
 2737              	.LFB40:
1708:.\Generated_Source\PSoC5/CyLib.c **** 
1709:.\Generated_Source\PSoC5/CyLib.c **** 
1710:.\Generated_Source\PSoC5/CyLib.c **** /*******************************************************************************
1711:.\Generated_Source\PSoC5/CyLib.c **** * Function Name: CySoftwareReset
1712:.\Generated_Source\PSoC5/CyLib.c **** ********************************************************************************
1713:.\Generated_Source\PSoC5/CyLib.c **** *
1714:.\Generated_Source\PSoC5/CyLib.c **** * Summary:
1715:.\Generated_Source\PSoC5/CyLib.c **** *  Forces a software reset of the device.
1716:.\Generated_Source\PSoC5/CyLib.c **** *
1717:.\Generated_Source\PSoC5/CyLib.c **** * Parameters:
1718:.\Generated_Source\PSoC5/CyLib.c **** *  None
1719:.\Generated_Source\PSoC5/CyLib.c **** *
1720:.\Generated_Source\PSoC5/CyLib.c **** * Return:
1721:.\Generated_Source\PSoC5/CyLib.c **** *  None
1722:.\Generated_Source\PSoC5/CyLib.c **** *
1723:.\Generated_Source\PSoC5/CyLib.c **** *******************************************************************************/
1724:.\Generated_Source\PSoC5/CyLib.c **** void CySoftwareReset(void) 
1725:.\Generated_Source\PSoC5/CyLib.c **** {
 2738              		.loc 1 1725 0
 2739              		.cfi_startproc
 2740              		@ args = 0, pretend = 0, frame = 0
 2741              		@ frame_needed = 1, uses_anonymous_args = 0
 2742              		@ link register save eliminated.
 2743 0000 80B4     		push	{r7}
 2744              	.LCFI102:
 2745              		.cfi_def_cfa_offset 4
 2746 0002 00AF     		add	r7, sp, #0
 2747              		.cfi_offset 7, -4
 2748              	.LCFI103:
 2749              		.cfi_def_cfa_register 7
1726:.\Generated_Source\PSoC5/CyLib.c ****     /* Perform software reset */
1727:.\Generated_Source\PSoC5/CyLib.c ****     *RESET_CR2 = 0x1u;
 2750              		.loc 1 1727 0
 2751 0004 44F2F663 		movw	r3, #:lower16:1073759990
 2752 0008 C4F20003 		movt	r3, #:upper16:1073759990
 2753 000c 4FF00102 		mov	r2, #1
 2754 0010 1A70     		strb	r2, [r3, #0]
1728:.\Generated_Source\PSoC5/CyLib.c **** }
 2755              		.loc 1 1728 0
 2756 0012 BD46     		mov	sp, r7
 2757 0014 80BC     		pop	{r7}
 2758 0016 7047     		bx	lr
 2759              		.cfi_endproc
 2760              	.LFE40:
 2761              		.size	CySoftwareReset, .-CySoftwareReset
 2762              		.section	.text.CyDelay,"ax",%progbits
 2763              		.align	2
 2764              		.global	CyDelay
 2765              		.thumb
 2766              		.thumb_func
 2767              		.type	CyDelay, %function
 2768              	CyDelay:
 2769              	.LFB41:
1729:.\Generated_Source\PSoC5/CyLib.c **** 
1730:.\Generated_Source\PSoC5/CyLib.c **** 
ARM GAS  C:\Users\karunmj\AppData\Local\Temp\cceFJIz4.s 			page 80


1731:.\Generated_Source\PSoC5/CyLib.c **** /*******************************************************************************
1732:.\Generated_Source\PSoC5/CyLib.c **** * Function Name: CyDelay
1733:.\Generated_Source\PSoC5/CyLib.c **** ********************************************************************************
1734:.\Generated_Source\PSoC5/CyLib.c **** *
1735:.\Generated_Source\PSoC5/CyLib.c **** * Summary:
1736:.\Generated_Source\PSoC5/CyLib.c **** *  Blocks for milliseconds.
1737:.\Generated_Source\PSoC5/CyLib.c **** *
1738:.\Generated_Source\PSoC5/CyLib.c **** *  Note:
1739:.\Generated_Source\PSoC5/CyLib.c **** *  CyDelay has been implemented with the instruction cache assumed enabled. When
1740:.\Generated_Source\PSoC5/CyLib.c **** *  instruction cache is disabled on PSoC5, CyDelay will be two times larger. For
1741:.\Generated_Source\PSoC5/CyLib.c **** *  example, with instruction cache disabled CyDelay(100) would result in about
1742:.\Generated_Source\PSoC5/CyLib.c **** *  200 ms delay instead of 100 ms.
1743:.\Generated_Source\PSoC5/CyLib.c **** *
1744:.\Generated_Source\PSoC5/CyLib.c **** * Parameters:
1745:.\Generated_Source\PSoC5/CyLib.c **** *  milliseconds: number of milliseconds to delay.
1746:.\Generated_Source\PSoC5/CyLib.c **** *
1747:.\Generated_Source\PSoC5/CyLib.c **** * Return:
1748:.\Generated_Source\PSoC5/CyLib.c **** *   None
1749:.\Generated_Source\PSoC5/CyLib.c **** *
1750:.\Generated_Source\PSoC5/CyLib.c **** *******************************************************************************/
1751:.\Generated_Source\PSoC5/CyLib.c **** void CyDelay(uint32 milliseconds) CYREENTRANT
1752:.\Generated_Source\PSoC5/CyLib.c **** {
 2770              		.loc 1 1752 0
 2771              		.cfi_startproc
 2772              		@ args = 0, pretend = 0, frame = 8
 2773              		@ frame_needed = 1, uses_anonymous_args = 0
 2774 0000 80B5     		push	{r7, lr}
 2775              	.LCFI104:
 2776              		.cfi_def_cfa_offset 8
 2777 0002 82B0     		sub	sp, sp, #8
 2778              	.LCFI105:
 2779              		.cfi_def_cfa_offset 16
 2780 0004 00AF     		add	r7, sp, #0
 2781              		.cfi_offset 14, -4
 2782              		.cfi_offset 7, -8
 2783              	.LCFI106:
 2784              		.cfi_def_cfa_register 7
 2785 0006 7860     		str	r0, [r7, #4]
1753:.\Generated_Source\PSoC5/CyLib.c ****     while (milliseconds > 32768u)
 2786              		.loc 1 1753 0
 2787 0008 0BE0     		b	.L173
 2788              	.L174:
1754:.\Generated_Source\PSoC5/CyLib.c ****     {
1755:.\Generated_Source\PSoC5/CyLib.c ****         /***********************************************************************
1756:.\Generated_Source\PSoC5/CyLib.c ****         * This loop prevents overflow.At 100MHz, milliseconds * delay_freq_khz
1757:.\Generated_Source\PSoC5/CyLib.c ****         * overflows at about 42 seconds.
1758:.\Generated_Source\PSoC5/CyLib.c ****         ***********************************************************************/
1759:.\Generated_Source\PSoC5/CyLib.c ****         CyDelayCycles(cydelay_32k_ms);
 2789              		.loc 1 1759 0
 2790 000a 40F20003 		movw	r3, #:lower16:cydelay_32k_ms
 2791 000e C0F20003 		movt	r3, #:upper16:cydelay_32k_ms
 2792 0012 1B68     		ldr	r3, [r3, #0]
 2793 0014 1846     		mov	r0, r3
 2794 0016 FFF7FEFF 		bl	CyDelayCycles
1760:.\Generated_Source\PSoC5/CyLib.c ****         milliseconds = ((uint32)(milliseconds - 32768u));
 2795              		.loc 1 1760 0
 2796 001a 7B68     		ldr	r3, [r7, #4]
ARM GAS  C:\Users\karunmj\AppData\Local\Temp\cceFJIz4.s 			page 81


 2797 001c A3F50043 		sub	r3, r3, #32768
 2798 0020 7B60     		str	r3, [r7, #4]
 2799              	.L173:
 2800              		.loc 1 1753 0
 2801 0022 7B68     		ldr	r3, [r7, #4]
 2802 0024 B3F5004F 		cmp	r3, #32768
 2803 0028 EFD8     		bhi	.L174
1761:.\Generated_Source\PSoC5/CyLib.c ****     }
1762:.\Generated_Source\PSoC5/CyLib.c **** 
1763:.\Generated_Source\PSoC5/CyLib.c ****     CyDelayCycles(milliseconds * cydelay_freq_khz);
 2804              		.loc 1 1763 0
 2805 002a 40F20003 		movw	r3, #:lower16:cydelay_freq_khz
 2806 002e C0F20003 		movt	r3, #:upper16:cydelay_freq_khz
 2807 0032 1B68     		ldr	r3, [r3, #0]
 2808 0034 7A68     		ldr	r2, [r7, #4]
 2809 0036 02FB03F3 		mul	r3, r2, r3
 2810 003a 1846     		mov	r0, r3
 2811 003c FFF7FEFF 		bl	CyDelayCycles
1764:.\Generated_Source\PSoC5/CyLib.c **** }
 2812              		.loc 1 1764 0
 2813 0040 07F10807 		add	r7, r7, #8
 2814 0044 BD46     		mov	sp, r7
 2815 0046 80BD     		pop	{r7, pc}
 2816              		.cfi_endproc
 2817              	.LFE41:
 2818              		.size	CyDelay, .-CyDelay
 2819              		.section	.text.CyDelayUs,"ax",%progbits
 2820              		.align	2
 2821              		.global	CyDelayUs
 2822              		.thumb
 2823              		.thumb_func
 2824              		.type	CyDelayUs, %function
 2825              	CyDelayUs:
 2826              	.LFB42:
1765:.\Generated_Source\PSoC5/CyLib.c **** 
1766:.\Generated_Source\PSoC5/CyLib.c **** 
1767:.\Generated_Source\PSoC5/CyLib.c **** #if(!CY_PSOC3)
1768:.\Generated_Source\PSoC5/CyLib.c **** 
1769:.\Generated_Source\PSoC5/CyLib.c ****     /* For PSoC3 devices function is defined in CyBootAsmKeil.a51 file */
1770:.\Generated_Source\PSoC5/CyLib.c **** 
1771:.\Generated_Source\PSoC5/CyLib.c ****     /*******************************************************************************
1772:.\Generated_Source\PSoC5/CyLib.c ****     * Function Name: CyDelayUs
1773:.\Generated_Source\PSoC5/CyLib.c ****     ********************************************************************************
1774:.\Generated_Source\PSoC5/CyLib.c ****     *
1775:.\Generated_Source\PSoC5/CyLib.c ****     * Summary:
1776:.\Generated_Source\PSoC5/CyLib.c ****     *  Blocks for microseconds.
1777:.\Generated_Source\PSoC5/CyLib.c ****     *
1778:.\Generated_Source\PSoC5/CyLib.c ****     *  Note:
1779:.\Generated_Source\PSoC5/CyLib.c ****     *   CyDelay has been implemented with the instruction cache assumed enabled.
1780:.\Generated_Source\PSoC5/CyLib.c ****     *   When instruction cache is disabled on PSoC5, CyDelayUs will be two times
1781:.\Generated_Source\PSoC5/CyLib.c ****     *   larger. Ex: With instruction cache disabled CyDelayUs(100) would result
1782:.\Generated_Source\PSoC5/CyLib.c ****     *   in about 200us delay instead of 100us.
1783:.\Generated_Source\PSoC5/CyLib.c ****     *
1784:.\Generated_Source\PSoC5/CyLib.c ****     * Parameters:
1785:.\Generated_Source\PSoC5/CyLib.c ****     *  uint16 microseconds: number of microseconds to delay.
1786:.\Generated_Source\PSoC5/CyLib.c ****     *
1787:.\Generated_Source\PSoC5/CyLib.c ****     * Return:
ARM GAS  C:\Users\karunmj\AppData\Local\Temp\cceFJIz4.s 			page 82


1788:.\Generated_Source\PSoC5/CyLib.c ****     *  None
1789:.\Generated_Source\PSoC5/CyLib.c ****     *
1790:.\Generated_Source\PSoC5/CyLib.c ****     * Side Effects:
1791:.\Generated_Source\PSoC5/CyLib.c ****     *  CyDelayUS has been implemented with the instruction cache assumed enabled.
1792:.\Generated_Source\PSoC5/CyLib.c ****     *  When instruction cache is disabled on PSoC 5, CyDelayUs will be two times
1793:.\Generated_Source\PSoC5/CyLib.c ****     *  larger. For example, with instruction cache disabled CyDelayUs(100) would
1794:.\Generated_Source\PSoC5/CyLib.c ****     *  result in about 200 us delay instead of 100 us.
1795:.\Generated_Source\PSoC5/CyLib.c ****     *
1796:.\Generated_Source\PSoC5/CyLib.c ****     *  If the bus clock frequency is a small non-integer number, the actual delay
1797:.\Generated_Source\PSoC5/CyLib.c ****     *  can be up to twice as long as the nominal value. The actual delay cannot be
1798:.\Generated_Source\PSoC5/CyLib.c ****     *  shorter than the nominal one.
1799:.\Generated_Source\PSoC5/CyLib.c ****     *******************************************************************************/
1800:.\Generated_Source\PSoC5/CyLib.c ****     void CyDelayUs(uint16 microseconds) CYREENTRANT
1801:.\Generated_Source\PSoC5/CyLib.c ****     {
 2827              		.loc 1 1801 0
 2828              		.cfi_startproc
 2829              		@ args = 0, pretend = 0, frame = 8
 2830              		@ frame_needed = 1, uses_anonymous_args = 0
 2831 0000 80B5     		push	{r7, lr}
 2832              	.LCFI107:
 2833              		.cfi_def_cfa_offset 8
 2834 0002 82B0     		sub	sp, sp, #8
 2835              	.LCFI108:
 2836              		.cfi_def_cfa_offset 16
 2837 0004 00AF     		add	r7, sp, #0
 2838              		.cfi_offset 14, -4
 2839              		.cfi_offset 7, -8
 2840              	.LCFI109:
 2841              		.cfi_def_cfa_register 7
 2842 0006 0346     		mov	r3, r0
 2843 0008 FB80     		strh	r3, [r7, #6]	@ movhi
1802:.\Generated_Source\PSoC5/CyLib.c ****         CyDelayCycles((uint32)microseconds * cydelay_freq_mhz);
 2844              		.loc 1 1802 0
 2845 000a FA88     		ldrh	r2, [r7, #6]
 2846 000c 40F20003 		movw	r3, #:lower16:cydelay_freq_mhz
 2847 0010 C0F20003 		movt	r3, #:upper16:cydelay_freq_mhz
 2848 0014 1B78     		ldrb	r3, [r3, #0]	@ zero_extendqisi2
 2849 0016 03FB02F3 		mul	r3, r3, r2
 2850 001a 1846     		mov	r0, r3
 2851 001c FFF7FEFF 		bl	CyDelayCycles
1803:.\Generated_Source\PSoC5/CyLib.c ****     }
 2852              		.loc 1 1803 0
 2853 0020 07F10807 		add	r7, r7, #8
 2854 0024 BD46     		mov	sp, r7
 2855 0026 80BD     		pop	{r7, pc}
 2856              		.cfi_endproc
 2857              	.LFE42:
 2858              		.size	CyDelayUs, .-CyDelayUs
 2859              		.section	.text.CyDelayFreq,"ax",%progbits
 2860              		.align	2
 2861              		.global	CyDelayFreq
 2862              		.thumb
 2863              		.thumb_func
 2864              		.type	CyDelayFreq, %function
 2865              	CyDelayFreq:
 2866              	.LFB43:
1804:.\Generated_Source\PSoC5/CyLib.c **** 
ARM GAS  C:\Users\karunmj\AppData\Local\Temp\cceFJIz4.s 			page 83


1805:.\Generated_Source\PSoC5/CyLib.c **** #endif  /* (!CY_PSOC3) */
1806:.\Generated_Source\PSoC5/CyLib.c **** 
1807:.\Generated_Source\PSoC5/CyLib.c **** 
1808:.\Generated_Source\PSoC5/CyLib.c **** /*******************************************************************************
1809:.\Generated_Source\PSoC5/CyLib.c **** * Function Name: CyDelayFreq
1810:.\Generated_Source\PSoC5/CyLib.c **** ********************************************************************************
1811:.\Generated_Source\PSoC5/CyLib.c **** *
1812:.\Generated_Source\PSoC5/CyLib.c **** * Summary:
1813:.\Generated_Source\PSoC5/CyLib.c **** *  Sets clock frequency for CyDelay.
1814:.\Generated_Source\PSoC5/CyLib.c **** *
1815:.\Generated_Source\PSoC5/CyLib.c **** * Parameters:
1816:.\Generated_Source\PSoC5/CyLib.c **** *  freq: Frequency of bus clock in Hertz.
1817:.\Generated_Source\PSoC5/CyLib.c **** *
1818:.\Generated_Source\PSoC5/CyLib.c **** * Return:
1819:.\Generated_Source\PSoC5/CyLib.c **** *  None
1820:.\Generated_Source\PSoC5/CyLib.c **** *
1821:.\Generated_Source\PSoC5/CyLib.c **** *******************************************************************************/
1822:.\Generated_Source\PSoC5/CyLib.c **** void CyDelayFreq(uint32 freq) CYREENTRANT
1823:.\Generated_Source\PSoC5/CyLib.c **** {
 2867              		.loc 1 1823 0
 2868              		.cfi_startproc
 2869              		@ args = 0, pretend = 0, frame = 8
 2870              		@ frame_needed = 1, uses_anonymous_args = 0
 2871              		@ link register save eliminated.
 2872 0000 80B4     		push	{r7}
 2873              	.LCFI110:
 2874              		.cfi_def_cfa_offset 4
 2875 0002 83B0     		sub	sp, sp, #12
 2876              	.LCFI111:
 2877              		.cfi_def_cfa_offset 16
 2878 0004 00AF     		add	r7, sp, #0
 2879              		.cfi_offset 7, -4
 2880              	.LCFI112:
 2881              		.cfi_def_cfa_register 7
 2882 0006 7860     		str	r0, [r7, #4]
1824:.\Generated_Source\PSoC5/CyLib.c ****     if (freq != 0u)
 2883              		.loc 1 1824 0
 2884 0008 7B68     		ldr	r3, [r7, #4]
 2885 000a 002B     		cmp	r3, #0
 2886 000c 06D0     		beq	.L179
1825:.\Generated_Source\PSoC5/CyLib.c ****     {
1826:.\Generated_Source\PSoC5/CyLib.c ****         cydelay_freq_hz = freq;
 2887              		.loc 1 1826 0
 2888 000e 40F20003 		movw	r3, #:lower16:cydelay_freq_hz
 2889 0012 C0F20003 		movt	r3, #:upper16:cydelay_freq_hz
 2890 0016 7A68     		ldr	r2, [r7, #4]
 2891 0018 1A60     		str	r2, [r3, #0]
 2892 001a 08E0     		b	.L180
 2893              	.L179:
1827:.\Generated_Source\PSoC5/CyLib.c ****     }
1828:.\Generated_Source\PSoC5/CyLib.c ****     else
1829:.\Generated_Source\PSoC5/CyLib.c ****     {
1830:.\Generated_Source\PSoC5/CyLib.c ****         cydelay_freq_hz = BCLK__BUS_CLK__HZ;
 2894              		.loc 1 1830 0
 2895 001c 40F20003 		movw	r3, #:lower16:cydelay_freq_hz
 2896 0020 C0F20003 		movt	r3, #:upper16:cydelay_freq_hz
 2897 0024 43F20062 		movw	r2, #:lower16:24000000
ARM GAS  C:\Users\karunmj\AppData\Local\Temp\cceFJIz4.s 			page 84


 2898 0028 C0F26E12 		movt	r2, #:upper16:24000000
 2899 002c 1A60     		str	r2, [r3, #0]
 2900              	.L180:
1831:.\Generated_Source\PSoC5/CyLib.c ****     }
1832:.\Generated_Source\PSoC5/CyLib.c **** 
1833:.\Generated_Source\PSoC5/CyLib.c ****     cydelay_freq_mhz = (uint8)((cydelay_freq_hz + 999999u) / 1000000u);
 2901              		.loc 1 1833 0
 2902 002e 40F20003 		movw	r3, #:lower16:cydelay_freq_hz
 2903 0032 C0F20003 		movt	r3, #:upper16:cydelay_freq_hz
 2904 0036 1A68     		ldr	r2, [r3, #0]
 2905 0038 44F23F23 		movw	r3, #:lower16:999999
 2906 003c C0F20F03 		movt	r3, #:upper16:999999
 2907 0040 1344     		add	r3, r2, r3
 2908 0042 4DF68362 		movw	r2, #:lower16:1125899907
 2909 0046 C4F21B32 		movt	r2, #:upper16:1125899907
 2910 004a A2FB0313 		umull	r1, r3, r2, r3
 2911 004e 4FEA9343 		lsr	r3, r3, #18
 2912 0052 DAB2     		uxtb	r2, r3
 2913 0054 40F20003 		movw	r3, #:lower16:cydelay_freq_mhz
 2914 0058 C0F20003 		movt	r3, #:upper16:cydelay_freq_mhz
 2915 005c 1A70     		strb	r2, [r3, #0]
1834:.\Generated_Source\PSoC5/CyLib.c ****     cydelay_freq_khz = (cydelay_freq_hz + 999u) / 1000u;
 2916              		.loc 1 1834 0
 2917 005e 40F20003 		movw	r3, #:lower16:cydelay_freq_hz
 2918 0062 C0F20003 		movt	r3, #:upper16:cydelay_freq_hz
 2919 0066 1B68     		ldr	r3, [r3, #0]
 2920 0068 03F57872 		add	r2, r3, #992
 2921 006c 02F10702 		add	r2, r2, #7
 2922 0070 44F6D353 		movw	r3, #:lower16:274877907
 2923 0074 C1F26203 		movt	r3, #:upper16:274877907
 2924 0078 A3FB0213 		umull	r1, r3, r3, r2
 2925 007c 4FEA9312 		lsr	r2, r3, #6
 2926 0080 40F20003 		movw	r3, #:lower16:cydelay_freq_khz
 2927 0084 C0F20003 		movt	r3, #:upper16:cydelay_freq_khz
 2928 0088 1A60     		str	r2, [r3, #0]
1835:.\Generated_Source\PSoC5/CyLib.c ****     cydelay_32k_ms   = 32768u * cydelay_freq_khz;
 2929              		.loc 1 1835 0
 2930 008a 40F20003 		movw	r3, #:lower16:cydelay_freq_khz
 2931 008e C0F20003 		movt	r3, #:upper16:cydelay_freq_khz
 2932 0092 1B68     		ldr	r3, [r3, #0]
 2933 0094 4FEAC332 		lsl	r2, r3, #15
 2934 0098 40F20003 		movw	r3, #:lower16:cydelay_32k_ms
 2935 009c C0F20003 		movt	r3, #:upper16:cydelay_32k_ms
 2936 00a0 1A60     		str	r2, [r3, #0]
1836:.\Generated_Source\PSoC5/CyLib.c **** }
 2937              		.loc 1 1836 0
 2938 00a2 07F10C07 		add	r7, r7, #12
 2939 00a6 BD46     		mov	sp, r7
 2940 00a8 80BC     		pop	{r7}
 2941 00aa 7047     		bx	lr
 2942              		.cfi_endproc
 2943              	.LFE43:
 2944              		.size	CyDelayFreq, .-CyDelayFreq
 2945              		.section	.text.CyWdtStart,"ax",%progbits
 2946              		.align	2
 2947              		.global	CyWdtStart
 2948              		.thumb
ARM GAS  C:\Users\karunmj\AppData\Local\Temp\cceFJIz4.s 			page 85


 2949              		.thumb_func
 2950              		.type	CyWdtStart, %function
 2951              	CyWdtStart:
 2952              	.LFB44:
1837:.\Generated_Source\PSoC5/CyLib.c **** 
1838:.\Generated_Source\PSoC5/CyLib.c **** 
1839:.\Generated_Source\PSoC5/CyLib.c **** /*******************************************************************************
1840:.\Generated_Source\PSoC5/CyLib.c **** * Function Name: CyWdtStart
1841:.\Generated_Source\PSoC5/CyLib.c **** ********************************************************************************
1842:.\Generated_Source\PSoC5/CyLib.c **** *
1843:.\Generated_Source\PSoC5/CyLib.c **** * Summary:
1844:.\Generated_Source\PSoC5/CyLib.c **** *  Enables the watchdog timer.
1845:.\Generated_Source\PSoC5/CyLib.c **** *
1846:.\Generated_Source\PSoC5/CyLib.c **** *  The timer is configured for the specified count interval, the central
1847:.\Generated_Source\PSoC5/CyLib.c **** *  timewheel is cleared, the setting for low power mode is configured and the
1848:.\Generated_Source\PSoC5/CyLib.c **** *  watchdog timer is enabled.
1849:.\Generated_Source\PSoC5/CyLib.c **** *
1850:.\Generated_Source\PSoC5/CyLib.c **** *  Once enabled the watchdog cannot be disabled. The watchdog counts each time
1851:.\Generated_Source\PSoC5/CyLib.c **** *  the Central Time Wheel (CTW) reaches the period specified. The watchdog must
1852:.\Generated_Source\PSoC5/CyLib.c **** *  be cleared using the CyWdtClear() function before three ticks of the watchdog
1853:.\Generated_Source\PSoC5/CyLib.c **** *  timer occur. The CTW is free running, so this will occur after between 2 and
1854:.\Generated_Source\PSoC5/CyLib.c **** *  3 timer periods elapse.
1855:.\Generated_Source\PSoC5/CyLib.c **** *
1856:.\Generated_Source\PSoC5/CyLib.c **** *  PSoC5: The watchdog timer should not be used during sleep modes. Since the
1857:.\Generated_Source\PSoC5/CyLib.c **** *  WDT cannot be disabled after it is enabled, the WDT timeout period can be
1858:.\Generated_Source\PSoC5/CyLib.c **** *  set to be greater than the sleep wakeup period, then feed the dog on each
1859:.\Generated_Source\PSoC5/CyLib.c **** *  wakeup from Sleep.
1860:.\Generated_Source\PSoC5/CyLib.c **** *
1861:.\Generated_Source\PSoC5/CyLib.c **** * Parameters:
1862:.\Generated_Source\PSoC5/CyLib.c **** *  ticks: One of the four available timer periods. Once WDT enabled, the
1863:.\Generated_Source\PSoC5/CyLib.c ****    interval cannot be changed.
1864:.\Generated_Source\PSoC5/CyLib.c **** *         CYWDT_2_TICKS     -     4 - 6     ms
1865:.\Generated_Source\PSoC5/CyLib.c **** *         CYWDT_16_TICKS    -    32 - 48    ms
1866:.\Generated_Source\PSoC5/CyLib.c **** *         CYWDT_128_TICKS   -   256 - 384   ms
1867:.\Generated_Source\PSoC5/CyLib.c **** *         CYWDT_1024_TICKS  - 2.048 - 3.072 s
1868:.\Generated_Source\PSoC5/CyLib.c **** *
1869:.\Generated_Source\PSoC5/CyLib.c **** *  lpMode: Low power mode configuration. This parameter is ignored for PSoC 5.
1870:.\Generated_Source\PSoC5/CyLib.c **** *          The WDT always acts as if CYWDT_LPMODE_NOCHANGE is passed.
1871:.\Generated_Source\PSoC5/CyLib.c **** *
1872:.\Generated_Source\PSoC5/CyLib.c **** *          CYWDT_LPMODE_NOCHANGE - No Change
1873:.\Generated_Source\PSoC5/CyLib.c **** *          CYWDT_LPMODE_MAXINTER - Switch to longest timer mode during low power
1874:.\Generated_Source\PSoC5/CyLib.c **** *                                 mode
1875:.\Generated_Source\PSoC5/CyLib.c **** *          CYWDT_LPMODE_DISABLED - Disable WDT during low power mode
1876:.\Generated_Source\PSoC5/CyLib.c **** *
1877:.\Generated_Source\PSoC5/CyLib.c **** * Return:
1878:.\Generated_Source\PSoC5/CyLib.c **** *  None
1879:.\Generated_Source\PSoC5/CyLib.c **** *
1880:.\Generated_Source\PSoC5/CyLib.c **** * Side Effects:
1881:.\Generated_Source\PSoC5/CyLib.c **** *  PSoC5: The ILO 1 KHz must be enabled for proper WDT operation. Stopping the
1882:.\Generated_Source\PSoC5/CyLib.c **** *  ILO 1 kHz could break the active WDT functionality.
1883:.\Generated_Source\PSoC5/CyLib.c **** *
1884:.\Generated_Source\PSoC5/CyLib.c **** *******************************************************************************/
1885:.\Generated_Source\PSoC5/CyLib.c **** void CyWdtStart(uint8 ticks, uint8 lpMode) 
1886:.\Generated_Source\PSoC5/CyLib.c **** {
 2953              		.loc 1 1886 0
 2954              		.cfi_startproc
 2955              		@ args = 0, pretend = 0, frame = 8
ARM GAS  C:\Users\karunmj\AppData\Local\Temp\cceFJIz4.s 			page 86


 2956              		@ frame_needed = 1, uses_anonymous_args = 0
 2957              		@ link register save eliminated.
 2958 0000 80B4     		push	{r7}
 2959              	.LCFI113:
 2960              		.cfi_def_cfa_offset 4
 2961 0002 83B0     		sub	sp, sp, #12
 2962              	.LCFI114:
 2963              		.cfi_def_cfa_offset 16
 2964 0004 00AF     		add	r7, sp, #0
 2965              		.cfi_offset 7, -4
 2966              	.LCFI115:
 2967              		.cfi_def_cfa_register 7
 2968 0006 0246     		mov	r2, r0
 2969 0008 0B46     		mov	r3, r1
 2970 000a FA71     		strb	r2, [r7, #7]
 2971 000c BB71     		strb	r3, [r7, #6]
1887:.\Generated_Source\PSoC5/CyLib.c ****     #if(CY_PSOC5A)
1888:.\Generated_Source\PSoC5/CyLib.c ****         CyILO_Start1K();
1889:.\Generated_Source\PSoC5/CyLib.c ****     #endif  /* (CY_PSOC5A) */
1890:.\Generated_Source\PSoC5/CyLib.c **** 
1891:.\Generated_Source\PSoC5/CyLib.c ****     /* Set WDT interval */
1892:.\Generated_Source\PSoC5/CyLib.c ****     CY_WDT_CFG_REG = (CY_WDT_CFG_REG & ((uint8)(~CY_WDT_CFG_INTERVAL_MASK))) | (ticks & CY_WDT_CFG_
 2972              		.loc 1 1892 0
 2973 000e 44F28333 		movw	r3, #:lower16:1073759107
 2974 0012 C4F20003 		movt	r3, #:upper16:1073759107
 2975 0016 44F28332 		movw	r2, #:lower16:1073759107
 2976 001a C4F20002 		movt	r2, #:upper16:1073759107
 2977 001e 1278     		ldrb	r2, [r2, #0]
 2978 0020 D2B2     		uxtb	r2, r2
 2979 0022 1146     		mov	r1, r2
 2980 0024 01F0FC01 		and	r1, r1, #252
 2981 0028 FA79     		ldrb	r2, [r7, #7]	@ zero_extendqisi2
 2982 002a 02F00302 		and	r2, r2, #3
 2983 002e 41EA0202 		orr	r2, r1, r2
 2984 0032 D2B2     		uxtb	r2, r2
 2985 0034 1A70     		strb	r2, [r3, #0]
1893:.\Generated_Source\PSoC5/CyLib.c **** 
1894:.\Generated_Source\PSoC5/CyLib.c ****     /* Reset CTW to ensure that first watchdog period is full */
1895:.\Generated_Source\PSoC5/CyLib.c ****     CY_WDT_CFG_REG |= CY_WDT_CFG_CTW_RESET;
 2986              		.loc 1 1895 0
 2987 0036 44F28333 		movw	r3, #:lower16:1073759107
 2988 003a C4F20003 		movt	r3, #:upper16:1073759107
 2989 003e 44F28332 		movw	r2, #:lower16:1073759107
 2990 0042 C4F20002 		movt	r2, #:upper16:1073759107
 2991 0046 1278     		ldrb	r2, [r2, #0]
 2992 0048 D2B2     		uxtb	r2, r2
 2993 004a 6FEA4262 		mvn	r2, r2, lsl #25
 2994 004e 6FEA5262 		mvn	r2, r2, lsr #25
 2995 0052 D2B2     		uxtb	r2, r2
 2996 0054 1A70     		strb	r2, [r3, #0]
1896:.\Generated_Source\PSoC5/CyLib.c ****     CY_WDT_CFG_REG &= ((uint8)(~CY_WDT_CFG_CTW_RESET));
 2997              		.loc 1 1896 0
 2998 0056 44F28333 		movw	r3, #:lower16:1073759107
 2999 005a C4F20003 		movt	r3, #:upper16:1073759107
 3000 005e 44F28332 		movw	r2, #:lower16:1073759107
 3001 0062 C4F20002 		movt	r2, #:upper16:1073759107
 3002 0066 1278     		ldrb	r2, [r2, #0]
ARM GAS  C:\Users\karunmj\AppData\Local\Temp\cceFJIz4.s 			page 87


 3003 0068 D2B2     		uxtb	r2, r2
 3004 006a 02F07F02 		and	r2, r2, #127
 3005 006e 1A70     		strb	r2, [r3, #0]
1897:.\Generated_Source\PSoC5/CyLib.c **** 
1898:.\Generated_Source\PSoC5/CyLib.c ****     #if(!CY_PSOC5A)
1899:.\Generated_Source\PSoC5/CyLib.c **** 
1900:.\Generated_Source\PSoC5/CyLib.c ****         /* Setting the low power mode */
1901:.\Generated_Source\PSoC5/CyLib.c ****         CY_WDT_CFG_REG = (((uint8)(lpMode << CY_WDT_CFG_LPMODE_SHIFT)) & CY_WDT_CFG_LPMODE_MASK) |
 3006              		.loc 1 1901 0
 3007 0070 44F28333 		movw	r3, #:lower16:1073759107
 3008 0074 C4F20003 		movt	r3, #:upper16:1073759107
 3009 0078 BA79     		ldrb	r2, [r7, #6]
 3010 007a 4FEA4212 		lsl	r2, r2, #5
 3011 007e D2B2     		uxtb	r2, r2
 3012 0080 1146     		mov	r1, r2
 3013 0082 01F06001 		and	r1, r1, #96
1902:.\Generated_Source\PSoC5/CyLib.c ****                           (CY_WDT_CFG_REG & ((uint8)(~CY_WDT_CFG_LPMODE_MASK)));
 3014              		.loc 1 1902 0
 3015 0086 44F28332 		movw	r2, #:lower16:1073759107
 3016 008a C4F20002 		movt	r2, #:upper16:1073759107
 3017 008e 1278     		ldrb	r2, [r2, #0]
 3018 0090 D2B2     		uxtb	r2, r2
 3019              		.loc 1 1901 0
 3020 0092 02F09F02 		and	r2, r2, #159
 3021 0096 41EA0202 		orr	r2, r1, r2
 3022 009a D2B2     		uxtb	r2, r2
 3023 009c 1A70     		strb	r2, [r3, #0]
1903:.\Generated_Source\PSoC5/CyLib.c ****     #else
1904:.\Generated_Source\PSoC5/CyLib.c **** 
1905:.\Generated_Source\PSoC5/CyLib.c ****         if(0u != lpMode)
1906:.\Generated_Source\PSoC5/CyLib.c ****         {
1907:.\Generated_Source\PSoC5/CyLib.c ****             /* To remove unreferenced local variable warning */
1908:.\Generated_Source\PSoC5/CyLib.c ****         }
1909:.\Generated_Source\PSoC5/CyLib.c **** 
1910:.\Generated_Source\PSoC5/CyLib.c ****     #endif  /* (!CY_PSOC5A) */
1911:.\Generated_Source\PSoC5/CyLib.c **** 
1912:.\Generated_Source\PSoC5/CyLib.c ****     /* Enables the watchdog reset */
1913:.\Generated_Source\PSoC5/CyLib.c ****     CY_WDT_CFG_REG |= CY_WDT_CFG_WDR_EN;
 3024              		.loc 1 1913 0
 3025 009e 44F28333 		movw	r3, #:lower16:1073759107
 3026 00a2 C4F20003 		movt	r3, #:upper16:1073759107
 3027 00a6 44F28332 		movw	r2, #:lower16:1073759107
 3028 00aa C4F20002 		movt	r2, #:upper16:1073759107
 3029 00ae 1278     		ldrb	r2, [r2, #0]
 3030 00b0 D2B2     		uxtb	r2, r2
 3031 00b2 42F01002 		orr	r2, r2, #16
 3032 00b6 D2B2     		uxtb	r2, r2
 3033 00b8 1A70     		strb	r2, [r3, #0]
1914:.\Generated_Source\PSoC5/CyLib.c **** }
 3034              		.loc 1 1914 0
 3035 00ba 07F10C07 		add	r7, r7, #12
 3036 00be BD46     		mov	sp, r7
 3037 00c0 80BC     		pop	{r7}
 3038 00c2 7047     		bx	lr
 3039              		.cfi_endproc
 3040              	.LFE44:
 3041              		.size	CyWdtStart, .-CyWdtStart
ARM GAS  C:\Users\karunmj\AppData\Local\Temp\cceFJIz4.s 			page 88


 3042              		.section	.text.CyWdtClear,"ax",%progbits
 3043              		.align	2
 3044              		.global	CyWdtClear
 3045              		.thumb
 3046              		.thumb_func
 3047              		.type	CyWdtClear, %function
 3048              	CyWdtClear:
 3049              	.LFB45:
1915:.\Generated_Source\PSoC5/CyLib.c **** 
1916:.\Generated_Source\PSoC5/CyLib.c **** 
1917:.\Generated_Source\PSoC5/CyLib.c **** /*******************************************************************************
1918:.\Generated_Source\PSoC5/CyLib.c **** * Function Name: CyWdtClear
1919:.\Generated_Source\PSoC5/CyLib.c **** ********************************************************************************
1920:.\Generated_Source\PSoC5/CyLib.c **** *
1921:.\Generated_Source\PSoC5/CyLib.c **** * Summary:
1922:.\Generated_Source\PSoC5/CyLib.c **** *  Clears (feeds) the watchdog timer.
1923:.\Generated_Source\PSoC5/CyLib.c **** *
1924:.\Generated_Source\PSoC5/CyLib.c **** * Parameters:
1925:.\Generated_Source\PSoC5/CyLib.c **** *  None
1926:.\Generated_Source\PSoC5/CyLib.c **** *
1927:.\Generated_Source\PSoC5/CyLib.c **** * Return:
1928:.\Generated_Source\PSoC5/CyLib.c **** *  None
1929:.\Generated_Source\PSoC5/CyLib.c **** *
1930:.\Generated_Source\PSoC5/CyLib.c **** *******************************************************************************/
1931:.\Generated_Source\PSoC5/CyLib.c **** void CyWdtClear(void) 
1932:.\Generated_Source\PSoC5/CyLib.c **** {
 3050              		.loc 1 1932 0
 3051              		.cfi_startproc
 3052              		@ args = 0, pretend = 0, frame = 0
 3053              		@ frame_needed = 1, uses_anonymous_args = 0
 3054              		@ link register save eliminated.
 3055 0000 80B4     		push	{r7}
 3056              	.LCFI116:
 3057              		.cfi_def_cfa_offset 4
 3058 0002 00AF     		add	r7, sp, #0
 3059              		.cfi_offset 7, -4
 3060              	.LCFI117:
 3061              		.cfi_def_cfa_register 7
1933:.\Generated_Source\PSoC5/CyLib.c ****     #if(CY_PSOC5A)
1934:.\Generated_Source\PSoC5/CyLib.c **** 
1935:.\Generated_Source\PSoC5/CyLib.c ****         /* PSoC5 ES1 watchdog time clear requires workaround */
1936:.\Generated_Source\PSoC5/CyLib.c ****         uint8 wdtCfg = CY_WDT_CFG_REG;
1937:.\Generated_Source\PSoC5/CyLib.c ****         CY_WDT_CR_REG  = CY_WDT_CR_FEED;
1938:.\Generated_Source\PSoC5/CyLib.c ****         CY_WDT_CFG_REG = CY_WDT_CFG_CLEAR_ALL;
1939:.\Generated_Source\PSoC5/CyLib.c ****         CY_WDT_CFG_REG = wdtCfg;
1940:.\Generated_Source\PSoC5/CyLib.c **** 
1941:.\Generated_Source\PSoC5/CyLib.c ****     #else
1942:.\Generated_Source\PSoC5/CyLib.c **** 
1943:.\Generated_Source\PSoC5/CyLib.c ****         CY_WDT_CR_REG = CY_WDT_CR_FEED;
 3062              		.loc 1 1943 0
 3063 0004 44F28433 		movw	r3, #:lower16:1073759108
 3064 0008 C4F20003 		movt	r3, #:upper16:1073759108
 3065 000c 4FF00102 		mov	r2, #1
 3066 0010 1A70     		strb	r2, [r3, #0]
1944:.\Generated_Source\PSoC5/CyLib.c **** 
1945:.\Generated_Source\PSoC5/CyLib.c ****     #endif  /* (CY_PSOC5A) */
1946:.\Generated_Source\PSoC5/CyLib.c **** }
ARM GAS  C:\Users\karunmj\AppData\Local\Temp\cceFJIz4.s 			page 89


 3067              		.loc 1 1946 0
 3068 0012 BD46     		mov	sp, r7
 3069 0014 80BC     		pop	{r7}
 3070 0016 7047     		bx	lr
 3071              		.cfi_endproc
 3072              	.LFE45:
 3073              		.size	CyWdtClear, .-CyWdtClear
 3074              		.section	.text.CyVdLvDigitEnable,"ax",%progbits
 3075              		.align	2
 3076              		.global	CyVdLvDigitEnable
 3077              		.thumb
 3078              		.thumb_func
 3079              		.type	CyVdLvDigitEnable, %function
 3080              	CyVdLvDigitEnable:
 3081              	.LFB46:
1947:.\Generated_Source\PSoC5/CyLib.c **** 
1948:.\Generated_Source\PSoC5/CyLib.c **** 
1949:.\Generated_Source\PSoC5/CyLib.c **** 
1950:.\Generated_Source\PSoC5/CyLib.c **** /*******************************************************************************
1951:.\Generated_Source\PSoC5/CyLib.c **** * Function Name: CyVdLvDigitEnable
1952:.\Generated_Source\PSoC5/CyLib.c **** ********************************************************************************
1953:.\Generated_Source\PSoC5/CyLib.c **** *
1954:.\Generated_Source\PSoC5/CyLib.c **** * Summary:
1955:.\Generated_Source\PSoC5/CyLib.c **** *  Enables the digital low voltage monitors to generate interrupt on Vddd
1956:.\Generated_Source\PSoC5/CyLib.c **** *   archives specified threshold and optionally resets device.
1957:.\Generated_Source\PSoC5/CyLib.c **** *
1958:.\Generated_Source\PSoC5/CyLib.c **** * Parameters:
1959:.\Generated_Source\PSoC5/CyLib.c **** *  reset: Option to reset device at a specified Vddd threshold:
1960:.\Generated_Source\PSoC5/CyLib.c **** *           0 - Device is not reset.
1961:.\Generated_Source\PSoC5/CyLib.c **** *           1 - Device is reset.
1962:.\Generated_Source\PSoC5/CyLib.c **** *         This option is applicable for PSoC 3/PSoC 5LP devices only.
1963:.\Generated_Source\PSoC5/CyLib.c **** *
1964:.\Generated_Source\PSoC5/CyLib.c **** *  threshold: Sets the trip level for the voltage monitor.
1965:.\Generated_Source\PSoC5/CyLib.c **** *  Values from 1.70 V to 5.45 V(for PSoC 3/PSoC 5LP) and from 2.45 V to 5.45 V
1966:.\Generated_Source\PSoC5/CyLib.c **** *  (for PSoC 5TM) are accepted with the approximately 250 mV interval.
1967:.\Generated_Source\PSoC5/CyLib.c **** *
1968:.\Generated_Source\PSoC5/CyLib.c **** * Return:
1969:.\Generated_Source\PSoC5/CyLib.c **** *  None
1970:.\Generated_Source\PSoC5/CyLib.c **** *
1971:.\Generated_Source\PSoC5/CyLib.c **** *******************************************************************************/
1972:.\Generated_Source\PSoC5/CyLib.c **** void CyVdLvDigitEnable(uint8 reset, uint8 threshold) 
1973:.\Generated_Source\PSoC5/CyLib.c **** {
 3082              		.loc 1 1973 0
 3083              		.cfi_startproc
 3084              		@ args = 0, pretend = 0, frame = 8
 3085              		@ frame_needed = 1, uses_anonymous_args = 0
 3086 0000 80B5     		push	{r7, lr}
 3087              	.LCFI118:
 3088              		.cfi_def_cfa_offset 8
 3089 0002 82B0     		sub	sp, sp, #8
 3090              	.LCFI119:
 3091              		.cfi_def_cfa_offset 16
 3092 0004 00AF     		add	r7, sp, #0
 3093              		.cfi_offset 14, -4
 3094              		.cfi_offset 7, -8
 3095              	.LCFI120:
 3096              		.cfi_def_cfa_register 7
ARM GAS  C:\Users\karunmj\AppData\Local\Temp\cceFJIz4.s 			page 90


 3097 0006 0246     		mov	r2, r0
 3098 0008 0B46     		mov	r3, r1
 3099 000a FA71     		strb	r2, [r7, #7]
 3100 000c BB71     		strb	r3, [r7, #6]
1974:.\Generated_Source\PSoC5/CyLib.c ****     *CY_INT_CLEAR_PTR = 0x01u;
 3101              		.loc 1 1974 0
 3102 000e 4EF28013 		movw	r3, #:lower16:-536813184
 3103 0012 CEF20003 		movt	r3, #:upper16:-536813184
 3104 0016 4FF00102 		mov	r2, #1
 3105 001a 1A60     		str	r2, [r3, #0]
1975:.\Generated_Source\PSoC5/CyLib.c **** 
1976:.\Generated_Source\PSoC5/CyLib.c ****     #if(!CY_PSOC5A)
1977:.\Generated_Source\PSoC5/CyLib.c ****         CY_VD_PRES_CONTROL_REG &= ((uint8)(~CY_VD_PRESD_EN));
 3106              		.loc 1 1977 0
 3107 001c 44F2F763 		movw	r3, #:lower16:1073759991
 3108 0020 C4F20003 		movt	r3, #:upper16:1073759991
 3109 0024 44F2F762 		movw	r2, #:lower16:1073759991
 3110 0028 C4F20002 		movt	r2, #:upper16:1073759991
 3111 002c 1278     		ldrb	r2, [r2, #0]
 3112 002e D2B2     		uxtb	r2, r2
 3113 0030 02F0BF02 		and	r2, r2, #191
 3114 0034 1A70     		strb	r2, [r3, #0]
1978:.\Generated_Source\PSoC5/CyLib.c ****     #endif /*(!CY_PSOC5A)*/
1979:.\Generated_Source\PSoC5/CyLib.c **** 
1980:.\Generated_Source\PSoC5/CyLib.c ****     CY_VD_LVI_TRIP_REG = (threshold & CY_VD_LVI_TRIP_LVID_MASK) |
 3115              		.loc 1 1980 0
 3116 0036 44F2F463 		movw	r3, #:lower16:1073759988
 3117 003a C4F20003 		movt	r3, #:upper16:1073759988
 3118 003e B979     		ldrb	r1, [r7, #6]	@ zero_extendqisi2
 3119 0040 01F00F01 		and	r1, r1, #15
1981:.\Generated_Source\PSoC5/CyLib.c ****                             (CY_VD_LVI_TRIP_REG & ((uint8)(~CY_VD_LVI_TRIP_LVID_MASK)));
 3120              		.loc 1 1981 0
 3121 0044 44F2F462 		movw	r2, #:lower16:1073759988
 3122 0048 C4F20002 		movt	r2, #:upper16:1073759988
 3123 004c 1278     		ldrb	r2, [r2, #0]
 3124 004e D2B2     		uxtb	r2, r2
 3125              		.loc 1 1980 0
 3126 0050 02F0F002 		and	r2, r2, #240
 3127 0054 41EA0202 		orr	r2, r1, r2
 3128 0058 D2B2     		uxtb	r2, r2
 3129 005a 1A70     		strb	r2, [r3, #0]
1982:.\Generated_Source\PSoC5/CyLib.c ****     CY_VD_LVI_HVI_CONTROL_REG |= CY_VD_LVID_EN;
 3130              		.loc 1 1982 0
 3131 005c 44F2F563 		movw	r3, #:lower16:1073759989
 3132 0060 C4F20003 		movt	r3, #:upper16:1073759989
 3133 0064 44F2F562 		movw	r2, #:lower16:1073759989
 3134 0068 C4F20002 		movt	r2, #:upper16:1073759989
 3135 006c 1278     		ldrb	r2, [r2, #0]
 3136 006e D2B2     		uxtb	r2, r2
 3137 0070 42F00102 		orr	r2, r2, #1
 3138 0074 D2B2     		uxtb	r2, r2
 3139 0076 1A70     		strb	r2, [r3, #0]
1983:.\Generated_Source\PSoC5/CyLib.c **** 
1984:.\Generated_Source\PSoC5/CyLib.c ****     /* Timeout to eliminate glitches on the LVI/HVI when enabling */
1985:.\Generated_Source\PSoC5/CyLib.c ****     CyDelayUs(1u);
 3140              		.loc 1 1985 0
 3141 0078 4FF00100 		mov	r0, #1
ARM GAS  C:\Users\karunmj\AppData\Local\Temp\cceFJIz4.s 			page 91


 3142 007c FFF7FEFF 		bl	CyDelayUs
1986:.\Generated_Source\PSoC5/CyLib.c **** 
1987:.\Generated_Source\PSoC5/CyLib.c **** 	(void)CY_VD_PERSISTENT_STATUS_REG;
 3143              		.loc 1 1987 0
 3144 0080 44F2FA63 		movw	r3, #:lower16:1073759994
 3145 0084 C4F20003 		movt	r3, #:upper16:1073759994
 3146 0088 1B78     		ldrb	r3, [r3, #0]
1988:.\Generated_Source\PSoC5/CyLib.c **** 
1989:.\Generated_Source\PSoC5/CyLib.c ****     #if(!CY_PSOC5A)
1990:.\Generated_Source\PSoC5/CyLib.c ****         if(0u != reset)
 3147              		.loc 1 1990 0
 3148 008a FB79     		ldrb	r3, [r7, #7]	@ zero_extendqisi2
 3149 008c 002B     		cmp	r3, #0
 3150 008e 0ED0     		beq	.L187
1991:.\Generated_Source\PSoC5/CyLib.c ****         {
1992:.\Generated_Source\PSoC5/CyLib.c ****             CY_VD_PRES_CONTROL_REG |= CY_VD_PRESD_EN;
 3151              		.loc 1 1992 0
 3152 0090 44F2F763 		movw	r3, #:lower16:1073759991
 3153 0094 C4F20003 		movt	r3, #:upper16:1073759991
 3154 0098 44F2F762 		movw	r2, #:lower16:1073759991
 3155 009c C4F20002 		movt	r2, #:upper16:1073759991
 3156 00a0 1278     		ldrb	r2, [r2, #0]
 3157 00a2 D2B2     		uxtb	r2, r2
 3158 00a4 42F04002 		orr	r2, r2, #64
 3159 00a8 D2B2     		uxtb	r2, r2
 3160 00aa 1A70     		strb	r2, [r3, #0]
 3161 00ac 0CE0     		b	.L188
 3162              	.L187:
1993:.\Generated_Source\PSoC5/CyLib.c ****         }
1994:.\Generated_Source\PSoC5/CyLib.c ****         else
1995:.\Generated_Source\PSoC5/CyLib.c ****         {
1996:.\Generated_Source\PSoC5/CyLib.c ****             CY_VD_PRES_CONTROL_REG &= ((uint8)(~CY_VD_PRESD_EN));
 3163              		.loc 1 1996 0
 3164 00ae 44F2F763 		movw	r3, #:lower16:1073759991
 3165 00b2 C4F20003 		movt	r3, #:upper16:1073759991
 3166 00b6 44F2F762 		movw	r2, #:lower16:1073759991
 3167 00ba C4F20002 		movt	r2, #:upper16:1073759991
 3168 00be 1278     		ldrb	r2, [r2, #0]
 3169 00c0 D2B2     		uxtb	r2, r2
 3170 00c2 02F0BF02 		and	r2, r2, #191
 3171 00c6 1A70     		strb	r2, [r3, #0]
 3172              	.L188:
1997:.\Generated_Source\PSoC5/CyLib.c ****         }
1998:.\Generated_Source\PSoC5/CyLib.c ****     #else
1999:.\Generated_Source\PSoC5/CyLib.c **** 
2000:.\Generated_Source\PSoC5/CyLib.c ****         if(0u != reset)
2001:.\Generated_Source\PSoC5/CyLib.c ****         {
2002:.\Generated_Source\PSoC5/CyLib.c ****             /* To remove unreferenced local variable warning */
2003:.\Generated_Source\PSoC5/CyLib.c ****         }
2004:.\Generated_Source\PSoC5/CyLib.c **** 
2005:.\Generated_Source\PSoC5/CyLib.c ****     #endif /*(!CY_PSOC5A)*/
2006:.\Generated_Source\PSoC5/CyLib.c **** 
2007:.\Generated_Source\PSoC5/CyLib.c ****     *CY_INT_CLR_PEND_PTR = 0x01u;
 3173              		.loc 1 2007 0
 3174 00c8 4EF28023 		movw	r3, #:lower16:-536812928
 3175 00cc CEF20003 		movt	r3, #:upper16:-536812928
 3176 00d0 4FF00102 		mov	r2, #1
ARM GAS  C:\Users\karunmj\AppData\Local\Temp\cceFJIz4.s 			page 92


 3177 00d4 1A60     		str	r2, [r3, #0]
2008:.\Generated_Source\PSoC5/CyLib.c ****     *CY_INT_ENABLE_PTR   = 0x01u;
 3178              		.loc 1 2008 0
 3179 00d6 4EF20013 		movw	r3, #:lower16:-536813312
 3180 00da CEF20003 		movt	r3, #:upper16:-536813312
 3181 00de 4FF00102 		mov	r2, #1
 3182 00e2 1A60     		str	r2, [r3, #0]
2009:.\Generated_Source\PSoC5/CyLib.c **** }
 3183              		.loc 1 2009 0
 3184 00e4 07F10807 		add	r7, r7, #8
 3185 00e8 BD46     		mov	sp, r7
 3186 00ea 80BD     		pop	{r7, pc}
 3187              		.cfi_endproc
 3188              	.LFE46:
 3189              		.size	CyVdLvDigitEnable, .-CyVdLvDigitEnable
 3190              		.section	.text.CyVdLvAnalogEnable,"ax",%progbits
 3191              		.align	2
 3192              		.global	CyVdLvAnalogEnable
 3193              		.thumb
 3194              		.thumb_func
 3195              		.type	CyVdLvAnalogEnable, %function
 3196              	CyVdLvAnalogEnable:
 3197              	.LFB47:
2010:.\Generated_Source\PSoC5/CyLib.c **** 
2011:.\Generated_Source\PSoC5/CyLib.c **** 
2012:.\Generated_Source\PSoC5/CyLib.c **** /*******************************************************************************
2013:.\Generated_Source\PSoC5/CyLib.c **** * Function Name: CyVdLvAnalogEnable
2014:.\Generated_Source\PSoC5/CyLib.c **** ********************************************************************************
2015:.\Generated_Source\PSoC5/CyLib.c **** *
2016:.\Generated_Source\PSoC5/CyLib.c **** * Summary:
2017:.\Generated_Source\PSoC5/CyLib.c **** *  Enables the analog low voltage monitors to generate interrupt on Vdda
2018:.\Generated_Source\PSoC5/CyLib.c **** *   archives specified threshold and optionally resets device.
2019:.\Generated_Source\PSoC5/CyLib.c **** *
2020:.\Generated_Source\PSoC5/CyLib.c **** * Parameters:
2021:.\Generated_Source\PSoC5/CyLib.c **** *  reset: Option to reset device at a specified Vdda threshold:
2022:.\Generated_Source\PSoC5/CyLib.c **** *           0 - Device is not reset.
2023:.\Generated_Source\PSoC5/CyLib.c **** *           1 - Device is reset.
2024:.\Generated_Source\PSoC5/CyLib.c **** *         This option is applicable for PSoC 3/PSoC 5LP devices only.
2025:.\Generated_Source\PSoC5/CyLib.c **** *
2026:.\Generated_Source\PSoC5/CyLib.c **** *  threshold: Sets the trip level for the voltage monitor.
2027:.\Generated_Source\PSoC5/CyLib.c **** *  Values from 1.70 V to 5.45 V(for PSoC 3/PSoC 5LP) and from 2.45 V to 5.45 V
2028:.\Generated_Source\PSoC5/CyLib.c **** *  (for PSoC 5TM) are accepted with the approximately 250 mV interval.
2029:.\Generated_Source\PSoC5/CyLib.c **** *
2030:.\Generated_Source\PSoC5/CyLib.c **** * Return:
2031:.\Generated_Source\PSoC5/CyLib.c **** *  None
2032:.\Generated_Source\PSoC5/CyLib.c **** *
2033:.\Generated_Source\PSoC5/CyLib.c **** *******************************************************************************/
2034:.\Generated_Source\PSoC5/CyLib.c **** void CyVdLvAnalogEnable(uint8 reset, uint8 threshold) 
2035:.\Generated_Source\PSoC5/CyLib.c **** {
 3198              		.loc 1 2035 0
 3199              		.cfi_startproc
 3200              		@ args = 0, pretend = 0, frame = 8
 3201              		@ frame_needed = 1, uses_anonymous_args = 0
 3202 0000 80B5     		push	{r7, lr}
 3203              	.LCFI121:
 3204              		.cfi_def_cfa_offset 8
 3205 0002 82B0     		sub	sp, sp, #8
ARM GAS  C:\Users\karunmj\AppData\Local\Temp\cceFJIz4.s 			page 93


 3206              	.LCFI122:
 3207              		.cfi_def_cfa_offset 16
 3208 0004 00AF     		add	r7, sp, #0
 3209              		.cfi_offset 14, -4
 3210              		.cfi_offset 7, -8
 3211              	.LCFI123:
 3212              		.cfi_def_cfa_register 7
 3213 0006 0246     		mov	r2, r0
 3214 0008 0B46     		mov	r3, r1
 3215 000a FA71     		strb	r2, [r7, #7]
 3216 000c BB71     		strb	r3, [r7, #6]
2036:.\Generated_Source\PSoC5/CyLib.c ****     *CY_INT_CLEAR_PTR = 0x01u;
 3217              		.loc 1 2036 0
 3218 000e 4EF28013 		movw	r3, #:lower16:-536813184
 3219 0012 CEF20003 		movt	r3, #:upper16:-536813184
 3220 0016 4FF00102 		mov	r2, #1
 3221 001a 1A60     		str	r2, [r3, #0]
2037:.\Generated_Source\PSoC5/CyLib.c **** 
2038:.\Generated_Source\PSoC5/CyLib.c ****     #if(!CY_PSOC5A)
2039:.\Generated_Source\PSoC5/CyLib.c ****         CY_VD_PRES_CONTROL_REG &= ((uint8)(~CY_VD_PRESA_EN));
 3222              		.loc 1 2039 0
 3223 001c 44F2F763 		movw	r3, #:lower16:1073759991
 3224 0020 C4F20003 		movt	r3, #:upper16:1073759991
 3225 0024 44F2F762 		movw	r2, #:lower16:1073759991
 3226 0028 C4F20002 		movt	r2, #:upper16:1073759991
 3227 002c 1278     		ldrb	r2, [r2, #0]
 3228 002e D2B2     		uxtb	r2, r2
 3229 0030 02F07F02 		and	r2, r2, #127
 3230 0034 1A70     		strb	r2, [r3, #0]
2040:.\Generated_Source\PSoC5/CyLib.c ****     #endif /*(!CY_PSOC5A)*/
2041:.\Generated_Source\PSoC5/CyLib.c **** 
2042:.\Generated_Source\PSoC5/CyLib.c ****     CY_VD_LVI_TRIP_REG = ((uint8)(threshold << 4u)) | (CY_VD_LVI_TRIP_REG & 0x0Fu);
 3231              		.loc 1 2042 0
 3232 0036 44F2F463 		movw	r3, #:lower16:1073759988
 3233 003a C4F20003 		movt	r3, #:upper16:1073759988
 3234 003e BA79     		ldrb	r2, [r7, #6]
 3235 0040 4FEA0212 		lsl	r2, r2, #4
 3236 0044 D1B2     		uxtb	r1, r2
 3237 0046 44F2F462 		movw	r2, #:lower16:1073759988
 3238 004a C4F20002 		movt	r2, #:upper16:1073759988
 3239 004e 1278     		ldrb	r2, [r2, #0]
 3240 0050 D2B2     		uxtb	r2, r2
 3241 0052 02F00F02 		and	r2, r2, #15
 3242 0056 41EA0202 		orr	r2, r1, r2
 3243 005a D2B2     		uxtb	r2, r2
 3244 005c 1A70     		strb	r2, [r3, #0]
2043:.\Generated_Source\PSoC5/CyLib.c ****     CY_VD_LVI_HVI_CONTROL_REG |= CY_VD_LVIA_EN;
 3245              		.loc 1 2043 0
 3246 005e 44F2F563 		movw	r3, #:lower16:1073759989
 3247 0062 C4F20003 		movt	r3, #:upper16:1073759989
 3248 0066 44F2F562 		movw	r2, #:lower16:1073759989
 3249 006a C4F20002 		movt	r2, #:upper16:1073759989
 3250 006e 1278     		ldrb	r2, [r2, #0]
 3251 0070 D2B2     		uxtb	r2, r2
 3252 0072 42F00202 		orr	r2, r2, #2
 3253 0076 D2B2     		uxtb	r2, r2
 3254 0078 1A70     		strb	r2, [r3, #0]
ARM GAS  C:\Users\karunmj\AppData\Local\Temp\cceFJIz4.s 			page 94


2044:.\Generated_Source\PSoC5/CyLib.c **** 
2045:.\Generated_Source\PSoC5/CyLib.c ****     /* Timeout to eliminate glitches on the LVI/HVI when enabling */
2046:.\Generated_Source\PSoC5/CyLib.c ****     CyDelayUs(1u);
 3255              		.loc 1 2046 0
 3256 007a 4FF00100 		mov	r0, #1
 3257 007e FFF7FEFF 		bl	CyDelayUs
2047:.\Generated_Source\PSoC5/CyLib.c **** 
2048:.\Generated_Source\PSoC5/CyLib.c **** 	(void)CY_VD_PERSISTENT_STATUS_REG;
 3258              		.loc 1 2048 0
 3259 0082 44F2FA63 		movw	r3, #:lower16:1073759994
 3260 0086 C4F20003 		movt	r3, #:upper16:1073759994
 3261 008a 1B78     		ldrb	r3, [r3, #0]
2049:.\Generated_Source\PSoC5/CyLib.c **** 
2050:.\Generated_Source\PSoC5/CyLib.c ****     #if(!CY_PSOC5A)
2051:.\Generated_Source\PSoC5/CyLib.c ****         if(0u != reset)
 3262              		.loc 1 2051 0
 3263 008c FB79     		ldrb	r3, [r7, #7]	@ zero_extendqisi2
 3264 008e 002B     		cmp	r3, #0
 3265 0090 10D0     		beq	.L191
2052:.\Generated_Source\PSoC5/CyLib.c ****         {
2053:.\Generated_Source\PSoC5/CyLib.c ****             CY_VD_PRES_CONTROL_REG |= CY_VD_PRESA_EN;
 3266              		.loc 1 2053 0
 3267 0092 44F2F763 		movw	r3, #:lower16:1073759991
 3268 0096 C4F20003 		movt	r3, #:upper16:1073759991
 3269 009a 44F2F762 		movw	r2, #:lower16:1073759991
 3270 009e C4F20002 		movt	r2, #:upper16:1073759991
 3271 00a2 1278     		ldrb	r2, [r2, #0]
 3272 00a4 D2B2     		uxtb	r2, r2
 3273 00a6 6FEA4262 		mvn	r2, r2, lsl #25
 3274 00aa 6FEA5262 		mvn	r2, r2, lsr #25
 3275 00ae D2B2     		uxtb	r2, r2
 3276 00b0 1A70     		strb	r2, [r3, #0]
 3277 00b2 0CE0     		b	.L192
 3278              	.L191:
2054:.\Generated_Source\PSoC5/CyLib.c ****         }
2055:.\Generated_Source\PSoC5/CyLib.c ****         else
2056:.\Generated_Source\PSoC5/CyLib.c ****         {
2057:.\Generated_Source\PSoC5/CyLib.c ****             CY_VD_PRES_CONTROL_REG &= ((uint8)(~CY_VD_PRESA_EN));
 3279              		.loc 1 2057 0
 3280 00b4 44F2F763 		movw	r3, #:lower16:1073759991
 3281 00b8 C4F20003 		movt	r3, #:upper16:1073759991
 3282 00bc 44F2F762 		movw	r2, #:lower16:1073759991
 3283 00c0 C4F20002 		movt	r2, #:upper16:1073759991
 3284 00c4 1278     		ldrb	r2, [r2, #0]
 3285 00c6 D2B2     		uxtb	r2, r2
 3286 00c8 02F07F02 		and	r2, r2, #127
 3287 00cc 1A70     		strb	r2, [r3, #0]
 3288              	.L192:
2058:.\Generated_Source\PSoC5/CyLib.c ****         }
2059:.\Generated_Source\PSoC5/CyLib.c ****     #else
2060:.\Generated_Source\PSoC5/CyLib.c **** 
2061:.\Generated_Source\PSoC5/CyLib.c ****         if(0u != reset)
2062:.\Generated_Source\PSoC5/CyLib.c ****         {
2063:.\Generated_Source\PSoC5/CyLib.c ****             /* To remove unreferenced local variable warning */
2064:.\Generated_Source\PSoC5/CyLib.c ****         }
2065:.\Generated_Source\PSoC5/CyLib.c **** 
2066:.\Generated_Source\PSoC5/CyLib.c ****     #endif /*(!CY_PSOC5A)*/
ARM GAS  C:\Users\karunmj\AppData\Local\Temp\cceFJIz4.s 			page 95


2067:.\Generated_Source\PSoC5/CyLib.c **** 
2068:.\Generated_Source\PSoC5/CyLib.c ****     *CY_INT_CLR_PEND_PTR = 0x01u;
 3289              		.loc 1 2068 0
 3290 00ce 4EF28023 		movw	r3, #:lower16:-536812928
 3291 00d2 CEF20003 		movt	r3, #:upper16:-536812928
 3292 00d6 4FF00102 		mov	r2, #1
 3293 00da 1A60     		str	r2, [r3, #0]
2069:.\Generated_Source\PSoC5/CyLib.c ****     *CY_INT_ENABLE_PTR   = 0x01u;
 3294              		.loc 1 2069 0
 3295 00dc 4EF20013 		movw	r3, #:lower16:-536813312
 3296 00e0 CEF20003 		movt	r3, #:upper16:-536813312
 3297 00e4 4FF00102 		mov	r2, #1
 3298 00e8 1A60     		str	r2, [r3, #0]
2070:.\Generated_Source\PSoC5/CyLib.c **** }
 3299              		.loc 1 2070 0
 3300 00ea 07F10807 		add	r7, r7, #8
 3301 00ee BD46     		mov	sp, r7
 3302 00f0 80BD     		pop	{r7, pc}
 3303              		.cfi_endproc
 3304              	.LFE47:
 3305              		.size	CyVdLvAnalogEnable, .-CyVdLvAnalogEnable
 3306 00f2 00BF     		.section	.text.CyVdLvDigitDisable,"ax",%progbits
 3307              		.align	2
 3308              		.global	CyVdLvDigitDisable
 3309              		.thumb
 3310              		.thumb_func
 3311              		.type	CyVdLvDigitDisable, %function
 3312              	CyVdLvDigitDisable:
 3313              	.LFB48:
2071:.\Generated_Source\PSoC5/CyLib.c **** 
2072:.\Generated_Source\PSoC5/CyLib.c **** 
2073:.\Generated_Source\PSoC5/CyLib.c **** /*******************************************************************************
2074:.\Generated_Source\PSoC5/CyLib.c **** * Function Name: CyVdLvDigitDisable
2075:.\Generated_Source\PSoC5/CyLib.c **** ********************************************************************************
2076:.\Generated_Source\PSoC5/CyLib.c **** *
2077:.\Generated_Source\PSoC5/CyLib.c **** * Summary:
2078:.\Generated_Source\PSoC5/CyLib.c **** *  Disables the digital low voltage monitor (interrupt and device reset are
2079:.\Generated_Source\PSoC5/CyLib.c **** *  disabled).
2080:.\Generated_Source\PSoC5/CyLib.c **** *
2081:.\Generated_Source\PSoC5/CyLib.c **** * Parameters:
2082:.\Generated_Source\PSoC5/CyLib.c **** *  None
2083:.\Generated_Source\PSoC5/CyLib.c **** *
2084:.\Generated_Source\PSoC5/CyLib.c **** * Return:
2085:.\Generated_Source\PSoC5/CyLib.c **** *  None
2086:.\Generated_Source\PSoC5/CyLib.c **** *
2087:.\Generated_Source\PSoC5/CyLib.c **** *******************************************************************************/
2088:.\Generated_Source\PSoC5/CyLib.c **** void CyVdLvDigitDisable(void) 
2089:.\Generated_Source\PSoC5/CyLib.c **** {
 3314              		.loc 1 2089 0
 3315              		.cfi_startproc
 3316              		@ args = 0, pretend = 0, frame = 0
 3317              		@ frame_needed = 1, uses_anonymous_args = 0
 3318              		@ link register save eliminated.
 3319 0000 80B4     		push	{r7}
 3320              	.LCFI124:
 3321              		.cfi_def_cfa_offset 4
 3322 0002 00AF     		add	r7, sp, #0
ARM GAS  C:\Users\karunmj\AppData\Local\Temp\cceFJIz4.s 			page 96


 3323              		.cfi_offset 7, -4
 3324              	.LCFI125:
 3325              		.cfi_def_cfa_register 7
2090:.\Generated_Source\PSoC5/CyLib.c ****     CY_VD_LVI_HVI_CONTROL_REG &= ((uint8)(~CY_VD_LVID_EN));
 3326              		.loc 1 2090 0
 3327 0004 44F2F563 		movw	r3, #:lower16:1073759989
 3328 0008 C4F20003 		movt	r3, #:upper16:1073759989
 3329 000c 44F2F562 		movw	r2, #:lower16:1073759989
 3330 0010 C4F20002 		movt	r2, #:upper16:1073759989
 3331 0014 1278     		ldrb	r2, [r2, #0]
 3332 0016 D2B2     		uxtb	r2, r2
 3333 0018 02F0FE02 		and	r2, r2, #254
 3334 001c 1A70     		strb	r2, [r3, #0]
2091:.\Generated_Source\PSoC5/CyLib.c **** 
2092:.\Generated_Source\PSoC5/CyLib.c ****     #if(!CY_PSOC5A)
2093:.\Generated_Source\PSoC5/CyLib.c ****         CY_VD_PRES_CONTROL_REG &= ((uint8)(~CY_VD_PRESD_EN));
 3335              		.loc 1 2093 0
 3336 001e 44F2F763 		movw	r3, #:lower16:1073759991
 3337 0022 C4F20003 		movt	r3, #:upper16:1073759991
 3338 0026 44F2F762 		movw	r2, #:lower16:1073759991
 3339 002a C4F20002 		movt	r2, #:upper16:1073759991
 3340 002e 1278     		ldrb	r2, [r2, #0]
 3341 0030 D2B2     		uxtb	r2, r2
 3342 0032 02F0BF02 		and	r2, r2, #191
 3343 0036 1A70     		strb	r2, [r3, #0]
 3344              	.L195:
2094:.\Generated_Source\PSoC5/CyLib.c ****     #endif /*(!CY_PSOC5A)*/
2095:.\Generated_Source\PSoC5/CyLib.c **** 
2096:.\Generated_Source\PSoC5/CyLib.c ****     while(0u != (CY_VD_PERSISTENT_STATUS_REG & 0x07u))
 3345              		.loc 1 2096 0
 3346 0038 44F2FA63 		movw	r3, #:lower16:1073759994
 3347 003c C4F20003 		movt	r3, #:upper16:1073759994
 3348 0040 1B78     		ldrb	r3, [r3, #0]
 3349 0042 DBB2     		uxtb	r3, r3
 3350 0044 03F00703 		and	r3, r3, #7
 3351 0048 002B     		cmp	r3, #0
 3352 004a F5D1     		bne	.L195
2097:.\Generated_Source\PSoC5/CyLib.c ****     {
2098:.\Generated_Source\PSoC5/CyLib.c **** 
2099:.\Generated_Source\PSoC5/CyLib.c ****     }
2100:.\Generated_Source\PSoC5/CyLib.c **** }
 3353              		.loc 1 2100 0
 3354 004c BD46     		mov	sp, r7
 3355 004e 80BC     		pop	{r7}
 3356 0050 7047     		bx	lr
 3357              		.cfi_endproc
 3358              	.LFE48:
 3359              		.size	CyVdLvDigitDisable, .-CyVdLvDigitDisable
 3360 0052 00BF     		.section	.text.CyVdLvAnalogDisable,"ax",%progbits
 3361              		.align	2
 3362              		.global	CyVdLvAnalogDisable
 3363              		.thumb
 3364              		.thumb_func
 3365              		.type	CyVdLvAnalogDisable, %function
 3366              	CyVdLvAnalogDisable:
 3367              	.LFB49:
2101:.\Generated_Source\PSoC5/CyLib.c **** 
ARM GAS  C:\Users\karunmj\AppData\Local\Temp\cceFJIz4.s 			page 97


2102:.\Generated_Source\PSoC5/CyLib.c **** 
2103:.\Generated_Source\PSoC5/CyLib.c **** /*******************************************************************************
2104:.\Generated_Source\PSoC5/CyLib.c **** * Function Name: CyVdLvAnalogDisable
2105:.\Generated_Source\PSoC5/CyLib.c **** ********************************************************************************
2106:.\Generated_Source\PSoC5/CyLib.c **** *
2107:.\Generated_Source\PSoC5/CyLib.c **** * Summary:
2108:.\Generated_Source\PSoC5/CyLib.c **** *  Disables the analog low voltage monitor
2109:.\Generated_Source\PSoC5/CyLib.c **** *  (interrupt and device reset are disabled).
2110:.\Generated_Source\PSoC5/CyLib.c **** *
2111:.\Generated_Source\PSoC5/CyLib.c **** * Parameters:
2112:.\Generated_Source\PSoC5/CyLib.c **** *  None
2113:.\Generated_Source\PSoC5/CyLib.c **** *
2114:.\Generated_Source\PSoC5/CyLib.c **** * Return:
2115:.\Generated_Source\PSoC5/CyLib.c **** *  None
2116:.\Generated_Source\PSoC5/CyLib.c **** *
2117:.\Generated_Source\PSoC5/CyLib.c **** *******************************************************************************/
2118:.\Generated_Source\PSoC5/CyLib.c **** void CyVdLvAnalogDisable(void) 
2119:.\Generated_Source\PSoC5/CyLib.c **** {
 3368              		.loc 1 2119 0
 3369              		.cfi_startproc
 3370              		@ args = 0, pretend = 0, frame = 0
 3371              		@ frame_needed = 1, uses_anonymous_args = 0
 3372              		@ link register save eliminated.
 3373 0000 80B4     		push	{r7}
 3374              	.LCFI126:
 3375              		.cfi_def_cfa_offset 4
 3376 0002 00AF     		add	r7, sp, #0
 3377              		.cfi_offset 7, -4
 3378              	.LCFI127:
 3379              		.cfi_def_cfa_register 7
2120:.\Generated_Source\PSoC5/CyLib.c ****     CY_VD_LVI_HVI_CONTROL_REG &= ((uint8)(~CY_VD_LVIA_EN));
 3380              		.loc 1 2120 0
 3381 0004 44F2F563 		movw	r3, #:lower16:1073759989
 3382 0008 C4F20003 		movt	r3, #:upper16:1073759989
 3383 000c 44F2F562 		movw	r2, #:lower16:1073759989
 3384 0010 C4F20002 		movt	r2, #:upper16:1073759989
 3385 0014 1278     		ldrb	r2, [r2, #0]
 3386 0016 D2B2     		uxtb	r2, r2
 3387 0018 02F0FD02 		and	r2, r2, #253
 3388 001c 1A70     		strb	r2, [r3, #0]
2121:.\Generated_Source\PSoC5/CyLib.c **** 
2122:.\Generated_Source\PSoC5/CyLib.c ****     #if(!CY_PSOC5A)
2123:.\Generated_Source\PSoC5/CyLib.c ****         CY_VD_PRES_CONTROL_REG &= ((uint8)(~CY_VD_PRESA_EN));
 3389              		.loc 1 2123 0
 3390 001e 44F2F763 		movw	r3, #:lower16:1073759991
 3391 0022 C4F20003 		movt	r3, #:upper16:1073759991
 3392 0026 44F2F762 		movw	r2, #:lower16:1073759991
 3393 002a C4F20002 		movt	r2, #:upper16:1073759991
 3394 002e 1278     		ldrb	r2, [r2, #0]
 3395 0030 D2B2     		uxtb	r2, r2
 3396 0032 02F07F02 		and	r2, r2, #127
 3397 0036 1A70     		strb	r2, [r3, #0]
 3398              	.L198:
2124:.\Generated_Source\PSoC5/CyLib.c ****     #endif /*(!CY_PSOC5A)*/
2125:.\Generated_Source\PSoC5/CyLib.c **** 
2126:.\Generated_Source\PSoC5/CyLib.c ****     while(0u != (CY_VD_PERSISTENT_STATUS_REG & 0x07u))
 3399              		.loc 1 2126 0
ARM GAS  C:\Users\karunmj\AppData\Local\Temp\cceFJIz4.s 			page 98


 3400 0038 44F2FA63 		movw	r3, #:lower16:1073759994
 3401 003c C4F20003 		movt	r3, #:upper16:1073759994
 3402 0040 1B78     		ldrb	r3, [r3, #0]
 3403 0042 DBB2     		uxtb	r3, r3
 3404 0044 03F00703 		and	r3, r3, #7
 3405 0048 002B     		cmp	r3, #0
 3406 004a F5D1     		bne	.L198
2127:.\Generated_Source\PSoC5/CyLib.c ****     {
2128:.\Generated_Source\PSoC5/CyLib.c **** 
2129:.\Generated_Source\PSoC5/CyLib.c ****     }
2130:.\Generated_Source\PSoC5/CyLib.c **** }
 3407              		.loc 1 2130 0
 3408 004c BD46     		mov	sp, r7
 3409 004e 80BC     		pop	{r7}
 3410 0050 7047     		bx	lr
 3411              		.cfi_endproc
 3412              	.LFE49:
 3413              		.size	CyVdLvAnalogDisable, .-CyVdLvAnalogDisable
 3414 0052 00BF     		.section	.text.CyVdHvAnalogEnable,"ax",%progbits
 3415              		.align	2
 3416              		.global	CyVdHvAnalogEnable
 3417              		.thumb
 3418              		.thumb_func
 3419              		.type	CyVdHvAnalogEnable, %function
 3420              	CyVdHvAnalogEnable:
 3421              	.LFB50:
2131:.\Generated_Source\PSoC5/CyLib.c **** 
2132:.\Generated_Source\PSoC5/CyLib.c **** 
2133:.\Generated_Source\PSoC5/CyLib.c **** /*******************************************************************************
2134:.\Generated_Source\PSoC5/CyLib.c **** * Function Name: CyVdHvAnalogEnable
2135:.\Generated_Source\PSoC5/CyLib.c **** ********************************************************************************
2136:.\Generated_Source\PSoC5/CyLib.c **** *
2137:.\Generated_Source\PSoC5/CyLib.c **** * Summary:
2138:.\Generated_Source\PSoC5/CyLib.c **** *  Enables the analog high voltage monitors to generate interrupt on
2139:.\Generated_Source\PSoC5/CyLib.c **** *  Vdda archives 5.75 V threshold and optionally resets device.
2140:.\Generated_Source\PSoC5/CyLib.c **** *
2141:.\Generated_Source\PSoC5/CyLib.c **** * Parameters:
2142:.\Generated_Source\PSoC5/CyLib.c **** *  None
2143:.\Generated_Source\PSoC5/CyLib.c **** *
2144:.\Generated_Source\PSoC5/CyLib.c **** * Return:
2145:.\Generated_Source\PSoC5/CyLib.c **** *  None
2146:.\Generated_Source\PSoC5/CyLib.c **** *
2147:.\Generated_Source\PSoC5/CyLib.c **** *******************************************************************************/
2148:.\Generated_Source\PSoC5/CyLib.c **** void CyVdHvAnalogEnable(void) 
2149:.\Generated_Source\PSoC5/CyLib.c **** {
 3422              		.loc 1 2149 0
 3423              		.cfi_startproc
 3424              		@ args = 0, pretend = 0, frame = 0
 3425              		@ frame_needed = 1, uses_anonymous_args = 0
 3426 0000 80B5     		push	{r7, lr}
 3427              	.LCFI128:
 3428              		.cfi_def_cfa_offset 8
 3429 0002 00AF     		add	r7, sp, #0
 3430              		.cfi_offset 14, -4
 3431              		.cfi_offset 7, -8
 3432              	.LCFI129:
 3433              		.cfi_def_cfa_register 7
ARM GAS  C:\Users\karunmj\AppData\Local\Temp\cceFJIz4.s 			page 99


2150:.\Generated_Source\PSoC5/CyLib.c ****     *CY_INT_CLEAR_PTR = 0x01u;
 3434              		.loc 1 2150 0
 3435 0004 4EF28013 		movw	r3, #:lower16:-536813184
 3436 0008 CEF20003 		movt	r3, #:upper16:-536813184
 3437 000c 4FF00102 		mov	r2, #1
 3438 0010 1A60     		str	r2, [r3, #0]
2151:.\Generated_Source\PSoC5/CyLib.c **** 
2152:.\Generated_Source\PSoC5/CyLib.c ****     #if(!CY_PSOC5A)
2153:.\Generated_Source\PSoC5/CyLib.c ****         CY_VD_PRES_CONTROL_REG &= ((uint8)(~CY_VD_PRESA_EN));
 3439              		.loc 1 2153 0
 3440 0012 44F2F763 		movw	r3, #:lower16:1073759991
 3441 0016 C4F20003 		movt	r3, #:upper16:1073759991
 3442 001a 44F2F762 		movw	r2, #:lower16:1073759991
 3443 001e C4F20002 		movt	r2, #:upper16:1073759991
 3444 0022 1278     		ldrb	r2, [r2, #0]
 3445 0024 D2B2     		uxtb	r2, r2
 3446 0026 02F07F02 		and	r2, r2, #127
 3447 002a 1A70     		strb	r2, [r3, #0]
2154:.\Generated_Source\PSoC5/CyLib.c ****     #endif /*(!CY_PSOC5A)*/
2155:.\Generated_Source\PSoC5/CyLib.c **** 
2156:.\Generated_Source\PSoC5/CyLib.c ****     CY_VD_LVI_HVI_CONTROL_REG |= CY_VD_HVIA_EN;
 3448              		.loc 1 2156 0
 3449 002c 44F2F563 		movw	r3, #:lower16:1073759989
 3450 0030 C4F20003 		movt	r3, #:upper16:1073759989
 3451 0034 44F2F562 		movw	r2, #:lower16:1073759989
 3452 0038 C4F20002 		movt	r2, #:upper16:1073759989
 3453 003c 1278     		ldrb	r2, [r2, #0]
 3454 003e D2B2     		uxtb	r2, r2
 3455 0040 42F00402 		orr	r2, r2, #4
 3456 0044 D2B2     		uxtb	r2, r2
 3457 0046 1A70     		strb	r2, [r3, #0]
2157:.\Generated_Source\PSoC5/CyLib.c **** 
2158:.\Generated_Source\PSoC5/CyLib.c ****     /* Timeout to eliminate glitches on the LVI/HVI when enabling */
2159:.\Generated_Source\PSoC5/CyLib.c ****     CyDelayUs(1u);
 3458              		.loc 1 2159 0
 3459 0048 4FF00100 		mov	r0, #1
 3460 004c FFF7FEFF 		bl	CyDelayUs
2160:.\Generated_Source\PSoC5/CyLib.c **** 
2161:.\Generated_Source\PSoC5/CyLib.c **** 	(void) CY_VD_PERSISTENT_STATUS_REG;
 3461              		.loc 1 2161 0
 3462 0050 44F2FA63 		movw	r3, #:lower16:1073759994
 3463 0054 C4F20003 		movt	r3, #:upper16:1073759994
 3464 0058 1B78     		ldrb	r3, [r3, #0]
2162:.\Generated_Source\PSoC5/CyLib.c **** 
2163:.\Generated_Source\PSoC5/CyLib.c ****     *CY_INT_CLR_PEND_PTR = 0x01u;
 3465              		.loc 1 2163 0
 3466 005a 4EF28023 		movw	r3, #:lower16:-536812928
 3467 005e CEF20003 		movt	r3, #:upper16:-536812928
 3468 0062 4FF00102 		mov	r2, #1
 3469 0066 1A60     		str	r2, [r3, #0]
2164:.\Generated_Source\PSoC5/CyLib.c ****     *CY_INT_ENABLE_PTR   = 0x01u;
 3470              		.loc 1 2164 0
 3471 0068 4EF20013 		movw	r3, #:lower16:-536813312
 3472 006c CEF20003 		movt	r3, #:upper16:-536813312
 3473 0070 4FF00102 		mov	r2, #1
 3474 0074 1A60     		str	r2, [r3, #0]
2165:.\Generated_Source\PSoC5/CyLib.c **** }
ARM GAS  C:\Users\karunmj\AppData\Local\Temp\cceFJIz4.s 			page 100


 3475              		.loc 1 2165 0
 3476 0076 80BD     		pop	{r7, pc}
 3477              		.cfi_endproc
 3478              	.LFE50:
 3479              		.size	CyVdHvAnalogEnable, .-CyVdHvAnalogEnable
 3480              		.section	.text.CyVdHvAnalogDisable,"ax",%progbits
 3481              		.align	2
 3482              		.global	CyVdHvAnalogDisable
 3483              		.thumb
 3484              		.thumb_func
 3485              		.type	CyVdHvAnalogDisable, %function
 3486              	CyVdHvAnalogDisable:
 3487              	.LFB51:
2166:.\Generated_Source\PSoC5/CyLib.c **** 
2167:.\Generated_Source\PSoC5/CyLib.c **** 
2168:.\Generated_Source\PSoC5/CyLib.c **** /*******************************************************************************
2169:.\Generated_Source\PSoC5/CyLib.c **** * Function Name: CyVdHvAnalogDisable
2170:.\Generated_Source\PSoC5/CyLib.c **** ********************************************************************************
2171:.\Generated_Source\PSoC5/CyLib.c **** *
2172:.\Generated_Source\PSoC5/CyLib.c **** * Summary:
2173:.\Generated_Source\PSoC5/CyLib.c **** *  Disables the analog low voltage monitor
2174:.\Generated_Source\PSoC5/CyLib.c **** *  (interrupt and device reset are disabled).
2175:.\Generated_Source\PSoC5/CyLib.c **** *
2176:.\Generated_Source\PSoC5/CyLib.c **** * Parameters:
2177:.\Generated_Source\PSoC5/CyLib.c **** *  None
2178:.\Generated_Source\PSoC5/CyLib.c **** *
2179:.\Generated_Source\PSoC5/CyLib.c **** * Return:
2180:.\Generated_Source\PSoC5/CyLib.c **** *  None
2181:.\Generated_Source\PSoC5/CyLib.c **** *
2182:.\Generated_Source\PSoC5/CyLib.c **** *******************************************************************************/
2183:.\Generated_Source\PSoC5/CyLib.c **** void CyVdHvAnalogDisable(void) 
2184:.\Generated_Source\PSoC5/CyLib.c **** {
 3488              		.loc 1 2184 0
 3489              		.cfi_startproc
 3490              		@ args = 0, pretend = 0, frame = 0
 3491              		@ frame_needed = 1, uses_anonymous_args = 0
 3492              		@ link register save eliminated.
 3493 0000 80B4     		push	{r7}
 3494              	.LCFI130:
 3495              		.cfi_def_cfa_offset 4
 3496 0002 00AF     		add	r7, sp, #0
 3497              		.cfi_offset 7, -4
 3498              	.LCFI131:
 3499              		.cfi_def_cfa_register 7
2185:.\Generated_Source\PSoC5/CyLib.c ****     CY_VD_LVI_HVI_CONTROL_REG &= ((uint8)(~CY_VD_HVIA_EN));
 3500              		.loc 1 2185 0
 3501 0004 44F2F563 		movw	r3, #:lower16:1073759989
 3502 0008 C4F20003 		movt	r3, #:upper16:1073759989
 3503 000c 44F2F562 		movw	r2, #:lower16:1073759989
 3504 0010 C4F20002 		movt	r2, #:upper16:1073759989
 3505 0014 1278     		ldrb	r2, [r2, #0]
 3506 0016 D2B2     		uxtb	r2, r2
 3507 0018 02F0FB02 		and	r2, r2, #251
 3508 001c 1A70     		strb	r2, [r3, #0]
2186:.\Generated_Source\PSoC5/CyLib.c **** }
 3509              		.loc 1 2186 0
 3510 001e BD46     		mov	sp, r7
ARM GAS  C:\Users\karunmj\AppData\Local\Temp\cceFJIz4.s 			page 101


 3511 0020 80BC     		pop	{r7}
 3512 0022 7047     		bx	lr
 3513              		.cfi_endproc
 3514              	.LFE51:
 3515              		.size	CyVdHvAnalogDisable, .-CyVdHvAnalogDisable
 3516              		.section	.text.CyVdStickyStatus,"ax",%progbits
 3517              		.align	2
 3518              		.global	CyVdStickyStatus
 3519              		.thumb
 3520              		.thumb_func
 3521              		.type	CyVdStickyStatus, %function
 3522              	CyVdStickyStatus:
 3523              	.LFB52:
2187:.\Generated_Source\PSoC5/CyLib.c **** 
2188:.\Generated_Source\PSoC5/CyLib.c **** 
2189:.\Generated_Source\PSoC5/CyLib.c **** /*******************************************************************************
2190:.\Generated_Source\PSoC5/CyLib.c **** * Function Name: CyVdStickyStatus
2191:.\Generated_Source\PSoC5/CyLib.c **** ********************************************************************************
2192:.\Generated_Source\PSoC5/CyLib.c **** *
2193:.\Generated_Source\PSoC5/CyLib.c **** * Summary:
2194:.\Generated_Source\PSoC5/CyLib.c **** *  Manages the Reset and Voltage Detection Status Register 0.
2195:.\Generated_Source\PSoC5/CyLib.c **** *  This register has the interrupt status for the HVIA, LVID and LVIA.
2196:.\Generated_Source\PSoC5/CyLib.c **** *  This hardware register clears on read.
2197:.\Generated_Source\PSoC5/CyLib.c **** *
2198:.\Generated_Source\PSoC5/CyLib.c **** * Parameters:
2199:.\Generated_Source\PSoC5/CyLib.c **** *  mask: Bits in the shadow register to clear.
2200:.\Generated_Source\PSoC5/CyLib.c **** *       Value        Define                Bit To Clear
2201:.\Generated_Source\PSoC5/CyLib.c **** *       0x01         CY_VD_LVID            LVID
2202:.\Generated_Source\PSoC5/CyLib.c **** *       0x02         CY_VD_LVIA            LVIA
2203:.\Generated_Source\PSoC5/CyLib.c **** *       0x04         CY_VD_HVIA            HVIA
2204:.\Generated_Source\PSoC5/CyLib.c **** *
2205:.\Generated_Source\PSoC5/CyLib.c **** * Return:
2206:.\Generated_Source\PSoC5/CyLib.c **** *  Status.  Same enumerated bit values as used for the mask parameter.
2207:.\Generated_Source\PSoC5/CyLib.c **** *
2208:.\Generated_Source\PSoC5/CyLib.c **** *******************************************************************************/
2209:.\Generated_Source\PSoC5/CyLib.c **** uint8 CyVdStickyStatus(uint8 mask) 
2210:.\Generated_Source\PSoC5/CyLib.c **** {
 3524              		.loc 1 2210 0
 3525              		.cfi_startproc
 3526              		@ args = 0, pretend = 0, frame = 16
 3527              		@ frame_needed = 1, uses_anonymous_args = 0
 3528              		@ link register save eliminated.
 3529 0000 80B4     		push	{r7}
 3530              	.LCFI132:
 3531              		.cfi_def_cfa_offset 4
 3532 0002 85B0     		sub	sp, sp, #20
 3533              	.LCFI133:
 3534              		.cfi_def_cfa_offset 24
 3535 0004 00AF     		add	r7, sp, #0
 3536              		.cfi_offset 7, -4
 3537              	.LCFI134:
 3538              		.cfi_def_cfa_register 7
 3539 0006 0346     		mov	r3, r0
 3540 0008 FB71     		strb	r3, [r7, #7]
2211:.\Generated_Source\PSoC5/CyLib.c ****     uint8 status;
2212:.\Generated_Source\PSoC5/CyLib.c **** 
2213:.\Generated_Source\PSoC5/CyLib.c ****     status = CY_VD_PERSISTENT_STATUS_REG;
ARM GAS  C:\Users\karunmj\AppData\Local\Temp\cceFJIz4.s 			page 102


 3541              		.loc 1 2213 0
 3542 000a 44F2FA63 		movw	r3, #:lower16:1073759994
 3543 000e C4F20003 		movt	r3, #:upper16:1073759994
 3544 0012 1B78     		ldrb	r3, [r3, #0]
 3545 0014 FB73     		strb	r3, [r7, #15]
2214:.\Generated_Source\PSoC5/CyLib.c ****     CY_VD_PERSISTENT_STATUS_REG &= ((uint8)(~mask));
 3546              		.loc 1 2214 0
 3547 0016 44F2FA63 		movw	r3, #:lower16:1073759994
 3548 001a C4F20003 		movt	r3, #:upper16:1073759994
 3549 001e 44F2FA62 		movw	r2, #:lower16:1073759994
 3550 0022 C4F20002 		movt	r2, #:upper16:1073759994
 3551 0026 1278     		ldrb	r2, [r2, #0]
 3552 0028 D1B2     		uxtb	r1, r2
 3553 002a FA79     		ldrb	r2, [r7, #7]
 3554 002c 6FEA0202 		mvn	r2, r2
 3555 0030 D2B2     		uxtb	r2, r2
 3556 0032 01EA0202 		and	r2, r1, r2
 3557 0036 D2B2     		uxtb	r2, r2
 3558 0038 1A70     		strb	r2, [r3, #0]
2215:.\Generated_Source\PSoC5/CyLib.c **** 
2216:.\Generated_Source\PSoC5/CyLib.c ****     return(status);
 3559              		.loc 1 2216 0
 3560 003a FB7B     		ldrb	r3, [r7, #15]	@ zero_extendqisi2
2217:.\Generated_Source\PSoC5/CyLib.c **** }
 3561              		.loc 1 2217 0
 3562 003c 1846     		mov	r0, r3
 3563 003e 07F11407 		add	r7, r7, #20
 3564 0042 BD46     		mov	sp, r7
 3565 0044 80BC     		pop	{r7}
 3566 0046 7047     		bx	lr
 3567              		.cfi_endproc
 3568              	.LFE52:
 3569              		.size	CyVdStickyStatus, .-CyVdStickyStatus
 3570              		.section	.text.CyVdRealTimeStatus,"ax",%progbits
 3571              		.align	2
 3572              		.global	CyVdRealTimeStatus
 3573              		.thumb
 3574              		.thumb_func
 3575              		.type	CyVdRealTimeStatus, %function
 3576              	CyVdRealTimeStatus:
 3577              	.LFB53:
2218:.\Generated_Source\PSoC5/CyLib.c **** 
2219:.\Generated_Source\PSoC5/CyLib.c **** 
2220:.\Generated_Source\PSoC5/CyLib.c **** /*******************************************************************************
2221:.\Generated_Source\PSoC5/CyLib.c **** * Function Name: CyVdRealTimeStatus
2222:.\Generated_Source\PSoC5/CyLib.c **** ********************************************************************************
2223:.\Generated_Source\PSoC5/CyLib.c **** *
2224:.\Generated_Source\PSoC5/CyLib.c **** * Summary:
2225:.\Generated_Source\PSoC5/CyLib.c **** *  Returns the real time voltage detection status.
2226:.\Generated_Source\PSoC5/CyLib.c **** *
2227:.\Generated_Source\PSoC5/CyLib.c **** * Parameters:
2228:.\Generated_Source\PSoC5/CyLib.c **** *  None
2229:.\Generated_Source\PSoC5/CyLib.c **** *
2230:.\Generated_Source\PSoC5/CyLib.c **** * Return:
2231:.\Generated_Source\PSoC5/CyLib.c **** *  Status. Same enumerated bit values as used for the mask parameter.
2232:.\Generated_Source\PSoC5/CyLib.c **** *
2233:.\Generated_Source\PSoC5/CyLib.c **** *******************************************************************************/
ARM GAS  C:\Users\karunmj\AppData\Local\Temp\cceFJIz4.s 			page 103


2234:.\Generated_Source\PSoC5/CyLib.c **** uint8 CyVdRealTimeStatus(void) 
2235:.\Generated_Source\PSoC5/CyLib.c **** {
 3578              		.loc 1 2235 0
 3579              		.cfi_startproc
 3580              		@ args = 0, pretend = 0, frame = 8
 3581              		@ frame_needed = 1, uses_anonymous_args = 0
 3582 0000 80B5     		push	{r7, lr}
 3583              	.LCFI135:
 3584              		.cfi_def_cfa_offset 8
 3585 0002 82B0     		sub	sp, sp, #8
 3586              	.LCFI136:
 3587              		.cfi_def_cfa_offset 16
 3588 0004 00AF     		add	r7, sp, #0
 3589              		.cfi_offset 14, -4
 3590              		.cfi_offset 7, -8
 3591              	.LCFI137:
 3592              		.cfi_def_cfa_register 7
2236:.\Generated_Source\PSoC5/CyLib.c ****     uint8 interruptState;
2237:.\Generated_Source\PSoC5/CyLib.c ****     uint8 vdFlagsState;
2238:.\Generated_Source\PSoC5/CyLib.c **** 
2239:.\Generated_Source\PSoC5/CyLib.c ****     interruptState = CyEnterCriticalSection();
 3593              		.loc 1 2239 0
 3594 0006 FFF7FEFF 		bl	CyEnterCriticalSection
 3595 000a 0346     		mov	r3, r0
 3596 000c BB71     		strb	r3, [r7, #6]
2240:.\Generated_Source\PSoC5/CyLib.c ****     vdFlagsState = CY_VD_RT_STATUS_REG;
 3597              		.loc 1 2240 0
 3598 000e 44F2FC63 		movw	r3, #:lower16:1073759996
 3599 0012 C4F20003 		movt	r3, #:upper16:1073759996
 3600 0016 1B78     		ldrb	r3, [r3, #0]
 3601 0018 FB71     		strb	r3, [r7, #7]
2241:.\Generated_Source\PSoC5/CyLib.c ****     CyExitCriticalSection(interruptState);
 3602              		.loc 1 2241 0
 3603 001a BB79     		ldrb	r3, [r7, #6]	@ zero_extendqisi2
 3604 001c 1846     		mov	r0, r3
 3605 001e FFF7FEFF 		bl	CyExitCriticalSection
2242:.\Generated_Source\PSoC5/CyLib.c **** 
2243:.\Generated_Source\PSoC5/CyLib.c ****     return(vdFlagsState);
 3606              		.loc 1 2243 0
 3607 0022 FB79     		ldrb	r3, [r7, #7]	@ zero_extendqisi2
2244:.\Generated_Source\PSoC5/CyLib.c **** }
 3608              		.loc 1 2244 0
 3609 0024 1846     		mov	r0, r3
 3610 0026 07F10807 		add	r7, r7, #8
 3611 002a BD46     		mov	sp, r7
 3612 002c 80BD     		pop	{r7, pc}
 3613              		.cfi_endproc
 3614              	.LFE53:
 3615              		.size	CyVdRealTimeStatus, .-CyVdRealTimeStatus
 3616 002e 00BF     		.section	.text.CyDisableInts,"ax",%progbits
 3617              		.align	2
 3618              		.global	CyDisableInts
 3619              		.thumb
 3620              		.thumb_func
 3621              		.type	CyDisableInts, %function
 3622              	CyDisableInts:
 3623              	.LFB54:
ARM GAS  C:\Users\karunmj\AppData\Local\Temp\cceFJIz4.s 			page 104


2245:.\Generated_Source\PSoC5/CyLib.c **** 
2246:.\Generated_Source\PSoC5/CyLib.c **** 
2247:.\Generated_Source\PSoC5/CyLib.c **** /*******************************************************************************
2248:.\Generated_Source\PSoC5/CyLib.c **** * Function Name: CyDisableInts
2249:.\Generated_Source\PSoC5/CyLib.c **** ********************************************************************************
2250:.\Generated_Source\PSoC5/CyLib.c **** *
2251:.\Generated_Source\PSoC5/CyLib.c **** * Summary:
2252:.\Generated_Source\PSoC5/CyLib.c **** *  Disables the interrupt enable for each interrupt.
2253:.\Generated_Source\PSoC5/CyLib.c **** *
2254:.\Generated_Source\PSoC5/CyLib.c **** * Parameters:
2255:.\Generated_Source\PSoC5/CyLib.c **** *  None
2256:.\Generated_Source\PSoC5/CyLib.c **** *
2257:.\Generated_Source\PSoC5/CyLib.c **** * Return:
2258:.\Generated_Source\PSoC5/CyLib.c **** *  32 bit mask of previously enabled interrupts.
2259:.\Generated_Source\PSoC5/CyLib.c **** *
2260:.\Generated_Source\PSoC5/CyLib.c **** *******************************************************************************/
2261:.\Generated_Source\PSoC5/CyLib.c **** uint32 CyDisableInts(void) 
2262:.\Generated_Source\PSoC5/CyLib.c **** {
 3624              		.loc 1 2262 0
 3625              		.cfi_startproc
 3626              		@ args = 0, pretend = 0, frame = 8
 3627              		@ frame_needed = 1, uses_anonymous_args = 0
 3628 0000 80B5     		push	{r7, lr}
 3629              	.LCFI138:
 3630              		.cfi_def_cfa_offset 8
 3631 0002 82B0     		sub	sp, sp, #8
 3632              	.LCFI139:
 3633              		.cfi_def_cfa_offset 16
 3634 0004 00AF     		add	r7, sp, #0
 3635              		.cfi_offset 14, -4
 3636              		.cfi_offset 7, -8
 3637              	.LCFI140:
 3638              		.cfi_def_cfa_register 7
2263:.\Generated_Source\PSoC5/CyLib.c ****     uint32 intState;
2264:.\Generated_Source\PSoC5/CyLib.c ****     uint8 interruptState;
2265:.\Generated_Source\PSoC5/CyLib.c **** 
2266:.\Generated_Source\PSoC5/CyLib.c ****     interruptState = CyEnterCriticalSection();
 3639              		.loc 1 2266 0
 3640 0006 FFF7FEFF 		bl	CyEnterCriticalSection
 3641 000a 0346     		mov	r3, r0
 3642 000c FB71     		strb	r3, [r7, #7]
2267:.\Generated_Source\PSoC5/CyLib.c **** 
2268:.\Generated_Source\PSoC5/CyLib.c ****     #if(CY_PSOC3)
2269:.\Generated_Source\PSoC5/CyLib.c **** 
2270:.\Generated_Source\PSoC5/CyLib.c ****         /* Get the current interrupt state. */
2271:.\Generated_Source\PSoC5/CyLib.c ****         intState  = ((uint32) CY_GET_REG8(CY_INT_CLR_EN0_PTR));
2272:.\Generated_Source\PSoC5/CyLib.c ****         intState |= ((uint32) (((uint32) CY_GET_REG8(CY_INT_CLR_EN1_PTR)) << 8u));
2273:.\Generated_Source\PSoC5/CyLib.c ****         intState |= ((uint32) (((uint32) CY_GET_REG8(CY_INT_CLR_EN2_PTR)) << 16u));
2274:.\Generated_Source\PSoC5/CyLib.c ****         intState |= ((uint32) (((uint32) CY_GET_REG8(CY_INT_CLR_EN3_PTR)) << 24u));
2275:.\Generated_Source\PSoC5/CyLib.c **** 
2276:.\Generated_Source\PSoC5/CyLib.c **** 
2277:.\Generated_Source\PSoC5/CyLib.c ****         /* Disable all of the interrupts. */
2278:.\Generated_Source\PSoC5/CyLib.c ****         CY_SET_REG8(CY_INT_CLR_EN0_PTR, 0xFFu);
2279:.\Generated_Source\PSoC5/CyLib.c ****         CY_SET_REG8(CY_INT_CLR_EN1_PTR, 0xFFu);
2280:.\Generated_Source\PSoC5/CyLib.c ****         CY_SET_REG8(CY_INT_CLR_EN2_PTR, 0xFFu);
2281:.\Generated_Source\PSoC5/CyLib.c ****         CY_SET_REG8(CY_INT_CLR_EN3_PTR, 0xFFu);
2282:.\Generated_Source\PSoC5/CyLib.c **** 
ARM GAS  C:\Users\karunmj\AppData\Local\Temp\cceFJIz4.s 			page 105


2283:.\Generated_Source\PSoC5/CyLib.c ****     #else
2284:.\Generated_Source\PSoC5/CyLib.c **** 
2285:.\Generated_Source\PSoC5/CyLib.c ****         /* Get the current interrupt state. */
2286:.\Generated_Source\PSoC5/CyLib.c ****         intState = CY_GET_REG32(CY_INT_CLEAR_PTR);
 3643              		.loc 1 2286 0
 3644 000e 4EF28013 		movw	r3, #:lower16:-536813184
 3645 0012 CEF20003 		movt	r3, #:upper16:-536813184
 3646 0016 1B68     		ldr	r3, [r3, #0]
 3647 0018 3B60     		str	r3, [r7, #0]
2287:.\Generated_Source\PSoC5/CyLib.c **** 
2288:.\Generated_Source\PSoC5/CyLib.c ****         /* Disable all of the interrupts. */
2289:.\Generated_Source\PSoC5/CyLib.c ****         CY_SET_REG32(CY_INT_CLEAR_PTR, 0xFFFFFFFFu);
 3648              		.loc 1 2289 0
 3649 001a 4EF28013 		movw	r3, #:lower16:-536813184
 3650 001e CEF20003 		movt	r3, #:upper16:-536813184
 3651 0022 4FF0FF32 		mov	r2, #-1
 3652 0026 1A60     		str	r2, [r3, #0]
2290:.\Generated_Source\PSoC5/CyLib.c **** 
2291:.\Generated_Source\PSoC5/CyLib.c ****     #endif /* (CY_PSOC3) */
2292:.\Generated_Source\PSoC5/CyLib.c **** 
2293:.\Generated_Source\PSoC5/CyLib.c ****     CyExitCriticalSection(interruptState);
 3653              		.loc 1 2293 0
 3654 0028 FB79     		ldrb	r3, [r7, #7]	@ zero_extendqisi2
 3655 002a 1846     		mov	r0, r3
 3656 002c FFF7FEFF 		bl	CyExitCriticalSection
2294:.\Generated_Source\PSoC5/CyLib.c **** 
2295:.\Generated_Source\PSoC5/CyLib.c ****     return (intState);
 3657              		.loc 1 2295 0
 3658 0030 3B68     		ldr	r3, [r7, #0]
2296:.\Generated_Source\PSoC5/CyLib.c **** }
 3659              		.loc 1 2296 0
 3660 0032 1846     		mov	r0, r3
 3661 0034 07F10807 		add	r7, r7, #8
 3662 0038 BD46     		mov	sp, r7
 3663 003a 80BD     		pop	{r7, pc}
 3664              		.cfi_endproc
 3665              	.LFE54:
 3666              		.size	CyDisableInts, .-CyDisableInts
 3667              		.section	.text.CyEnableInts,"ax",%progbits
 3668              		.align	2
 3669              		.global	CyEnableInts
 3670              		.thumb
 3671              		.thumb_func
 3672              		.type	CyEnableInts, %function
 3673              	CyEnableInts:
 3674              	.LFB55:
2297:.\Generated_Source\PSoC5/CyLib.c **** 
2298:.\Generated_Source\PSoC5/CyLib.c **** 
2299:.\Generated_Source\PSoC5/CyLib.c **** /*******************************************************************************
2300:.\Generated_Source\PSoC5/CyLib.c **** * Function Name: CyEnableInts
2301:.\Generated_Source\PSoC5/CyLib.c **** ********************************************************************************
2302:.\Generated_Source\PSoC5/CyLib.c **** *
2303:.\Generated_Source\PSoC5/CyLib.c **** * Summary:
2304:.\Generated_Source\PSoC5/CyLib.c **** *  Enables interrupts to a given state.
2305:.\Generated_Source\PSoC5/CyLib.c **** *
2306:.\Generated_Source\PSoC5/CyLib.c **** * Parameters:
2307:.\Generated_Source\PSoC5/CyLib.c **** *  uint32 mask: 32 bit mask of interrupts to enable.
ARM GAS  C:\Users\karunmj\AppData\Local\Temp\cceFJIz4.s 			page 106


2308:.\Generated_Source\PSoC5/CyLib.c **** *
2309:.\Generated_Source\PSoC5/CyLib.c **** * Return:
2310:.\Generated_Source\PSoC5/CyLib.c **** *  None
2311:.\Generated_Source\PSoC5/CyLib.c **** *
2312:.\Generated_Source\PSoC5/CyLib.c **** *******************************************************************************/
2313:.\Generated_Source\PSoC5/CyLib.c **** void CyEnableInts(uint32 mask) 
2314:.\Generated_Source\PSoC5/CyLib.c **** {
 3675              		.loc 1 2314 0
 3676              		.cfi_startproc
 3677              		@ args = 0, pretend = 0, frame = 16
 3678              		@ frame_needed = 1, uses_anonymous_args = 0
 3679 0000 80B5     		push	{r7, lr}
 3680              	.LCFI141:
 3681              		.cfi_def_cfa_offset 8
 3682 0002 84B0     		sub	sp, sp, #16
 3683              	.LCFI142:
 3684              		.cfi_def_cfa_offset 24
 3685 0004 00AF     		add	r7, sp, #0
 3686              		.cfi_offset 14, -4
 3687              		.cfi_offset 7, -8
 3688              	.LCFI143:
 3689              		.cfi_def_cfa_register 7
 3690 0006 7860     		str	r0, [r7, #4]
2315:.\Generated_Source\PSoC5/CyLib.c **** 
2316:.\Generated_Source\PSoC5/CyLib.c ****     uint8 interruptState;
2317:.\Generated_Source\PSoC5/CyLib.c **** 
2318:.\Generated_Source\PSoC5/CyLib.c ****     interruptState = CyEnterCriticalSection();
 3691              		.loc 1 2318 0
 3692 0008 FFF7FEFF 		bl	CyEnterCriticalSection
 3693 000c 0346     		mov	r3, r0
 3694 000e FB73     		strb	r3, [r7, #15]
2319:.\Generated_Source\PSoC5/CyLib.c **** 
2320:.\Generated_Source\PSoC5/CyLib.c ****     #if(CY_PSOC3)
2321:.\Generated_Source\PSoC5/CyLib.c **** 
2322:.\Generated_Source\PSoC5/CyLib.c ****         /* Set interrupts as enabled. */
2323:.\Generated_Source\PSoC5/CyLib.c ****         CY_SET_REG8(CY_INT_SET_EN3_PTR, ((uint8) (mask >> 24u)));
2324:.\Generated_Source\PSoC5/CyLib.c ****         CY_SET_REG8(CY_INT_SET_EN2_PTR, ((uint8) (mask >> 16u)));
2325:.\Generated_Source\PSoC5/CyLib.c ****         CY_SET_REG8(CY_INT_SET_EN1_PTR, ((uint8) (mask >> 8u )));
2326:.\Generated_Source\PSoC5/CyLib.c ****         CY_SET_REG8(CY_INT_SET_EN0_PTR, ((uint8) (mask )));
2327:.\Generated_Source\PSoC5/CyLib.c **** 
2328:.\Generated_Source\PSoC5/CyLib.c ****     #else
2329:.\Generated_Source\PSoC5/CyLib.c **** 
2330:.\Generated_Source\PSoC5/CyLib.c ****         CY_SET_REG32(CY_INT_ENABLE_PTR, mask);
 3695              		.loc 1 2330 0
 3696 0010 4EF20013 		movw	r3, #:lower16:-536813312
 3697 0014 CEF20003 		movt	r3, #:upper16:-536813312
 3698 0018 7A68     		ldr	r2, [r7, #4]
 3699 001a 1A60     		str	r2, [r3, #0]
2331:.\Generated_Source\PSoC5/CyLib.c **** 
2332:.\Generated_Source\PSoC5/CyLib.c ****     #endif /* (CY_PSOC3) */
2333:.\Generated_Source\PSoC5/CyLib.c **** 
2334:.\Generated_Source\PSoC5/CyLib.c ****     CyExitCriticalSection(interruptState);
 3700              		.loc 1 2334 0
 3701 001c FB7B     		ldrb	r3, [r7, #15]	@ zero_extendqisi2
 3702 001e 1846     		mov	r0, r3
 3703 0020 FFF7FEFF 		bl	CyExitCriticalSection
2335:.\Generated_Source\PSoC5/CyLib.c **** 
ARM GAS  C:\Users\karunmj\AppData\Local\Temp\cceFJIz4.s 			page 107


2336:.\Generated_Source\PSoC5/CyLib.c **** }
 3704              		.loc 1 2336 0
 3705 0024 07F11007 		add	r7, r7, #16
 3706 0028 BD46     		mov	sp, r7
 3707 002a 80BD     		pop	{r7, pc}
 3708              		.cfi_endproc
 3709              	.LFE55:
 3710              		.size	CyEnableInts, .-CyEnableInts
 3711              		.section	.text.CyFlushCache,"ax",%progbits
 3712              		.align	2
 3713              		.global	CyFlushCache
 3714              		.thumb
 3715              		.thumb_func
 3716              		.type	CyFlushCache, %function
 3717              	CyFlushCache:
 3718              	.LFB56:
2337:.\Generated_Source\PSoC5/CyLib.c **** 
2338:.\Generated_Source\PSoC5/CyLib.c **** #if(CY_PSOC5)
2339:.\Generated_Source\PSoC5/CyLib.c **** 
2340:.\Generated_Source\PSoC5/CyLib.c ****     /*******************************************************************************
2341:.\Generated_Source\PSoC5/CyLib.c ****     * Function Name: CyFlushCache
2342:.\Generated_Source\PSoC5/CyLib.c ****     ********************************************************************************
2343:.\Generated_Source\PSoC5/CyLib.c ****     * Summary:
2344:.\Generated_Source\PSoC5/CyLib.c ****     *  Flushes the PSoC 5/5LP cache by invalidating all entries.
2345:.\Generated_Source\PSoC5/CyLib.c ****     *
2346:.\Generated_Source\PSoC5/CyLib.c ****     * Parameters:
2347:.\Generated_Source\PSoC5/CyLib.c ****     *  None
2348:.\Generated_Source\PSoC5/CyLib.c ****     *
2349:.\Generated_Source\PSoC5/CyLib.c ****     * Return:
2350:.\Generated_Source\PSoC5/CyLib.c ****     *  None
2351:.\Generated_Source\PSoC5/CyLib.c ****     *
2352:.\Generated_Source\PSoC5/CyLib.c ****     *******************************************************************************/
2353:.\Generated_Source\PSoC5/CyLib.c ****     void CyFlushCache(void)
2354:.\Generated_Source\PSoC5/CyLib.c ****     {
 3719              		.loc 1 2354 0
 3720              		.cfi_startproc
 3721              		@ args = 0, pretend = 0, frame = 8
 3722              		@ frame_needed = 1, uses_anonymous_args = 0
 3723 0000 80B5     		push	{r7, lr}
 3724              	.LCFI144:
 3725              		.cfi_def_cfa_offset 8
 3726 0002 82B0     		sub	sp, sp, #8
 3727              	.LCFI145:
 3728              		.cfi_def_cfa_offset 16
 3729 0004 00AF     		add	r7, sp, #0
 3730              		.cfi_offset 14, -4
 3731              		.cfi_offset 7, -8
 3732              	.LCFI146:
 3733              		.cfi_def_cfa_register 7
2355:.\Generated_Source\PSoC5/CyLib.c ****         uint8 interruptState;
2356:.\Generated_Source\PSoC5/CyLib.c **** 
2357:.\Generated_Source\PSoC5/CyLib.c ****         /* Save current global interrupt enable and disable it */
2358:.\Generated_Source\PSoC5/CyLib.c ****         interruptState = CyEnterCriticalSection();
 3734              		.loc 1 2358 0
 3735 0006 FFF7FEFF 		bl	CyEnterCriticalSection
 3736 000a 0346     		mov	r3, r0
 3737 000c FB71     		strb	r3, [r7, #7]
ARM GAS  C:\Users\karunmj\AppData\Local\Temp\cceFJIz4.s 			page 108


2359:.\Generated_Source\PSoC5/CyLib.c **** 
2360:.\Generated_Source\PSoC5/CyLib.c ****         /* Fill instruction prefectch unit to insure data integrity */
2361:.\Generated_Source\PSoC5/CyLib.c ****         CY_NOP;
 3738              		.loc 1 2361 0
 3739              	@ 2361 ".\Generated_Source\PSoC5\CyLib.c" 1
 3740 000e 00BF     		NOP
 3741              	
 3742              	@ 0 "" 2
2362:.\Generated_Source\PSoC5/CyLib.c ****         CY_NOP;
 3743              		.loc 1 2362 0
 3744              	@ 2362 ".\Generated_Source\PSoC5\CyLib.c" 1
 3745 0010 00BF     		NOP
 3746              	
 3747              	@ 0 "" 2
2363:.\Generated_Source\PSoC5/CyLib.c ****         CY_NOP;
 3748              		.loc 1 2363 0
 3749              	@ 2363 ".\Generated_Source\PSoC5\CyLib.c" 1
 3750 0012 00BF     		NOP
 3751              	
 3752              	@ 0 "" 2
2364:.\Generated_Source\PSoC5/CyLib.c ****         CY_NOP;
 3753              		.loc 1 2364 0
 3754              	@ 2364 ".\Generated_Source\PSoC5\CyLib.c" 1
 3755 0014 00BF     		NOP
 3756              	
 3757              	@ 0 "" 2
2365:.\Generated_Source\PSoC5/CyLib.c ****         CY_NOP;
 3758              		.loc 1 2365 0
 3759              	@ 2365 ".\Generated_Source\PSoC5\CyLib.c" 1
 3760 0016 00BF     		NOP
 3761              	
 3762              	@ 0 "" 2
2366:.\Generated_Source\PSoC5/CyLib.c ****         CY_NOP;
 3763              		.loc 1 2366 0
 3764              	@ 2366 ".\Generated_Source\PSoC5\CyLib.c" 1
 3765 0018 00BF     		NOP
 3766              	
 3767              	@ 0 "" 2
2367:.\Generated_Source\PSoC5/CyLib.c ****         CY_NOP;
 3768              		.loc 1 2367 0
 3769              	@ 2367 ".\Generated_Source\PSoC5\CyLib.c" 1
 3770 001a 00BF     		NOP
 3771              	
 3772              	@ 0 "" 2
2368:.\Generated_Source\PSoC5/CyLib.c ****         CY_NOP;
 3773              		.loc 1 2368 0
 3774              	@ 2368 ".\Generated_Source\PSoC5\CyLib.c" 1
 3775 001c 00BF     		NOP
 3776              	
 3777              	@ 0 "" 2
2369:.\Generated_Source\PSoC5/CyLib.c ****         CY_NOP;
 3778              		.loc 1 2369 0
 3779              	@ 2369 ".\Generated_Source\PSoC5\CyLib.c" 1
 3780 001e 00BF     		NOP
 3781              	
 3782              	@ 0 "" 2
2370:.\Generated_Source\PSoC5/CyLib.c ****         CY_NOP;
ARM GAS  C:\Users\karunmj\AppData\Local\Temp\cceFJIz4.s 			page 109


 3783              		.loc 1 2370 0
 3784              	@ 2370 ".\Generated_Source\PSoC5\CyLib.c" 1
 3785 0020 00BF     		NOP
 3786              	
 3787              	@ 0 "" 2
2371:.\Generated_Source\PSoC5/CyLib.c ****         CY_NOP;
 3788              		.loc 1 2371 0
 3789              	@ 2371 ".\Generated_Source\PSoC5\CyLib.c" 1
 3790 0022 00BF     		NOP
 3791              	
 3792              	@ 0 "" 2
2372:.\Generated_Source\PSoC5/CyLib.c ****         CY_NOP;
 3793              		.loc 1 2372 0
 3794              	@ 2372 ".\Generated_Source\PSoC5\CyLib.c" 1
 3795 0024 00BF     		NOP
 3796              	
 3797              	@ 0 "" 2
2373:.\Generated_Source\PSoC5/CyLib.c ****         CY_NOP;
 3798              		.loc 1 2373 0
 3799              	@ 2373 ".\Generated_Source\PSoC5\CyLib.c" 1
 3800 0026 00BF     		NOP
 3801              	
 3802              	@ 0 "" 2
2374:.\Generated_Source\PSoC5/CyLib.c ****         CY_NOP;
 3803              		.loc 1 2374 0
 3804              	@ 2374 ".\Generated_Source\PSoC5\CyLib.c" 1
 3805 0028 00BF     		NOP
 3806              	
 3807              	@ 0 "" 2
2375:.\Generated_Source\PSoC5/CyLib.c ****         CY_NOP;
 3808              		.loc 1 2375 0
 3809              	@ 2375 ".\Generated_Source\PSoC5\CyLib.c" 1
 3810 002a 00BF     		NOP
 3811              	
 3812              	@ 0 "" 2
2376:.\Generated_Source\PSoC5/CyLib.c ****         CY_NOP;
 3813              		.loc 1 2376 0
 3814              	@ 2376 ".\Generated_Source\PSoC5\CyLib.c" 1
 3815 002c 00BF     		NOP
 3816              	
 3817              	@ 0 "" 2
2377:.\Generated_Source\PSoC5/CyLib.c **** 
2378:.\Generated_Source\PSoC5/CyLib.c ****         /* All entries in the cache are invalidated on the next clock cycle. */
2379:.\Generated_Source\PSoC5/CyLib.c ****         CY_CACHE_CONTROL_REG |= CY_CACHE_CONTROL_FLUSH;
 3818              		.loc 1 2379 0
 3819              		.thumb
 3820 002e 44F60003 		movw	r3, #:lower16:1073760256
 3821 0032 C4F20003 		movt	r3, #:upper16:1073760256
 3822 0036 44F60002 		movw	r2, #:lower16:1073760256
 3823 003a C4F20002 		movt	r2, #:upper16:1073760256
 3824 003e 1288     		ldrh	r2, [r2, #0]	@ movhi
 3825 0040 92B2     		uxth	r2, r2
 3826 0042 42F00402 		orr	r2, r2, #4
 3827 0046 92B2     		uxth	r2, r2
 3828 0048 1A80     		strh	r2, [r3, #0]	@ movhi
2380:.\Generated_Source\PSoC5/CyLib.c **** 
2381:.\Generated_Source\PSoC5/CyLib.c **** 
ARM GAS  C:\Users\karunmj\AppData\Local\Temp\cceFJIz4.s 			page 110


2382:.\Generated_Source\PSoC5/CyLib.c ****         /***********************************************************************
2383:.\Generated_Source\PSoC5/CyLib.c ****         * The prefetch unit could/would be filled with the instructions that
2384:.\Generated_Source\PSoC5/CyLib.c ****         * succeed the flush. Since a flush is desired then theoretically those
2385:.\Generated_Source\PSoC5/CyLib.c ****         * instructions might be considered stale/invalid.
2386:.\Generated_Source\PSoC5/CyLib.c ****         ***********************************************************************/
2387:.\Generated_Source\PSoC5/CyLib.c ****         CY_NOP;
 3829              		.loc 1 2387 0
 3830              	@ 2387 ".\Generated_Source\PSoC5\CyLib.c" 1
 3831 004a 00BF     		NOP
 3832              	
 3833              	@ 0 "" 2
2388:.\Generated_Source\PSoC5/CyLib.c ****         CY_NOP;
 3834              		.loc 1 2388 0
 3835              	@ 2388 ".\Generated_Source\PSoC5\CyLib.c" 1
 3836 004c 00BF     		NOP
 3837              	
 3838              	@ 0 "" 2
2389:.\Generated_Source\PSoC5/CyLib.c ****         CY_NOP;
 3839              		.loc 1 2389 0
 3840              	@ 2389 ".\Generated_Source\PSoC5\CyLib.c" 1
 3841 004e 00BF     		NOP
 3842              	
 3843              	@ 0 "" 2
2390:.\Generated_Source\PSoC5/CyLib.c ****         CY_NOP;
 3844              		.loc 1 2390 0
 3845              	@ 2390 ".\Generated_Source\PSoC5\CyLib.c" 1
 3846 0050 00BF     		NOP
 3847              	
 3848              	@ 0 "" 2
2391:.\Generated_Source\PSoC5/CyLib.c ****         CY_NOP;
 3849              		.loc 1 2391 0
 3850              	@ 2391 ".\Generated_Source\PSoC5\CyLib.c" 1
 3851 0052 00BF     		NOP
 3852              	
 3853              	@ 0 "" 2
2392:.\Generated_Source\PSoC5/CyLib.c ****         CY_NOP;
 3854              		.loc 1 2392 0
 3855              	@ 2392 ".\Generated_Source\PSoC5\CyLib.c" 1
 3856 0054 00BF     		NOP
 3857              	
 3858              	@ 0 "" 2
2393:.\Generated_Source\PSoC5/CyLib.c ****         CY_NOP;
 3859              		.loc 1 2393 0
 3860              	@ 2393 ".\Generated_Source\PSoC5\CyLib.c" 1
 3861 0056 00BF     		NOP
 3862              	
 3863              	@ 0 "" 2
2394:.\Generated_Source\PSoC5/CyLib.c ****         CY_NOP;
 3864              		.loc 1 2394 0
 3865              	@ 2394 ".\Generated_Source\PSoC5\CyLib.c" 1
 3866 0058 00BF     		NOP
 3867              	
 3868              	@ 0 "" 2
2395:.\Generated_Source\PSoC5/CyLib.c ****         CY_NOP;
 3869              		.loc 1 2395 0
 3870              	@ 2395 ".\Generated_Source\PSoC5\CyLib.c" 1
 3871 005a 00BF     		NOP
ARM GAS  C:\Users\karunmj\AppData\Local\Temp\cceFJIz4.s 			page 111


 3872              	
 3873              	@ 0 "" 2
2396:.\Generated_Source\PSoC5/CyLib.c ****         CY_NOP;
 3874              		.loc 1 2396 0
 3875              	@ 2396 ".\Generated_Source\PSoC5\CyLib.c" 1
 3876 005c 00BF     		NOP
 3877              	
 3878              	@ 0 "" 2
2397:.\Generated_Source\PSoC5/CyLib.c ****         CY_NOP;
 3879              		.loc 1 2397 0
 3880              	@ 2397 ".\Generated_Source\PSoC5\CyLib.c" 1
 3881 005e 00BF     		NOP
 3882              	
 3883              	@ 0 "" 2
2398:.\Generated_Source\PSoC5/CyLib.c ****         CY_NOP;
 3884              		.loc 1 2398 0
 3885              	@ 2398 ".\Generated_Source\PSoC5\CyLib.c" 1
 3886 0060 00BF     		NOP
 3887              	
 3888              	@ 0 "" 2
2399:.\Generated_Source\PSoC5/CyLib.c ****         CY_NOP;
 3889              		.loc 1 2399 0
 3890              	@ 2399 ".\Generated_Source\PSoC5\CyLib.c" 1
 3891 0062 00BF     		NOP
 3892              	
 3893              	@ 0 "" 2
2400:.\Generated_Source\PSoC5/CyLib.c ****         CY_NOP;
 3894              		.loc 1 2400 0
 3895              	@ 2400 ".\Generated_Source\PSoC5\CyLib.c" 1
 3896 0064 00BF     		NOP
 3897              	
 3898              	@ 0 "" 2
2401:.\Generated_Source\PSoC5/CyLib.c ****         CY_NOP;
 3899              		.loc 1 2401 0
 3900              	@ 2401 ".\Generated_Source\PSoC5\CyLib.c" 1
 3901 0066 00BF     		NOP
 3902              	
 3903              	@ 0 "" 2
2402:.\Generated_Source\PSoC5/CyLib.c ****         CY_NOP;
 3904              		.loc 1 2402 0
 3905              	@ 2402 ".\Generated_Source\PSoC5\CyLib.c" 1
 3906 0068 00BF     		NOP
 3907              	
 3908              	@ 0 "" 2
2403:.\Generated_Source\PSoC5/CyLib.c **** 
2404:.\Generated_Source\PSoC5/CyLib.c ****         /* Restore global interrupt enable state */
2405:.\Generated_Source\PSoC5/CyLib.c ****         CyExitCriticalSection(interruptState);
 3909              		.loc 1 2405 0
 3910              		.thumb
 3911 006a FB79     		ldrb	r3, [r7, #7]	@ zero_extendqisi2
 3912 006c 1846     		mov	r0, r3
 3913 006e FFF7FEFF 		bl	CyExitCriticalSection
2406:.\Generated_Source\PSoC5/CyLib.c ****     }
 3914              		.loc 1 2406 0
 3915 0072 07F10807 		add	r7, r7, #8
 3916 0076 BD46     		mov	sp, r7
 3917 0078 80BD     		pop	{r7, pc}
ARM GAS  C:\Users\karunmj\AppData\Local\Temp\cceFJIz4.s 			page 112


 3918              		.cfi_endproc
 3919              	.LFE56:
 3920              		.size	CyFlushCache, .-CyFlushCache
 3921 007a 00BF     		.section	.text.CyIntSetSysVector,"ax",%progbits
 3922              		.align	2
 3923              		.global	CyIntSetSysVector
 3924              		.thumb
 3925              		.thumb_func
 3926              		.type	CyIntSetSysVector, %function
 3927              	CyIntSetSysVector:
 3928              	.LFB57:
2407:.\Generated_Source\PSoC5/CyLib.c **** 
2408:.\Generated_Source\PSoC5/CyLib.c **** 
2409:.\Generated_Source\PSoC5/CyLib.c ****     /*******************************************************************************
2410:.\Generated_Source\PSoC5/CyLib.c ****     * Function Name: CyIntSetSysVector
2411:.\Generated_Source\PSoC5/CyLib.c ****     ********************************************************************************
2412:.\Generated_Source\PSoC5/CyLib.c ****     * Summary:
2413:.\Generated_Source\PSoC5/CyLib.c ****     *  Sets the interrupt vector of the specified system interrupt number. System
2414:.\Generated_Source\PSoC5/CyLib.c ****     *  interrupts are present only for the ARM platform. These interrupts are for
2415:.\Generated_Source\PSoC5/CyLib.c ****     *  SysTick, PendSV and others.
2416:.\Generated_Source\PSoC5/CyLib.c ****     *
2417:.\Generated_Source\PSoC5/CyLib.c ****     * Parameters:
2418:.\Generated_Source\PSoC5/CyLib.c ****     *  number: Interrupt number, valid range [0-15].
2419:.\Generated_Source\PSoC5/CyLib.c ****        address: Pointer to an interrupt service routine.
2420:.\Generated_Source\PSoC5/CyLib.c ****     *
2421:.\Generated_Source\PSoC5/CyLib.c ****     * Return:
2422:.\Generated_Source\PSoC5/CyLib.c ****     *   The old ISR vector at this location.
2423:.\Generated_Source\PSoC5/CyLib.c ****     *
2424:.\Generated_Source\PSoC5/CyLib.c ****     *******************************************************************************/
2425:.\Generated_Source\PSoC5/CyLib.c ****     cyisraddress CyIntSetSysVector(uint8 number, cyisraddress address)
2426:.\Generated_Source\PSoC5/CyLib.c ****     {
 3929              		.loc 1 2426 0
 3930              		.cfi_startproc
 3931              		@ args = 0, pretend = 0, frame = 16
 3932              		@ frame_needed = 1, uses_anonymous_args = 0
 3933 0000 80B5     		push	{r7, lr}
 3934              	.LCFI147:
 3935              		.cfi_def_cfa_offset 8
 3936 0002 84B0     		sub	sp, sp, #16
 3937              	.LCFI148:
 3938              		.cfi_def_cfa_offset 24
 3939 0004 00AF     		add	r7, sp, #0
 3940              		.cfi_offset 14, -4
 3941              		.cfi_offset 7, -8
 3942              	.LCFI149:
 3943              		.cfi_def_cfa_register 7
 3944 0006 0346     		mov	r3, r0
 3945 0008 3960     		str	r1, [r7, #0]
 3946 000a FB71     		strb	r3, [r7, #7]
2427:.\Generated_Source\PSoC5/CyLib.c ****         cyisraddress oldIsr;
2428:.\Generated_Source\PSoC5/CyLib.c ****         cyisraddress *ramVectorTable = *CY_INT_VECT_TABLE;
 3947              		.loc 1 2428 0
 3948 000c 4EF60853 		movw	r3, #:lower16:-536810232
 3949 0010 CEF20003 		movt	r3, #:upper16:-536810232
 3950 0014 1B68     		ldr	r3, [r3, #0]
 3951 0016 FB60     		str	r3, [r7, #12]
2429:.\Generated_Source\PSoC5/CyLib.c **** 
ARM GAS  C:\Users\karunmj\AppData\Local\Temp\cceFJIz4.s 			page 113


2430:.\Generated_Source\PSoC5/CyLib.c ****         CYASSERT(number <= CY_INT_SYS_NUMBER_MAX);
 3952              		.loc 1 2430 0
 3953 0018 FB79     		ldrb	r3, [r7, #7]	@ zero_extendqisi2
 3954 001a 0F2B     		cmp	r3, #15
 3955 001c 03D9     		bls	.L215
 3956 001e 4FF00000 		mov	r0, #0
 3957 0022 FFF7FEFF 		bl	CyHalt
 3958              	.L215:
2431:.\Generated_Source\PSoC5/CyLib.c **** 
2432:.\Generated_Source\PSoC5/CyLib.c ****         /* Save old Interrupt service routine. */
2433:.\Generated_Source\PSoC5/CyLib.c ****         oldIsr = ramVectorTable[number & CY_INT_SYS_NUMBER_MASK];
 3959              		.loc 1 2433 0
 3960 0026 FB79     		ldrb	r3, [r7, #7]	@ zero_extendqisi2
 3961 0028 03F00F03 		and	r3, r3, #15
 3962 002c 4FEA8302 		lsl	r2, r3, #2
 3963 0030 FB68     		ldr	r3, [r7, #12]
 3964 0032 1344     		add	r3, r2, r3
 3965 0034 1B68     		ldr	r3, [r3, #0]
 3966 0036 BB60     		str	r3, [r7, #8]
2434:.\Generated_Source\PSoC5/CyLib.c **** 
2435:.\Generated_Source\PSoC5/CyLib.c ****         /* Set new Interrupt service routine. */
2436:.\Generated_Source\PSoC5/CyLib.c ****         ramVectorTable[number & CY_INT_SYS_NUMBER_MASK] = address;
 3967              		.loc 1 2436 0
 3968 0038 FB79     		ldrb	r3, [r7, #7]	@ zero_extendqisi2
 3969 003a 03F00F03 		and	r3, r3, #15
 3970 003e 4FEA8302 		lsl	r2, r3, #2
 3971 0042 FB68     		ldr	r3, [r7, #12]
 3972 0044 1344     		add	r3, r2, r3
 3973 0046 3A68     		ldr	r2, [r7, #0]
 3974 0048 1A60     		str	r2, [r3, #0]
2437:.\Generated_Source\PSoC5/CyLib.c **** 
2438:.\Generated_Source\PSoC5/CyLib.c ****         return (oldIsr);
 3975              		.loc 1 2438 0
 3976 004a BB68     		ldr	r3, [r7, #8]
2439:.\Generated_Source\PSoC5/CyLib.c ****     }
 3977              		.loc 1 2439 0
 3978 004c 1846     		mov	r0, r3
 3979 004e 07F11007 		add	r7, r7, #16
 3980 0052 BD46     		mov	sp, r7
 3981 0054 80BD     		pop	{r7, pc}
 3982              		.cfi_endproc
 3983              	.LFE57:
 3984              		.size	CyIntSetSysVector, .-CyIntSetSysVector
 3985 0056 00BF     		.section	.text.CyIntGetSysVector,"ax",%progbits
 3986              		.align	2
 3987              		.global	CyIntGetSysVector
 3988              		.thumb
 3989              		.thumb_func
 3990              		.type	CyIntGetSysVector, %function
 3991              	CyIntGetSysVector:
 3992              	.LFB58:
2440:.\Generated_Source\PSoC5/CyLib.c **** 
2441:.\Generated_Source\PSoC5/CyLib.c **** 
2442:.\Generated_Source\PSoC5/CyLib.c ****     /*******************************************************************************
2443:.\Generated_Source\PSoC5/CyLib.c ****     * Function Name: CyIntGetSysVector
2444:.\Generated_Source\PSoC5/CyLib.c ****     ********************************************************************************
2445:.\Generated_Source\PSoC5/CyLib.c ****     *
ARM GAS  C:\Users\karunmj\AppData\Local\Temp\cceFJIz4.s 			page 114


2446:.\Generated_Source\PSoC5/CyLib.c ****     * Summary:
2447:.\Generated_Source\PSoC5/CyLib.c ****     *  Gets the interrupt vector of the specified system interrupt number. System
2448:.\Generated_Source\PSoC5/CyLib.c ****     *  interrupts are present only for the ARM platform. These interrupts are for
2449:.\Generated_Source\PSoC5/CyLib.c ****     *  SysTick, PendSV and others.
2450:.\Generated_Source\PSoC5/CyLib.c ****     *
2451:.\Generated_Source\PSoC5/CyLib.c ****     * Parameters:
2452:.\Generated_Source\PSoC5/CyLib.c ****     *   number: The interrupt number, valid range [0-15].
2453:.\Generated_Source\PSoC5/CyLib.c ****     *
2454:.\Generated_Source\PSoC5/CyLib.c ****     * Return:
2455:.\Generated_Source\PSoC5/CyLib.c ****     *   Address of the ISR in the interrupt vector table.
2456:.\Generated_Source\PSoC5/CyLib.c ****     *
2457:.\Generated_Source\PSoC5/CyLib.c ****     *******************************************************************************/
2458:.\Generated_Source\PSoC5/CyLib.c ****     cyisraddress CyIntGetSysVector(uint8 number)
2459:.\Generated_Source\PSoC5/CyLib.c ****     {
 3993              		.loc 1 2459 0
 3994              		.cfi_startproc
 3995              		@ args = 0, pretend = 0, frame = 16
 3996              		@ frame_needed = 1, uses_anonymous_args = 0
 3997 0000 80B5     		push	{r7, lr}
 3998              	.LCFI150:
 3999              		.cfi_def_cfa_offset 8
 4000 0002 84B0     		sub	sp, sp, #16
 4001              	.LCFI151:
 4002              		.cfi_def_cfa_offset 24
 4003 0004 00AF     		add	r7, sp, #0
 4004              		.cfi_offset 14, -4
 4005              		.cfi_offset 7, -8
 4006              	.LCFI152:
 4007              		.cfi_def_cfa_register 7
 4008 0006 0346     		mov	r3, r0
 4009 0008 FB71     		strb	r3, [r7, #7]
2460:.\Generated_Source\PSoC5/CyLib.c ****         cyisraddress *ramVectorTable = *CY_INT_VECT_TABLE;
 4010              		.loc 1 2460 0
 4011 000a 4EF60853 		movw	r3, #:lower16:-536810232
 4012 000e CEF20003 		movt	r3, #:upper16:-536810232
 4013 0012 1B68     		ldr	r3, [r3, #0]
 4014 0014 FB60     		str	r3, [r7, #12]
2461:.\Generated_Source\PSoC5/CyLib.c ****         CYASSERT(number <= CY_INT_SYS_NUMBER_MAX);
 4015              		.loc 1 2461 0
 4016 0016 FB79     		ldrb	r3, [r7, #7]	@ zero_extendqisi2
 4017 0018 0F2B     		cmp	r3, #15
 4018 001a 03D9     		bls	.L218
 4019 001c 4FF00000 		mov	r0, #0
 4020 0020 FFF7FEFF 		bl	CyHalt
 4021              	.L218:
2462:.\Generated_Source\PSoC5/CyLib.c **** 
2463:.\Generated_Source\PSoC5/CyLib.c ****         return ramVectorTable[number & CY_INT_SYS_NUMBER_MASK];
 4022              		.loc 1 2463 0
 4023 0024 FB79     		ldrb	r3, [r7, #7]	@ zero_extendqisi2
 4024 0026 03F00F03 		and	r3, r3, #15
 4025 002a 4FEA8302 		lsl	r2, r3, #2
 4026 002e FB68     		ldr	r3, [r7, #12]
 4027 0030 1344     		add	r3, r2, r3
 4028 0032 1B68     		ldr	r3, [r3, #0]
2464:.\Generated_Source\PSoC5/CyLib.c ****     }
 4029              		.loc 1 2464 0
 4030 0034 1846     		mov	r0, r3
ARM GAS  C:\Users\karunmj\AppData\Local\Temp\cceFJIz4.s 			page 115


 4031 0036 07F11007 		add	r7, r7, #16
 4032 003a BD46     		mov	sp, r7
 4033 003c 80BD     		pop	{r7, pc}
 4034              		.cfi_endproc
 4035              	.LFE58:
 4036              		.size	CyIntGetSysVector, .-CyIntGetSysVector
 4037 003e 00BF     		.section	.text.CyIntSetVector,"ax",%progbits
 4038              		.align	2
 4039              		.global	CyIntSetVector
 4040              		.thumb
 4041              		.thumb_func
 4042              		.type	CyIntSetVector, %function
 4043              	CyIntSetVector:
 4044              	.LFB59:
2465:.\Generated_Source\PSoC5/CyLib.c **** 
2466:.\Generated_Source\PSoC5/CyLib.c **** 
2467:.\Generated_Source\PSoC5/CyLib.c ****     /*******************************************************************************
2468:.\Generated_Source\PSoC5/CyLib.c ****     * Function Name: CyIntSetVector
2469:.\Generated_Source\PSoC5/CyLib.c ****     ********************************************************************************
2470:.\Generated_Source\PSoC5/CyLib.c ****     *
2471:.\Generated_Source\PSoC5/CyLib.c ****     * Summary:
2472:.\Generated_Source\PSoC5/CyLib.c ****     *  Sets the interrupt vector of the specified interrupt number.
2473:.\Generated_Source\PSoC5/CyLib.c ****     *
2474:.\Generated_Source\PSoC5/CyLib.c ****     * Parameters:
2475:.\Generated_Source\PSoC5/CyLib.c ****     *  number: Valid range [0-31].  Interrupt number
2476:.\Generated_Source\PSoC5/CyLib.c ****     *  address: Pointer to an interrupt service routine
2477:.\Generated_Source\PSoC5/CyLib.c ****     *
2478:.\Generated_Source\PSoC5/CyLib.c ****     * Return:
2479:.\Generated_Source\PSoC5/CyLib.c ****     *   Previous interrupt vector value.
2480:.\Generated_Source\PSoC5/CyLib.c ****     *
2481:.\Generated_Source\PSoC5/CyLib.c ****     *******************************************************************************/
2482:.\Generated_Source\PSoC5/CyLib.c ****     cyisraddress CyIntSetVector(uint8 number, cyisraddress address)
2483:.\Generated_Source\PSoC5/CyLib.c ****     {
 4045              		.loc 1 2483 0
 4046              		.cfi_startproc
 4047              		@ args = 0, pretend = 0, frame = 16
 4048              		@ frame_needed = 1, uses_anonymous_args = 0
 4049 0000 80B5     		push	{r7, lr}
 4050              	.LCFI153:
 4051              		.cfi_def_cfa_offset 8
 4052 0002 84B0     		sub	sp, sp, #16
 4053              	.LCFI154:
 4054              		.cfi_def_cfa_offset 24
 4055 0004 00AF     		add	r7, sp, #0
 4056              		.cfi_offset 14, -4
 4057              		.cfi_offset 7, -8
 4058              	.LCFI155:
 4059              		.cfi_def_cfa_register 7
 4060 0006 0346     		mov	r3, r0
 4061 0008 3960     		str	r1, [r7, #0]
 4062 000a FB71     		strb	r3, [r7, #7]
2484:.\Generated_Source\PSoC5/CyLib.c ****         cyisraddress oldIsr;
2485:.\Generated_Source\PSoC5/CyLib.c ****         cyisraddress *ramVectorTable = *CY_INT_VECT_TABLE;
 4063              		.loc 1 2485 0
 4064 000c 4EF60853 		movw	r3, #:lower16:-536810232
 4065 0010 CEF20003 		movt	r3, #:upper16:-536810232
 4066 0014 1B68     		ldr	r3, [r3, #0]
ARM GAS  C:\Users\karunmj\AppData\Local\Temp\cceFJIz4.s 			page 116


 4067 0016 FB60     		str	r3, [r7, #12]
2486:.\Generated_Source\PSoC5/CyLib.c **** 
2487:.\Generated_Source\PSoC5/CyLib.c ****         CYASSERT(number <= CY_INT_NUMBER_MAX);
 4068              		.loc 1 2487 0
 4069 0018 FB79     		ldrb	r3, [r7, #7]	@ zero_extendqisi2
 4070 001a 1F2B     		cmp	r3, #31
 4071 001c 03D9     		bls	.L221
 4072 001e 4FF00000 		mov	r0, #0
 4073 0022 FFF7FEFF 		bl	CyHalt
 4074              	.L221:
2488:.\Generated_Source\PSoC5/CyLib.c **** 
2489:.\Generated_Source\PSoC5/CyLib.c ****         /* Save old Interrupt service routine. */
2490:.\Generated_Source\PSoC5/CyLib.c ****         oldIsr = ramVectorTable[CY_INT_IRQ_BASE + (number & CY_INT_NUMBER_MASK)];
 4075              		.loc 1 2490 0
 4076 0026 FB79     		ldrb	r3, [r7, #7]	@ zero_extendqisi2
 4077 0028 03F01F03 		and	r3, r3, #31
 4078 002c 03F11003 		add	r3, r3, #16
 4079 0030 4FEA8302 		lsl	r2, r3, #2
 4080 0034 FB68     		ldr	r3, [r7, #12]
 4081 0036 1344     		add	r3, r2, r3
 4082 0038 1B68     		ldr	r3, [r3, #0]
 4083 003a BB60     		str	r3, [r7, #8]
2491:.\Generated_Source\PSoC5/CyLib.c **** 
2492:.\Generated_Source\PSoC5/CyLib.c ****         /* Set new Interrupt service routine. */
2493:.\Generated_Source\PSoC5/CyLib.c ****         ramVectorTable[CY_INT_IRQ_BASE + (number & CY_INT_NUMBER_MASK)] = address;
 4084              		.loc 1 2493 0
 4085 003c FB79     		ldrb	r3, [r7, #7]	@ zero_extendqisi2
 4086 003e 03F01F03 		and	r3, r3, #31
 4087 0042 03F11003 		add	r3, r3, #16
 4088 0046 4FEA8302 		lsl	r2, r3, #2
 4089 004a FB68     		ldr	r3, [r7, #12]
 4090 004c 1344     		add	r3, r2, r3
 4091 004e 3A68     		ldr	r2, [r7, #0]
 4092 0050 1A60     		str	r2, [r3, #0]
2494:.\Generated_Source\PSoC5/CyLib.c **** 
2495:.\Generated_Source\PSoC5/CyLib.c ****         return (oldIsr);
 4093              		.loc 1 2495 0
 4094 0052 BB68     		ldr	r3, [r7, #8]
2496:.\Generated_Source\PSoC5/CyLib.c ****     }
 4095              		.loc 1 2496 0
 4096 0054 1846     		mov	r0, r3
 4097 0056 07F11007 		add	r7, r7, #16
 4098 005a BD46     		mov	sp, r7
 4099 005c 80BD     		pop	{r7, pc}
 4100              		.cfi_endproc
 4101              	.LFE59:
 4102              		.size	CyIntSetVector, .-CyIntSetVector
 4103 005e 00BF     		.section	.text.CyIntGetVector,"ax",%progbits
 4104              		.align	2
 4105              		.global	CyIntGetVector
 4106              		.thumb
 4107              		.thumb_func
 4108              		.type	CyIntGetVector, %function
 4109              	CyIntGetVector:
 4110              	.LFB60:
2497:.\Generated_Source\PSoC5/CyLib.c **** 
2498:.\Generated_Source\PSoC5/CyLib.c **** 
ARM GAS  C:\Users\karunmj\AppData\Local\Temp\cceFJIz4.s 			page 117


2499:.\Generated_Source\PSoC5/CyLib.c ****     /*******************************************************************************
2500:.\Generated_Source\PSoC5/CyLib.c ****     * Function Name: CyIntGetVector
2501:.\Generated_Source\PSoC5/CyLib.c ****     ********************************************************************************
2502:.\Generated_Source\PSoC5/CyLib.c ****     *
2503:.\Generated_Source\PSoC5/CyLib.c ****     * Summary:
2504:.\Generated_Source\PSoC5/CyLib.c ****     *  Gets the interrupt vector of the specified interrupt number.
2505:.\Generated_Source\PSoC5/CyLib.c ****     *
2506:.\Generated_Source\PSoC5/CyLib.c ****     * Parameters:
2507:.\Generated_Source\PSoC5/CyLib.c ****     *  number: Valid range [0-31].  Interrupt number
2508:.\Generated_Source\PSoC5/CyLib.c ****     *
2509:.\Generated_Source\PSoC5/CyLib.c ****     * Return:
2510:.\Generated_Source\PSoC5/CyLib.c ****     *  Address of the ISR in the interrupt vector table.
2511:.\Generated_Source\PSoC5/CyLib.c ****     *
2512:.\Generated_Source\PSoC5/CyLib.c ****     *******************************************************************************/
2513:.\Generated_Source\PSoC5/CyLib.c ****     cyisraddress CyIntGetVector(uint8 number)
2514:.\Generated_Source\PSoC5/CyLib.c ****     {
 4111              		.loc 1 2514 0
 4112              		.cfi_startproc
 4113              		@ args = 0, pretend = 0, frame = 16
 4114              		@ frame_needed = 1, uses_anonymous_args = 0
 4115 0000 80B5     		push	{r7, lr}
 4116              	.LCFI156:
 4117              		.cfi_def_cfa_offset 8
 4118 0002 84B0     		sub	sp, sp, #16
 4119              	.LCFI157:
 4120              		.cfi_def_cfa_offset 24
 4121 0004 00AF     		add	r7, sp, #0
 4122              		.cfi_offset 14, -4
 4123              		.cfi_offset 7, -8
 4124              	.LCFI158:
 4125              		.cfi_def_cfa_register 7
 4126 0006 0346     		mov	r3, r0
 4127 0008 FB71     		strb	r3, [r7, #7]
2515:.\Generated_Source\PSoC5/CyLib.c ****         cyisraddress *ramVectorTable = *CY_INT_VECT_TABLE;
 4128              		.loc 1 2515 0
 4129 000a 4EF60853 		movw	r3, #:lower16:-536810232
 4130 000e CEF20003 		movt	r3, #:upper16:-536810232
 4131 0012 1B68     		ldr	r3, [r3, #0]
 4132 0014 FB60     		str	r3, [r7, #12]
2516:.\Generated_Source\PSoC5/CyLib.c ****         CYASSERT(number <= CY_INT_NUMBER_MAX);
 4133              		.loc 1 2516 0
 4134 0016 FB79     		ldrb	r3, [r7, #7]	@ zero_extendqisi2
 4135 0018 1F2B     		cmp	r3, #31
 4136 001a 03D9     		bls	.L224
 4137 001c 4FF00000 		mov	r0, #0
 4138 0020 FFF7FEFF 		bl	CyHalt
 4139              	.L224:
2517:.\Generated_Source\PSoC5/CyLib.c **** 
2518:.\Generated_Source\PSoC5/CyLib.c ****         return (ramVectorTable[CY_INT_IRQ_BASE + (number & CY_INT_NUMBER_MASK)]);
 4140              		.loc 1 2518 0
 4141 0024 FB79     		ldrb	r3, [r7, #7]	@ zero_extendqisi2
 4142 0026 03F01F03 		and	r3, r3, #31
 4143 002a 03F11003 		add	r3, r3, #16
 4144 002e 4FEA8302 		lsl	r2, r3, #2
 4145 0032 FB68     		ldr	r3, [r7, #12]
 4146 0034 1344     		add	r3, r2, r3
 4147 0036 1B68     		ldr	r3, [r3, #0]
ARM GAS  C:\Users\karunmj\AppData\Local\Temp\cceFJIz4.s 			page 118


2519:.\Generated_Source\PSoC5/CyLib.c ****     }
 4148              		.loc 1 2519 0
 4149 0038 1846     		mov	r0, r3
 4150 003a 07F11007 		add	r7, r7, #16
 4151 003e BD46     		mov	sp, r7
 4152 0040 80BD     		pop	{r7, pc}
 4153              		.cfi_endproc
 4154              	.LFE60:
 4155              		.size	CyIntGetVector, .-CyIntGetVector
 4156 0042 00BF     		.section	.text.CyIntSetPriority,"ax",%progbits
 4157              		.align	2
 4158              		.global	CyIntSetPriority
 4159              		.thumb
 4160              		.thumb_func
 4161              		.type	CyIntSetPriority, %function
 4162              	CyIntSetPriority:
 4163              	.LFB61:
2520:.\Generated_Source\PSoC5/CyLib.c **** 
2521:.\Generated_Source\PSoC5/CyLib.c **** 
2522:.\Generated_Source\PSoC5/CyLib.c ****     /*******************************************************************************
2523:.\Generated_Source\PSoC5/CyLib.c ****     * Function Name: CyIntSetPriority
2524:.\Generated_Source\PSoC5/CyLib.c ****     ********************************************************************************
2525:.\Generated_Source\PSoC5/CyLib.c ****     *
2526:.\Generated_Source\PSoC5/CyLib.c ****     * Summary:
2527:.\Generated_Source\PSoC5/CyLib.c ****     *  Sets the Priority of the Interrupt.
2528:.\Generated_Source\PSoC5/CyLib.c ****     *
2529:.\Generated_Source\PSoC5/CyLib.c ****     * Parameters:
2530:.\Generated_Source\PSoC5/CyLib.c ****     *  priority: Priority of the interrupt. 0 - 7, 0 being the highest.
2531:.\Generated_Source\PSoC5/CyLib.c ****     *  number: The number of the interrupt, 0 - 31.
2532:.\Generated_Source\PSoC5/CyLib.c ****     *
2533:.\Generated_Source\PSoC5/CyLib.c ****     * Return:
2534:.\Generated_Source\PSoC5/CyLib.c ****     *  None
2535:.\Generated_Source\PSoC5/CyLib.c ****     *
2536:.\Generated_Source\PSoC5/CyLib.c ****     *******************************************************************************/
2537:.\Generated_Source\PSoC5/CyLib.c ****     void CyIntSetPriority(uint8 number, uint8 priority)
2538:.\Generated_Source\PSoC5/CyLib.c ****     {
 4164              		.loc 1 2538 0
 4165              		.cfi_startproc
 4166              		@ args = 0, pretend = 0, frame = 8
 4167              		@ frame_needed = 1, uses_anonymous_args = 0
 4168 0000 80B5     		push	{r7, lr}
 4169              	.LCFI159:
 4170              		.cfi_def_cfa_offset 8
 4171 0002 82B0     		sub	sp, sp, #8
 4172              	.LCFI160:
 4173              		.cfi_def_cfa_offset 16
 4174 0004 00AF     		add	r7, sp, #0
 4175              		.cfi_offset 14, -4
 4176              		.cfi_offset 7, -8
 4177              	.LCFI161:
 4178              		.cfi_def_cfa_register 7
 4179 0006 0246     		mov	r2, r0
 4180 0008 0B46     		mov	r3, r1
 4181 000a FA71     		strb	r2, [r7, #7]
 4182 000c BB71     		strb	r3, [r7, #6]
2539:.\Generated_Source\PSoC5/CyLib.c ****         CYASSERT(priority <= CY_INT_PRIORITY_MAX);
 4183              		.loc 1 2539 0
ARM GAS  C:\Users\karunmj\AppData\Local\Temp\cceFJIz4.s 			page 119


 4184 000e BB79     		ldrb	r3, [r7, #6]	@ zero_extendqisi2
 4185 0010 072B     		cmp	r3, #7
 4186 0012 03D9     		bls	.L227
 4187 0014 4FF00000 		mov	r0, #0
 4188 0018 FFF7FEFF 		bl	CyHalt
 4189              	.L227:
2540:.\Generated_Source\PSoC5/CyLib.c ****         CYASSERT(number <= CY_INT_NUMBER_MAX);
 4190              		.loc 1 2540 0
 4191 001c FB79     		ldrb	r3, [r7, #7]	@ zero_extendqisi2
 4192 001e 1F2B     		cmp	r3, #31
 4193 0020 03D9     		bls	.L228
 4194 0022 4FF00000 		mov	r0, #0
 4195 0026 FFF7FEFF 		bl	CyHalt
 4196              	.L228:
2541:.\Generated_Source\PSoC5/CyLib.c ****         CY_INT_PRIORITY_PTR[number & CY_INT_NUMBER_MASK] = (priority & CY_INT_PRIORITY_MASK)<< 5;
 4197              		.loc 1 2541 0
 4198 002a FB79     		ldrb	r3, [r7, #7]	@ zero_extendqisi2
 4199 002c 03F01F03 		and	r3, r3, #31
 4200 0030 03F16043 		add	r3, r3, #-536870912
 4201 0034 03F56443 		add	r3, r3, #58368
 4202 0038 BA79     		ldrb	r2, [r7, #6]
 4203 003a 4FEA4212 		lsl	r2, r2, #5
 4204 003e D2B2     		uxtb	r2, r2
 4205 0040 1A70     		strb	r2, [r3, #0]
2542:.\Generated_Source\PSoC5/CyLib.c ****     }
 4206              		.loc 1 2542 0
 4207 0042 07F10807 		add	r7, r7, #8
 4208 0046 BD46     		mov	sp, r7
 4209 0048 80BD     		pop	{r7, pc}
 4210              		.cfi_endproc
 4211              	.LFE61:
 4212              		.size	CyIntSetPriority, .-CyIntSetPriority
 4213 004a 00BF     		.section	.text.CyIntGetPriority,"ax",%progbits
 4214              		.align	2
 4215              		.global	CyIntGetPriority
 4216              		.thumb
 4217              		.thumb_func
 4218              		.type	CyIntGetPriority, %function
 4219              	CyIntGetPriority:
 4220              	.LFB62:
2543:.\Generated_Source\PSoC5/CyLib.c **** 
2544:.\Generated_Source\PSoC5/CyLib.c **** 
2545:.\Generated_Source\PSoC5/CyLib.c ****     /*******************************************************************************
2546:.\Generated_Source\PSoC5/CyLib.c ****     * Function Name: CyIntGetPriority
2547:.\Generated_Source\PSoC5/CyLib.c ****     ********************************************************************************
2548:.\Generated_Source\PSoC5/CyLib.c ****     *
2549:.\Generated_Source\PSoC5/CyLib.c ****     * Summary:
2550:.\Generated_Source\PSoC5/CyLib.c ****     *  Gets the Priority of the Interrupt.
2551:.\Generated_Source\PSoC5/CyLib.c ****     *
2552:.\Generated_Source\PSoC5/CyLib.c ****     * Parameters:
2553:.\Generated_Source\PSoC5/CyLib.c ****     *  number: The number of the interrupt, 0 - 31.
2554:.\Generated_Source\PSoC5/CyLib.c ****     *
2555:.\Generated_Source\PSoC5/CyLib.c ****     * Return:
2556:.\Generated_Source\PSoC5/CyLib.c ****     *  Priority of the interrupt. 0 - 7, 0 being the highest.
2557:.\Generated_Source\PSoC5/CyLib.c ****     *
2558:.\Generated_Source\PSoC5/CyLib.c ****     *******************************************************************************/
2559:.\Generated_Source\PSoC5/CyLib.c ****     uint8 CyIntGetPriority(uint8 number)
ARM GAS  C:\Users\karunmj\AppData\Local\Temp\cceFJIz4.s 			page 120


2560:.\Generated_Source\PSoC5/CyLib.c ****     {
 4221              		.loc 1 2560 0
 4222              		.cfi_startproc
 4223              		@ args = 0, pretend = 0, frame = 16
 4224              		@ frame_needed = 1, uses_anonymous_args = 0
 4225 0000 80B5     		push	{r7, lr}
 4226              	.LCFI162:
 4227              		.cfi_def_cfa_offset 8
 4228 0002 84B0     		sub	sp, sp, #16
 4229              	.LCFI163:
 4230              		.cfi_def_cfa_offset 24
 4231 0004 00AF     		add	r7, sp, #0
 4232              		.cfi_offset 14, -4
 4233              		.cfi_offset 7, -8
 4234              	.LCFI164:
 4235              		.cfi_def_cfa_register 7
 4236 0006 0346     		mov	r3, r0
 4237 0008 FB71     		strb	r3, [r7, #7]
2561:.\Generated_Source\PSoC5/CyLib.c ****         uint8 priority;
2562:.\Generated_Source\PSoC5/CyLib.c **** 
2563:.\Generated_Source\PSoC5/CyLib.c ****         CYASSERT(number <= CY_INT_NUMBER_MAX);
 4238              		.loc 1 2563 0
 4239 000a FB79     		ldrb	r3, [r7, #7]	@ zero_extendqisi2
 4240 000c 1F2B     		cmp	r3, #31
 4241 000e 03D9     		bls	.L231
 4242 0010 4FF00000 		mov	r0, #0
 4243 0014 FFF7FEFF 		bl	CyHalt
 4244              	.L231:
2564:.\Generated_Source\PSoC5/CyLib.c **** 
2565:.\Generated_Source\PSoC5/CyLib.c ****         priority = CY_INT_PRIORITY_PTR[number & CY_INT_NUMBER_MASK] >> 5;
 4245              		.loc 1 2565 0
 4246 0018 FB79     		ldrb	r3, [r7, #7]	@ zero_extendqisi2
 4247 001a 03F01F03 		and	r3, r3, #31
 4248 001e 03F16043 		add	r3, r3, #-536870912
 4249 0022 03F56443 		add	r3, r3, #58368
 4250 0026 1B78     		ldrb	r3, [r3, #0]
 4251 0028 DBB2     		uxtb	r3, r3
 4252 002a 4FEA5313 		lsr	r3, r3, #5
 4253 002e FB73     		strb	r3, [r7, #15]
2566:.\Generated_Source\PSoC5/CyLib.c **** 
2567:.\Generated_Source\PSoC5/CyLib.c ****         return (priority);
 4254              		.loc 1 2567 0
 4255 0030 FB7B     		ldrb	r3, [r7, #15]	@ zero_extendqisi2
2568:.\Generated_Source\PSoC5/CyLib.c ****     }
 4256              		.loc 1 2568 0
 4257 0032 1846     		mov	r0, r3
 4258 0034 07F11007 		add	r7, r7, #16
 4259 0038 BD46     		mov	sp, r7
 4260 003a 80BD     		pop	{r7, pc}
 4261              		.cfi_endproc
 4262              	.LFE62:
 4263              		.size	CyIntGetPriority, .-CyIntGetPriority
 4264              		.section	.text.CyIntGetState,"ax",%progbits
 4265              		.align	2
 4266              		.global	CyIntGetState
 4267              		.thumb
 4268              		.thumb_func
ARM GAS  C:\Users\karunmj\AppData\Local\Temp\cceFJIz4.s 			page 121


 4269              		.type	CyIntGetState, %function
 4270              	CyIntGetState:
 4271              	.LFB63:
2569:.\Generated_Source\PSoC5/CyLib.c **** 
2570:.\Generated_Source\PSoC5/CyLib.c **** 
2571:.\Generated_Source\PSoC5/CyLib.c ****     /*******************************************************************************
2572:.\Generated_Source\PSoC5/CyLib.c ****     * Function Name: CyIntGetState
2573:.\Generated_Source\PSoC5/CyLib.c ****     ********************************************************************************
2574:.\Generated_Source\PSoC5/CyLib.c ****     *
2575:.\Generated_Source\PSoC5/CyLib.c ****     * Summary:
2576:.\Generated_Source\PSoC5/CyLib.c ****     *   Gets the enable state of the specified interrupt number.
2577:.\Generated_Source\PSoC5/CyLib.c ****     *
2578:.\Generated_Source\PSoC5/CyLib.c ****     * Parameters:
2579:.\Generated_Source\PSoC5/CyLib.c ****     *   number: Valid range [0-31].  Interrupt number.
2580:.\Generated_Source\PSoC5/CyLib.c ****     *
2581:.\Generated_Source\PSoC5/CyLib.c ****     * Return:
2582:.\Generated_Source\PSoC5/CyLib.c ****     *   Enable status: 1 if enabled, 0 if disabled
2583:.\Generated_Source\PSoC5/CyLib.c ****     *
2584:.\Generated_Source\PSoC5/CyLib.c ****     *******************************************************************************/
2585:.\Generated_Source\PSoC5/CyLib.c ****     uint8 CyIntGetState(uint8 number)
2586:.\Generated_Source\PSoC5/CyLib.c ****     {
 4272              		.loc 1 2586 0
 4273              		.cfi_startproc
 4274              		@ args = 0, pretend = 0, frame = 16
 4275              		@ frame_needed = 1, uses_anonymous_args = 0
 4276 0000 80B5     		push	{r7, lr}
 4277              	.LCFI165:
 4278              		.cfi_def_cfa_offset 8
 4279 0002 84B0     		sub	sp, sp, #16
 4280              	.LCFI166:
 4281              		.cfi_def_cfa_offset 24
 4282 0004 00AF     		add	r7, sp, #0
 4283              		.cfi_offset 14, -4
 4284              		.cfi_offset 7, -8
 4285              	.LCFI167:
 4286              		.cfi_def_cfa_register 7
 4287 0006 0346     		mov	r3, r0
 4288 0008 FB71     		strb	r3, [r7, #7]
2587:.\Generated_Source\PSoC5/CyLib.c ****         reg32 * stateReg;
2588:.\Generated_Source\PSoC5/CyLib.c **** 
2589:.\Generated_Source\PSoC5/CyLib.c ****         CYASSERT(number <= CY_INT_NUMBER_MAX);
 4289              		.loc 1 2589 0
 4290 000a FB79     		ldrb	r3, [r7, #7]	@ zero_extendqisi2
 4291 000c 1F2B     		cmp	r3, #31
 4292 000e 03D9     		bls	.L234
 4293 0010 4FF00000 		mov	r0, #0
 4294 0014 FFF7FEFF 		bl	CyHalt
 4295              	.L234:
2590:.\Generated_Source\PSoC5/CyLib.c **** 
2591:.\Generated_Source\PSoC5/CyLib.c ****         /* Get a pointer to the Interrupt enable register. */
2592:.\Generated_Source\PSoC5/CyLib.c ****         stateReg = CY_INT_ENABLE_PTR;
 4296              		.loc 1 2592 0
 4297 0018 4EF20013 		movw	r3, #:lower16:-536813312
 4298 001c CEF20003 		movt	r3, #:upper16:-536813312
 4299 0020 FB60     		str	r3, [r7, #12]
2593:.\Generated_Source\PSoC5/CyLib.c **** 
2594:.\Generated_Source\PSoC5/CyLib.c ****         /* Get the state of the interrupt. */
ARM GAS  C:\Users\karunmj\AppData\Local\Temp\cceFJIz4.s 			page 122


2595:.\Generated_Source\PSoC5/CyLib.c ****         return (0u != (*stateReg & (((uint32) 1u) << (0x1Fu & number)))) ? ((uint8)(1u)) : ((uint8)
 4300              		.loc 1 2595 0
 4301 0022 FB68     		ldr	r3, [r7, #12]
 4302 0024 1A68     		ldr	r2, [r3, #0]
 4303 0026 FB79     		ldrb	r3, [r7, #7]	@ zero_extendqisi2
 4304 0028 03F01F03 		and	r3, r3, #31
 4305 002c 22FA03F3 		lsr	r3, r2, r3
 4306 0030 DBB2     		uxtb	r3, r3
 4307 0032 03F00103 		and	r3, r3, #1
2596:.\Generated_Source\PSoC5/CyLib.c ****     }
 4308              		.loc 1 2596 0
 4309 0036 1846     		mov	r0, r3
 4310 0038 07F11007 		add	r7, r7, #16
 4311 003c BD46     		mov	sp, r7
 4312 003e 80BD     		pop	{r7, pc}
 4313              		.cfi_endproc
 4314              	.LFE63:
 4315              		.size	CyIntGetState, .-CyIntGetState
 4316              		.text
 4317              	.Letext0:
 4318              		.section	.debug_loc,"",%progbits
 4319              	.Ldebug_loc0:
 4320              	.LLST0:
 4321 0000 00000000 		.4byte	.LFB0
 4322 0004 02000000 		.4byte	.LCFI0
 4323 0008 0100     		.2byte	0x1
 4324 000a 5D       		.byte	0x5d
 4325 000b 02000000 		.4byte	.LCFI0
 4326 000f 04000000 		.4byte	.LCFI1
 4327 0013 0200     		.2byte	0x2
 4328 0015 7D       		.byte	0x7d
 4329 0016 08       		.sleb128 8
 4330 0017 04000000 		.4byte	.LCFI1
 4331 001b 06000000 		.4byte	.LCFI2
 4332 001f 0200     		.2byte	0x2
 4333 0021 7D       		.byte	0x7d
 4334 0022 18       		.sleb128 24
 4335 0023 06000000 		.4byte	.LCFI2
 4336 0027 DA000000 		.4byte	.LFE0
 4337 002b 0200     		.2byte	0x2
 4338 002d 77       		.byte	0x77
 4339 002e 18       		.sleb128 24
 4340 002f 00000000 		.4byte	0x0
 4341 0033 00000000 		.4byte	0x0
 4342              	.LLST1:
 4343 0037 00000000 		.4byte	.LFB1
 4344 003b 02000000 		.4byte	.LCFI3
 4345 003f 0100     		.2byte	0x1
 4346 0041 5D       		.byte	0x5d
 4347 0042 02000000 		.4byte	.LCFI3
 4348 0046 04000000 		.4byte	.LCFI4
 4349 004a 0200     		.2byte	0x2
 4350 004c 7D       		.byte	0x7d
 4351 004d 04       		.sleb128 4
 4352 004e 04000000 		.4byte	.LCFI4
 4353 0052 24000000 		.4byte	.LFE1
 4354 0056 0200     		.2byte	0x2
ARM GAS  C:\Users\karunmj\AppData\Local\Temp\cceFJIz4.s 			page 123


 4355 0058 77       		.byte	0x77
 4356 0059 04       		.sleb128 4
 4357 005a 00000000 		.4byte	0x0
 4358 005e 00000000 		.4byte	0x0
 4359              	.LLST2:
 4360 0062 00000000 		.4byte	.LFB2
 4361 0066 02000000 		.4byte	.LCFI5
 4362 006a 0100     		.2byte	0x1
 4363 006c 5D       		.byte	0x5d
 4364 006d 02000000 		.4byte	.LCFI5
 4365 0071 04000000 		.4byte	.LCFI6
 4366 0075 0200     		.2byte	0x2
 4367 0077 7D       		.byte	0x7d
 4368 0078 08       		.sleb128 8
 4369 0079 04000000 		.4byte	.LCFI6
 4370 007d 06000000 		.4byte	.LCFI7
 4371 0081 0200     		.2byte	0x2
 4372 0083 7D       		.byte	0x7d
 4373 0084 10       		.sleb128 16
 4374 0085 06000000 		.4byte	.LCFI7
 4375 0089 AA000000 		.4byte	.LFE2
 4376 008d 0200     		.2byte	0x2
 4377 008f 77       		.byte	0x77
 4378 0090 10       		.sleb128 16
 4379 0091 00000000 		.4byte	0x0
 4380 0095 00000000 		.4byte	0x0
 4381              	.LLST3:
 4382 0099 00000000 		.4byte	.LFB3
 4383 009d 02000000 		.4byte	.LCFI8
 4384 00a1 0100     		.2byte	0x1
 4385 00a3 5D       		.byte	0x5d
 4386 00a4 02000000 		.4byte	.LCFI8
 4387 00a8 04000000 		.4byte	.LCFI9
 4388 00ac 0200     		.2byte	0x2
 4389 00ae 7D       		.byte	0x7d
 4390 00af 08       		.sleb128 8
 4391 00b0 04000000 		.4byte	.LCFI9
 4392 00b4 06000000 		.4byte	.LCFI10
 4393 00b8 0200     		.2byte	0x2
 4394 00ba 7D       		.byte	0x7d
 4395 00bb 10       		.sleb128 16
 4396 00bc 06000000 		.4byte	.LCFI10
 4397 00c0 64000000 		.4byte	.LFE3
 4398 00c4 0200     		.2byte	0x2
 4399 00c6 77       		.byte	0x77
 4400 00c7 10       		.sleb128 16
 4401 00c8 00000000 		.4byte	0x0
 4402 00cc 00000000 		.4byte	0x0
 4403              	.LLST4:
 4404 00d0 00000000 		.4byte	.LFB4
 4405 00d4 02000000 		.4byte	.LCFI11
 4406 00d8 0100     		.2byte	0x1
 4407 00da 5D       		.byte	0x5d
 4408 00db 02000000 		.4byte	.LCFI11
 4409 00df 04000000 		.4byte	.LCFI12
 4410 00e3 0200     		.2byte	0x2
 4411 00e5 7D       		.byte	0x7d
ARM GAS  C:\Users\karunmj\AppData\Local\Temp\cceFJIz4.s 			page 124


 4412 00e6 08       		.sleb128 8
 4413 00e7 04000000 		.4byte	.LCFI12
 4414 00eb 06000000 		.4byte	.LCFI13
 4415 00ef 0200     		.2byte	0x2
 4416 00f1 7D       		.byte	0x7d
 4417 00f2 18       		.sleb128 24
 4418 00f3 06000000 		.4byte	.LCFI13
 4419 00f7 D0000000 		.4byte	.LFE4
 4420 00fb 0200     		.2byte	0x2
 4421 00fd 77       		.byte	0x77
 4422 00fe 18       		.sleb128 24
 4423 00ff 00000000 		.4byte	0x0
 4424 0103 00000000 		.4byte	0x0
 4425              	.LLST5:
 4426 0107 00000000 		.4byte	.LFB5
 4427 010b 02000000 		.4byte	.LCFI14
 4428 010f 0100     		.2byte	0x1
 4429 0111 5D       		.byte	0x5d
 4430 0112 02000000 		.4byte	.LCFI14
 4431 0116 04000000 		.4byte	.LCFI15
 4432 011a 0200     		.2byte	0x2
 4433 011c 7D       		.byte	0x7d
 4434 011d 04       		.sleb128 4
 4435 011e 04000000 		.4byte	.LCFI15
 4436 0122 24000000 		.4byte	.LFE5
 4437 0126 0200     		.2byte	0x2
 4438 0128 77       		.byte	0x77
 4439 0129 04       		.sleb128 4
 4440 012a 00000000 		.4byte	0x0
 4441 012e 00000000 		.4byte	0x0
 4442              	.LLST6:
 4443 0132 00000000 		.4byte	.LFB6
 4444 0136 02000000 		.4byte	.LCFI16
 4445 013a 0100     		.2byte	0x1
 4446 013c 5D       		.byte	0x5d
 4447 013d 02000000 		.4byte	.LCFI16
 4448 0141 04000000 		.4byte	.LCFI17
 4449 0145 0200     		.2byte	0x2
 4450 0147 7D       		.byte	0x7d
 4451 0148 04       		.sleb128 4
 4452 0149 04000000 		.4byte	.LCFI17
 4453 014d 06000000 		.4byte	.LCFI18
 4454 0151 0200     		.2byte	0x2
 4455 0153 7D       		.byte	0x7d
 4456 0154 10       		.sleb128 16
 4457 0155 06000000 		.4byte	.LCFI18
 4458 0159 74000000 		.4byte	.LFE6
 4459 015d 0200     		.2byte	0x2
 4460 015f 77       		.byte	0x77
 4461 0160 10       		.sleb128 16
 4462 0161 00000000 		.4byte	0x0
 4463 0165 00000000 		.4byte	0x0
 4464              	.LLST7:
 4465 0169 00000000 		.4byte	.LFB7
 4466 016d 02000000 		.4byte	.LCFI19
 4467 0171 0100     		.2byte	0x1
 4468 0173 5D       		.byte	0x5d
ARM GAS  C:\Users\karunmj\AppData\Local\Temp\cceFJIz4.s 			page 125


 4469 0174 02000000 		.4byte	.LCFI19
 4470 0178 04000000 		.4byte	.LCFI20
 4471 017c 0200     		.2byte	0x2
 4472 017e 7D       		.byte	0x7d
 4473 017f 08       		.sleb128 8
 4474 0180 04000000 		.4byte	.LCFI20
 4475 0184 06000000 		.4byte	.LCFI21
 4476 0188 0200     		.2byte	0x2
 4477 018a 7D       		.byte	0x7d
 4478 018b 18       		.sleb128 24
 4479 018c 06000000 		.4byte	.LCFI21
 4480 0190 42010000 		.4byte	.LFE7
 4481 0194 0200     		.2byte	0x2
 4482 0196 77       		.byte	0x77
 4483 0197 18       		.sleb128 24
 4484 0198 00000000 		.4byte	0x0
 4485 019c 00000000 		.4byte	0x0
 4486              	.LLST8:
 4487 01a0 00000000 		.4byte	.LFB8
 4488 01a4 02000000 		.4byte	.LCFI22
 4489 01a8 0100     		.2byte	0x1
 4490 01aa 5D       		.byte	0x5d
 4491 01ab 02000000 		.4byte	.LCFI22
 4492 01af 04000000 		.4byte	.LCFI23
 4493 01b3 0200     		.2byte	0x2
 4494 01b5 7D       		.byte	0x7d
 4495 01b6 08       		.sleb128 8
 4496 01b7 04000000 		.4byte	.LCFI23
 4497 01bb 06000000 		.4byte	.LCFI24
 4498 01bf 0200     		.2byte	0x2
 4499 01c1 7D       		.byte	0x7d
 4500 01c2 18       		.sleb128 24
 4501 01c3 06000000 		.4byte	.LCFI24
 4502 01c7 E4010000 		.4byte	.LFE8
 4503 01cb 0200     		.2byte	0x2
 4504 01cd 77       		.byte	0x77
 4505 01ce 18       		.sleb128 24
 4506 01cf 00000000 		.4byte	0x0
 4507 01d3 00000000 		.4byte	0x0
 4508              	.LLST9:
 4509 01d7 00000000 		.4byte	.LFB9
 4510 01db 02000000 		.4byte	.LCFI25
 4511 01df 0100     		.2byte	0x1
 4512 01e1 5D       		.byte	0x5d
 4513 01e2 02000000 		.4byte	.LCFI25
 4514 01e6 04000000 		.4byte	.LCFI26
 4515 01ea 0200     		.2byte	0x2
 4516 01ec 7D       		.byte	0x7d
 4517 01ed 08       		.sleb128 8
 4518 01ee 04000000 		.4byte	.LCFI26
 4519 01f2 06000000 		.4byte	.LCFI27
 4520 01f6 0200     		.2byte	0x2
 4521 01f8 7D       		.byte	0x7d
 4522 01f9 10       		.sleb128 16
 4523 01fa 06000000 		.4byte	.LCFI27
 4524 01fe B8000000 		.4byte	.LFE9
 4525 0202 0200     		.2byte	0x2
ARM GAS  C:\Users\karunmj\AppData\Local\Temp\cceFJIz4.s 			page 126


 4526 0204 77       		.byte	0x77
 4527 0205 10       		.sleb128 16
 4528 0206 00000000 		.4byte	0x0
 4529 020a 00000000 		.4byte	0x0
 4530              	.LLST10:
 4531 020e 00000000 		.4byte	.LFB10
 4532 0212 02000000 		.4byte	.LCFI28
 4533 0216 0100     		.2byte	0x1
 4534 0218 5D       		.byte	0x5d
 4535 0219 02000000 		.4byte	.LCFI28
 4536 021d 04000000 		.4byte	.LCFI29
 4537 0221 0200     		.2byte	0x2
 4538 0223 7D       		.byte	0x7d
 4539 0224 04       		.sleb128 4
 4540 0225 04000000 		.4byte	.LCFI29
 4541 0229 26000000 		.4byte	.LFE10
 4542 022d 0200     		.2byte	0x2
 4543 022f 77       		.byte	0x77
 4544 0230 04       		.sleb128 4
 4545 0231 00000000 		.4byte	0x0
 4546 0235 00000000 		.4byte	0x0
 4547              	.LLST11:
 4548 0239 00000000 		.4byte	.LFB11
 4549 023d 02000000 		.4byte	.LCFI30
 4550 0241 0100     		.2byte	0x1
 4551 0243 5D       		.byte	0x5d
 4552 0244 02000000 		.4byte	.LCFI30
 4553 0248 04000000 		.4byte	.LCFI31
 4554 024c 0200     		.2byte	0x2
 4555 024e 7D       		.byte	0x7d
 4556 024f 04       		.sleb128 4
 4557 0250 04000000 		.4byte	.LCFI31
 4558 0254 24000000 		.4byte	.LFE11
 4559 0258 0200     		.2byte	0x2
 4560 025a 77       		.byte	0x77
 4561 025b 04       		.sleb128 4
 4562 025c 00000000 		.4byte	0x0
 4563 0260 00000000 		.4byte	0x0
 4564              	.LLST12:
 4565 0264 00000000 		.4byte	.LFB12
 4566 0268 02000000 		.4byte	.LCFI32
 4567 026c 0100     		.2byte	0x1
 4568 026e 5D       		.byte	0x5d
 4569 026f 02000000 		.4byte	.LCFI32
 4570 0273 04000000 		.4byte	.LCFI33
 4571 0277 0200     		.2byte	0x2
 4572 0279 7D       		.byte	0x7d
 4573 027a 04       		.sleb128 4
 4574 027b 04000000 		.4byte	.LCFI33
 4575 027f 06000000 		.4byte	.LCFI34
 4576 0283 0200     		.2byte	0x2
 4577 0285 7D       		.byte	0x7d
 4578 0286 10       		.sleb128 16
 4579 0287 06000000 		.4byte	.LCFI34
 4580 028b 3C000000 		.4byte	.LFE12
 4581 028f 0200     		.2byte	0x2
 4582 0291 77       		.byte	0x77
ARM GAS  C:\Users\karunmj\AppData\Local\Temp\cceFJIz4.s 			page 127


 4583 0292 10       		.sleb128 16
 4584 0293 00000000 		.4byte	0x0
 4585 0297 00000000 		.4byte	0x0
 4586              	.LLST13:
 4587 029b 00000000 		.4byte	.LFB13
 4588 029f 02000000 		.4byte	.LCFI35
 4589 02a3 0100     		.2byte	0x1
 4590 02a5 5D       		.byte	0x5d
 4591 02a6 02000000 		.4byte	.LCFI35
 4592 02aa 04000000 		.4byte	.LCFI36
 4593 02ae 0200     		.2byte	0x2
 4594 02b0 7D       		.byte	0x7d
 4595 02b1 04       		.sleb128 4
 4596 02b2 04000000 		.4byte	.LCFI36
 4597 02b6 06000000 		.4byte	.LCFI37
 4598 02ba 0200     		.2byte	0x2
 4599 02bc 7D       		.byte	0x7d
 4600 02bd 10       		.sleb128 16
 4601 02be 06000000 		.4byte	.LCFI37
 4602 02c2 20000000 		.4byte	.LFE13
 4603 02c6 0200     		.2byte	0x2
 4604 02c8 77       		.byte	0x77
 4605 02c9 10       		.sleb128 16
 4606 02ca 00000000 		.4byte	0x0
 4607 02ce 00000000 		.4byte	0x0
 4608              	.LLST14:
 4609 02d2 00000000 		.4byte	.LFB14
 4610 02d6 02000000 		.4byte	.LCFI38
 4611 02da 0100     		.2byte	0x1
 4612 02dc 5D       		.byte	0x5d
 4613 02dd 02000000 		.4byte	.LCFI38
 4614 02e1 04000000 		.4byte	.LCFI39
 4615 02e5 0200     		.2byte	0x2
 4616 02e7 7D       		.byte	0x7d
 4617 02e8 04       		.sleb128 4
 4618 02e9 04000000 		.4byte	.LCFI39
 4619 02ed 06000000 		.4byte	.LCFI40
 4620 02f1 0200     		.2byte	0x2
 4621 02f3 7D       		.byte	0x7d
 4622 02f4 10       		.sleb128 16
 4623 02f5 06000000 		.4byte	.LCFI40
 4624 02f9 9A000000 		.4byte	.LFE14
 4625 02fd 0200     		.2byte	0x2
 4626 02ff 77       		.byte	0x77
 4627 0300 10       		.sleb128 16
 4628 0301 00000000 		.4byte	0x0
 4629 0305 00000000 		.4byte	0x0
 4630              	.LLST15:
 4631 0309 00000000 		.4byte	.LFB15
 4632 030d 02000000 		.4byte	.LCFI41
 4633 0311 0100     		.2byte	0x1
 4634 0313 5D       		.byte	0x5d
 4635 0314 02000000 		.4byte	.LCFI41
 4636 0318 04000000 		.4byte	.LCFI42
 4637 031c 0200     		.2byte	0x2
 4638 031e 7D       		.byte	0x7d
 4639 031f 08       		.sleb128 8
ARM GAS  C:\Users\karunmj\AppData\Local\Temp\cceFJIz4.s 			page 128


 4640 0320 04000000 		.4byte	.LCFI42
 4641 0324 06000000 		.4byte	.LCFI43
 4642 0328 0200     		.2byte	0x2
 4643 032a 7D       		.byte	0x7d
 4644 032b 18       		.sleb128 24
 4645 032c 06000000 		.4byte	.LCFI43
 4646 0330 CC000000 		.4byte	.LFE15
 4647 0334 0200     		.2byte	0x2
 4648 0336 77       		.byte	0x77
 4649 0337 18       		.sleb128 24
 4650 0338 00000000 		.4byte	0x0
 4651 033c 00000000 		.4byte	0x0
 4652              	.LLST16:
 4653 0340 00000000 		.4byte	.LFB16
 4654 0344 02000000 		.4byte	.LCFI44
 4655 0348 0100     		.2byte	0x1
 4656 034a 5D       		.byte	0x5d
 4657 034b 02000000 		.4byte	.LCFI44
 4658 034f 04000000 		.4byte	.LCFI45
 4659 0353 0200     		.2byte	0x2
 4660 0355 7D       		.byte	0x7d
 4661 0356 04       		.sleb128 4
 4662 0357 04000000 		.4byte	.LCFI45
 4663 035b 06000000 		.4byte	.LCFI46
 4664 035f 0200     		.2byte	0x2
 4665 0361 7D       		.byte	0x7d
 4666 0362 10       		.sleb128 16
 4667 0363 06000000 		.4byte	.LCFI46
 4668 0367 3C000000 		.4byte	.LFE16
 4669 036b 0200     		.2byte	0x2
 4670 036d 77       		.byte	0x77
 4671 036e 10       		.sleb128 16
 4672 036f 00000000 		.4byte	0x0
 4673 0373 00000000 		.4byte	0x0
 4674              	.LLST17:
 4675 0377 00000000 		.4byte	.LFB17
 4676 037b 02000000 		.4byte	.LCFI47
 4677 037f 0100     		.2byte	0x1
 4678 0381 5D       		.byte	0x5d
 4679 0382 02000000 		.4byte	.LCFI47
 4680 0386 04000000 		.4byte	.LCFI48
 4681 038a 0200     		.2byte	0x2
 4682 038c 7D       		.byte	0x7d
 4683 038d 04       		.sleb128 4
 4684 038e 04000000 		.4byte	.LCFI48
 4685 0392 26000000 		.4byte	.LFE17
 4686 0396 0200     		.2byte	0x2
 4687 0398 77       		.byte	0x77
 4688 0399 04       		.sleb128 4
 4689 039a 00000000 		.4byte	0x0
 4690 039e 00000000 		.4byte	0x0
 4691              	.LLST18:
 4692 03a2 00000000 		.4byte	.LFB18
 4693 03a6 02000000 		.4byte	.LCFI49
 4694 03aa 0100     		.2byte	0x1
 4695 03ac 5D       		.byte	0x5d
 4696 03ad 02000000 		.4byte	.LCFI49
ARM GAS  C:\Users\karunmj\AppData\Local\Temp\cceFJIz4.s 			page 129


 4697 03b1 04000000 		.4byte	.LCFI50
 4698 03b5 0200     		.2byte	0x2
 4699 03b7 7D       		.byte	0x7d
 4700 03b8 04       		.sleb128 4
 4701 03b9 04000000 		.4byte	.LCFI50
 4702 03bd 24000000 		.4byte	.LFE18
 4703 03c1 0200     		.2byte	0x2
 4704 03c3 77       		.byte	0x77
 4705 03c4 04       		.sleb128 4
 4706 03c5 00000000 		.4byte	0x0
 4707 03c9 00000000 		.4byte	0x0
 4708              	.LLST19:
 4709 03cd 00000000 		.4byte	.LFB19
 4710 03d1 02000000 		.4byte	.LCFI51
 4711 03d5 0100     		.2byte	0x1
 4712 03d7 5D       		.byte	0x5d
 4713 03d8 02000000 		.4byte	.LCFI51
 4714 03dc 04000000 		.4byte	.LCFI52
 4715 03e0 0200     		.2byte	0x2
 4716 03e2 7D       		.byte	0x7d
 4717 03e3 04       		.sleb128 4
 4718 03e4 04000000 		.4byte	.LCFI52
 4719 03e8 26000000 		.4byte	.LFE19
 4720 03ec 0200     		.2byte	0x2
 4721 03ee 77       		.byte	0x77
 4722 03ef 04       		.sleb128 4
 4723 03f0 00000000 		.4byte	0x0
 4724 03f4 00000000 		.4byte	0x0
 4725              	.LLST20:
 4726 03f8 00000000 		.4byte	.LFB20
 4727 03fc 02000000 		.4byte	.LCFI53
 4728 0400 0100     		.2byte	0x1
 4729 0402 5D       		.byte	0x5d
 4730 0403 02000000 		.4byte	.LCFI53
 4731 0407 04000000 		.4byte	.LCFI54
 4732 040b 0200     		.2byte	0x2
 4733 040d 7D       		.byte	0x7d
 4734 040e 04       		.sleb128 4
 4735 040f 04000000 		.4byte	.LCFI54
 4736 0413 24000000 		.4byte	.LFE20
 4737 0417 0200     		.2byte	0x2
 4738 0419 77       		.byte	0x77
 4739 041a 04       		.sleb128 4
 4740 041b 00000000 		.4byte	0x0
 4741 041f 00000000 		.4byte	0x0
 4742              	.LLST21:
 4743 0423 00000000 		.4byte	.LFB21
 4744 0427 02000000 		.4byte	.LCFI55
 4745 042b 0100     		.2byte	0x1
 4746 042d 5D       		.byte	0x5d
 4747 042e 02000000 		.4byte	.LCFI55
 4748 0432 04000000 		.4byte	.LCFI56
 4749 0436 0200     		.2byte	0x2
 4750 0438 7D       		.byte	0x7d
 4751 0439 04       		.sleb128 4
 4752 043a 04000000 		.4byte	.LCFI56
 4753 043e 26000000 		.4byte	.LFE21
ARM GAS  C:\Users\karunmj\AppData\Local\Temp\cceFJIz4.s 			page 130


 4754 0442 0200     		.2byte	0x2
 4755 0444 77       		.byte	0x77
 4756 0445 04       		.sleb128 4
 4757 0446 00000000 		.4byte	0x0
 4758 044a 00000000 		.4byte	0x0
 4759              	.LLST22:
 4760 044e 00000000 		.4byte	.LFB22
 4761 0452 02000000 		.4byte	.LCFI57
 4762 0456 0100     		.2byte	0x1
 4763 0458 5D       		.byte	0x5d
 4764 0459 02000000 		.4byte	.LCFI57
 4765 045d 04000000 		.4byte	.LCFI58
 4766 0461 0200     		.2byte	0x2
 4767 0463 7D       		.byte	0x7d
 4768 0464 04       		.sleb128 4
 4769 0465 04000000 		.4byte	.LCFI58
 4770 0469 24000000 		.4byte	.LFE22
 4771 046d 0200     		.2byte	0x2
 4772 046f 77       		.byte	0x77
 4773 0470 04       		.sleb128 4
 4774 0471 00000000 		.4byte	0x0
 4775 0475 00000000 		.4byte	0x0
 4776              	.LLST23:
 4777 0479 00000000 		.4byte	.LFB23
 4778 047d 02000000 		.4byte	.LCFI59
 4779 0481 0100     		.2byte	0x1
 4780 0483 5D       		.byte	0x5d
 4781 0484 02000000 		.4byte	.LCFI59
 4782 0488 04000000 		.4byte	.LCFI60
 4783 048c 0200     		.2byte	0x2
 4784 048e 7D       		.byte	0x7d
 4785 048f 04       		.sleb128 4
 4786 0490 04000000 		.4byte	.LCFI60
 4787 0494 06000000 		.4byte	.LCFI61
 4788 0498 0200     		.2byte	0x2
 4789 049a 7D       		.byte	0x7d
 4790 049b 10       		.sleb128 16
 4791 049c 06000000 		.4byte	.LCFI61
 4792 04a0 42000000 		.4byte	.LFE23
 4793 04a4 0200     		.2byte	0x2
 4794 04a6 77       		.byte	0x77
 4795 04a7 10       		.sleb128 16
 4796 04a8 00000000 		.4byte	0x0
 4797 04ac 00000000 		.4byte	0x0
 4798              	.LLST24:
 4799 04b0 00000000 		.4byte	.LFB24
 4800 04b4 02000000 		.4byte	.LCFI62
 4801 04b8 0100     		.2byte	0x1
 4802 04ba 5D       		.byte	0x5d
 4803 04bb 02000000 		.4byte	.LCFI62
 4804 04bf 04000000 		.4byte	.LCFI63
 4805 04c3 0200     		.2byte	0x2
 4806 04c5 7D       		.byte	0x7d
 4807 04c6 04       		.sleb128 4
 4808 04c7 04000000 		.4byte	.LCFI63
 4809 04cb 06000000 		.4byte	.LCFI64
 4810 04cf 0200     		.2byte	0x2
ARM GAS  C:\Users\karunmj\AppData\Local\Temp\cceFJIz4.s 			page 131


 4811 04d1 7D       		.byte	0x7d
 4812 04d2 18       		.sleb128 24
 4813 04d3 06000000 		.4byte	.LCFI64
 4814 04d7 58000000 		.4byte	.LFE24
 4815 04db 0200     		.2byte	0x2
 4816 04dd 77       		.byte	0x77
 4817 04de 18       		.sleb128 24
 4818 04df 00000000 		.4byte	0x0
 4819 04e3 00000000 		.4byte	0x0
 4820              	.LLST25:
 4821 04e7 00000000 		.4byte	.LFB25
 4822 04eb 02000000 		.4byte	.LCFI65
 4823 04ef 0100     		.2byte	0x1
 4824 04f1 5D       		.byte	0x5d
 4825 04f2 02000000 		.4byte	.LCFI65
 4826 04f6 04000000 		.4byte	.LCFI66
 4827 04fa 0200     		.2byte	0x2
 4828 04fc 7D       		.byte	0x7d
 4829 04fd 08       		.sleb128 8
 4830 04fe 04000000 		.4byte	.LCFI66
 4831 0502 06000000 		.4byte	.LCFI67
 4832 0506 0200     		.2byte	0x2
 4833 0508 7D       		.byte	0x7d
 4834 0509 10       		.sleb128 16
 4835 050a 06000000 		.4byte	.LCFI67
 4836 050e A2000000 		.4byte	.LFE25
 4837 0512 0200     		.2byte	0x2
 4838 0514 77       		.byte	0x77
 4839 0515 10       		.sleb128 16
 4840 0516 00000000 		.4byte	0x0
 4841 051a 00000000 		.4byte	0x0
 4842              	.LLST26:
 4843 051e 00000000 		.4byte	.LFB26
 4844 0522 02000000 		.4byte	.LCFI68
 4845 0526 0100     		.2byte	0x1
 4846 0528 5D       		.byte	0x5d
 4847 0529 02000000 		.4byte	.LCFI68
 4848 052d 04000000 		.4byte	.LCFI69
 4849 0531 0200     		.2byte	0x2
 4850 0533 7D       		.byte	0x7d
 4851 0534 04       		.sleb128 4
 4852 0535 04000000 		.4byte	.LCFI69
 4853 0539 60000000 		.4byte	.LFE26
 4854 053d 0200     		.2byte	0x2
 4855 053f 77       		.byte	0x77
 4856 0540 04       		.sleb128 4
 4857 0541 00000000 		.4byte	0x0
 4858 0545 00000000 		.4byte	0x0
 4859              	.LLST27:
 4860 0549 00000000 		.4byte	.LFB27
 4861 054d 02000000 		.4byte	.LCFI70
 4862 0551 0100     		.2byte	0x1
 4863 0553 5D       		.byte	0x5d
 4864 0554 02000000 		.4byte	.LCFI70
 4865 0558 04000000 		.4byte	.LCFI71
 4866 055c 0200     		.2byte	0x2
 4867 055e 7D       		.byte	0x7d
ARM GAS  C:\Users\karunmj\AppData\Local\Temp\cceFJIz4.s 			page 132


 4868 055f 04       		.sleb128 4
 4869 0560 04000000 		.4byte	.LCFI71
 4870 0564 1C000000 		.4byte	.LFE27
 4871 0568 0200     		.2byte	0x2
 4872 056a 77       		.byte	0x77
 4873 056b 04       		.sleb128 4
 4874 056c 00000000 		.4byte	0x0
 4875 0570 00000000 		.4byte	0x0
 4876              	.LLST28:
 4877 0574 00000000 		.4byte	.LFB28
 4878 0578 02000000 		.4byte	.LCFI72
 4879 057c 0100     		.2byte	0x1
 4880 057e 5D       		.byte	0x5d
 4881 057f 02000000 		.4byte	.LCFI72
 4882 0583 04000000 		.4byte	.LCFI73
 4883 0587 0200     		.2byte	0x2
 4884 0589 7D       		.byte	0x7d
 4885 058a 08       		.sleb128 8
 4886 058b 04000000 		.4byte	.LCFI73
 4887 058f 06000000 		.4byte	.LCFI74
 4888 0593 0200     		.2byte	0x2
 4889 0595 7D       		.byte	0x7d
 4890 0596 18       		.sleb128 24
 4891 0597 06000000 		.4byte	.LCFI74
 4892 059b F6000000 		.4byte	.LFE28
 4893 059f 0200     		.2byte	0x2
 4894 05a1 77       		.byte	0x77
 4895 05a2 18       		.sleb128 24
 4896 05a3 00000000 		.4byte	0x0
 4897 05a7 00000000 		.4byte	0x0
 4898              	.LLST29:
 4899 05ab 00000000 		.4byte	.LFB29
 4900 05af 02000000 		.4byte	.LCFI75
 4901 05b3 0100     		.2byte	0x1
 4902 05b5 5D       		.byte	0x5d
 4903 05b6 02000000 		.4byte	.LCFI75
 4904 05ba 04000000 		.4byte	.LCFI76
 4905 05be 0200     		.2byte	0x2
 4906 05c0 7D       		.byte	0x7d
 4907 05c1 08       		.sleb128 8
 4908 05c2 04000000 		.4byte	.LCFI76
 4909 05c6 06000000 		.4byte	.LCFI77
 4910 05ca 0200     		.2byte	0x2
 4911 05cc 7D       		.byte	0x7d
 4912 05cd 20       		.sleb128 32
 4913 05ce 06000000 		.4byte	.LCFI77
 4914 05d2 FE000000 		.4byte	.LFE29
 4915 05d6 0200     		.2byte	0x2
 4916 05d8 77       		.byte	0x77
 4917 05d9 20       		.sleb128 32
 4918 05da 00000000 		.4byte	0x0
 4919 05de 00000000 		.4byte	0x0
 4920              	.LLST30:
 4921 05e2 00000000 		.4byte	.LFB30
 4922 05e6 02000000 		.4byte	.LCFI78
 4923 05ea 0100     		.2byte	0x1
 4924 05ec 5D       		.byte	0x5d
ARM GAS  C:\Users\karunmj\AppData\Local\Temp\cceFJIz4.s 			page 133


 4925 05ed 02000000 		.4byte	.LCFI78
 4926 05f1 04000000 		.4byte	.LCFI79
 4927 05f5 0200     		.2byte	0x2
 4928 05f7 7D       		.byte	0x7d
 4929 05f8 04       		.sleb128 4
 4930 05f9 04000000 		.4byte	.LCFI79
 4931 05fd 24000000 		.4byte	.LFE30
 4932 0601 0200     		.2byte	0x2
 4933 0603 77       		.byte	0x77
 4934 0604 04       		.sleb128 4
 4935 0605 00000000 		.4byte	0x0
 4936 0609 00000000 		.4byte	0x0
 4937              	.LLST31:
 4938 060d 00000000 		.4byte	.LFB31
 4939 0611 02000000 		.4byte	.LCFI80
 4940 0615 0100     		.2byte	0x1
 4941 0617 5D       		.byte	0x5d
 4942 0618 02000000 		.4byte	.LCFI80
 4943 061c 04000000 		.4byte	.LCFI81
 4944 0620 0200     		.2byte	0x2
 4945 0622 7D       		.byte	0x7d
 4946 0623 04       		.sleb128 4
 4947 0624 04000000 		.4byte	.LCFI81
 4948 0628 24000000 		.4byte	.LFE31
 4949 062c 0200     		.2byte	0x2
 4950 062e 77       		.byte	0x77
 4951 062f 04       		.sleb128 4
 4952 0630 00000000 		.4byte	0x0
 4953 0634 00000000 		.4byte	0x0
 4954              	.LLST32:
 4955 0638 00000000 		.4byte	.LFB32
 4956 063c 02000000 		.4byte	.LCFI82
 4957 0640 0100     		.2byte	0x1
 4958 0642 5D       		.byte	0x5d
 4959 0643 02000000 		.4byte	.LCFI82
 4960 0647 04000000 		.4byte	.LCFI83
 4961 064b 0200     		.2byte	0x2
 4962 064d 7D       		.byte	0x7d
 4963 064e 04       		.sleb128 4
 4964 064f 04000000 		.4byte	.LCFI83
 4965 0653 26000000 		.4byte	.LFE32
 4966 0657 0200     		.2byte	0x2
 4967 0659 77       		.byte	0x77
 4968 065a 04       		.sleb128 4
 4969 065b 00000000 		.4byte	0x0
 4970 065f 00000000 		.4byte	0x0
 4971              	.LLST33:
 4972 0663 00000000 		.4byte	.LFB33
 4973 0667 02000000 		.4byte	.LCFI84
 4974 066b 0100     		.2byte	0x1
 4975 066d 5D       		.byte	0x5d
 4976 066e 02000000 		.4byte	.LCFI84
 4977 0672 04000000 		.4byte	.LCFI85
 4978 0676 0200     		.2byte	0x2
 4979 0678 7D       		.byte	0x7d
 4980 0679 04       		.sleb128 4
 4981 067a 04000000 		.4byte	.LCFI85
ARM GAS  C:\Users\karunmj\AppData\Local\Temp\cceFJIz4.s 			page 134


 4982 067e 28000000 		.4byte	.LFE33
 4983 0682 0200     		.2byte	0x2
 4984 0684 77       		.byte	0x77
 4985 0685 04       		.sleb128 4
 4986 0686 00000000 		.4byte	0x0
 4987 068a 00000000 		.4byte	0x0
 4988              	.LLST34:
 4989 068e 00000000 		.4byte	.LFB34
 4990 0692 02000000 		.4byte	.LCFI86
 4991 0696 0100     		.2byte	0x1
 4992 0698 5D       		.byte	0x5d
 4993 0699 02000000 		.4byte	.LCFI86
 4994 069d 04000000 		.4byte	.LCFI87
 4995 06a1 0200     		.2byte	0x2
 4996 06a3 7D       		.byte	0x7d
 4997 06a4 04       		.sleb128 4
 4998 06a5 04000000 		.4byte	.LCFI87
 4999 06a9 26000000 		.4byte	.LFE34
 5000 06ad 0200     		.2byte	0x2
 5001 06af 77       		.byte	0x77
 5002 06b0 04       		.sleb128 4
 5003 06b1 00000000 		.4byte	0x0
 5004 06b5 00000000 		.4byte	0x0
 5005              	.LLST35:
 5006 06b9 00000000 		.4byte	.LFB35
 5007 06bd 02000000 		.4byte	.LCFI88
 5008 06c1 0100     		.2byte	0x1
 5009 06c3 5D       		.byte	0x5d
 5010 06c4 02000000 		.4byte	.LCFI88
 5011 06c8 04000000 		.4byte	.LCFI89
 5012 06cc 0200     		.2byte	0x2
 5013 06ce 7D       		.byte	0x7d
 5014 06cf 04       		.sleb128 4
 5015 06d0 04000000 		.4byte	.LCFI89
 5016 06d4 24000000 		.4byte	.LFE35
 5017 06d8 0200     		.2byte	0x2
 5018 06da 77       		.byte	0x77
 5019 06db 04       		.sleb128 4
 5020 06dc 00000000 		.4byte	0x0
 5021 06e0 00000000 		.4byte	0x0
 5022              	.LLST36:
 5023 06e4 00000000 		.4byte	.LFB36
 5024 06e8 02000000 		.4byte	.LCFI90
 5025 06ec 0100     		.2byte	0x1
 5026 06ee 5D       		.byte	0x5d
 5027 06ef 02000000 		.4byte	.LCFI90
 5028 06f3 04000000 		.4byte	.LCFI91
 5029 06f7 0200     		.2byte	0x2
 5030 06f9 7D       		.byte	0x7d
 5031 06fa 04       		.sleb128 4
 5032 06fb 04000000 		.4byte	.LCFI91
 5033 06ff 06000000 		.4byte	.LCFI92
 5034 0703 0200     		.2byte	0x2
 5035 0705 7D       		.byte	0x7d
 5036 0706 10       		.sleb128 16
 5037 0707 06000000 		.4byte	.LCFI92
 5038 070b 3C000000 		.4byte	.LFE36
ARM GAS  C:\Users\karunmj\AppData\Local\Temp\cceFJIz4.s 			page 135


 5039 070f 0200     		.2byte	0x2
 5040 0711 77       		.byte	0x77
 5041 0712 10       		.sleb128 16
 5042 0713 00000000 		.4byte	0x0
 5043 0717 00000000 		.4byte	0x0
 5044              	.LLST37:
 5045 071b 00000000 		.4byte	.LFB37
 5046 071f 02000000 		.4byte	.LCFI93
 5047 0723 0100     		.2byte	0x1
 5048 0725 5D       		.byte	0x5d
 5049 0726 02000000 		.4byte	.LCFI93
 5050 072a 04000000 		.4byte	.LCFI94
 5051 072e 0200     		.2byte	0x2
 5052 0730 7D       		.byte	0x7d
 5053 0731 04       		.sleb128 4
 5054 0732 04000000 		.4byte	.LCFI94
 5055 0736 06000000 		.4byte	.LCFI95
 5056 073a 0200     		.2byte	0x2
 5057 073c 7D       		.byte	0x7d
 5058 073d 10       		.sleb128 16
 5059 073e 06000000 		.4byte	.LCFI95
 5060 0742 3C000000 		.4byte	.LFE37
 5061 0746 0200     		.2byte	0x2
 5062 0748 77       		.byte	0x77
 5063 0749 10       		.sleb128 16
 5064 074a 00000000 		.4byte	0x0
 5065 074e 00000000 		.4byte	0x0
 5066              	.LLST38:
 5067 0752 00000000 		.4byte	.LFB38
 5068 0756 02000000 		.4byte	.LCFI96
 5069 075a 0100     		.2byte	0x1
 5070 075c 5D       		.byte	0x5d
 5071 075d 02000000 		.4byte	.LCFI96
 5072 0761 04000000 		.4byte	.LCFI97
 5073 0765 0200     		.2byte	0x2
 5074 0767 7D       		.byte	0x7d
 5075 0768 04       		.sleb128 4
 5076 0769 04000000 		.4byte	.LCFI97
 5077 076d 06000000 		.4byte	.LCFI98
 5078 0771 0200     		.2byte	0x2
 5079 0773 7D       		.byte	0x7d
 5080 0774 10       		.sleb128 16
 5081 0775 06000000 		.4byte	.LCFI98
 5082 0779 42000000 		.4byte	.LFE38
 5083 077d 0200     		.2byte	0x2
 5084 077f 77       		.byte	0x77
 5085 0780 10       		.sleb128 16
 5086 0781 00000000 		.4byte	0x0
 5087 0785 00000000 		.4byte	0x0
 5088              	.LLST39:
 5089 0789 00000000 		.4byte	.LFB39
 5090 078d 02000000 		.4byte	.LCFI99
 5091 0791 0100     		.2byte	0x1
 5092 0793 5D       		.byte	0x5d
 5093 0794 02000000 		.4byte	.LCFI99
 5094 0798 04000000 		.4byte	.LCFI100
 5095 079c 0200     		.2byte	0x2
ARM GAS  C:\Users\karunmj\AppData\Local\Temp\cceFJIz4.s 			page 136


 5096 079e 7D       		.byte	0x7d
 5097 079f 04       		.sleb128 4
 5098 07a0 04000000 		.4byte	.LCFI100
 5099 07a4 06000000 		.4byte	.LCFI101
 5100 07a8 0200     		.2byte	0x2
 5101 07aa 7D       		.byte	0x7d
 5102 07ab 10       		.sleb128 16
 5103 07ac 06000000 		.4byte	.LCFI101
 5104 07b0 16000000 		.4byte	.LFE39
 5105 07b4 0200     		.2byte	0x2
 5106 07b6 77       		.byte	0x77
 5107 07b7 10       		.sleb128 16
 5108 07b8 00000000 		.4byte	0x0
 5109 07bc 00000000 		.4byte	0x0
 5110              	.LLST40:
 5111 07c0 00000000 		.4byte	.LFB40
 5112 07c4 02000000 		.4byte	.LCFI102
 5113 07c8 0100     		.2byte	0x1
 5114 07ca 5D       		.byte	0x5d
 5115 07cb 02000000 		.4byte	.LCFI102
 5116 07cf 04000000 		.4byte	.LCFI103
 5117 07d3 0200     		.2byte	0x2
 5118 07d5 7D       		.byte	0x7d
 5119 07d6 04       		.sleb128 4
 5120 07d7 04000000 		.4byte	.LCFI103
 5121 07db 18000000 		.4byte	.LFE40
 5122 07df 0200     		.2byte	0x2
 5123 07e1 77       		.byte	0x77
 5124 07e2 04       		.sleb128 4
 5125 07e3 00000000 		.4byte	0x0
 5126 07e7 00000000 		.4byte	0x0
 5127              	.LLST41:
 5128 07eb 00000000 		.4byte	.LFB41
 5129 07ef 02000000 		.4byte	.LCFI104
 5130 07f3 0100     		.2byte	0x1
 5131 07f5 5D       		.byte	0x5d
 5132 07f6 02000000 		.4byte	.LCFI104
 5133 07fa 04000000 		.4byte	.LCFI105
 5134 07fe 0200     		.2byte	0x2
 5135 0800 7D       		.byte	0x7d
 5136 0801 08       		.sleb128 8
 5137 0802 04000000 		.4byte	.LCFI105
 5138 0806 06000000 		.4byte	.LCFI106
 5139 080a 0200     		.2byte	0x2
 5140 080c 7D       		.byte	0x7d
 5141 080d 10       		.sleb128 16
 5142 080e 06000000 		.4byte	.LCFI106
 5143 0812 48000000 		.4byte	.LFE41
 5144 0816 0200     		.2byte	0x2
 5145 0818 77       		.byte	0x77
 5146 0819 10       		.sleb128 16
 5147 081a 00000000 		.4byte	0x0
 5148 081e 00000000 		.4byte	0x0
 5149              	.LLST42:
 5150 0822 00000000 		.4byte	.LFB42
 5151 0826 02000000 		.4byte	.LCFI107
 5152 082a 0100     		.2byte	0x1
ARM GAS  C:\Users\karunmj\AppData\Local\Temp\cceFJIz4.s 			page 137


 5153 082c 5D       		.byte	0x5d
 5154 082d 02000000 		.4byte	.LCFI107
 5155 0831 04000000 		.4byte	.LCFI108
 5156 0835 0200     		.2byte	0x2
 5157 0837 7D       		.byte	0x7d
 5158 0838 08       		.sleb128 8
 5159 0839 04000000 		.4byte	.LCFI108
 5160 083d 06000000 		.4byte	.LCFI109
 5161 0841 0200     		.2byte	0x2
 5162 0843 7D       		.byte	0x7d
 5163 0844 10       		.sleb128 16
 5164 0845 06000000 		.4byte	.LCFI109
 5165 0849 28000000 		.4byte	.LFE42
 5166 084d 0200     		.2byte	0x2
 5167 084f 77       		.byte	0x77
 5168 0850 10       		.sleb128 16
 5169 0851 00000000 		.4byte	0x0
 5170 0855 00000000 		.4byte	0x0
 5171              	.LLST43:
 5172 0859 00000000 		.4byte	.LFB43
 5173 085d 02000000 		.4byte	.LCFI110
 5174 0861 0100     		.2byte	0x1
 5175 0863 5D       		.byte	0x5d
 5176 0864 02000000 		.4byte	.LCFI110
 5177 0868 04000000 		.4byte	.LCFI111
 5178 086c 0200     		.2byte	0x2
 5179 086e 7D       		.byte	0x7d
 5180 086f 04       		.sleb128 4
 5181 0870 04000000 		.4byte	.LCFI111
 5182 0874 06000000 		.4byte	.LCFI112
 5183 0878 0200     		.2byte	0x2
 5184 087a 7D       		.byte	0x7d
 5185 087b 10       		.sleb128 16
 5186 087c 06000000 		.4byte	.LCFI112
 5187 0880 AC000000 		.4byte	.LFE43
 5188 0884 0200     		.2byte	0x2
 5189 0886 77       		.byte	0x77
 5190 0887 10       		.sleb128 16
 5191 0888 00000000 		.4byte	0x0
 5192 088c 00000000 		.4byte	0x0
 5193              	.LLST44:
 5194 0890 00000000 		.4byte	.LFB44
 5195 0894 02000000 		.4byte	.LCFI113
 5196 0898 0100     		.2byte	0x1
 5197 089a 5D       		.byte	0x5d
 5198 089b 02000000 		.4byte	.LCFI113
 5199 089f 04000000 		.4byte	.LCFI114
 5200 08a3 0200     		.2byte	0x2
 5201 08a5 7D       		.byte	0x7d
 5202 08a6 04       		.sleb128 4
 5203 08a7 04000000 		.4byte	.LCFI114
 5204 08ab 06000000 		.4byte	.LCFI115
 5205 08af 0200     		.2byte	0x2
 5206 08b1 7D       		.byte	0x7d
 5207 08b2 10       		.sleb128 16
 5208 08b3 06000000 		.4byte	.LCFI115
 5209 08b7 C4000000 		.4byte	.LFE44
ARM GAS  C:\Users\karunmj\AppData\Local\Temp\cceFJIz4.s 			page 138


 5210 08bb 0200     		.2byte	0x2
 5211 08bd 77       		.byte	0x77
 5212 08be 10       		.sleb128 16
 5213 08bf 00000000 		.4byte	0x0
 5214 08c3 00000000 		.4byte	0x0
 5215              	.LLST45:
 5216 08c7 00000000 		.4byte	.LFB45
 5217 08cb 02000000 		.4byte	.LCFI116
 5218 08cf 0100     		.2byte	0x1
 5219 08d1 5D       		.byte	0x5d
 5220 08d2 02000000 		.4byte	.LCFI116
 5221 08d6 04000000 		.4byte	.LCFI117
 5222 08da 0200     		.2byte	0x2
 5223 08dc 7D       		.byte	0x7d
 5224 08dd 04       		.sleb128 4
 5225 08de 04000000 		.4byte	.LCFI117
 5226 08e2 18000000 		.4byte	.LFE45
 5227 08e6 0200     		.2byte	0x2
 5228 08e8 77       		.byte	0x77
 5229 08e9 04       		.sleb128 4
 5230 08ea 00000000 		.4byte	0x0
 5231 08ee 00000000 		.4byte	0x0
 5232              	.LLST46:
 5233 08f2 00000000 		.4byte	.LFB46
 5234 08f6 02000000 		.4byte	.LCFI118
 5235 08fa 0100     		.2byte	0x1
 5236 08fc 5D       		.byte	0x5d
 5237 08fd 02000000 		.4byte	.LCFI118
 5238 0901 04000000 		.4byte	.LCFI119
 5239 0905 0200     		.2byte	0x2
 5240 0907 7D       		.byte	0x7d
 5241 0908 08       		.sleb128 8
 5242 0909 04000000 		.4byte	.LCFI119
 5243 090d 06000000 		.4byte	.LCFI120
 5244 0911 0200     		.2byte	0x2
 5245 0913 7D       		.byte	0x7d
 5246 0914 10       		.sleb128 16
 5247 0915 06000000 		.4byte	.LCFI120
 5248 0919 EC000000 		.4byte	.LFE46
 5249 091d 0200     		.2byte	0x2
 5250 091f 77       		.byte	0x77
 5251 0920 10       		.sleb128 16
 5252 0921 00000000 		.4byte	0x0
 5253 0925 00000000 		.4byte	0x0
 5254              	.LLST47:
 5255 0929 00000000 		.4byte	.LFB47
 5256 092d 02000000 		.4byte	.LCFI121
 5257 0931 0100     		.2byte	0x1
 5258 0933 5D       		.byte	0x5d
 5259 0934 02000000 		.4byte	.LCFI121
 5260 0938 04000000 		.4byte	.LCFI122
 5261 093c 0200     		.2byte	0x2
 5262 093e 7D       		.byte	0x7d
 5263 093f 08       		.sleb128 8
 5264 0940 04000000 		.4byte	.LCFI122
 5265 0944 06000000 		.4byte	.LCFI123
 5266 0948 0200     		.2byte	0x2
ARM GAS  C:\Users\karunmj\AppData\Local\Temp\cceFJIz4.s 			page 139


 5267 094a 7D       		.byte	0x7d
 5268 094b 10       		.sleb128 16
 5269 094c 06000000 		.4byte	.LCFI123
 5270 0950 F2000000 		.4byte	.LFE47
 5271 0954 0200     		.2byte	0x2
 5272 0956 77       		.byte	0x77
 5273 0957 10       		.sleb128 16
 5274 0958 00000000 		.4byte	0x0
 5275 095c 00000000 		.4byte	0x0
 5276              	.LLST48:
 5277 0960 00000000 		.4byte	.LFB48
 5278 0964 02000000 		.4byte	.LCFI124
 5279 0968 0100     		.2byte	0x1
 5280 096a 5D       		.byte	0x5d
 5281 096b 02000000 		.4byte	.LCFI124
 5282 096f 04000000 		.4byte	.LCFI125
 5283 0973 0200     		.2byte	0x2
 5284 0975 7D       		.byte	0x7d
 5285 0976 04       		.sleb128 4
 5286 0977 04000000 		.4byte	.LCFI125
 5287 097b 52000000 		.4byte	.LFE48
 5288 097f 0200     		.2byte	0x2
 5289 0981 77       		.byte	0x77
 5290 0982 04       		.sleb128 4
 5291 0983 00000000 		.4byte	0x0
 5292 0987 00000000 		.4byte	0x0
 5293              	.LLST49:
 5294 098b 00000000 		.4byte	.LFB49
 5295 098f 02000000 		.4byte	.LCFI126
 5296 0993 0100     		.2byte	0x1
 5297 0995 5D       		.byte	0x5d
 5298 0996 02000000 		.4byte	.LCFI126
 5299 099a 04000000 		.4byte	.LCFI127
 5300 099e 0200     		.2byte	0x2
 5301 09a0 7D       		.byte	0x7d
 5302 09a1 04       		.sleb128 4
 5303 09a2 04000000 		.4byte	.LCFI127
 5304 09a6 52000000 		.4byte	.LFE49
 5305 09aa 0200     		.2byte	0x2
 5306 09ac 77       		.byte	0x77
 5307 09ad 04       		.sleb128 4
 5308 09ae 00000000 		.4byte	0x0
 5309 09b2 00000000 		.4byte	0x0
 5310              	.LLST50:
 5311 09b6 00000000 		.4byte	.LFB50
 5312 09ba 02000000 		.4byte	.LCFI128
 5313 09be 0100     		.2byte	0x1
 5314 09c0 5D       		.byte	0x5d
 5315 09c1 02000000 		.4byte	.LCFI128
 5316 09c5 04000000 		.4byte	.LCFI129
 5317 09c9 0200     		.2byte	0x2
 5318 09cb 7D       		.byte	0x7d
 5319 09cc 08       		.sleb128 8
 5320 09cd 04000000 		.4byte	.LCFI129
 5321 09d1 78000000 		.4byte	.LFE50
 5322 09d5 0200     		.2byte	0x2
 5323 09d7 77       		.byte	0x77
ARM GAS  C:\Users\karunmj\AppData\Local\Temp\cceFJIz4.s 			page 140


 5324 09d8 08       		.sleb128 8
 5325 09d9 00000000 		.4byte	0x0
 5326 09dd 00000000 		.4byte	0x0
 5327              	.LLST51:
 5328 09e1 00000000 		.4byte	.LFB51
 5329 09e5 02000000 		.4byte	.LCFI130
 5330 09e9 0100     		.2byte	0x1
 5331 09eb 5D       		.byte	0x5d
 5332 09ec 02000000 		.4byte	.LCFI130
 5333 09f0 04000000 		.4byte	.LCFI131
 5334 09f4 0200     		.2byte	0x2
 5335 09f6 7D       		.byte	0x7d
 5336 09f7 04       		.sleb128 4
 5337 09f8 04000000 		.4byte	.LCFI131
 5338 09fc 24000000 		.4byte	.LFE51
 5339 0a00 0200     		.2byte	0x2
 5340 0a02 77       		.byte	0x77
 5341 0a03 04       		.sleb128 4
 5342 0a04 00000000 		.4byte	0x0
 5343 0a08 00000000 		.4byte	0x0
 5344              	.LLST52:
 5345 0a0c 00000000 		.4byte	.LFB52
 5346 0a10 02000000 		.4byte	.LCFI132
 5347 0a14 0100     		.2byte	0x1
 5348 0a16 5D       		.byte	0x5d
 5349 0a17 02000000 		.4byte	.LCFI132
 5350 0a1b 04000000 		.4byte	.LCFI133
 5351 0a1f 0200     		.2byte	0x2
 5352 0a21 7D       		.byte	0x7d
 5353 0a22 04       		.sleb128 4
 5354 0a23 04000000 		.4byte	.LCFI133
 5355 0a27 06000000 		.4byte	.LCFI134
 5356 0a2b 0200     		.2byte	0x2
 5357 0a2d 7D       		.byte	0x7d
 5358 0a2e 18       		.sleb128 24
 5359 0a2f 06000000 		.4byte	.LCFI134
 5360 0a33 48000000 		.4byte	.LFE52
 5361 0a37 0200     		.2byte	0x2
 5362 0a39 77       		.byte	0x77
 5363 0a3a 18       		.sleb128 24
 5364 0a3b 00000000 		.4byte	0x0
 5365 0a3f 00000000 		.4byte	0x0
 5366              	.LLST53:
 5367 0a43 00000000 		.4byte	.LFB53
 5368 0a47 02000000 		.4byte	.LCFI135
 5369 0a4b 0100     		.2byte	0x1
 5370 0a4d 5D       		.byte	0x5d
 5371 0a4e 02000000 		.4byte	.LCFI135
 5372 0a52 04000000 		.4byte	.LCFI136
 5373 0a56 0200     		.2byte	0x2
 5374 0a58 7D       		.byte	0x7d
 5375 0a59 08       		.sleb128 8
 5376 0a5a 04000000 		.4byte	.LCFI136
 5377 0a5e 06000000 		.4byte	.LCFI137
 5378 0a62 0200     		.2byte	0x2
 5379 0a64 7D       		.byte	0x7d
 5380 0a65 10       		.sleb128 16
ARM GAS  C:\Users\karunmj\AppData\Local\Temp\cceFJIz4.s 			page 141


 5381 0a66 06000000 		.4byte	.LCFI137
 5382 0a6a 2E000000 		.4byte	.LFE53
 5383 0a6e 0200     		.2byte	0x2
 5384 0a70 77       		.byte	0x77
 5385 0a71 10       		.sleb128 16
 5386 0a72 00000000 		.4byte	0x0
 5387 0a76 00000000 		.4byte	0x0
 5388              	.LLST54:
 5389 0a7a 00000000 		.4byte	.LFB54
 5390 0a7e 02000000 		.4byte	.LCFI138
 5391 0a82 0100     		.2byte	0x1
 5392 0a84 5D       		.byte	0x5d
 5393 0a85 02000000 		.4byte	.LCFI138
 5394 0a89 04000000 		.4byte	.LCFI139
 5395 0a8d 0200     		.2byte	0x2
 5396 0a8f 7D       		.byte	0x7d
 5397 0a90 08       		.sleb128 8
 5398 0a91 04000000 		.4byte	.LCFI139
 5399 0a95 06000000 		.4byte	.LCFI140
 5400 0a99 0200     		.2byte	0x2
 5401 0a9b 7D       		.byte	0x7d
 5402 0a9c 10       		.sleb128 16
 5403 0a9d 06000000 		.4byte	.LCFI140
 5404 0aa1 3C000000 		.4byte	.LFE54
 5405 0aa5 0200     		.2byte	0x2
 5406 0aa7 77       		.byte	0x77
 5407 0aa8 10       		.sleb128 16
 5408 0aa9 00000000 		.4byte	0x0
 5409 0aad 00000000 		.4byte	0x0
 5410              	.LLST55:
 5411 0ab1 00000000 		.4byte	.LFB55
 5412 0ab5 02000000 		.4byte	.LCFI141
 5413 0ab9 0100     		.2byte	0x1
 5414 0abb 5D       		.byte	0x5d
 5415 0abc 02000000 		.4byte	.LCFI141
 5416 0ac0 04000000 		.4byte	.LCFI142
 5417 0ac4 0200     		.2byte	0x2
 5418 0ac6 7D       		.byte	0x7d
 5419 0ac7 08       		.sleb128 8
 5420 0ac8 04000000 		.4byte	.LCFI142
 5421 0acc 06000000 		.4byte	.LCFI143
 5422 0ad0 0200     		.2byte	0x2
 5423 0ad2 7D       		.byte	0x7d
 5424 0ad3 18       		.sleb128 24
 5425 0ad4 06000000 		.4byte	.LCFI143
 5426 0ad8 2C000000 		.4byte	.LFE55
 5427 0adc 0200     		.2byte	0x2
 5428 0ade 77       		.byte	0x77
 5429 0adf 18       		.sleb128 24
 5430 0ae0 00000000 		.4byte	0x0
 5431 0ae4 00000000 		.4byte	0x0
 5432              	.LLST56:
 5433 0ae8 00000000 		.4byte	.LFB56
 5434 0aec 02000000 		.4byte	.LCFI144
 5435 0af0 0100     		.2byte	0x1
 5436 0af2 5D       		.byte	0x5d
 5437 0af3 02000000 		.4byte	.LCFI144
ARM GAS  C:\Users\karunmj\AppData\Local\Temp\cceFJIz4.s 			page 142


 5438 0af7 04000000 		.4byte	.LCFI145
 5439 0afb 0200     		.2byte	0x2
 5440 0afd 7D       		.byte	0x7d
 5441 0afe 08       		.sleb128 8
 5442 0aff 04000000 		.4byte	.LCFI145
 5443 0b03 06000000 		.4byte	.LCFI146
 5444 0b07 0200     		.2byte	0x2
 5445 0b09 7D       		.byte	0x7d
 5446 0b0a 10       		.sleb128 16
 5447 0b0b 06000000 		.4byte	.LCFI146
 5448 0b0f 7A000000 		.4byte	.LFE56
 5449 0b13 0200     		.2byte	0x2
 5450 0b15 77       		.byte	0x77
 5451 0b16 10       		.sleb128 16
 5452 0b17 00000000 		.4byte	0x0
 5453 0b1b 00000000 		.4byte	0x0
 5454              	.LLST57:
 5455 0b1f 00000000 		.4byte	.LFB57
 5456 0b23 02000000 		.4byte	.LCFI147
 5457 0b27 0100     		.2byte	0x1
 5458 0b29 5D       		.byte	0x5d
 5459 0b2a 02000000 		.4byte	.LCFI147
 5460 0b2e 04000000 		.4byte	.LCFI148
 5461 0b32 0200     		.2byte	0x2
 5462 0b34 7D       		.byte	0x7d
 5463 0b35 08       		.sleb128 8
 5464 0b36 04000000 		.4byte	.LCFI148
 5465 0b3a 06000000 		.4byte	.LCFI149
 5466 0b3e 0200     		.2byte	0x2
 5467 0b40 7D       		.byte	0x7d
 5468 0b41 18       		.sleb128 24
 5469 0b42 06000000 		.4byte	.LCFI149
 5470 0b46 56000000 		.4byte	.LFE57
 5471 0b4a 0200     		.2byte	0x2
 5472 0b4c 77       		.byte	0x77
 5473 0b4d 18       		.sleb128 24
 5474 0b4e 00000000 		.4byte	0x0
 5475 0b52 00000000 		.4byte	0x0
 5476              	.LLST58:
 5477 0b56 00000000 		.4byte	.LFB58
 5478 0b5a 02000000 		.4byte	.LCFI150
 5479 0b5e 0100     		.2byte	0x1
 5480 0b60 5D       		.byte	0x5d
 5481 0b61 02000000 		.4byte	.LCFI150
 5482 0b65 04000000 		.4byte	.LCFI151
 5483 0b69 0200     		.2byte	0x2
 5484 0b6b 7D       		.byte	0x7d
 5485 0b6c 08       		.sleb128 8
 5486 0b6d 04000000 		.4byte	.LCFI151
 5487 0b71 06000000 		.4byte	.LCFI152
 5488 0b75 0200     		.2byte	0x2
 5489 0b77 7D       		.byte	0x7d
 5490 0b78 18       		.sleb128 24
 5491 0b79 06000000 		.4byte	.LCFI152
 5492 0b7d 3E000000 		.4byte	.LFE58
 5493 0b81 0200     		.2byte	0x2
 5494 0b83 77       		.byte	0x77
ARM GAS  C:\Users\karunmj\AppData\Local\Temp\cceFJIz4.s 			page 143


 5495 0b84 18       		.sleb128 24
 5496 0b85 00000000 		.4byte	0x0
 5497 0b89 00000000 		.4byte	0x0
 5498              	.LLST59:
 5499 0b8d 00000000 		.4byte	.LFB59
 5500 0b91 02000000 		.4byte	.LCFI153
 5501 0b95 0100     		.2byte	0x1
 5502 0b97 5D       		.byte	0x5d
 5503 0b98 02000000 		.4byte	.LCFI153
 5504 0b9c 04000000 		.4byte	.LCFI154
 5505 0ba0 0200     		.2byte	0x2
 5506 0ba2 7D       		.byte	0x7d
 5507 0ba3 08       		.sleb128 8
 5508 0ba4 04000000 		.4byte	.LCFI154
 5509 0ba8 06000000 		.4byte	.LCFI155
 5510 0bac 0200     		.2byte	0x2
 5511 0bae 7D       		.byte	0x7d
 5512 0baf 18       		.sleb128 24
 5513 0bb0 06000000 		.4byte	.LCFI155
 5514 0bb4 5E000000 		.4byte	.LFE59
 5515 0bb8 0200     		.2byte	0x2
 5516 0bba 77       		.byte	0x77
 5517 0bbb 18       		.sleb128 24
 5518 0bbc 00000000 		.4byte	0x0
 5519 0bc0 00000000 		.4byte	0x0
 5520              	.LLST60:
 5521 0bc4 00000000 		.4byte	.LFB60
 5522 0bc8 02000000 		.4byte	.LCFI156
 5523 0bcc 0100     		.2byte	0x1
 5524 0bce 5D       		.byte	0x5d
 5525 0bcf 02000000 		.4byte	.LCFI156
 5526 0bd3 04000000 		.4byte	.LCFI157
 5527 0bd7 0200     		.2byte	0x2
 5528 0bd9 7D       		.byte	0x7d
 5529 0bda 08       		.sleb128 8
 5530 0bdb 04000000 		.4byte	.LCFI157
 5531 0bdf 06000000 		.4byte	.LCFI158
 5532 0be3 0200     		.2byte	0x2
 5533 0be5 7D       		.byte	0x7d
 5534 0be6 18       		.sleb128 24
 5535 0be7 06000000 		.4byte	.LCFI158
 5536 0beb 42000000 		.4byte	.LFE60
 5537 0bef 0200     		.2byte	0x2
 5538 0bf1 77       		.byte	0x77
 5539 0bf2 18       		.sleb128 24
 5540 0bf3 00000000 		.4byte	0x0
 5541 0bf7 00000000 		.4byte	0x0
 5542              	.LLST61:
 5543 0bfb 00000000 		.4byte	.LFB61
 5544 0bff 02000000 		.4byte	.LCFI159
 5545 0c03 0100     		.2byte	0x1
 5546 0c05 5D       		.byte	0x5d
 5547 0c06 02000000 		.4byte	.LCFI159
 5548 0c0a 04000000 		.4byte	.LCFI160
 5549 0c0e 0200     		.2byte	0x2
 5550 0c10 7D       		.byte	0x7d
 5551 0c11 08       		.sleb128 8
ARM GAS  C:\Users\karunmj\AppData\Local\Temp\cceFJIz4.s 			page 144


 5552 0c12 04000000 		.4byte	.LCFI160
 5553 0c16 06000000 		.4byte	.LCFI161
 5554 0c1a 0200     		.2byte	0x2
 5555 0c1c 7D       		.byte	0x7d
 5556 0c1d 10       		.sleb128 16
 5557 0c1e 06000000 		.4byte	.LCFI161
 5558 0c22 4A000000 		.4byte	.LFE61
 5559 0c26 0200     		.2byte	0x2
 5560 0c28 77       		.byte	0x77
 5561 0c29 10       		.sleb128 16
 5562 0c2a 00000000 		.4byte	0x0
 5563 0c2e 00000000 		.4byte	0x0
 5564              	.LLST62:
 5565 0c32 00000000 		.4byte	.LFB62
 5566 0c36 02000000 		.4byte	.LCFI162
 5567 0c3a 0100     		.2byte	0x1
 5568 0c3c 5D       		.byte	0x5d
 5569 0c3d 02000000 		.4byte	.LCFI162
 5570 0c41 04000000 		.4byte	.LCFI163
 5571 0c45 0200     		.2byte	0x2
 5572 0c47 7D       		.byte	0x7d
 5573 0c48 08       		.sleb128 8
 5574 0c49 04000000 		.4byte	.LCFI163
 5575 0c4d 06000000 		.4byte	.LCFI164
 5576 0c51 0200     		.2byte	0x2
 5577 0c53 7D       		.byte	0x7d
 5578 0c54 18       		.sleb128 24
 5579 0c55 06000000 		.4byte	.LCFI164
 5580 0c59 3C000000 		.4byte	.LFE62
 5581 0c5d 0200     		.2byte	0x2
 5582 0c5f 77       		.byte	0x77
 5583 0c60 18       		.sleb128 24
 5584 0c61 00000000 		.4byte	0x0
 5585 0c65 00000000 		.4byte	0x0
 5586              	.LLST63:
 5587 0c69 00000000 		.4byte	.LFB63
 5588 0c6d 02000000 		.4byte	.LCFI165
 5589 0c71 0100     		.2byte	0x1
 5590 0c73 5D       		.byte	0x5d
 5591 0c74 02000000 		.4byte	.LCFI165
 5592 0c78 04000000 		.4byte	.LCFI166
 5593 0c7c 0200     		.2byte	0x2
 5594 0c7e 7D       		.byte	0x7d
 5595 0c7f 08       		.sleb128 8
 5596 0c80 04000000 		.4byte	.LCFI166
 5597 0c84 06000000 		.4byte	.LCFI167
 5598 0c88 0200     		.2byte	0x2
 5599 0c8a 7D       		.byte	0x7d
 5600 0c8b 18       		.sleb128 24
 5601 0c8c 06000000 		.4byte	.LCFI167
 5602 0c90 40000000 		.4byte	.LFE63
 5603 0c94 0200     		.2byte	0x2
 5604 0c96 77       		.byte	0x77
 5605 0c97 18       		.sleb128 24
 5606 0c98 00000000 		.4byte	0x0
 5607 0c9c 00000000 		.4byte	0x0
 5608              		.file 2 ".\\Generated_Source\\PSoC5\\/cytypes.h"
ARM GAS  C:\Users\karunmj\AppData\Local\Temp\cceFJIz4.s 			page 145


 5609              		.section	.debug_info
 5610 0000 6D0C0000 		.4byte	0xc6d
 5611 0004 0200     		.2byte	0x2
 5612 0006 00000000 		.4byte	.Ldebug_abbrev0
 5613 000a 04       		.byte	0x4
 5614 000b 01       		.uleb128 0x1
 5615 000c CD000000 		.4byte	.LASF129
 5616 0010 01       		.byte	0x1
 5617 0011 FF030000 		.4byte	.LASF130
 5618 0015 CA040000 		.4byte	.LASF131
 5619 0019 00000000 		.4byte	0x0
 5620 001d 00000000 		.4byte	0x0
 5621 0021 00000000 		.4byte	.Ldebug_ranges0+0x0
 5622 0025 00000000 		.4byte	.Ldebug_line0
 5623 0029 02       		.uleb128 0x2
 5624 002a 01       		.byte	0x1
 5625 002b 06       		.byte	0x6
 5626 002c 30010000 		.4byte	.LASF0
 5627 0030 02       		.uleb128 0x2
 5628 0031 01       		.byte	0x1
 5629 0032 08       		.byte	0x8
 5630 0033 34050000 		.4byte	.LASF1
 5631 0037 02       		.uleb128 0x2
 5632 0038 02       		.byte	0x2
 5633 0039 05       		.byte	0x5
 5634 003a 50050000 		.4byte	.LASF2
 5635 003e 02       		.uleb128 0x2
 5636 003f 02       		.byte	0x2
 5637 0040 07       		.byte	0x7
 5638 0041 87020000 		.4byte	.LASF3
 5639 0045 03       		.uleb128 0x3
 5640 0046 04       		.byte	0x4
 5641 0047 05       		.byte	0x5
 5642 0048 696E7400 		.ascii	"int\000"
 5643 004c 02       		.uleb128 0x2
 5644 004d 04       		.byte	0x4
 5645 004e 07       		.byte	0x7
 5646 004f F0010000 		.4byte	.LASF4
 5647 0053 02       		.uleb128 0x2
 5648 0054 08       		.byte	0x8
 5649 0055 05       		.byte	0x5
 5650 0056 22010000 		.4byte	.LASF5
 5651 005a 02       		.uleb128 0x2
 5652 005b 08       		.byte	0x8
 5653 005c 07       		.byte	0x7
 5654 005d B6000000 		.4byte	.LASF6
 5655 0061 02       		.uleb128 0x2
 5656 0062 04       		.byte	0x4
 5657 0063 05       		.byte	0x5
 5658 0064 75010000 		.4byte	.LASF7
 5659 0068 04       		.uleb128 0x4
 5660 0069 04       		.byte	0x4
 5661 006a 07       		.byte	0x7
 5662 006b 02       		.uleb128 0x2
 5663 006c 04       		.byte	0x4
 5664 006d 07       		.byte	0x7
 5665 006e 2A020000 		.4byte	.LASF8
ARM GAS  C:\Users\karunmj\AppData\Local\Temp\cceFJIz4.s 			page 146


 5666 0072 05       		.uleb128 0x5
 5667 0073 01       		.byte	0x1
 5668 0074 06       		.uleb128 0x6
 5669 0075 04       		.byte	0x4
 5670 0076 72000000 		.4byte	0x72
 5671 007a 02       		.uleb128 0x2
 5672 007b 01       		.byte	0x1
 5673 007c 08       		.byte	0x8
 5674 007d FD050000 		.4byte	.LASF9
 5675 0081 07       		.uleb128 0x7
 5676 0082 92010000 		.4byte	.LASF10
 5677 0086 02       		.byte	0x2
 5678 0087 4C       		.byte	0x4c
 5679 0088 30000000 		.4byte	0x30
 5680 008c 07       		.uleb128 0x7
 5681 008d 15000000 		.4byte	.LASF11
 5682 0091 02       		.byte	0x2
 5683 0092 4D       		.byte	0x4d
 5684 0093 3E000000 		.4byte	0x3e
 5685 0097 07       		.uleb128 0x7
 5686 0098 C1010000 		.4byte	.LASF12
 5687 009c 02       		.byte	0x2
 5688 009d 4E       		.byte	0x4e
 5689 009e 6B000000 		.4byte	0x6b
 5690 00a2 02       		.uleb128 0x2
 5691 00a3 04       		.byte	0x4
 5692 00a4 04       		.byte	0x4
 5693 00a5 3F040000 		.4byte	.LASF13
 5694 00a9 02       		.uleb128 0x2
 5695 00aa 08       		.byte	0x8
 5696 00ab 04       		.byte	0x4
 5697 00ac A2010000 		.4byte	.LASF14
 5698 00b0 07       		.uleb128 0x7
 5699 00b1 15070000 		.4byte	.LASF15
 5700 00b5 02       		.byte	0x2
 5701 00b6 D1       		.byte	0xd1
 5702 00b7 6B000000 		.4byte	0x6b
 5703 00bb 08       		.uleb128 0x8
 5704 00bc 81000000 		.4byte	0x81
 5705 00c0 08       		.uleb128 0x8
 5706 00c1 8C000000 		.4byte	0x8c
 5707 00c5 07       		.uleb128 0x7
 5708 00c6 07060000 		.4byte	.LASF16
 5709 00ca 02       		.byte	0x2
 5710 00cb EB       		.byte	0xeb
 5711 00cc 74000000 		.4byte	0x74
 5712 00d0 09       		.uleb128 0x9
 5713 00d1 01       		.byte	0x1
 5714 00d2 14060000 		.4byte	.LASF60
 5715 00d6 01       		.byte	0x1
 5716 00d7 5A       		.byte	0x5a
 5717 00d8 01       		.byte	0x1
 5718 00d9 B0000000 		.4byte	0xb0
 5719 00dd 00000000 		.4byte	.LFB0
 5720 00e1 DA000000 		.4byte	.LFE0
 5721 00e5 00000000 		.4byte	.LLST0
 5722 00e9 34010000 		.4byte	0x134
ARM GAS  C:\Users\karunmj\AppData\Local\Temp\cceFJIz4.s 			page 147


 5723 00ed 0A       		.uleb128 0xa
 5724 00ee 6A010000 		.4byte	.LASF21
 5725 00f2 01       		.byte	0x1
 5726 00f3 5A       		.byte	0x5a
 5727 00f4 81000000 		.4byte	0x81
 5728 00f8 02       		.byte	0x2
 5729 00f9 91       		.byte	0x91
 5730 00fa 6F       		.sleb128 -17
 5731 00fb 0B       		.uleb128 0xb
 5732 00fc B4060000 		.4byte	.LASF17
 5733 0100 01       		.byte	0x1
 5734 0101 5C       		.byte	0x5c
 5735 0102 B0000000 		.4byte	0xb0
 5736 0106 02       		.byte	0x2
 5737 0107 91       		.byte	0x91
 5738 0108 70       		.sleb128 -16
 5739 0109 0B       		.uleb128 0xb
 5740 010a 5A050000 		.4byte	.LASF18
 5741 010e 01       		.byte	0x1
 5742 010f 5E       		.byte	0x5e
 5743 0110 81000000 		.4byte	0x81
 5744 0114 02       		.byte	0x2
 5745 0115 91       		.byte	0x91
 5746 0116 75       		.sleb128 -11
 5747 0117 0B       		.uleb128 0xb
 5748 0118 D9000000 		.4byte	.LASF19
 5749 011c 01       		.byte	0x1
 5750 011d 5F       		.byte	0x5f
 5751 011e 81000000 		.4byte	0x81
 5752 0122 02       		.byte	0x2
 5753 0123 91       		.byte	0x91
 5754 0124 76       		.sleb128 -10
 5755 0125 0B       		.uleb128 0xb
 5756 0126 42050000 		.4byte	.LASF20
 5757 012a 01       		.byte	0x1
 5758 012b 60       		.byte	0x60
 5759 012c 81000000 		.4byte	0x81
 5760 0130 02       		.byte	0x2
 5761 0131 91       		.byte	0x91
 5762 0132 77       		.sleb128 -9
 5763 0133 00       		.byte	0x0
 5764 0134 0C       		.uleb128 0xc
 5765 0135 01       		.byte	0x1
 5766 0136 A8030000 		.4byte	.LASF32
 5767 013a 01       		.byte	0x1
 5768 013b 9B       		.byte	0x9b
 5769 013c 01       		.byte	0x1
 5770 013d 00000000 		.4byte	.LFB1
 5771 0141 24000000 		.4byte	.LFE1
 5772 0145 37000000 		.4byte	.LLST1
 5773 0149 0D       		.uleb128 0xd
 5774 014a 01       		.byte	0x1
 5775 014b 1A030000 		.4byte	.LASF25
 5776 014f 01       		.byte	0x1
 5777 0150 C1       		.byte	0xc1
 5778 0151 01       		.byte	0x1
 5779 0152 00000000 		.4byte	.LFB2
ARM GAS  C:\Users\karunmj\AppData\Local\Temp\cceFJIz4.s 			page 148


 5780 0156 AA000000 		.4byte	.LFE2
 5781 015a 62000000 		.4byte	.LLST2
 5782 015e 8D010000 		.4byte	0x18d
 5783 0162 0A       		.uleb128 0xa
 5784 0163 CB060000 		.4byte	.LASF22
 5785 0167 01       		.byte	0x1
 5786 0168 C1       		.byte	0xc1
 5787 0169 81000000 		.4byte	0x81
 5788 016d 02       		.byte	0x2
 5789 016e 91       		.byte	0x91
 5790 016f 77       		.sleb128 -9
 5791 0170 0A       		.uleb128 0xa
 5792 0171 4B060000 		.4byte	.LASF23
 5793 0175 01       		.byte	0x1
 5794 0176 C1       		.byte	0xc1
 5795 0177 81000000 		.4byte	0x81
 5796 017b 02       		.byte	0x2
 5797 017c 91       		.byte	0x91
 5798 017d 76       		.sleb128 -10
 5799 017e 0A       		.uleb128 0xa
 5800 017f 37040000 		.4byte	.LASF24
 5801 0183 01       		.byte	0x1
 5802 0184 C1       		.byte	0xc1
 5803 0185 81000000 		.4byte	0x81
 5804 0189 02       		.byte	0x2
 5805 018a 91       		.byte	0x91
 5806 018b 75       		.sleb128 -11
 5807 018c 00       		.byte	0x0
 5808 018d 0D       		.uleb128 0xd
 5809 018e 01       		.byte	0x1
 5810 018f 7E010000 		.4byte	.LASF26
 5811 0193 01       		.byte	0x1
 5812 0194 F8       		.byte	0xf8
 5813 0195 01       		.byte	0x1
 5814 0196 00000000 		.4byte	.LFB3
 5815 019a 64000000 		.4byte	.LFE3
 5816 019e 99000000 		.4byte	.LLST3
 5817 01a2 B5010000 		.4byte	0x1b5
 5818 01a6 0A       		.uleb128 0xa
 5819 01a7 6C030000 		.4byte	.LASF27
 5820 01ab 01       		.byte	0x1
 5821 01ac F8       		.byte	0xf8
 5822 01ad 81000000 		.4byte	0x81
 5823 01b1 02       		.byte	0x2
 5824 01b2 91       		.byte	0x91
 5825 01b3 77       		.sleb128 -9
 5826 01b4 00       		.byte	0x0
 5827 01b5 0E       		.uleb128 0xe
 5828 01b6 01       		.byte	0x1
 5829 01b7 42000000 		.4byte	.LASF28
 5830 01bb 01       		.byte	0x1
 5831 01bc 2A01     		.2byte	0x12a
 5832 01be 01       		.byte	0x1
 5833 01bf 00000000 		.4byte	.LFB4
 5834 01c3 D0000000 		.4byte	.LFE4
 5835 01c7 D0000000 		.4byte	.LLST4
 5836 01cb 0C020000 		.4byte	0x20c
ARM GAS  C:\Users\karunmj\AppData\Local\Temp\cceFJIz4.s 			page 149


 5837 01cf 0F       		.uleb128 0xf
 5838 01d0 6A010000 		.4byte	.LASF21
 5839 01d4 01       		.byte	0x1
 5840 01d5 2A01     		.2byte	0x12a
 5841 01d7 81000000 		.4byte	0x81
 5842 01db 02       		.byte	0x2
 5843 01dc 91       		.byte	0x91
 5844 01dd 6F       		.sleb128 -17
 5845 01de 10       		.uleb128 0x10
 5846 01df E0050000 		.4byte	.LASF29
 5847 01e3 01       		.byte	0x1
 5848 01e4 2C01     		.2byte	0x12c
 5849 01e6 81000000 		.4byte	0x81
 5850 01ea 02       		.byte	0x2
 5851 01eb 91       		.byte	0x91
 5852 01ec 75       		.sleb128 -11
 5853 01ed 10       		.uleb128 0x10
 5854 01ee 26070000 		.4byte	.LASF30
 5855 01f2 01       		.byte	0x1
 5856 01f3 2D01     		.2byte	0x12d
 5857 01f5 81000000 		.4byte	0x81
 5858 01f9 02       		.byte	0x2
 5859 01fa 91       		.byte	0x91
 5860 01fb 76       		.sleb128 -10
 5861 01fc 10       		.uleb128 0x10
 5862 01fd 71070000 		.4byte	.LASF31
 5863 0201 01       		.byte	0x1
 5864 0202 2E01     		.2byte	0x12e
 5865 0204 81000000 		.4byte	0x81
 5866 0208 02       		.byte	0x2
 5867 0209 91       		.byte	0x91
 5868 020a 77       		.sleb128 -9
 5869 020b 00       		.byte	0x0
 5870 020c 11       		.uleb128 0x11
 5871 020d 01       		.byte	0x1
 5872 020e 7C020000 		.4byte	.LASF33
 5873 0212 01       		.byte	0x1
 5874 0213 6D01     		.2byte	0x16d
 5875 0215 01       		.byte	0x1
 5876 0216 00000000 		.4byte	.LFB5
 5877 021a 24000000 		.4byte	.LFE5
 5878 021e 07010000 		.4byte	.LLST5
 5879 0222 12       		.uleb128 0x12
 5880 0223 17020000 		.4byte	.LASF132
 5881 0227 01       		.byte	0x1
 5882 0228 8201     		.2byte	0x182
 5883 022a 01       		.byte	0x1
 5884 022b 81000000 		.4byte	0x81
 5885 022f 00000000 		.4byte	.LFB6
 5886 0233 74000000 		.4byte	.LFE6
 5887 0237 32010000 		.4byte	.LLST6
 5888 023b 4F020000 		.4byte	0x24f
 5889 023f 10       		.uleb128 0x10
 5890 0240 96050000 		.4byte	.LASF34
 5891 0244 01       		.byte	0x1
 5892 0245 8401     		.2byte	0x184
 5893 0247 81000000 		.4byte	0x81
ARM GAS  C:\Users\karunmj\AppData\Local\Temp\cceFJIz4.s 			page 150


 5894 024b 02       		.byte	0x2
 5895 024c 91       		.byte	0x91
 5896 024d 77       		.sleb128 -9
 5897 024e 00       		.byte	0x0
 5898 024f 13       		.uleb128 0x13
 5899 0250 02070000 		.4byte	.LASF46
 5900 0254 01       		.byte	0x1
 5901 0255 A101     		.2byte	0x1a1
 5902 0257 01       		.byte	0x1
 5903 0258 00000000 		.4byte	.LFB7
 5904 025c 42010000 		.4byte	.LFE7
 5905 0260 69010000 		.4byte	.LLST7
 5906 0264 87020000 		.4byte	0x287
 5907 0268 0F       		.uleb128 0xf
 5908 0269 3C010000 		.4byte	.LASF35
 5909 026d 01       		.byte	0x1
 5910 026e A101     		.2byte	0x1a1
 5911 0270 81000000 		.4byte	0x81
 5912 0274 02       		.byte	0x2
 5913 0275 91       		.byte	0x91
 5914 0276 6F       		.sleb128 -17
 5915 0277 10       		.uleb128 0x10
 5916 0278 DA030000 		.4byte	.LASF36
 5917 027c 01       		.byte	0x1
 5918 027d A301     		.2byte	0x1a3
 5919 027f 81000000 		.4byte	0x81
 5920 0283 02       		.byte	0x2
 5921 0284 91       		.byte	0x91
 5922 0285 77       		.sleb128 -9
 5923 0286 00       		.byte	0x0
 5924 0287 0E       		.uleb128 0xe
 5925 0288 01       		.byte	0x1
 5926 0289 D0060000 		.4byte	.LASF37
 5927 028d 01       		.byte	0x1
 5928 028e FE01     		.2byte	0x1fe
 5929 0290 01       		.byte	0x1
 5930 0291 00000000 		.4byte	.LFB8
 5931 0295 E4010000 		.4byte	.LFE8
 5932 0299 A0010000 		.4byte	.LLST8
 5933 029d CF020000 		.4byte	0x2cf
 5934 02a1 0F       		.uleb128 0xf
 5935 02a2 3C010000 		.4byte	.LASF35
 5936 02a6 01       		.byte	0x1
 5937 02a7 FE01     		.2byte	0x1fe
 5938 02a9 81000000 		.4byte	0x81
 5939 02ad 02       		.byte	0x2
 5940 02ae 91       		.byte	0x91
 5941 02af 6F       		.sleb128 -17
 5942 02b0 10       		.uleb128 0x10
 5943 02b1 70060000 		.4byte	.LASF38
 5944 02b5 01       		.byte	0x1
 5945 02b6 0002     		.2byte	0x200
 5946 02b8 81000000 		.4byte	0x81
 5947 02bc 02       		.byte	0x2
 5948 02bd 91       		.byte	0x91
 5949 02be 76       		.sleb128 -10
 5950 02bf 10       		.uleb128 0x10
ARM GAS  C:\Users\karunmj\AppData\Local\Temp\cceFJIz4.s 			page 151


 5951 02c0 ED050000 		.4byte	.LASF39
 5952 02c4 01       		.byte	0x1
 5953 02c5 0102     		.2byte	0x201
 5954 02c7 81000000 		.4byte	0x81
 5955 02cb 02       		.byte	0x2
 5956 02cc 91       		.byte	0x91
 5957 02cd 77       		.sleb128 -9
 5958 02ce 00       		.byte	0x0
 5959 02cf 0E       		.uleb128 0xe
 5960 02d0 01       		.byte	0x1
 5961 02d1 FD010000 		.4byte	.LASF40
 5962 02d5 01       		.byte	0x1
 5963 02d6 9602     		.2byte	0x296
 5964 02d8 01       		.byte	0x1
 5965 02d9 00000000 		.4byte	.LFB9
 5966 02dd B8000000 		.4byte	.LFE9
 5967 02e1 D7010000 		.4byte	.LLST9
 5968 02e5 F9020000 		.4byte	0x2f9
 5969 02e9 0F       		.uleb128 0xf
 5970 02ea 6C030000 		.4byte	.LASF27
 5971 02ee 01       		.byte	0x1
 5972 02ef 9602     		.2byte	0x296
 5973 02f1 81000000 		.4byte	0x81
 5974 02f5 02       		.byte	0x2
 5975 02f6 91       		.byte	0x91
 5976 02f7 77       		.sleb128 -9
 5977 02f8 00       		.byte	0x0
 5978 02f9 11       		.uleb128 0x11
 5979 02fa 01       		.byte	0x1
 5980 02fb 64000000 		.4byte	.LASF41
 5981 02ff 01       		.byte	0x1
 5982 0300 BF02     		.2byte	0x2bf
 5983 0302 01       		.byte	0x1
 5984 0303 00000000 		.4byte	.LFB10
 5985 0307 26000000 		.4byte	.LFE10
 5986 030b 0E020000 		.4byte	.LLST10
 5987 030f 11       		.uleb128 0x11
 5988 0310 01       		.byte	0x1
 5989 0311 8B030000 		.4byte	.LASF42
 5990 0315 01       		.byte	0x1
 5991 0316 D402     		.2byte	0x2d4
 5992 0318 01       		.byte	0x1
 5993 0319 00000000 		.4byte	.LFB11
 5994 031d 24000000 		.4byte	.LFE11
 5995 0321 39020000 		.4byte	.LLST11
 5996 0325 0E       		.uleb128 0xe
 5997 0326 01       		.byte	0x1
 5998 0327 C8020000 		.4byte	.LASF43
 5999 032b 01       		.byte	0x1
 6000 032c F702     		.2byte	0x2f7
 6001 032e 01       		.byte	0x1
 6002 032f 00000000 		.4byte	.LFB12
 6003 0333 3C000000 		.4byte	.LFE12
 6004 0337 64020000 		.4byte	.LLST12
 6005 033b 4F030000 		.4byte	0x34f
 6006 033f 0F       		.uleb128 0xf
 6007 0340 6C030000 		.4byte	.LASF27
ARM GAS  C:\Users\karunmj\AppData\Local\Temp\cceFJIz4.s 			page 152


 6008 0344 01       		.byte	0x1
 6009 0345 F702     		.2byte	0x2f7
 6010 0347 81000000 		.4byte	0x81
 6011 034b 02       		.byte	0x2
 6012 034c 91       		.byte	0x91
 6013 034d 77       		.sleb128 -9
 6014 034e 00       		.byte	0x0
 6015 034f 0E       		.uleb128 0xe
 6016 0350 01       		.byte	0x1
 6017 0351 20040000 		.4byte	.LASF44
 6018 0355 01       		.byte	0x1
 6019 0356 3303     		.2byte	0x333
 6020 0358 01       		.byte	0x1
 6021 0359 00000000 		.4byte	.LFB13
 6022 035d 20000000 		.4byte	.LFE13
 6023 0361 9B020000 		.4byte	.LLST13
 6024 0365 79030000 		.4byte	0x379
 6025 0369 0F       		.uleb128 0xf
 6026 036a 1C000000 		.4byte	.LASF45
 6027 036e 01       		.byte	0x1
 6028 036f 3303     		.2byte	0x333
 6029 0371 81000000 		.4byte	0x81
 6030 0375 02       		.byte	0x2
 6031 0376 91       		.byte	0x91
 6032 0377 77       		.sleb128 -9
 6033 0378 00       		.byte	0x0
 6034 0379 13       		.uleb128 0x13
 6035 037a 86000000 		.4byte	.LASF47
 6036 037e 01       		.byte	0x1
 6037 037f 4903     		.2byte	0x349
 6038 0381 01       		.byte	0x1
 6039 0382 00000000 		.4byte	.LFB14
 6040 0386 9A000000 		.4byte	.LFE14
 6041 038a D2020000 		.4byte	.LLST14
 6042 038e A2030000 		.4byte	0x3a2
 6043 0392 0F       		.uleb128 0xf
 6044 0393 1C000000 		.4byte	.LASF45
 6045 0397 01       		.byte	0x1
 6046 0398 4903     		.2byte	0x349
 6047 039a 8C000000 		.4byte	0x8c
 6048 039e 02       		.byte	0x2
 6049 039f 91       		.byte	0x91
 6050 03a0 76       		.sleb128 -10
 6051 03a1 00       		.byte	0x0
 6052 03a2 0E       		.uleb128 0xe
 6053 03a3 01       		.byte	0x1
 6054 03a4 84060000 		.4byte	.LASF48
 6055 03a8 01       		.byte	0x1
 6056 03a9 7803     		.2byte	0x378
 6057 03ab 01       		.byte	0x1
 6058 03ac 00000000 		.4byte	.LFB15
 6059 03b0 CC000000 		.4byte	.LFE15
 6060 03b4 09030000 		.4byte	.LLST15
 6061 03b8 F9030000 		.4byte	0x3f9
 6062 03bc 0F       		.uleb128 0xf
 6063 03bd 1C000000 		.4byte	.LASF45
 6064 03c1 01       		.byte	0x1
ARM GAS  C:\Users\karunmj\AppData\Local\Temp\cceFJIz4.s 			page 153


 6065 03c2 7803     		.2byte	0x378
 6066 03c4 8C000000 		.4byte	0x8c
 6067 03c8 02       		.byte	0x2
 6068 03c9 91       		.byte	0x91
 6069 03ca 6E       		.sleb128 -18
 6070 03cb 10       		.uleb128 0x10
 6071 03cc AC040000 		.4byte	.LASF49
 6072 03d0 01       		.byte	0x1
 6073 03d1 7A03     		.2byte	0x37a
 6074 03d3 81000000 		.4byte	0x81
 6075 03d7 02       		.byte	0x2
 6076 03d8 91       		.byte	0x91
 6077 03d9 73       		.sleb128 -13
 6078 03da 10       		.uleb128 0x10
 6079 03db 0D020000 		.4byte	.LASF50
 6080 03df 01       		.byte	0x1
 6081 03e0 7B03     		.2byte	0x37b
 6082 03e2 8C000000 		.4byte	0x8c
 6083 03e6 02       		.byte	0x2
 6084 03e7 91       		.byte	0x91
 6085 03e8 74       		.sleb128 -12
 6086 03e9 10       		.uleb128 0x10
 6087 03ea 4D010000 		.4byte	.LASF51
 6088 03ee 01       		.byte	0x1
 6089 03ef 7C03     		.2byte	0x37c
 6090 03f1 81000000 		.4byte	0x81
 6091 03f5 02       		.byte	0x2
 6092 03f6 91       		.byte	0x91
 6093 03f7 77       		.sleb128 -9
 6094 03f8 00       		.byte	0x0
 6095 03f9 0E       		.uleb128 0xe
 6096 03fa 01       		.byte	0x1
 6097 03fb 5D060000 		.4byte	.LASF52
 6098 03ff 01       		.byte	0x1
 6099 0400 DB03     		.2byte	0x3db
 6100 0402 01       		.byte	0x1
 6101 0403 00000000 		.4byte	.LFB16
 6102 0407 3C000000 		.4byte	.LFE16
 6103 040b 40030000 		.4byte	.LLST16
 6104 040f 23040000 		.4byte	0x423
 6105 0413 0F       		.uleb128 0xf
 6106 0414 6C030000 		.4byte	.LASF27
 6107 0418 01       		.byte	0x1
 6108 0419 DB03     		.2byte	0x3db
 6109 041b 81000000 		.4byte	0x81
 6110 041f 02       		.byte	0x2
 6111 0420 91       		.byte	0x91
 6112 0421 77       		.sleb128 -9
 6113 0422 00       		.byte	0x0
 6114 0423 11       		.uleb128 0x11
 6115 0424 01       		.byte	0x1
 6116 0425 5C010000 		.4byte	.LASF53
 6117 0429 01       		.byte	0x1
 6118 042a F403     		.2byte	0x3f4
 6119 042c 01       		.byte	0x1
 6120 042d 00000000 		.4byte	.LFB17
 6121 0431 26000000 		.4byte	.LFE17
ARM GAS  C:\Users\karunmj\AppData\Local\Temp\cceFJIz4.s 			page 154


 6122 0435 77030000 		.4byte	.LLST17
 6123 0439 11       		.uleb128 0x11
 6124 043a 01       		.byte	0x1
 6125 043b A9010000 		.4byte	.LASF54
 6126 043f 01       		.byte	0x1
 6127 0440 1004     		.2byte	0x410
 6128 0442 01       		.byte	0x1
 6129 0443 00000000 		.4byte	.LFB18
 6130 0447 24000000 		.4byte	.LFE18
 6131 044b A2030000 		.4byte	.LLST18
 6132 044f 11       		.uleb128 0x11
 6133 0450 01       		.byte	0x1
 6134 0451 CA030000 		.4byte	.LASF55
 6135 0455 01       		.byte	0x1
 6136 0456 2504     		.2byte	0x425
 6137 0458 01       		.byte	0x1
 6138 0459 00000000 		.4byte	.LFB19
 6139 045d 26000000 		.4byte	.LFE19
 6140 0461 CD030000 		.4byte	.LLST19
 6141 0465 11       		.uleb128 0x11
 6142 0466 01       		.byte	0x1
 6143 0467 4E000000 		.4byte	.LASF56
 6144 046b 01       		.byte	0x1
 6145 046c 3A04     		.2byte	0x43a
 6146 046e 01       		.byte	0x1
 6147 046f 00000000 		.4byte	.LFB20
 6148 0473 24000000 		.4byte	.LFE20
 6149 0477 F8030000 		.4byte	.LLST20
 6150 047b 11       		.uleb128 0x11
 6151 047c 01       		.byte	0x1
 6152 047d 5F040000 		.4byte	.LASF57
 6153 0481 01       		.byte	0x1
 6154 0482 5204     		.2byte	0x452
 6155 0484 01       		.byte	0x1
 6156 0485 00000000 		.4byte	.LFB21
 6157 0489 26000000 		.4byte	.LFE21
 6158 048d 23040000 		.4byte	.LLST21
 6159 0491 11       		.uleb128 0x11
 6160 0492 01       		.byte	0x1
 6161 0493 8B040000 		.4byte	.LASF58
 6162 0497 01       		.byte	0x1
 6163 0498 6A04     		.2byte	0x46a
 6164 049a 01       		.byte	0x1
 6165 049b 00000000 		.4byte	.LFB22
 6166 049f 24000000 		.4byte	.LFE22
 6167 04a3 4E040000 		.4byte	.LLST22
 6168 04a7 0E       		.uleb128 0xe
 6169 04a8 01       		.byte	0x1
 6170 04a9 BB060000 		.4byte	.LASF59
 6171 04ad 01       		.byte	0x1
 6172 04ae 8304     		.2byte	0x483
 6173 04b0 01       		.byte	0x1
 6174 04b1 00000000 		.4byte	.LFB23
 6175 04b5 42000000 		.4byte	.LFE23
 6176 04b9 79040000 		.4byte	.LLST23
 6177 04bd D1040000 		.4byte	0x4d1
 6178 04c1 0F       		.uleb128 0xf
ARM GAS  C:\Users\karunmj\AppData\Local\Temp\cceFJIz4.s 			page 155


 6179 04c2 6C030000 		.4byte	.LASF27
 6180 04c6 01       		.byte	0x1
 6181 04c7 8304     		.2byte	0x483
 6182 04c9 81000000 		.4byte	0x81
 6183 04cd 02       		.byte	0x2
 6184 04ce 91       		.byte	0x91
 6185 04cf 77       		.sleb128 -9
 6186 04d0 00       		.byte	0x0
 6187 04d1 14       		.uleb128 0x14
 6188 04d2 01       		.byte	0x1
 6189 04d3 69020000 		.4byte	.LASF61
 6190 04d7 01       		.byte	0x1
 6191 04d8 9B04     		.2byte	0x49b
 6192 04da 01       		.byte	0x1
 6193 04db 81000000 		.4byte	0x81
 6194 04df 00000000 		.4byte	.LFB24
 6195 04e3 58000000 		.4byte	.LFE24
 6196 04e7 B0040000 		.4byte	.LLST24
 6197 04eb 0E050000 		.4byte	0x50e
 6198 04ef 0F       		.uleb128 0xf
 6199 04f0 02060000 		.4byte	.LASF62
 6200 04f4 01       		.byte	0x1
 6201 04f5 9B04     		.2byte	0x49b
 6202 04f7 81000000 		.4byte	0x81
 6203 04fb 02       		.byte	0x2
 6204 04fc 91       		.byte	0x91
 6205 04fd 6F       		.sleb128 -17
 6206 04fe 10       		.uleb128 0x10
 6207 04ff 6F010000 		.4byte	.LASF63
 6208 0503 01       		.byte	0x1
 6209 0504 9D04     		.2byte	0x49d
 6210 0506 81000000 		.4byte	0x81
 6211 050a 02       		.byte	0x2
 6212 050b 91       		.byte	0x91
 6213 050c 77       		.sleb128 -9
 6214 050d 00       		.byte	0x0
 6215 050e 0E       		.uleb128 0xe
 6216 050f 01       		.byte	0x1
 6217 0510 A3000000 		.4byte	.LASF64
 6218 0514 01       		.byte	0x1
 6219 0515 BF04     		.2byte	0x4bf
 6220 0517 01       		.byte	0x1
 6221 0518 00000000 		.4byte	.LFB25
 6222 051c A2000000 		.4byte	.LFE25
 6223 0520 E7040000 		.4byte	.LLST25
 6224 0524 36050000 		.4byte	0x536
 6225 0528 15       		.uleb128 0x15
 6226 0529 6900     		.ascii	"i\000"
 6227 052b 01       		.byte	0x1
 6228 052c C104     		.2byte	0x4c1
 6229 052e C0000000 		.4byte	0xc0
 6230 0532 02       		.byte	0x2
 6231 0533 91       		.byte	0x91
 6232 0534 76       		.sleb128 -10
 6233 0535 00       		.byte	0x0
 6234 0536 11       		.uleb128 0x11
 6235 0537 01       		.byte	0x1
ARM GAS  C:\Users\karunmj\AppData\Local\Temp\cceFJIz4.s 			page 156


 6236 0538 57020000 		.4byte	.LASF65
 6237 053c 01       		.byte	0x1
 6238 053d EB04     		.2byte	0x4eb
 6239 053f 01       		.byte	0x1
 6240 0540 00000000 		.4byte	.LFB26
 6241 0544 60000000 		.4byte	.LFE26
 6242 0548 1E050000 		.4byte	.LLST26
 6243 054c 16       		.uleb128 0x16
 6244 054d 01       		.byte	0x1
 6245 054e DE060000 		.4byte	.LASF75
 6246 0552 01       		.byte	0x1
 6247 0553 0905     		.2byte	0x509
 6248 0555 01       		.byte	0x1
 6249 0556 81000000 		.4byte	0x81
 6250 055a 00000000 		.4byte	.LFB27
 6251 055e 1C000000 		.4byte	.LFE27
 6252 0562 49050000 		.4byte	.LLST27
 6253 0566 14       		.uleb128 0x14
 6254 0567 01       		.byte	0x1
 6255 0568 45040000 		.4byte	.LASF66
 6256 056c 01       		.byte	0x1
 6257 056d 2105     		.2byte	0x521
 6258 056f 01       		.byte	0x1
 6259 0570 81000000 		.4byte	0x81
 6260 0574 00000000 		.4byte	.LFB28
 6261 0578 F6000000 		.4byte	.LFE28
 6262 057c 74050000 		.4byte	.LLST28
 6263 0580 A3050000 		.4byte	0x5a3
 6264 0584 0F       		.uleb128 0xf
 6265 0585 02060000 		.4byte	.LASF62
 6266 0589 01       		.byte	0x1
 6267 058a 2105     		.2byte	0x521
 6268 058c 81000000 		.4byte	0x81
 6269 0590 02       		.byte	0x2
 6270 0591 91       		.byte	0x91
 6271 0592 6F       		.sleb128 -17
 6272 0593 10       		.uleb128 0x10
 6273 0594 6F010000 		.4byte	.LASF63
 6274 0598 01       		.byte	0x1
 6275 0599 2305     		.2byte	0x523
 6276 059b 81000000 		.4byte	0x81
 6277 059f 02       		.byte	0x2
 6278 05a0 91       		.byte	0x91
 6279 05a1 77       		.sleb128 -9
 6280 05a2 00       		.byte	0x0
 6281 05a3 14       		.uleb128 0x14
 6282 05a4 01       		.byte	0x1
 6283 05a5 3C030000 		.4byte	.LASF67
 6284 05a9 01       		.byte	0x1
 6285 05aa 6605     		.2byte	0x566
 6286 05ac 01       		.byte	0x1
 6287 05ad B0000000 		.4byte	0xb0
 6288 05b1 00000000 		.4byte	.LFB29
 6289 05b5 FE000000 		.4byte	.LFE29
 6290 05b9 AB050000 		.4byte	.LLST29
 6291 05bd 2B060000 		.4byte	0x62b
 6292 05c1 0F       		.uleb128 0xf
ARM GAS  C:\Users\karunmj\AppData\Local\Temp\cceFJIz4.s 			page 157


 6293 05c2 6A010000 		.4byte	.LASF21
 6294 05c6 01       		.byte	0x1
 6295 05c7 6605     		.2byte	0x566
 6296 05c9 81000000 		.4byte	0x81
 6297 05cd 02       		.byte	0x2
 6298 05ce 91       		.byte	0x91
 6299 05cf 67       		.sleb128 -25
 6300 05d0 10       		.uleb128 0x10
 6301 05d1 B4060000 		.4byte	.LASF17
 6302 05d5 01       		.byte	0x1
 6303 05d6 6805     		.2byte	0x568
 6304 05d8 B0000000 		.4byte	0xb0
 6305 05dc 02       		.byte	0x2
 6306 05dd 91       		.byte	0x91
 6307 05de 70       		.sleb128 -16
 6308 05df 10       		.uleb128 0x10
 6309 05e0 3C020000 		.4byte	.LASF68
 6310 05e4 01       		.byte	0x1
 6311 05e5 6D05     		.2byte	0x56d
 6312 05e7 BB000000 		.4byte	0xbb
 6313 05eb 02       		.byte	0x2
 6314 05ec 91       		.byte	0x91
 6315 05ed 6F       		.sleb128 -17
 6316 05ee 10       		.uleb128 0x10
 6317 05ef 0F000000 		.4byte	.LASF69
 6318 05f3 01       		.byte	0x1
 6319 05f4 7005     		.2byte	0x570
 6320 05f6 BB000000 		.4byte	0xbb
 6321 05fa 02       		.byte	0x2
 6322 05fb 91       		.byte	0x91
 6323 05fc 6E       		.sleb128 -18
 6324 05fd 10       		.uleb128 0x10
 6325 05fe 5A050000 		.4byte	.LASF18
 6326 0602 01       		.byte	0x1
 6327 0603 7105     		.2byte	0x571
 6328 0605 81000000 		.4byte	0x81
 6329 0609 02       		.byte	0x2
 6330 060a 91       		.byte	0x91
 6331 060b 75       		.sleb128 -11
 6332 060c 10       		.uleb128 0x10
 6333 060d 16010000 		.4byte	.LASF70
 6334 0611 01       		.byte	0x1
 6335 0612 7205     		.2byte	0x572
 6336 0614 81000000 		.4byte	0x81
 6337 0618 02       		.byte	0x2
 6338 0619 91       		.byte	0x91
 6339 061a 76       		.sleb128 -10
 6340 061b 10       		.uleb128 0x10
 6341 061c F6060000 		.4byte	.LASF71
 6342 0620 01       		.byte	0x1
 6343 0621 7305     		.2byte	0x573
 6344 0623 81000000 		.4byte	0x81
 6345 0627 02       		.byte	0x2
 6346 0628 91       		.byte	0x91
 6347 0629 77       		.sleb128 -9
 6348 062a 00       		.byte	0x0
 6349 062b 11       		.uleb128 0x11
ARM GAS  C:\Users\karunmj\AppData\Local\Temp\cceFJIz4.s 			page 158


 6350 062c 01       		.byte	0x1
 6351 062d 65070000 		.4byte	.LASF72
 6352 0631 01       		.byte	0x1
 6353 0632 C505     		.2byte	0x5c5
 6354 0634 01       		.byte	0x1
 6355 0635 00000000 		.4byte	.LFB30
 6356 0639 24000000 		.4byte	.LFE30
 6357 063d E2050000 		.4byte	.LLST30
 6358 0641 11       		.uleb128 0x11
 6359 0642 01       		.byte	0x1
 6360 0643 69050000 		.4byte	.LASF73
 6361 0647 01       		.byte	0x1
 6362 0648 DD05     		.2byte	0x5dd
 6363 064a 01       		.byte	0x1
 6364 064b 00000000 		.4byte	.LFB31
 6365 064f 24000000 		.4byte	.LFE31
 6366 0653 0D060000 		.4byte	.LLST31
 6367 0657 11       		.uleb128 0x11
 6368 0658 01       		.byte	0x1
 6369 0659 2A000000 		.4byte	.LASF74
 6370 065d 01       		.byte	0x1
 6371 065e F305     		.2byte	0x5f3
 6372 0660 01       		.byte	0x1
 6373 0661 00000000 		.4byte	.LFB32
 6374 0665 26000000 		.4byte	.LFE32
 6375 0669 38060000 		.4byte	.LLST32
 6376 066d 16       		.uleb128 0x16
 6377 066e 01       		.byte	0x1
 6378 066f 49030000 		.4byte	.LASF76
 6379 0673 01       		.byte	0x1
 6380 0674 0B06     		.2byte	0x60b
 6381 0676 01       		.byte	0x1
 6382 0677 81000000 		.4byte	0x81
 6383 067b 00000000 		.4byte	.LFB33
 6384 067f 28000000 		.4byte	.LFE33
 6385 0683 63060000 		.4byte	.LLST33
 6386 0687 11       		.uleb128 0x11
 6387 0688 01       		.byte	0x1
 6388 0689 EE020000 		.4byte	.LASF77
 6389 068d 01       		.byte	0x1
 6390 068e 2606     		.2byte	0x626
 6391 0690 01       		.byte	0x1
 6392 0691 00000000 		.4byte	.LFB34
 6393 0695 26000000 		.4byte	.LFE34
 6394 0699 8E060000 		.4byte	.LLST34
 6395 069d 11       		.uleb128 0x11
 6396 069e 01       		.byte	0x1
 6397 069f A0050000 		.4byte	.LASF78
 6398 06a3 01       		.byte	0x1
 6399 06a4 3C06     		.2byte	0x63c
 6400 06a6 01       		.byte	0x1
 6401 06a7 00000000 		.4byte	.LFB35
 6402 06ab 24000000 		.4byte	.LFE35
 6403 06af B9060000 		.4byte	.LLST35
 6404 06b3 0E       		.uleb128 0xe
 6405 06b4 01       		.byte	0x1
 6406 06b5 73030000 		.4byte	.LASF79
ARM GAS  C:\Users\karunmj\AppData\Local\Temp\cceFJIz4.s 			page 159


 6407 06b9 01       		.byte	0x1
 6408 06ba 5706     		.2byte	0x657
 6409 06bc 01       		.byte	0x1
 6410 06bd 00000000 		.4byte	.LFB36
 6411 06c1 3C000000 		.4byte	.LFE36
 6412 06c5 E4060000 		.4byte	.LLST36
 6413 06c9 DD060000 		.4byte	0x6dd
 6414 06cd 0F       		.uleb128 0xf
 6415 06ce 1E070000 		.4byte	.LASF80
 6416 06d2 01       		.byte	0x1
 6417 06d3 5706     		.2byte	0x657
 6418 06d5 81000000 		.4byte	0x81
 6419 06d9 02       		.byte	0x2
 6420 06da 91       		.byte	0x91
 6421 06db 77       		.sleb128 -9
 6422 06dc 00       		.byte	0x0
 6423 06dd 0E       		.uleb128 0xe
 6424 06de 01       		.byte	0x1
 6425 06df C3050000 		.4byte	.LASF81
 6426 06e3 01       		.byte	0x1
 6427 06e4 6F06     		.2byte	0x66f
 6428 06e6 01       		.byte	0x1
 6429 06e7 00000000 		.4byte	.LFB37
 6430 06eb 3C000000 		.4byte	.LFE37
 6431 06ef 1B070000 		.4byte	.LLST37
 6432 06f3 07070000 		.4byte	0x707
 6433 06f7 0F       		.uleb128 0xf
 6434 06f8 1E070000 		.4byte	.LASF80
 6435 06fc 01       		.byte	0x1
 6436 06fd 6F06     		.2byte	0x66f
 6437 06ff 81000000 		.4byte	0x81
 6438 0703 02       		.byte	0x2
 6439 0704 91       		.byte	0x91
 6440 0705 77       		.sleb128 -9
 6441 0706 00       		.byte	0x0
 6442 0707 0E       		.uleb128 0xe
 6443 0708 01       		.byte	0x1
 6444 0709 20050000 		.4byte	.LASF82
 6445 070d 01       		.byte	0x1
 6446 070e 8606     		.2byte	0x686
 6447 0710 01       		.byte	0x1
 6448 0711 00000000 		.4byte	.LFB38
 6449 0715 42000000 		.4byte	.LFE38
 6450 0719 52070000 		.4byte	.LLST38
 6451 071d 31070000 		.4byte	0x731
 6452 0721 0F       		.uleb128 0xf
 6453 0722 1E070000 		.4byte	.LASF80
 6454 0726 01       		.byte	0x1
 6455 0727 8606     		.2byte	0x686
 6456 0729 81000000 		.4byte	0x81
 6457 072d 02       		.byte	0x2
 6458 072e 91       		.byte	0x91
 6459 072f 77       		.sleb128 -9
 6460 0730 00       		.byte	0x0
 6461 0731 0E       		.uleb128 0xe
 6462 0732 01       		.byte	0x1
 6463 0733 19050000 		.4byte	.LASF83
ARM GAS  C:\Users\karunmj\AppData\Local\Temp\cceFJIz4.s 			page 160


 6464 0737 01       		.byte	0x1
 6465 0738 9D06     		.2byte	0x69d
 6466 073a 01       		.byte	0x1
 6467 073b 00000000 		.4byte	.LFB39
 6468 073f 16000000 		.4byte	.LFE39
 6469 0743 89070000 		.4byte	.LLST39
 6470 0747 5B070000 		.4byte	0x75b
 6471 074b 0F       		.uleb128 0xf
 6472 074c BC050000 		.4byte	.LASF84
 6473 0750 01       		.byte	0x1
 6474 0751 9D06     		.2byte	0x69d
 6475 0753 81000000 		.4byte	0x81
 6476 0757 02       		.byte	0x2
 6477 0758 91       		.byte	0x91
 6478 0759 77       		.sleb128 -9
 6479 075a 00       		.byte	0x0
 6480 075b 11       		.uleb128 0x11
 6481 075c 01       		.byte	0x1
 6482 075d E7000000 		.4byte	.LASF85
 6483 0761 01       		.byte	0x1
 6484 0762 BC06     		.2byte	0x6bc
 6485 0764 01       		.byte	0x1
 6486 0765 00000000 		.4byte	.LFB40
 6487 0769 18000000 		.4byte	.LFE40
 6488 076d C0070000 		.4byte	.LLST40
 6489 0771 0E       		.uleb128 0xe
 6490 0772 01       		.byte	0x1
 6491 0773 7C060000 		.4byte	.LASF86
 6492 0777 01       		.byte	0x1
 6493 0778 D706     		.2byte	0x6d7
 6494 077a 01       		.byte	0x1
 6495 077b 00000000 		.4byte	.LFB41
 6496 077f 48000000 		.4byte	.LFE41
 6497 0783 EB070000 		.4byte	.LLST41
 6498 0787 9B070000 		.4byte	0x79b
 6499 078b 0F       		.uleb128 0xf
 6500 078c 7E040000 		.4byte	.LASF87
 6501 0790 01       		.byte	0x1
 6502 0791 D706     		.2byte	0x6d7
 6503 0793 97000000 		.4byte	0x97
 6504 0797 02       		.byte	0x2
 6505 0798 91       		.byte	0x91
 6506 0799 74       		.sleb128 -12
 6507 079a 00       		.byte	0x0
 6508 079b 0E       		.uleb128 0xe
 6509 079c 01       		.byte	0x1
 6510 079d 98010000 		.4byte	.LASF88
 6511 07a1 01       		.byte	0x1
 6512 07a2 0807     		.2byte	0x708
 6513 07a4 01       		.byte	0x1
 6514 07a5 00000000 		.4byte	.LFB42
 6515 07a9 28000000 		.4byte	.LFE42
 6516 07ad 22080000 		.4byte	.LLST42
 6517 07b1 C5070000 		.4byte	0x7c5
 6518 07b5 0F       		.uleb128 0xf
 6519 07b6 33070000 		.4byte	.LASF89
 6520 07ba 01       		.byte	0x1
ARM GAS  C:\Users\karunmj\AppData\Local\Temp\cceFJIz4.s 			page 161


 6521 07bb 0807     		.2byte	0x708
 6522 07bd 8C000000 		.4byte	0x8c
 6523 07c1 02       		.byte	0x2
 6524 07c2 91       		.byte	0x91
 6525 07c3 76       		.sleb128 -10
 6526 07c4 00       		.byte	0x0
 6527 07c5 0E       		.uleb128 0xe
 6528 07c6 01       		.byte	0x1
 6529 07c7 41010000 		.4byte	.LASF90
 6530 07cb 01       		.byte	0x1
 6531 07cc 1E07     		.2byte	0x71e
 6532 07ce 01       		.byte	0x1
 6533 07cf 00000000 		.4byte	.LFB43
 6534 07d3 AC000000 		.4byte	.LFE43
 6535 07d7 59080000 		.4byte	.LLST43
 6536 07db EF070000 		.4byte	0x7ef
 6537 07df 0F       		.uleb128 0xf
 6538 07e0 3C010000 		.4byte	.LASF35
 6539 07e4 01       		.byte	0x1
 6540 07e5 1E07     		.2byte	0x71e
 6541 07e7 97000000 		.4byte	0x97
 6542 07eb 02       		.byte	0x2
 6543 07ec 91       		.byte	0x91
 6544 07ed 74       		.sleb128 -12
 6545 07ee 00       		.byte	0x0
 6546 07ef 0E       		.uleb128 0xe
 6547 07f0 01       		.byte	0x1
 6548 07f1 9A020000 		.4byte	.LASF91
 6549 07f5 01       		.byte	0x1
 6550 07f6 5D07     		.2byte	0x75d
 6551 07f8 01       		.byte	0x1
 6552 07f9 00000000 		.4byte	.LFB44
 6553 07fd C4000000 		.4byte	.LFE44
 6554 0801 90080000 		.4byte	.LLST44
 6555 0805 28080000 		.4byte	0x828
 6556 0809 0F       		.uleb128 0xf
 6557 080a 85030000 		.4byte	.LASF92
 6558 080e 01       		.byte	0x1
 6559 080f 5D07     		.2byte	0x75d
 6560 0811 81000000 		.4byte	0x81
 6561 0815 02       		.byte	0x2
 6562 0816 91       		.byte	0x91
 6563 0817 77       		.sleb128 -9
 6564 0818 0F       		.uleb128 0xf
 6565 0819 F6050000 		.4byte	.LASF93
 6566 081d 01       		.byte	0x1
 6567 081e 5D07     		.2byte	0x75d
 6568 0820 81000000 		.4byte	0x81
 6569 0824 02       		.byte	0x2
 6570 0825 91       		.byte	0x91
 6571 0826 76       		.sleb128 -10
 6572 0827 00       		.byte	0x0
 6573 0828 11       		.uleb128 0x11
 6574 0829 01       		.byte	0x1
 6575 082a B6010000 		.4byte	.LASF94
 6576 082e 01       		.byte	0x1
 6577 082f 8B07     		.2byte	0x78b
ARM GAS  C:\Users\karunmj\AppData\Local\Temp\cceFJIz4.s 			page 162


 6578 0831 01       		.byte	0x1
 6579 0832 00000000 		.4byte	.LFB45
 6580 0836 18000000 		.4byte	.LFE45
 6581 083a C7080000 		.4byte	.LLST45
 6582 083e 0E       		.uleb128 0xe
 6583 083f 01       		.byte	0x1
 6584 0840 53070000 		.4byte	.LASF95
 6585 0844 01       		.byte	0x1
 6586 0845 B407     		.2byte	0x7b4
 6587 0847 01       		.byte	0x1
 6588 0848 00000000 		.4byte	.LFB46
 6589 084c EC000000 		.4byte	.LFE46
 6590 0850 F2080000 		.4byte	.LLST46
 6591 0854 77080000 		.4byte	0x877
 6592 0858 0F       		.uleb128 0xf
 6593 0859 24000000 		.4byte	.LASF96
 6594 085d 01       		.byte	0x1
 6595 085e B407     		.2byte	0x7b4
 6596 0860 81000000 		.4byte	0x81
 6597 0864 02       		.byte	0x2
 6598 0865 91       		.byte	0x91
 6599 0866 77       		.sleb128 -9
 6600 0867 0F       		.uleb128 0xf
 6601 0868 F5030000 		.4byte	.LASF97
 6602 086c 01       		.byte	0x1
 6603 086d B407     		.2byte	0x7b4
 6604 086f 81000000 		.4byte	0x81
 6605 0873 02       		.byte	0x2
 6606 0874 91       		.byte	0x91
 6607 0875 76       		.sleb128 -10
 6608 0876 00       		.byte	0x0
 6609 0877 0E       		.uleb128 0xe
 6610 0878 01       		.byte	0x1
 6611 0879 44020000 		.4byte	.LASF98
 6612 087d 01       		.byte	0x1
 6613 087e F207     		.2byte	0x7f2
 6614 0880 01       		.byte	0x1
 6615 0881 00000000 		.4byte	.LFB47
 6616 0885 F2000000 		.4byte	.LFE47
 6617 0889 29090000 		.4byte	.LLST47
 6618 088d B0080000 		.4byte	0x8b0
 6619 0891 0F       		.uleb128 0xf
 6620 0892 24000000 		.4byte	.LASF96
 6621 0896 01       		.byte	0x1
 6622 0897 F207     		.2byte	0x7f2
 6623 0899 81000000 		.4byte	0x81
 6624 089d 02       		.byte	0x2
 6625 089e 91       		.byte	0x91
 6626 089f 77       		.sleb128 -9
 6627 08a0 0F       		.uleb128 0xf
 6628 08a1 F5030000 		.4byte	.LASF97
 6629 08a5 01       		.byte	0x1
 6630 08a6 F207     		.2byte	0x7f2
 6631 08a8 81000000 		.4byte	0x81
 6632 08ac 02       		.byte	0x2
 6633 08ad 91       		.byte	0x91
 6634 08ae 76       		.sleb128 -10
ARM GAS  C:\Users\karunmj\AppData\Local\Temp\cceFJIz4.s 			page 163


 6635 08af 00       		.byte	0x0
 6636 08b0 11       		.uleb128 0x11
 6637 08b1 01       		.byte	0x1
 6638 08b2 24060000 		.4byte	.LASF99
 6639 08b6 01       		.byte	0x1
 6640 08b7 2808     		.2byte	0x828
 6641 08b9 01       		.byte	0x1
 6642 08ba 00000000 		.4byte	.LFB48
 6643 08be 52000000 		.4byte	.LFE48
 6644 08c2 60090000 		.4byte	.LLST48
 6645 08c6 11       		.uleb128 0x11
 6646 08c7 01       		.byte	0x1
 6647 08c8 37060000 		.4byte	.LASF100
 6648 08cc 01       		.byte	0x1
 6649 08cd 4608     		.2byte	0x846
 6650 08cf 01       		.byte	0x1
 6651 08d0 00000000 		.4byte	.LFB49
 6652 08d4 52000000 		.4byte	.LFE49
 6653 08d8 8B090000 		.4byte	.LLST49
 6654 08dc 11       		.uleb128 0x11
 6655 08dd 01       		.byte	0x1
 6656 08de 40070000 		.4byte	.LASF101
 6657 08e2 01       		.byte	0x1
 6658 08e3 6408     		.2byte	0x864
 6659 08e5 01       		.byte	0x1
 6660 08e6 00000000 		.4byte	.LFB50
 6661 08ea 78000000 		.4byte	.LFE50
 6662 08ee B6090000 		.4byte	.LLST50
 6663 08f2 11       		.uleb128 0x11
 6664 08f3 01       		.byte	0x1
 6665 08f4 B4020000 		.4byte	.LASF102
 6666 08f8 01       		.byte	0x1
 6667 08f9 8708     		.2byte	0x887
 6668 08fb 01       		.byte	0x1
 6669 08fc 00000000 		.4byte	.LFB51
 6670 0900 24000000 		.4byte	.LFE51
 6671 0904 E1090000 		.4byte	.LLST51
 6672 0908 14       		.uleb128 0x14
 6673 0909 01       		.byte	0x1
 6674 090a B9040000 		.4byte	.LASF103
 6675 090e 01       		.byte	0x1
 6676 090f A108     		.2byte	0x8a1
 6677 0911 01       		.byte	0x1
 6678 0912 81000000 		.4byte	0x81
 6679 0916 00000000 		.4byte	.LFB52
 6680 091a 48000000 		.4byte	.LFE52
 6681 091e 0C0A0000 		.4byte	.LLST52
 6682 0922 45090000 		.4byte	0x945
 6683 0926 0F       		.uleb128 0xf
 6684 0927 C8010000 		.4byte	.LASF104
 6685 092b 01       		.byte	0x1
 6686 092c A108     		.2byte	0x8a1
 6687 092e 81000000 		.4byte	0x81
 6688 0932 02       		.byte	0x2
 6689 0933 91       		.byte	0x91
 6690 0934 6F       		.sleb128 -17
 6691 0935 10       		.uleb128 0x10
ARM GAS  C:\Users\karunmj\AppData\Local\Temp\cceFJIz4.s 			page 164


 6692 0936 B4060000 		.4byte	.LASF17
 6693 093a 01       		.byte	0x1
 6694 093b A308     		.2byte	0x8a3
 6695 093d 81000000 		.4byte	0x81
 6696 0941 02       		.byte	0x2
 6697 0942 91       		.byte	0x91
 6698 0943 77       		.sleb128 -9
 6699 0944 00       		.byte	0x0
 6700 0945 14       		.uleb128 0x14
 6701 0946 01       		.byte	0x1
 6702 0947 B7030000 		.4byte	.LASF105
 6703 094b 01       		.byte	0x1
 6704 094c BA08     		.2byte	0x8ba
 6705 094e 01       		.byte	0x1
 6706 094f 81000000 		.4byte	0x81
 6707 0953 00000000 		.4byte	.LFB53
 6708 0957 2E000000 		.4byte	.LFE53
 6709 095b 430A0000 		.4byte	.LLST53
 6710 095f 82090000 		.4byte	0x982
 6711 0963 10       		.uleb128 0x10
 6712 0964 4D010000 		.4byte	.LASF51
 6713 0968 01       		.byte	0x1
 6714 0969 BC08     		.2byte	0x8bc
 6715 096b 81000000 		.4byte	0x81
 6716 096f 02       		.byte	0x2
 6717 0970 91       		.byte	0x91
 6718 0971 76       		.sleb128 -10
 6719 0972 10       		.uleb128 0x10
 6720 0973 A7060000 		.4byte	.LASF106
 6721 0977 01       		.byte	0x1
 6722 0978 BD08     		.2byte	0x8bd
 6723 097a 81000000 		.4byte	0x81
 6724 097e 02       		.byte	0x2
 6725 097f 91       		.byte	0x91
 6726 0980 77       		.sleb128 -9
 6727 0981 00       		.byte	0x0
 6728 0982 14       		.uleb128 0x14
 6729 0983 01       		.byte	0x1
 6730 0984 78000000 		.4byte	.LASF107
 6731 0988 01       		.byte	0x1
 6732 0989 D508     		.2byte	0x8d5
 6733 098b 01       		.byte	0x1
 6734 098c 97000000 		.4byte	0x97
 6735 0990 00000000 		.4byte	.LFB54
 6736 0994 3C000000 		.4byte	.LFE54
 6737 0998 7A0A0000 		.4byte	.LLST54
 6738 099c BF090000 		.4byte	0x9bf
 6739 09a0 10       		.uleb128 0x10
 6740 09a1 D7050000 		.4byte	.LASF108
 6741 09a5 01       		.byte	0x1
 6742 09a6 D708     		.2byte	0x8d7
 6743 09a8 97000000 		.4byte	0x97
 6744 09ac 02       		.byte	0x2
 6745 09ad 91       		.byte	0x91
 6746 09ae 70       		.sleb128 -16
 6747 09af 10       		.uleb128 0x10
 6748 09b0 4D010000 		.4byte	.LASF51
ARM GAS  C:\Users\karunmj\AppData\Local\Temp\cceFJIz4.s 			page 165


 6749 09b4 01       		.byte	0x1
 6750 09b5 D808     		.2byte	0x8d8
 6751 09b7 81000000 		.4byte	0x81
 6752 09bb 02       		.byte	0x2
 6753 09bc 91       		.byte	0x91
 6754 09bd 77       		.sleb128 -9
 6755 09be 00       		.byte	0x0
 6756 09bf 0E       		.uleb128 0xe
 6757 09c0 01       		.byte	0x1
 6758 09c1 50060000 		.4byte	.LASF109
 6759 09c5 01       		.byte	0x1
 6760 09c6 0909     		.2byte	0x909
 6761 09c8 01       		.byte	0x1
 6762 09c9 00000000 		.4byte	.LFB55
 6763 09cd 2C000000 		.4byte	.LFE55
 6764 09d1 B10A0000 		.4byte	.LLST55
 6765 09d5 F8090000 		.4byte	0x9f8
 6766 09d9 0F       		.uleb128 0xf
 6767 09da C8010000 		.4byte	.LASF104
 6768 09de 01       		.byte	0x1
 6769 09df 0909     		.2byte	0x909
 6770 09e1 97000000 		.4byte	0x97
 6771 09e5 02       		.byte	0x2
 6772 09e6 91       		.byte	0x91
 6773 09e7 6C       		.sleb128 -20
 6774 09e8 10       		.uleb128 0x10
 6775 09e9 4D010000 		.4byte	.LASF51
 6776 09ed 01       		.byte	0x1
 6777 09ee 0C09     		.2byte	0x90c
 6778 09f0 81000000 		.4byte	0x81
 6779 09f4 02       		.byte	0x2
 6780 09f5 91       		.byte	0x91
 6781 09f6 77       		.sleb128 -9
 6782 09f7 00       		.byte	0x0
 6783 09f8 0E       		.uleb128 0xe
 6784 09f9 01       		.byte	0x1
 6785 09fa 80050000 		.4byte	.LASF110
 6786 09fe 01       		.byte	0x1
 6787 09ff 3109     		.2byte	0x931
 6788 0a01 01       		.byte	0x1
 6789 0a02 00000000 		.4byte	.LFB56
 6790 0a06 7A000000 		.4byte	.LFE56
 6791 0a0a E80A0000 		.4byte	.LLST56
 6792 0a0e 220A0000 		.4byte	0xa22
 6793 0a12 10       		.uleb128 0x10
 6794 0a13 4D010000 		.4byte	.LASF51
 6795 0a17 01       		.byte	0x1
 6796 0a18 3309     		.2byte	0x933
 6797 0a1a 81000000 		.4byte	0x81
 6798 0a1e 02       		.byte	0x2
 6799 0a1f 91       		.byte	0x91
 6800 0a20 77       		.sleb128 -9
 6801 0a21 00       		.byte	0x0
 6802 0a22 14       		.uleb128 0x14
 6803 0a23 01       		.byte	0x1
 6804 0a24 2A030000 		.4byte	.LASF111
 6805 0a28 01       		.byte	0x1
ARM GAS  C:\Users\karunmj\AppData\Local\Temp\cceFJIz4.s 			page 166


 6806 0a29 7909     		.2byte	0x979
 6807 0a2b 01       		.byte	0x1
 6808 0a2c C5000000 		.4byte	0xc5
 6809 0a30 00000000 		.4byte	.LFB57
 6810 0a34 56000000 		.4byte	.LFE57
 6811 0a38 1F0B0000 		.4byte	.LLST57
 6812 0a3c 7D0A0000 		.4byte	0xa7d
 6813 0a40 0F       		.uleb128 0xf
 6814 0a41 DE020000 		.4byte	.LASF112
 6815 0a45 01       		.byte	0x1
 6816 0a46 7909     		.2byte	0x979
 6817 0a48 81000000 		.4byte	0x81
 6818 0a4c 02       		.byte	0x2
 6819 0a4d 91       		.byte	0x91
 6820 0a4e 6F       		.sleb128 -17
 6821 0a4f 0F       		.uleb128 0xf
 6822 0a50 A0030000 		.4byte	.LASF113
 6823 0a54 01       		.byte	0x1
 6824 0a55 7909     		.2byte	0x979
 6825 0a57 C5000000 		.4byte	0xc5
 6826 0a5b 02       		.byte	0x2
 6827 0a5c 91       		.byte	0x91
 6828 0a5d 68       		.sleb128 -24
 6829 0a5e 10       		.uleb128 0x10
 6830 0a5f 5D000000 		.4byte	.LASF114
 6831 0a63 01       		.byte	0x1
 6832 0a64 7B09     		.2byte	0x97b
 6833 0a66 C5000000 		.4byte	0xc5
 6834 0a6a 02       		.byte	0x2
 6835 0a6b 91       		.byte	0x91
 6836 0a6c 70       		.sleb128 -16
 6837 0a6d 10       		.uleb128 0x10
 6838 0a6e 00000000 		.4byte	.LASF115
 6839 0a72 01       		.byte	0x1
 6840 0a73 7C09     		.2byte	0x97c
 6841 0a75 7D0A0000 		.4byte	0xa7d
 6842 0a79 02       		.byte	0x2
 6843 0a7a 91       		.byte	0x91
 6844 0a7b 74       		.sleb128 -12
 6845 0a7c 00       		.byte	0x0
 6846 0a7d 06       		.uleb128 0x6
 6847 0a7e 04       		.byte	0x4
 6848 0a7f C5000000 		.4byte	0xc5
 6849 0a83 14       		.uleb128 0x14
 6850 0a84 01       		.byte	0x1
 6851 0a85 DE010000 		.4byte	.LASF116
 6852 0a89 01       		.byte	0x1
 6853 0a8a 9A09     		.2byte	0x99a
 6854 0a8c 01       		.byte	0x1
 6855 0a8d C5000000 		.4byte	0xc5
 6856 0a91 00000000 		.4byte	.LFB58
 6857 0a95 3E000000 		.4byte	.LFE58
 6858 0a99 560B0000 		.4byte	.LLST58
 6859 0a9d C00A0000 		.4byte	0xac0
 6860 0aa1 0F       		.uleb128 0xf
 6861 0aa2 DE020000 		.4byte	.LASF112
 6862 0aa6 01       		.byte	0x1
ARM GAS  C:\Users\karunmj\AppData\Local\Temp\cceFJIz4.s 			page 167


 6863 0aa7 9A09     		.2byte	0x99a
 6864 0aa9 81000000 		.4byte	0x81
 6865 0aad 02       		.byte	0x2
 6866 0aae 91       		.byte	0x91
 6867 0aaf 6F       		.sleb128 -17
 6868 0ab0 10       		.uleb128 0x10
 6869 0ab1 00000000 		.4byte	.LASF115
 6870 0ab5 01       		.byte	0x1
 6871 0ab6 9C09     		.2byte	0x99c
 6872 0ab8 7D0A0000 		.4byte	0xa7d
 6873 0abc 02       		.byte	0x2
 6874 0abd 91       		.byte	0x91
 6875 0abe 74       		.sleb128 -12
 6876 0abf 00       		.byte	0x0
 6877 0ac0 14       		.uleb128 0x14
 6878 0ac1 01       		.byte	0x1
 6879 0ac2 A5020000 		.4byte	.LASF117
 6880 0ac6 01       		.byte	0x1
 6881 0ac7 B209     		.2byte	0x9b2
 6882 0ac9 01       		.byte	0x1
 6883 0aca C5000000 		.4byte	0xc5
 6884 0ace 00000000 		.4byte	.LFB59
 6885 0ad2 5E000000 		.4byte	.LFE59
 6886 0ad6 8D0B0000 		.4byte	.LLST59
 6887 0ada 1B0B0000 		.4byte	0xb1b
 6888 0ade 0F       		.uleb128 0xf
 6889 0adf DE020000 		.4byte	.LASF112
 6890 0ae3 01       		.byte	0x1
 6891 0ae4 B209     		.2byte	0x9b2
 6892 0ae6 81000000 		.4byte	0x81
 6893 0aea 02       		.byte	0x2
 6894 0aeb 91       		.byte	0x91
 6895 0aec 6F       		.sleb128 -17
 6896 0aed 0F       		.uleb128 0xf
 6897 0aee A0030000 		.4byte	.LASF113
 6898 0af2 01       		.byte	0x1
 6899 0af3 B209     		.2byte	0x9b2
 6900 0af5 C5000000 		.4byte	0xc5
 6901 0af9 02       		.byte	0x2
 6902 0afa 91       		.byte	0x91
 6903 0afb 68       		.sleb128 -24
 6904 0afc 10       		.uleb128 0x10
 6905 0afd 5D000000 		.4byte	.LASF114
 6906 0b01 01       		.byte	0x1
 6907 0b02 B409     		.2byte	0x9b4
 6908 0b04 C5000000 		.4byte	0xc5
 6909 0b08 02       		.byte	0x2
 6910 0b09 91       		.byte	0x91
 6911 0b0a 70       		.sleb128 -16
 6912 0b0b 10       		.uleb128 0x10
 6913 0b0c 00000000 		.4byte	.LASF115
 6914 0b10 01       		.byte	0x1
 6915 0b11 B509     		.2byte	0x9b5
 6916 0b13 7D0A0000 		.4byte	0xa7d
 6917 0b17 02       		.byte	0x2
 6918 0b18 91       		.byte	0x91
 6919 0b19 74       		.sleb128 -12
ARM GAS  C:\Users\karunmj\AppData\Local\Temp\cceFJIz4.s 			page 168


 6920 0b1a 00       		.byte	0x0
 6921 0b1b 14       		.uleb128 0x14
 6922 0b1c 01       		.byte	0x1
 6923 0b1d 6F040000 		.4byte	.LASF118
 6924 0b21 01       		.byte	0x1
 6925 0b22 D109     		.2byte	0x9d1
 6926 0b24 01       		.byte	0x1
 6927 0b25 C5000000 		.4byte	0xc5
 6928 0b29 00000000 		.4byte	.LFB60
 6929 0b2d 42000000 		.4byte	.LFE60
 6930 0b31 C40B0000 		.4byte	.LLST60
 6931 0b35 580B0000 		.4byte	0xb58
 6932 0b39 0F       		.uleb128 0xf
 6933 0b3a DE020000 		.4byte	.LASF112
 6934 0b3e 01       		.byte	0x1
 6935 0b3f D109     		.2byte	0x9d1
 6936 0b41 81000000 		.4byte	0x81
 6937 0b45 02       		.byte	0x2
 6938 0b46 91       		.byte	0x91
 6939 0b47 6F       		.sleb128 -17
 6940 0b48 10       		.uleb128 0x10
 6941 0b49 00000000 		.4byte	.LASF115
 6942 0b4d 01       		.byte	0x1
 6943 0b4e D309     		.2byte	0x9d3
 6944 0b50 7D0A0000 		.4byte	0xa7d
 6945 0b54 02       		.byte	0x2
 6946 0b55 91       		.byte	0x91
 6947 0b56 74       		.sleb128 -12
 6948 0b57 00       		.byte	0x0
 6949 0b58 0E       		.uleb128 0xe
 6950 0b59 01       		.byte	0x1
 6951 0b5a 09030000 		.4byte	.LASF119
 6952 0b5e 01       		.byte	0x1
 6953 0b5f E909     		.2byte	0x9e9
 6954 0b61 01       		.byte	0x1
 6955 0b62 00000000 		.4byte	.LFB61
 6956 0b66 4A000000 		.4byte	.LFE61
 6957 0b6a FB0B0000 		.4byte	.LLST61
 6958 0b6e 910B0000 		.4byte	0xb91
 6959 0b72 0F       		.uleb128 0xf
 6960 0b73 DE020000 		.4byte	.LASF112
 6961 0b77 01       		.byte	0x1
 6962 0b78 E909     		.2byte	0x9e9
 6963 0b7a 81000000 		.4byte	0x81
 6964 0b7e 02       		.byte	0x2
 6965 0b7f 91       		.byte	0x91
 6966 0b80 77       		.sleb128 -9
 6967 0b81 0F       		.uleb128 0xf
 6968 0b82 E5020000 		.4byte	.LASF120
 6969 0b86 01       		.byte	0x1
 6970 0b87 E909     		.2byte	0x9e9
 6971 0b89 81000000 		.4byte	0x81
 6972 0b8d 02       		.byte	0x2
 6973 0b8e 91       		.byte	0x91
 6974 0b8f 76       		.sleb128 -10
 6975 0b90 00       		.byte	0x0
 6976 0b91 14       		.uleb128 0x14
ARM GAS  C:\Users\karunmj\AppData\Local\Temp\cceFJIz4.s 			page 169


 6977 0b92 01       		.byte	0x1
 6978 0b93 CD010000 		.4byte	.LASF121
 6979 0b97 01       		.byte	0x1
 6980 0b98 FF09     		.2byte	0x9ff
 6981 0b9a 01       		.byte	0x1
 6982 0b9b 81000000 		.4byte	0x81
 6983 0b9f 00000000 		.4byte	.LFB62
 6984 0ba3 3C000000 		.4byte	.LFE62
 6985 0ba7 320C0000 		.4byte	.LLST62
 6986 0bab CE0B0000 		.4byte	0xbce
 6987 0baf 0F       		.uleb128 0xf
 6988 0bb0 DE020000 		.4byte	.LASF112
 6989 0bb4 01       		.byte	0x1
 6990 0bb5 FF09     		.2byte	0x9ff
 6991 0bb7 81000000 		.4byte	0x81
 6992 0bbb 02       		.byte	0x2
 6993 0bbc 91       		.byte	0x91
 6994 0bbd 6F       		.sleb128 -17
 6995 0bbe 10       		.uleb128 0x10
 6996 0bbf E5020000 		.4byte	.LASF120
 6997 0bc3 01       		.byte	0x1
 6998 0bc4 010A     		.2byte	0xa01
 6999 0bc6 81000000 		.4byte	0x81
 7000 0bca 02       		.byte	0x2
 7001 0bcb 91       		.byte	0x91
 7002 0bcc 77       		.sleb128 -9
 7003 0bcd 00       		.byte	0x0
 7004 0bce 14       		.uleb128 0x14
 7005 0bcf 01       		.byte	0x1
 7006 0bd0 08010000 		.4byte	.LASF122
 7007 0bd4 01       		.byte	0x1
 7008 0bd5 190A     		.2byte	0xa19
 7009 0bd7 01       		.byte	0x1
 7010 0bd8 81000000 		.4byte	0x81
 7011 0bdc 00000000 		.4byte	.LFB63
 7012 0be0 40000000 		.4byte	.LFE63
 7013 0be4 690C0000 		.4byte	.LLST63
 7014 0be8 0B0C0000 		.4byte	0xc0b
 7015 0bec 0F       		.uleb128 0xf
 7016 0bed DE020000 		.4byte	.LASF112
 7017 0bf1 01       		.byte	0x1
 7018 0bf2 190A     		.2byte	0xa19
 7019 0bf4 81000000 		.4byte	0x81
 7020 0bf8 02       		.byte	0x2
 7021 0bf9 91       		.byte	0x91
 7022 0bfa 6F       		.sleb128 -17
 7023 0bfb 10       		.uleb128 0x10
 7024 0bfc 8D050000 		.4byte	.LASF123
 7025 0c00 01       		.byte	0x1
 7026 0c01 1B0A     		.2byte	0xa1b
 7027 0c03 0B0C0000 		.4byte	0xc0b
 7028 0c07 02       		.byte	0x2
 7029 0c08 91       		.byte	0x91
 7030 0c09 74       		.sleb128 -12
 7031 0c0a 00       		.byte	0x0
 7032 0c0b 06       		.uleb128 0x6
 7033 0c0c 04       		.byte	0x4
ARM GAS  C:\Users\karunmj\AppData\Local\Temp\cceFJIz4.s 			page 170


 7034 0c0d 110C0000 		.4byte	0xc11
 7035 0c11 08       		.uleb128 0x8
 7036 0c12 6B000000 		.4byte	0x6b
 7037 0c16 17       		.uleb128 0x17
 7038 0c17 E7030000 		.4byte	.LASF124
 7039 0c1b 01       		.byte	0x1
 7040 0c1c 1A       		.byte	0x1a
 7041 0c1d 81000000 		.4byte	0x81
 7042 0c21 01       		.byte	0x1
 7043 0c22 05       		.byte	0x5
 7044 0c23 03       		.byte	0x3
 7045 0c24 00000000 		.4byte	CyResetStatus
 7046 0c28 17       		.uleb128 0x17
 7047 0c29 9C040000 		.4byte	.LASF125
 7048 0c2d 01       		.byte	0x1
 7049 0c2e 2A       		.byte	0x2a
 7050 0c2f 97000000 		.4byte	0x97
 7051 0c33 01       		.byte	0x1
 7052 0c34 05       		.byte	0x5
 7053 0c35 03       		.byte	0x3
 7054 0c36 00000000 		.4byte	cydelay_freq_hz
 7055 0c3a 17       		.uleb128 0x17
 7056 0c3b 5B030000 		.4byte	.LASF126
 7057 0c3f 01       		.byte	0x1
 7058 0c40 2B       		.byte	0x2b
 7059 0c41 97000000 		.4byte	0x97
 7060 0c45 01       		.byte	0x1
 7061 0c46 05       		.byte	0x5
 7062 0c47 03       		.byte	0x3
 7063 0c48 00000000 		.4byte	cydelay_freq_khz
 7064 0c4c 17       		.uleb128 0x17
 7065 0c4d F7000000 		.4byte	.LASF127
 7066 0c51 01       		.byte	0x1
 7067 0c52 2C       		.byte	0x2c
 7068 0c53 81000000 		.4byte	0x81
 7069 0c57 01       		.byte	0x1
 7070 0c58 05       		.byte	0x5
 7071 0c59 03       		.byte	0x3
 7072 0c5a 00000000 		.4byte	cydelay_freq_mhz
 7073 0c5e 17       		.uleb128 0x17
 7074 0c5f 98060000 		.4byte	.LASF128
 7075 0c63 01       		.byte	0x1
 7076 0c64 2D       		.byte	0x2d
 7077 0c65 97000000 		.4byte	0x97
 7078 0c69 01       		.byte	0x1
 7079 0c6a 05       		.byte	0x5
 7080 0c6b 03       		.byte	0x3
 7081 0c6c 00000000 		.4byte	cydelay_32k_ms
 7082 0c70 00       		.byte	0x0
 7083              		.section	.debug_abbrev
 7084 0000 01       		.uleb128 0x1
 7085 0001 11       		.uleb128 0x11
 7086 0002 01       		.byte	0x1
 7087 0003 25       		.uleb128 0x25
 7088 0004 0E       		.uleb128 0xe
 7089 0005 13       		.uleb128 0x13
 7090 0006 0B       		.uleb128 0xb
ARM GAS  C:\Users\karunmj\AppData\Local\Temp\cceFJIz4.s 			page 171


 7091 0007 03       		.uleb128 0x3
 7092 0008 0E       		.uleb128 0xe
 7093 0009 1B       		.uleb128 0x1b
 7094 000a 0E       		.uleb128 0xe
 7095 000b 11       		.uleb128 0x11
 7096 000c 01       		.uleb128 0x1
 7097 000d 52       		.uleb128 0x52
 7098 000e 01       		.uleb128 0x1
 7099 000f 55       		.uleb128 0x55
 7100 0010 06       		.uleb128 0x6
 7101 0011 10       		.uleb128 0x10
 7102 0012 06       		.uleb128 0x6
 7103 0013 00       		.byte	0x0
 7104 0014 00       		.byte	0x0
 7105 0015 02       		.uleb128 0x2
 7106 0016 24       		.uleb128 0x24
 7107 0017 00       		.byte	0x0
 7108 0018 0B       		.uleb128 0xb
 7109 0019 0B       		.uleb128 0xb
 7110 001a 3E       		.uleb128 0x3e
 7111 001b 0B       		.uleb128 0xb
 7112 001c 03       		.uleb128 0x3
 7113 001d 0E       		.uleb128 0xe
 7114 001e 00       		.byte	0x0
 7115 001f 00       		.byte	0x0
 7116 0020 03       		.uleb128 0x3
 7117 0021 24       		.uleb128 0x24
 7118 0022 00       		.byte	0x0
 7119 0023 0B       		.uleb128 0xb
 7120 0024 0B       		.uleb128 0xb
 7121 0025 3E       		.uleb128 0x3e
 7122 0026 0B       		.uleb128 0xb
 7123 0027 03       		.uleb128 0x3
 7124 0028 08       		.uleb128 0x8
 7125 0029 00       		.byte	0x0
 7126 002a 00       		.byte	0x0
 7127 002b 04       		.uleb128 0x4
 7128 002c 24       		.uleb128 0x24
 7129 002d 00       		.byte	0x0
 7130 002e 0B       		.uleb128 0xb
 7131 002f 0B       		.uleb128 0xb
 7132 0030 3E       		.uleb128 0x3e
 7133 0031 0B       		.uleb128 0xb
 7134 0032 00       		.byte	0x0
 7135 0033 00       		.byte	0x0
 7136 0034 05       		.uleb128 0x5
 7137 0035 15       		.uleb128 0x15
 7138 0036 00       		.byte	0x0
 7139 0037 27       		.uleb128 0x27
 7140 0038 0C       		.uleb128 0xc
 7141 0039 00       		.byte	0x0
 7142 003a 00       		.byte	0x0
 7143 003b 06       		.uleb128 0x6
 7144 003c 0F       		.uleb128 0xf
 7145 003d 00       		.byte	0x0
 7146 003e 0B       		.uleb128 0xb
 7147 003f 0B       		.uleb128 0xb
ARM GAS  C:\Users\karunmj\AppData\Local\Temp\cceFJIz4.s 			page 172


 7148 0040 49       		.uleb128 0x49
 7149 0041 13       		.uleb128 0x13
 7150 0042 00       		.byte	0x0
 7151 0043 00       		.byte	0x0
 7152 0044 07       		.uleb128 0x7
 7153 0045 16       		.uleb128 0x16
 7154 0046 00       		.byte	0x0
 7155 0047 03       		.uleb128 0x3
 7156 0048 0E       		.uleb128 0xe
 7157 0049 3A       		.uleb128 0x3a
 7158 004a 0B       		.uleb128 0xb
 7159 004b 3B       		.uleb128 0x3b
 7160 004c 0B       		.uleb128 0xb
 7161 004d 49       		.uleb128 0x49
 7162 004e 13       		.uleb128 0x13
 7163 004f 00       		.byte	0x0
 7164 0050 00       		.byte	0x0
 7165 0051 08       		.uleb128 0x8
 7166 0052 35       		.uleb128 0x35
 7167 0053 00       		.byte	0x0
 7168 0054 49       		.uleb128 0x49
 7169 0055 13       		.uleb128 0x13
 7170 0056 00       		.byte	0x0
 7171 0057 00       		.byte	0x0
 7172 0058 09       		.uleb128 0x9
 7173 0059 2E       		.uleb128 0x2e
 7174 005a 01       		.byte	0x1
 7175 005b 3F       		.uleb128 0x3f
 7176 005c 0C       		.uleb128 0xc
 7177 005d 03       		.uleb128 0x3
 7178 005e 0E       		.uleb128 0xe
 7179 005f 3A       		.uleb128 0x3a
 7180 0060 0B       		.uleb128 0xb
 7181 0061 3B       		.uleb128 0x3b
 7182 0062 0B       		.uleb128 0xb
 7183 0063 27       		.uleb128 0x27
 7184 0064 0C       		.uleb128 0xc
 7185 0065 49       		.uleb128 0x49
 7186 0066 13       		.uleb128 0x13
 7187 0067 11       		.uleb128 0x11
 7188 0068 01       		.uleb128 0x1
 7189 0069 12       		.uleb128 0x12
 7190 006a 01       		.uleb128 0x1
 7191 006b 40       		.uleb128 0x40
 7192 006c 06       		.uleb128 0x6
 7193 006d 01       		.uleb128 0x1
 7194 006e 13       		.uleb128 0x13
 7195 006f 00       		.byte	0x0
 7196 0070 00       		.byte	0x0
 7197 0071 0A       		.uleb128 0xa
 7198 0072 05       		.uleb128 0x5
 7199 0073 00       		.byte	0x0
 7200 0074 03       		.uleb128 0x3
 7201 0075 0E       		.uleb128 0xe
 7202 0076 3A       		.uleb128 0x3a
 7203 0077 0B       		.uleb128 0xb
 7204 0078 3B       		.uleb128 0x3b
ARM GAS  C:\Users\karunmj\AppData\Local\Temp\cceFJIz4.s 			page 173


 7205 0079 0B       		.uleb128 0xb
 7206 007a 49       		.uleb128 0x49
 7207 007b 13       		.uleb128 0x13
 7208 007c 02       		.uleb128 0x2
 7209 007d 0A       		.uleb128 0xa
 7210 007e 00       		.byte	0x0
 7211 007f 00       		.byte	0x0
 7212 0080 0B       		.uleb128 0xb
 7213 0081 34       		.uleb128 0x34
 7214 0082 00       		.byte	0x0
 7215 0083 03       		.uleb128 0x3
 7216 0084 0E       		.uleb128 0xe
 7217 0085 3A       		.uleb128 0x3a
 7218 0086 0B       		.uleb128 0xb
 7219 0087 3B       		.uleb128 0x3b
 7220 0088 0B       		.uleb128 0xb
 7221 0089 49       		.uleb128 0x49
 7222 008a 13       		.uleb128 0x13
 7223 008b 02       		.uleb128 0x2
 7224 008c 0A       		.uleb128 0xa
 7225 008d 00       		.byte	0x0
 7226 008e 00       		.byte	0x0
 7227 008f 0C       		.uleb128 0xc
 7228 0090 2E       		.uleb128 0x2e
 7229 0091 00       		.byte	0x0
 7230 0092 3F       		.uleb128 0x3f
 7231 0093 0C       		.uleb128 0xc
 7232 0094 03       		.uleb128 0x3
 7233 0095 0E       		.uleb128 0xe
 7234 0096 3A       		.uleb128 0x3a
 7235 0097 0B       		.uleb128 0xb
 7236 0098 3B       		.uleb128 0x3b
 7237 0099 0B       		.uleb128 0xb
 7238 009a 27       		.uleb128 0x27
 7239 009b 0C       		.uleb128 0xc
 7240 009c 11       		.uleb128 0x11
 7241 009d 01       		.uleb128 0x1
 7242 009e 12       		.uleb128 0x12
 7243 009f 01       		.uleb128 0x1
 7244 00a0 40       		.uleb128 0x40
 7245 00a1 06       		.uleb128 0x6
 7246 00a2 00       		.byte	0x0
 7247 00a3 00       		.byte	0x0
 7248 00a4 0D       		.uleb128 0xd
 7249 00a5 2E       		.uleb128 0x2e
 7250 00a6 01       		.byte	0x1
 7251 00a7 3F       		.uleb128 0x3f
 7252 00a8 0C       		.uleb128 0xc
 7253 00a9 03       		.uleb128 0x3
 7254 00aa 0E       		.uleb128 0xe
 7255 00ab 3A       		.uleb128 0x3a
 7256 00ac 0B       		.uleb128 0xb
 7257 00ad 3B       		.uleb128 0x3b
 7258 00ae 0B       		.uleb128 0xb
 7259 00af 27       		.uleb128 0x27
 7260 00b0 0C       		.uleb128 0xc
 7261 00b1 11       		.uleb128 0x11
ARM GAS  C:\Users\karunmj\AppData\Local\Temp\cceFJIz4.s 			page 174


 7262 00b2 01       		.uleb128 0x1
 7263 00b3 12       		.uleb128 0x12
 7264 00b4 01       		.uleb128 0x1
 7265 00b5 40       		.uleb128 0x40
 7266 00b6 06       		.uleb128 0x6
 7267 00b7 01       		.uleb128 0x1
 7268 00b8 13       		.uleb128 0x13
 7269 00b9 00       		.byte	0x0
 7270 00ba 00       		.byte	0x0
 7271 00bb 0E       		.uleb128 0xe
 7272 00bc 2E       		.uleb128 0x2e
 7273 00bd 01       		.byte	0x1
 7274 00be 3F       		.uleb128 0x3f
 7275 00bf 0C       		.uleb128 0xc
 7276 00c0 03       		.uleb128 0x3
 7277 00c1 0E       		.uleb128 0xe
 7278 00c2 3A       		.uleb128 0x3a
 7279 00c3 0B       		.uleb128 0xb
 7280 00c4 3B       		.uleb128 0x3b
 7281 00c5 05       		.uleb128 0x5
 7282 00c6 27       		.uleb128 0x27
 7283 00c7 0C       		.uleb128 0xc
 7284 00c8 11       		.uleb128 0x11
 7285 00c9 01       		.uleb128 0x1
 7286 00ca 12       		.uleb128 0x12
 7287 00cb 01       		.uleb128 0x1
 7288 00cc 40       		.uleb128 0x40
 7289 00cd 06       		.uleb128 0x6
 7290 00ce 01       		.uleb128 0x1
 7291 00cf 13       		.uleb128 0x13
 7292 00d0 00       		.byte	0x0
 7293 00d1 00       		.byte	0x0
 7294 00d2 0F       		.uleb128 0xf
 7295 00d3 05       		.uleb128 0x5
 7296 00d4 00       		.byte	0x0
 7297 00d5 03       		.uleb128 0x3
 7298 00d6 0E       		.uleb128 0xe
 7299 00d7 3A       		.uleb128 0x3a
 7300 00d8 0B       		.uleb128 0xb
 7301 00d9 3B       		.uleb128 0x3b
 7302 00da 05       		.uleb128 0x5
 7303 00db 49       		.uleb128 0x49
 7304 00dc 13       		.uleb128 0x13
 7305 00dd 02       		.uleb128 0x2
 7306 00de 0A       		.uleb128 0xa
 7307 00df 00       		.byte	0x0
 7308 00e0 00       		.byte	0x0
 7309 00e1 10       		.uleb128 0x10
 7310 00e2 34       		.uleb128 0x34
 7311 00e3 00       		.byte	0x0
 7312 00e4 03       		.uleb128 0x3
 7313 00e5 0E       		.uleb128 0xe
 7314 00e6 3A       		.uleb128 0x3a
 7315 00e7 0B       		.uleb128 0xb
 7316 00e8 3B       		.uleb128 0x3b
 7317 00e9 05       		.uleb128 0x5
 7318 00ea 49       		.uleb128 0x49
ARM GAS  C:\Users\karunmj\AppData\Local\Temp\cceFJIz4.s 			page 175


 7319 00eb 13       		.uleb128 0x13
 7320 00ec 02       		.uleb128 0x2
 7321 00ed 0A       		.uleb128 0xa
 7322 00ee 00       		.byte	0x0
 7323 00ef 00       		.byte	0x0
 7324 00f0 11       		.uleb128 0x11
 7325 00f1 2E       		.uleb128 0x2e
 7326 00f2 00       		.byte	0x0
 7327 00f3 3F       		.uleb128 0x3f
 7328 00f4 0C       		.uleb128 0xc
 7329 00f5 03       		.uleb128 0x3
 7330 00f6 0E       		.uleb128 0xe
 7331 00f7 3A       		.uleb128 0x3a
 7332 00f8 0B       		.uleb128 0xb
 7333 00f9 3B       		.uleb128 0x3b
 7334 00fa 05       		.uleb128 0x5
 7335 00fb 27       		.uleb128 0x27
 7336 00fc 0C       		.uleb128 0xc
 7337 00fd 11       		.uleb128 0x11
 7338 00fe 01       		.uleb128 0x1
 7339 00ff 12       		.uleb128 0x12
 7340 0100 01       		.uleb128 0x1
 7341 0101 40       		.uleb128 0x40
 7342 0102 06       		.uleb128 0x6
 7343 0103 00       		.byte	0x0
 7344 0104 00       		.byte	0x0
 7345 0105 12       		.uleb128 0x12
 7346 0106 2E       		.uleb128 0x2e
 7347 0107 01       		.byte	0x1
 7348 0108 03       		.uleb128 0x3
 7349 0109 0E       		.uleb128 0xe
 7350 010a 3A       		.uleb128 0x3a
 7351 010b 0B       		.uleb128 0xb
 7352 010c 3B       		.uleb128 0x3b
 7353 010d 05       		.uleb128 0x5
 7354 010e 27       		.uleb128 0x27
 7355 010f 0C       		.uleb128 0xc
 7356 0110 49       		.uleb128 0x49
 7357 0111 13       		.uleb128 0x13
 7358 0112 11       		.uleb128 0x11
 7359 0113 01       		.uleb128 0x1
 7360 0114 12       		.uleb128 0x12
 7361 0115 01       		.uleb128 0x1
 7362 0116 40       		.uleb128 0x40
 7363 0117 06       		.uleb128 0x6
 7364 0118 01       		.uleb128 0x1
 7365 0119 13       		.uleb128 0x13
 7366 011a 00       		.byte	0x0
 7367 011b 00       		.byte	0x0
 7368 011c 13       		.uleb128 0x13
 7369 011d 2E       		.uleb128 0x2e
 7370 011e 01       		.byte	0x1
 7371 011f 03       		.uleb128 0x3
 7372 0120 0E       		.uleb128 0xe
 7373 0121 3A       		.uleb128 0x3a
 7374 0122 0B       		.uleb128 0xb
 7375 0123 3B       		.uleb128 0x3b
ARM GAS  C:\Users\karunmj\AppData\Local\Temp\cceFJIz4.s 			page 176


 7376 0124 05       		.uleb128 0x5
 7377 0125 27       		.uleb128 0x27
 7378 0126 0C       		.uleb128 0xc
 7379 0127 11       		.uleb128 0x11
 7380 0128 01       		.uleb128 0x1
 7381 0129 12       		.uleb128 0x12
 7382 012a 01       		.uleb128 0x1
 7383 012b 40       		.uleb128 0x40
 7384 012c 06       		.uleb128 0x6
 7385 012d 01       		.uleb128 0x1
 7386 012e 13       		.uleb128 0x13
 7387 012f 00       		.byte	0x0
 7388 0130 00       		.byte	0x0
 7389 0131 14       		.uleb128 0x14
 7390 0132 2E       		.uleb128 0x2e
 7391 0133 01       		.byte	0x1
 7392 0134 3F       		.uleb128 0x3f
 7393 0135 0C       		.uleb128 0xc
 7394 0136 03       		.uleb128 0x3
 7395 0137 0E       		.uleb128 0xe
 7396 0138 3A       		.uleb128 0x3a
 7397 0139 0B       		.uleb128 0xb
 7398 013a 3B       		.uleb128 0x3b
 7399 013b 05       		.uleb128 0x5
 7400 013c 27       		.uleb128 0x27
 7401 013d 0C       		.uleb128 0xc
 7402 013e 49       		.uleb128 0x49
 7403 013f 13       		.uleb128 0x13
 7404 0140 11       		.uleb128 0x11
 7405 0141 01       		.uleb128 0x1
 7406 0142 12       		.uleb128 0x12
 7407 0143 01       		.uleb128 0x1
 7408 0144 40       		.uleb128 0x40
 7409 0145 06       		.uleb128 0x6
 7410 0146 01       		.uleb128 0x1
 7411 0147 13       		.uleb128 0x13
 7412 0148 00       		.byte	0x0
 7413 0149 00       		.byte	0x0
 7414 014a 15       		.uleb128 0x15
 7415 014b 34       		.uleb128 0x34
 7416 014c 00       		.byte	0x0
 7417 014d 03       		.uleb128 0x3
 7418 014e 08       		.uleb128 0x8
 7419 014f 3A       		.uleb128 0x3a
 7420 0150 0B       		.uleb128 0xb
 7421 0151 3B       		.uleb128 0x3b
 7422 0152 05       		.uleb128 0x5
 7423 0153 49       		.uleb128 0x49
 7424 0154 13       		.uleb128 0x13
 7425 0155 02       		.uleb128 0x2
 7426 0156 0A       		.uleb128 0xa
 7427 0157 00       		.byte	0x0
 7428 0158 00       		.byte	0x0
 7429 0159 16       		.uleb128 0x16
 7430 015a 2E       		.uleb128 0x2e
 7431 015b 00       		.byte	0x0
 7432 015c 3F       		.uleb128 0x3f
ARM GAS  C:\Users\karunmj\AppData\Local\Temp\cceFJIz4.s 			page 177


 7433 015d 0C       		.uleb128 0xc
 7434 015e 03       		.uleb128 0x3
 7435 015f 0E       		.uleb128 0xe
 7436 0160 3A       		.uleb128 0x3a
 7437 0161 0B       		.uleb128 0xb
 7438 0162 3B       		.uleb128 0x3b
 7439 0163 05       		.uleb128 0x5
 7440 0164 27       		.uleb128 0x27
 7441 0165 0C       		.uleb128 0xc
 7442 0166 49       		.uleb128 0x49
 7443 0167 13       		.uleb128 0x13
 7444 0168 11       		.uleb128 0x11
 7445 0169 01       		.uleb128 0x1
 7446 016a 12       		.uleb128 0x12
 7447 016b 01       		.uleb128 0x1
 7448 016c 40       		.uleb128 0x40
 7449 016d 06       		.uleb128 0x6
 7450 016e 00       		.byte	0x0
 7451 016f 00       		.byte	0x0
 7452 0170 17       		.uleb128 0x17
 7453 0171 34       		.uleb128 0x34
 7454 0172 00       		.byte	0x0
 7455 0173 03       		.uleb128 0x3
 7456 0174 0E       		.uleb128 0xe
 7457 0175 3A       		.uleb128 0x3a
 7458 0176 0B       		.uleb128 0xb
 7459 0177 3B       		.uleb128 0x3b
 7460 0178 0B       		.uleb128 0xb
 7461 0179 49       		.uleb128 0x49
 7462 017a 13       		.uleb128 0x13
 7463 017b 3F       		.uleb128 0x3f
 7464 017c 0C       		.uleb128 0xc
 7465 017d 02       		.uleb128 0x2
 7466 017e 0A       		.uleb128 0xa
 7467 017f 00       		.byte	0x0
 7468 0180 00       		.byte	0x0
 7469 0181 00       		.byte	0x0
 7470              		.section	.debug_pubnames,"",%progbits
 7471 0000 76050000 		.4byte	0x576
 7472 0004 0200     		.2byte	0x2
 7473 0006 00000000 		.4byte	.Ldebug_info0
 7474 000a 710C0000 		.4byte	0xc71
 7475 000e D0000000 		.4byte	0xd0
 7476 0012 4379504C 		.ascii	"CyPLL_OUT_Start\000"
 7476      4C5F4F55 
 7476      545F5374 
 7476      61727400 
 7477 0022 34010000 		.4byte	0x134
 7478 0026 4379504C 		.ascii	"CyPLL_OUT_Stop\000"
 7478      4C5F4F55 
 7478      545F5374 
 7478      6F7000
 7479 0035 49010000 		.4byte	0x149
 7480 0039 4379504C 		.ascii	"CyPLL_OUT_SetPQ\000"
 7480      4C5F4F55 
 7480      545F5365 
 7480      74505100 
ARM GAS  C:\Users\karunmj\AppData\Local\Temp\cceFJIz4.s 			page 178


 7481 0049 8D010000 		.4byte	0x18d
 7482 004d 4379504C 		.ascii	"CyPLL_OUT_SetSource\000"
 7482      4C5F4F55 
 7482      545F5365 
 7482      74536F75 
 7482      72636500 
 7483 0061 B5010000 		.4byte	0x1b5
 7484 0065 4379494D 		.ascii	"CyIMO_Start\000"
 7484      4F5F5374 
 7484      61727400 
 7485 0071 0C020000 		.4byte	0x20c
 7486 0075 4379494D 		.ascii	"CyIMO_Stop\000"
 7486      4F5F5374 
 7486      6F7000
 7487 0080 87020000 		.4byte	0x287
 7488 0084 4379494D 		.ascii	"CyIMO_SetFreq\000"
 7488      4F5F5365 
 7488      74467265 
 7488      7100
 7489 0092 CF020000 		.4byte	0x2cf
 7490 0096 4379494D 		.ascii	"CyIMO_SetSource\000"
 7490      4F5F5365 
 7490      74536F75 
 7490      72636500 
 7491 00a6 F9020000 		.4byte	0x2f9
 7492 00aa 4379494D 		.ascii	"CyIMO_EnableDoubler\000"
 7492      4F5F456E 
 7492      61626C65 
 7492      446F7562 
 7492      6C657200 
 7493 00be 0F030000 		.4byte	0x30f
 7494 00c2 4379494D 		.ascii	"CyIMO_DisableDoubler\000"
 7494      4F5F4469 
 7494      7361626C 
 7494      65446F75 
 7494      626C6572 
 7495 00d7 25030000 		.4byte	0x325
 7496 00db 43794D61 		.ascii	"CyMasterClk_SetSource\000"
 7496      73746572 
 7496      436C6B5F 
 7496      53657453 
 7496      6F757263 
 7497 00f1 4F030000 		.4byte	0x34f
 7498 00f5 43794D61 		.ascii	"CyMasterClk_SetDivider\000"
 7498      73746572 
 7498      436C6B5F 
 7498      53657444 
 7498      69766964 
 7499 010c A2030000 		.4byte	0x3a2
 7500 0110 43794275 		.ascii	"CyBusClk_SetDivider\000"
 7500      73436C6B 
 7500      5F536574 
 7500      44697669 
 7500      64657200 
 7501 0124 F9030000 		.4byte	0x3f9
 7502 0128 43795573 		.ascii	"CyUsbClk_SetSource\000"
 7502      62436C6B 
ARM GAS  C:\Users\karunmj\AppData\Local\Temp\cceFJIz4.s 			page 179


 7502      5F536574 
 7502      536F7572 
 7502      636500
 7503 013b 23040000 		.4byte	0x423
 7504 013f 4379494C 		.ascii	"CyILO_Start1K\000"
 7504      4F5F5374 
 7504      61727431 
 7504      4B00
 7505 014d 39040000 		.4byte	0x439
 7506 0151 4379494C 		.ascii	"CyILO_Stop1K\000"
 7506      4F5F5374 
 7506      6F70314B 
 7506      00
 7507 015e 4F040000 		.4byte	0x44f
 7508 0162 4379494C 		.ascii	"CyILO_Start100K\000"
 7508      4F5F5374 
 7508      61727431 
 7508      30304B00 
 7509 0172 65040000 		.4byte	0x465
 7510 0176 4379494C 		.ascii	"CyILO_Stop100K\000"
 7510      4F5F5374 
 7510      6F703130 
 7510      304B00
 7511 0185 7B040000 		.4byte	0x47b
 7512 0189 4379494C 		.ascii	"CyILO_Enable33K\000"
 7512      4F5F456E 
 7512      61626C65 
 7512      33334B00 
 7513 0199 91040000 		.4byte	0x491
 7514 019d 4379494C 		.ascii	"CyILO_Disable33K\000"
 7514      4F5F4469 
 7514      7361626C 
 7514      6533334B 
 7514      00
 7515 01ae A7040000 		.4byte	0x4a7
 7516 01b2 4379494C 		.ascii	"CyILO_SetSource\000"
 7516      4F5F5365 
 7516      74536F75 
 7516      72636500 
 7517 01c2 D1040000 		.4byte	0x4d1
 7518 01c6 4379494C 		.ascii	"CyILO_SetPowerMode\000"
 7518      4F5F5365 
 7518      74506F77 
 7518      65724D6F 
 7518      646500
 7519 01d9 0E050000 		.4byte	0x50e
 7520 01dd 43795854 		.ascii	"CyXTAL_32KHZ_Start\000"
 7520      414C5F33 
 7520      324B485A 
 7520      5F537461 
 7520      727400
 7521 01f0 36050000 		.4byte	0x536
 7522 01f4 43795854 		.ascii	"CyXTAL_32KHZ_Stop\000"
 7522      414C5F33 
 7522      324B485A 
 7522      5F53746F 
 7522      7000
ARM GAS  C:\Users\karunmj\AppData\Local\Temp\cceFJIz4.s 			page 180


 7523 0206 4C050000 		.4byte	0x54c
 7524 020a 43795854 		.ascii	"CyXTAL_32KHZ_ReadStatus\000"
 7524      414C5F33 
 7524      324B485A 
 7524      5F526561 
 7524      64537461 
 7525 0222 66050000 		.4byte	0x566
 7526 0226 43795854 		.ascii	"CyXTAL_32KHZ_SetPowerMode\000"
 7526      414C5F33 
 7526      324B485A 
 7526      5F536574 
 7526      506F7765 
 7527 0240 A3050000 		.4byte	0x5a3
 7528 0244 43795854 		.ascii	"CyXTAL_Start\000"
 7528      414C5F53 
 7528      74617274 
 7528      00
 7529 0251 2B060000 		.4byte	0x62b
 7530 0255 43795854 		.ascii	"CyXTAL_Stop\000"
 7530      414C5F53 
 7530      746F7000 
 7531 0261 41060000 		.4byte	0x641
 7532 0265 43795854 		.ascii	"CyXTAL_EnableErrStatus\000"
 7532      414C5F45 
 7532      6E61626C 
 7532      65457272 
 7532      53746174 
 7533 027c 57060000 		.4byte	0x657
 7534 0280 43795854 		.ascii	"CyXTAL_DisableErrStatus\000"
 7534      414C5F44 
 7534      69736162 
 7534      6C654572 
 7534      72537461 
 7535 0298 6D060000 		.4byte	0x66d
 7536 029c 43795854 		.ascii	"CyXTAL_ReadStatus\000"
 7536      414C5F52 
 7536      65616453 
 7536      74617475 
 7536      7300
 7537 02ae 87060000 		.4byte	0x687
 7538 02b2 43795854 		.ascii	"CyXTAL_EnableFaultRecovery\000"
 7538      414C5F45 
 7538      6E61626C 
 7538      65466175 
 7538      6C745265 
 7539 02cd 9D060000 		.4byte	0x69d
 7540 02d1 43795854 		.ascii	"CyXTAL_DisableFaultRecovery\000"
 7540      414C5F44 
 7540      69736162 
 7540      6C654661 
 7540      756C7452 
 7541 02ed B3060000 		.4byte	0x6b3
 7542 02f1 43795854 		.ascii	"CyXTAL_SetStartup\000"
 7542      414C5F53 
 7542      65745374 
 7542      61727475 
 7542      7000
ARM GAS  C:\Users\karunmj\AppData\Local\Temp\cceFJIz4.s 			page 181


 7543 0303 DD060000 		.4byte	0x6dd
 7544 0307 43795854 		.ascii	"CyXTAL_SetFbVoltage\000"
 7544      414C5F53 
 7544      65744662 
 7544      566F6C74 
 7544      61676500 
 7545 031b 07070000 		.4byte	0x707
 7546 031f 43795854 		.ascii	"CyXTAL_SetWdVoltage\000"
 7546      414C5F53 
 7546      65745764 
 7546      566F6C74 
 7546      61676500 
 7547 0333 31070000 		.4byte	0x731
 7548 0337 43794861 		.ascii	"CyHalt\000"
 7548      6C7400
 7549 033e 5B070000 		.4byte	0x75b
 7550 0342 4379536F 		.ascii	"CySoftwareReset\000"
 7550      66747761 
 7550      72655265 
 7550      73657400 
 7551 0352 71070000 		.4byte	0x771
 7552 0356 43794465 		.ascii	"CyDelay\000"
 7552      6C617900 
 7553 035e 9B070000 		.4byte	0x79b
 7554 0362 43794465 		.ascii	"CyDelayUs\000"
 7554      6C617955 
 7554      7300
 7555 036c C5070000 		.4byte	0x7c5
 7556 0370 43794465 		.ascii	"CyDelayFreq\000"
 7556      6C617946 
 7556      72657100 
 7557 037c EF070000 		.4byte	0x7ef
 7558 0380 43795764 		.ascii	"CyWdtStart\000"
 7558      74537461 
 7558      727400
 7559 038b 28080000 		.4byte	0x828
 7560 038f 43795764 		.ascii	"CyWdtClear\000"
 7560      74436C65 
 7560      617200
 7561 039a 3E080000 		.4byte	0x83e
 7562 039e 43795664 		.ascii	"CyVdLvDigitEnable\000"
 7562      4C764469 
 7562      67697445 
 7562      6E61626C 
 7562      6500
 7563 03b0 77080000 		.4byte	0x877
 7564 03b4 43795664 		.ascii	"CyVdLvAnalogEnable\000"
 7564      4C76416E 
 7564      616C6F67 
 7564      456E6162 
 7564      6C6500
 7565 03c7 B0080000 		.4byte	0x8b0
 7566 03cb 43795664 		.ascii	"CyVdLvDigitDisable\000"
 7566      4C764469 
 7566      67697444 
 7566      69736162 
 7566      6C6500
ARM GAS  C:\Users\karunmj\AppData\Local\Temp\cceFJIz4.s 			page 182


 7567 03de C6080000 		.4byte	0x8c6
 7568 03e2 43795664 		.ascii	"CyVdLvAnalogDisable\000"
 7568      4C76416E 
 7568      616C6F67 
 7568      44697361 
 7568      626C6500 
 7569 03f6 DC080000 		.4byte	0x8dc
 7570 03fa 43795664 		.ascii	"CyVdHvAnalogEnable\000"
 7570      4876416E 
 7570      616C6F67 
 7570      456E6162 
 7570      6C6500
 7571 040d F2080000 		.4byte	0x8f2
 7572 0411 43795664 		.ascii	"CyVdHvAnalogDisable\000"
 7572      4876416E 
 7572      616C6F67 
 7572      44697361 
 7572      626C6500 
 7573 0425 08090000 		.4byte	0x908
 7574 0429 43795664 		.ascii	"CyVdStickyStatus\000"
 7574      53746963 
 7574      6B795374 
 7574      61747573 
 7574      00
 7575 043a 45090000 		.4byte	0x945
 7576 043e 43795664 		.ascii	"CyVdRealTimeStatus\000"
 7576      5265616C 
 7576      54696D65 
 7576      53746174 
 7576      757300
 7577 0451 82090000 		.4byte	0x982
 7578 0455 43794469 		.ascii	"CyDisableInts\000"
 7578      7361626C 
 7578      65496E74 
 7578      7300
 7579 0463 BF090000 		.4byte	0x9bf
 7580 0467 4379456E 		.ascii	"CyEnableInts\000"
 7580      61626C65 
 7580      496E7473 
 7580      00
 7581 0474 F8090000 		.4byte	0x9f8
 7582 0478 4379466C 		.ascii	"CyFlushCache\000"
 7582      75736843 
 7582      61636865 
 7582      00
 7583 0485 220A0000 		.4byte	0xa22
 7584 0489 4379496E 		.ascii	"CyIntSetSysVector\000"
 7584      74536574 
 7584      53797356 
 7584      6563746F 
 7584      7200
 7585 049b 830A0000 		.4byte	0xa83
 7586 049f 4379496E 		.ascii	"CyIntGetSysVector\000"
 7586      74476574 
 7586      53797356 
 7586      6563746F 
 7586      7200
ARM GAS  C:\Users\karunmj\AppData\Local\Temp\cceFJIz4.s 			page 183


 7587 04b1 C00A0000 		.4byte	0xac0
 7588 04b5 4379496E 		.ascii	"CyIntSetVector\000"
 7588      74536574 
 7588      56656374 
 7588      6F7200
 7589 04c4 1B0B0000 		.4byte	0xb1b
 7590 04c8 4379496E 		.ascii	"CyIntGetVector\000"
 7590      74476574 
 7590      56656374 
 7590      6F7200
 7591 04d7 580B0000 		.4byte	0xb58
 7592 04db 4379496E 		.ascii	"CyIntSetPriority\000"
 7592      74536574 
 7592      5072696F 
 7592      72697479 
 7592      00
 7593 04ec 910B0000 		.4byte	0xb91
 7594 04f0 4379496E 		.ascii	"CyIntGetPriority\000"
 7594      74476574 
 7594      5072696F 
 7594      72697479 
 7594      00
 7595 0501 CE0B0000 		.4byte	0xbce
 7596 0505 4379496E 		.ascii	"CyIntGetState\000"
 7596      74476574 
 7596      53746174 
 7596      6500
 7597 0513 160C0000 		.4byte	0xc16
 7598 0517 43795265 		.ascii	"CyResetStatus\000"
 7598      73657453 
 7598      74617475 
 7598      7300
 7599 0525 280C0000 		.4byte	0xc28
 7600 0529 63796465 		.ascii	"cydelay_freq_hz\000"
 7600      6C61795F 
 7600      66726571 
 7600      5F687A00 
 7601 0539 3A0C0000 		.4byte	0xc3a
 7602 053d 63796465 		.ascii	"cydelay_freq_khz\000"
 7602      6C61795F 
 7602      66726571 
 7602      5F6B687A 
 7602      00
 7603 054e 4C0C0000 		.4byte	0xc4c
 7604 0552 63796465 		.ascii	"cydelay_freq_mhz\000"
 7604      6C61795F 
 7604      66726571 
 7604      5F6D687A 
 7604      00
 7605 0563 5E0C0000 		.4byte	0xc5e
 7606 0567 63796465 		.ascii	"cydelay_32k_ms\000"
 7606      6C61795F 
 7606      33326B5F 
 7606      6D7300
 7607 0576 00000000 		.4byte	0x0
 7608              		.section	.debug_aranges,"",%progbits
 7609 0000 14020000 		.4byte	0x214
ARM GAS  C:\Users\karunmj\AppData\Local\Temp\cceFJIz4.s 			page 184


 7610 0004 0200     		.2byte	0x2
 7611 0006 00000000 		.4byte	.Ldebug_info0
 7612 000a 04       		.byte	0x4
 7613 000b 00       		.byte	0x0
 7614 000c 0000     		.2byte	0x0
 7615 000e 0000     		.2byte	0x0
 7616 0010 00000000 		.4byte	.LFB0
 7617 0014 DA000000 		.4byte	.LFE0-.LFB0
 7618 0018 00000000 		.4byte	.LFB1
 7619 001c 24000000 		.4byte	.LFE1-.LFB1
 7620 0020 00000000 		.4byte	.LFB2
 7621 0024 AA000000 		.4byte	.LFE2-.LFB2
 7622 0028 00000000 		.4byte	.LFB3
 7623 002c 64000000 		.4byte	.LFE3-.LFB3
 7624 0030 00000000 		.4byte	.LFB4
 7625 0034 D0000000 		.4byte	.LFE4-.LFB4
 7626 0038 00000000 		.4byte	.LFB5
 7627 003c 24000000 		.4byte	.LFE5-.LFB5
 7628 0040 00000000 		.4byte	.LFB6
 7629 0044 74000000 		.4byte	.LFE6-.LFB6
 7630 0048 00000000 		.4byte	.LFB7
 7631 004c 42010000 		.4byte	.LFE7-.LFB7
 7632 0050 00000000 		.4byte	.LFB8
 7633 0054 E4010000 		.4byte	.LFE8-.LFB8
 7634 0058 00000000 		.4byte	.LFB9
 7635 005c B8000000 		.4byte	.LFE9-.LFB9
 7636 0060 00000000 		.4byte	.LFB10
 7637 0064 26000000 		.4byte	.LFE10-.LFB10
 7638 0068 00000000 		.4byte	.LFB11
 7639 006c 24000000 		.4byte	.LFE11-.LFB11
 7640 0070 00000000 		.4byte	.LFB12
 7641 0074 3C000000 		.4byte	.LFE12-.LFB12
 7642 0078 00000000 		.4byte	.LFB13
 7643 007c 20000000 		.4byte	.LFE13-.LFB13
 7644 0080 00000000 		.4byte	.LFB14
 7645 0084 9A000000 		.4byte	.LFE14-.LFB14
 7646 0088 00000000 		.4byte	.LFB15
 7647 008c CC000000 		.4byte	.LFE15-.LFB15
 7648 0090 00000000 		.4byte	.LFB16
 7649 0094 3C000000 		.4byte	.LFE16-.LFB16
 7650 0098 00000000 		.4byte	.LFB17
 7651 009c 26000000 		.4byte	.LFE17-.LFB17
 7652 00a0 00000000 		.4byte	.LFB18
 7653 00a4 24000000 		.4byte	.LFE18-.LFB18
 7654 00a8 00000000 		.4byte	.LFB19
 7655 00ac 26000000 		.4byte	.LFE19-.LFB19
 7656 00b0 00000000 		.4byte	.LFB20
 7657 00b4 24000000 		.4byte	.LFE20-.LFB20
 7658 00b8 00000000 		.4byte	.LFB21
 7659 00bc 26000000 		.4byte	.LFE21-.LFB21
 7660 00c0 00000000 		.4byte	.LFB22
 7661 00c4 24000000 		.4byte	.LFE22-.LFB22
 7662 00c8 00000000 		.4byte	.LFB23
 7663 00cc 42000000 		.4byte	.LFE23-.LFB23
 7664 00d0 00000000 		.4byte	.LFB24
 7665 00d4 58000000 		.4byte	.LFE24-.LFB24
 7666 00d8 00000000 		.4byte	.LFB25
ARM GAS  C:\Users\karunmj\AppData\Local\Temp\cceFJIz4.s 			page 185


 7667 00dc A2000000 		.4byte	.LFE25-.LFB25
 7668 00e0 00000000 		.4byte	.LFB26
 7669 00e4 60000000 		.4byte	.LFE26-.LFB26
 7670 00e8 00000000 		.4byte	.LFB27
 7671 00ec 1C000000 		.4byte	.LFE27-.LFB27
 7672 00f0 00000000 		.4byte	.LFB28
 7673 00f4 F6000000 		.4byte	.LFE28-.LFB28
 7674 00f8 00000000 		.4byte	.LFB29
 7675 00fc FE000000 		.4byte	.LFE29-.LFB29
 7676 0100 00000000 		.4byte	.LFB30
 7677 0104 24000000 		.4byte	.LFE30-.LFB30
 7678 0108 00000000 		.4byte	.LFB31
 7679 010c 24000000 		.4byte	.LFE31-.LFB31
 7680 0110 00000000 		.4byte	.LFB32
 7681 0114 26000000 		.4byte	.LFE32-.LFB32
 7682 0118 00000000 		.4byte	.LFB33
 7683 011c 28000000 		.4byte	.LFE33-.LFB33
 7684 0120 00000000 		.4byte	.LFB34
 7685 0124 26000000 		.4byte	.LFE34-.LFB34
 7686 0128 00000000 		.4byte	.LFB35
 7687 012c 24000000 		.4byte	.LFE35-.LFB35
 7688 0130 00000000 		.4byte	.LFB36
 7689 0134 3C000000 		.4byte	.LFE36-.LFB36
 7690 0138 00000000 		.4byte	.LFB37
 7691 013c 3C000000 		.4byte	.LFE37-.LFB37
 7692 0140 00000000 		.4byte	.LFB38
 7693 0144 42000000 		.4byte	.LFE38-.LFB38
 7694 0148 00000000 		.4byte	.LFB39
 7695 014c 16000000 		.4byte	.LFE39-.LFB39
 7696 0150 00000000 		.4byte	.LFB40
 7697 0154 18000000 		.4byte	.LFE40-.LFB40
 7698 0158 00000000 		.4byte	.LFB41
 7699 015c 48000000 		.4byte	.LFE41-.LFB41
 7700 0160 00000000 		.4byte	.LFB42
 7701 0164 28000000 		.4byte	.LFE42-.LFB42
 7702 0168 00000000 		.4byte	.LFB43
 7703 016c AC000000 		.4byte	.LFE43-.LFB43
 7704 0170 00000000 		.4byte	.LFB44
 7705 0174 C4000000 		.4byte	.LFE44-.LFB44
 7706 0178 00000000 		.4byte	.LFB45
 7707 017c 18000000 		.4byte	.LFE45-.LFB45
 7708 0180 00000000 		.4byte	.LFB46
 7709 0184 EC000000 		.4byte	.LFE46-.LFB46
 7710 0188 00000000 		.4byte	.LFB47
 7711 018c F2000000 		.4byte	.LFE47-.LFB47
 7712 0190 00000000 		.4byte	.LFB48
 7713 0194 52000000 		.4byte	.LFE48-.LFB48
 7714 0198 00000000 		.4byte	.LFB49
 7715 019c 52000000 		.4byte	.LFE49-.LFB49
 7716 01a0 00000000 		.4byte	.LFB50
 7717 01a4 78000000 		.4byte	.LFE50-.LFB50
 7718 01a8 00000000 		.4byte	.LFB51
 7719 01ac 24000000 		.4byte	.LFE51-.LFB51
 7720 01b0 00000000 		.4byte	.LFB52
 7721 01b4 48000000 		.4byte	.LFE52-.LFB52
 7722 01b8 00000000 		.4byte	.LFB53
 7723 01bc 2E000000 		.4byte	.LFE53-.LFB53
ARM GAS  C:\Users\karunmj\AppData\Local\Temp\cceFJIz4.s 			page 186


 7724 01c0 00000000 		.4byte	.LFB54
 7725 01c4 3C000000 		.4byte	.LFE54-.LFB54
 7726 01c8 00000000 		.4byte	.LFB55
 7727 01cc 2C000000 		.4byte	.LFE55-.LFB55
 7728 01d0 00000000 		.4byte	.LFB56
 7729 01d4 7A000000 		.4byte	.LFE56-.LFB56
 7730 01d8 00000000 		.4byte	.LFB57
 7731 01dc 56000000 		.4byte	.LFE57-.LFB57
 7732 01e0 00000000 		.4byte	.LFB58
 7733 01e4 3E000000 		.4byte	.LFE58-.LFB58
 7734 01e8 00000000 		.4byte	.LFB59
 7735 01ec 5E000000 		.4byte	.LFE59-.LFB59
 7736 01f0 00000000 		.4byte	.LFB60
 7737 01f4 42000000 		.4byte	.LFE60-.LFB60
 7738 01f8 00000000 		.4byte	.LFB61
 7739 01fc 4A000000 		.4byte	.LFE61-.LFB61
 7740 0200 00000000 		.4byte	.LFB62
 7741 0204 3C000000 		.4byte	.LFE62-.LFB62
 7742 0208 00000000 		.4byte	.LFB63
 7743 020c 40000000 		.4byte	.LFE63-.LFB63
 7744 0210 00000000 		.4byte	0x0
 7745 0214 00000000 		.4byte	0x0
 7746              		.section	.debug_ranges,"",%progbits
 7747              	.Ldebug_ranges0:
 7748 0000 00000000 		.4byte	.Ltext0
 7749 0004 00000000 		.4byte	.Letext0
 7750 0008 00000000 		.4byte	.LFB0
 7751 000c DA000000 		.4byte	.LFE0
 7752 0010 00000000 		.4byte	.LFB1
 7753 0014 24000000 		.4byte	.LFE1
 7754 0018 00000000 		.4byte	.LFB2
 7755 001c AA000000 		.4byte	.LFE2
 7756 0020 00000000 		.4byte	.LFB3
 7757 0024 64000000 		.4byte	.LFE3
 7758 0028 00000000 		.4byte	.LFB4
 7759 002c D0000000 		.4byte	.LFE4
 7760 0030 00000000 		.4byte	.LFB5
 7761 0034 24000000 		.4byte	.LFE5
 7762 0038 00000000 		.4byte	.LFB6
 7763 003c 74000000 		.4byte	.LFE6
 7764 0040 00000000 		.4byte	.LFB7
 7765 0044 42010000 		.4byte	.LFE7
 7766 0048 00000000 		.4byte	.LFB8
 7767 004c E4010000 		.4byte	.LFE8
 7768 0050 00000000 		.4byte	.LFB9
 7769 0054 B8000000 		.4byte	.LFE9
 7770 0058 00000000 		.4byte	.LFB10
 7771 005c 26000000 		.4byte	.LFE10
 7772 0060 00000000 		.4byte	.LFB11
 7773 0064 24000000 		.4byte	.LFE11
 7774 0068 00000000 		.4byte	.LFB12
 7775 006c 3C000000 		.4byte	.LFE12
 7776 0070 00000000 		.4byte	.LFB13
 7777 0074 20000000 		.4byte	.LFE13
 7778 0078 00000000 		.4byte	.LFB14
 7779 007c 9A000000 		.4byte	.LFE14
 7780 0080 00000000 		.4byte	.LFB15
ARM GAS  C:\Users\karunmj\AppData\Local\Temp\cceFJIz4.s 			page 187


 7781 0084 CC000000 		.4byte	.LFE15
 7782 0088 00000000 		.4byte	.LFB16
 7783 008c 3C000000 		.4byte	.LFE16
 7784 0090 00000000 		.4byte	.LFB17
 7785 0094 26000000 		.4byte	.LFE17
 7786 0098 00000000 		.4byte	.LFB18
 7787 009c 24000000 		.4byte	.LFE18
 7788 00a0 00000000 		.4byte	.LFB19
 7789 00a4 26000000 		.4byte	.LFE19
 7790 00a8 00000000 		.4byte	.LFB20
 7791 00ac 24000000 		.4byte	.LFE20
 7792 00b0 00000000 		.4byte	.LFB21
 7793 00b4 26000000 		.4byte	.LFE21
 7794 00b8 00000000 		.4byte	.LFB22
 7795 00bc 24000000 		.4byte	.LFE22
 7796 00c0 00000000 		.4byte	.LFB23
 7797 00c4 42000000 		.4byte	.LFE23
 7798 00c8 00000000 		.4byte	.LFB24
 7799 00cc 58000000 		.4byte	.LFE24
 7800 00d0 00000000 		.4byte	.LFB25
 7801 00d4 A2000000 		.4byte	.LFE25
 7802 00d8 00000000 		.4byte	.LFB26
 7803 00dc 60000000 		.4byte	.LFE26
 7804 00e0 00000000 		.4byte	.LFB27
 7805 00e4 1C000000 		.4byte	.LFE27
 7806 00e8 00000000 		.4byte	.LFB28
 7807 00ec F6000000 		.4byte	.LFE28
 7808 00f0 00000000 		.4byte	.LFB29
 7809 00f4 FE000000 		.4byte	.LFE29
 7810 00f8 00000000 		.4byte	.LFB30
 7811 00fc 24000000 		.4byte	.LFE30
 7812 0100 00000000 		.4byte	.LFB31
 7813 0104 24000000 		.4byte	.LFE31
 7814 0108 00000000 		.4byte	.LFB32
 7815 010c 26000000 		.4byte	.LFE32
 7816 0110 00000000 		.4byte	.LFB33
 7817 0114 28000000 		.4byte	.LFE33
 7818 0118 00000000 		.4byte	.LFB34
 7819 011c 26000000 		.4byte	.LFE34
 7820 0120 00000000 		.4byte	.LFB35
 7821 0124 24000000 		.4byte	.LFE35
 7822 0128 00000000 		.4byte	.LFB36
 7823 012c 3C000000 		.4byte	.LFE36
 7824 0130 00000000 		.4byte	.LFB37
 7825 0134 3C000000 		.4byte	.LFE37
 7826 0138 00000000 		.4byte	.LFB38
 7827 013c 42000000 		.4byte	.LFE38
 7828 0140 00000000 		.4byte	.LFB39
 7829 0144 16000000 		.4byte	.LFE39
 7830 0148 00000000 		.4byte	.LFB40
 7831 014c 18000000 		.4byte	.LFE40
 7832 0150 00000000 		.4byte	.LFB41
 7833 0154 48000000 		.4byte	.LFE41
 7834 0158 00000000 		.4byte	.LFB42
 7835 015c 28000000 		.4byte	.LFE42
 7836 0160 00000000 		.4byte	.LFB43
 7837 0164 AC000000 		.4byte	.LFE43
ARM GAS  C:\Users\karunmj\AppData\Local\Temp\cceFJIz4.s 			page 188


 7838 0168 00000000 		.4byte	.LFB44
 7839 016c C4000000 		.4byte	.LFE44
 7840 0170 00000000 		.4byte	.LFB45
 7841 0174 18000000 		.4byte	.LFE45
 7842 0178 00000000 		.4byte	.LFB46
 7843 017c EC000000 		.4byte	.LFE46
 7844 0180 00000000 		.4byte	.LFB47
 7845 0184 F2000000 		.4byte	.LFE47
 7846 0188 00000000 		.4byte	.LFB48
 7847 018c 52000000 		.4byte	.LFE48
 7848 0190 00000000 		.4byte	.LFB49
 7849 0194 52000000 		.4byte	.LFE49
 7850 0198 00000000 		.4byte	.LFB50
 7851 019c 78000000 		.4byte	.LFE50
 7852 01a0 00000000 		.4byte	.LFB51
 7853 01a4 24000000 		.4byte	.LFE51
 7854 01a8 00000000 		.4byte	.LFB52
 7855 01ac 48000000 		.4byte	.LFE52
 7856 01b0 00000000 		.4byte	.LFB53
 7857 01b4 2E000000 		.4byte	.LFE53
 7858 01b8 00000000 		.4byte	.LFB54
 7859 01bc 3C000000 		.4byte	.LFE54
 7860 01c0 00000000 		.4byte	.LFB55
 7861 01c4 2C000000 		.4byte	.LFE55
 7862 01c8 00000000 		.4byte	.LFB56
 7863 01cc 7A000000 		.4byte	.LFE56
 7864 01d0 00000000 		.4byte	.LFB57
 7865 01d4 56000000 		.4byte	.LFE57
 7866 01d8 00000000 		.4byte	.LFB58
 7867 01dc 3E000000 		.4byte	.LFE58
 7868 01e0 00000000 		.4byte	.LFB59
 7869 01e4 5E000000 		.4byte	.LFE59
 7870 01e8 00000000 		.4byte	.LFB60
 7871 01ec 42000000 		.4byte	.LFE60
 7872 01f0 00000000 		.4byte	.LFB61
 7873 01f4 4A000000 		.4byte	.LFE61
 7874 01f8 00000000 		.4byte	.LFB62
 7875 01fc 3C000000 		.4byte	.LFE62
 7876 0200 00000000 		.4byte	.LFB63
 7877 0204 40000000 		.4byte	.LFE63
 7878 0208 00000000 		.4byte	0x0
 7879 020c 00000000 		.4byte	0x0
 7880              		.section	.debug_str,"MS",%progbits,1
 7881              	.LASF115:
 7882 0000 72616D56 		.ascii	"ramVectorTable\000"
 7882      6563746F 
 7882      72546162 
 7882      6C6500
 7883              	.LASF69:
 7884 000f 636F756E 		.ascii	"count\000"
 7884      7400
 7885              	.LASF11:
 7886 0015 75696E74 		.ascii	"uint16\000"
 7886      313600
 7887              	.LASF45:
 7888 001c 64697669 		.ascii	"divider\000"
 7888      64657200 
ARM GAS  C:\Users\karunmj\AppData\Local\Temp\cceFJIz4.s 			page 189


 7889              	.LASF96:
 7890 0024 72657365 		.ascii	"reset\000"
 7890      7400
 7891              	.LASF74:
 7892 002a 43795854 		.ascii	"CyXTAL_DisableErrStatus\000"
 7892      414C5F44 
 7892      69736162 
 7892      6C654572 
 7892      72537461 
 7893              	.LASF28:
 7894 0042 4379494D 		.ascii	"CyIMO_Start\000"
 7894      4F5F5374 
 7894      61727400 
 7895              	.LASF56:
 7896 004e 4379494C 		.ascii	"CyILO_Stop100K\000"
 7896      4F5F5374 
 7896      6F703130 
 7896      304B00
 7897              	.LASF114:
 7898 005d 6F6C6449 		.ascii	"oldIsr\000"
 7898      737200
 7899              	.LASF41:
 7900 0064 4379494D 		.ascii	"CyIMO_EnableDoubler\000"
 7900      4F5F456E 
 7900      61626C65 
 7900      446F7562 
 7900      6C657200 
 7901              	.LASF107:
 7902 0078 43794469 		.ascii	"CyDisableInts\000"
 7902      7361626C 
 7902      65496E74 
 7902      7300
 7903              	.LASF47:
 7904 0086 43794275 		.ascii	"CyBusClk_Internal_SetDivider\000"
 7904      73436C6B 
 7904      5F496E74 
 7904      65726E61 
 7904      6C5F5365 
 7905              	.LASF64:
 7906 00a3 43795854 		.ascii	"CyXTAL_32KHZ_Start\000"
 7906      414C5F33 
 7906      324B485A 
 7906      5F537461 
 7906      727400
 7907              	.LASF6:
 7908 00b6 6C6F6E67 		.ascii	"long long unsigned int\000"
 7908      206C6F6E 
 7908      6720756E 
 7908      7369676E 
 7908      65642069 
 7909              	.LASF129:
 7910 00cd 474E5520 		.ascii	"GNU C 4.4.1\000"
 7910      4320342E 
 7910      342E3100 
 7911              	.LASF19:
 7912 00d9 706D5477 		.ascii	"pmTwCfg0State\000"
 7912      43666730 
ARM GAS  C:\Users\karunmj\AppData\Local\Temp\cceFJIz4.s 			page 190


 7912      53746174 
 7912      6500
 7913              	.LASF85:
 7914 00e7 4379536F 		.ascii	"CySoftwareReset\000"
 7914      66747761 
 7914      72655265 
 7914      73657400 
 7915              	.LASF127:
 7916 00f7 63796465 		.ascii	"cydelay_freq_mhz\000"
 7916      6C61795F 
 7916      66726571 
 7916      5F6D687A 
 7916      00
 7917              	.LASF122:
 7918 0108 4379496E 		.ascii	"CyIntGetState\000"
 7918      74476574 
 7918      53746174 
 7918      6500
 7919              	.LASF70:
 7920 0116 706D5477 		.ascii	"pmTwCfg0Tmp\000"
 7920      43666730 
 7920      546D7000 
 7921              	.LASF5:
 7922 0122 6C6F6E67 		.ascii	"long long int\000"
 7922      206C6F6E 
 7922      6720696E 
 7922      7400
 7923              	.LASF0:
 7924 0130 7369676E 		.ascii	"signed char\000"
 7924      65642063 
 7924      68617200 
 7925              	.LASF35:
 7926 013c 66726571 		.ascii	"freq\000"
 7926      00
 7927              	.LASF90:
 7928 0141 43794465 		.ascii	"CyDelayFreq\000"
 7928      6C617946 
 7928      72657100 
 7929              	.LASF51:
 7930 014d 696E7465 		.ascii	"interruptState\000"
 7930      72727570 
 7930      74537461 
 7930      746500
 7931              	.LASF53:
 7932 015c 4379494C 		.ascii	"CyILO_Start1K\000"
 7932      4F5F5374 
 7932      61727431 
 7932      4B00
 7933              	.LASF21:
 7934 016a 77616974 		.ascii	"wait\000"
 7934      00
 7935              	.LASF63:
 7936 016f 73746174 		.ascii	"state\000"
 7936      6500
 7937              	.LASF7:
 7938 0175 6C6F6E67 		.ascii	"long int\000"
 7938      20696E74 
ARM GAS  C:\Users\karunmj\AppData\Local\Temp\cceFJIz4.s 			page 191


 7938      00
 7939              	.LASF26:
 7940 017e 4379504C 		.ascii	"CyPLL_OUT_SetSource\000"
 7940      4C5F4F55 
 7940      545F5365 
 7940      74536F75 
 7940      72636500 
 7941              	.LASF10:
 7942 0192 75696E74 		.ascii	"uint8\000"
 7942      3800
 7943              	.LASF88:
 7944 0198 43794465 		.ascii	"CyDelayUs\000"
 7944      6C617955 
 7944      7300
 7945              	.LASF14:
 7946 01a2 646F7562 		.ascii	"double\000"
 7946      6C6500
 7947              	.LASF54:
 7948 01a9 4379494C 		.ascii	"CyILO_Stop1K\000"
 7948      4F5F5374 
 7948      6F70314B 
 7948      00
 7949              	.LASF94:
 7950 01b6 43795764 		.ascii	"CyWdtClear\000"
 7950      74436C65 
 7950      617200
 7951              	.LASF12:
 7952 01c1 75696E74 		.ascii	"uint32\000"
 7952      333200
 7953              	.LASF104:
 7954 01c8 6D61736B 		.ascii	"mask\000"
 7954      00
 7955              	.LASF121:
 7956 01cd 4379496E 		.ascii	"CyIntGetPriority\000"
 7956      74476574 
 7956      5072696F 
 7956      72697479 
 7956      00
 7957              	.LASF116:
 7958 01de 4379496E 		.ascii	"CyIntGetSysVector\000"
 7958      74476574 
 7958      53797356 
 7958      6563746F 
 7958      7200
 7959              	.LASF4:
 7960 01f0 756E7369 		.ascii	"unsigned int\000"
 7960      676E6564 
 7960      20696E74 
 7960      00
 7961              	.LASF40:
 7962 01fd 4379494D 		.ascii	"CyIMO_SetSource\000"
 7962      4F5F5365 
 7962      74536F75 
 7962      72636500 
 7963              	.LASF50:
 7964 020d 62757343 		.ascii	"busClkDiv\000"
 7964      6C6B4469 
ARM GAS  C:\Users\karunmj\AppData\Local\Temp\cceFJIz4.s 			page 192


 7964      7600
 7965              	.LASF132:
 7966 0217 43795553 		.ascii	"CyUSB_PowerOnCheck\000"
 7966      425F506F 
 7966      7765724F 
 7966      6E436865 
 7966      636B00
 7967              	.LASF8:
 7968 022a 6C6F6E67 		.ascii	"long unsigned int\000"
 7968      20756E73 
 7968      69676E65 
 7968      6420696E 
 7968      7400
 7969              	.LASF68:
 7970 023c 74696D65 		.ascii	"timeout\000"
 7970      6F757400 
 7971              	.LASF98:
 7972 0244 43795664 		.ascii	"CyVdLvAnalogEnable\000"
 7972      4C76416E 
 7972      616C6F67 
 7972      456E6162 
 7972      6C6500
 7973              	.LASF65:
 7974 0257 43795854 		.ascii	"CyXTAL_32KHZ_Stop\000"
 7974      414C5F33 
 7974      324B485A 
 7974      5F53746F 
 7974      7000
 7975              	.LASF61:
 7976 0269 4379494C 		.ascii	"CyILO_SetPowerMode\000"
 7976      4F5F5365 
 7976      74506F77 
 7976      65724D6F 
 7976      646500
 7977              	.LASF33:
 7978 027c 4379494D 		.ascii	"CyIMO_Stop\000"
 7978      4F5F5374 
 7978      6F7000
 7979              	.LASF3:
 7980 0287 73686F72 		.ascii	"short unsigned int\000"
 7980      7420756E 
 7980      7369676E 
 7980      65642069 
 7980      6E7400
 7981              	.LASF91:
 7982 029a 43795764 		.ascii	"CyWdtStart\000"
 7982      74537461 
 7982      727400
 7983              	.LASF117:
 7984 02a5 4379496E 		.ascii	"CyIntSetVector\000"
 7984      74536574 
 7984      56656374 
 7984      6F7200
 7985              	.LASF102:
 7986 02b4 43795664 		.ascii	"CyVdHvAnalogDisable\000"
 7986      4876416E 
 7986      616C6F67 
ARM GAS  C:\Users\karunmj\AppData\Local\Temp\cceFJIz4.s 			page 193


 7986      44697361 
 7986      626C6500 
 7987              	.LASF43:
 7988 02c8 43794D61 		.ascii	"CyMasterClk_SetSource\000"
 7988      73746572 
 7988      436C6B5F 
 7988      53657453 
 7988      6F757263 
 7989              	.LASF112:
 7990 02de 6E756D62 		.ascii	"number\000"
 7990      657200
 7991              	.LASF120:
 7992 02e5 7072696F 		.ascii	"priority\000"
 7992      72697479 
 7992      00
 7993              	.LASF77:
 7994 02ee 43795854 		.ascii	"CyXTAL_EnableFaultRecovery\000"
 7994      414C5F45 
 7994      6E61626C 
 7994      65466175 
 7994      6C745265 
 7995              	.LASF119:
 7996 0309 4379496E 		.ascii	"CyIntSetPriority\000"
 7996      74536574 
 7996      5072696F 
 7996      72697479 
 7996      00
 7997              	.LASF25:
 7998 031a 4379504C 		.ascii	"CyPLL_OUT_SetPQ\000"
 7998      4C5F4F55 
 7998      545F5365 
 7998      74505100 
 7999              	.LASF111:
 8000 032a 4379496E 		.ascii	"CyIntSetSysVector\000"
 8000      74536574 
 8000      53797356 
 8000      6563746F 
 8000      7200
 8001              	.LASF67:
 8002 033c 43795854 		.ascii	"CyXTAL_Start\000"
 8002      414C5F53 
 8002      74617274 
 8002      00
 8003              	.LASF76:
 8004 0349 43795854 		.ascii	"CyXTAL_ReadStatus\000"
 8004      414C5F52 
 8004      65616453 
 8004      74617475 
 8004      7300
 8005              	.LASF126:
 8006 035b 63796465 		.ascii	"cydelay_freq_khz\000"
 8006      6C61795F 
 8006      66726571 
 8006      5F6B687A 
 8006      00
 8007              	.LASF27:
 8008 036c 736F7572 		.ascii	"source\000"
ARM GAS  C:\Users\karunmj\AppData\Local\Temp\cceFJIz4.s 			page 194


 8008      636500
 8009              	.LASF79:
 8010 0373 43795854 		.ascii	"CyXTAL_SetStartup\000"
 8010      414C5F53 
 8010      65745374 
 8010      61727475 
 8010      7000
 8011              	.LASF92:
 8012 0385 7469636B 		.ascii	"ticks\000"
 8012      7300
 8013              	.LASF42:
 8014 038b 4379494D 		.ascii	"CyIMO_DisableDoubler\000"
 8014      4F5F4469 
 8014      7361626C 
 8014      65446F75 
 8014      626C6572 
 8015              	.LASF113:
 8016 03a0 61646472 		.ascii	"address\000"
 8016      65737300 
 8017              	.LASF32:
 8018 03a8 4379504C 		.ascii	"CyPLL_OUT_Stop\000"
 8018      4C5F4F55 
 8018      545F5374 
 8018      6F7000
 8019              	.LASF105:
 8020 03b7 43795664 		.ascii	"CyVdRealTimeStatus\000"
 8020      5265616C 
 8020      54696D65 
 8020      53746174 
 8020      757300
 8021              	.LASF55:
 8022 03ca 4379494C 		.ascii	"CyILO_Start100K\000"
 8022      4F5F5374 
 8022      61727431 
 8022      30304B00 
 8023              	.LASF36:
 8024 03da 7573625F 		.ascii	"usb_power_on\000"
 8024      706F7765 
 8024      725F6F6E 
 8024      00
 8025              	.LASF124:
 8026 03e7 43795265 		.ascii	"CyResetStatus\000"
 8026      73657453 
 8026      74617475 
 8026      7300
 8027              	.LASF97:
 8028 03f5 74687265 		.ascii	"threshold\000"
 8028      73686F6C 
 8028      6400
 8029              	.LASF130:
 8030 03ff 2E5C4765 		.ascii	".\\Generated_Source\\PSoC5\\CyLib.c\000"
 8030      6E657261 
 8030      7465645F 
 8030      536F7572 
 8030      63655C50 
 8031              	.LASF44:
 8032 0420 43794D61 		.ascii	"CyMasterClk_SetDivider\000"
ARM GAS  C:\Users\karunmj\AppData\Local\Temp\cceFJIz4.s 			page 195


 8032      73746572 
 8032      436C6B5F 
 8032      53657444 
 8032      69766964 
 8033              	.LASF24:
 8034 0437 63757272 		.ascii	"current\000"
 8034      656E7400 
 8035              	.LASF13:
 8036 043f 666C6F61 		.ascii	"float\000"
 8036      7400
 8037              	.LASF66:
 8038 0445 43795854 		.ascii	"CyXTAL_32KHZ_SetPowerMode\000"
 8038      414C5F33 
 8038      324B485A 
 8038      5F536574 
 8038      506F7765 
 8039              	.LASF57:
 8040 045f 4379494C 		.ascii	"CyILO_Enable33K\000"
 8040      4F5F456E 
 8040      61626C65 
 8040      33334B00 
 8041              	.LASF118:
 8042 046f 4379496E 		.ascii	"CyIntGetVector\000"
 8042      74476574 
 8042      56656374 
 8042      6F7200
 8043              	.LASF87:
 8044 047e 6D696C6C 		.ascii	"milliseconds\000"
 8044      69736563 
 8044      6F6E6473 
 8044      00
 8045              	.LASF58:
 8046 048b 4379494C 		.ascii	"CyILO_Disable33K\000"
 8046      4F5F4469 
 8046      7361626C 
 8046      6533334B 
 8046      00
 8047              	.LASF125:
 8048 049c 63796465 		.ascii	"cydelay_freq_hz\000"
 8048      6C61795F 
 8048      66726571 
 8048      5F687A00 
 8049              	.LASF49:
 8050 04ac 6D617374 		.ascii	"masterClkDiv\000"
 8050      6572436C 
 8050      6B446976 
 8050      00
 8051              	.LASF103:
 8052 04b9 43795664 		.ascii	"CyVdStickyStatus\000"
 8052      53746963 
 8052      6B795374 
 8052      61747573 
 8052      00
 8053              	.LASF131:
 8054 04ca 433A5C55 		.ascii	"C:\\Users\\karunmj\\Documents\\GitHub\\m2m\\hardwar"
 8054      73657273 
 8054      5C6B6172 
ARM GAS  C:\Users\karunmj\AppData\Local\Temp\cceFJIz4.s 			page 196


 8054      756E6D6A 
 8054      5C446F63 
 8055 04f7 655C7073 		.ascii	"e\\psoc5\\PSoC_Datalogger_SMS.cydsn\000"
 8055      6F63355C 
 8055      50536F43 
 8055      5F446174 
 8055      616C6F67 
 8056              	.LASF83:
 8057 0519 43794861 		.ascii	"CyHalt\000"
 8057      6C7400
 8058              	.LASF82:
 8059 0520 43795854 		.ascii	"CyXTAL_SetWdVoltage\000"
 8059      414C5F53 
 8059      65745764 
 8059      566F6C74 
 8059      61676500 
 8060              	.LASF1:
 8061 0534 756E7369 		.ascii	"unsigned char\000"
 8061      676E6564 
 8061      20636861 
 8061      7200
 8062              	.LASF20:
 8063 0542 706D5477 		.ascii	"pmTwCfg2State\000"
 8063      43666732 
 8063      53746174 
 8063      6500
 8064              	.LASF2:
 8065 0550 73686F72 		.ascii	"short int\000"
 8065      7420696E 
 8065      7400
 8066              	.LASF18:
 8067 055a 696C6F45 		.ascii	"iloEnableState\000"
 8067      6E61626C 
 8067      65537461 
 8067      746500
 8068              	.LASF73:
 8069 0569 43795854 		.ascii	"CyXTAL_EnableErrStatus\000"
 8069      414C5F45 
 8069      6E61626C 
 8069      65457272 
 8069      53746174 
 8070              	.LASF110:
 8071 0580 4379466C 		.ascii	"CyFlushCache\000"
 8071      75736843 
 8071      61636865 
 8071      00
 8072              	.LASF123:
 8073 058d 73746174 		.ascii	"stateReg\000"
 8073      65526567 
 8073      00
 8074              	.LASF34:
 8075 0596 706F7765 		.ascii	"poweredOn\000"
 8075      7265644F 
 8075      6E00
 8076              	.LASF78:
 8077 05a0 43795854 		.ascii	"CyXTAL_DisableFaultRecovery\000"
 8077      414C5F44 
ARM GAS  C:\Users\karunmj\AppData\Local\Temp\cceFJIz4.s 			page 197


 8077      69736162 
 8077      6C654661 
 8077      756C7452 
 8078              	.LASF84:
 8079 05bc 72656173 		.ascii	"reason\000"
 8079      6F6E00
 8080              	.LASF81:
 8081 05c3 43795854 		.ascii	"CyXTAL_SetFbVoltage\000"
 8081      414C5F53 
 8081      65744662 
 8081      566F6C74 
 8081      61676500 
 8082              	.LASF108:
 8083 05d7 696E7453 		.ascii	"intState\000"
 8083      74617465 
 8083      00
 8084              	.LASF29:
 8085 05e0 706D4674 		.ascii	"pmFtwCfg2Reg\000"
 8085      77436667 
 8085      32526567 
 8085      00
 8086              	.LASF39:
 8087 05ed 6E657874 		.ascii	"nextFreq\000"
 8087      46726571 
 8087      00
 8088              	.LASF93:
 8089 05f6 6C704D6F 		.ascii	"lpMode\000"
 8089      646500
 8090              	.LASF9:
 8091 05fd 63686172 		.ascii	"char\000"
 8091      00
 8092              	.LASF62:
 8093 0602 6D6F6465 		.ascii	"mode\000"
 8093      00
 8094              	.LASF16:
 8095 0607 63796973 		.ascii	"cyisraddress\000"
 8095      72616464 
 8095      72657373 
 8095      00
 8096              	.LASF60:
 8097 0614 4379504C 		.ascii	"CyPLL_OUT_Start\000"
 8097      4C5F4F55 
 8097      545F5374 
 8097      61727400 
 8098              	.LASF99:
 8099 0624 43795664 		.ascii	"CyVdLvDigitDisable\000"
 8099      4C764469 
 8099      67697444 
 8099      69736162 
 8099      6C6500
 8100              	.LASF100:
 8101 0637 43795664 		.ascii	"CyVdLvAnalogDisable\000"
 8101      4C76416E 
 8101      616C6F67 
 8101      44697361 
 8101      626C6500 
 8102              	.LASF23:
ARM GAS  C:\Users\karunmj\AppData\Local\Temp\cceFJIz4.s 			page 198


 8103 064b 71446976 		.ascii	"qDiv\000"
 8103      00
 8104              	.LASF109:
 8105 0650 4379456E 		.ascii	"CyEnableInts\000"
 8105      61626C65 
 8105      496E7473 
 8105      00
 8106              	.LASF52:
 8107 065d 43795573 		.ascii	"CyUsbClk_SetSource\000"
 8107      62436C6B 
 8107      5F536574 
 8107      536F7572 
 8107      636500
 8108              	.LASF38:
 8109 0670 63757272 		.ascii	"currentFreq\000"
 8109      656E7446 
 8109      72657100 
 8110              	.LASF86:
 8111 067c 43794465 		.ascii	"CyDelay\000"
 8111      6C617900 
 8112              	.LASF48:
 8113 0684 43794275 		.ascii	"CyBusClk_SetDivider\000"
 8113      73436C6B 
 8113      5F536574 
 8113      44697669 
 8113      64657200 
 8114              	.LASF128:
 8115 0698 63796465 		.ascii	"cydelay_32k_ms\000"
 8115      6C61795F 
 8115      33326B5F 
 8115      6D7300
 8116              	.LASF106:
 8117 06a7 7664466C 		.ascii	"vdFlagsState\000"
 8117      61677353 
 8117      74617465 
 8117      00
 8118              	.LASF17:
 8119 06b4 73746174 		.ascii	"status\000"
 8119      757300
 8120              	.LASF59:
 8121 06bb 4379494C 		.ascii	"CyILO_SetSource\000"
 8121      4F5F5365 
 8121      74536F75 
 8121      72636500 
 8122              	.LASF22:
 8123 06cb 70446976 		.ascii	"pDiv\000"
 8123      00
 8124              	.LASF37:
 8125 06d0 4379494D 		.ascii	"CyIMO_SetFreq\000"
 8125      4F5F5365 
 8125      74467265 
 8125      7100
 8126              	.LASF75:
 8127 06de 43795854 		.ascii	"CyXTAL_32KHZ_ReadStatus\000"
 8127      414C5F33 
 8127      324B485A 
 8127      5F526561 
ARM GAS  C:\Users\karunmj\AppData\Local\Temp\cceFJIz4.s 			page 199


 8127      64537461 
 8128              	.LASF71:
 8129 06f6 706D5477 		.ascii	"pmTwCfg2Tmp\000"
 8129      43666732 
 8129      546D7000 
 8130              	.LASF46:
 8131 0702 4379494D 		.ascii	"CyIMO_SetTrimValue\000"
 8131      4F5F5365 
 8131      74547269 
 8131      6D56616C 
 8131      756500
 8132              	.LASF15:
 8133 0715 63797374 		.ascii	"cystatus\000"
 8133      61747573 
 8133      00
 8134              	.LASF80:
 8135 071e 73657474 		.ascii	"setting\000"
 8135      696E6700 
 8136              	.LASF30:
 8137 0726 706D4674 		.ascii	"pmFtwCfg0Reg\000"
 8137      77436667 
 8137      30526567 
 8137      00
 8138              	.LASF89:
 8139 0733 6D696372 		.ascii	"microseconds\000"
 8139      6F736563 
 8139      6F6E6473 
 8139      00
 8140              	.LASF101:
 8141 0740 43795664 		.ascii	"CyVdHvAnalogEnable\000"
 8141      4876416E 
 8141      616C6F67 
 8141      456E6162 
 8141      6C6500
 8142              	.LASF95:
 8143 0753 43795664 		.ascii	"CyVdLvDigitEnable\000"
 8143      4C764469 
 8143      67697445 
 8143      6E61626C 
 8143      6500
 8144              	.LASF72:
 8145 0765 43795854 		.ascii	"CyXTAL_Stop\000"
 8145      414C5F53 
 8145      746F7000 
 8146              	.LASF31:
 8147 0771 696C6F43 		.ascii	"iloControlReg\000"
 8147      6F6E7472 
 8147      6F6C5265 
 8147      6700
 8148              		.ident	"GCC: (Sourcery G++ Lite 2010q1-188) 4.4.1"
