ARM GAS  C:\Users\karunmj\AppData\Local\Temp\cceFJIz4.s 			page 1


   1              		.syntax unified
   2              		.cpu cortex-m3
   3              		.fpu softvfp
   4              		.eabi_attribute 20, 1
   5              		.eabi_attribute 21, 1
   6              		.eabi_attribute 23, 3
   7              		.eabi_attribute 24, 1
   8              		.eabi_attribute 25, 1
   9              		.eabi_attribute 26, 1
  10              		.eabi_attribute 30, 6
  11              		.eabi_attribute 18, 4
  12              		.thumb
  13              		.file	"CyLib.c"
  20 0000 55060000 		.text
  20      02005E00 
  20      00000201 
  20      FB0E0D00 
  20      01010101 
  21              	.Ltext0:
  22              		.cfi_sections	.debug_frame
  23              		.comm	CyResetStatus,1,1
  24              		.global	cydelay_freq_hz
  25              		.data
  26              		.align	2
  27              		.type	cydelay_freq_hz, %object
  28              		.size	cydelay_freq_hz, 4
  29              	cydelay_freq_hz:
  30 0000 00366E01 		.word	24000000
  31              		.global	cydelay_freq_khz
  32              		.align	2
  33              		.type	cydelay_freq_khz, %object
  34              		.size	cydelay_freq_khz, 4
  35              	cydelay_freq_khz:
  36 0004 C05D0000 		.word	24000
  37              		.global	cydelay_freq_mhz
  38              		.type	cydelay_freq_mhz, %object
  39              		.size	cydelay_freq_mhz, 1
  40              	cydelay_freq_mhz:
  41 0008 18       		.byte	24
  42              		.global	cydelay_32k_ms
  43 0009 000000   		.align	2
  44              		.type	cydelay_32k_ms, %object
  45              		.size	cydelay_32k_ms, 4
  46              	cydelay_32k_ms:
  47 000c 0000E02E 		.word	786432000
  48              		.section	.text.CyPLL_OUT_Start,"ax",%progbits
  49              		.align	2
  50              		.global	CyPLL_OUT_Start
  51              		.thumb
  52              		.thumb_func
  53              		.type	CyPLL_OUT_Start, %function
ARM GAS  C:\Users\karunmj\AppData\Local\Temp\cceFJIz4.s 			page 2


  54              	CyPLL_OUT_Start:
  55              	.LFB0:
  56              		.file 1 ".\\Generated_Source\\PSoC5\\CyLib.c"
   1:.\Generated_Source\PSoC5/CyLib.c **** /*******************************************************************************
   2:.\Generated_Source\PSoC5/CyLib.c **** * File Name: CyLib.c
   3:.\Generated_Source\PSoC5/CyLib.c **** * Version 3.40
   4:.\Generated_Source\PSoC5/CyLib.c **** *
   5:.\Generated_Source\PSoC5/CyLib.c **** *  Description:
   6:.\Generated_Source\PSoC5/CyLib.c **** *   Provides system API for the clocking, interrupts and watchdog timer.
   7:.\Generated_Source\PSoC5/CyLib.c **** *
   8:.\Generated_Source\PSoC5/CyLib.c **** *  Note:
   9:.\Generated_Source\PSoC5/CyLib.c **** *   Documentation of the API's in this file is located in the
  10:.\Generated_Source\PSoC5/CyLib.c **** *   System Reference Guide provided with PSoC Creator.
  11:.\Generated_Source\PSoC5/CyLib.c **** *
  12:.\Generated_Source\PSoC5/CyLib.c **** ********************************************************************************
  13:.\Generated_Source\PSoC5/CyLib.c **** * Copyright 2008-2013, Cypress Semiconductor Corporation.  All rights reserved.
  14:.\Generated_Source\PSoC5/CyLib.c **** * You may use this file only in accordance with the license, terms, conditions,
  15:.\Generated_Source\PSoC5/CyLib.c **** * disclaimers, and limitations in the end user license agreement accompanying
  16:.\Generated_Source\PSoC5/CyLib.c **** * the software package with which this file was provided.
  17:.\Generated_Source\PSoC5/CyLib.c **** *******************************************************************************/
  18:.\Generated_Source\PSoC5/CyLib.c **** 
  19:.\Generated_Source\PSoC5/CyLib.c **** #include "CyLib.h"
  20:.\Generated_Source\PSoC5/CyLib.c **** 
  21:.\Generated_Source\PSoC5/CyLib.c **** 
  22:.\Generated_Source\PSoC5/CyLib.c **** /*******************************************************************************
  23:.\Generated_Source\PSoC5/CyLib.c **** * The CyResetStatus variable is used to obtain value of RESET_SR0 register after
  24:.\Generated_Source\PSoC5/CyLib.c **** * a device reset.
  25:.\Generated_Source\PSoC5/CyLib.c **** *******************************************************************************/
  26:.\Generated_Source\PSoC5/CyLib.c **** uint8 CYXDATA CyResetStatus;
  27:.\Generated_Source\PSoC5/CyLib.c **** 
  28:.\Generated_Source\PSoC5/CyLib.c **** 
  29:.\Generated_Source\PSoC5/CyLib.c **** #if(!CY_PSOC5A)
  30:.\Generated_Source\PSoC5/CyLib.c **** 
  31:.\Generated_Source\PSoC5/CyLib.c ****     /* Variable Vdda */
  32:.\Generated_Source\PSoC5/CyLib.c ****     #if(CYDEV_VARIABLE_VDDA == 1)
  33:.\Generated_Source\PSoC5/CyLib.c **** 
  34:.\Generated_Source\PSoC5/CyLib.c ****         uint8 CyScPumpEnabled = (uint8)(CYDEV_VDDA_MV < 2700);
  35:.\Generated_Source\PSoC5/CyLib.c **** 
  36:.\Generated_Source\PSoC5/CyLib.c ****     #endif  /* (CYDEV_VARIABLE_VDDA == 1) */
  37:.\Generated_Source\PSoC5/CyLib.c **** 
  38:.\Generated_Source\PSoC5/CyLib.c **** #endif /* (!CY_PSOC5A) */
  39:.\Generated_Source\PSoC5/CyLib.c **** 
  40:.\Generated_Source\PSoC5/CyLib.c **** 
  41:.\Generated_Source\PSoC5/CyLib.c **** /* Do not use these definitions directly in your application */
  42:.\Generated_Source\PSoC5/CyLib.c **** uint32 cydelay_freq_hz  = BCLK__BUS_CLK__HZ;
  43:.\Generated_Source\PSoC5/CyLib.c **** uint32 cydelay_freq_khz = (BCLK__BUS_CLK__HZ + 999u) / 1000u;
  44:.\Generated_Source\PSoC5/CyLib.c **** uint8  cydelay_freq_mhz = (uint8)((BCLK__BUS_CLK__HZ + 999999u) / 1000000u);
  45:.\Generated_Source\PSoC5/CyLib.c **** uint32 cydelay_32k_ms   = 32768u * ((BCLK__BUS_CLK__HZ + 999u) / 1000u);
  46:.\Generated_Source\PSoC5/CyLib.c **** 
  47:.\Generated_Source\PSoC5/CyLib.c **** 
  48:.\Generated_Source\PSoC5/CyLib.c **** /* Function Prototypes */
  49:.\Generated_Source\PSoC5/CyLib.c **** static uint8 CyUSB_PowerOnCheck(void)  ;
  50:.\Generated_Source\PSoC5/CyLib.c **** static void CyIMO_SetTrimValue(uint8 freq) ;
  51:.\Generated_Source\PSoC5/CyLib.c **** static void CyBusClk_Internal_SetDivider(uint16 divider);
  52:.\Generated_Source\PSoC5/CyLib.c **** 
  53:.\Generated_Source\PSoC5/CyLib.c **** 
  54:.\Generated_Source\PSoC5/CyLib.c **** /*******************************************************************************
ARM GAS  C:\Users\karunmj\AppData\Local\Temp\cceFJIz4.s 			page 3


  55:.\Generated_Source\PSoC5/CyLib.c **** * Function Name: CyPLL_OUT_Start
  56:.\Generated_Source\PSoC5/CyLib.c **** ********************************************************************************
  57:.\Generated_Source\PSoC5/CyLib.c **** *
  58:.\Generated_Source\PSoC5/CyLib.c **** * Summary:
  59:.\Generated_Source\PSoC5/CyLib.c **** *   Enables the PLL.  Optionally waits for it to become stable.
  60:.\Generated_Source\PSoC5/CyLib.c **** *   Waits at least 250 us or until it is detected that the PLL is stable.
  61:.\Generated_Source\PSoC5/CyLib.c **** *
  62:.\Generated_Source\PSoC5/CyLib.c **** * Parameters:
  63:.\Generated_Source\PSoC5/CyLib.c **** *   wait:
  64:.\Generated_Source\PSoC5/CyLib.c **** *    0: Return immediately after configuration
  65:.\Generated_Source\PSoC5/CyLib.c **** *    1: Wait for PLL lock or timeout.
  66:.\Generated_Source\PSoC5/CyLib.c **** *
  67:.\Generated_Source\PSoC5/CyLib.c **** * Return:
  68:.\Generated_Source\PSoC5/CyLib.c **** *   Status
  69:.\Generated_Source\PSoC5/CyLib.c **** *    CYRET_SUCCESS - Completed successfully
  70:.\Generated_Source\PSoC5/CyLib.c **** *    CYRET_TIMEOUT - Timeout occurred without detecting a stable clock.
  71:.\Generated_Source\PSoC5/CyLib.c **** *     If the input source of the clock is jittery, then the lock indication
  72:.\Generated_Source\PSoC5/CyLib.c **** *     may not occur.  However, after the timeout has expired the generated PLL
  73:.\Generated_Source\PSoC5/CyLib.c **** *     clock can still be used.
  74:.\Generated_Source\PSoC5/CyLib.c **** *
  75:.\Generated_Source\PSoC5/CyLib.c **** * Side Effects:
  76:.\Generated_Source\PSoC5/CyLib.c **** *  If wait is enabled: This function wses the Fast Time Wheel to time the wait.
  77:.\Generated_Source\PSoC5/CyLib.c **** *  Any other use of the Fast Time Wheel will be stopped during the period of
  78:.\Generated_Source\PSoC5/CyLib.c **** *  this function and then restored. This function also uses the 100 KHz ILO.
  79:.\Generated_Source\PSoC5/CyLib.c **** *  If not enabled, this function will enable the 100 KHz ILO for the period of
  80:.\Generated_Source\PSoC5/CyLib.c **** *  this function.
  81:.\Generated_Source\PSoC5/CyLib.c **** *
  82:.\Generated_Source\PSoC5/CyLib.c **** *  No changes to the setup of the ILO, Fast Time Wheel, Central Time Wheel or
  83:.\Generated_Source\PSoC5/CyLib.c **** *  Once Per Second interrupt may be made by interrupt routines during the period
  84:.\Generated_Source\PSoC5/CyLib.c **** *  of this function execution. The current operation of the ILO, Central Time
  85:.\Generated_Source\PSoC5/CyLib.c **** *  Wheel and Once Per Second interrupt are maintained during the operation of
  86:.\Generated_Source\PSoC5/CyLib.c **** *  this function provided the reading of the Power Manager Interrupt Status
  87:.\Generated_Source\PSoC5/CyLib.c **** *  Register is only done using the CyPmReadStatus() function.
  88:.\Generated_Source\PSoC5/CyLib.c **** *
  89:.\Generated_Source\PSoC5/CyLib.c **** *******************************************************************************/
  90:.\Generated_Source\PSoC5/CyLib.c **** cystatus CyPLL_OUT_Start(uint8 wait) 
  91:.\Generated_Source\PSoC5/CyLib.c **** {
  57              		.loc 1 91 0
  58              		.cfi_startproc
  59              		@ args = 0, pretend = 0, frame = 16
  60              		@ frame_needed = 1, uses_anonymous_args = 0
  61 0000 80B5     		push	{r7, lr}
  62              	.LCFI0:
  63              		.cfi_def_cfa_offset 8
  64 0002 84B0     		sub	sp, sp, #16
  65              	.LCFI1:
  66              		.cfi_def_cfa_offset 24
  67 0004 00AF     		add	r7, sp, #0
  68              		.cfi_offset 14, -4
  69              		.cfi_offset 7, -8
  70              	.LCFI2:
  71              		.cfi_def_cfa_register 7
  72 0006 0346     		mov	r3, r0
  73 0008 FB71     		strb	r3, [r7, #7]
  92:.\Generated_Source\PSoC5/CyLib.c ****     cystatus status = CYRET_SUCCESS;
  74              		.loc 1 92 0
  75 000a 4FF00003 		mov	r3, #0
ARM GAS  C:\Users\karunmj\AppData\Local\Temp\cceFJIz4.s 			page 4


  76 000e BB60     		str	r3, [r7, #8]
  93:.\Generated_Source\PSoC5/CyLib.c **** 
  94:.\Generated_Source\PSoC5/CyLib.c ****     uint8 iloEnableState;
  95:.\Generated_Source\PSoC5/CyLib.c ****     uint8 pmTwCfg0State;
  96:.\Generated_Source\PSoC5/CyLib.c ****     uint8 pmTwCfg2State;
  97:.\Generated_Source\PSoC5/CyLib.c **** 
  98:.\Generated_Source\PSoC5/CyLib.c **** 
  99:.\Generated_Source\PSoC5/CyLib.c ****     /* Enables the PLL circuit  */
 100:.\Generated_Source\PSoC5/CyLib.c ****     CY_CLK_PLL_CFG0_REG |= CY_CLK_PLL_ENABLE;
  77              		.loc 1 100 0
  78 0010 44F22023 		movw	r3, #:lower16:1073758752
  79 0014 C4F20003 		movt	r3, #:upper16:1073758752
  80 0018 44F22022 		movw	r2, #:lower16:1073758752
  81 001c C4F20002 		movt	r2, #:upper16:1073758752
  82 0020 1278     		ldrb	r2, [r2, #0]
  83 0022 D2B2     		uxtb	r2, r2
  84 0024 42F00102 		orr	r2, r2, #1
  85 0028 D2B2     		uxtb	r2, r2
  86 002a 1A70     		strb	r2, [r3, #0]
 101:.\Generated_Source\PSoC5/CyLib.c **** 
 102:.\Generated_Source\PSoC5/CyLib.c ****     if(wait != 0u)
  87              		.loc 1 102 0
  88 002c FB79     		ldrb	r3, [r7, #7]	@ zero_extendqisi2
  89 002e 002B     		cmp	r3, #0
  90 0030 4DD0     		beq	.L2
 103:.\Generated_Source\PSoC5/CyLib.c ****     {
 104:.\Generated_Source\PSoC5/CyLib.c ****         /* Save 100 KHz ILO, FTW interval, enable and interrupt enable */
 105:.\Generated_Source\PSoC5/CyLib.c ****         iloEnableState = SLOWCLK_ILO_CR0;
  91              		.loc 1 105 0
  92 0032 44F20033 		movw	r3, #:lower16:1073758976
  93 0036 C4F20003 		movt	r3, #:upper16:1073758976
  94 003a 1B78     		ldrb	r3, [r3, #0]
  95 003c 7B73     		strb	r3, [r7, #13]
 106:.\Generated_Source\PSoC5/CyLib.c ****         pmTwCfg0State = CY_PM_TW_CFG0_REG;
  96              		.loc 1 106 0
  97 003e 44F28033 		movw	r3, #:lower16:1073759104
  98 0042 C4F20003 		movt	r3, #:upper16:1073759104
  99 0046 1B78     		ldrb	r3, [r3, #0]
 100 0048 BB73     		strb	r3, [r7, #14]
 107:.\Generated_Source\PSoC5/CyLib.c ****         pmTwCfg2State = CY_PM_TW_CFG2_REG;
 101              		.loc 1 107 0
 102 004a 44F28233 		movw	r3, #:lower16:1073759106
 103 004e C4F20003 		movt	r3, #:upper16:1073759106
 104 0052 1B78     		ldrb	r3, [r3, #0]
 105 0054 FB73     		strb	r3, [r7, #15]
 108:.\Generated_Source\PSoC5/CyLib.c **** 
 109:.\Generated_Source\PSoC5/CyLib.c ****         CyPmFtwSetInterval(CY_CLK_PLL_FTW_INTERVAL);
 106              		.loc 1 109 0
 107 0056 4FF01800 		mov	r0, #24
 108 005a FFF7FEFF 		bl	CyPmFtwSetInterval
 110:.\Generated_Source\PSoC5/CyLib.c **** 
 111:.\Generated_Source\PSoC5/CyLib.c ****         status = CYRET_TIMEOUT;
 109              		.loc 1 111 0
 110 005e 4FF01003 		mov	r3, #16
 111 0062 BB60     		str	r3, [r7, #8]
 112:.\Generated_Source\PSoC5/CyLib.c **** 
 113:.\Generated_Source\PSoC5/CyLib.c **** 
ARM GAS  C:\Users\karunmj\AppData\Local\Temp\cceFJIz4.s 			page 5


 114:.\Generated_Source\PSoC5/CyLib.c ****         while(CyPmReadStatus(CY_PM_FTW_INT) != CY_PM_FTW_INT)
 112              		.loc 1 114 0
 113 0064 19E0     		b	.L3
 114              	.L5:
 115:.\Generated_Source\PSoC5/CyLib.c ****         {
 116:.\Generated_Source\PSoC5/CyLib.c ****             /* Wait for the interrupt status */
 117:.\Generated_Source\PSoC5/CyLib.c ****             if(0u != (CY_CLK_PLL_SR_REG & CY_CLK_PLL_LOCK_STATUS))
 115              		.loc 1 117 0
 116 0066 44F22523 		movw	r3, #:lower16:1073758757
 117 006a C4F20003 		movt	r3, #:upper16:1073758757
 118 006e 1B78     		ldrb	r3, [r3, #0]
 119 0070 DBB2     		uxtb	r3, r3
 120 0072 03F00103 		and	r3, r3, #1
 121 0076 DBB2     		uxtb	r3, r3
 122 0078 002B     		cmp	r3, #0
 123 007a 0ED0     		beq	.L3
 118:.\Generated_Source\PSoC5/CyLib.c ****             {
 119:.\Generated_Source\PSoC5/CyLib.c ****                 if(0u != (CY_CLK_PLL_SR_REG & CY_CLK_PLL_LOCK_STATUS))
 124              		.loc 1 119 0
 125 007c 44F22523 		movw	r3, #:lower16:1073758757
 126 0080 C4F20003 		movt	r3, #:upper16:1073758757
 127 0084 1B78     		ldrb	r3, [r3, #0]
 128 0086 DBB2     		uxtb	r3, r3
 129 0088 03F00103 		and	r3, r3, #1
 130 008c DBB2     		uxtb	r3, r3
 131 008e 002B     		cmp	r3, #0
 132 0090 03D0     		beq	.L3
 120:.\Generated_Source\PSoC5/CyLib.c ****                 {
 121:.\Generated_Source\PSoC5/CyLib.c ****                     status = CYRET_SUCCESS;
 133              		.loc 1 121 0
 134 0092 4FF00003 		mov	r3, #0
 135 0096 BB60     		str	r3, [r7, #8]
 122:.\Generated_Source\PSoC5/CyLib.c ****                     break;
 136              		.loc 1 122 0
 137 0098 06E0     		b	.L4
 138              	.L3:
 139              		.loc 1 114 0
 140 009a 4FF00100 		mov	r0, #1
 141 009e FFF7FEFF 		bl	CyPmReadStatus
 142 00a2 0346     		mov	r3, r0
 143 00a4 012B     		cmp	r3, #1
 144 00a6 DED1     		bne	.L5
 145              	.L4:
 123:.\Generated_Source\PSoC5/CyLib.c ****                 }
 124:.\Generated_Source\PSoC5/CyLib.c ****             }
 125:.\Generated_Source\PSoC5/CyLib.c ****         }
 126:.\Generated_Source\PSoC5/CyLib.c **** 
 127:.\Generated_Source\PSoC5/CyLib.c **** 
 128:.\Generated_Source\PSoC5/CyLib.c ****         /* Restore 100 KHz ILO, FTW interval, enable and interrupt enable */
 129:.\Generated_Source\PSoC5/CyLib.c ****         if(0u == (iloEnableState & ILO_CONTROL_100KHZ_ON))
 146              		.loc 1 129 0
 147 00a8 7B7B     		ldrb	r3, [r7, #13]	@ zero_extendqisi2
 148 00aa 03F00403 		and	r3, r3, #4
 149 00ae 002B     		cmp	r3, #0
 150 00b0 01D1     		bne	.L6
 130:.\Generated_Source\PSoC5/CyLib.c ****         {
 131:.\Generated_Source\PSoC5/CyLib.c ****             CyILO_Stop100K();
ARM GAS  C:\Users\karunmj\AppData\Local\Temp\cceFJIz4.s 			page 6


 151              		.loc 1 131 0
 152 00b2 FFF7FEFF 		bl	CyILO_Stop100K
 153              	.L6:
 132:.\Generated_Source\PSoC5/CyLib.c ****         }
 133:.\Generated_Source\PSoC5/CyLib.c ****         CY_PM_TW_CFG0_REG = pmTwCfg0State;
 154              		.loc 1 133 0
 155 00b6 44F28033 		movw	r3, #:lower16:1073759104
 156 00ba C4F20003 		movt	r3, #:upper16:1073759104
 157 00be BA7B     		ldrb	r2, [r7, #14]
 158 00c0 1A70     		strb	r2, [r3, #0]
 134:.\Generated_Source\PSoC5/CyLib.c ****         CY_PM_TW_CFG2_REG = pmTwCfg2State;
 159              		.loc 1 134 0
 160 00c2 44F28233 		movw	r3, #:lower16:1073759106
 161 00c6 C4F20003 		movt	r3, #:upper16:1073759106
 162 00ca FA7B     		ldrb	r2, [r7, #15]
 163 00cc 1A70     		strb	r2, [r3, #0]
 164              	.L2:
 135:.\Generated_Source\PSoC5/CyLib.c ****     }
 136:.\Generated_Source\PSoC5/CyLib.c **** 
 137:.\Generated_Source\PSoC5/CyLib.c ****     return(status);
 165              		.loc 1 137 0
 166 00ce BB68     		ldr	r3, [r7, #8]
 138:.\Generated_Source\PSoC5/CyLib.c **** }
 167              		.loc 1 138 0
 168 00d0 1846     		mov	r0, r3
 169 00d2 07F11007 		add	r7, r7, #16
 170 00d6 BD46     		mov	sp, r7
 171 00d8 80BD     		pop	{r7, pc}
 172              		.cfi_endproc
 173              	.LFE0:
 174              		.size	CyPLL_OUT_Start, .-CyPLL_OUT_Start
 175 00da 00BF     		.section	.text.CyPLL_OUT_Stop,"ax",%progbits
 176              		.align	2
 177              		.global	CyPLL_OUT_Stop
 178              		.thumb
 179              		.thumb_func
 180              		.type	CyPLL_OUT_Stop, %function
 181              	CyPLL_OUT_Stop:
 182              	.LFB1:
 139:.\Generated_Source\PSoC5/CyLib.c **** 
 140:.\Generated_Source\PSoC5/CyLib.c **** 
 141:.\Generated_Source\PSoC5/CyLib.c **** /*******************************************************************************
 142:.\Generated_Source\PSoC5/CyLib.c **** * Function Name: CyPLL_OUT_Stop
 143:.\Generated_Source\PSoC5/CyLib.c **** ********************************************************************************
 144:.\Generated_Source\PSoC5/CyLib.c **** *
 145:.\Generated_Source\PSoC5/CyLib.c **** * Summary:
 146:.\Generated_Source\PSoC5/CyLib.c **** *  Disables the PLL.
 147:.\Generated_Source\PSoC5/CyLib.c **** *
 148:.\Generated_Source\PSoC5/CyLib.c **** * Parameters:
 149:.\Generated_Source\PSoC5/CyLib.c **** *  None
 150:.\Generated_Source\PSoC5/CyLib.c **** *
 151:.\Generated_Source\PSoC5/CyLib.c **** * Return:
 152:.\Generated_Source\PSoC5/CyLib.c **** *  None
 153:.\Generated_Source\PSoC5/CyLib.c **** *
 154:.\Generated_Source\PSoC5/CyLib.c **** *******************************************************************************/
 155:.\Generated_Source\PSoC5/CyLib.c **** void CyPLL_OUT_Stop(void) 
 156:.\Generated_Source\PSoC5/CyLib.c **** {
ARM GAS  C:\Users\karunmj\AppData\Local\Temp\cceFJIz4.s 			page 7


 183              		.loc 1 156 0
 184              		.cfi_startproc
 185              		@ args = 0, pretend = 0, frame = 0
 186              		@ frame_needed = 1, uses_anonymous_args = 0
 187              		@ link register save eliminated.
 188 0000 80B4     		push	{r7}
 189              	.LCFI3:
 190              		.cfi_def_cfa_offset 4
 191 0002 00AF     		add	r7, sp, #0
 192              		.cfi_offset 7, -4
 193              	.LCFI4:
 194              		.cfi_def_cfa_register 7
 157:.\Generated_Source\PSoC5/CyLib.c ****     CY_CLK_PLL_CFG0_REG &= ((uint8)(~CY_CLK_PLL_ENABLE));
 195              		.loc 1 157 0
 196 0004 44F22023 		movw	r3, #:lower16:1073758752
 197 0008 C4F20003 		movt	r3, #:upper16:1073758752
 198 000c 44F22022 		movw	r2, #:lower16:1073758752
 199 0010 C4F20002 		movt	r2, #:upper16:1073758752
 200 0014 1278     		ldrb	r2, [r2, #0]
 201 0016 D2B2     		uxtb	r2, r2
 202 0018 02F0FE02 		and	r2, r2, #254
 203 001c 1A70     		strb	r2, [r3, #0]
 158:.\Generated_Source\PSoC5/CyLib.c **** }
 204              		.loc 1 158 0
 205 001e BD46     		mov	sp, r7
 206 0020 80BC     		pop	{r7}
 207 0022 7047     		bx	lr
 208              		.cfi_endproc
 209              	.LFE1:
 210              		.size	CyPLL_OUT_Stop, .-CyPLL_OUT_Stop
 211              		.section	.text.CyPLL_OUT_SetPQ,"ax",%progbits
 212              		.align	2
 213              		.global	CyPLL_OUT_SetPQ
 214              		.thumb
 215              		.thumb_func
 216              		.type	CyPLL_OUT_SetPQ, %function
 217              	CyPLL_OUT_SetPQ:
 218              	.LFB2:
 159:.\Generated_Source\PSoC5/CyLib.c **** 
 160:.\Generated_Source\PSoC5/CyLib.c **** 
 161:.\Generated_Source\PSoC5/CyLib.c **** /*******************************************************************************
 162:.\Generated_Source\PSoC5/CyLib.c **** * Function Name: CyPLL_OUT_SetPQ
 163:.\Generated_Source\PSoC5/CyLib.c **** ********************************************************************************
 164:.\Generated_Source\PSoC5/CyLib.c **** *
 165:.\Generated_Source\PSoC5/CyLib.c **** * Summary:
 166:.\Generated_Source\PSoC5/CyLib.c **** *  Sets the P and Q dividers and the charge pump current.
 167:.\Generated_Source\PSoC5/CyLib.c **** *  The Frequency Out will be P/Q * Frequency In.
 168:.\Generated_Source\PSoC5/CyLib.c **** *  The PLL must be disabled before calling this function.
 169:.\Generated_Source\PSoC5/CyLib.c **** *
 170:.\Generated_Source\PSoC5/CyLib.c **** * Parameters:
 171:.\Generated_Source\PSoC5/CyLib.c **** *  uint8 pDiv:
 172:.\Generated_Source\PSoC5/CyLib.c **** *   Valid range [8 - 255].
 173:.\Generated_Source\PSoC5/CyLib.c **** *
 174:.\Generated_Source\PSoC5/CyLib.c **** *  uint8 qDiv:
 175:.\Generated_Source\PSoC5/CyLib.c **** *   Valid range [1 - 16]. Input Frequency / Q must be in range of 1 to 3 MHz.
 176:.\Generated_Source\PSoC5/CyLib.c **** 
 177:.\Generated_Source\PSoC5/CyLib.c **** *  uint8 current:
ARM GAS  C:\Users\karunmj\AppData\Local\Temp\cceFJIz4.s 			page 8


 178:.\Generated_Source\PSoC5/CyLib.c **** *   Valid range [1 - 7]. Charge pump current in uA. Refer to the device TRM and
 179:.\Generated_Source\PSoC5/CyLib.c **** *   datasheet for more information.
 180:.\Generated_Source\PSoC5/CyLib.c **** *
 181:.\Generated_Source\PSoC5/CyLib.c **** * Return:
 182:.\Generated_Source\PSoC5/CyLib.c **** *  None
 183:.\Generated_Source\PSoC5/CyLib.c **** *
 184:.\Generated_Source\PSoC5/CyLib.c **** * Side Effects:
 185:.\Generated_Source\PSoC5/CyLib.c **** *  If as result of this function execution the CPU clock frequency is increased
 186:.\Generated_Source\PSoC5/CyLib.c **** *  then the number of clock cycles the cache will wait before it samples data
 187:.\Generated_Source\PSoC5/CyLib.c **** *  coming back from Flash must be adjusted by calling CyFlash_SetWaitCycles()
 188:.\Generated_Source\PSoC5/CyLib.c **** *  with appropriate parameter. It can be optionally called if CPU clock
 189:.\Generated_Source\PSoC5/CyLib.c **** *  frequency is lowered in order to improve CPU performance.
 190:.\Generated_Source\PSoC5/CyLib.c **** *  See CyFlash_SetWaitCycles() description for more information.
 191:.\Generated_Source\PSoC5/CyLib.c **** *
 192:.\Generated_Source\PSoC5/CyLib.c **** *******************************************************************************/
 193:.\Generated_Source\PSoC5/CyLib.c **** void CyPLL_OUT_SetPQ(uint8 pDiv, uint8 qDiv, uint8 current) 
 194:.\Generated_Source\PSoC5/CyLib.c **** {
 219              		.loc 1 194 0
 220              		.cfi_startproc
 221              		@ args = 0, pretend = 0, frame = 8
 222              		@ frame_needed = 1, uses_anonymous_args = 0
 223 0000 80B5     		push	{r7, lr}
 224              	.LCFI5:
 225              		.cfi_def_cfa_offset 8
 226 0002 82B0     		sub	sp, sp, #8
 227              	.LCFI6:
 228              		.cfi_def_cfa_offset 16
 229 0004 00AF     		add	r7, sp, #0
 230              		.cfi_offset 14, -4
 231              		.cfi_offset 7, -8
 232              	.LCFI7:
 233              		.cfi_def_cfa_register 7
 234 0006 1346     		mov	r3, r2
 235 0008 0246     		mov	r2, r0
 236 000a FA71     		strb	r2, [r7, #7]
 237 000c 0A46     		mov	r2, r1
 238 000e BA71     		strb	r2, [r7, #6]
 239 0010 7B71     		strb	r3, [r7, #5]
 195:.\Generated_Source\PSoC5/CyLib.c ****     /* Halt CPU in debug mode if PLL is enabled */
 196:.\Generated_Source\PSoC5/CyLib.c ****     CYASSERT(0u == (CY_CLK_PLL_CFG0_REG & CY_CLK_PLL_ENABLE));
 240              		.loc 1 196 0
 241 0012 44F22023 		movw	r3, #:lower16:1073758752
 242 0016 C4F20003 		movt	r3, #:upper16:1073758752
 243 001a 1B78     		ldrb	r3, [r3, #0]
 244 001c DBB2     		uxtb	r3, r3
 245 001e 03F00103 		and	r3, r3, #1
 246 0022 002B     		cmp	r3, #0
 247 0024 03D0     		beq	.L11
 248 0026 4FF00000 		mov	r0, #0
 249 002a FFF7FEFF 		bl	CyHalt
 250              	.L11:
 197:.\Generated_Source\PSoC5/CyLib.c **** 
 198:.\Generated_Source\PSoC5/CyLib.c ****     if((pDiv    >= CY_CLK_PLL_MIN_P_VALUE  ) &&
 251              		.loc 1 198 0
 252 002e FB79     		ldrb	r3, [r7, #7]	@ zero_extendqisi2
 253 0030 072B     		cmp	r3, #7
 254 0032 32D9     		bls	.L12
ARM GAS  C:\Users\karunmj\AppData\Local\Temp\cceFJIz4.s 			page 9


 255 0034 BB79     		ldrb	r3, [r7, #6]	@ zero_extendqisi2
 256 0036 102B     		cmp	r3, #16
 257 0038 2FD8     		bhi	.L12
 258 003a BB79     		ldrb	r3, [r7, #6]	@ zero_extendqisi2
 259 003c 002B     		cmp	r3, #0
 260 003e 2CD0     		beq	.L12
 261 0040 7B79     		ldrb	r3, [r7, #5]	@ zero_extendqisi2
 262 0042 002B     		cmp	r3, #0
 263 0044 29D0     		beq	.L12
 264 0046 7B79     		ldrb	r3, [r7, #5]	@ zero_extendqisi2
 265 0048 072B     		cmp	r3, #7
 266 004a 26D8     		bhi	.L12
 199:.\Generated_Source\PSoC5/CyLib.c ****        (qDiv    <= CY_CLK_PLL_MAX_Q_VALUE  ) && (qDiv    >= CY_CLK_PLL_MIN_Q_VALUE  ) &&
 200:.\Generated_Source\PSoC5/CyLib.c ****        (current >= CY_CLK_PLL_MIN_CUR_VALUE) && (current <= CY_CLK_PLL_MAX_CUR_VALUE))
 201:.\Generated_Source\PSoC5/CyLib.c ****     {
 202:.\Generated_Source\PSoC5/CyLib.c ****         /* Set new values */
 203:.\Generated_Source\PSoC5/CyLib.c ****         CY_CLK_PLL_P_REG = pDiv;
 267              		.loc 1 203 0
 268 004c 44F22223 		movw	r3, #:lower16:1073758754
 269 0050 C4F20003 		movt	r3, #:upper16:1073758754
 270 0054 FA79     		ldrb	r2, [r7, #7]
 271 0056 1A70     		strb	r2, [r3, #0]
 204:.\Generated_Source\PSoC5/CyLib.c ****         CY_CLK_PLL_Q_REG = ((uint8)(qDiv - 1u));
 272              		.loc 1 204 0
 273 0058 44F22323 		movw	r3, #:lower16:1073758755
 274 005c C4F20003 		movt	r3, #:upper16:1073758755
 275 0060 BA79     		ldrb	r2, [r7, #6]
 276 0062 02F1FF32 		add	r2, r2, #-1
 277 0066 D2B2     		uxtb	r2, r2
 278 0068 1A70     		strb	r2, [r3, #0]
 205:.\Generated_Source\PSoC5/CyLib.c ****         CY_CLK_PLL_CFG1_REG = (CY_CLK_PLL_CFG1_REG & CY_CLK_PLL_CURRENT_MASK) |
 279              		.loc 1 205 0
 280 006a 44F22123 		movw	r3, #:lower16:1073758753
 281 006e C4F20003 		movt	r3, #:upper16:1073758753
 282 0072 44F22122 		movw	r2, #:lower16:1073758753
 283 0076 C4F20002 		movt	r2, #:upper16:1073758753
 284 007a 1278     		ldrb	r2, [r2, #0]
 285 007c D2B2     		uxtb	r2, r2
 286 007e 02F08F02 		and	r2, r2, #143
 206:.\Generated_Source\PSoC5/CyLib.c ****                                 ((uint8)(((uint8)(current - 1u)) << CY_CLK_PLL_CURRENT_POSITION));
 287              		.loc 1 206 0
 288 0082 7979     		ldrb	r1, [r7, #5]
 289 0084 01F1FF31 		add	r1, r1, #-1
 290 0088 C9B2     		uxtb	r1, r1
 291 008a 4FEA0111 		lsl	r1, r1, #4
 292 008e C9B2     		uxtb	r1, r1
 293              		.loc 1 205 0
 294 0090 42EA0102 		orr	r2, r2, r1
 295 0094 D2B2     		uxtb	r2, r2
 296 0096 1A70     		strb	r2, [r3, #0]
 297              		.loc 1 198 0
 298 0098 03E0     		b	.L14
 299              	.L12:
 207:.\Generated_Source\PSoC5/CyLib.c ****     }
 208:.\Generated_Source\PSoC5/CyLib.c ****     else
 209:.\Generated_Source\PSoC5/CyLib.c ****     {
 210:.\Generated_Source\PSoC5/CyLib.c ****         /***********************************************************************
ARM GAS  C:\Users\karunmj\AppData\Local\Temp\cceFJIz4.s 			page 10


 211:.\Generated_Source\PSoC5/CyLib.c ****         * Halt CPU in debug mode if:
 212:.\Generated_Source\PSoC5/CyLib.c ****         * - P divider is less than required
 213:.\Generated_Source\PSoC5/CyLib.c ****         * - Q divider is out of range
 214:.\Generated_Source\PSoC5/CyLib.c ****         * - pump current is out of range
 215:.\Generated_Source\PSoC5/CyLib.c ****         ***********************************************************************/
 216:.\Generated_Source\PSoC5/CyLib.c ****         CYASSERT(0u != 0u);
 300              		.loc 1 216 0
 301 009a 4FF00000 		mov	r0, #0
 302 009e FFF7FEFF 		bl	CyHalt
 303              	.L14:
 217:.\Generated_Source\PSoC5/CyLib.c ****     }
 218:.\Generated_Source\PSoC5/CyLib.c **** 
 219:.\Generated_Source\PSoC5/CyLib.c **** }
 304              		.loc 1 219 0
 305 00a2 07F10807 		add	r7, r7, #8
 306 00a6 BD46     		mov	sp, r7
 307 00a8 80BD     		pop	{r7, pc}
 308              		.cfi_endproc
 309              	.LFE2:
 310              		.size	CyPLL_OUT_SetPQ, .-CyPLL_OUT_SetPQ
 311 00aa 00BF     		.section	.text.CyPLL_OUT_SetSource,"ax",%progbits
 312              		.align	2
 313              		.global	CyPLL_OUT_SetSource
 314              		.thumb
 315              		.thumb_func
 316              		.type	CyPLL_OUT_SetSource, %function
 317              	CyPLL_OUT_SetSource:
 318              	.LFB3:
 220:.\Generated_Source\PSoC5/CyLib.c **** 
 221:.\Generated_Source\PSoC5/CyLib.c **** 
 222:.\Generated_Source\PSoC5/CyLib.c **** /*******************************************************************************
 223:.\Generated_Source\PSoC5/CyLib.c **** * Function Name: CyPLL_OUT_SetSource
 224:.\Generated_Source\PSoC5/CyLib.c **** ********************************************************************************
 225:.\Generated_Source\PSoC5/CyLib.c **** *
 226:.\Generated_Source\PSoC5/CyLib.c **** * Summary:
 227:.\Generated_Source\PSoC5/CyLib.c **** *  Sets the input clock source to the PLL. The PLL must be disabled before
 228:.\Generated_Source\PSoC5/CyLib.c **** *  calling this function.
 229:.\Generated_Source\PSoC5/CyLib.c **** *
 230:.\Generated_Source\PSoC5/CyLib.c **** * Parameters:
 231:.\Generated_Source\PSoC5/CyLib.c **** *   source: One of the three available PLL clock sources
 232:.\Generated_Source\PSoC5/CyLib.c **** *            0 :        IMO
 233:.\Generated_Source\PSoC5/CyLib.c **** *            1 :        MHz Crystal
 234:.\Generated_Source\PSoC5/CyLib.c **** *            2 :        DSI
 235:.\Generated_Source\PSoC5/CyLib.c **** *
 236:.\Generated_Source\PSoC5/CyLib.c **** * Return:
 237:.\Generated_Source\PSoC5/CyLib.c **** *  None
 238:.\Generated_Source\PSoC5/CyLib.c **** *
 239:.\Generated_Source\PSoC5/CyLib.c **** * Side Effects:
 240:.\Generated_Source\PSoC5/CyLib.c **** *  If as result of this function execution the CPU clock frequency is increased
 241:.\Generated_Source\PSoC5/CyLib.c **** *  then the number of clock cycles the cache will wait before it samples data
 242:.\Generated_Source\PSoC5/CyLib.c **** *  coming back from Flash must be adjusted by calling CyFlash_SetWaitCycles()
 243:.\Generated_Source\PSoC5/CyLib.c **** *  with appropriate parameter. It can be optionally called if CPU clock
 244:.\Generated_Source\PSoC5/CyLib.c **** *  frequency is lowered in order to improve CPU performance.
 245:.\Generated_Source\PSoC5/CyLib.c **** *  See CyFlash_SetWaitCycles() description for more information.
 246:.\Generated_Source\PSoC5/CyLib.c **** *
 247:.\Generated_Source\PSoC5/CyLib.c **** *******************************************************************************/
 248:.\Generated_Source\PSoC5/CyLib.c **** void CyPLL_OUT_SetSource(uint8 source) 
ARM GAS  C:\Users\karunmj\AppData\Local\Temp\cceFJIz4.s 			page 11


 249:.\Generated_Source\PSoC5/CyLib.c **** {
 319              		.loc 1 249 0
 320              		.cfi_startproc
 321              		@ args = 0, pretend = 0, frame = 8
 322              		@ frame_needed = 1, uses_anonymous_args = 0
 323 0000 80B5     		push	{r7, lr}
 324              	.LCFI8:
 325              		.cfi_def_cfa_offset 8
 326 0002 82B0     		sub	sp, sp, #8
 327              	.LCFI9:
 328              		.cfi_def_cfa_offset 16
 329 0004 00AF     		add	r7, sp, #0
 330              		.cfi_offset 14, -4
 331              		.cfi_offset 7, -8
 332              	.LCFI10:
 333              		.cfi_def_cfa_register 7
 334 0006 0346     		mov	r3, r0
 335 0008 FB71     		strb	r3, [r7, #7]
 250:.\Generated_Source\PSoC5/CyLib.c ****     /* Halt CPU in debug mode if PLL is enabled */
 251:.\Generated_Source\PSoC5/CyLib.c ****     CYASSERT(0u == (CY_CLK_PLL_CFG0_REG & CY_CLK_PLL_ENABLE));
 336              		.loc 1 251 0
 337 000a 44F22023 		movw	r3, #:lower16:1073758752
 338 000e C4F20003 		movt	r3, #:upper16:1073758752
 339 0012 1B78     		ldrb	r3, [r3, #0]
 340 0014 DBB2     		uxtb	r3, r3
 341 0016 03F00103 		and	r3, r3, #1
 342 001a 002B     		cmp	r3, #0
 343 001c 03D0     		beq	.L16
 344 001e 4FF00000 		mov	r0, #0
 345 0022 FFF7FEFF 		bl	CyHalt
 346              	.L16:
 252:.\Generated_Source\PSoC5/CyLib.c **** 
 253:.\Generated_Source\PSoC5/CyLib.c ****     switch(source)
 347              		.loc 1 253 0
 348 0026 FB79     		ldrb	r3, [r7, #7]	@ zero_extendqisi2
 349 0028 03F10003 		add	r3, r3, #0
 350 002c 022B     		cmp	r3, #2
 351 002e 11D8     		bhi	.L17
 254:.\Generated_Source\PSoC5/CyLib.c ****     {
 255:.\Generated_Source\PSoC5/CyLib.c ****         case CY_PLL_SOURCE_IMO:
 256:.\Generated_Source\PSoC5/CyLib.c ****         case CY_PLL_SOURCE_XTAL:
 257:.\Generated_Source\PSoC5/CyLib.c ****         case CY_PLL_SOURCE_DSI:
 258:.\Generated_Source\PSoC5/CyLib.c ****             CY_LIB_CLKDIST_CR_REG = ((CY_LIB_CLKDIST_CR_REG & CY_LIB_CLKDIST_CR_PLL_SCR_MASK) | sou
 352              		.loc 1 258 0
 353 0030 44F20003 		movw	r3, #:lower16:1073758208
 354 0034 C4F20003 		movt	r3, #:upper16:1073758208
 355 0038 44F20002 		movw	r2, #:lower16:1073758208
 356 003c C4F20002 		movt	r2, #:upper16:1073758208
 357 0040 1278     		ldrb	r2, [r2, #0]
 358 0042 D2B2     		uxtb	r2, r2
 359 0044 02F0FC02 		and	r2, r2, #252
 360 0048 F979     		ldrb	r1, [r7, #7]
 361 004a 42EA0102 		orr	r2, r2, r1
 362 004e D2B2     		uxtb	r2, r2
 363 0050 1A70     		strb	r2, [r3, #0]
 259:.\Generated_Source\PSoC5/CyLib.c ****         break;
 364              		.loc 1 259 0
ARM GAS  C:\Users\karunmj\AppData\Local\Temp\cceFJIz4.s 			page 12


 365 0052 03E0     		b	.L20
 366              	.L17:
 260:.\Generated_Source\PSoC5/CyLib.c **** 
 261:.\Generated_Source\PSoC5/CyLib.c ****         default:
 262:.\Generated_Source\PSoC5/CyLib.c ****             CYASSERT(0u != 0u);
 367              		.loc 1 262 0
 368 0054 4FF00000 		mov	r0, #0
 369 0058 FFF7FEFF 		bl	CyHalt
 370              	.L20:
 263:.\Generated_Source\PSoC5/CyLib.c ****         break;
 264:.\Generated_Source\PSoC5/CyLib.c ****     }
 265:.\Generated_Source\PSoC5/CyLib.c **** }
 371              		.loc 1 265 0
 372 005c 07F10807 		add	r7, r7, #8
 373 0060 BD46     		mov	sp, r7
 374 0062 80BD     		pop	{r7, pc}
 375              		.cfi_endproc
 376              	.LFE3:
 377              		.size	CyPLL_OUT_SetSource, .-CyPLL_OUT_SetSource
 378              		.section	.text.CyIMO_Start,"ax",%progbits
 379              		.align	2
 380              		.global	CyIMO_Start
 381              		.thumb
 382              		.thumb_func
 383              		.type	CyIMO_Start, %function
 384              	CyIMO_Start:
 385              	.LFB4:
 266:.\Generated_Source\PSoC5/CyLib.c **** 
 267:.\Generated_Source\PSoC5/CyLib.c **** 
 268:.\Generated_Source\PSoC5/CyLib.c **** /*******************************************************************************
 269:.\Generated_Source\PSoC5/CyLib.c **** * Function Name: CyIMO_Start
 270:.\Generated_Source\PSoC5/CyLib.c **** ********************************************************************************
 271:.\Generated_Source\PSoC5/CyLib.c **** *
 272:.\Generated_Source\PSoC5/CyLib.c **** * Summary:
 273:.\Generated_Source\PSoC5/CyLib.c **** *  Enables the IMO. Optionally waits at least 6 us for it to settle.
 274:.\Generated_Source\PSoC5/CyLib.c **** *
 275:.\Generated_Source\PSoC5/CyLib.c **** * Parameters:
 276:.\Generated_Source\PSoC5/CyLib.c **** *  uint8 wait:
 277:.\Generated_Source\PSoC5/CyLib.c **** *   0: Return immediately after configuration
 278:.\Generated_Source\PSoC5/CyLib.c **** *   1: Wait for at least 6 us for the IMO to settle.
 279:.\Generated_Source\PSoC5/CyLib.c **** *
 280:.\Generated_Source\PSoC5/CyLib.c **** * Return:
 281:.\Generated_Source\PSoC5/CyLib.c **** *  None
 282:.\Generated_Source\PSoC5/CyLib.c **** *
 283:.\Generated_Source\PSoC5/CyLib.c **** * Side Effects:
 284:.\Generated_Source\PSoC5/CyLib.c **** *  If wait is enabled: This function wses the Fast Time Wheel to time the wait.
 285:.\Generated_Source\PSoC5/CyLib.c **** *  Any other use of the Fast Time Wheel will be stopped during the period of
 286:.\Generated_Source\PSoC5/CyLib.c **** *  this function and then restored. This function also uses the 100 KHz ILO.
 287:.\Generated_Source\PSoC5/CyLib.c **** *  If not enabled, this function will enable the 100 KHz ILO for the period of
 288:.\Generated_Source\PSoC5/CyLib.c **** *  this function.
 289:.\Generated_Source\PSoC5/CyLib.c **** *
 290:.\Generated_Source\PSoC5/CyLib.c **** *  No changes to the setup of the ILO, Fast Time Wheel, Central Time Wheel or
 291:.\Generated_Source\PSoC5/CyLib.c **** *  Once Per Second interrupt may be made by interrupt routines during the period
 292:.\Generated_Source\PSoC5/CyLib.c **** *  of this function execution. The current operation of the ILO, Central Time
 293:.\Generated_Source\PSoC5/CyLib.c **** *  Wheel and Once Per Second interrupt are maintained during the operation of
 294:.\Generated_Source\PSoC5/CyLib.c **** *  this function provided the reading of the Power Manager Interrupt Status
 295:.\Generated_Source\PSoC5/CyLib.c **** *  Register is only done using the CyPmReadStatus() function.
ARM GAS  C:\Users\karunmj\AppData\Local\Temp\cceFJIz4.s 			page 13


 296:.\Generated_Source\PSoC5/CyLib.c **** *
 297:.\Generated_Source\PSoC5/CyLib.c **** *******************************************************************************/
 298:.\Generated_Source\PSoC5/CyLib.c **** void CyIMO_Start(uint8 wait) 
 299:.\Generated_Source\PSoC5/CyLib.c **** {
 386              		.loc 1 299 0
 387              		.cfi_startproc
 388              		@ args = 0, pretend = 0, frame = 16
 389              		@ frame_needed = 1, uses_anonymous_args = 0
 390 0000 80B5     		push	{r7, lr}
 391              	.LCFI11:
 392              		.cfi_def_cfa_offset 8
 393 0002 84B0     		sub	sp, sp, #16
 394              	.LCFI12:
 395              		.cfi_def_cfa_offset 24
 396 0004 00AF     		add	r7, sp, #0
 397              		.cfi_offset 14, -4
 398              		.cfi_offset 7, -8
 399              	.LCFI13:
 400              		.cfi_def_cfa_register 7
 401 0006 0346     		mov	r3, r0
 402 0008 FB71     		strb	r3, [r7, #7]
 300:.\Generated_Source\PSoC5/CyLib.c ****     uint8 pmFtwCfg2Reg;
 301:.\Generated_Source\PSoC5/CyLib.c ****     uint8 pmFtwCfg0Reg;
 302:.\Generated_Source\PSoC5/CyLib.c ****     uint8 iloControlReg;
 303:.\Generated_Source\PSoC5/CyLib.c **** 
 304:.\Generated_Source\PSoC5/CyLib.c ****     /* Set the bit to enable the clock. */
 305:.\Generated_Source\PSoC5/CyLib.c ****     PM_ACT_CFG0 |= IMO_PM_ENABLE;
 403              		.loc 1 305 0
 404 000a 44F2A033 		movw	r3, #:lower16:1073759136
 405 000e C4F20003 		movt	r3, #:upper16:1073759136
 406 0012 44F2A032 		movw	r2, #:lower16:1073759136
 407 0016 C4F20002 		movt	r2, #:upper16:1073759136
 408 001a 1278     		ldrb	r2, [r2, #0]
 409 001c D2B2     		uxtb	r2, r2
 410 001e 42F01002 		orr	r2, r2, #16
 411 0022 D2B2     		uxtb	r2, r2
 412 0024 1A70     		strb	r2, [r3, #0]
 306:.\Generated_Source\PSoC5/CyLib.c **** 
 307:.\Generated_Source\PSoC5/CyLib.c ****     /* Wait for 6 us */
 308:.\Generated_Source\PSoC5/CyLib.c ****     if(0u != wait)
 413              		.loc 1 308 0
 414 0026 FB79     		ldrb	r3, [r7, #7]	@ zero_extendqisi2
 415 0028 002B     		cmp	r3, #0
 416 002a 4DD0     		beq	.L26
 309:.\Generated_Source\PSoC5/CyLib.c ****     {
 310:.\Generated_Source\PSoC5/CyLib.c ****         /* Need to turn on the 100KHz ILO if it happens to not already be running.*/
 311:.\Generated_Source\PSoC5/CyLib.c ****         iloControlReg = SLOWCLK_ILO_CR0;
 417              		.loc 1 311 0
 418 002c 44F20033 		movw	r3, #:lower16:1073758976
 419 0030 C4F20003 		movt	r3, #:upper16:1073758976
 420 0034 1B78     		ldrb	r3, [r3, #0]
 421 0036 FB73     		strb	r3, [r7, #15]
 312:.\Generated_Source\PSoC5/CyLib.c **** 
 313:.\Generated_Source\PSoC5/CyLib.c ****         if(0u == (iloControlReg & ILO_CONTROL_100KHZ_ON))
 422              		.loc 1 313 0
 423 0038 FB7B     		ldrb	r3, [r7, #15]	@ zero_extendqisi2
 424 003a 03F00403 		and	r3, r3, #4
ARM GAS  C:\Users\karunmj\AppData\Local\Temp\cceFJIz4.s 			page 14


 425 003e 002B     		cmp	r3, #0
 426 0040 01D1     		bne	.L23
 314:.\Generated_Source\PSoC5/CyLib.c ****         {
 315:.\Generated_Source\PSoC5/CyLib.c ****             CyILO_Start100K();
 427              		.loc 1 315 0
 428 0042 FFF7FEFF 		bl	CyILO_Start100K
 429              	.L23:
 316:.\Generated_Source\PSoC5/CyLib.c ****         }
 317:.\Generated_Source\PSoC5/CyLib.c **** 
 318:.\Generated_Source\PSoC5/CyLib.c ****         /* Use ILO 100 KHz */
 319:.\Generated_Source\PSoC5/CyLib.c ****         pmFtwCfg2Reg = PM_TW_CFG2;
 430              		.loc 1 319 0
 431 0046 44F28233 		movw	r3, #:lower16:1073759106
 432 004a C4F20003 		movt	r3, #:upper16:1073759106
 433 004e 1B78     		ldrb	r3, [r3, #0]
 434 0050 7B73     		strb	r3, [r7, #13]
 320:.\Generated_Source\PSoC5/CyLib.c ****         pmFtwCfg0Reg = PM_TW_CFG0;
 435              		.loc 1 320 0
 436 0052 44F28033 		movw	r3, #:lower16:1073759104
 437 0056 C4F20003 		movt	r3, #:upper16:1073759104
 438 005a 1B78     		ldrb	r3, [r3, #0]
 439 005c BB73     		strb	r3, [r7, #14]
 321:.\Generated_Source\PSoC5/CyLib.c **** 
 322:.\Generated_Source\PSoC5/CyLib.c ****         /* FTW_EN (bit 0) must be clear to change the period*/
 323:.\Generated_Source\PSoC5/CyLib.c ****         PM_TW_CFG2 &= FTW_CLEAR_FTW_BITS;
 440              		.loc 1 323 0
 441 005e 44F28233 		movw	r3, #:lower16:1073759106
 442 0062 C4F20003 		movt	r3, #:upper16:1073759106
 443 0066 44F28232 		movw	r2, #:lower16:1073759106
 444 006a C4F20002 		movt	r2, #:upper16:1073759106
 445 006e 1278     		ldrb	r2, [r2, #0]
 446 0070 D2B2     		uxtb	r2, r2
 447 0072 02F0FC02 		and	r2, r2, #252
 448 0076 1A70     		strb	r2, [r3, #0]
 324:.\Generated_Source\PSoC5/CyLib.c **** 
 325:.\Generated_Source\PSoC5/CyLib.c ****         /* Set the FTW interval of 1 100KHz ILO clocks
 326:.\Generated_Source\PSoC5/CyLib.c ****         Should result in status getting set at a (100/1)KHz rate*/
 327:.\Generated_Source\PSoC5/CyLib.c ****         PM_TW_CFG0 = 0u;
 449              		.loc 1 327 0
 450 0078 44F28033 		movw	r3, #:lower16:1073759104
 451 007c C4F20003 		movt	r3, #:upper16:1073759104
 452 0080 4FF00002 		mov	r2, #0
 453 0084 1A70     		strb	r2, [r3, #0]
 328:.\Generated_Source\PSoC5/CyLib.c **** 
 329:.\Generated_Source\PSoC5/CyLib.c ****         /* Enable FTW, but not the interrupt */
 330:.\Generated_Source\PSoC5/CyLib.c ****         PM_TW_CFG2 = FTW_ENABLE;
 454              		.loc 1 330 0
 455 0086 44F28233 		movw	r3, #:lower16:1073759106
 456 008a C4F20003 		movt	r3, #:upper16:1073759106
 457 008e 4FF00102 		mov	r2, #1
 458 0092 1A70     		strb	r2, [r3, #0]
 459              	.L24:
 331:.\Generated_Source\PSoC5/CyLib.c **** 
 332:.\Generated_Source\PSoC5/CyLib.c ****         /* Read FTW value */
 333:.\Generated_Source\PSoC5/CyLib.c ****         while (CyPmReadStatus(CY_PM_FTW_INT) == 0u)
 460              		.loc 1 333 0
 461 0094 4FF00100 		mov	r0, #1
ARM GAS  C:\Users\karunmj\AppData\Local\Temp\cceFJIz4.s 			page 15


 462 0098 FFF7FEFF 		bl	CyPmReadStatus
 463 009c 0346     		mov	r3, r0
 464 009e 002B     		cmp	r3, #0
 465 00a0 F8D0     		beq	.L24
 334:.\Generated_Source\PSoC5/CyLib.c ****         {
 335:.\Generated_Source\PSoC5/CyLib.c ****             /* Wait for the interrupt status */
 336:.\Generated_Source\PSoC5/CyLib.c ****         }
 337:.\Generated_Source\PSoC5/CyLib.c **** 
 338:.\Generated_Source\PSoC5/CyLib.c ****         /* Reset the clock */
 339:.\Generated_Source\PSoC5/CyLib.c ****         if(0u == (iloControlReg & ILO_CONTROL_100KHZ_ON))
 466              		.loc 1 339 0
 467 00a2 FB7B     		ldrb	r3, [r7, #15]	@ zero_extendqisi2
 468 00a4 03F00403 		and	r3, r3, #4
 469 00a8 002B     		cmp	r3, #0
 470 00aa 01D1     		bne	.L25
 340:.\Generated_Source\PSoC5/CyLib.c ****         {
 341:.\Generated_Source\PSoC5/CyLib.c ****             CyILO_Stop100K();
 471              		.loc 1 341 0
 472 00ac FFF7FEFF 		bl	CyILO_Stop100K
 473              	.L25:
 342:.\Generated_Source\PSoC5/CyLib.c ****         }
 343:.\Generated_Source\PSoC5/CyLib.c **** 
 344:.\Generated_Source\PSoC5/CyLib.c ****         /* Restore the FTW */
 345:.\Generated_Source\PSoC5/CyLib.c ****         PM_TW_CFG0 = pmFtwCfg0Reg;
 474              		.loc 1 345 0
 475 00b0 44F28033 		movw	r3, #:lower16:1073759104
 476 00b4 C4F20003 		movt	r3, #:upper16:1073759104
 477 00b8 BA7B     		ldrb	r2, [r7, #14]
 478 00ba 1A70     		strb	r2, [r3, #0]
 346:.\Generated_Source\PSoC5/CyLib.c ****         PM_TW_CFG2 = pmFtwCfg2Reg;
 479              		.loc 1 346 0
 480 00bc 44F28233 		movw	r3, #:lower16:1073759106
 481 00c0 C4F20003 		movt	r3, #:upper16:1073759106
 482 00c4 7A7B     		ldrb	r2, [r7, #13]
 483 00c6 1A70     		strb	r2, [r3, #0]
 484              	.L26:
 347:.\Generated_Source\PSoC5/CyLib.c ****     }
 348:.\Generated_Source\PSoC5/CyLib.c **** }
 485              		.loc 1 348 0
 486 00c8 07F11007 		add	r7, r7, #16
 487 00cc BD46     		mov	sp, r7
 488 00ce 80BD     		pop	{r7, pc}
 489              		.cfi_endproc
 490              	.LFE4:
 491              		.size	CyIMO_Start, .-CyIMO_Start
 492              		.section	.text.CyIMO_Stop,"ax",%progbits
 493              		.align	2
 494              		.global	CyIMO_Stop
 495              		.thumb
 496              		.thumb_func
 497              		.type	CyIMO_Stop, %function
 498              	CyIMO_Stop:
 499              	.LFB5:
 349:.\Generated_Source\PSoC5/CyLib.c **** 
 350:.\Generated_Source\PSoC5/CyLib.c **** 
 351:.\Generated_Source\PSoC5/CyLib.c **** /*******************************************************************************
 352:.\Generated_Source\PSoC5/CyLib.c **** * Function Name: CyIMO_Stop
ARM GAS  C:\Users\karunmj\AppData\Local\Temp\cceFJIz4.s 			page 16


 353:.\Generated_Source\PSoC5/CyLib.c **** ********************************************************************************
 354:.\Generated_Source\PSoC5/CyLib.c **** *
 355:.\Generated_Source\PSoC5/CyLib.c **** * Summary:
 356:.\Generated_Source\PSoC5/CyLib.c **** *   Disables the IMO.
 357:.\Generated_Source\PSoC5/CyLib.c **** *
 358:.\Generated_Source\PSoC5/CyLib.c **** * Parameters:
 359:.\Generated_Source\PSoC5/CyLib.c **** *  None
 360:.\Generated_Source\PSoC5/CyLib.c **** *
 361:.\Generated_Source\PSoC5/CyLib.c **** * Return:
 362:.\Generated_Source\PSoC5/CyLib.c **** *  None
 363:.\Generated_Source\PSoC5/CyLib.c **** *
 364:.\Generated_Source\PSoC5/CyLib.c **** *******************************************************************************/
 365:.\Generated_Source\PSoC5/CyLib.c **** void CyIMO_Stop(void) 
 366:.\Generated_Source\PSoC5/CyLib.c **** {
 500              		.loc 1 366 0
 501              		.cfi_startproc
 502              		@ args = 0, pretend = 0, frame = 0
 503              		@ frame_needed = 1, uses_anonymous_args = 0
 504              		@ link register save eliminated.
 505 0000 80B4     		push	{r7}
 506              	.LCFI14:
 507              		.cfi_def_cfa_offset 4
 508 0002 00AF     		add	r7, sp, #0
 509              		.cfi_offset 7, -4
 510              	.LCFI15:
 511              		.cfi_def_cfa_register 7
 367:.\Generated_Source\PSoC5/CyLib.c ****     /* Clear the bit to disable the clock. */
 368:.\Generated_Source\PSoC5/CyLib.c ****     PM_ACT_CFG0 &= ((uint8)(~IMO_PM_ENABLE));
 512              		.loc 1 368 0
 513 0004 44F2A033 		movw	r3, #:lower16:1073759136
 514 0008 C4F20003 		movt	r3, #:upper16:1073759136
 515 000c 44F2A032 		movw	r2, #:lower16:1073759136
 516 0010 C4F20002 		movt	r2, #:upper16:1073759136
 517 0014 1278     		ldrb	r2, [r2, #0]
 518 0016 D2B2     		uxtb	r2, r2
 519 0018 02F0EF02 		and	r2, r2, #239
 520 001c 1A70     		strb	r2, [r3, #0]
 369:.\Generated_Source\PSoC5/CyLib.c **** }
 521              		.loc 1 369 0
 522 001e BD46     		mov	sp, r7
 523 0020 80BC     		pop	{r7}
 524 0022 7047     		bx	lr
 525              		.cfi_endproc
 526              	.LFE5:
 527              		.size	CyIMO_Stop, .-CyIMO_Stop
 528              		.section	.text.CyUSB_PowerOnCheck,"ax",%progbits
 529              		.align	2
 530              		.thumb
 531              		.thumb_func
 532              		.type	CyUSB_PowerOnCheck, %function
 533              	CyUSB_PowerOnCheck:
 534              	.LFB6:
 370:.\Generated_Source\PSoC5/CyLib.c **** 
 371:.\Generated_Source\PSoC5/CyLib.c **** 
 372:.\Generated_Source\PSoC5/CyLib.c **** /*******************************************************************************
 373:.\Generated_Source\PSoC5/CyLib.c **** * Function Name: CyUSB_PowerOnCheck
 374:.\Generated_Source\PSoC5/CyLib.c **** ********************************************************************************
ARM GAS  C:\Users\karunmj\AppData\Local\Temp\cceFJIz4.s 			page 17


 375:.\Generated_Source\PSoC5/CyLib.c **** *
 376:.\Generated_Source\PSoC5/CyLib.c **** * Summary:
 377:.\Generated_Source\PSoC5/CyLib.c **** *  Returns the USB power status value. A private function to cy_boot.
 378:.\Generated_Source\PSoC5/CyLib.c **** *
 379:.\Generated_Source\PSoC5/CyLib.c **** * Parameters:
 380:.\Generated_Source\PSoC5/CyLib.c **** *   None
 381:.\Generated_Source\PSoC5/CyLib.c **** *
 382:.\Generated_Source\PSoC5/CyLib.c **** * Return:
 383:.\Generated_Source\PSoC5/CyLib.c **** *   uint8: one if the USB is enabled, 0 if not enabled.
 384:.\Generated_Source\PSoC5/CyLib.c **** *
 385:.\Generated_Source\PSoC5/CyLib.c **** *******************************************************************************/
 386:.\Generated_Source\PSoC5/CyLib.c **** static uint8 CyUSB_PowerOnCheck(void)  
 387:.\Generated_Source\PSoC5/CyLib.c **** {
 535              		.loc 1 387 0
 536              		.cfi_startproc
 537              		@ args = 0, pretend = 0, frame = 8
 538              		@ frame_needed = 1, uses_anonymous_args = 0
 539              		@ link register save eliminated.
 540 0000 80B4     		push	{r7}
 541              	.LCFI16:
 542              		.cfi_def_cfa_offset 4
 543 0002 83B0     		sub	sp, sp, #12
 544              	.LCFI17:
 545              		.cfi_def_cfa_offset 16
 546 0004 00AF     		add	r7, sp, #0
 547              		.cfi_offset 7, -4
 548              	.LCFI18:
 549              		.cfi_def_cfa_register 7
 388:.\Generated_Source\PSoC5/CyLib.c ****     uint8 poweredOn = 0u;
 550              		.loc 1 388 0
 551 0006 4FF00003 		mov	r3, #0
 552 000a FB71     		strb	r3, [r7, #7]
 389:.\Generated_Source\PSoC5/CyLib.c **** 
 390:.\Generated_Source\PSoC5/CyLib.c ****     /* Check whether device is in Active or AltActiv and if USB is powered on */
 391:.\Generated_Source\PSoC5/CyLib.c ****     if((((CY_PM_MODE_CSR_REG & CY_PM_MODE_CSR_MASK) == CY_PM_MODE_CSR_ACTIVE ) &&
 553              		.loc 1 391 0
 554 000c 44F29333 		movw	r3, #:lower16:1073759123
 555 0010 C4F20003 		movt	r3, #:upper16:1073759123
 556 0014 1B78     		ldrb	r3, [r3, #0]
 557 0016 DBB2     		uxtb	r3, r3
 558 0018 03F00703 		and	r3, r3, #7
 559 001c 002B     		cmp	r3, #0
 560 001e 0AD1     		bne	.L30
 392:.\Generated_Source\PSoC5/CyLib.c ****        (0u != (CY_PM_ACT_CFG5_REG & CY_ACT_USB_ENABLED     )))  ||
 561              		.loc 1 392 0
 562 0020 44F2A533 		movw	r3, #:lower16:1073759141
 563 0024 C4F20003 		movt	r3, #:upper16:1073759141
 564 0028 1B78     		ldrb	r3, [r3, #0]
 565 002a DBB2     		uxtb	r3, r3
 566 002c 03F00103 		and	r3, r3, #1
 567              		.loc 1 391 0
 568 0030 DBB2     		uxtb	r3, r3
 569 0032 002B     		cmp	r3, #0
 570 0034 14D1     		bne	.L31
 571              	.L30:
 393:.\Generated_Source\PSoC5/CyLib.c ****        (((CY_PM_MODE_CSR_REG & CY_PM_MODE_CSR_MASK) == CY_PM_MODE_CSR_ALT_ACT) &&
 572              		.loc 1 393 0
ARM GAS  C:\Users\karunmj\AppData\Local\Temp\cceFJIz4.s 			page 18


 573 0036 44F29333 		movw	r3, #:lower16:1073759123
 574 003a C4F20003 		movt	r3, #:upper16:1073759123
 575 003e 1B78     		ldrb	r3, [r3, #0]
 576 0040 DBB2     		uxtb	r3, r3
 577 0042 03F00703 		and	r3, r3, #7
 578              		.loc 1 391 0
 579 0046 012B     		cmp	r3, #1
 580 0048 0DD1     		bne	.L32
 394:.\Generated_Source\PSoC5/CyLib.c ****        (0u != (CY_PM_STBY_CFG5_REG & CY_ALT_ACT_USB_ENABLED))))
 581              		.loc 1 394 0
 582 004a 44F2B533 		movw	r3, #:lower16:1073759157
 583 004e C4F20003 		movt	r3, #:upper16:1073759157
 584 0052 1B78     		ldrb	r3, [r3, #0]
 585 0054 DBB2     		uxtb	r3, r3
 586 0056 03F00103 		and	r3, r3, #1
 587              		.loc 1 391 0
 588 005a DBB2     		uxtb	r3, r3
 589 005c 002B     		cmp	r3, #0
 590 005e 02D0     		beq	.L32
 591              	.L31:
 395:.\Generated_Source\PSoC5/CyLib.c ****     {
 396:.\Generated_Source\PSoC5/CyLib.c ****         poweredOn = 1u;
 592              		.loc 1 396 0
 593 0060 4FF00103 		mov	r3, #1
 594 0064 FB71     		strb	r3, [r7, #7]
 595              	.L32:
 397:.\Generated_Source\PSoC5/CyLib.c ****     }
 398:.\Generated_Source\PSoC5/CyLib.c **** 
 399:.\Generated_Source\PSoC5/CyLib.c ****     return (poweredOn);
 596              		.loc 1 399 0
 597 0066 FB79     		ldrb	r3, [r7, #7]	@ zero_extendqisi2
 400:.\Generated_Source\PSoC5/CyLib.c **** }
 598              		.loc 1 400 0
 599 0068 1846     		mov	r0, r3
 600 006a 07F10C07 		add	r7, r7, #12
 601 006e BD46     		mov	sp, r7
 602 0070 80BC     		pop	{r7}
 603 0072 7047     		bx	lr
 604              		.cfi_endproc
 605              	.LFE6:
 606              		.size	CyUSB_PowerOnCheck, .-CyUSB_PowerOnCheck
 607              		.section	.text.CyIMO_SetTrimValue,"ax",%progbits
 608              		.align	2
 609              		.thumb
 610              		.thumb_func
 611              		.type	CyIMO_SetTrimValue, %function
 612              	CyIMO_SetTrimValue:
 613              	.LFB7:
 401:.\Generated_Source\PSoC5/CyLib.c **** 
 402:.\Generated_Source\PSoC5/CyLib.c **** 
 403:.\Generated_Source\PSoC5/CyLib.c **** /*******************************************************************************
 404:.\Generated_Source\PSoC5/CyLib.c **** * Function Name: CyIMO_SetTrimValue
 405:.\Generated_Source\PSoC5/CyLib.c **** ********************************************************************************
 406:.\Generated_Source\PSoC5/CyLib.c **** *
 407:.\Generated_Source\PSoC5/CyLib.c **** * Summary:
 408:.\Generated_Source\PSoC5/CyLib.c **** *  Sets the IMO factory trim values.
 409:.\Generated_Source\PSoC5/CyLib.c **** *
ARM GAS  C:\Users\karunmj\AppData\Local\Temp\cceFJIz4.s 			page 19


 410:.\Generated_Source\PSoC5/CyLib.c **** * Parameters:
 411:.\Generated_Source\PSoC5/CyLib.c **** *  uint8 freq - frequency for which trims must be set
 412:.\Generated_Source\PSoC5/CyLib.c **** *
 413:.\Generated_Source\PSoC5/CyLib.c **** * Return:
 414:.\Generated_Source\PSoC5/CyLib.c **** *  None
 415:.\Generated_Source\PSoC5/CyLib.c **** *
 416:.\Generated_Source\PSoC5/CyLib.c **** *******************************************************************************/
 417:.\Generated_Source\PSoC5/CyLib.c **** static void CyIMO_SetTrimValue(uint8 freq) 
 418:.\Generated_Source\PSoC5/CyLib.c **** {
 614              		.loc 1 418 0
 615              		.cfi_startproc
 616              		@ args = 0, pretend = 0, frame = 16
 617              		@ frame_needed = 1, uses_anonymous_args = 0
 618 0000 80B5     		push	{r7, lr}
 619              	.LCFI19:
 620              		.cfi_def_cfa_offset 8
 621 0002 84B0     		sub	sp, sp, #16
 622              	.LCFI20:
 623              		.cfi_def_cfa_offset 24
 624 0004 00AF     		add	r7, sp, #0
 625              		.cfi_offset 14, -4
 626              		.cfi_offset 7, -8
 627              	.LCFI21:
 628              		.cfi_def_cfa_register 7
 629 0006 0346     		mov	r3, r0
 630 0008 FB71     		strb	r3, [r7, #7]
 419:.\Generated_Source\PSoC5/CyLib.c ****     uint8 usb_power_on = CyUSB_PowerOnCheck();
 631              		.loc 1 419 0
 632 000a FFF7FEFF 		bl	CyUSB_PowerOnCheck
 633 000e 0346     		mov	r3, r0
 634 0010 FB73     		strb	r3, [r7, #15]
 420:.\Generated_Source\PSoC5/CyLib.c **** 
 421:.\Generated_Source\PSoC5/CyLib.c ****     /* If USB is powered */
 422:.\Generated_Source\PSoC5/CyLib.c ****     if(usb_power_on == 1u)
 635              		.loc 1 422 0
 636 0012 FB7B     		ldrb	r3, [r7, #15]	@ zero_extendqisi2
 637 0014 012B     		cmp	r3, #1
 638 0016 0CD1     		bne	.L35
 423:.\Generated_Source\PSoC5/CyLib.c ****     {
 424:.\Generated_Source\PSoC5/CyLib.c ****         /* Unlock USB write */
 425:.\Generated_Source\PSoC5/CyLib.c ****         CY_USB_CR1 &= ((uint8)(~CLOCK_USB_ENABLE));
 639              		.loc 1 425 0
 640 0018 46F20903 		movw	r3, #:lower16:1073766409
 641 001c C4F20003 		movt	r3, #:upper16:1073766409
 642 0020 46F20902 		movw	r2, #:lower16:1073766409
 643 0024 C4F20002 		movt	r2, #:upper16:1073766409
 644 0028 1278     		ldrb	r2, [r2, #0]
 645 002a D2B2     		uxtb	r2, r2
 646 002c 02F0FD02 		and	r2, r2, #253
 647 0030 1A70     		strb	r2, [r3, #0]
 648              	.L35:
 426:.\Generated_Source\PSoC5/CyLib.c ****     }
 427:.\Generated_Source\PSoC5/CyLib.c ****     switch(freq)
 649              		.loc 1 427 0
 650 0032 FB79     		ldrb	r3, [r7, #7]	@ zero_extendqisi2
 651 0034 082B     		cmp	r3, #8
 652 0036 7AD8     		bhi	.L36
ARM GAS  C:\Users\karunmj\AppData\Local\Temp\cceFJIz4.s 			page 20


 653 0038 01A2     		adr	r2, .L44
 654 003a 52F823F0 		ldr	pc, [r2, r3, lsl #2]
 655 003e 00BF     		.align	2
 656              	.L44:
 657 0040 65000000 		.word	.L37+1
 658 0044 7D000000 		.word	.L38+1
 659 0048 95000000 		.word	.L39+1
 660 004c AD000000 		.word	.L40+1
 661 0050 C5000000 		.word	.L41+1
 662 0054 DD000000 		.word	.L42+1
 663 0058 2F010000 		.word	.L36+1
 664 005c 2F010000 		.word	.L36+1
 665 0060 F5000000 		.word	.L43+1
 666              	.L37:
 428:.\Generated_Source\PSoC5/CyLib.c ****     {
 429:.\Generated_Source\PSoC5/CyLib.c ****     case CY_IMO_FREQ_3MHZ:
 430:.\Generated_Source\PSoC5/CyLib.c ****         IMO_TR1 = CY_GET_XTND_REG8(FLSHID_CUST_TABLES_IMO_3MHZ_PTR);
 667              		.loc 1 430 0
 668 0064 44F2A163 		movw	r3, #:lower16:1073759905
 669 0068 C4F20003 		movt	r3, #:upper16:1073759905
 670 006c 40F20812 		movw	r2, #:lower16:1224737032
 671 0070 C4F60012 		movt	r2, #:upper16:1224737032
 672 0074 1278     		ldrb	r2, [r2, #0]
 673 0076 D2B2     		uxtb	r2, r2
 674 0078 1A70     		strb	r2, [r3, #0]
 431:.\Generated_Source\PSoC5/CyLib.c ****         break;
 675              		.loc 1 431 0
 676 007a 5EE0     		b	.L47
 677              	.L38:
 432:.\Generated_Source\PSoC5/CyLib.c **** 
 433:.\Generated_Source\PSoC5/CyLib.c ****     case CY_IMO_FREQ_6MHZ:
 434:.\Generated_Source\PSoC5/CyLib.c ****         IMO_TR1 = CY_GET_XTND_REG8(FLSHID_CUST_TABLES_IMO_6MHZ_PTR);
 678              		.loc 1 434 0
 679 007c 44F2A163 		movw	r3, #:lower16:1073759905
 680 0080 C4F20003 		movt	r3, #:upper16:1073759905
 681 0084 40F20912 		movw	r2, #:lower16:1224737033
 682 0088 C4F60012 		movt	r2, #:upper16:1224737033
 683 008c 1278     		ldrb	r2, [r2, #0]
 684 008e D2B2     		uxtb	r2, r2
 685 0090 1A70     		strb	r2, [r3, #0]
 435:.\Generated_Source\PSoC5/CyLib.c ****         break;
 686              		.loc 1 435 0
 687 0092 52E0     		b	.L47
 688              	.L39:
 436:.\Generated_Source\PSoC5/CyLib.c **** 
 437:.\Generated_Source\PSoC5/CyLib.c ****     case CY_IMO_FREQ_12MHZ:
 438:.\Generated_Source\PSoC5/CyLib.c ****         IMO_TR1 = CY_GET_XTND_REG8(FLSHID_CUST_TABLES_IMO_12MHZ_PTR);
 689              		.loc 1 438 0
 690 0094 44F2A163 		movw	r3, #:lower16:1073759905
 691 0098 C4F20003 		movt	r3, #:upper16:1073759905
 692 009c 40F20A12 		movw	r2, #:lower16:1224737034
 693 00a0 C4F60012 		movt	r2, #:upper16:1224737034
 694 00a4 1278     		ldrb	r2, [r2, #0]
 695 00a6 D2B2     		uxtb	r2, r2
 696 00a8 1A70     		strb	r2, [r3, #0]
 439:.\Generated_Source\PSoC5/CyLib.c ****         break;
 697              		.loc 1 439 0
ARM GAS  C:\Users\karunmj\AppData\Local\Temp\cceFJIz4.s 			page 21


 698 00aa 46E0     		b	.L47
 699              	.L40:
 440:.\Generated_Source\PSoC5/CyLib.c **** 
 441:.\Generated_Source\PSoC5/CyLib.c ****     case CY_IMO_FREQ_24MHZ:
 442:.\Generated_Source\PSoC5/CyLib.c ****         IMO_TR1 = CY_GET_XTND_REG8(FLSHID_CUST_TABLES_IMO_24MHZ_PTR);
 700              		.loc 1 442 0
 701 00ac 44F2A163 		movw	r3, #:lower16:1073759905
 702 00b0 C4F20003 		movt	r3, #:upper16:1073759905
 703 00b4 40F20B12 		movw	r2, #:lower16:1224737035
 704 00b8 C4F60012 		movt	r2, #:upper16:1224737035
 705 00bc 1278     		ldrb	r2, [r2, #0]
 706 00be D2B2     		uxtb	r2, r2
 707 00c0 1A70     		strb	r2, [r3, #0]
 443:.\Generated_Source\PSoC5/CyLib.c ****         break;
 708              		.loc 1 443 0
 709 00c2 3AE0     		b	.L47
 710              	.L41:
 444:.\Generated_Source\PSoC5/CyLib.c **** 
 445:.\Generated_Source\PSoC5/CyLib.c ****     case CY_IMO_FREQ_48MHZ:
 446:.\Generated_Source\PSoC5/CyLib.c ****         IMO_TR1 = CY_GET_XTND_REG8(FLSHID_MFG_CFG_IMO_TR1_PTR);
 711              		.loc 1 446 0
 712 00c4 44F2A163 		movw	r3, #:lower16:1073759905
 713 00c8 C4F20003 		movt	r3, #:upper16:1073759905
 714 00cc 40F28912 		movw	r2, #:lower16:1224737161
 715 00d0 C4F60012 		movt	r2, #:upper16:1224737161
 716 00d4 1278     		ldrb	r2, [r2, #0]
 717 00d6 D2B2     		uxtb	r2, r2
 718 00d8 1A70     		strb	r2, [r3, #0]
 447:.\Generated_Source\PSoC5/CyLib.c ****         break;
 719              		.loc 1 447 0
 720 00da 2EE0     		b	.L47
 721              	.L42:
 448:.\Generated_Source\PSoC5/CyLib.c **** 
 449:.\Generated_Source\PSoC5/CyLib.c ****     /* The IMO frequencies above 48 MHz are not supported by PSoC5 */
 450:.\Generated_Source\PSoC5/CyLib.c ****     #if(!CY_PSOC5A)
 451:.\Generated_Source\PSoC5/CyLib.c **** 
 452:.\Generated_Source\PSoC5/CyLib.c ****         case CY_IMO_FREQ_62MHZ:
 453:.\Generated_Source\PSoC5/CyLib.c ****             IMO_TR1 = CY_GET_XTND_REG8(FLSHID_CUST_TABLES_IMO_67MHZ_PTR);
 722              		.loc 1 453 0
 723 00dc 44F2A163 		movw	r3, #:lower16:1073759905
 724 00e0 C4F20003 		movt	r3, #:upper16:1073759905
 725 00e4 40F20C12 		movw	r2, #:lower16:1224737036
 726 00e8 C4F60012 		movt	r2, #:upper16:1224737036
 727 00ec 1278     		ldrb	r2, [r2, #0]
 728 00ee D2B2     		uxtb	r2, r2
 729 00f0 1A70     		strb	r2, [r3, #0]
 454:.\Generated_Source\PSoC5/CyLib.c ****             break;
 730              		.loc 1 454 0
 731 00f2 22E0     		b	.L47
 732              	.L43:
 455:.\Generated_Source\PSoC5/CyLib.c **** 
 456:.\Generated_Source\PSoC5/CyLib.c ****     #endif  /* (!CY_PSOC5A) */
 457:.\Generated_Source\PSoC5/CyLib.c **** 
 458:.\Generated_Source\PSoC5/CyLib.c ****     case CY_IMO_FREQ_USB:
 459:.\Generated_Source\PSoC5/CyLib.c ****         IMO_TR1 = CY_GET_XTND_REG8(FLSHID_CUST_TABLES_IMO_USB_PTR);
 733              		.loc 1 459 0
 734 00f4 44F2A163 		movw	r3, #:lower16:1073759905
ARM GAS  C:\Users\karunmj\AppData\Local\Temp\cceFJIz4.s 			page 22


 735 00f8 C4F20003 		movt	r3, #:upper16:1073759905
 736 00fc 40F20F12 		movw	r2, #:lower16:1224737039
 737 0100 C4F60012 		movt	r2, #:upper16:1224737039
 738 0104 1278     		ldrb	r2, [r2, #0]
 739 0106 D2B2     		uxtb	r2, r2
 740 0108 1A70     		strb	r2, [r3, #0]
 460:.\Generated_Source\PSoC5/CyLib.c **** 
 461:.\Generated_Source\PSoC5/CyLib.c ****         /* If USB is powered */
 462:.\Generated_Source\PSoC5/CyLib.c ****         if(usb_power_on == 1u)
 741              		.loc 1 462 0
 742 010a FB7B     		ldrb	r3, [r7, #15]	@ zero_extendqisi2
 743 010c 012B     		cmp	r3, #1
 744 010e 13D1     		bne	.L48
 463:.\Generated_Source\PSoC5/CyLib.c ****         {
 464:.\Generated_Source\PSoC5/CyLib.c ****             /* Lock the USB Oscillator */
 465:.\Generated_Source\PSoC5/CyLib.c ****             CY_USB_CR1 |= CLOCK_USB_ENABLE;
 745              		.loc 1 465 0
 746 0110 46F20903 		movw	r3, #:lower16:1073766409
 747 0114 C4F20003 		movt	r3, #:upper16:1073766409
 748 0118 46F20902 		movw	r2, #:lower16:1073766409
 749 011c C4F20002 		movt	r2, #:upper16:1073766409
 750 0120 1278     		ldrb	r2, [r2, #0]
 751 0122 D2B2     		uxtb	r2, r2
 752 0124 42F00202 		orr	r2, r2, #2
 753 0128 D2B2     		uxtb	r2, r2
 754 012a 1A70     		strb	r2, [r3, #0]
 466:.\Generated_Source\PSoC5/CyLib.c ****         }
 467:.\Generated_Source\PSoC5/CyLib.c ****         break;
 755              		.loc 1 467 0
 756 012c 05E0     		b	.L47
 757              	.L36:
 468:.\Generated_Source\PSoC5/CyLib.c **** 
 469:.\Generated_Source\PSoC5/CyLib.c ****     default:
 470:.\Generated_Source\PSoC5/CyLib.c ****             CYASSERT(0u != 0u);
 758              		.loc 1 470 0
 759 012e 4FF00000 		mov	r0, #0
 760 0132 FFF7FEFF 		bl	CyHalt
 761 0136 00E0     		b	.L47
 762              	.L48:
 763              		.loc 1 467 0
 764 0138 00BF     		nop
 765              	.L47:
 471:.\Generated_Source\PSoC5/CyLib.c ****         break;
 472:.\Generated_Source\PSoC5/CyLib.c ****     }
 473:.\Generated_Source\PSoC5/CyLib.c **** 
 474:.\Generated_Source\PSoC5/CyLib.c **** }
 766              		.loc 1 474 0
 767 013a 07F11007 		add	r7, r7, #16
 768 013e BD46     		mov	sp, r7
 769 0140 80BD     		pop	{r7, pc}
 770              		.cfi_endproc
 771              	.LFE7:
 772              		.size	CyIMO_SetTrimValue, .-CyIMO_SetTrimValue
 773 0142 00BF     		.section	.text.CyIMO_SetFreq,"ax",%progbits
 774              		.align	2
 775              		.global	CyIMO_SetFreq
 776              		.thumb
ARM GAS  C:\Users\karunmj\AppData\Local\Temp\cceFJIz4.s 			page 23


 777              		.thumb_func
 778              		.type	CyIMO_SetFreq, %function
 779              	CyIMO_SetFreq:
 780              	.LFB8:
 475:.\Generated_Source\PSoC5/CyLib.c **** 
 476:.\Generated_Source\PSoC5/CyLib.c **** 
 477:.\Generated_Source\PSoC5/CyLib.c **** /*******************************************************************************
 478:.\Generated_Source\PSoC5/CyLib.c **** * Function Name: CyIMO_SetFreq
 479:.\Generated_Source\PSoC5/CyLib.c **** ********************************************************************************
 480:.\Generated_Source\PSoC5/CyLib.c **** *
 481:.\Generated_Source\PSoC5/CyLib.c **** * Summary:
 482:.\Generated_Source\PSoC5/CyLib.c **** *  Sets the frequency of the IMO. Changes may be made while the IMO is running.
 483:.\Generated_Source\PSoC5/CyLib.c **** *
 484:.\Generated_Source\PSoC5/CyLib.c **** * Parameters:
 485:.\Generated_Source\PSoC5/CyLib.c **** *  freq: Frequency of IMO operation
 486:.\Generated_Source\PSoC5/CyLib.c **** *       CY_IMO_FREQ_3MHZ  to set  3   MHz
 487:.\Generated_Source\PSoC5/CyLib.c **** *       CY_IMO_FREQ_6MHZ  to set  6   MHz
 488:.\Generated_Source\PSoC5/CyLib.c **** *       CY_IMO_FREQ_12MHZ to set 12   MHz
 489:.\Generated_Source\PSoC5/CyLib.c **** *       CY_IMO_FREQ_24MHZ to set 24   MHz
 490:.\Generated_Source\PSoC5/CyLib.c **** *       CY_IMO_FREQ_48MHZ to set 48   MHz
 491:.\Generated_Source\PSoC5/CyLib.c **** *       CY_IMO_FREQ_62MHZ to set 62 MHz (unsupported by PSoC 5)
 492:.\Generated_Source\PSoC5/CyLib.c **** *       CY_IMO_FREQ_USB   to set 24   MHz (Trimmed for USB operation)
 493:.\Generated_Source\PSoC5/CyLib.c **** *
 494:.\Generated_Source\PSoC5/CyLib.c **** * Return:
 495:.\Generated_Source\PSoC5/CyLib.c **** *  None
 496:.\Generated_Source\PSoC5/CyLib.c **** *
 497:.\Generated_Source\PSoC5/CyLib.c **** * Side Effects:
 498:.\Generated_Source\PSoC5/CyLib.c **** *  If as result of this function execution the CPU clock frequency is increased
 499:.\Generated_Source\PSoC5/CyLib.c **** *  then the number of clock cycles the cache will wait before it samples data
 500:.\Generated_Source\PSoC5/CyLib.c **** *  coming back from Flash must be adjusted by calling CyFlash_SetWaitCycles()
 501:.\Generated_Source\PSoC5/CyLib.c **** *  with appropriate parameter. It can be optionally called if CPU clock
 502:.\Generated_Source\PSoC5/CyLib.c **** *  frequency is lowered in order to improve CPU performance.
 503:.\Generated_Source\PSoC5/CyLib.c **** *  See CyFlash_SetWaitCycles() description for more information.
 504:.\Generated_Source\PSoC5/CyLib.c **** *
 505:.\Generated_Source\PSoC5/CyLib.c **** *  When the USB setting is chosen, the USB clock locking circuit is enabled.
 506:.\Generated_Source\PSoC5/CyLib.c **** *  Otherwise this circuit is disabled. The USB block must be powered before
 507:.\Generated_Source\PSoC5/CyLib.c **** *  selecting the USB setting.
 508:.\Generated_Source\PSoC5/CyLib.c **** *
 509:.\Generated_Source\PSoC5/CyLib.c **** *******************************************************************************/
 510:.\Generated_Source\PSoC5/CyLib.c **** void CyIMO_SetFreq(uint8 freq) 
 511:.\Generated_Source\PSoC5/CyLib.c **** {
 781              		.loc 1 511 0
 782              		.cfi_startproc
 783              		@ args = 0, pretend = 0, frame = 16
 784              		@ frame_needed = 1, uses_anonymous_args = 0
 785 0000 80B5     		push	{r7, lr}
 786              	.LCFI22:
 787              		.cfi_def_cfa_offset 8
 788 0002 84B0     		sub	sp, sp, #16
 789              	.LCFI23:
 790              		.cfi_def_cfa_offset 24
 791 0004 00AF     		add	r7, sp, #0
 792              		.cfi_offset 14, -4
 793              		.cfi_offset 7, -8
 794              	.LCFI24:
 795              		.cfi_def_cfa_register 7
 796 0006 0346     		mov	r3, r0
ARM GAS  C:\Users\karunmj\AppData\Local\Temp\cceFJIz4.s 			page 24


 797 0008 FB71     		strb	r3, [r7, #7]
 512:.\Generated_Source\PSoC5/CyLib.c ****     uint8 currentFreq;
 513:.\Generated_Source\PSoC5/CyLib.c ****     uint8 nextFreq;
 514:.\Generated_Source\PSoC5/CyLib.c **** 
 515:.\Generated_Source\PSoC5/CyLib.c ****     /***************************************************************************
 516:.\Generated_Source\PSoC5/CyLib.c ****     * When changing the IMO frequency the Trim values must also be set
 517:.\Generated_Source\PSoC5/CyLib.c ****     * accordingly.This requires reading the current frequency. If the new
 518:.\Generated_Source\PSoC5/CyLib.c ****     * frequency is faster, then set the new trim and then change the frequency,
 519:.\Generated_Source\PSoC5/CyLib.c ****     * otherwise change the frequency and then set the new trim values.
 520:.\Generated_Source\PSoC5/CyLib.c ****     ***************************************************************************/
 521:.\Generated_Source\PSoC5/CyLib.c **** 
 522:.\Generated_Source\PSoC5/CyLib.c ****     currentFreq = CY_LIB_FASTCLK_IMO_CR_REG & ((uint8)(~CY_LIB_FASTCLK_IMO_CR_RANGE_MASK));
 798              		.loc 1 522 0
 799 000a 44F20023 		movw	r3, #:lower16:1073758720
 800 000e C4F20003 		movt	r3, #:upper16:1073758720
 801 0012 1B78     		ldrb	r3, [r3, #0]
 802 0014 DBB2     		uxtb	r3, r3
 803 0016 03F00703 		and	r3, r3, #7
 804 001a BB73     		strb	r3, [r7, #14]
 523:.\Generated_Source\PSoC5/CyLib.c **** 
 524:.\Generated_Source\PSoC5/CyLib.c ****     /* Check if the requested frequency is USB. */
 525:.\Generated_Source\PSoC5/CyLib.c ****     nextFreq = (freq == CY_IMO_FREQ_USB) ? CY_IMO_FREQ_24MHZ : freq;
 805              		.loc 1 525 0
 806 001c FB79     		ldrb	r3, [r7, #7]	@ zero_extendqisi2
 807 001e 082B     		cmp	r3, #8
 808 0020 01D0     		beq	.L50
 809 0022 FB79     		ldrb	r3, [r7, #7]	@ zero_extendqisi2
 810 0024 01E0     		b	.L51
 811              	.L50:
 812 0026 4FF00303 		mov	r3, #3
 813              	.L51:
 814 002a FB73     		strb	r3, [r7, #15]
 526:.\Generated_Source\PSoC5/CyLib.c **** 
 527:.\Generated_Source\PSoC5/CyLib.c ****     switch (currentFreq)
 815              		.loc 1 527 0
 816 002c BB7B     		ldrb	r3, [r7, #14]	@ zero_extendqisi2
 817 002e 052B     		cmp	r3, #5
 818 0030 26D8     		bhi	.L52
 819 0032 01A2     		adr	r2, .L59
 820 0034 52F823F0 		ldr	pc, [r2, r3, lsl #2]
 821              		.align	2
 822              	.L59:
 823 0038 51000000 		.word	.L53+1
 824 003c 59000000 		.word	.L54+1
 825 0040 61000000 		.word	.L55+1
 826 0044 69000000 		.word	.L56+1
 827 0048 71000000 		.word	.L57+1
 828 004c 79000000 		.word	.L58+1
 829              	.L53:
 528:.\Generated_Source\PSoC5/CyLib.c ****     {
 529:.\Generated_Source\PSoC5/CyLib.c ****     case 0u:
 530:.\Generated_Source\PSoC5/CyLib.c ****         currentFreq = CY_IMO_FREQ_12MHZ;
 830              		.loc 1 530 0
 831 0050 4FF00203 		mov	r3, #2
 832 0054 BB73     		strb	r3, [r7, #14]
 531:.\Generated_Source\PSoC5/CyLib.c ****         break;
 833              		.loc 1 531 0
ARM GAS  C:\Users\karunmj\AppData\Local\Temp\cceFJIz4.s 			page 25


 834 0056 17E0     		b	.L60
 835              	.L54:
 532:.\Generated_Source\PSoC5/CyLib.c **** 
 533:.\Generated_Source\PSoC5/CyLib.c ****     case 1u:
 534:.\Generated_Source\PSoC5/CyLib.c ****         currentFreq = CY_IMO_FREQ_6MHZ;
 836              		.loc 1 534 0
 837 0058 4FF00103 		mov	r3, #1
 838 005c BB73     		strb	r3, [r7, #14]
 535:.\Generated_Source\PSoC5/CyLib.c ****         break;
 839              		.loc 1 535 0
 840 005e 13E0     		b	.L60
 841              	.L55:
 536:.\Generated_Source\PSoC5/CyLib.c **** 
 537:.\Generated_Source\PSoC5/CyLib.c ****     case 2u:
 538:.\Generated_Source\PSoC5/CyLib.c ****         currentFreq = CY_IMO_FREQ_24MHZ;
 842              		.loc 1 538 0
 843 0060 4FF00303 		mov	r3, #3
 844 0064 BB73     		strb	r3, [r7, #14]
 539:.\Generated_Source\PSoC5/CyLib.c ****         break;
 845              		.loc 1 539 0
 846 0066 0FE0     		b	.L60
 847              	.L56:
 540:.\Generated_Source\PSoC5/CyLib.c **** 
 541:.\Generated_Source\PSoC5/CyLib.c ****     case 3u:
 542:.\Generated_Source\PSoC5/CyLib.c ****         currentFreq = CY_IMO_FREQ_3MHZ;
 848              		.loc 1 542 0
 849 0068 4FF00003 		mov	r3, #0
 850 006c BB73     		strb	r3, [r7, #14]
 543:.\Generated_Source\PSoC5/CyLib.c ****         break;
 851              		.loc 1 543 0
 852 006e 0BE0     		b	.L60
 853              	.L57:
 544:.\Generated_Source\PSoC5/CyLib.c **** 
 545:.\Generated_Source\PSoC5/CyLib.c ****     case 4u:
 546:.\Generated_Source\PSoC5/CyLib.c ****         currentFreq = CY_IMO_FREQ_48MHZ;
 854              		.loc 1 546 0
 855 0070 4FF00403 		mov	r3, #4
 856 0074 BB73     		strb	r3, [r7, #14]
 547:.\Generated_Source\PSoC5/CyLib.c ****         break;
 857              		.loc 1 547 0
 858 0076 07E0     		b	.L60
 859              	.L58:
 548:.\Generated_Source\PSoC5/CyLib.c **** 
 549:.\Generated_Source\PSoC5/CyLib.c ****     /* The IMO frequencies above 48 MHz are not supported by PSoC5 */
 550:.\Generated_Source\PSoC5/CyLib.c ****     #if(!CY_PSOC5A)
 551:.\Generated_Source\PSoC5/CyLib.c **** 
 552:.\Generated_Source\PSoC5/CyLib.c ****         case 5u:
 553:.\Generated_Source\PSoC5/CyLib.c ****             currentFreq = CY_IMO_FREQ_62MHZ;
 860              		.loc 1 553 0
 861 0078 4FF00503 		mov	r3, #5
 862 007c BB73     		strb	r3, [r7, #14]
 554:.\Generated_Source\PSoC5/CyLib.c ****             break;
 863              		.loc 1 554 0
 864 007e 03E0     		b	.L60
 865              	.L52:
 555:.\Generated_Source\PSoC5/CyLib.c **** 
 556:.\Generated_Source\PSoC5/CyLib.c ****     #endif  /* (!CY_PSOC5A) */
ARM GAS  C:\Users\karunmj\AppData\Local\Temp\cceFJIz4.s 			page 26


 557:.\Generated_Source\PSoC5/CyLib.c **** 
 558:.\Generated_Source\PSoC5/CyLib.c ****     default:
 559:.\Generated_Source\PSoC5/CyLib.c ****         CYASSERT(0u != 0u);
 866              		.loc 1 559 0
 867 0080 4FF00000 		mov	r0, #0
 868 0084 FFF7FEFF 		bl	CyHalt
 869              	.L60:
 560:.\Generated_Source\PSoC5/CyLib.c ****         break;
 561:.\Generated_Source\PSoC5/CyLib.c ****     }
 562:.\Generated_Source\PSoC5/CyLib.c **** 
 563:.\Generated_Source\PSoC5/CyLib.c ****     if (nextFreq >= currentFreq)
 870              		.loc 1 563 0
 871 0088 FA7B     		ldrb	r2, [r7, #15]	@ zero_extendqisi2
 872 008a BB7B     		ldrb	r3, [r7, #14]	@ zero_extendqisi2
 873 008c 9A42     		cmp	r2, r3
 874 008e 03D3     		bcc	.L61
 564:.\Generated_Source\PSoC5/CyLib.c ****     {
 565:.\Generated_Source\PSoC5/CyLib.c ****         /* Set the new trim first */
 566:.\Generated_Source\PSoC5/CyLib.c ****         CyIMO_SetTrimValue(freq);
 875              		.loc 1 566 0
 876 0090 FB79     		ldrb	r3, [r7, #7]	@ zero_extendqisi2
 877 0092 1846     		mov	r0, r3
 878 0094 FFF7FEFF 		bl	CyIMO_SetTrimValue
 879              	.L61:
 567:.\Generated_Source\PSoC5/CyLib.c ****     }
 568:.\Generated_Source\PSoC5/CyLib.c **** 
 569:.\Generated_Source\PSoC5/CyLib.c ****     /* Set the usbclk_on bit when using CY_IMO_FREQ_USB, if not clear it */
 570:.\Generated_Source\PSoC5/CyLib.c ****     switch(freq)
 880              		.loc 1 570 0
 881 0098 FB79     		ldrb	r3, [r7, #7]	@ zero_extendqisi2
 882 009a 082B     		cmp	r3, #8
 883 009c 00F28A80 		bhi	.L62
 884 00a0 01A2     		adr	r2, .L70
 885 00a2 52F823F0 		ldr	pc, [r2, r3, lsl #2]
 886 00a6 00BF     		.align	2
 887              	.L70:
 888 00a8 CD000000 		.word	.L63+1
 889 00ac EF000000 		.word	.L64+1
 890 00b0 11010000 		.word	.L65+1
 891 00b4 2D010000 		.word	.L66+1
 892 00b8 4F010000 		.word	.L67+1
 893 00bc 71010000 		.word	.L68+1
 894 00c0 B5010000 		.word	.L62+1
 895 00c4 B5010000 		.word	.L62+1
 896 00c8 93010000 		.word	.L69+1
 897              	.L63:
 571:.\Generated_Source\PSoC5/CyLib.c ****     {
 572:.\Generated_Source\PSoC5/CyLib.c ****     case CY_IMO_FREQ_3MHZ:
 573:.\Generated_Source\PSoC5/CyLib.c ****         CY_LIB_FASTCLK_IMO_CR_REG = ((CY_LIB_FASTCLK_IMO_CR_REG & CY_LIB_FASTCLK_IMO_CR_RANGE_MASK)
 898              		.loc 1 573 0
 899 00cc 44F20023 		movw	r3, #:lower16:1073758720
 900 00d0 C4F20003 		movt	r3, #:upper16:1073758720
 901 00d4 44F20022 		movw	r2, #:lower16:1073758720
 902 00d8 C4F20002 		movt	r2, #:upper16:1073758720
 903 00dc 1278     		ldrb	r2, [r2, #0]
 904 00de D2B2     		uxtb	r2, r2
 905 00e0 02F0B802 		and	r2, r2, #184
ARM GAS  C:\Users\karunmj\AppData\Local\Temp\cceFJIz4.s 			page 27


 906 00e4 42F00302 		orr	r2, r2, #3
 907 00e8 D2B2     		uxtb	r2, r2
 908 00ea 1A70     		strb	r2, [r3, #0]
 574:.\Generated_Source\PSoC5/CyLib.c ****             CLOCK_IMO_3MHZ_VALUE) & ((uint8)(~FASTCLK_IMO_USBCLK_ON_SET));
 575:.\Generated_Source\PSoC5/CyLib.c ****         break;
 909              		.loc 1 575 0
 910 00ec 66E0     		b	.L71
 911              	.L64:
 576:.\Generated_Source\PSoC5/CyLib.c **** 
 577:.\Generated_Source\PSoC5/CyLib.c ****     case CY_IMO_FREQ_6MHZ:
 578:.\Generated_Source\PSoC5/CyLib.c ****         CY_LIB_FASTCLK_IMO_CR_REG = ((CY_LIB_FASTCLK_IMO_CR_REG & CY_LIB_FASTCLK_IMO_CR_RANGE_MASK)
 912              		.loc 1 578 0
 913 00ee 44F20023 		movw	r3, #:lower16:1073758720
 914 00f2 C4F20003 		movt	r3, #:upper16:1073758720
 915 00f6 44F20022 		movw	r2, #:lower16:1073758720
 916 00fa C4F20002 		movt	r2, #:upper16:1073758720
 917 00fe 1278     		ldrb	r2, [r2, #0]
 918 0100 D2B2     		uxtb	r2, r2
 919 0102 02F0B802 		and	r2, r2, #184
 920 0106 42F00102 		orr	r2, r2, #1
 921 010a D2B2     		uxtb	r2, r2
 922 010c 1A70     		strb	r2, [r3, #0]
 579:.\Generated_Source\PSoC5/CyLib.c ****             CLOCK_IMO_6MHZ_VALUE) & ((uint8)(~FASTCLK_IMO_USBCLK_ON_SET));
 580:.\Generated_Source\PSoC5/CyLib.c ****         break;
 923              		.loc 1 580 0
 924 010e 55E0     		b	.L71
 925              	.L65:
 581:.\Generated_Source\PSoC5/CyLib.c **** 
 582:.\Generated_Source\PSoC5/CyLib.c ****     case CY_IMO_FREQ_12MHZ:
 583:.\Generated_Source\PSoC5/CyLib.c ****         CY_LIB_FASTCLK_IMO_CR_REG = ((CY_LIB_FASTCLK_IMO_CR_REG & CY_LIB_FASTCLK_IMO_CR_RANGE_MASK)
 926              		.loc 1 583 0
 927 0110 44F20023 		movw	r3, #:lower16:1073758720
 928 0114 C4F20003 		movt	r3, #:upper16:1073758720
 929 0118 44F20022 		movw	r2, #:lower16:1073758720
 930 011c C4F20002 		movt	r2, #:upper16:1073758720
 931 0120 1278     		ldrb	r2, [r2, #0]
 932 0122 D2B2     		uxtb	r2, r2
 933 0124 02F0B802 		and	r2, r2, #184
 934 0128 1A70     		strb	r2, [r3, #0]
 584:.\Generated_Source\PSoC5/CyLib.c ****             CLOCK_IMO_12MHZ_VALUE) & ((uint8)(~FASTCLK_IMO_USBCLK_ON_SET));
 585:.\Generated_Source\PSoC5/CyLib.c ****         break;
 935              		.loc 1 585 0
 936 012a 47E0     		b	.L71
 937              	.L66:
 586:.\Generated_Source\PSoC5/CyLib.c **** 
 587:.\Generated_Source\PSoC5/CyLib.c ****     case CY_IMO_FREQ_24MHZ:
 588:.\Generated_Source\PSoC5/CyLib.c ****         CY_LIB_FASTCLK_IMO_CR_REG = ((CY_LIB_FASTCLK_IMO_CR_REG & CY_LIB_FASTCLK_IMO_CR_RANGE_MASK)
 938              		.loc 1 588 0
 939 012c 44F20023 		movw	r3, #:lower16:1073758720
 940 0130 C4F20003 		movt	r3, #:upper16:1073758720
 941 0134 44F20022 		movw	r2, #:lower16:1073758720
 942 0138 C4F20002 		movt	r2, #:upper16:1073758720
 943 013c 1278     		ldrb	r2, [r2, #0]
 944 013e D2B2     		uxtb	r2, r2
 945 0140 02F0B802 		and	r2, r2, #184
 946 0144 42F00202 		orr	r2, r2, #2
 947 0148 D2B2     		uxtb	r2, r2
ARM GAS  C:\Users\karunmj\AppData\Local\Temp\cceFJIz4.s 			page 28


 948 014a 1A70     		strb	r2, [r3, #0]
 589:.\Generated_Source\PSoC5/CyLib.c ****             CLOCK_IMO_24MHZ_VALUE) & ((uint8)(~FASTCLK_IMO_USBCLK_ON_SET));
 590:.\Generated_Source\PSoC5/CyLib.c ****         break;
 949              		.loc 1 590 0
 950 014c 36E0     		b	.L71
 951              	.L67:
 591:.\Generated_Source\PSoC5/CyLib.c **** 
 592:.\Generated_Source\PSoC5/CyLib.c ****     case CY_IMO_FREQ_48MHZ:
 593:.\Generated_Source\PSoC5/CyLib.c ****         CY_LIB_FASTCLK_IMO_CR_REG = ((CY_LIB_FASTCLK_IMO_CR_REG & CY_LIB_FASTCLK_IMO_CR_RANGE_MASK)
 952              		.loc 1 593 0
 953 014e 44F20023 		movw	r3, #:lower16:1073758720
 954 0152 C4F20003 		movt	r3, #:upper16:1073758720
 955 0156 44F20022 		movw	r2, #:lower16:1073758720
 956 015a C4F20002 		movt	r2, #:upper16:1073758720
 957 015e 1278     		ldrb	r2, [r2, #0]
 958 0160 D2B2     		uxtb	r2, r2
 959 0162 02F0B802 		and	r2, r2, #184
 960 0166 42F00402 		orr	r2, r2, #4
 961 016a D2B2     		uxtb	r2, r2
 962 016c 1A70     		strb	r2, [r3, #0]
 594:.\Generated_Source\PSoC5/CyLib.c ****             CLOCK_IMO_48MHZ_VALUE) & ((uint8)(~FASTCLK_IMO_USBCLK_ON_SET));
 595:.\Generated_Source\PSoC5/CyLib.c ****         break;
 963              		.loc 1 595 0
 964 016e 25E0     		b	.L71
 965              	.L68:
 596:.\Generated_Source\PSoC5/CyLib.c **** 
 597:.\Generated_Source\PSoC5/CyLib.c ****     /* The IMO frequencies above 48 MHz are not supported by PSoC5 */
 598:.\Generated_Source\PSoC5/CyLib.c ****     #if(!CY_PSOC5A)
 599:.\Generated_Source\PSoC5/CyLib.c **** 
 600:.\Generated_Source\PSoC5/CyLib.c ****     case CY_IMO_FREQ_62MHZ:
 601:.\Generated_Source\PSoC5/CyLib.c ****         CY_LIB_FASTCLK_IMO_CR_REG = ((CY_LIB_FASTCLK_IMO_CR_REG & CY_LIB_FASTCLK_IMO_CR_RANGE_MASK)
 966              		.loc 1 601 0
 967 0170 44F20023 		movw	r3, #:lower16:1073758720
 968 0174 C4F20003 		movt	r3, #:upper16:1073758720
 969 0178 44F20022 		movw	r2, #:lower16:1073758720
 970 017c C4F20002 		movt	r2, #:upper16:1073758720
 971 0180 1278     		ldrb	r2, [r2, #0]
 972 0182 D2B2     		uxtb	r2, r2
 973 0184 02F0B802 		and	r2, r2, #184
 974 0188 42F00502 		orr	r2, r2, #5
 975 018c D2B2     		uxtb	r2, r2
 976 018e 1A70     		strb	r2, [r3, #0]
 602:.\Generated_Source\PSoC5/CyLib.c ****             CLOCK_IMO_62MHZ_VALUE) & ((uint8)(~FASTCLK_IMO_USBCLK_ON_SET));
 603:.\Generated_Source\PSoC5/CyLib.c ****         break;
 977              		.loc 1 603 0
 978 0190 14E0     		b	.L71
 979              	.L69:
 604:.\Generated_Source\PSoC5/CyLib.c **** 
 605:.\Generated_Source\PSoC5/CyLib.c ****     #endif  /* (!CY_PSOC5A) */
 606:.\Generated_Source\PSoC5/CyLib.c **** 
 607:.\Generated_Source\PSoC5/CyLib.c ****     case CY_IMO_FREQ_USB:
 608:.\Generated_Source\PSoC5/CyLib.c ****         CY_LIB_FASTCLK_IMO_CR_REG = ((CY_LIB_FASTCLK_IMO_CR_REG & CY_LIB_FASTCLK_IMO_CR_RANGE_MASK)
 980              		.loc 1 608 0
 981 0192 44F20023 		movw	r3, #:lower16:1073758720
 982 0196 C4F20003 		movt	r3, #:upper16:1073758720
 983 019a 44F20022 		movw	r2, #:lower16:1073758720
 984 019e C4F20002 		movt	r2, #:upper16:1073758720
ARM GAS  C:\Users\karunmj\AppData\Local\Temp\cceFJIz4.s 			page 29


 985 01a2 1278     		ldrb	r2, [r2, #0]
 986 01a4 D2B2     		uxtb	r2, r2
 987 01a6 02F0B802 		and	r2, r2, #184
 988 01aa 42F04202 		orr	r2, r2, #66
 989 01ae D2B2     		uxtb	r2, r2
 990 01b0 1A70     		strb	r2, [r3, #0]
 609:.\Generated_Source\PSoC5/CyLib.c ****             CLOCK_IMO_24MHZ_VALUE) | FASTCLK_IMO_USBCLK_ON_SET;
 610:.\Generated_Source\PSoC5/CyLib.c ****         break;
 991              		.loc 1 610 0
 992 01b2 03E0     		b	.L71
 993              	.L62:
 611:.\Generated_Source\PSoC5/CyLib.c **** 
 612:.\Generated_Source\PSoC5/CyLib.c ****     default:
 613:.\Generated_Source\PSoC5/CyLib.c ****         CYASSERT(0u != 0u);
 994              		.loc 1 613 0
 995 01b4 4FF00000 		mov	r0, #0
 996 01b8 FFF7FEFF 		bl	CyHalt
 997              	.L71:
 614:.\Generated_Source\PSoC5/CyLib.c ****         break;
 615:.\Generated_Source\PSoC5/CyLib.c ****     }
 616:.\Generated_Source\PSoC5/CyLib.c **** 
 617:.\Generated_Source\PSoC5/CyLib.c ****     /* Turn on the IMO Doubler, if switching to CY_IMO_FREQ_USB */
 618:.\Generated_Source\PSoC5/CyLib.c ****     if (freq == CY_IMO_FREQ_USB)
 998              		.loc 1 618 0
 999 01bc FB79     		ldrb	r3, [r7, #7]	@ zero_extendqisi2
 1000 01be 082B     		cmp	r3, #8
 1001 01c0 02D1     		bne	.L72
 619:.\Generated_Source\PSoC5/CyLib.c ****     {
 620:.\Generated_Source\PSoC5/CyLib.c ****         CyIMO_EnableDoubler();
 1002              		.loc 1 620 0
 1003 01c2 FFF7FEFF 		bl	CyIMO_EnableDoubler
 1004 01c6 01E0     		b	.L73
 1005              	.L72:
 621:.\Generated_Source\PSoC5/CyLib.c ****     }
 622:.\Generated_Source\PSoC5/CyLib.c ****     else
 623:.\Generated_Source\PSoC5/CyLib.c ****     {
 624:.\Generated_Source\PSoC5/CyLib.c ****         CyIMO_DisableDoubler();
 1006              		.loc 1 624 0
 1007 01c8 FFF7FEFF 		bl	CyIMO_DisableDoubler
 1008              	.L73:
 625:.\Generated_Source\PSoC5/CyLib.c ****     }
 626:.\Generated_Source\PSoC5/CyLib.c **** 
 627:.\Generated_Source\PSoC5/CyLib.c ****     if (nextFreq < currentFreq)
 1009              		.loc 1 627 0
 1010 01cc FA7B     		ldrb	r2, [r7, #15]	@ zero_extendqisi2
 1011 01ce BB7B     		ldrb	r3, [r7, #14]	@ zero_extendqisi2
 1012 01d0 9A42     		cmp	r2, r3
 1013 01d2 03D2     		bcs	.L75
 628:.\Generated_Source\PSoC5/CyLib.c ****     {
 629:.\Generated_Source\PSoC5/CyLib.c ****         /* Set the new trim after setting the frequency */
 630:.\Generated_Source\PSoC5/CyLib.c ****         CyIMO_SetTrimValue(freq);
 1014              		.loc 1 630 0
 1015 01d4 FB79     		ldrb	r3, [r7, #7]	@ zero_extendqisi2
 1016 01d6 1846     		mov	r0, r3
 1017 01d8 FFF7FEFF 		bl	CyIMO_SetTrimValue
 1018              	.L75:
 631:.\Generated_Source\PSoC5/CyLib.c ****     }
ARM GAS  C:\Users\karunmj\AppData\Local\Temp\cceFJIz4.s 			page 30


 632:.\Generated_Source\PSoC5/CyLib.c **** }
 1019              		.loc 1 632 0
 1020 01dc 07F11007 		add	r7, r7, #16
 1021 01e0 BD46     		mov	sp, r7
 1022 01e2 80BD     		pop	{r7, pc}
 1023              		.cfi_endproc
 1024              	.LFE8:
 1025              		.size	CyIMO_SetFreq, .-CyIMO_SetFreq
 1026              		.section	.text.CyIMO_SetSource,"ax",%progbits
 1027              		.align	2
 1028              		.global	CyIMO_SetSource
 1029              		.thumb
 1030              		.thumb_func
 1031              		.type	CyIMO_SetSource, %function
 1032              	CyIMO_SetSource:
 1033              	.LFB9:
 633:.\Generated_Source\PSoC5/CyLib.c **** 
 634:.\Generated_Source\PSoC5/CyLib.c **** 
 635:.\Generated_Source\PSoC5/CyLib.c **** /*******************************************************************************
 636:.\Generated_Source\PSoC5/CyLib.c **** * Function Name: CyIMO_SetSource
 637:.\Generated_Source\PSoC5/CyLib.c **** ********************************************************************************
 638:.\Generated_Source\PSoC5/CyLib.c **** *
 639:.\Generated_Source\PSoC5/CyLib.c **** * Summary:
 640:.\Generated_Source\PSoC5/CyLib.c **** *  Sets the source of the clock output from the IMO block.
 641:.\Generated_Source\PSoC5/CyLib.c **** *
 642:.\Generated_Source\PSoC5/CyLib.c **** *  The output from the IMO is by default the IMO itself. Optionally the MHz
 643:.\Generated_Source\PSoC5/CyLib.c **** *  Crystal or a DSI input can be the source of the IMO output instead.
 644:.\Generated_Source\PSoC5/CyLib.c **** *
 645:.\Generated_Source\PSoC5/CyLib.c **** * Parameters:
 646:.\Generated_Source\PSoC5/CyLib.c **** *   source, CY_IMO_SOURCE_DSI to set the DSI as source.
 647:.\Generated_Source\PSoC5/CyLib.c **** *           CY_IMO_SOURCE_XTAL to set the MHz as source.
 648:.\Generated_Source\PSoC5/CyLib.c **** *           CY_IMO_SOURCE_IMO to set the IMO itself.
 649:.\Generated_Source\PSoC5/CyLib.c **** *
 650:.\Generated_Source\PSoC5/CyLib.c **** * Return:
 651:.\Generated_Source\PSoC5/CyLib.c **** *  None
 652:.\Generated_Source\PSoC5/CyLib.c **** *
 653:.\Generated_Source\PSoC5/CyLib.c **** * Side Effects:
 654:.\Generated_Source\PSoC5/CyLib.c **** *  If as result of this function execution the CPU clock frequency is increased
 655:.\Generated_Source\PSoC5/CyLib.c **** *  then the number of clock cycles the cache will wait before it samples data
 656:.\Generated_Source\PSoC5/CyLib.c **** *  coming back from Flash must be adjusted by calling CyFlash_SetWaitCycles()
 657:.\Generated_Source\PSoC5/CyLib.c **** *  with appropriate parameter. It can be optionally called if CPU clock
 658:.\Generated_Source\PSoC5/CyLib.c **** *  frequency is lowered in order to improve CPU performance.
 659:.\Generated_Source\PSoC5/CyLib.c **** *  See CyFlash_SetWaitCycles() description for more information.
 660:.\Generated_Source\PSoC5/CyLib.c **** *
 661:.\Generated_Source\PSoC5/CyLib.c **** *******************************************************************************/
 662:.\Generated_Source\PSoC5/CyLib.c **** void CyIMO_SetSource(uint8 source) 
 663:.\Generated_Source\PSoC5/CyLib.c **** {
 1034              		.loc 1 663 0
 1035              		.cfi_startproc
 1036              		@ args = 0, pretend = 0, frame = 8
 1037              		@ frame_needed = 1, uses_anonymous_args = 0
 1038 0000 80B5     		push	{r7, lr}
 1039              	.LCFI25:
 1040              		.cfi_def_cfa_offset 8
 1041 0002 82B0     		sub	sp, sp, #8
 1042              	.LCFI26:
 1043              		.cfi_def_cfa_offset 16
ARM GAS  C:\Users\karunmj\AppData\Local\Temp\cceFJIz4.s 			page 31


 1044 0004 00AF     		add	r7, sp, #0
 1045              		.cfi_offset 14, -4
 1046              		.cfi_offset 7, -8
 1047              	.LCFI27:
 1048              		.cfi_def_cfa_register 7
 1049 0006 0346     		mov	r3, r0
 1050 0008 FB71     		strb	r3, [r7, #7]
 664:.\Generated_Source\PSoC5/CyLib.c ****     switch(source)
 1051              		.loc 1 664 0
 1052 000a FB79     		ldrb	r3, [r7, #7]	@ zero_extendqisi2
 1053 000c 012B     		cmp	r3, #1
 1054 000e 20D0     		beq	.L79
 1055 0010 022B     		cmp	r3, #2
 1056 0012 02D0     		beq	.L80
 1057 0014 002B     		cmp	r3, #0
 1058 0016 39D0     		beq	.L78
 1059 0018 46E0     		b	.L83
 1060              	.L80:
 665:.\Generated_Source\PSoC5/CyLib.c ****     {
 666:.\Generated_Source\PSoC5/CyLib.c ****     case CY_IMO_SOURCE_DSI:
 667:.\Generated_Source\PSoC5/CyLib.c ****         CY_LIB_CLKDIST_CR_REG     &= ((uint8)(~CY_LIB_CLKDIST_CR_IMO2X));
 1061              		.loc 1 667 0
 1062 001a 44F20003 		movw	r3, #:lower16:1073758208
 1063 001e C4F20003 		movt	r3, #:upper16:1073758208
 1064 0022 44F20002 		movw	r2, #:lower16:1073758208
 1065 0026 C4F20002 		movt	r2, #:upper16:1073758208
 1066 002a 1278     		ldrb	r2, [r2, #0]
 1067 002c D2B2     		uxtb	r2, r2
 1068 002e 02F0BF02 		and	r2, r2, #191
 1069 0032 1A70     		strb	r2, [r3, #0]
 668:.\Generated_Source\PSoC5/CyLib.c ****         CY_LIB_FASTCLK_IMO_CR_REG |= CY_LIB_FASTCLK_IMO_IMO;
 1070              		.loc 1 668 0
 1071 0034 44F20023 		movw	r3, #:lower16:1073758720
 1072 0038 C4F20003 		movt	r3, #:upper16:1073758720
 1073 003c 44F20022 		movw	r2, #:lower16:1073758720
 1074 0040 C4F20002 		movt	r2, #:upper16:1073758720
 1075 0044 1278     		ldrb	r2, [r2, #0]
 1076 0046 D2B2     		uxtb	r2, r2
 1077 0048 42F02002 		orr	r2, r2, #32
 1078 004c D2B2     		uxtb	r2, r2
 1079 004e 1A70     		strb	r2, [r3, #0]
 669:.\Generated_Source\PSoC5/CyLib.c ****         break;
 1080              		.loc 1 669 0
 1081 0050 2EE0     		b	.L82
 1082              	.L79:
 670:.\Generated_Source\PSoC5/CyLib.c **** 
 671:.\Generated_Source\PSoC5/CyLib.c ****     case CY_IMO_SOURCE_XTAL:
 672:.\Generated_Source\PSoC5/CyLib.c ****         CY_LIB_CLKDIST_CR_REG     |= CY_LIB_CLKDIST_CR_IMO2X;
 1083              		.loc 1 672 0
 1084 0052 44F20003 		movw	r3, #:lower16:1073758208
 1085 0056 C4F20003 		movt	r3, #:upper16:1073758208
 1086 005a 44F20002 		movw	r2, #:lower16:1073758208
 1087 005e C4F20002 		movt	r2, #:upper16:1073758208
 1088 0062 1278     		ldrb	r2, [r2, #0]
 1089 0064 D2B2     		uxtb	r2, r2
 1090 0066 42F04002 		orr	r2, r2, #64
 1091 006a D2B2     		uxtb	r2, r2
ARM GAS  C:\Users\karunmj\AppData\Local\Temp\cceFJIz4.s 			page 32


 1092 006c 1A70     		strb	r2, [r3, #0]
 673:.\Generated_Source\PSoC5/CyLib.c ****         CY_LIB_FASTCLK_IMO_CR_REG |= CY_LIB_FASTCLK_IMO_IMO;
 1093              		.loc 1 673 0
 1094 006e 44F20023 		movw	r3, #:lower16:1073758720
 1095 0072 C4F20003 		movt	r3, #:upper16:1073758720
 1096 0076 44F20022 		movw	r2, #:lower16:1073758720
 1097 007a C4F20002 		movt	r2, #:upper16:1073758720
 1098 007e 1278     		ldrb	r2, [r2, #0]
 1099 0080 D2B2     		uxtb	r2, r2
 1100 0082 42F02002 		orr	r2, r2, #32
 1101 0086 D2B2     		uxtb	r2, r2
 1102 0088 1A70     		strb	r2, [r3, #0]
 674:.\Generated_Source\PSoC5/CyLib.c ****         break;
 1103              		.loc 1 674 0
 1104 008a 11E0     		b	.L82
 1105              	.L78:
 675:.\Generated_Source\PSoC5/CyLib.c **** 
 676:.\Generated_Source\PSoC5/CyLib.c ****     case CY_IMO_SOURCE_IMO:
 677:.\Generated_Source\PSoC5/CyLib.c ****         CY_LIB_FASTCLK_IMO_CR_REG &= ((uint8)(~CY_LIB_FASTCLK_IMO_IMO));
 1106              		.loc 1 677 0
 1107 008c 44F20023 		movw	r3, #:lower16:1073758720
 1108 0090 C4F20003 		movt	r3, #:upper16:1073758720
 1109 0094 44F20022 		movw	r2, #:lower16:1073758720
 1110 0098 C4F20002 		movt	r2, #:upper16:1073758720
 1111 009c 1278     		ldrb	r2, [r2, #0]
 1112 009e D2B2     		uxtb	r2, r2
 1113 00a0 02F0DF02 		and	r2, r2, #223
 1114 00a4 1A70     		strb	r2, [r3, #0]
 678:.\Generated_Source\PSoC5/CyLib.c ****         break;
 1115              		.loc 1 678 0
 1116 00a6 03E0     		b	.L82
 1117              	.L83:
 679:.\Generated_Source\PSoC5/CyLib.c **** 
 680:.\Generated_Source\PSoC5/CyLib.c ****     default:
 681:.\Generated_Source\PSoC5/CyLib.c ****         /* Incorrect source value */
 682:.\Generated_Source\PSoC5/CyLib.c ****         CYASSERT(0u != 0u);
 1118              		.loc 1 682 0
 1119 00a8 4FF00000 		mov	r0, #0
 1120 00ac FFF7FEFF 		bl	CyHalt
 1121              	.L82:
 683:.\Generated_Source\PSoC5/CyLib.c ****         break;
 684:.\Generated_Source\PSoC5/CyLib.c ****     }
 685:.\Generated_Source\PSoC5/CyLib.c **** }
 1122              		.loc 1 685 0
 1123 00b0 07F10807 		add	r7, r7, #8
 1124 00b4 BD46     		mov	sp, r7
 1125 00b6 80BD     		pop	{r7, pc}
 1126              		.cfi_endproc
 1127              	.LFE9:
 1128              		.size	CyIMO_SetSource, .-CyIMO_SetSource
 1129              		.section	.text.CyIMO_EnableDoubler,"ax",%progbits
 1130              		.align	2
 1131              		.global	CyIMO_EnableDoubler
 1132              		.thumb
 1133              		.thumb_func
 1134              		.type	CyIMO_EnableDoubler, %function
 1135              	CyIMO_EnableDoubler:
ARM GAS  C:\Users\karunmj\AppData\Local\Temp\cceFJIz4.s 			page 33


 1136              	.LFB10:
 686:.\Generated_Source\PSoC5/CyLib.c **** 
 687:.\Generated_Source\PSoC5/CyLib.c **** 
 688:.\Generated_Source\PSoC5/CyLib.c **** /*******************************************************************************
 689:.\Generated_Source\PSoC5/CyLib.c **** * Function Name: CyIMO_EnableDoubler
 690:.\Generated_Source\PSoC5/CyLib.c **** ********************************************************************************
 691:.\Generated_Source\PSoC5/CyLib.c **** *
 692:.\Generated_Source\PSoC5/CyLib.c **** * Summary:
 693:.\Generated_Source\PSoC5/CyLib.c **** *  Enables the IMO doubler.  The 2x frequency clock is used to convert a 24 MHz
 694:.\Generated_Source\PSoC5/CyLib.c **** *  input to a 48 MHz output for use by the USB block.
 695:.\Generated_Source\PSoC5/CyLib.c **** *
 696:.\Generated_Source\PSoC5/CyLib.c **** * Parameters:
 697:.\Generated_Source\PSoC5/CyLib.c **** *  None
 698:.\Generated_Source\PSoC5/CyLib.c **** *
 699:.\Generated_Source\PSoC5/CyLib.c **** * Return:
 700:.\Generated_Source\PSoC5/CyLib.c **** *  None
 701:.\Generated_Source\PSoC5/CyLib.c **** *
 702:.\Generated_Source\PSoC5/CyLib.c **** *******************************************************************************/
 703:.\Generated_Source\PSoC5/CyLib.c **** void CyIMO_EnableDoubler(void) 
 704:.\Generated_Source\PSoC5/CyLib.c **** {
 1137              		.loc 1 704 0
 1138              		.cfi_startproc
 1139              		@ args = 0, pretend = 0, frame = 0
 1140              		@ frame_needed = 1, uses_anonymous_args = 0
 1141              		@ link register save eliminated.
 1142 0000 80B4     		push	{r7}
 1143              	.LCFI28:
 1144              		.cfi_def_cfa_offset 4
 1145 0002 00AF     		add	r7, sp, #0
 1146              		.cfi_offset 7, -4
 1147              	.LCFI29:
 1148              		.cfi_def_cfa_register 7
 705:.\Generated_Source\PSoC5/CyLib.c ****     /* Set the FASTCLK_IMO_CR_PTR regigster's 4th bit */
 706:.\Generated_Source\PSoC5/CyLib.c ****     CY_LIB_FASTCLK_IMO_CR_REG |= CY_LIB_FASTCLK_IMO_DOUBLER;
 1149              		.loc 1 706 0
 1150 0004 44F20023 		movw	r3, #:lower16:1073758720
 1151 0008 C4F20003 		movt	r3, #:upper16:1073758720
 1152 000c 44F20022 		movw	r2, #:lower16:1073758720
 1153 0010 C4F20002 		movt	r2, #:upper16:1073758720
 1154 0014 1278     		ldrb	r2, [r2, #0]
 1155 0016 D2B2     		uxtb	r2, r2
 1156 0018 42F01002 		orr	r2, r2, #16
 1157 001c D2B2     		uxtb	r2, r2
 1158 001e 1A70     		strb	r2, [r3, #0]
 707:.\Generated_Source\PSoC5/CyLib.c **** }
 1159              		.loc 1 707 0
 1160 0020 BD46     		mov	sp, r7
 1161 0022 80BC     		pop	{r7}
 1162 0024 7047     		bx	lr
 1163              		.cfi_endproc
 1164              	.LFE10:
 1165              		.size	CyIMO_EnableDoubler, .-CyIMO_EnableDoubler
 1166 0026 00BF     		.section	.text.CyIMO_DisableDoubler,"ax",%progbits
 1167              		.align	2
 1168              		.global	CyIMO_DisableDoubler
 1169              		.thumb
 1170              		.thumb_func
ARM GAS  C:\Users\karunmj\AppData\Local\Temp\cceFJIz4.s 			page 34


 1171              		.type	CyIMO_DisableDoubler, %function
 1172              	CyIMO_DisableDoubler:
 1173              	.LFB11:
 708:.\Generated_Source\PSoC5/CyLib.c **** 
 709:.\Generated_Source\PSoC5/CyLib.c **** 
 710:.\Generated_Source\PSoC5/CyLib.c **** /*******************************************************************************
 711:.\Generated_Source\PSoC5/CyLib.c **** * Function Name: CyIMO_DisableDoubler
 712:.\Generated_Source\PSoC5/CyLib.c **** ********************************************************************************
 713:.\Generated_Source\PSoC5/CyLib.c **** *
 714:.\Generated_Source\PSoC5/CyLib.c **** * Summary:
 715:.\Generated_Source\PSoC5/CyLib.c **** *   Disables the IMO doubler.
 716:.\Generated_Source\PSoC5/CyLib.c **** *
 717:.\Generated_Source\PSoC5/CyLib.c **** * Parameters:
 718:.\Generated_Source\PSoC5/CyLib.c **** *  None
 719:.\Generated_Source\PSoC5/CyLib.c **** *
 720:.\Generated_Source\PSoC5/CyLib.c **** * Return:
 721:.\Generated_Source\PSoC5/CyLib.c **** *  None
 722:.\Generated_Source\PSoC5/CyLib.c **** *
 723:.\Generated_Source\PSoC5/CyLib.c **** *******************************************************************************/
 724:.\Generated_Source\PSoC5/CyLib.c **** void CyIMO_DisableDoubler(void) 
 725:.\Generated_Source\PSoC5/CyLib.c **** {
 1174              		.loc 1 725 0
 1175              		.cfi_startproc
 1176              		@ args = 0, pretend = 0, frame = 0
 1177              		@ frame_needed = 1, uses_anonymous_args = 0
 1178              		@ link register save eliminated.
 1179 0000 80B4     		push	{r7}
 1180              	.LCFI30:
 1181              		.cfi_def_cfa_offset 4
 1182 0002 00AF     		add	r7, sp, #0
 1183              		.cfi_offset 7, -4
 1184              	.LCFI31:
 1185              		.cfi_def_cfa_register 7
 726:.\Generated_Source\PSoC5/CyLib.c ****     CY_LIB_FASTCLK_IMO_CR_REG &= ((uint8)(~CY_LIB_FASTCLK_IMO_DOUBLER));
 1186              		.loc 1 726 0
 1187 0004 44F20023 		movw	r3, #:lower16:1073758720
 1188 0008 C4F20003 		movt	r3, #:upper16:1073758720
 1189 000c 44F20022 		movw	r2, #:lower16:1073758720
 1190 0010 C4F20002 		movt	r2, #:upper16:1073758720
 1191 0014 1278     		ldrb	r2, [r2, #0]
 1192 0016 D2B2     		uxtb	r2, r2
 1193 0018 02F0EF02 		and	r2, r2, #239
 1194 001c 1A70     		strb	r2, [r3, #0]
 727:.\Generated_Source\PSoC5/CyLib.c **** }
 1195              		.loc 1 727 0
 1196 001e BD46     		mov	sp, r7
 1197 0020 80BC     		pop	{r7}
 1198 0022 7047     		bx	lr
 1199              		.cfi_endproc
 1200              	.LFE11:
 1201              		.size	CyIMO_DisableDoubler, .-CyIMO_DisableDoubler
 1202              		.section	.text.CyMasterClk_SetSource,"ax",%progbits
 1203              		.align	2
 1204              		.global	CyMasterClk_SetSource
 1205              		.thumb
 1206              		.thumb_func
 1207              		.type	CyMasterClk_SetSource, %function
ARM GAS  C:\Users\karunmj\AppData\Local\Temp\cceFJIz4.s 			page 35


 1208              	CyMasterClk_SetSource:
 1209              	.LFB12:
 728:.\Generated_Source\PSoC5/CyLib.c **** 
 729:.\Generated_Source\PSoC5/CyLib.c **** 
 730:.\Generated_Source\PSoC5/CyLib.c **** /*******************************************************************************
 731:.\Generated_Source\PSoC5/CyLib.c **** * Function Name: CyMasterClk_SetSource
 732:.\Generated_Source\PSoC5/CyLib.c **** ********************************************************************************
 733:.\Generated_Source\PSoC5/CyLib.c **** *
 734:.\Generated_Source\PSoC5/CyLib.c **** * Summary:
 735:.\Generated_Source\PSoC5/CyLib.c **** *  Sets the source of the master clock.
 736:.\Generated_Source\PSoC5/CyLib.c **** *
 737:.\Generated_Source\PSoC5/CyLib.c **** * Parameters:
 738:.\Generated_Source\PSoC5/CyLib.c **** *   source: One of the four available Master clock sources.
 739:.\Generated_Source\PSoC5/CyLib.c **** *     CY_MASTER_SOURCE_IMO
 740:.\Generated_Source\PSoC5/CyLib.c **** *     CY_MASTER_SOURCE_PLL
 741:.\Generated_Source\PSoC5/CyLib.c **** *     CY_MASTER_SOURCE_XTAL
 742:.\Generated_Source\PSoC5/CyLib.c **** *     CY_MASTER_SOURCE_DSI
 743:.\Generated_Source\PSoC5/CyLib.c **** *
 744:.\Generated_Source\PSoC5/CyLib.c **** * Return:
 745:.\Generated_Source\PSoC5/CyLib.c **** *  None
 746:.\Generated_Source\PSoC5/CyLib.c **** *
 747:.\Generated_Source\PSoC5/CyLib.c **** * Side Effects:
 748:.\Generated_Source\PSoC5/CyLib.c **** *  The current source and the new source must both be running and stable before
 749:.\Generated_Source\PSoC5/CyLib.c **** *  calling this function.
 750:.\Generated_Source\PSoC5/CyLib.c **** *
 751:.\Generated_Source\PSoC5/CyLib.c **** *  If as result of this function execution the CPU clock frequency is increased
 752:.\Generated_Source\PSoC5/CyLib.c **** *  then the number of clock cycles the cache will wait before it samples data
 753:.\Generated_Source\PSoC5/CyLib.c **** *  coming back from Flash must be adjusted by calling CyFlash_SetWaitCycles()
 754:.\Generated_Source\PSoC5/CyLib.c **** *  with appropriate parameter. It can be optionally called if CPU clock
 755:.\Generated_Source\PSoC5/CyLib.c **** *  frequency is lowered in order to improve CPU performance.
 756:.\Generated_Source\PSoC5/CyLib.c **** *  See CyFlash_SetWaitCycles() description for more information.
 757:.\Generated_Source\PSoC5/CyLib.c **** *
 758:.\Generated_Source\PSoC5/CyLib.c **** *******************************************************************************/
 759:.\Generated_Source\PSoC5/CyLib.c **** void CyMasterClk_SetSource(uint8 source) 
 760:.\Generated_Source\PSoC5/CyLib.c **** {
 1210              		.loc 1 760 0
 1211              		.cfi_startproc
 1212              		@ args = 0, pretend = 0, frame = 8
 1213              		@ frame_needed = 1, uses_anonymous_args = 0
 1214              		@ link register save eliminated.
 1215 0000 80B4     		push	{r7}
 1216              	.LCFI32:
 1217              		.cfi_def_cfa_offset 4
 1218 0002 83B0     		sub	sp, sp, #12
 1219              	.LCFI33:
 1220              		.cfi_def_cfa_offset 16
 1221 0004 00AF     		add	r7, sp, #0
 1222              		.cfi_offset 7, -4
 1223              	.LCFI34:
 1224              		.cfi_def_cfa_register 7
 1225 0006 0346     		mov	r3, r0
 1226 0008 FB71     		strb	r3, [r7, #7]
 761:.\Generated_Source\PSoC5/CyLib.c ****     #if(CY_PSOC5A)
 762:.\Generated_Source\PSoC5/CyLib.c **** 
 763:.\Generated_Source\PSoC5/CyLib.c ****         uint8 masterReg0;
 764:.\Generated_Source\PSoC5/CyLib.c **** 
 765:.\Generated_Source\PSoC5/CyLib.c ****         /* Read the current setting */
ARM GAS  C:\Users\karunmj\AppData\Local\Temp\cceFJIz4.s 			page 36


 766:.\Generated_Source\PSoC5/CyLib.c ****         masterReg0 = CY_LIB_CLKDIST_MSTR0_REG;
 767:.\Generated_Source\PSoC5/CyLib.c **** 
 768:.\Generated_Source\PSoC5/CyLib.c ****         /* Write a non-zero period to the master mux clock divider */
 769:.\Generated_Source\PSoC5/CyLib.c ****         if (masterReg0 == 0x00u)
 770:.\Generated_Source\PSoC5/CyLib.c ****         {
 771:.\Generated_Source\PSoC5/CyLib.c ****             CY_LIB_CLKDIST_MSTR0_REG = 3u;
 772:.\Generated_Source\PSoC5/CyLib.c ****         }
 773:.\Generated_Source\PSoC5/CyLib.c **** 
 774:.\Generated_Source\PSoC5/CyLib.c ****     #endif  /* (CY_PSOC5A) */
 775:.\Generated_Source\PSoC5/CyLib.c **** 
 776:.\Generated_Source\PSoC5/CyLib.c ****     CY_LIB_CLKDIST_MSTR1_REG = (CY_LIB_CLKDIST_MSTR1_REG & MASTER_CLK_SRC_CLEAR) |
 1227              		.loc 1 776 0
 1228 000a 44F20503 		movw	r3, #:lower16:1073758213
 1229 000e C4F20003 		movt	r3, #:upper16:1073758213
 1230 0012 44F20502 		movw	r2, #:lower16:1073758213
 1231 0016 C4F20002 		movt	r2, #:upper16:1073758213
 1232 001a 1278     		ldrb	r2, [r2, #0]
 1233 001c D2B2     		uxtb	r2, r2
 1234 001e 1146     		mov	r1, r2
 1235 0020 01F0FC01 		and	r1, r1, #252
 1236 0024 FA79     		ldrb	r2, [r7, #7]	@ zero_extendqisi2
 1237 0026 02F00302 		and	r2, r2, #3
 1238 002a 41EA0202 		orr	r2, r1, r2
 1239 002e D2B2     		uxtb	r2, r2
 1240 0030 1A70     		strb	r2, [r3, #0]
 777:.\Generated_Source\PSoC5/CyLib.c ****                                 (source & ((uint8)(~MASTER_CLK_SRC_CLEAR)));
 778:.\Generated_Source\PSoC5/CyLib.c **** 
 779:.\Generated_Source\PSoC5/CyLib.c ****     #if(CY_PSOC5A)
 780:.\Generated_Source\PSoC5/CyLib.c **** 
 781:.\Generated_Source\PSoC5/CyLib.c ****         /* Restore zero period (if desired) to the master mux clock divider */
 782:.\Generated_Source\PSoC5/CyLib.c ****         if (masterReg0 == 0x00u)
 783:.\Generated_Source\PSoC5/CyLib.c ****         {
 784:.\Generated_Source\PSoC5/CyLib.c ****             CY_LIB_CLKDIST_MSTR0_REG = 0u;
 785:.\Generated_Source\PSoC5/CyLib.c ****         }
 786:.\Generated_Source\PSoC5/CyLib.c **** 
 787:.\Generated_Source\PSoC5/CyLib.c ****     #endif  /* (CY_PSOC5A) */
 788:.\Generated_Source\PSoC5/CyLib.c **** }
 1241              		.loc 1 788 0
 1242 0032 07F10C07 		add	r7, r7, #12
 1243 0036 BD46     		mov	sp, r7
 1244 0038 80BC     		pop	{r7}
 1245 003a 7047     		bx	lr
 1246              		.cfi_endproc
 1247              	.LFE12:
 1248              		.size	CyMasterClk_SetSource, .-CyMasterClk_SetSource
 1249              		.section	.text.CyMasterClk_SetDivider,"ax",%progbits
 1250              		.align	2
 1251              		.global	CyMasterClk_SetDivider
 1252              		.thumb
 1253              		.thumb_func
 1254              		.type	CyMasterClk_SetDivider, %function
 1255              	CyMasterClk_SetDivider:
 1256              	.LFB13:
 789:.\Generated_Source\PSoC5/CyLib.c **** 
 790:.\Generated_Source\PSoC5/CyLib.c **** 
 791:.\Generated_Source\PSoC5/CyLib.c **** /*******************************************************************************
 792:.\Generated_Source\PSoC5/CyLib.c **** * Function Name: CyMasterClk_SetDivider
ARM GAS  C:\Users\karunmj\AppData\Local\Temp\cceFJIz4.s 			page 37


 793:.\Generated_Source\PSoC5/CyLib.c **** ********************************************************************************
 794:.\Generated_Source\PSoC5/CyLib.c **** *
 795:.\Generated_Source\PSoC5/CyLib.c **** * Summary:
 796:.\Generated_Source\PSoC5/CyLib.c **** *  Sets the divider value used to generate Master Clock.
 797:.\Generated_Source\PSoC5/CyLib.c **** *
 798:.\Generated_Source\PSoC5/CyLib.c **** * Parameters:
 799:.\Generated_Source\PSoC5/CyLib.c **** *  uint8 divider:
 800:.\Generated_Source\PSoC5/CyLib.c **** *   Valid range [0-255]. The clock will be divided by this value + 1.
 801:.\Generated_Source\PSoC5/CyLib.c **** *   For example to divide by 2 this parameter should be set to 1.
 802:.\Generated_Source\PSoC5/CyLib.c **** *
 803:.\Generated_Source\PSoC5/CyLib.c **** * Return:
 804:.\Generated_Source\PSoC5/CyLib.c **** *  None
 805:.\Generated_Source\PSoC5/CyLib.c **** *
 806:.\Generated_Source\PSoC5/CyLib.c **** * Side Effects:
 807:.\Generated_Source\PSoC5/CyLib.c **** *  If as result of this function execution the CPU clock frequency is increased
 808:.\Generated_Source\PSoC5/CyLib.c **** *  then the number of clock cycles the cache will wait before it samples data
 809:.\Generated_Source\PSoC5/CyLib.c **** *  coming back from Flash must be adjusted by calling CyFlash_SetWaitCycles()
 810:.\Generated_Source\PSoC5/CyLib.c **** *  with appropriate parameter. It can be optionally called if CPU clock
 811:.\Generated_Source\PSoC5/CyLib.c **** *  frequency is lowered in order to improve CPU performance.
 812:.\Generated_Source\PSoC5/CyLib.c **** *  See CyFlash_SetWaitCycles() description for more information.
 813:.\Generated_Source\PSoC5/CyLib.c **** *
 814:.\Generated_Source\PSoC5/CyLib.c **** *  When changing the Master or Bus clock divider value from div-by-n to div-by-1
 815:.\Generated_Source\PSoC5/CyLib.c **** *  the first clock cycle output after the div-by-1 can be up to 4 ns shorter
 816:.\Generated_Source\PSoC5/CyLib.c **** *  than the final/expected div-by-1 period.
 817:.\Generated_Source\PSoC5/CyLib.c **** *
 818:.\Generated_Source\PSoC5/CyLib.c **** *******************************************************************************/
 819:.\Generated_Source\PSoC5/CyLib.c **** void CyMasterClk_SetDivider(uint8 divider) 
 820:.\Generated_Source\PSoC5/CyLib.c **** {
 1257              		.loc 1 820 0
 1258              		.cfi_startproc
 1259              		@ args = 0, pretend = 0, frame = 8
 1260              		@ frame_needed = 1, uses_anonymous_args = 0
 1261              		@ link register save eliminated.
 1262 0000 80B4     		push	{r7}
 1263              	.LCFI35:
 1264              		.cfi_def_cfa_offset 4
 1265 0002 83B0     		sub	sp, sp, #12
 1266              	.LCFI36:
 1267              		.cfi_def_cfa_offset 16
 1268 0004 00AF     		add	r7, sp, #0
 1269              		.cfi_offset 7, -4
 1270              	.LCFI37:
 1271              		.cfi_def_cfa_register 7
 1272 0006 0346     		mov	r3, r0
 1273 0008 FB71     		strb	r3, [r7, #7]
 821:.\Generated_Source\PSoC5/CyLib.c ****     CY_LIB_CLKDIST_MSTR0_REG = divider;
 1274              		.loc 1 821 0
 1275 000a 44F20403 		movw	r3, #:lower16:1073758212
 1276 000e C4F20003 		movt	r3, #:upper16:1073758212
 1277 0012 FA79     		ldrb	r2, [r7, #7]
 1278 0014 1A70     		strb	r2, [r3, #0]
 822:.\Generated_Source\PSoC5/CyLib.c **** }
 1279              		.loc 1 822 0
 1280 0016 07F10C07 		add	r7, r7, #12
 1281 001a BD46     		mov	sp, r7
 1282 001c 80BC     		pop	{r7}
 1283 001e 7047     		bx	lr
ARM GAS  C:\Users\karunmj\AppData\Local\Temp\cceFJIz4.s 			page 38


 1284              		.cfi_endproc
 1285              	.LFE13:
 1286              		.size	CyMasterClk_SetDivider, .-CyMasterClk_SetDivider
 1287              		.section	.text.CyBusClk_Internal_SetDivider,"ax",%progbits
 1288              		.align	2
 1289              		.thumb
 1290              		.thumb_func
 1291              		.type	CyBusClk_Internal_SetDivider, %function
 1292              	CyBusClk_Internal_SetDivider:
 1293              	.LFB14:
 823:.\Generated_Source\PSoC5/CyLib.c **** 
 824:.\Generated_Source\PSoC5/CyLib.c **** 
 825:.\Generated_Source\PSoC5/CyLib.c **** /*******************************************************************************
 826:.\Generated_Source\PSoC5/CyLib.c **** * Function Name: CyBusClk_Internal_SetDivider
 827:.\Generated_Source\PSoC5/CyLib.c **** ********************************************************************************
 828:.\Generated_Source\PSoC5/CyLib.c **** *
 829:.\Generated_Source\PSoC5/CyLib.c **** * Summary:
 830:.\Generated_Source\PSoC5/CyLib.c **** *  Function used by CyBusClk_SetDivider(). For internal use only.
 831:.\Generated_Source\PSoC5/CyLib.c **** *
 832:.\Generated_Source\PSoC5/CyLib.c **** * Parameters:
 833:.\Generated_Source\PSoC5/CyLib.c **** *   divider: Valid range [0-65535].
 834:.\Generated_Source\PSoC5/CyLib.c **** *   The clock will be divided by this value + 1.
 835:.\Generated_Source\PSoC5/CyLib.c **** *   For example to divide by 2 this parameter should be set to 1.
 836:.\Generated_Source\PSoC5/CyLib.c **** *
 837:.\Generated_Source\PSoC5/CyLib.c **** * Return:
 838:.\Generated_Source\PSoC5/CyLib.c **** *  None
 839:.\Generated_Source\PSoC5/CyLib.c **** *
 840:.\Generated_Source\PSoC5/CyLib.c **** *******************************************************************************/
 841:.\Generated_Source\PSoC5/CyLib.c **** static void CyBusClk_Internal_SetDivider(uint16 divider)
 842:.\Generated_Source\PSoC5/CyLib.c **** {
 1294              		.loc 1 842 0
 1295              		.cfi_startproc
 1296              		@ args = 0, pretend = 0, frame = 8
 1297              		@ frame_needed = 1, uses_anonymous_args = 0
 1298              		@ link register save eliminated.
 1299 0000 80B4     		push	{r7}
 1300              	.LCFI38:
 1301              		.cfi_def_cfa_offset 4
 1302 0002 83B0     		sub	sp, sp, #12
 1303              	.LCFI39:
 1304              		.cfi_def_cfa_offset 16
 1305 0004 00AF     		add	r7, sp, #0
 1306              		.cfi_offset 7, -4
 1307              	.LCFI40:
 1308              		.cfi_def_cfa_register 7
 1309 0006 0346     		mov	r3, r0
 1310 0008 FB80     		strh	r3, [r7, #6]	@ movhi
 843:.\Generated_Source\PSoC5/CyLib.c ****     /* Mask bits to enable shadow loads  */
 844:.\Generated_Source\PSoC5/CyLib.c ****     CY_LIB_CLKDIST_AMASK_REG &= CY_LIB_CLKDIST_AMASK_MASK;
 1311              		.loc 1 844 0
 1312 000a 44F21403 		movw	r3, #:lower16:1073758228
 1313 000e C4F20003 		movt	r3, #:upper16:1073758228
 1314 0012 44F21402 		movw	r2, #:lower16:1073758228
 1315 0016 C4F20002 		movt	r2, #:upper16:1073758228
 1316 001a 1278     		ldrb	r2, [r2, #0]
 1317 001c D2B2     		uxtb	r2, r2
 1318 001e 02F0F002 		and	r2, r2, #240
ARM GAS  C:\Users\karunmj\AppData\Local\Temp\cceFJIz4.s 			page 39


 1319 0022 1A70     		strb	r2, [r3, #0]
 845:.\Generated_Source\PSoC5/CyLib.c ****     CY_LIB_CLKDIST_DMASK_REG  = CY_LIB_CLKDIST_DMASK_MASK;
 1320              		.loc 1 845 0
 1321 0024 44F21003 		movw	r3, #:lower16:1073758224
 1322 0028 C4F20003 		movt	r3, #:upper16:1073758224
 1323 002c 4FF00002 		mov	r2, #0
 1324 0030 1A70     		strb	r2, [r3, #0]
 846:.\Generated_Source\PSoC5/CyLib.c **** 
 847:.\Generated_Source\PSoC5/CyLib.c ****     /* Enable mask bits to enable shadow loads */
 848:.\Generated_Source\PSoC5/CyLib.c ****     CY_LIB_CLKDIST_BCFG2_REG |= CY_LIB_CLKDIST_BCFG2_MASK;
 1325              		.loc 1 848 0
 1326 0032 44F20803 		movw	r3, #:lower16:1073758216
 1327 0036 C4F20003 		movt	r3, #:upper16:1073758216
 1328 003a 44F20802 		movw	r2, #:lower16:1073758216
 1329 003e C4F20002 		movt	r2, #:upper16:1073758216
 1330 0042 1278     		ldrb	r2, [r2, #0]
 1331 0044 D2B2     		uxtb	r2, r2
 1332 0046 6FEA4262 		mvn	r2, r2, lsl #25
 1333 004a 6FEA5262 		mvn	r2, r2, lsr #25
 1334 004e D2B2     		uxtb	r2, r2
 1335 0050 1A70     		strb	r2, [r3, #0]
 849:.\Generated_Source\PSoC5/CyLib.c **** 
 850:.\Generated_Source\PSoC5/CyLib.c ****     /* Update Shadow Divider Value Register with the new divider */
 851:.\Generated_Source\PSoC5/CyLib.c ****     CY_LIB_CLKDIST_WRK_LSB_REG = LO8(divider);
 1336              		.loc 1 851 0
 1337 0052 44F20203 		movw	r3, #:lower16:1073758210
 1338 0056 C4F20003 		movt	r3, #:upper16:1073758210
 1339 005a FA88     		ldrh	r2, [r7, #6]	@ movhi
 1340 005c D2B2     		uxtb	r2, r2
 1341 005e 1A70     		strb	r2, [r3, #0]
 852:.\Generated_Source\PSoC5/CyLib.c ****     CY_LIB_CLKDIST_WRK_MSB_REG = HI8(divider);
 1342              		.loc 1 852 0
 1343 0060 44F20303 		movw	r3, #:lower16:1073758211
 1344 0064 C4F20003 		movt	r3, #:upper16:1073758211
 1345 0068 FA88     		ldrh	r2, [r7, #6]
 1346 006a 4FEA1222 		lsr	r2, r2, #8
 1347 006e 92B2     		uxth	r2, r2
 1348 0070 D2B2     		uxtb	r2, r2
 1349 0072 1A70     		strb	r2, [r3, #0]
 853:.\Generated_Source\PSoC5/CyLib.c **** 
 854:.\Generated_Source\PSoC5/CyLib.c **** 
 855:.\Generated_Source\PSoC5/CyLib.c ****     /***************************************************************************
 856:.\Generated_Source\PSoC5/CyLib.c ****     * Copy shadow value defined in Shadow Divider Value Register
 857:.\Generated_Source\PSoC5/CyLib.c ****     * (CY_LIB_CLKDIST_WRK_LSB_REG and CY_LIB_CLKDIST_WRK_MSB_REG) to all
 858:.\Generated_Source\PSoC5/CyLib.c ****     * dividers selected in Analog and Digital Clock Mask Registers
 859:.\Generated_Source\PSoC5/CyLib.c ****     * (CY_LIB_CLKDIST_AMASK_REG and CY_LIB_CLKDIST_DMASK_REG).
 860:.\Generated_Source\PSoC5/CyLib.c ****     ***************************************************************************/
 861:.\Generated_Source\PSoC5/CyLib.c ****     CY_LIB_CLKDIST_LD_REG |= CY_LIB_CLKDIST_LD_LOAD;
 1350              		.loc 1 861 0
 1351 0074 44F20103 		movw	r3, #:lower16:1073758209
 1352 0078 C4F20003 		movt	r3, #:upper16:1073758209
 1353 007c 44F20102 		movw	r2, #:lower16:1073758209
 1354 0080 C4F20002 		movt	r2, #:upper16:1073758209
 1355 0084 1278     		ldrb	r2, [r2, #0]
 1356 0086 D2B2     		uxtb	r2, r2
 1357 0088 42F00102 		orr	r2, r2, #1
 1358 008c D2B2     		uxtb	r2, r2
ARM GAS  C:\Users\karunmj\AppData\Local\Temp\cceFJIz4.s 			page 40


 1359 008e 1A70     		strb	r2, [r3, #0]
 862:.\Generated_Source\PSoC5/CyLib.c **** }
 1360              		.loc 1 862 0
 1361 0090 07F10C07 		add	r7, r7, #12
 1362 0094 BD46     		mov	sp, r7
 1363 0096 80BC     		pop	{r7}
 1364 0098 7047     		bx	lr
 1365              		.cfi_endproc
 1366              	.LFE14:
 1367              		.size	CyBusClk_Internal_SetDivider, .-CyBusClk_Internal_SetDivider
 1368 009a 00BF     		.section	.text.CyBusClk_SetDivider,"ax",%progbits
 1369              		.align	2
 1370              		.global	CyBusClk_SetDivider
 1371              		.thumb
 1372              		.thumb_func
 1373              		.type	CyBusClk_SetDivider, %function
 1374              	CyBusClk_SetDivider:
 1375              	.LFB15:
 863:.\Generated_Source\PSoC5/CyLib.c **** 
 864:.\Generated_Source\PSoC5/CyLib.c **** 
 865:.\Generated_Source\PSoC5/CyLib.c **** /*******************************************************************************
 866:.\Generated_Source\PSoC5/CyLib.c **** * Function Name: CyBusClk_SetDivider
 867:.\Generated_Source\PSoC5/CyLib.c **** ********************************************************************************
 868:.\Generated_Source\PSoC5/CyLib.c **** *
 869:.\Generated_Source\PSoC5/CyLib.c **** * Summary:
 870:.\Generated_Source\PSoC5/CyLib.c **** *  Sets the divider value used to generate Bus Clock.
 871:.\Generated_Source\PSoC5/CyLib.c **** *
 872:.\Generated_Source\PSoC5/CyLib.c **** * Parameters:
 873:.\Generated_Source\PSoC5/CyLib.c **** *  divider: Valid range [0-65535]. The clock will be divided by this value + 1.
 874:.\Generated_Source\PSoC5/CyLib.c **** *  For example to divide by 2 this parameter should be set to 1.
 875:.\Generated_Source\PSoC5/CyLib.c **** *
 876:.\Generated_Source\PSoC5/CyLib.c **** * Return:
 877:.\Generated_Source\PSoC5/CyLib.c **** *  None
 878:.\Generated_Source\PSoC5/CyLib.c **** *
 879:.\Generated_Source\PSoC5/CyLib.c **** * Side Effects:
 880:.\Generated_Source\PSoC5/CyLib.c **** *  If as result of this function execution the CPU clock frequency is increased
 881:.\Generated_Source\PSoC5/CyLib.c **** *  then the number of clock cycles the cache will wait before it samples data
 882:.\Generated_Source\PSoC5/CyLib.c **** *  coming back from Flash must be adjusted by calling CyFlash_SetWaitCycles()
 883:.\Generated_Source\PSoC5/CyLib.c **** *  with appropriate parameter. It can be optionally called if CPU clock
 884:.\Generated_Source\PSoC5/CyLib.c **** *  frequency is lowered in order to improve CPU performance.
 885:.\Generated_Source\PSoC5/CyLib.c **** *  See CyFlash_SetWaitCycles() description for more information.
 886:.\Generated_Source\PSoC5/CyLib.c **** *
 887:.\Generated_Source\PSoC5/CyLib.c **** *******************************************************************************/
 888:.\Generated_Source\PSoC5/CyLib.c **** void CyBusClk_SetDivider(uint16 divider) 
 889:.\Generated_Source\PSoC5/CyLib.c **** {
 1376              		.loc 1 889 0
 1377              		.cfi_startproc
 1378              		@ args = 0, pretend = 0, frame = 16
 1379              		@ frame_needed = 1, uses_anonymous_args = 0
 1380 0000 80B5     		push	{r7, lr}
 1381              	.LCFI41:
 1382              		.cfi_def_cfa_offset 8
 1383 0002 84B0     		sub	sp, sp, #16
 1384              	.LCFI42:
 1385              		.cfi_def_cfa_offset 24
 1386 0004 00AF     		add	r7, sp, #0
 1387              		.cfi_offset 14, -4
ARM GAS  C:\Users\karunmj\AppData\Local\Temp\cceFJIz4.s 			page 41


 1388              		.cfi_offset 7, -8
 1389              	.LCFI43:
 1390              		.cfi_def_cfa_register 7
 1391 0006 0346     		mov	r3, r0
 1392 0008 FB80     		strh	r3, [r7, #6]	@ movhi
 890:.\Generated_Source\PSoC5/CyLib.c ****     uint8  masterClkDiv;
 891:.\Generated_Source\PSoC5/CyLib.c ****     uint16 busClkDiv;
 892:.\Generated_Source\PSoC5/CyLib.c ****     uint8 interruptState;
 893:.\Generated_Source\PSoC5/CyLib.c **** 
 894:.\Generated_Source\PSoC5/CyLib.c ****     interruptState = CyEnterCriticalSection();
 1393              		.loc 1 894 0
 1394 000a FFF7FEFF 		bl	CyEnterCriticalSection
 1395 000e 0346     		mov	r3, r0
 1396 0010 FB73     		strb	r3, [r7, #15]
 895:.\Generated_Source\PSoC5/CyLib.c **** 
 896:.\Generated_Source\PSoC5/CyLib.c ****     /* Work around to set the bus clock divider value */
 897:.\Generated_Source\PSoC5/CyLib.c ****     busClkDiv = ((uint16)(((uint16)(CY_LIB_CLKDIST_BCFG_MSB_REG)) << 8u)) | CY_LIB_CLKDIST_BCFG_LSB
 1397              		.loc 1 897 0
 1398 0012 44F20703 		movw	r3, #:lower16:1073758215
 1399 0016 C4F20003 		movt	r3, #:upper16:1073758215
 1400 001a 1B78     		ldrb	r3, [r3, #0]
 1401 001c DBB2     		uxtb	r3, r3
 1402 001e 4FEA0323 		lsl	r3, r3, #8
 1403 0022 9AB2     		uxth	r2, r3
 1404 0024 44F20603 		movw	r3, #:lower16:1073758214
 1405 0028 C4F20003 		movt	r3, #:upper16:1073758214
 1406 002c 1B78     		ldrb	r3, [r3, #0]
 1407 002e DBB2     		uxtb	r3, r3
 1408 0030 42EA0303 		orr	r3, r2, r3
 1409 0034 BB81     		strh	r3, [r7, #12]	@ movhi
 898:.\Generated_Source\PSoC5/CyLib.c **** 
 899:.\Generated_Source\PSoC5/CyLib.c ****     if ((divider == 0u) || (busClkDiv == 0u))
 1410              		.loc 1 899 0
 1411 0036 FB88     		ldrh	r3, [r7, #6]
 1412 0038 002B     		cmp	r3, #0
 1413 003a 02D0     		beq	.L95
 1414 003c BB89     		ldrh	r3, [r7, #12]
 1415 003e 002B     		cmp	r3, #0
 1416 0040 38D1     		bne	.L96
 1417              	.L95:
 900:.\Generated_Source\PSoC5/CyLib.c ****     {
 901:.\Generated_Source\PSoC5/CyLib.c ****         /* Save away the master clock divider value */
 902:.\Generated_Source\PSoC5/CyLib.c ****         masterClkDiv = CY_LIB_CLKDIST_MSTR0_REG;
 1418              		.loc 1 902 0
 1419 0042 44F20403 		movw	r3, #:lower16:1073758212
 1420 0046 C4F20003 		movt	r3, #:upper16:1073758212
 1421 004a 1B78     		ldrb	r3, [r3, #0]
 1422 004c FB72     		strb	r3, [r7, #11]
 903:.\Generated_Source\PSoC5/CyLib.c **** 
 904:.\Generated_Source\PSoC5/CyLib.c ****         if (masterClkDiv < CY_LIB_CLKDIST_MASTERCLK_DIV)
 1423              		.loc 1 904 0
 1424 004e FB7A     		ldrb	r3, [r7, #11]	@ zero_extendqisi2
 1425 0050 062B     		cmp	r3, #6
 1426 0052 03D8     		bhi	.L97
 905:.\Generated_Source\PSoC5/CyLib.c ****         {
 906:.\Generated_Source\PSoC5/CyLib.c ****             /* Set master clock divider to 7 */
 907:.\Generated_Source\PSoC5/CyLib.c ****             CyMasterClk_SetDivider(CY_LIB_CLKDIST_MASTERCLK_DIV);
ARM GAS  C:\Users\karunmj\AppData\Local\Temp\cceFJIz4.s 			page 42


 1427              		.loc 1 907 0
 1428 0054 4FF00700 		mov	r0, #7
 1429 0058 FFF7FEFF 		bl	CyMasterClk_SetDivider
 1430              	.L97:
 908:.\Generated_Source\PSoC5/CyLib.c ****         }
 909:.\Generated_Source\PSoC5/CyLib.c **** 
 910:.\Generated_Source\PSoC5/CyLib.c ****         if (divider == 0u)
 1431              		.loc 1 910 0
 1432 005c FB88     		ldrh	r3, [r7, #6]
 1433 005e 002B     		cmp	r3, #0
 1434 0060 12D1     		bne	.L98
 911:.\Generated_Source\PSoC5/CyLib.c ****         {
 912:.\Generated_Source\PSoC5/CyLib.c ****             /* Set the SSS bit and the divider register desired value */
 913:.\Generated_Source\PSoC5/CyLib.c ****             CY_LIB_CLKDIST_BCFG2_REG |= CY_LIB_CLKDIST_BCFG2_SSS;
 1435              		.loc 1 913 0
 1436 0062 44F20803 		movw	r3, #:lower16:1073758216
 1437 0066 C4F20003 		movt	r3, #:upper16:1073758216
 1438 006a 44F20802 		movw	r2, #:lower16:1073758216
 1439 006e C4F20002 		movt	r2, #:upper16:1073758216
 1440 0072 1278     		ldrb	r2, [r2, #0]
 1441 0074 D2B2     		uxtb	r2, r2
 1442 0076 42F04002 		orr	r2, r2, #64
 1443 007a D2B2     		uxtb	r2, r2
 1444 007c 1A70     		strb	r2, [r3, #0]
 914:.\Generated_Source\PSoC5/CyLib.c ****             CyBusClk_Internal_SetDivider(divider);
 1445              		.loc 1 914 0
 1446 007e FB88     		ldrh	r3, [r7, #6]
 1447 0080 1846     		mov	r0, r3
 1448 0082 FFF7FEFF 		bl	CyBusClk_Internal_SetDivider
 1449 0086 10E0     		b	.L99
 1450              	.L98:
 915:.\Generated_Source\PSoC5/CyLib.c ****         }
 916:.\Generated_Source\PSoC5/CyLib.c ****         else
 917:.\Generated_Source\PSoC5/CyLib.c ****         {
 918:.\Generated_Source\PSoC5/CyLib.c ****             CyBusClk_Internal_SetDivider(divider);
 1451              		.loc 1 918 0
 1452 0088 FB88     		ldrh	r3, [r7, #6]
 1453 008a 1846     		mov	r0, r3
 1454 008c FFF7FEFF 		bl	CyBusClk_Internal_SetDivider
 919:.\Generated_Source\PSoC5/CyLib.c ****             CY_LIB_CLKDIST_BCFG2_REG &= ((uint8)(~CY_LIB_CLKDIST_BCFG2_SSS));
 1455              		.loc 1 919 0
 1456 0090 44F20803 		movw	r3, #:lower16:1073758216
 1457 0094 C4F20003 		movt	r3, #:upper16:1073758216
 1458 0098 44F20802 		movw	r2, #:lower16:1073758216
 1459 009c C4F20002 		movt	r2, #:upper16:1073758216
 1460 00a0 1278     		ldrb	r2, [r2, #0]
 1461 00a2 D2B2     		uxtb	r2, r2
 1462 00a4 02F0BF02 		and	r2, r2, #191
 1463 00a8 1A70     		strb	r2, [r3, #0]
 1464              	.L99:
 920:.\Generated_Source\PSoC5/CyLib.c ****         }
 921:.\Generated_Source\PSoC5/CyLib.c **** 
 922:.\Generated_Source\PSoC5/CyLib.c ****         /* Restore the master clock */
 923:.\Generated_Source\PSoC5/CyLib.c ****         CyMasterClk_SetDivider(masterClkDiv);
 1465              		.loc 1 923 0
 1466 00aa FB7A     		ldrb	r3, [r7, #11]	@ zero_extendqisi2
 1467 00ac 1846     		mov	r0, r3
ARM GAS  C:\Users\karunmj\AppData\Local\Temp\cceFJIz4.s 			page 43


 1468 00ae FFF7FEFF 		bl	CyMasterClk_SetDivider
 1469              		.loc 1 899 0
 1470 00b2 03E0     		b	.L100
 1471              	.L96:
 924:.\Generated_Source\PSoC5/CyLib.c ****     }
 925:.\Generated_Source\PSoC5/CyLib.c ****     else
 926:.\Generated_Source\PSoC5/CyLib.c ****     {
 927:.\Generated_Source\PSoC5/CyLib.c ****         CyBusClk_Internal_SetDivider(divider);
 1472              		.loc 1 927 0
 1473 00b4 FB88     		ldrh	r3, [r7, #6]
 1474 00b6 1846     		mov	r0, r3
 1475 00b8 FFF7FEFF 		bl	CyBusClk_Internal_SetDivider
 1476              	.L100:
 928:.\Generated_Source\PSoC5/CyLib.c ****     }
 929:.\Generated_Source\PSoC5/CyLib.c **** 
 930:.\Generated_Source\PSoC5/CyLib.c ****     CyExitCriticalSection(interruptState);
 1477              		.loc 1 930 0
 1478 00bc FB7B     		ldrb	r3, [r7, #15]	@ zero_extendqisi2
 1479 00be 1846     		mov	r0, r3
 1480 00c0 FFF7FEFF 		bl	CyExitCriticalSection
 931:.\Generated_Source\PSoC5/CyLib.c **** }
 1481              		.loc 1 931 0
 1482 00c4 07F11007 		add	r7, r7, #16
 1483 00c8 BD46     		mov	sp, r7
 1484 00ca 80BD     		pop	{r7, pc}
 1485              		.cfi_endproc
 1486              	.LFE15:
 1487              		.size	CyBusClk_SetDivider, .-CyBusClk_SetDivider
 1488              		.section	.text.CyUsbClk_SetSource,"ax",%progbits
 1489              		.align	2
 1490              		.global	CyUsbClk_SetSource
 1491              		.thumb
 1492              		.thumb_func
 1493              		.type	CyUsbClk_SetSource, %function
 1494              	CyUsbClk_SetSource:
 1495              	.LFB16:
 932:.\Generated_Source\PSoC5/CyLib.c **** 
 933:.\Generated_Source\PSoC5/CyLib.c **** 
 934:.\Generated_Source\PSoC5/CyLib.c **** #if(CY_PSOC3)
 935:.\Generated_Source\PSoC5/CyLib.c **** 
 936:.\Generated_Source\PSoC5/CyLib.c ****     /*******************************************************************************
 937:.\Generated_Source\PSoC5/CyLib.c ****     * Function Name: CyCpuClk_SetDivider
 938:.\Generated_Source\PSoC5/CyLib.c ****     ********************************************************************************
 939:.\Generated_Source\PSoC5/CyLib.c ****     *
 940:.\Generated_Source\PSoC5/CyLib.c ****     * Summary:
 941:.\Generated_Source\PSoC5/CyLib.c ****     *  Sets the divider value used to generate the CPU Clock. Only applicable for
 942:.\Generated_Source\PSoC5/CyLib.c ****     *  PSoC 3 parts.
 943:.\Generated_Source\PSoC5/CyLib.c ****     *
 944:.\Generated_Source\PSoC5/CyLib.c ****     * Parameters:
 945:.\Generated_Source\PSoC5/CyLib.c ****     *  divider: Valid range [0-15]. The clock will be divided by this value + 1.
 946:.\Generated_Source\PSoC5/CyLib.c ****     *  For example to divide by 2 this parameter should be set to 1.
 947:.\Generated_Source\PSoC5/CyLib.c ****     *
 948:.\Generated_Source\PSoC5/CyLib.c ****     * Return:
 949:.\Generated_Source\PSoC5/CyLib.c ****     *  None
 950:.\Generated_Source\PSoC5/CyLib.c ****     *
 951:.\Generated_Source\PSoC5/CyLib.c ****     * Side Effects:
 952:.\Generated_Source\PSoC5/CyLib.c ****     *  If as result of this function execution the CPU clock frequency is increased
ARM GAS  C:\Users\karunmj\AppData\Local\Temp\cceFJIz4.s 			page 44


 953:.\Generated_Source\PSoC5/CyLib.c ****     *  then the number of clock cycles the cache will wait before it samples data
 954:.\Generated_Source\PSoC5/CyLib.c ****     *  coming back from Flash must be adjusted by calling CyFlash_SetWaitCycles()
 955:.\Generated_Source\PSoC5/CyLib.c ****     *  with appropriate parameter. It can be optionally called if CPU clock
 956:.\Generated_Source\PSoC5/CyLib.c ****     *  frequency is lowered in order to improve CPU performance.
 957:.\Generated_Source\PSoC5/CyLib.c ****     *  See CyFlash_SetWaitCycles() description for more information.
 958:.\Generated_Source\PSoC5/CyLib.c ****     *
 959:.\Generated_Source\PSoC5/CyLib.c ****     *******************************************************************************/
 960:.\Generated_Source\PSoC5/CyLib.c ****     void CyCpuClk_SetDivider(uint8 divider) 
 961:.\Generated_Source\PSoC5/CyLib.c ****     {
 962:.\Generated_Source\PSoC5/CyLib.c ****             CLKDIST_MSTR1 = (CLKDIST_MSTR1 & CLKDIST_MSTR1_DIV_CLEAR) |
 963:.\Generated_Source\PSoC5/CyLib.c ****                                 ((uint8)(divider << CLKDIST_DIV_POSITION));
 964:.\Generated_Source\PSoC5/CyLib.c ****     }
 965:.\Generated_Source\PSoC5/CyLib.c **** 
 966:.\Generated_Source\PSoC5/CyLib.c **** #endif /* (CY_PSOC3) */
 967:.\Generated_Source\PSoC5/CyLib.c **** 
 968:.\Generated_Source\PSoC5/CyLib.c **** 
 969:.\Generated_Source\PSoC5/CyLib.c **** /*******************************************************************************
 970:.\Generated_Source\PSoC5/CyLib.c **** * Function Name: CyUsbClk_SetSource
 971:.\Generated_Source\PSoC5/CyLib.c **** ********************************************************************************
 972:.\Generated_Source\PSoC5/CyLib.c **** *
 973:.\Generated_Source\PSoC5/CyLib.c **** * Summary:
 974:.\Generated_Source\PSoC5/CyLib.c **** *  Sets the source of the USB clock.
 975:.\Generated_Source\PSoC5/CyLib.c **** *
 976:.\Generated_Source\PSoC5/CyLib.c **** * Parameters:
 977:.\Generated_Source\PSoC5/CyLib.c **** *  source: One of the four available USB clock sources
 978:.\Generated_Source\PSoC5/CyLib.c **** *             USB_CLK_IMO2X     - IMO 2x
 979:.\Generated_Source\PSoC5/CyLib.c **** *             USB_CLK_IMO       - IMO
 980:.\Generated_Source\PSoC5/CyLib.c **** *             USB_CLK_PLL       - PLL
 981:.\Generated_Source\PSoC5/CyLib.c **** *             USB_CLK_DSI       - DSI
 982:.\Generated_Source\PSoC5/CyLib.c **** *
 983:.\Generated_Source\PSoC5/CyLib.c **** * Return:
 984:.\Generated_Source\PSoC5/CyLib.c **** *  None
 985:.\Generated_Source\PSoC5/CyLib.c **** *
 986:.\Generated_Source\PSoC5/CyLib.c **** *******************************************************************************/
 987:.\Generated_Source\PSoC5/CyLib.c **** void CyUsbClk_SetSource(uint8 source) 
 988:.\Generated_Source\PSoC5/CyLib.c **** {
 1496              		.loc 1 988 0
 1497              		.cfi_startproc
 1498              		@ args = 0, pretend = 0, frame = 8
 1499              		@ frame_needed = 1, uses_anonymous_args = 0
 1500              		@ link register save eliminated.
 1501 0000 80B4     		push	{r7}
 1502              	.LCFI44:
 1503              		.cfi_def_cfa_offset 4
 1504 0002 83B0     		sub	sp, sp, #12
 1505              	.LCFI45:
 1506              		.cfi_def_cfa_offset 16
 1507 0004 00AF     		add	r7, sp, #0
 1508              		.cfi_offset 7, -4
 1509              	.LCFI46:
 1510              		.cfi_def_cfa_register 7
 1511 0006 0346     		mov	r3, r0
 1512 0008 FB71     		strb	r3, [r7, #7]
 989:.\Generated_Source\PSoC5/CyLib.c ****     CLKDIST_UCFG = (CLKDIST_UCFG & ((uint8)(~USB_CLKDIST_CONFIG_MASK))) |
 1513              		.loc 1 989 0
 1514 000a 44F20903 		movw	r3, #:lower16:1073758217
 1515 000e C4F20003 		movt	r3, #:upper16:1073758217
ARM GAS  C:\Users\karunmj\AppData\Local\Temp\cceFJIz4.s 			page 45


 1516 0012 44F20902 		movw	r2, #:lower16:1073758217
 1517 0016 C4F20002 		movt	r2, #:upper16:1073758217
 1518 001a 1278     		ldrb	r2, [r2, #0]
 1519 001c D2B2     		uxtb	r2, r2
 1520 001e 1146     		mov	r1, r2
 1521 0020 01F0FC01 		and	r1, r1, #252
 1522 0024 FA79     		ldrb	r2, [r7, #7]	@ zero_extendqisi2
 1523 0026 02F00302 		and	r2, r2, #3
 1524 002a 41EA0202 		orr	r2, r1, r2
 1525 002e D2B2     		uxtb	r2, r2
 1526 0030 1A70     		strb	r2, [r3, #0]
 990:.\Generated_Source\PSoC5/CyLib.c ****                         (USB_CLKDIST_CONFIG_MASK & source);
 991:.\Generated_Source\PSoC5/CyLib.c **** }
 1527              		.loc 1 991 0
 1528 0032 07F10C07 		add	r7, r7, #12
 1529 0036 BD46     		mov	sp, r7
 1530 0038 80BC     		pop	{r7}
 1531 003a 7047     		bx	lr
 1532              		.cfi_endproc
 1533              	.LFE16:
 1534              		.size	CyUsbClk_SetSource, .-CyUsbClk_SetSource
 1535              		.section	.text.CyILO_Start1K,"ax",%progbits
 1536              		.align	2
 1537              		.global	CyILO_Start1K
 1538              		.thumb
 1539              		.thumb_func
 1540              		.type	CyILO_Start1K, %function
 1541              	CyILO_Start1K:
 1542              	.LFB17:
 992:.\Generated_Source\PSoC5/CyLib.c **** 
 993:.\Generated_Source\PSoC5/CyLib.c **** 
 994:.\Generated_Source\PSoC5/CyLib.c **** /*******************************************************************************
 995:.\Generated_Source\PSoC5/CyLib.c **** * Function Name: CyILO_Start1K
 996:.\Generated_Source\PSoC5/CyLib.c **** ********************************************************************************
 997:.\Generated_Source\PSoC5/CyLib.c **** *
 998:.\Generated_Source\PSoC5/CyLib.c **** * Summary:
 999:.\Generated_Source\PSoC5/CyLib.c **** *  Enables the ILO 1 KHz oscillator.
1000:.\Generated_Source\PSoC5/CyLib.c **** *
1001:.\Generated_Source\PSoC5/CyLib.c **** *  Note The ILO 1 KHz oscillator is always enabled by default, regardless of the
1002:.\Generated_Source\PSoC5/CyLib.c **** *  selection in the Clock Editor. Therefore, this API is only needed if the
1003:.\Generated_Source\PSoC5/CyLib.c **** *  oscillator was turned off manually.
1004:.\Generated_Source\PSoC5/CyLib.c **** *
1005:.\Generated_Source\PSoC5/CyLib.c **** * Parameters:
1006:.\Generated_Source\PSoC5/CyLib.c **** *  None
1007:.\Generated_Source\PSoC5/CyLib.c **** *
1008:.\Generated_Source\PSoC5/CyLib.c **** * Return:
1009:.\Generated_Source\PSoC5/CyLib.c **** *  None
1010:.\Generated_Source\PSoC5/CyLib.c **** *
1011:.\Generated_Source\PSoC5/CyLib.c **** *******************************************************************************/
1012:.\Generated_Source\PSoC5/CyLib.c **** void CyILO_Start1K(void) 
1013:.\Generated_Source\PSoC5/CyLib.c **** {
 1543              		.loc 1 1013 0
 1544              		.cfi_startproc
 1545              		@ args = 0, pretend = 0, frame = 0
 1546              		@ frame_needed = 1, uses_anonymous_args = 0
 1547              		@ link register save eliminated.
 1548 0000 80B4     		push	{r7}
ARM GAS  C:\Users\karunmj\AppData\Local\Temp\cceFJIz4.s 			page 46


 1549              	.LCFI47:
 1550              		.cfi_def_cfa_offset 4
 1551 0002 00AF     		add	r7, sp, #0
 1552              		.cfi_offset 7, -4
 1553              	.LCFI48:
 1554              		.cfi_def_cfa_register 7
1014:.\Generated_Source\PSoC5/CyLib.c ****     /* Set the bit 1 of ILO RS */
1015:.\Generated_Source\PSoC5/CyLib.c ****     SLOWCLK_ILO_CR0 |= ILO_CONTROL_1KHZ_ON;
 1555              		.loc 1 1015 0
 1556 0004 44F20033 		movw	r3, #:lower16:1073758976
 1557 0008 C4F20003 		movt	r3, #:upper16:1073758976
 1558 000c 44F20032 		movw	r2, #:lower16:1073758976
 1559 0010 C4F20002 		movt	r2, #:upper16:1073758976
 1560 0014 1278     		ldrb	r2, [r2, #0]
 1561 0016 D2B2     		uxtb	r2, r2
 1562 0018 42F00202 		orr	r2, r2, #2
 1563 001c D2B2     		uxtb	r2, r2
 1564 001e 1A70     		strb	r2, [r3, #0]
1016:.\Generated_Source\PSoC5/CyLib.c **** }
 1565              		.loc 1 1016 0
 1566 0020 BD46     		mov	sp, r7
 1567 0022 80BC     		pop	{r7}
 1568 0024 7047     		bx	lr
 1569              		.cfi_endproc
 1570              	.LFE17:
 1571              		.size	CyILO_Start1K, .-CyILO_Start1K
 1572 0026 00BF     		.section	.text.CyILO_Stop1K,"ax",%progbits
 1573              		.align	2
 1574              		.global	CyILO_Stop1K
 1575              		.thumb
 1576              		.thumb_func
 1577              		.type	CyILO_Stop1K, %function
 1578              	CyILO_Stop1K:
 1579              	.LFB18:
1017:.\Generated_Source\PSoC5/CyLib.c **** 
1018:.\Generated_Source\PSoC5/CyLib.c **** 
1019:.\Generated_Source\PSoC5/CyLib.c **** /*******************************************************************************
1020:.\Generated_Source\PSoC5/CyLib.c **** * Function Name: CyILO_Stop1K
1021:.\Generated_Source\PSoC5/CyLib.c **** ********************************************************************************
1022:.\Generated_Source\PSoC5/CyLib.c **** *
1023:.\Generated_Source\PSoC5/CyLib.c **** * Summary:
1024:.\Generated_Source\PSoC5/CyLib.c **** *  Disables the ILO 1 KHz oscillator.
1025:.\Generated_Source\PSoC5/CyLib.c **** *
1026:.\Generated_Source\PSoC5/CyLib.c **** *  Note The ILO 1 KHz oscillator must be enabled if Sleep or Hibernate low power
1027:.\Generated_Source\PSoC5/CyLib.c **** *  mode APIs are expected to be used. For more information, refer to the Power
1028:.\Generated_Source\PSoC5/CyLib.c **** *  Management section of this document.
1029:.\Generated_Source\PSoC5/CyLib.c **** *
1030:.\Generated_Source\PSoC5/CyLib.c **** * Parameters:
1031:.\Generated_Source\PSoC5/CyLib.c **** *  None
1032:.\Generated_Source\PSoC5/CyLib.c **** *
1033:.\Generated_Source\PSoC5/CyLib.c **** * Return:
1034:.\Generated_Source\PSoC5/CyLib.c **** *  None
1035:.\Generated_Source\PSoC5/CyLib.c **** *
1036:.\Generated_Source\PSoC5/CyLib.c **** * Side Effects:
1037:.\Generated_Source\PSoC5/CyLib.c **** *  PSoC5: Stopping the ILO 1 kHz could break the active WDT functionality.
1038:.\Generated_Source\PSoC5/CyLib.c **** *
1039:.\Generated_Source\PSoC5/CyLib.c **** *******************************************************************************/
ARM GAS  C:\Users\karunmj\AppData\Local\Temp\cceFJIz4.s 			page 47


1040:.\Generated_Source\PSoC5/CyLib.c **** void CyILO_Stop1K(void) 
1041:.\Generated_Source\PSoC5/CyLib.c **** {
 1580              		.loc 1 1041 0
 1581              		.cfi_startproc
 1582              		@ args = 0, pretend = 0, frame = 0
 1583              		@ frame_needed = 1, uses_anonymous_args = 0
 1584              		@ link register save eliminated.
 1585 0000 80B4     		push	{r7}
 1586              	.LCFI49:
 1587              		.cfi_def_cfa_offset 4
 1588 0002 00AF     		add	r7, sp, #0
 1589              		.cfi_offset 7, -4
 1590              	.LCFI50:
 1591              		.cfi_def_cfa_register 7
1042:.\Generated_Source\PSoC5/CyLib.c ****     /* Clear the bit 1 of ILO RS */
1043:.\Generated_Source\PSoC5/CyLib.c ****     SLOWCLK_ILO_CR0 &= ((uint8)(~ILO_CONTROL_1KHZ_ON));
 1592              		.loc 1 1043 0
 1593 0004 44F20033 		movw	r3, #:lower16:1073758976
 1594 0008 C4F20003 		movt	r3, #:upper16:1073758976
 1595 000c 44F20032 		movw	r2, #:lower16:1073758976
 1596 0010 C4F20002 		movt	r2, #:upper16:1073758976
 1597 0014 1278     		ldrb	r2, [r2, #0]
 1598 0016 D2B2     		uxtb	r2, r2
 1599 0018 02F0FD02 		and	r2, r2, #253
 1600 001c 1A70     		strb	r2, [r3, #0]
1044:.\Generated_Source\PSoC5/CyLib.c **** }
 1601              		.loc 1 1044 0
 1602 001e BD46     		mov	sp, r7
 1603 0020 80BC     		pop	{r7}
 1604 0022 7047     		bx	lr
 1605              		.cfi_endproc
 1606              	.LFE18:
 1607              		.size	CyILO_Stop1K, .-CyILO_Stop1K
 1608              		.section	.text.CyILO_Start100K,"ax",%progbits
 1609              		.align	2
 1610              		.global	CyILO_Start100K
 1611              		.thumb
 1612              		.thumb_func
 1613              		.type	CyILO_Start100K, %function
 1614              	CyILO_Start100K:
 1615              	.LFB19:
1045:.\Generated_Source\PSoC5/CyLib.c **** 
1046:.\Generated_Source\PSoC5/CyLib.c **** 
1047:.\Generated_Source\PSoC5/CyLib.c **** /*******************************************************************************
1048:.\Generated_Source\PSoC5/CyLib.c **** * Function Name: CyILO_Start100K
1049:.\Generated_Source\PSoC5/CyLib.c **** ********************************************************************************
1050:.\Generated_Source\PSoC5/CyLib.c **** *
1051:.\Generated_Source\PSoC5/CyLib.c **** * Summary:
1052:.\Generated_Source\PSoC5/CyLib.c **** *  Enables the ILO 100 KHz oscillator.
1053:.\Generated_Source\PSoC5/CyLib.c **** *
1054:.\Generated_Source\PSoC5/CyLib.c **** * Parameters:
1055:.\Generated_Source\PSoC5/CyLib.c **** *  None
1056:.\Generated_Source\PSoC5/CyLib.c **** *
1057:.\Generated_Source\PSoC5/CyLib.c **** * Return:
1058:.\Generated_Source\PSoC5/CyLib.c **** *  None
1059:.\Generated_Source\PSoC5/CyLib.c **** *
1060:.\Generated_Source\PSoC5/CyLib.c **** *******************************************************************************/
ARM GAS  C:\Users\karunmj\AppData\Local\Temp\cceFJIz4.s 			page 48


1061:.\Generated_Source\PSoC5/CyLib.c **** void CyILO_Start100K(void) 
1062:.\Generated_Source\PSoC5/CyLib.c **** {
 1616              		.loc 1 1062 0
 1617              		.cfi_startproc
 1618              		@ args = 0, pretend = 0, frame = 0
 1619              		@ frame_needed = 1, uses_anonymous_args = 0
 1620              		@ link register save eliminated.
 1621 0000 80B4     		push	{r7}
 1622              	.LCFI51:
 1623              		.cfi_def_cfa_offset 4
 1624 0002 00AF     		add	r7, sp, #0
 1625              		.cfi_offset 7, -4
 1626              	.LCFI52:
 1627              		.cfi_def_cfa_register 7
1063:.\Generated_Source\PSoC5/CyLib.c ****     /* Set the bit 2 of ILO RS */
1064:.\Generated_Source\PSoC5/CyLib.c ****     SLOWCLK_ILO_CR0 |= ILO_CONTROL_100KHZ_ON;
 1628              		.loc 1 1064 0
 1629 0004 44F20033 		movw	r3, #:lower16:1073758976
 1630 0008 C4F20003 		movt	r3, #:upper16:1073758976
 1631 000c 44F20032 		movw	r2, #:lower16:1073758976
 1632 0010 C4F20002 		movt	r2, #:upper16:1073758976
 1633 0014 1278     		ldrb	r2, [r2, #0]
 1634 0016 D2B2     		uxtb	r2, r2
 1635 0018 42F00402 		orr	r2, r2, #4
 1636 001c D2B2     		uxtb	r2, r2
 1637 001e 1A70     		strb	r2, [r3, #0]
1065:.\Generated_Source\PSoC5/CyLib.c **** }
 1638              		.loc 1 1065 0
 1639 0020 BD46     		mov	sp, r7
 1640 0022 80BC     		pop	{r7}
 1641 0024 7047     		bx	lr
 1642              		.cfi_endproc
 1643              	.LFE19:
 1644              		.size	CyILO_Start100K, .-CyILO_Start100K
 1645 0026 00BF     		.section	.text.CyILO_Stop100K,"ax",%progbits
 1646              		.align	2
 1647              		.global	CyILO_Stop100K
 1648              		.thumb
 1649              		.thumb_func
 1650              		.type	CyILO_Stop100K, %function
 1651              	CyILO_Stop100K:
 1652              	.LFB20:
1066:.\Generated_Source\PSoC5/CyLib.c **** 
1067:.\Generated_Source\PSoC5/CyLib.c **** 
1068:.\Generated_Source\PSoC5/CyLib.c **** /*******************************************************************************
1069:.\Generated_Source\PSoC5/CyLib.c **** * Function Name: CyILO_Stop100K
1070:.\Generated_Source\PSoC5/CyLib.c **** ********************************************************************************
1071:.\Generated_Source\PSoC5/CyLib.c **** *
1072:.\Generated_Source\PSoC5/CyLib.c **** * Summary:
1073:.\Generated_Source\PSoC5/CyLib.c **** *  Disables the ILO 100 KHz oscillator.
1074:.\Generated_Source\PSoC5/CyLib.c **** *
1075:.\Generated_Source\PSoC5/CyLib.c **** * Parameters:
1076:.\Generated_Source\PSoC5/CyLib.c **** *  None
1077:.\Generated_Source\PSoC5/CyLib.c **** *
1078:.\Generated_Source\PSoC5/CyLib.c **** * Return:
1079:.\Generated_Source\PSoC5/CyLib.c **** *  None
1080:.\Generated_Source\PSoC5/CyLib.c **** *
ARM GAS  C:\Users\karunmj\AppData\Local\Temp\cceFJIz4.s 			page 49


1081:.\Generated_Source\PSoC5/CyLib.c **** *******************************************************************************/
1082:.\Generated_Source\PSoC5/CyLib.c **** void CyILO_Stop100K(void) 
1083:.\Generated_Source\PSoC5/CyLib.c **** {
 1653              		.loc 1 1083 0
 1654              		.cfi_startproc
 1655              		@ args = 0, pretend = 0, frame = 0
 1656              		@ frame_needed = 1, uses_anonymous_args = 0
 1657              		@ link register save eliminated.
 1658 0000 80B4     		push	{r7}
 1659              	.LCFI53:
 1660              		.cfi_def_cfa_offset 4
 1661 0002 00AF     		add	r7, sp, #0
 1662              		.cfi_offset 7, -4
 1663              	.LCFI54:
 1664              		.cfi_def_cfa_register 7
1084:.\Generated_Source\PSoC5/CyLib.c ****     /* Clear the bit 2 of ILO RS */
1085:.\Generated_Source\PSoC5/CyLib.c ****     SLOWCLK_ILO_CR0 &= ((uint8)(~ILO_CONTROL_100KHZ_ON));
 1665              		.loc 1 1085 0
 1666 0004 44F20033 		movw	r3, #:lower16:1073758976
 1667 0008 C4F20003 		movt	r3, #:upper16:1073758976
 1668 000c 44F20032 		movw	r2, #:lower16:1073758976
 1669 0010 C4F20002 		movt	r2, #:upper16:1073758976
 1670 0014 1278     		ldrb	r2, [r2, #0]
 1671 0016 D2B2     		uxtb	r2, r2
 1672 0018 02F0FB02 		and	r2, r2, #251
 1673 001c 1A70     		strb	r2, [r3, #0]
1086:.\Generated_Source\PSoC5/CyLib.c **** }
 1674              		.loc 1 1086 0
 1675 001e BD46     		mov	sp, r7
 1676 0020 80BC     		pop	{r7}
 1677 0022 7047     		bx	lr
 1678              		.cfi_endproc
 1679              	.LFE20:
 1680              		.size	CyILO_Stop100K, .-CyILO_Stop100K
 1681              		.section	.text.CyILO_Enable33K,"ax",%progbits
 1682              		.align	2
 1683              		.global	CyILO_Enable33K
 1684              		.thumb
 1685              		.thumb_func
 1686              		.type	CyILO_Enable33K, %function
 1687              	CyILO_Enable33K:
 1688              	.LFB21:
1087:.\Generated_Source\PSoC5/CyLib.c **** 
1088:.\Generated_Source\PSoC5/CyLib.c **** 
1089:.\Generated_Source\PSoC5/CyLib.c **** /*******************************************************************************
1090:.\Generated_Source\PSoC5/CyLib.c **** * Function Name: CyILO_Enable33K
1091:.\Generated_Source\PSoC5/CyLib.c **** ********************************************************************************
1092:.\Generated_Source\PSoC5/CyLib.c **** *
1093:.\Generated_Source\PSoC5/CyLib.c **** * Summary:
1094:.\Generated_Source\PSoC5/CyLib.c **** *  Enables the ILO 33 KHz divider.
1095:.\Generated_Source\PSoC5/CyLib.c **** *
1096:.\Generated_Source\PSoC5/CyLib.c **** *  Note that the 33 KHz clock is generated from the 100 KHz oscillator,
1097:.\Generated_Source\PSoC5/CyLib.c **** *  so it must also be running in order to generate the 33 KHz output.
1098:.\Generated_Source\PSoC5/CyLib.c **** *
1099:.\Generated_Source\PSoC5/CyLib.c **** * Parameters:
1100:.\Generated_Source\PSoC5/CyLib.c **** *  None
1101:.\Generated_Source\PSoC5/CyLib.c **** *
ARM GAS  C:\Users\karunmj\AppData\Local\Temp\cceFJIz4.s 			page 50


1102:.\Generated_Source\PSoC5/CyLib.c **** * Return:
1103:.\Generated_Source\PSoC5/CyLib.c **** *  None
1104:.\Generated_Source\PSoC5/CyLib.c **** *
1105:.\Generated_Source\PSoC5/CyLib.c **** *******************************************************************************/
1106:.\Generated_Source\PSoC5/CyLib.c **** void CyILO_Enable33K(void) 
1107:.\Generated_Source\PSoC5/CyLib.c **** {
 1689              		.loc 1 1107 0
 1690              		.cfi_startproc
 1691              		@ args = 0, pretend = 0, frame = 0
 1692              		@ frame_needed = 1, uses_anonymous_args = 0
 1693              		@ link register save eliminated.
 1694 0000 80B4     		push	{r7}
 1695              	.LCFI55:
 1696              		.cfi_def_cfa_offset 4
 1697 0002 00AF     		add	r7, sp, #0
 1698              		.cfi_offset 7, -4
 1699              	.LCFI56:
 1700              		.cfi_def_cfa_register 7
1108:.\Generated_Source\PSoC5/CyLib.c ****     /* Set the bit 5 of ILO RS */
1109:.\Generated_Source\PSoC5/CyLib.c ****     SLOWCLK_ILO_CR0 |= ILO_CONTROL_33KHZ_ON;
 1701              		.loc 1 1109 0
 1702 0004 44F20033 		movw	r3, #:lower16:1073758976
 1703 0008 C4F20003 		movt	r3, #:upper16:1073758976
 1704 000c 44F20032 		movw	r2, #:lower16:1073758976
 1705 0010 C4F20002 		movt	r2, #:upper16:1073758976
 1706 0014 1278     		ldrb	r2, [r2, #0]
 1707 0016 D2B2     		uxtb	r2, r2
 1708 0018 42F02002 		orr	r2, r2, #32
 1709 001c D2B2     		uxtb	r2, r2
 1710 001e 1A70     		strb	r2, [r3, #0]
1110:.\Generated_Source\PSoC5/CyLib.c **** }
 1711              		.loc 1 1110 0
 1712 0020 BD46     		mov	sp, r7
 1713 0022 80BC     		pop	{r7}
 1714 0024 7047     		bx	lr
 1715              		.cfi_endproc
 1716              	.LFE21:
 1717              		.size	CyILO_Enable33K, .-CyILO_Enable33K
 1718 0026 00BF     		.section	.text.CyILO_Disable33K,"ax",%progbits
 1719              		.align	2
 1720              		.global	CyILO_Disable33K
 1721              		.thumb
 1722              		.thumb_func
 1723              		.type	CyILO_Disable33K, %function
 1724              	CyILO_Disable33K:
 1725              	.LFB22:
1111:.\Generated_Source\PSoC5/CyLib.c **** 
1112:.\Generated_Source\PSoC5/CyLib.c **** 
1113:.\Generated_Source\PSoC5/CyLib.c **** /*******************************************************************************
1114:.\Generated_Source\PSoC5/CyLib.c **** * Function Name: CyILO_Disable33K
1115:.\Generated_Source\PSoC5/CyLib.c **** ********************************************************************************
1116:.\Generated_Source\PSoC5/CyLib.c **** *
1117:.\Generated_Source\PSoC5/CyLib.c **** * Summary:
1118:.\Generated_Source\PSoC5/CyLib.c **** *  Disables the ILO 33 KHz divider.
1119:.\Generated_Source\PSoC5/CyLib.c **** *
1120:.\Generated_Source\PSoC5/CyLib.c **** *  Note that the 33 KHz clock is generated from the 100 KHz oscillator, but this
1121:.\Generated_Source\PSoC5/CyLib.c **** *  API does not disable the 100 KHz clock.
ARM GAS  C:\Users\karunmj\AppData\Local\Temp\cceFJIz4.s 			page 51


1122:.\Generated_Source\PSoC5/CyLib.c **** *
1123:.\Generated_Source\PSoC5/CyLib.c **** * Parameters:
1124:.\Generated_Source\PSoC5/CyLib.c **** *  None
1125:.\Generated_Source\PSoC5/CyLib.c **** *
1126:.\Generated_Source\PSoC5/CyLib.c **** * Return:
1127:.\Generated_Source\PSoC5/CyLib.c **** *  None
1128:.\Generated_Source\PSoC5/CyLib.c **** *
1129:.\Generated_Source\PSoC5/CyLib.c **** *******************************************************************************/
1130:.\Generated_Source\PSoC5/CyLib.c **** void CyILO_Disable33K(void) 
1131:.\Generated_Source\PSoC5/CyLib.c **** {
 1726              		.loc 1 1131 0
 1727              		.cfi_startproc
 1728              		@ args = 0, pretend = 0, frame = 0
 1729              		@ frame_needed = 1, uses_anonymous_args = 0
 1730              		@ link register save eliminated.
 1731 0000 80B4     		push	{r7}
 1732              	.LCFI57:
 1733              		.cfi_def_cfa_offset 4
 1734 0002 00AF     		add	r7, sp, #0
 1735              		.cfi_offset 7, -4
 1736              	.LCFI58:
 1737              		.cfi_def_cfa_register 7
1132:.\Generated_Source\PSoC5/CyLib.c ****     /* Clear the bit 5 of ILO RS */
1133:.\Generated_Source\PSoC5/CyLib.c ****     SLOWCLK_ILO_CR0 &= ((uint8)(~ILO_CONTROL_33KHZ_ON));
 1738              		.loc 1 1133 0
 1739 0004 44F20033 		movw	r3, #:lower16:1073758976
 1740 0008 C4F20003 		movt	r3, #:upper16:1073758976
 1741 000c 44F20032 		movw	r2, #:lower16:1073758976
 1742 0010 C4F20002 		movt	r2, #:upper16:1073758976
 1743 0014 1278     		ldrb	r2, [r2, #0]
 1744 0016 D2B2     		uxtb	r2, r2
 1745 0018 02F0DF02 		and	r2, r2, #223
 1746 001c 1A70     		strb	r2, [r3, #0]
1134:.\Generated_Source\PSoC5/CyLib.c **** }
 1747              		.loc 1 1134 0
 1748 001e BD46     		mov	sp, r7
 1749 0020 80BC     		pop	{r7}
 1750 0022 7047     		bx	lr
 1751              		.cfi_endproc
 1752              	.LFE22:
 1753              		.size	CyILO_Disable33K, .-CyILO_Disable33K
 1754              		.section	.text.CyILO_SetSource,"ax",%progbits
 1755              		.align	2
 1756              		.global	CyILO_SetSource
 1757              		.thumb
 1758              		.thumb_func
 1759              		.type	CyILO_SetSource, %function
 1760              	CyILO_SetSource:
 1761              	.LFB23:
1135:.\Generated_Source\PSoC5/CyLib.c **** 
1136:.\Generated_Source\PSoC5/CyLib.c **** 
1137:.\Generated_Source\PSoC5/CyLib.c **** /*******************************************************************************
1138:.\Generated_Source\PSoC5/CyLib.c **** * Function Name: CyILO_SetSource
1139:.\Generated_Source\PSoC5/CyLib.c **** ********************************************************************************
1140:.\Generated_Source\PSoC5/CyLib.c **** *
1141:.\Generated_Source\PSoC5/CyLib.c **** * Summary:
1142:.\Generated_Source\PSoC5/CyLib.c **** *  Sets the source of the clock output from the ILO block.
ARM GAS  C:\Users\karunmj\AppData\Local\Temp\cceFJIz4.s 			page 52


1143:.\Generated_Source\PSoC5/CyLib.c **** *
1144:.\Generated_Source\PSoC5/CyLib.c **** * Parameters:
1145:.\Generated_Source\PSoC5/CyLib.c **** *  source: One of the three available ILO output sources
1146:.\Generated_Source\PSoC5/CyLib.c **** *       Value        Define                Source
1147:.\Generated_Source\PSoC5/CyLib.c **** *       0            CY_ILO_SOURCE_100K    ILO 100 KHz
1148:.\Generated_Source\PSoC5/CyLib.c **** *       1            CY_ILO_SOURCE_33K     ILO 33 KHz
1149:.\Generated_Source\PSoC5/CyLib.c **** *       2            CY_ILO_SOURCE_1K      ILO 1 KHz
1150:.\Generated_Source\PSoC5/CyLib.c **** *
1151:.\Generated_Source\PSoC5/CyLib.c **** * Return:
1152:.\Generated_Source\PSoC5/CyLib.c **** *  None
1153:.\Generated_Source\PSoC5/CyLib.c **** *
1154:.\Generated_Source\PSoC5/CyLib.c **** *******************************************************************************/
1155:.\Generated_Source\PSoC5/CyLib.c **** void CyILO_SetSource(uint8 source) 
1156:.\Generated_Source\PSoC5/CyLib.c **** {
 1762              		.loc 1 1156 0
 1763              		.cfi_startproc
 1764              		@ args = 0, pretend = 0, frame = 8
 1765              		@ frame_needed = 1, uses_anonymous_args = 0
 1766              		@ link register save eliminated.
 1767 0000 80B4     		push	{r7}
 1768              	.LCFI59:
 1769              		.cfi_def_cfa_offset 4
 1770 0002 83B0     		sub	sp, sp, #12
 1771              	.LCFI60:
 1772              		.cfi_def_cfa_offset 16
 1773 0004 00AF     		add	r7, sp, #0
 1774              		.cfi_offset 7, -4
 1775              	.LCFI61:
 1776              		.cfi_def_cfa_register 7
 1777 0006 0346     		mov	r3, r0
 1778 0008 FB71     		strb	r3, [r7, #7]
1157:.\Generated_Source\PSoC5/CyLib.c ****     CLKDIST_CR = (CLKDIST_CR & CY_ILO_SOURCE_BITS_CLEAR) |
 1779              		.loc 1 1157 0
 1780 000a 44F20003 		movw	r3, #:lower16:1073758208
 1781 000e C4F20003 		movt	r3, #:upper16:1073758208
 1782 0012 44F20002 		movw	r2, #:lower16:1073758208
 1783 0016 C4F20002 		movt	r2, #:upper16:1073758208
 1784 001a 1278     		ldrb	r2, [r2, #0]
 1785 001c D2B2     		uxtb	r2, r2
 1786 001e 1146     		mov	r1, r2
 1787 0020 01F0F301 		and	r1, r1, #243
1158:.\Generated_Source\PSoC5/CyLib.c ****                     (((uint8) (source << 2u)) & ((uint8)(~CY_ILO_SOURCE_BITS_CLEAR)));
 1788              		.loc 1 1158 0
 1789 0024 FA79     		ldrb	r2, [r7, #7]
 1790 0026 4FEA8202 		lsl	r2, r2, #2
 1791 002a D2B2     		uxtb	r2, r2
 1792              		.loc 1 1157 0
 1793 002c 02F00C02 		and	r2, r2, #12
 1794 0030 41EA0202 		orr	r2, r1, r2
 1795 0034 D2B2     		uxtb	r2, r2
 1796 0036 1A70     		strb	r2, [r3, #0]
1159:.\Generated_Source\PSoC5/CyLib.c **** }
 1797              		.loc 1 1159 0
 1798 0038 07F10C07 		add	r7, r7, #12
 1799 003c BD46     		mov	sp, r7
 1800 003e 80BC     		pop	{r7}
 1801 0040 7047     		bx	lr
ARM GAS  C:\Users\karunmj\AppData\Local\Temp\cceFJIz4.s 			page 53


 1802              		.cfi_endproc
 1803              	.LFE23:
 1804              		.size	CyILO_SetSource, .-CyILO_SetSource
 1805 0042 00BF     		.section	.text.CyILO_SetPowerMode,"ax",%progbits
 1806              		.align	2
 1807              		.global	CyILO_SetPowerMode
 1808              		.thumb
 1809              		.thumb_func
 1810              		.type	CyILO_SetPowerMode, %function
 1811              	CyILO_SetPowerMode:
 1812              	.LFB24:
1160:.\Generated_Source\PSoC5/CyLib.c **** 
1161:.\Generated_Source\PSoC5/CyLib.c **** 
1162:.\Generated_Source\PSoC5/CyLib.c **** /*******************************************************************************
1163:.\Generated_Source\PSoC5/CyLib.c **** * Function Name: CyILO_SetPowerMode
1164:.\Generated_Source\PSoC5/CyLib.c **** ********************************************************************************
1165:.\Generated_Source\PSoC5/CyLib.c **** *
1166:.\Generated_Source\PSoC5/CyLib.c **** * Summary:
1167:.\Generated_Source\PSoC5/CyLib.c **** *  Sets the power mode used by the ILO during power down. Allows for lower power
1168:.\Generated_Source\PSoC5/CyLib.c **** *  down power usage resulting in a slower startup time.
1169:.\Generated_Source\PSoC5/CyLib.c **** *
1170:.\Generated_Source\PSoC5/CyLib.c **** * Parameters:
1171:.\Generated_Source\PSoC5/CyLib.c **** *  uint8 mode
1172:.\Generated_Source\PSoC5/CyLib.c **** *   CY_ILO_FAST_START - Faster start-up, internal bias left on when powered down
1173:.\Generated_Source\PSoC5/CyLib.c **** *   CY_ILO_SLOW_START - Slower start-up, internal bias off when powered down
1174:.\Generated_Source\PSoC5/CyLib.c **** *
1175:.\Generated_Source\PSoC5/CyLib.c **** * Return:
1176:.\Generated_Source\PSoC5/CyLib.c **** *   Prevous power mode state.
1177:.\Generated_Source\PSoC5/CyLib.c **** *
1178:.\Generated_Source\PSoC5/CyLib.c **** *******************************************************************************/
1179:.\Generated_Source\PSoC5/CyLib.c **** uint8 CyILO_SetPowerMode(uint8 mode) 
1180:.\Generated_Source\PSoC5/CyLib.c **** {
 1813              		.loc 1 1180 0
 1814              		.cfi_startproc
 1815              		@ args = 0, pretend = 0, frame = 16
 1816              		@ frame_needed = 1, uses_anonymous_args = 0
 1817              		@ link register save eliminated.
 1818 0000 80B4     		push	{r7}
 1819              	.LCFI62:
 1820              		.cfi_def_cfa_offset 4
 1821 0002 85B0     		sub	sp, sp, #20
 1822              	.LCFI63:
 1823              		.cfi_def_cfa_offset 24
 1824 0004 00AF     		add	r7, sp, #0
 1825              		.cfi_offset 7, -4
 1826              	.LCFI64:
 1827              		.cfi_def_cfa_register 7
 1828 0006 0346     		mov	r3, r0
 1829 0008 FB71     		strb	r3, [r7, #7]
1181:.\Generated_Source\PSoC5/CyLib.c ****     uint8 state;
1182:.\Generated_Source\PSoC5/CyLib.c **** 
1183:.\Generated_Source\PSoC5/CyLib.c ****     /* Get current state. */
1184:.\Generated_Source\PSoC5/CyLib.c ****     state = SLOWCLK_ILO_CR0;
 1830              		.loc 1 1184 0
 1831 000a 44F20033 		movw	r3, #:lower16:1073758976
 1832 000e C4F20003 		movt	r3, #:upper16:1073758976
 1833 0012 1B78     		ldrb	r3, [r3, #0]
ARM GAS  C:\Users\karunmj\AppData\Local\Temp\cceFJIz4.s 			page 54


 1834 0014 FB73     		strb	r3, [r7, #15]
1185:.\Generated_Source\PSoC5/CyLib.c **** 
1186:.\Generated_Source\PSoC5/CyLib.c ****     /* Set the the oscillator power mode. */
1187:.\Generated_Source\PSoC5/CyLib.c ****     if(mode != CY_ILO_FAST_START)
 1835              		.loc 1 1187 0
 1836 0016 FB79     		ldrb	r3, [r7, #7]	@ zero_extendqisi2
 1837 0018 002B     		cmp	r3, #0
 1838 001a 09D0     		beq	.L119
1188:.\Generated_Source\PSoC5/CyLib.c ****     {
1189:.\Generated_Source\PSoC5/CyLib.c ****         SLOWCLK_ILO_CR0 = (state | ILO_CONTROL_PD_MODE);
 1839              		.loc 1 1189 0
 1840 001c 44F20033 		movw	r3, #:lower16:1073758976
 1841 0020 C4F20003 		movt	r3, #:upper16:1073758976
 1842 0024 FA7B     		ldrb	r2, [r7, #15]
 1843 0026 42F01002 		orr	r2, r2, #16
 1844 002a D2B2     		uxtb	r2, r2
 1845 002c 1A70     		strb	r2, [r3, #0]
 1846 002e 07E0     		b	.L120
 1847              	.L119:
1190:.\Generated_Source\PSoC5/CyLib.c ****     }
1191:.\Generated_Source\PSoC5/CyLib.c ****     else
1192:.\Generated_Source\PSoC5/CyLib.c ****     {
1193:.\Generated_Source\PSoC5/CyLib.c ****         SLOWCLK_ILO_CR0 = (state & ((uint8)(~ILO_CONTROL_PD_MODE)));
 1848              		.loc 1 1193 0
 1849 0030 44F20033 		movw	r3, #:lower16:1073758976
 1850 0034 C4F20003 		movt	r3, #:upper16:1073758976
 1851 0038 FA7B     		ldrb	r2, [r7, #15]	@ zero_extendqisi2
 1852 003a 02F0EF02 		and	r2, r2, #239
 1853 003e 1A70     		strb	r2, [r3, #0]
 1854              	.L120:
1194:.\Generated_Source\PSoC5/CyLib.c ****     }
1195:.\Generated_Source\PSoC5/CyLib.c **** 
1196:.\Generated_Source\PSoC5/CyLib.c ****     /* Return the old mode. */
1197:.\Generated_Source\PSoC5/CyLib.c ****     return ((state & ILO_CONTROL_PD_MODE) >> ILO_CONTROL_PD_POSITION);
 1855              		.loc 1 1197 0
 1856 0040 FB7B     		ldrb	r3, [r7, #15]	@ zero_extendqisi2
 1857 0042 03F01003 		and	r3, r3, #16
 1858 0046 4FEA1313 		lsr	r3, r3, #4
 1859 004a DBB2     		uxtb	r3, r3
1198:.\Generated_Source\PSoC5/CyLib.c **** }
 1860              		.loc 1 1198 0
 1861 004c 1846     		mov	r0, r3
 1862 004e 07F11407 		add	r7, r7, #20
 1863 0052 BD46     		mov	sp, r7
 1864 0054 80BC     		pop	{r7}
 1865 0056 7047     		bx	lr
 1866              		.cfi_endproc
 1867              	.LFE24:
 1868              		.size	CyILO_SetPowerMode, .-CyILO_SetPowerMode
 1869              		.section	.text.CyXTAL_32KHZ_Start,"ax",%progbits
 1870              		.align	2
 1871              		.global	CyXTAL_32KHZ_Start
 1872              		.thumb
 1873              		.thumb_func
 1874              		.type	CyXTAL_32KHZ_Start, %function
 1875              	CyXTAL_32KHZ_Start:
 1876              	.LFB25:
ARM GAS  C:\Users\karunmj\AppData\Local\Temp\cceFJIz4.s 			page 55


1199:.\Generated_Source\PSoC5/CyLib.c **** 
1200:.\Generated_Source\PSoC5/CyLib.c **** 
1201:.\Generated_Source\PSoC5/CyLib.c **** /*******************************************************************************
1202:.\Generated_Source\PSoC5/CyLib.c **** * Function Name: CyXTAL_32KHZ_Start
1203:.\Generated_Source\PSoC5/CyLib.c **** ********************************************************************************
1204:.\Generated_Source\PSoC5/CyLib.c **** *
1205:.\Generated_Source\PSoC5/CyLib.c **** * Summary:
1206:.\Generated_Source\PSoC5/CyLib.c **** *  Enables the 32 KHz Crystal Oscillator.
1207:.\Generated_Source\PSoC5/CyLib.c **** *
1208:.\Generated_Source\PSoC5/CyLib.c **** * Parameters:
1209:.\Generated_Source\PSoC5/CyLib.c **** *  None
1210:.\Generated_Source\PSoC5/CyLib.c **** *
1211:.\Generated_Source\PSoC5/CyLib.c **** * Return:
1212:.\Generated_Source\PSoC5/CyLib.c **** *  None
1213:.\Generated_Source\PSoC5/CyLib.c **** *
1214:.\Generated_Source\PSoC5/CyLib.c **** *******************************************************************************/
1215:.\Generated_Source\PSoC5/CyLib.c **** void CyXTAL_32KHZ_Start(void) 
1216:.\Generated_Source\PSoC5/CyLib.c **** {
 1877              		.loc 1 1216 0
 1878              		.cfi_startproc
 1879              		@ args = 0, pretend = 0, frame = 8
 1880              		@ frame_needed = 1, uses_anonymous_args = 0
 1881 0000 80B5     		push	{r7, lr}
 1882              	.LCFI65:
 1883              		.cfi_def_cfa_offset 8
 1884 0002 82B0     		sub	sp, sp, #8
 1885              	.LCFI66:
 1886              		.cfi_def_cfa_offset 16
 1887 0004 00AF     		add	r7, sp, #0
 1888              		.cfi_offset 14, -4
 1889              		.cfi_offset 7, -8
 1890              	.LCFI67:
 1891              		.cfi_def_cfa_register 7
1217:.\Generated_Source\PSoC5/CyLib.c ****     volatile uint16 i;
1218:.\Generated_Source\PSoC5/CyLib.c **** 
1219:.\Generated_Source\PSoC5/CyLib.c ****     CY_CLK_XTAL32_TST_REG = CY_CLK_XTAL32_TST_DEFAULT;
 1892              		.loc 1 1219 0
 1893 0006 44F20A33 		movw	r3, #:lower16:1073758986
 1894 000a C4F20003 		movt	r3, #:upper16:1073758986
 1895 000e 6FF00C02 		mvn	r2, #12
 1896 0012 1A70     		strb	r2, [r3, #0]
1220:.\Generated_Source\PSoC5/CyLib.c ****     CY_CLK_XTAL32_TR_REG  = CY_CLK_XTAL32_TR_STARTUP;
 1897              		.loc 1 1220 0
 1898 0014 44F29863 		movw	r3, #:lower16:1073759896
 1899 0018 C4F20003 		movt	r3, #:upper16:1073759896
 1900 001c 4FF00302 		mov	r2, #3
 1901 0020 1A70     		strb	r2, [r3, #0]
1221:.\Generated_Source\PSoC5/CyLib.c ****     CY_CLK_XTAL32_CFG_REG = (CY_CLK_XTAL32_CFG_REG & ((uint8)(~CY_CLK_XTAL32_CFG_LP_MASK))) |
 1902              		.loc 1 1221 0
 1903 0022 44F20933 		movw	r3, #:lower16:1073758985
 1904 0026 C4F20003 		movt	r3, #:upper16:1073758985
 1905 002a 44F20932 		movw	r2, #:lower16:1073758985
 1906 002e C4F20002 		movt	r2, #:upper16:1073758985
 1907 0032 1278     		ldrb	r2, [r2, #0]
 1908 0034 D2B2     		uxtb	r2, r2
 1909 0036 02F0F302 		and	r2, r2, #243
 1910 003a 42F00402 		orr	r2, r2, #4
ARM GAS  C:\Users\karunmj\AppData\Local\Temp\cceFJIz4.s 			page 56


 1911 003e D2B2     		uxtb	r2, r2
 1912 0040 1A70     		strb	r2, [r3, #0]
1222:.\Generated_Source\PSoC5/CyLib.c ****                                 CY_CLK_XTAL32_CFG_LP_DEFAULT;
1223:.\Generated_Source\PSoC5/CyLib.c **** 
1224:.\Generated_Source\PSoC5/CyLib.c ****     #if(CY_PSOC3)
1225:.\Generated_Source\PSoC5/CyLib.c ****         CY_CLK_XTAL32_CR_REG |= CY_CLK_XTAL32_CR_PDBEN;
1226:.\Generated_Source\PSoC5/CyLib.c ****     #endif  /* (CY_PSOC3) */
1227:.\Generated_Source\PSoC5/CyLib.c **** 
1228:.\Generated_Source\PSoC5/CyLib.c ****     /* Enable operation of the 32K Crystal Oscillator */
1229:.\Generated_Source\PSoC5/CyLib.c ****     CY_CLK_XTAL32_CR_REG |= CY_CLK_XTAL32_CR_EN;
 1913              		.loc 1 1229 0
 1914 0042 44F20833 		movw	r3, #:lower16:1073758984
 1915 0046 C4F20003 		movt	r3, #:upper16:1073758984
 1916 004a 44F20832 		movw	r2, #:lower16:1073758984
 1917 004e C4F20002 		movt	r2, #:upper16:1073758984
 1918 0052 1278     		ldrb	r2, [r2, #0]
 1919 0054 D2B2     		uxtb	r2, r2
 1920 0056 42F00102 		orr	r2, r2, #1
 1921 005a D2B2     		uxtb	r2, r2
 1922 005c 1A70     		strb	r2, [r3, #0]
1230:.\Generated_Source\PSoC5/CyLib.c **** 
1231:.\Generated_Source\PSoC5/CyLib.c ****     for (i = 1000u; i > 0u; i--)
 1923              		.loc 1 1231 0
 1924 005e 4FF47A73 		mov	r3, #1000
 1925 0062 FB80     		strh	r3, [r7, #6]	@ movhi
 1926 0064 15E0     		b	.L123
 1927              	.L126:
1232:.\Generated_Source\PSoC5/CyLib.c ****     {
1233:.\Generated_Source\PSoC5/CyLib.c ****         if(0u != (CyXTAL_32KHZ_ReadStatus() & CY_XTAL32K_ANA_STAT))
 1928              		.loc 1 1233 0
 1929 0066 FFF7FEFF 		bl	CyXTAL_32KHZ_ReadStatus
 1930 006a 0346     		mov	r3, r0
 1931 006c 03F02003 		and	r3, r3, #32
 1932 0070 002B     		cmp	r3, #0
 1933 0072 04D0     		beq	.L124
1234:.\Generated_Source\PSoC5/CyLib.c ****         {
1235:.\Generated_Source\PSoC5/CyLib.c ****             /* Ready - switch to the hign power mode */
1236:.\Generated_Source\PSoC5/CyLib.c ****             (void) CyXTAL_32KHZ_SetPowerMode(0u);
 1934              		.loc 1 1236 0
 1935 0074 4FF00000 		mov	r0, #0
 1936 0078 FFF7FEFF 		bl	CyXTAL_32KHZ_SetPowerMode
1237:.\Generated_Source\PSoC5/CyLib.c **** 
1238:.\Generated_Source\PSoC5/CyLib.c ****             break;
 1937              		.loc 1 1238 0
 1938 007c 0DE0     		b	.L127
 1939              	.L124:
1239:.\Generated_Source\PSoC5/CyLib.c ****         }
1240:.\Generated_Source\PSoC5/CyLib.c ****         CyDelayUs(1u);
 1940              		.loc 1 1240 0
 1941 007e 4FF00100 		mov	r0, #1
 1942 0082 FFF7FEFF 		bl	CyDelayUs
 1943              		.loc 1 1231 0
 1944 0086 FB88     		ldrh	r3, [r7, #6]	@ movhi
 1945 0088 9BB2     		uxth	r3, r3
 1946 008a 03F1FF33 		add	r3, r3, #-1
 1947 008e 9BB2     		uxth	r3, r3
 1948 0090 FB80     		strh	r3, [r7, #6]	@ movhi
ARM GAS  C:\Users\karunmj\AppData\Local\Temp\cceFJIz4.s 			page 57


 1949              	.L123:
 1950 0092 FB88     		ldrh	r3, [r7, #6]	@ movhi
 1951 0094 9BB2     		uxth	r3, r3
 1952 0096 002B     		cmp	r3, #0
 1953 0098 E5D1     		bne	.L126
 1954              	.L127:
1241:.\Generated_Source\PSoC5/CyLib.c ****     }
1242:.\Generated_Source\PSoC5/CyLib.c **** }
 1955              		.loc 1 1242 0
 1956 009a 07F10807 		add	r7, r7, #8
 1957 009e BD46     		mov	sp, r7
 1958 00a0 80BD     		pop	{r7, pc}
 1959              		.cfi_endproc
 1960              	.LFE25:
 1961              		.size	CyXTAL_32KHZ_Start, .-CyXTAL_32KHZ_Start
 1962 00a2 00BF     		.section	.text.CyXTAL_32KHZ_Stop,"ax",%progbits
 1963              		.align	2
 1964              		.global	CyXTAL_32KHZ_Stop
 1965              		.thumb
 1966              		.thumb_func
 1967              		.type	CyXTAL_32KHZ_Stop, %function
 1968              	CyXTAL_32KHZ_Stop:
 1969              	.LFB26:
1243:.\Generated_Source\PSoC5/CyLib.c **** 
1244:.\Generated_Source\PSoC5/CyLib.c **** 
1245:.\Generated_Source\PSoC5/CyLib.c **** /*******************************************************************************
1246:.\Generated_Source\PSoC5/CyLib.c **** * Function Name: CyXTAL_32KHZ_Stop
1247:.\Generated_Source\PSoC5/CyLib.c **** ********************************************************************************
1248:.\Generated_Source\PSoC5/CyLib.c **** *
1249:.\Generated_Source\PSoC5/CyLib.c **** * Summary:
1250:.\Generated_Source\PSoC5/CyLib.c **** *  Disables the 32KHz Crystal Oscillator.
1251:.\Generated_Source\PSoC5/CyLib.c **** *
1252:.\Generated_Source\PSoC5/CyLib.c **** * Parameters:
1253:.\Generated_Source\PSoC5/CyLib.c **** *  None
1254:.\Generated_Source\PSoC5/CyLib.c **** *
1255:.\Generated_Source\PSoC5/CyLib.c **** * Return:
1256:.\Generated_Source\PSoC5/CyLib.c **** *  None
1257:.\Generated_Source\PSoC5/CyLib.c **** *
1258:.\Generated_Source\PSoC5/CyLib.c **** *******************************************************************************/
1259:.\Generated_Source\PSoC5/CyLib.c **** void CyXTAL_32KHZ_Stop(void) 
1260:.\Generated_Source\PSoC5/CyLib.c **** {
 1970              		.loc 1 1260 0
 1971              		.cfi_startproc
 1972              		@ args = 0, pretend = 0, frame = 0
 1973              		@ frame_needed = 1, uses_anonymous_args = 0
 1974              		@ link register save eliminated.
 1975 0000 80B4     		push	{r7}
 1976              	.LCFI68:
 1977              		.cfi_def_cfa_offset 4
 1978 0002 00AF     		add	r7, sp, #0
 1979              		.cfi_offset 7, -4
 1980              	.LCFI69:
 1981              		.cfi_def_cfa_register 7
1261:.\Generated_Source\PSoC5/CyLib.c ****     CY_CLK_XTAL32_TST_REG  = CY_CLK_XTAL32_TST_DEFAULT;
 1982              		.loc 1 1261 0
 1983 0004 44F20A33 		movw	r3, #:lower16:1073758986
 1984 0008 C4F20003 		movt	r3, #:upper16:1073758986
ARM GAS  C:\Users\karunmj\AppData\Local\Temp\cceFJIz4.s 			page 58


 1985 000c 6FF00C02 		mvn	r2, #12
 1986 0010 1A70     		strb	r2, [r3, #0]
1262:.\Generated_Source\PSoC5/CyLib.c ****     CY_CLK_XTAL32_TR_REG   = CY_CLK_XTAL32_TR_POWERDOWN;
 1987              		.loc 1 1262 0
 1988 0012 44F29863 		movw	r3, #:lower16:1073759896
 1989 0016 C4F20003 		movt	r3, #:upper16:1073759896
 1990 001a 4FF00002 		mov	r2, #0
 1991 001e 1A70     		strb	r2, [r3, #0]
1263:.\Generated_Source\PSoC5/CyLib.c ****     CY_CLK_XTAL32_CFG_REG = (CY_CLK_XTAL32_CFG_REG & ((uint8)(~CY_CLK_XTAL32_CFG_LP_MASK))) | CY_CL
 1992              		.loc 1 1263 0
 1993 0020 44F20933 		movw	r3, #:lower16:1073758985
 1994 0024 C4F20003 		movt	r3, #:upper16:1073758985
 1995 0028 44F20932 		movw	r2, #:lower16:1073758985
 1996 002c C4F20002 		movt	r2, #:upper16:1073758985
 1997 0030 1278     		ldrb	r2, [r2, #0]
 1998 0032 D2B2     		uxtb	r2, r2
 1999 0034 02F0F302 		and	r2, r2, #243
 2000 0038 42F00402 		orr	r2, r2, #4
 2001 003c D2B2     		uxtb	r2, r2
 2002 003e 1A70     		strb	r2, [r3, #0]
1264:.\Generated_Source\PSoC5/CyLib.c ****     CY_CLK_XTAL32_CR_REG &= ((uint8)(~(CY_CLK_XTAL32_CR_EN | CY_CLK_XTAL32_CR_LPM)));
 2003              		.loc 1 1264 0
 2004 0040 44F20833 		movw	r3, #:lower16:1073758984
 2005 0044 C4F20003 		movt	r3, #:upper16:1073758984
 2006 0048 44F20832 		movw	r2, #:lower16:1073758984
 2007 004c C4F20002 		movt	r2, #:upper16:1073758984
 2008 0050 1278     		ldrb	r2, [r2, #0]
 2009 0052 D2B2     		uxtb	r2, r2
 2010 0054 02F0FC02 		and	r2, r2, #252
 2011 0058 1A70     		strb	r2, [r3, #0]
1265:.\Generated_Source\PSoC5/CyLib.c **** 
1266:.\Generated_Source\PSoC5/CyLib.c ****     #if(CY_PSOC3)
1267:.\Generated_Source\PSoC5/CyLib.c ****         CY_CLK_XTAL32_CR_REG &= ((uint8)(~CY_CLK_XTAL32_CR_PDBEN));
1268:.\Generated_Source\PSoC5/CyLib.c ****     #endif  /* (CY_PSOC3) */
1269:.\Generated_Source\PSoC5/CyLib.c **** }
 2012              		.loc 1 1269 0
 2013 005a BD46     		mov	sp, r7
 2014 005c 80BC     		pop	{r7}
 2015 005e 7047     		bx	lr
 2016              		.cfi_endproc
 2017              	.LFE26:
 2018              		.size	CyXTAL_32KHZ_Stop, .-CyXTAL_32KHZ_Stop
 2019              		.section	.text.CyXTAL_32KHZ_ReadStatus,"ax",%progbits
 2020              		.align	2
 2021              		.global	CyXTAL_32KHZ_ReadStatus
 2022              		.thumb
 2023              		.thumb_func
 2024              		.type	CyXTAL_32KHZ_ReadStatus, %function
 2025              	CyXTAL_32KHZ_ReadStatus:
 2026              	.LFB27:
1270:.\Generated_Source\PSoC5/CyLib.c **** 
1271:.\Generated_Source\PSoC5/CyLib.c **** 
1272:.\Generated_Source\PSoC5/CyLib.c **** /*******************************************************************************
1273:.\Generated_Source\PSoC5/CyLib.c **** * Function Name: CyXTAL_32KHZ_ReadStatus
1274:.\Generated_Source\PSoC5/CyLib.c **** ********************************************************************************
1275:.\Generated_Source\PSoC5/CyLib.c **** *
1276:.\Generated_Source\PSoC5/CyLib.c **** * Summary:
ARM GAS  C:\Users\karunmj\AppData\Local\Temp\cceFJIz4.s 			page 59


1277:.\Generated_Source\PSoC5/CyLib.c **** *  Returns status of the 32 KHz oscillator.
1278:.\Generated_Source\PSoC5/CyLib.c **** *
1279:.\Generated_Source\PSoC5/CyLib.c **** * Parameters:
1280:.\Generated_Source\PSoC5/CyLib.c **** *  None
1281:.\Generated_Source\PSoC5/CyLib.c **** *
1282:.\Generated_Source\PSoC5/CyLib.c **** * Return:
1283:.\Generated_Source\PSoC5/CyLib.c **** *  Value     Define                    Source
1284:.\Generated_Source\PSoC5/CyLib.c **** *  20        CY_XTAL32K_ANA_STAT       Analog measurement
1285:.\Generated_Source\PSoC5/CyLib.c **** *                                       1: Stable
1286:.\Generated_Source\PSoC5/CyLib.c **** *                                       0: Not stable
1287:.\Generated_Source\PSoC5/CyLib.c **** *
1288:.\Generated_Source\PSoC5/CyLib.c **** *******************************************************************************/
1289:.\Generated_Source\PSoC5/CyLib.c **** uint8 CyXTAL_32KHZ_ReadStatus(void) 
1290:.\Generated_Source\PSoC5/CyLib.c **** {
 2027              		.loc 1 1290 0
 2028              		.cfi_startproc
 2029              		@ args = 0, pretend = 0, frame = 0
 2030              		@ frame_needed = 1, uses_anonymous_args = 0
 2031              		@ link register save eliminated.
 2032 0000 80B4     		push	{r7}
 2033              	.LCFI70:
 2034              		.cfi_def_cfa_offset 4
 2035 0002 00AF     		add	r7, sp, #0
 2036              		.cfi_offset 7, -4
 2037              	.LCFI71:
 2038              		.cfi_def_cfa_register 7
1291:.\Generated_Source\PSoC5/CyLib.c ****     return(CY_CLK_XTAL32_CR_REG & CY_XTAL32K_ANA_STAT);
 2039              		.loc 1 1291 0
 2040 0004 44F20833 		movw	r3, #:lower16:1073758984
 2041 0008 C4F20003 		movt	r3, #:upper16:1073758984
 2042 000c 1B78     		ldrb	r3, [r3, #0]
 2043 000e DBB2     		uxtb	r3, r3
 2044 0010 03F02003 		and	r3, r3, #32
1292:.\Generated_Source\PSoC5/CyLib.c **** }
 2045              		.loc 1 1292 0
 2046 0014 1846     		mov	r0, r3
 2047 0016 BD46     		mov	sp, r7
 2048 0018 80BC     		pop	{r7}
 2049 001a 7047     		bx	lr
 2050              		.cfi_endproc
 2051              	.LFE27:
 2052              		.size	CyXTAL_32KHZ_ReadStatus, .-CyXTAL_32KHZ_ReadStatus
 2053              		.section	.text.CyXTAL_32KHZ_SetPowerMode,"ax",%progbits
 2054              		.align	2
 2055              		.global	CyXTAL_32KHZ_SetPowerMode
 2056              		.thumb
 2057              		.thumb_func
 2058              		.type	CyXTAL_32KHZ_SetPowerMode, %function
 2059              	CyXTAL_32KHZ_SetPowerMode:
 2060              	.LFB28:
1293:.\Generated_Source\PSoC5/CyLib.c **** 
1294:.\Generated_Source\PSoC5/CyLib.c **** 
1295:.\Generated_Source\PSoC5/CyLib.c **** /*******************************************************************************
1296:.\Generated_Source\PSoC5/CyLib.c **** * Function Name: CyXTAL_32KHZ_SetPowerMode
1297:.\Generated_Source\PSoC5/CyLib.c **** ********************************************************************************
1298:.\Generated_Source\PSoC5/CyLib.c **** *
1299:.\Generated_Source\PSoC5/CyLib.c **** * Summary:
ARM GAS  C:\Users\karunmj\AppData\Local\Temp\cceFJIz4.s 			page 60


1300:.\Generated_Source\PSoC5/CyLib.c **** *  Sets the power mode for the 32 KHz oscillator used during sleep mode.
1301:.\Generated_Source\PSoC5/CyLib.c **** *  Allows for lower power during sleep when there are fewer sources of noise.
1302:.\Generated_Source\PSoC5/CyLib.c **** *  During active mode the oscillator is always run in high power mode.
1303:.\Generated_Source\PSoC5/CyLib.c **** *
1304:.\Generated_Source\PSoC5/CyLib.c **** * Parameters:
1305:.\Generated_Source\PSoC5/CyLib.c **** *  uint8 mode
1306:.\Generated_Source\PSoC5/CyLib.c **** *       0: High power mode
1307:.\Generated_Source\PSoC5/CyLib.c **** *       1: Low power mode during sleep
1308:.\Generated_Source\PSoC5/CyLib.c **** *
1309:.\Generated_Source\PSoC5/CyLib.c **** * Return:
1310:.\Generated_Source\PSoC5/CyLib.c **** *  Previous power mode.
1311:.\Generated_Source\PSoC5/CyLib.c **** *
1312:.\Generated_Source\PSoC5/CyLib.c **** *******************************************************************************/
1313:.\Generated_Source\PSoC5/CyLib.c **** uint8 CyXTAL_32KHZ_SetPowerMode(uint8 mode) 
1314:.\Generated_Source\PSoC5/CyLib.c **** {
 2061              		.loc 1 1314 0
 2062              		.cfi_startproc
 2063              		@ args = 0, pretend = 0, frame = 16
 2064              		@ frame_needed = 1, uses_anonymous_args = 0
 2065 0000 80B5     		push	{r7, lr}
 2066              	.LCFI72:
 2067              		.cfi_def_cfa_offset 8
 2068 0002 84B0     		sub	sp, sp, #16
 2069              	.LCFI73:
 2070              		.cfi_def_cfa_offset 24
 2071 0004 00AF     		add	r7, sp, #0
 2072              		.cfi_offset 14, -4
 2073              		.cfi_offset 7, -8
 2074              	.LCFI74:
 2075              		.cfi_def_cfa_register 7
 2076 0006 0346     		mov	r3, r0
 2077 0008 FB71     		strb	r3, [r7, #7]
1315:.\Generated_Source\PSoC5/CyLib.c ****     uint8 state = (0u != (CY_CLK_XTAL32_CR_REG & CY_CLK_XTAL32_CR_LPM)) ? 1u : 0u;
 2078              		.loc 1 1315 0
 2079 000a 44F20833 		movw	r3, #:lower16:1073758984
 2080 000e C4F20003 		movt	r3, #:upper16:1073758984
 2081 0012 1B78     		ldrb	r3, [r3, #0]
 2082 0014 DBB2     		uxtb	r3, r3
 2083 0016 03F00203 		and	r3, r3, #2
 2084 001a 002B     		cmp	r3, #0
 2085 001c 02D0     		beq	.L133
 2086 001e 4FF00103 		mov	r3, #1
 2087 0022 01E0     		b	.L134
 2088              	.L133:
 2089 0024 4FF00003 		mov	r3, #0
 2090              	.L134:
 2091 0028 FB73     		strb	r3, [r7, #15]
1316:.\Generated_Source\PSoC5/CyLib.c **** 
1317:.\Generated_Source\PSoC5/CyLib.c ****     CY_CLK_XTAL32_TST_REG = CY_CLK_XTAL32_TST_DEFAULT;
 2092              		.loc 1 1317 0
 2093 002a 44F20A33 		movw	r3, #:lower16:1073758986
 2094 002e C4F20003 		movt	r3, #:upper16:1073758986
 2095 0032 6FF00C02 		mvn	r2, #12
 2096 0036 1A70     		strb	r2, [r3, #0]
1318:.\Generated_Source\PSoC5/CyLib.c **** 
1319:.\Generated_Source\PSoC5/CyLib.c ****     if(1u == mode)
 2097              		.loc 1 1319 0
ARM GAS  C:\Users\karunmj\AppData\Local\Temp\cceFJIz4.s 			page 61


 2098 0038 FB79     		ldrb	r3, [r7, #7]	@ zero_extendqisi2
 2099 003a 012B     		cmp	r3, #1
 2100 003c 2DD1     		bne	.L135
1320:.\Generated_Source\PSoC5/CyLib.c ****     {
1321:.\Generated_Source\PSoC5/CyLib.c ****         /* Low power mode during Sleep */
1322:.\Generated_Source\PSoC5/CyLib.c ****         CY_CLK_XTAL32_TR_REG  = CY_CLK_XTAL32_TR_LOW_POWER;
 2101              		.loc 1 1322 0
 2102 003e 44F29863 		movw	r3, #:lower16:1073759896
 2103 0042 C4F20003 		movt	r3, #:upper16:1073759896
 2104 0046 4FF00102 		mov	r2, #1
 2105 004a 1A70     		strb	r2, [r3, #0]
1323:.\Generated_Source\PSoC5/CyLib.c ****         CyDelayUs(10u);
 2106              		.loc 1 1323 0
 2107 004c 4FF00A00 		mov	r0, #10
 2108 0050 FFF7FEFF 		bl	CyDelayUs
1324:.\Generated_Source\PSoC5/CyLib.c ****         CY_CLK_XTAL32_CFG_REG = (CY_CLK_XTAL32_CFG_REG & ((uint8)(~CY_CLK_XTAL32_CFG_LP_MASK))) | C
 2109              		.loc 1 1324 0
 2110 0054 44F20933 		movw	r3, #:lower16:1073758985
 2111 0058 C4F20003 		movt	r3, #:upper16:1073758985
 2112 005c 44F20932 		movw	r2, #:lower16:1073758985
 2113 0060 C4F20002 		movt	r2, #:upper16:1073758985
 2114 0064 1278     		ldrb	r2, [r2, #0]
 2115 0066 D2B2     		uxtb	r2, r2
 2116 0068 02F0F302 		and	r2, r2, #243
 2117 006c 42F00802 		orr	r2, r2, #8
 2118 0070 D2B2     		uxtb	r2, r2
 2119 0072 1A70     		strb	r2, [r3, #0]
1325:.\Generated_Source\PSoC5/CyLib.c ****         CyDelayUs(20u);
 2120              		.loc 1 1325 0
 2121 0074 4FF01400 		mov	r0, #20
 2122 0078 FFF7FEFF 		bl	CyDelayUs
1326:.\Generated_Source\PSoC5/CyLib.c ****         CY_CLK_XTAL32_CR_REG |= CY_CLK_XTAL32_CR_LPM;
 2123              		.loc 1 1326 0
 2124 007c 44F20833 		movw	r3, #:lower16:1073758984
 2125 0080 C4F20003 		movt	r3, #:upper16:1073758984
 2126 0084 44F20832 		movw	r2, #:lower16:1073758984
 2127 0088 C4F20002 		movt	r2, #:upper16:1073758984
 2128 008c 1278     		ldrb	r2, [r2, #0]
 2129 008e D2B2     		uxtb	r2, r2
 2130 0090 42F00202 		orr	r2, r2, #2
 2131 0094 D2B2     		uxtb	r2, r2
 2132 0096 1A70     		strb	r2, [r3, #0]
 2133 0098 27E0     		b	.L136
 2134              	.L135:
1327:.\Generated_Source\PSoC5/CyLib.c ****     }
1328:.\Generated_Source\PSoC5/CyLib.c ****     else
1329:.\Generated_Source\PSoC5/CyLib.c ****     {
1330:.\Generated_Source\PSoC5/CyLib.c ****         /* High power mode */
1331:.\Generated_Source\PSoC5/CyLib.c ****         CY_CLK_XTAL32_TR_REG  = CY_CLK_XTAL32_TR_HIGH_POWER;
 2135              		.loc 1 1331 0
 2136 009a 44F29863 		movw	r3, #:lower16:1073759896
 2137 009e C4F20003 		movt	r3, #:upper16:1073759896
 2138 00a2 4FF00602 		mov	r2, #6
 2139 00a6 1A70     		strb	r2, [r3, #0]
1332:.\Generated_Source\PSoC5/CyLib.c ****         CyDelayUs(10u);
 2140              		.loc 1 1332 0
 2141 00a8 4FF00A00 		mov	r0, #10
ARM GAS  C:\Users\karunmj\AppData\Local\Temp\cceFJIz4.s 			page 62


 2142 00ac FFF7FEFF 		bl	CyDelayUs
1333:.\Generated_Source\PSoC5/CyLib.c ****         CY_CLK_XTAL32_CFG_REG = (CY_CLK_XTAL32_CFG_REG & ((uint8)(~CY_CLK_XTAL32_CFG_LP_MASK))) | C
 2143              		.loc 1 1333 0
 2144 00b0 44F20933 		movw	r3, #:lower16:1073758985
 2145 00b4 C4F20003 		movt	r3, #:upper16:1073758985
 2146 00b8 44F20932 		movw	r2, #:lower16:1073758985
 2147 00bc C4F20002 		movt	r2, #:upper16:1073758985
 2148 00c0 1278     		ldrb	r2, [r2, #0]
 2149 00c2 D2B2     		uxtb	r2, r2
 2150 00c4 02F0F302 		and	r2, r2, #243
 2151 00c8 42F00402 		orr	r2, r2, #4
 2152 00cc D2B2     		uxtb	r2, r2
 2153 00ce 1A70     		strb	r2, [r3, #0]
1334:.\Generated_Source\PSoC5/CyLib.c ****         CY_CLK_XTAL32_CR_REG &= ((uint8)(~CY_CLK_XTAL32_CR_LPM));
 2154              		.loc 1 1334 0
 2155 00d0 44F20833 		movw	r3, #:lower16:1073758984
 2156 00d4 C4F20003 		movt	r3, #:upper16:1073758984
 2157 00d8 44F20832 		movw	r2, #:lower16:1073758984
 2158 00dc C4F20002 		movt	r2, #:upper16:1073758984
 2159 00e0 1278     		ldrb	r2, [r2, #0]
 2160 00e2 D2B2     		uxtb	r2, r2
 2161 00e4 02F0FD02 		and	r2, r2, #253
 2162 00e8 1A70     		strb	r2, [r3, #0]
 2163              	.L136:
1335:.\Generated_Source\PSoC5/CyLib.c ****     }
1336:.\Generated_Source\PSoC5/CyLib.c **** 
1337:.\Generated_Source\PSoC5/CyLib.c ****     return(state);
 2164              		.loc 1 1337 0
 2165 00ea FB7B     		ldrb	r3, [r7, #15]	@ zero_extendqisi2
1338:.\Generated_Source\PSoC5/CyLib.c **** }
 2166              		.loc 1 1338 0
 2167 00ec 1846     		mov	r0, r3
 2168 00ee 07F11007 		add	r7, r7, #16
 2169 00f2 BD46     		mov	sp, r7
 2170 00f4 80BD     		pop	{r7, pc}
 2171              		.cfi_endproc
 2172              	.LFE28:
 2173              		.size	CyXTAL_32KHZ_SetPowerMode, .-CyXTAL_32KHZ_SetPowerMode
 2174 00f6 00BF     		.section	.text.CyXTAL_Start,"ax",%progbits
 2175              		.align	2
 2176              		.global	CyXTAL_Start
 2177              		.thumb
 2178              		.thumb_func
 2179              		.type	CyXTAL_Start, %function
 2180              	CyXTAL_Start:
 2181              	.LFB29:
1339:.\Generated_Source\PSoC5/CyLib.c **** 
1340:.\Generated_Source\PSoC5/CyLib.c **** 
1341:.\Generated_Source\PSoC5/CyLib.c **** /*******************************************************************************
1342:.\Generated_Source\PSoC5/CyLib.c **** * Function Name: CyXTAL_Start
1343:.\Generated_Source\PSoC5/CyLib.c **** ********************************************************************************
1344:.\Generated_Source\PSoC5/CyLib.c **** *
1345:.\Generated_Source\PSoC5/CyLib.c **** * Summary:
1346:.\Generated_Source\PSoC5/CyLib.c **** *  Enables the megahertz crystal.
1347:.\Generated_Source\PSoC5/CyLib.c **** *
1348:.\Generated_Source\PSoC5/CyLib.c **** *  PSoC3:
1349:.\Generated_Source\PSoC5/CyLib.c **** *  Waits until the XERR bit is low (no error) for a millisecond or until the
ARM GAS  C:\Users\karunmj\AppData\Local\Temp\cceFJIz4.s 			page 63


1350:.\Generated_Source\PSoC5/CyLib.c **** *  number of milliseconds specified by the wait parameter has expired.
1351:.\Generated_Source\PSoC5/CyLib.c **** *
1352:.\Generated_Source\PSoC5/CyLib.c **** *  PSoC5:
1353:.\Generated_Source\PSoC5/CyLib.c **** *  Waits for CY_CLK_XMHZ_MIN_TIMEOUT milliseconds (or number of milliseconds
1354:.\Generated_Source\PSoC5/CyLib.c **** *  specified by parameter if it is greater than CY_CLK_XMHZ_MIN_TIMEOUT. The
1355:.\Generated_Source\PSoC5/CyLib.c **** *  XERR bit status is not checked.
1356:.\Generated_Source\PSoC5/CyLib.c **** *
1357:.\Generated_Source\PSoC5/CyLib.c **** * Parameters:
1358:.\Generated_Source\PSoC5/CyLib.c **** *   wait: Valid range [0-255].
1359:.\Generated_Source\PSoC5/CyLib.c **** *   This is the timeout value in milliseconds.
1360:.\Generated_Source\PSoC5/CyLib.c **** *   The appropriate value is crystal specific.
1361:.\Generated_Source\PSoC5/CyLib.c **** *
1362:.\Generated_Source\PSoC5/CyLib.c **** * Return:
1363:.\Generated_Source\PSoC5/CyLib.c **** *   CYRET_SUCCESS - Completed successfully
1364:.\Generated_Source\PSoC5/CyLib.c **** *   CYRET_TIMEOUT - Timeout occurred without detecting a low value on XERR.
1365:.\Generated_Source\PSoC5/CyLib.c **** *
1366:.\Generated_Source\PSoC5/CyLib.c **** * Side Effects and Restrictions:
1367:.\Generated_Source\PSoC5/CyLib.c **** *  If wait is enabled (non-zero wait). Uses the Fast Timewheel to time the wait.
1368:.\Generated_Source\PSoC5/CyLib.c **** *  Any other use of the Fast Timewheel (FTW) will be stopped during the period
1369:.\Generated_Source\PSoC5/CyLib.c **** *  of this function and then restored.
1370:.\Generated_Source\PSoC5/CyLib.c **** *
1371:.\Generated_Source\PSoC5/CyLib.c **** *  Uses the 100KHz ILO.  If not enabled, this function will enable the 100KHz
1372:.\Generated_Source\PSoC5/CyLib.c **** *  ILO for the period of this function. No changes to the setup of the ILO,
1373:.\Generated_Source\PSoC5/CyLib.c **** *  Fast Timewheel, Central Timewheel or Once Per Second interrupt may be made
1374:.\Generated_Source\PSoC5/CyLib.c **** *  by interrupt routines during the period of this function.
1375:.\Generated_Source\PSoC5/CyLib.c **** *
1376:.\Generated_Source\PSoC5/CyLib.c **** *  The current operation of the ILO, Central Timewheel and Once Per Second
1377:.\Generated_Source\PSoC5/CyLib.c **** *  interrupt are maintained during the operation of this function provided the
1378:.\Generated_Source\PSoC5/CyLib.c **** *  reading of the Power Manager Interrupt Status Register is only done using the
1379:.\Generated_Source\PSoC5/CyLib.c **** *  CyPmReadStatus() function.
1380:.\Generated_Source\PSoC5/CyLib.c **** *
1381:.\Generated_Source\PSoC5/CyLib.c **** *******************************************************************************/
1382:.\Generated_Source\PSoC5/CyLib.c **** cystatus CyXTAL_Start(uint8 wait) 
1383:.\Generated_Source\PSoC5/CyLib.c **** {
 2182              		.loc 1 1383 0
 2183              		.cfi_startproc
 2184              		@ args = 0, pretend = 0, frame = 24
 2185              		@ frame_needed = 1, uses_anonymous_args = 0
 2186 0000 80B5     		push	{r7, lr}
 2187              	.LCFI75:
 2188              		.cfi_def_cfa_offset 8
 2189 0002 86B0     		sub	sp, sp, #24
 2190              	.LCFI76:
 2191              		.cfi_def_cfa_offset 32
 2192 0004 00AF     		add	r7, sp, #0
 2193              		.cfi_offset 14, -4
 2194              		.cfi_offset 7, -8
 2195              	.LCFI77:
 2196              		.cfi_def_cfa_register 7
 2197 0006 0346     		mov	r3, r0
 2198 0008 FB71     		strb	r3, [r7, #7]
1384:.\Generated_Source\PSoC5/CyLib.c ****     cystatus status = CYRET_SUCCESS;
 2199              		.loc 1 1384 0
 2200 000a 4FF00003 		mov	r3, #0
 2201 000e 3B61     		str	r3, [r7, #16]
1385:.\Generated_Source\PSoC5/CyLib.c **** 
1386:.\Generated_Source\PSoC5/CyLib.c ****     #if(CY_PSOC5A)
ARM GAS  C:\Users\karunmj\AppData\Local\Temp\cceFJIz4.s 			page 64


1387:.\Generated_Source\PSoC5/CyLib.c ****         volatile uint8  timeout = (wait < CY_CLK_XMHZ_MIN_TIMEOUT) ? CY_CLK_XMHZ_MIN_TIMEOUT : wait
1388:.\Generated_Source\PSoC5/CyLib.c ****     #else
1389:.\Generated_Source\PSoC5/CyLib.c ****         volatile uint8  timeout = wait;
 2202              		.loc 1 1389 0
 2203 0010 FB79     		ldrb	r3, [r7, #7]
 2204 0012 FB73     		strb	r3, [r7, #15]
1390:.\Generated_Source\PSoC5/CyLib.c ****     #endif  /* (CY_PSOC5A) */
1391:.\Generated_Source\PSoC5/CyLib.c **** 
1392:.\Generated_Source\PSoC5/CyLib.c ****     volatile uint8 count;
1393:.\Generated_Source\PSoC5/CyLib.c ****     uint8 iloEnableState;
1394:.\Generated_Source\PSoC5/CyLib.c ****     uint8 pmTwCfg0Tmp;
1395:.\Generated_Source\PSoC5/CyLib.c ****     uint8 pmTwCfg2Tmp;
1396:.\Generated_Source\PSoC5/CyLib.c **** 
1397:.\Generated_Source\PSoC5/CyLib.c **** 
1398:.\Generated_Source\PSoC5/CyLib.c ****     /* Enables the MHz crystal oscillator circuit  */
1399:.\Generated_Source\PSoC5/CyLib.c ****     CY_CLK_XMHZ_CSR_REG |= CY_CLK_XMHZ_CSR_ENABLE;
 2205              		.loc 1 1399 0
 2206 0014 44F21023 		movw	r3, #:lower16:1073758736
 2207 0018 C4F20003 		movt	r3, #:upper16:1073758736
 2208 001c 44F21022 		movw	r2, #:lower16:1073758736
 2209 0020 C4F20002 		movt	r2, #:upper16:1073758736
 2210 0024 1278     		ldrb	r2, [r2, #0]
 2211 0026 D2B2     		uxtb	r2, r2
 2212 0028 42F00102 		orr	r2, r2, #1
 2213 002c D2B2     		uxtb	r2, r2
 2214 002e 1A70     		strb	r2, [r3, #0]
1400:.\Generated_Source\PSoC5/CyLib.c **** 
1401:.\Generated_Source\PSoC5/CyLib.c **** 
1402:.\Generated_Source\PSoC5/CyLib.c ****     if(wait > 0u)
 2215              		.loc 1 1402 0
 2216 0030 FB79     		ldrb	r3, [r7, #7]	@ zero_extendqisi2
 2217 0032 002B     		cmp	r3, #0
 2218 0034 5DD0     		beq	.L139
1403:.\Generated_Source\PSoC5/CyLib.c ****     {
1404:.\Generated_Source\PSoC5/CyLib.c ****         /* Save 100 KHz ILO, FTW interval, enable and interrupt enable */
1405:.\Generated_Source\PSoC5/CyLib.c ****         iloEnableState = SLOWCLK_ILO_CR0;
 2219              		.loc 1 1405 0
 2220 0036 44F20033 		movw	r3, #:lower16:1073758976
 2221 003a C4F20003 		movt	r3, #:upper16:1073758976
 2222 003e 1B78     		ldrb	r3, [r3, #0]
 2223 0040 7B75     		strb	r3, [r7, #21]
1406:.\Generated_Source\PSoC5/CyLib.c ****         pmTwCfg0Tmp = CY_PM_TW_CFG0_REG;
 2224              		.loc 1 1406 0
 2225 0042 44F28033 		movw	r3, #:lower16:1073759104
 2226 0046 C4F20003 		movt	r3, #:upper16:1073759104
 2227 004a 1B78     		ldrb	r3, [r3, #0]
 2228 004c BB75     		strb	r3, [r7, #22]
1407:.\Generated_Source\PSoC5/CyLib.c ****         pmTwCfg2Tmp = CY_PM_TW_CFG2_REG;
 2229              		.loc 1 1407 0
 2230 004e 44F28233 		movw	r3, #:lower16:1073759106
 2231 0052 C4F20003 		movt	r3, #:upper16:1073759106
 2232 0056 1B78     		ldrb	r3, [r3, #0]
 2233 0058 FB75     		strb	r3, [r7, #23]
1408:.\Generated_Source\PSoC5/CyLib.c **** 
1409:.\Generated_Source\PSoC5/CyLib.c ****         /* Set 250 us interval */
1410:.\Generated_Source\PSoC5/CyLib.c ****         CyPmFtwSetInterval(CY_CLK_XMHZ_FTW_INTERVAL);
 2234              		.loc 1 1410 0
ARM GAS  C:\Users\karunmj\AppData\Local\Temp\cceFJIz4.s 			page 65


 2235 005a 4FF01800 		mov	r0, #24
 2236 005e FFF7FEFF 		bl	CyPmFtwSetInterval
1411:.\Generated_Source\PSoC5/CyLib.c ****         status = CYRET_TIMEOUT;
 2237              		.loc 1 1411 0
 2238 0062 4FF01003 		mov	r3, #16
 2239 0066 3B61     		str	r3, [r7, #16]
1412:.\Generated_Source\PSoC5/CyLib.c **** 
1413:.\Generated_Source\PSoC5/CyLib.c **** 
1414:.\Generated_Source\PSoC5/CyLib.c ****         for( ; timeout > 0u; timeout--)
 2240              		.loc 1 1414 0
 2241 0068 2CE0     		b	.L140
 2242              	.L145:
1415:.\Generated_Source\PSoC5/CyLib.c ****         {
1416:.\Generated_Source\PSoC5/CyLib.c ****             #if(!CY_PSOC5A)
1417:.\Generated_Source\PSoC5/CyLib.c **** 
1418:.\Generated_Source\PSoC5/CyLib.c ****                 /* Read XERR bit to clear it */
1419:.\Generated_Source\PSoC5/CyLib.c ****                 (void) CY_CLK_XMHZ_CSR_REG;
 2243              		.loc 1 1419 0
 2244 006a 44F21023 		movw	r3, #:lower16:1073758736
 2245 006e C4F20003 		movt	r3, #:upper16:1073758736
 2246 0072 1B78     		ldrb	r3, [r3, #0]
1420:.\Generated_Source\PSoC5/CyLib.c **** 
1421:.\Generated_Source\PSoC5/CyLib.c ****             #endif  /* (!CY_PSOC5A) */
1422:.\Generated_Source\PSoC5/CyLib.c **** 
1423:.\Generated_Source\PSoC5/CyLib.c **** 
1424:.\Generated_Source\PSoC5/CyLib.c ****             /* Wait for a millisecond - 4 x 250 us */
1425:.\Generated_Source\PSoC5/CyLib.c ****             for(count = 4u; count > 0u; count--)
 2247              		.loc 1 1425 0
 2248 0074 4FF00403 		mov	r3, #4
 2249 0078 BB73     		strb	r3, [r7, #14]
 2250 007a 0CE0     		b	.L141
 2251              	.L142:
1426:.\Generated_Source\PSoC5/CyLib.c ****             {
1427:.\Generated_Source\PSoC5/CyLib.c ****                 while(!(CY_PM_FTW_INT == CyPmReadStatus(CY_PM_FTW_INT)))
 2252              		.loc 1 1427 0
 2253 007c 4FF00100 		mov	r0, #1
 2254 0080 FFF7FEFF 		bl	CyPmReadStatus
 2255 0084 0346     		mov	r3, r0
 2256 0086 012B     		cmp	r3, #1
 2257 0088 F8D1     		bne	.L142
 2258              		.loc 1 1425 0
 2259 008a BB7B     		ldrb	r3, [r7, #14]
 2260 008c DBB2     		uxtb	r3, r3
 2261 008e 03F1FF33 		add	r3, r3, #-1
 2262 0092 DBB2     		uxtb	r3, r3
 2263 0094 BB73     		strb	r3, [r7, #14]
 2264              	.L141:
 2265 0096 BB7B     		ldrb	r3, [r7, #14]
 2266 0098 DBB2     		uxtb	r3, r3
 2267 009a 002B     		cmp	r3, #0
 2268 009c EED1     		bne	.L142
1428:.\Generated_Source\PSoC5/CyLib.c ****                 {
1429:.\Generated_Source\PSoC5/CyLib.c ****                     /* Wait for the FTW interrupt event */
1430:.\Generated_Source\PSoC5/CyLib.c ****                 }
1431:.\Generated_Source\PSoC5/CyLib.c ****             }
1432:.\Generated_Source\PSoC5/CyLib.c **** 
1433:.\Generated_Source\PSoC5/CyLib.c **** 
ARM GAS  C:\Users\karunmj\AppData\Local\Temp\cceFJIz4.s 			page 66


1434:.\Generated_Source\PSoC5/CyLib.c ****             #if(!CY_PSOC5A)
1435:.\Generated_Source\PSoC5/CyLib.c **** 
1436:.\Generated_Source\PSoC5/CyLib.c ****                 /*******************************************************************
1437:.\Generated_Source\PSoC5/CyLib.c ****                 * High output indicates oscillator failure.
1438:.\Generated_Source\PSoC5/CyLib.c ****                 * Only can be used after start-up interval (1 ms) is completed.
1439:.\Generated_Source\PSoC5/CyLib.c ****                 *******************************************************************/
1440:.\Generated_Source\PSoC5/CyLib.c ****                 if(0u == (CY_CLK_XMHZ_CSR_REG & CY_CLK_XMHZ_CSR_XERR))
 2269              		.loc 1 1440 0
 2270 009e 44F21023 		movw	r3, #:lower16:1073758736
 2271 00a2 C4F20003 		movt	r3, #:upper16:1073758736
 2272 00a6 1B78     		ldrb	r3, [r3, #0]
 2273 00a8 DBB2     		uxtb	r3, r3
 2274 00aa 5BB2     		sxtb	r3, r3
 2275 00ac 002B     		cmp	r3, #0
 2276 00ae 03DB     		blt	.L143
1441:.\Generated_Source\PSoC5/CyLib.c ****                 {
1442:.\Generated_Source\PSoC5/CyLib.c ****                     status = CYRET_SUCCESS;
 2277              		.loc 1 1442 0
 2278 00b0 4FF00003 		mov	r3, #0
 2279 00b4 3B61     		str	r3, [r7, #16]
1443:.\Generated_Source\PSoC5/CyLib.c ****                     break;
 2280              		.loc 1 1443 0
 2281 00b6 09E0     		b	.L144
 2282              	.L143:
 2283              		.loc 1 1414 0
 2284 00b8 FB7B     		ldrb	r3, [r7, #15]
 2285 00ba DBB2     		uxtb	r3, r3
 2286 00bc 03F1FF33 		add	r3, r3, #-1
 2287 00c0 DBB2     		uxtb	r3, r3
 2288 00c2 FB73     		strb	r3, [r7, #15]
 2289              	.L140:
 2290 00c4 FB7B     		ldrb	r3, [r7, #15]
 2291 00c6 DBB2     		uxtb	r3, r3
 2292 00c8 002B     		cmp	r3, #0
 2293 00ca CED1     		bne	.L145
 2294              	.L144:
1444:.\Generated_Source\PSoC5/CyLib.c ****                 }
1445:.\Generated_Source\PSoC5/CyLib.c **** 
1446:.\Generated_Source\PSoC5/CyLib.c ****             #endif  /* (!CY_PSOC5A) */
1447:.\Generated_Source\PSoC5/CyLib.c ****         }
1448:.\Generated_Source\PSoC5/CyLib.c **** 
1449:.\Generated_Source\PSoC5/CyLib.c **** 
1450:.\Generated_Source\PSoC5/CyLib.c ****         /* Restore 100 KHz ILO, FTW interval, enable and interrupt enable */
1451:.\Generated_Source\PSoC5/CyLib.c ****         if(0u == (iloEnableState & ILO_CONTROL_100KHZ_ON))
 2295              		.loc 1 1451 0
 2296 00cc 7B7D     		ldrb	r3, [r7, #21]	@ zero_extendqisi2
 2297 00ce 03F00403 		and	r3, r3, #4
 2298 00d2 002B     		cmp	r3, #0
 2299 00d4 01D1     		bne	.L146
1452:.\Generated_Source\PSoC5/CyLib.c ****         {
1453:.\Generated_Source\PSoC5/CyLib.c ****             CyILO_Stop100K();
 2300              		.loc 1 1453 0
 2301 00d6 FFF7FEFF 		bl	CyILO_Stop100K
 2302              	.L146:
1454:.\Generated_Source\PSoC5/CyLib.c ****         }
1455:.\Generated_Source\PSoC5/CyLib.c ****         CY_PM_TW_CFG0_REG = pmTwCfg0Tmp;
 2303              		.loc 1 1455 0
ARM GAS  C:\Users\karunmj\AppData\Local\Temp\cceFJIz4.s 			page 67


 2304 00da 44F28033 		movw	r3, #:lower16:1073759104
 2305 00de C4F20003 		movt	r3, #:upper16:1073759104
 2306 00e2 BA7D     		ldrb	r2, [r7, #22]
 2307 00e4 1A70     		strb	r2, [r3, #0]
1456:.\Generated_Source\PSoC5/CyLib.c ****         CY_PM_TW_CFG2_REG = pmTwCfg2Tmp;
 2308              		.loc 1 1456 0
 2309 00e6 44F28233 		movw	r3, #:lower16:1073759106
 2310 00ea C4F20003 		movt	r3, #:upper16:1073759106
 2311 00ee FA7D     		ldrb	r2, [r7, #23]
 2312 00f0 1A70     		strb	r2, [r3, #0]
 2313              	.L139:
1457:.\Generated_Source\PSoC5/CyLib.c ****     }
1458:.\Generated_Source\PSoC5/CyLib.c **** 
1459:.\Generated_Source\PSoC5/CyLib.c ****     return(status);
 2314              		.loc 1 1459 0
 2315 00f2 3B69     		ldr	r3, [r7, #16]
1460:.\Generated_Source\PSoC5/CyLib.c **** }
 2316              		.loc 1 1460 0
 2317 00f4 1846     		mov	r0, r3
 2318 00f6 07F11807 		add	r7, r7, #24
 2319 00fa BD46     		mov	sp, r7
 2320 00fc 80BD     		pop	{r7, pc}
 2321              		.cfi_endproc
 2322              	.LFE29:
 2323              		.size	CyXTAL_Start, .-CyXTAL_Start
 2324 00fe 00BF     		.section	.text.CyXTAL_Stop,"ax",%progbits
 2325              		.align	2
 2326              		.global	CyXTAL_Stop
 2327              		.thumb
 2328              		.thumb_func
 2329              		.type	CyXTAL_Stop, %function
 2330              	CyXTAL_Stop:
 2331              	.LFB30:
1461:.\Generated_Source\PSoC5/CyLib.c **** 
1462:.\Generated_Source\PSoC5/CyLib.c **** 
1463:.\Generated_Source\PSoC5/CyLib.c **** /*******************************************************************************
1464:.\Generated_Source\PSoC5/CyLib.c **** * Function Name: CyXTAL_Stop
1465:.\Generated_Source\PSoC5/CyLib.c **** ********************************************************************************
1466:.\Generated_Source\PSoC5/CyLib.c **** *
1467:.\Generated_Source\PSoC5/CyLib.c **** * Summary:
1468:.\Generated_Source\PSoC5/CyLib.c **** *  Disables the megahertz crystal oscillator.
1469:.\Generated_Source\PSoC5/CyLib.c **** *
1470:.\Generated_Source\PSoC5/CyLib.c **** * Parameters:
1471:.\Generated_Source\PSoC5/CyLib.c **** *  None
1472:.\Generated_Source\PSoC5/CyLib.c **** *
1473:.\Generated_Source\PSoC5/CyLib.c **** * Return:
1474:.\Generated_Source\PSoC5/CyLib.c **** *  None
1475:.\Generated_Source\PSoC5/CyLib.c **** *
1476:.\Generated_Source\PSoC5/CyLib.c **** *******************************************************************************/
1477:.\Generated_Source\PSoC5/CyLib.c **** void CyXTAL_Stop(void) 
1478:.\Generated_Source\PSoC5/CyLib.c **** {
 2332              		.loc 1 1478 0
 2333              		.cfi_startproc
 2334              		@ args = 0, pretend = 0, frame = 0
 2335              		@ frame_needed = 1, uses_anonymous_args = 0
 2336              		@ link register save eliminated.
 2337 0000 80B4     		push	{r7}
ARM GAS  C:\Users\karunmj\AppData\Local\Temp\cceFJIz4.s 			page 68


 2338              	.LCFI78:
 2339              		.cfi_def_cfa_offset 4
 2340 0002 00AF     		add	r7, sp, #0
 2341              		.cfi_offset 7, -4
 2342              	.LCFI79:
 2343              		.cfi_def_cfa_register 7
1479:.\Generated_Source\PSoC5/CyLib.c ****     /* Disable the the oscillator. */
1480:.\Generated_Source\PSoC5/CyLib.c ****     FASTCLK_XMHZ_CSR &= ((uint8)(~XMHZ_CONTROL_ENABLE));
 2344              		.loc 1 1480 0
 2345 0004 44F21023 		movw	r3, #:lower16:1073758736
 2346 0008 C4F20003 		movt	r3, #:upper16:1073758736
 2347 000c 44F21022 		movw	r2, #:lower16:1073758736
 2348 0010 C4F20002 		movt	r2, #:upper16:1073758736
 2349 0014 1278     		ldrb	r2, [r2, #0]
 2350 0016 D2B2     		uxtb	r2, r2
 2351 0018 02F0FE02 		and	r2, r2, #254
 2352 001c 1A70     		strb	r2, [r3, #0]
1481:.\Generated_Source\PSoC5/CyLib.c **** }
 2353              		.loc 1 1481 0
 2354 001e BD46     		mov	sp, r7
 2355 0020 80BC     		pop	{r7}
 2356 0022 7047     		bx	lr
 2357              		.cfi_endproc
 2358              	.LFE30:
 2359              		.size	CyXTAL_Stop, .-CyXTAL_Stop
 2360              		.section	.text.CyXTAL_EnableErrStatus,"ax",%progbits
 2361              		.align	2
 2362              		.global	CyXTAL_EnableErrStatus
 2363              		.thumb
 2364              		.thumb_func
 2365              		.type	CyXTAL_EnableErrStatus, %function
 2366              	CyXTAL_EnableErrStatus:
 2367              	.LFB31:
1482:.\Generated_Source\PSoC5/CyLib.c **** 
1483:.\Generated_Source\PSoC5/CyLib.c **** 
1484:.\Generated_Source\PSoC5/CyLib.c **** #if(!CY_PSOC5A)
1485:.\Generated_Source\PSoC5/CyLib.c **** 
1486:.\Generated_Source\PSoC5/CyLib.c ****     /*******************************************************************************
1487:.\Generated_Source\PSoC5/CyLib.c ****     * Function Name: CyXTAL_EnableErrStatus
1488:.\Generated_Source\PSoC5/CyLib.c ****     ********************************************************************************
1489:.\Generated_Source\PSoC5/CyLib.c ****     *
1490:.\Generated_Source\PSoC5/CyLib.c ****     * Summary:
1491:.\Generated_Source\PSoC5/CyLib.c ****     *  Enables the generation of the XERR status bit for the megahertz crystal.
1492:.\Generated_Source\PSoC5/CyLib.c ****     *  This function is not available for PSoC5.
1493:.\Generated_Source\PSoC5/CyLib.c ****     *
1494:.\Generated_Source\PSoC5/CyLib.c ****     * Parameters:
1495:.\Generated_Source\PSoC5/CyLib.c ****     *  None
1496:.\Generated_Source\PSoC5/CyLib.c ****     *
1497:.\Generated_Source\PSoC5/CyLib.c ****     * Return:
1498:.\Generated_Source\PSoC5/CyLib.c ****     *  None
1499:.\Generated_Source\PSoC5/CyLib.c ****     *
1500:.\Generated_Source\PSoC5/CyLib.c ****     *******************************************************************************/
1501:.\Generated_Source\PSoC5/CyLib.c ****     void CyXTAL_EnableErrStatus(void) 
1502:.\Generated_Source\PSoC5/CyLib.c ****     {
 2368              		.loc 1 1502 0
 2369              		.cfi_startproc
 2370              		@ args = 0, pretend = 0, frame = 0
ARM GAS  C:\Users\karunmj\AppData\Local\Temp\cceFJIz4.s 			page 69


 2371              		@ frame_needed = 1, uses_anonymous_args = 0
 2372              		@ link register save eliminated.
 2373 0000 80B4     		push	{r7}
 2374              	.LCFI80:
 2375              		.cfi_def_cfa_offset 4
 2376 0002 00AF     		add	r7, sp, #0
 2377              		.cfi_offset 7, -4
 2378              	.LCFI81:
 2379              		.cfi_def_cfa_register 7
1503:.\Generated_Source\PSoC5/CyLib.c ****         /* If oscillator has insufficient amplitude, XERR bit will be high. */
1504:.\Generated_Source\PSoC5/CyLib.c ****         CY_CLK_XMHZ_CSR_REG &= ((uint8)(~CY_CLK_XMHZ_CSR_XFB));
 2380              		.loc 1 1504 0
 2381 0004 44F21023 		movw	r3, #:lower16:1073758736
 2382 0008 C4F20003 		movt	r3, #:upper16:1073758736
 2383 000c 44F21022 		movw	r2, #:lower16:1073758736
 2384 0010 C4F20002 		movt	r2, #:upper16:1073758736
 2385 0014 1278     		ldrb	r2, [r2, #0]
 2386 0016 D2B2     		uxtb	r2, r2
 2387 0018 02F0FB02 		and	r2, r2, #251
 2388 001c 1A70     		strb	r2, [r3, #0]
1505:.\Generated_Source\PSoC5/CyLib.c ****     }
 2389              		.loc 1 1505 0
 2390 001e BD46     		mov	sp, r7
 2391 0020 80BC     		pop	{r7}
 2392 0022 7047     		bx	lr
 2393              		.cfi_endproc
 2394              	.LFE31:
 2395              		.size	CyXTAL_EnableErrStatus, .-CyXTAL_EnableErrStatus
 2396              		.section	.text.CyXTAL_DisableErrStatus,"ax",%progbits
 2397              		.align	2
 2398              		.global	CyXTAL_DisableErrStatus
 2399              		.thumb
 2400              		.thumb_func
 2401              		.type	CyXTAL_DisableErrStatus, %function
 2402              	CyXTAL_DisableErrStatus:
 2403              	.LFB32:
1506:.\Generated_Source\PSoC5/CyLib.c **** 
1507:.\Generated_Source\PSoC5/CyLib.c **** 
1508:.\Generated_Source\PSoC5/CyLib.c ****     /*******************************************************************************
1509:.\Generated_Source\PSoC5/CyLib.c ****     * Function Name: CyXTAL_DisableErrStatus
1510:.\Generated_Source\PSoC5/CyLib.c ****     ********************************************************************************
1511:.\Generated_Source\PSoC5/CyLib.c ****     *
1512:.\Generated_Source\PSoC5/CyLib.c ****     * Summary:
1513:.\Generated_Source\PSoC5/CyLib.c ****     *  Disables the generation of the XERR status bit for the megahertz crystal.
1514:.\Generated_Source\PSoC5/CyLib.c ****     *  This function is not available for PSoC5.
1515:.\Generated_Source\PSoC5/CyLib.c ****     *
1516:.\Generated_Source\PSoC5/CyLib.c ****     * Parameters:
1517:.\Generated_Source\PSoC5/CyLib.c ****     *  None
1518:.\Generated_Source\PSoC5/CyLib.c ****     *
1519:.\Generated_Source\PSoC5/CyLib.c ****     * Return:
1520:.\Generated_Source\PSoC5/CyLib.c ****     *  None
1521:.\Generated_Source\PSoC5/CyLib.c ****     *
1522:.\Generated_Source\PSoC5/CyLib.c ****     *******************************************************************************/
1523:.\Generated_Source\PSoC5/CyLib.c ****     void CyXTAL_DisableErrStatus(void) 
1524:.\Generated_Source\PSoC5/CyLib.c ****     {
 2404              		.loc 1 1524 0
 2405              		.cfi_startproc
ARM GAS  C:\Users\karunmj\AppData\Local\Temp\cceFJIz4.s 			page 70


 2406              		@ args = 0, pretend = 0, frame = 0
 2407              		@ frame_needed = 1, uses_anonymous_args = 0
 2408              		@ link register save eliminated.
 2409 0000 80B4     		push	{r7}
 2410              	.LCFI82:
 2411              		.cfi_def_cfa_offset 4
 2412 0002 00AF     		add	r7, sp, #0
 2413              		.cfi_offset 7, -4
 2414              	.LCFI83:
 2415              		.cfi_def_cfa_register 7
1525:.\Generated_Source\PSoC5/CyLib.c ****         /* If oscillator has insufficient amplitude, XERR bit will be high. */
1526:.\Generated_Source\PSoC5/CyLib.c ****         CY_CLK_XMHZ_CSR_REG |= CY_CLK_XMHZ_CSR_XFB;
 2416              		.loc 1 1526 0
 2417 0004 44F21023 		movw	r3, #:lower16:1073758736
 2418 0008 C4F20003 		movt	r3, #:upper16:1073758736
 2419 000c 44F21022 		movw	r2, #:lower16:1073758736
 2420 0010 C4F20002 		movt	r2, #:upper16:1073758736
 2421 0014 1278     		ldrb	r2, [r2, #0]
 2422 0016 D2B2     		uxtb	r2, r2
 2423 0018 42F00402 		orr	r2, r2, #4
 2424 001c D2B2     		uxtb	r2, r2
 2425 001e 1A70     		strb	r2, [r3, #0]
1527:.\Generated_Source\PSoC5/CyLib.c ****     }
 2426              		.loc 1 1527 0
 2427 0020 BD46     		mov	sp, r7
 2428 0022 80BC     		pop	{r7}
 2429 0024 7047     		bx	lr
 2430              		.cfi_endproc
 2431              	.LFE32:
 2432              		.size	CyXTAL_DisableErrStatus, .-CyXTAL_DisableErrStatus
 2433 0026 00BF     		.section	.text.CyXTAL_ReadStatus,"ax",%progbits
 2434              		.align	2
 2435              		.global	CyXTAL_ReadStatus
 2436              		.thumb
 2437              		.thumb_func
 2438              		.type	CyXTAL_ReadStatus, %function
 2439              	CyXTAL_ReadStatus:
 2440              	.LFB33:
1528:.\Generated_Source\PSoC5/CyLib.c **** 
1529:.\Generated_Source\PSoC5/CyLib.c **** 
1530:.\Generated_Source\PSoC5/CyLib.c ****     /*******************************************************************************
1531:.\Generated_Source\PSoC5/CyLib.c ****     * Function Name: CyXTAL_ReadStatus
1532:.\Generated_Source\PSoC5/CyLib.c ****     ********************************************************************************
1533:.\Generated_Source\PSoC5/CyLib.c ****     *
1534:.\Generated_Source\PSoC5/CyLib.c ****     * Summary:
1535:.\Generated_Source\PSoC5/CyLib.c ****     *  Reads the XERR status bit for the megahertz crystal. This status bit is a
1536:.\Generated_Source\PSoC5/CyLib.c ****     *  sticky clear on read value. This function is not available for PSoC5.
1537:.\Generated_Source\PSoC5/CyLib.c ****     *
1538:.\Generated_Source\PSoC5/CyLib.c ****     * Parameters:
1539:.\Generated_Source\PSoC5/CyLib.c ****     *  None
1540:.\Generated_Source\PSoC5/CyLib.c ****     *
1541:.\Generated_Source\PSoC5/CyLib.c ****     * Return:
1542:.\Generated_Source\PSoC5/CyLib.c ****     *   Status
1543:.\Generated_Source\PSoC5/CyLib.c ****     *    0: No error
1544:.\Generated_Source\PSoC5/CyLib.c ****     *    1: Error
1545:.\Generated_Source\PSoC5/CyLib.c ****     *
1546:.\Generated_Source\PSoC5/CyLib.c ****     *******************************************************************************/
ARM GAS  C:\Users\karunmj\AppData\Local\Temp\cceFJIz4.s 			page 71


1547:.\Generated_Source\PSoC5/CyLib.c ****     uint8 CyXTAL_ReadStatus(void) 
1548:.\Generated_Source\PSoC5/CyLib.c ****     {
 2441              		.loc 1 1548 0
 2442              		.cfi_startproc
 2443              		@ args = 0, pretend = 0, frame = 0
 2444              		@ frame_needed = 1, uses_anonymous_args = 0
 2445              		@ link register save eliminated.
 2446 0000 80B4     		push	{r7}
 2447              	.LCFI84:
 2448              		.cfi_def_cfa_offset 4
 2449 0002 00AF     		add	r7, sp, #0
 2450              		.cfi_offset 7, -4
 2451              	.LCFI85:
 2452              		.cfi_def_cfa_register 7
1549:.\Generated_Source\PSoC5/CyLib.c ****         /***************************************************************************
1550:.\Generated_Source\PSoC5/CyLib.c ****         * High output indicates oscillator failure. Only use this after start-up
1551:.\Generated_Source\PSoC5/CyLib.c ****         * interval is completed. This can be used for status and failure recovery.
1552:.\Generated_Source\PSoC5/CyLib.c ****         ***************************************************************************/
1553:.\Generated_Source\PSoC5/CyLib.c ****         return((0u != (CY_CLK_XMHZ_CSR_REG & CY_CLK_XMHZ_CSR_XERR)) ? 1u : 0u);
 2453              		.loc 1 1553 0
 2454 0004 44F21023 		movw	r3, #:lower16:1073758736
 2455 0008 C4F20003 		movt	r3, #:upper16:1073758736
 2456 000c 1B78     		ldrb	r3, [r3, #0]
 2457 000e DBB2     		uxtb	r3, r3
 2458 0010 5BB2     		sxtb	r3, r3
 2459 0012 002B     		cmp	r3, #0
 2460 0014 02DA     		bge	.L155
 2461 0016 4FF00103 		mov	r3, #1
 2462 001a 01E0     		b	.L156
 2463              	.L155:
 2464 001c 4FF00003 		mov	r3, #0
 2465              	.L156:
1554:.\Generated_Source\PSoC5/CyLib.c ****     }
 2466              		.loc 1 1554 0
 2467 0020 1846     		mov	r0, r3
 2468 0022 BD46     		mov	sp, r7
 2469 0024 80BC     		pop	{r7}
 2470 0026 7047     		bx	lr
 2471              		.cfi_endproc
 2472              	.LFE33:
 2473              		.size	CyXTAL_ReadStatus, .-CyXTAL_ReadStatus
 2474              		.section	.text.CyXTAL_EnableFaultRecovery,"ax",%progbits
 2475              		.align	2
 2476              		.global	CyXTAL_EnableFaultRecovery
 2477              		.thumb
 2478              		.thumb_func
 2479              		.type	CyXTAL_EnableFaultRecovery, %function
 2480              	CyXTAL_EnableFaultRecovery:
 2481              	.LFB34:
1555:.\Generated_Source\PSoC5/CyLib.c **** 
1556:.\Generated_Source\PSoC5/CyLib.c **** 
1557:.\Generated_Source\PSoC5/CyLib.c ****     /*******************************************************************************
1558:.\Generated_Source\PSoC5/CyLib.c ****     * Function Name: CyXTAL_EnableFaultRecovery
1559:.\Generated_Source\PSoC5/CyLib.c ****     ********************************************************************************
1560:.\Generated_Source\PSoC5/CyLib.c ****     *
1561:.\Generated_Source\PSoC5/CyLib.c ****     * Summary:
1562:.\Generated_Source\PSoC5/CyLib.c ****     *  Enables the fault recovery circuit which will switch to the IMO in the case
ARM GAS  C:\Users\karunmj\AppData\Local\Temp\cceFJIz4.s 			page 72


1563:.\Generated_Source\PSoC5/CyLib.c ****     *  of a fault in the megahertz crystal circuit. The crystal must be up and
1564:.\Generated_Source\PSoC5/CyLib.c ****     *  running with the XERR bit at 0, before calling this function to prevent
1565:.\Generated_Source\PSoC5/CyLib.c ****     *  immediate fault switchover. This function is not available for PSoC5.
1566:.\Generated_Source\PSoC5/CyLib.c ****     *
1567:.\Generated_Source\PSoC5/CyLib.c ****     * Parameters:
1568:.\Generated_Source\PSoC5/CyLib.c ****     *  None
1569:.\Generated_Source\PSoC5/CyLib.c ****     *
1570:.\Generated_Source\PSoC5/CyLib.c ****     * Return:
1571:.\Generated_Source\PSoC5/CyLib.c ****     *  None
1572:.\Generated_Source\PSoC5/CyLib.c ****     *
1573:.\Generated_Source\PSoC5/CyLib.c ****     *******************************************************************************/
1574:.\Generated_Source\PSoC5/CyLib.c ****     void CyXTAL_EnableFaultRecovery(void) 
1575:.\Generated_Source\PSoC5/CyLib.c ****     {
 2482              		.loc 1 1575 0
 2483              		.cfi_startproc
 2484              		@ args = 0, pretend = 0, frame = 0
 2485              		@ frame_needed = 1, uses_anonymous_args = 0
 2486              		@ link register save eliminated.
 2487 0000 80B4     		push	{r7}
 2488              	.LCFI86:
 2489              		.cfi_def_cfa_offset 4
 2490 0002 00AF     		add	r7, sp, #0
 2491              		.cfi_offset 7, -4
 2492              	.LCFI87:
 2493              		.cfi_def_cfa_register 7
1576:.\Generated_Source\PSoC5/CyLib.c ****         CY_CLK_XMHZ_CSR_REG |= CY_CLK_XMHZ_CSR_XPROT;
 2494              		.loc 1 1576 0
 2495 0004 44F21023 		movw	r3, #:lower16:1073758736
 2496 0008 C4F20003 		movt	r3, #:upper16:1073758736
 2497 000c 44F21022 		movw	r2, #:lower16:1073758736
 2498 0010 C4F20002 		movt	r2, #:upper16:1073758736
 2499 0014 1278     		ldrb	r2, [r2, #0]
 2500 0016 D2B2     		uxtb	r2, r2
 2501 0018 42F04002 		orr	r2, r2, #64
 2502 001c D2B2     		uxtb	r2, r2
 2503 001e 1A70     		strb	r2, [r3, #0]
1577:.\Generated_Source\PSoC5/CyLib.c ****     }
 2504              		.loc 1 1577 0
 2505 0020 BD46     		mov	sp, r7
 2506 0022 80BC     		pop	{r7}
 2507 0024 7047     		bx	lr
 2508              		.cfi_endproc
 2509              	.LFE34:
 2510              		.size	CyXTAL_EnableFaultRecovery, .-CyXTAL_EnableFaultRecovery
 2511 0026 00BF     		.section	.text.CyXTAL_DisableFaultRecovery,"ax",%progbits
 2512              		.align	2
 2513              		.global	CyXTAL_DisableFaultRecovery
 2514              		.thumb
 2515              		.thumb_func
 2516              		.type	CyXTAL_DisableFaultRecovery, %function
 2517              	CyXTAL_DisableFaultRecovery:
 2518              	.LFB35:
1578:.\Generated_Source\PSoC5/CyLib.c **** 
1579:.\Generated_Source\PSoC5/CyLib.c **** 
1580:.\Generated_Source\PSoC5/CyLib.c ****     /*******************************************************************************
1581:.\Generated_Source\PSoC5/CyLib.c ****     * Function Name: CyXTAL_DisableFaultRecovery
1582:.\Generated_Source\PSoC5/CyLib.c ****     ********************************************************************************
ARM GAS  C:\Users\karunmj\AppData\Local\Temp\cceFJIz4.s 			page 73


1583:.\Generated_Source\PSoC5/CyLib.c ****     *
1584:.\Generated_Source\PSoC5/CyLib.c ****     * Summary:
1585:.\Generated_Source\PSoC5/CyLib.c ****     *  Disables the fault recovery circuit which will switch to the IMO in the case
1586:.\Generated_Source\PSoC5/CyLib.c ****     *  of a fault in the megahertz crystal circuit. This function is not available
1587:.\Generated_Source\PSoC5/CyLib.c ****     *  for PSoC5.
1588:.\Generated_Source\PSoC5/CyLib.c ****     *
1589:.\Generated_Source\PSoC5/CyLib.c ****     * Parameters:
1590:.\Generated_Source\PSoC5/CyLib.c ****     *  None
1591:.\Generated_Source\PSoC5/CyLib.c ****     *
1592:.\Generated_Source\PSoC5/CyLib.c ****     * Return:
1593:.\Generated_Source\PSoC5/CyLib.c ****     *  None
1594:.\Generated_Source\PSoC5/CyLib.c ****     *
1595:.\Generated_Source\PSoC5/CyLib.c ****     *******************************************************************************/
1596:.\Generated_Source\PSoC5/CyLib.c ****     void CyXTAL_DisableFaultRecovery(void) 
1597:.\Generated_Source\PSoC5/CyLib.c ****     {
 2519              		.loc 1 1597 0
 2520              		.cfi_startproc
 2521              		@ args = 0, pretend = 0, frame = 0
 2522              		@ frame_needed = 1, uses_anonymous_args = 0
 2523              		@ link register save eliminated.
 2524 0000 80B4     		push	{r7}
 2525              	.LCFI88:
 2526              		.cfi_def_cfa_offset 4
 2527 0002 00AF     		add	r7, sp, #0
 2528              		.cfi_offset 7, -4
 2529              	.LCFI89:
 2530              		.cfi_def_cfa_register 7
1598:.\Generated_Source\PSoC5/CyLib.c ****         CY_CLK_XMHZ_CSR_REG &= ((uint8)(~CY_CLK_XMHZ_CSR_XPROT));
 2531              		.loc 1 1598 0
 2532 0004 44F21023 		movw	r3, #:lower16:1073758736
 2533 0008 C4F20003 		movt	r3, #:upper16:1073758736
 2534 000c 44F21022 		movw	r2, #:lower16:1073758736
 2535 0010 C4F20002 		movt	r2, #:upper16:1073758736
 2536 0014 1278     		ldrb	r2, [r2, #0]
 2537 0016 D2B2     		uxtb	r2, r2
 2538 0018 02F0BF02 		and	r2, r2, #191
 2539 001c 1A70     		strb	r2, [r3, #0]
1599:.\Generated_Source\PSoC5/CyLib.c ****     }
 2540              		.loc 1 1599 0
 2541 001e BD46     		mov	sp, r7
 2542 0020 80BC     		pop	{r7}
 2543 0022 7047     		bx	lr
 2544              		.cfi_endproc
 2545              	.LFE35:
 2546              		.size	CyXTAL_DisableFaultRecovery, .-CyXTAL_DisableFaultRecovery
 2547              		.section	.text.CyXTAL_SetStartup,"ax",%progbits
 2548              		.align	2
 2549              		.global	CyXTAL_SetStartup
 2550              		.thumb
 2551              		.thumb_func
 2552              		.type	CyXTAL_SetStartup, %function
 2553              	CyXTAL_SetStartup:
 2554              	.LFB36:
1600:.\Generated_Source\PSoC5/CyLib.c **** 
1601:.\Generated_Source\PSoC5/CyLib.c **** #endif  /* (!CY_PSOC5A) */
1602:.\Generated_Source\PSoC5/CyLib.c **** 
1603:.\Generated_Source\PSoC5/CyLib.c **** /*******************************************************************************
ARM GAS  C:\Users\karunmj\AppData\Local\Temp\cceFJIz4.s 			page 74


1604:.\Generated_Source\PSoC5/CyLib.c **** * Function Name: CyXTAL_SetStartup
1605:.\Generated_Source\PSoC5/CyLib.c **** ********************************************************************************
1606:.\Generated_Source\PSoC5/CyLib.c **** *
1607:.\Generated_Source\PSoC5/CyLib.c **** * Summary:
1608:.\Generated_Source\PSoC5/CyLib.c **** *  Sets the startup settings for the crystal. Logic model outputs a frequency
1609:.\Generated_Source\PSoC5/CyLib.c **** *  (setting + 4) MHz when enabled.
1610:.\Generated_Source\PSoC5/CyLib.c **** *
1611:.\Generated_Source\PSoC5/CyLib.c **** *  This is artificial as the actual frequency is determined by an attached
1612:.\Generated_Source\PSoC5/CyLib.c **** *  external crystal.
1613:.\Generated_Source\PSoC5/CyLib.c **** *
1614:.\Generated_Source\PSoC5/CyLib.c **** * Parameters:
1615:.\Generated_Source\PSoC5/CyLib.c **** *  setting: Valid range [0-31].
1616:.\Generated_Source\PSoC5/CyLib.c **** *   Value is dependent on the frequency and quality of the crystal being used.
1617:.\Generated_Source\PSoC5/CyLib.c **** *   Refer to the device TRM and datasheet for more information.
1618:.\Generated_Source\PSoC5/CyLib.c **** *
1619:.\Generated_Source\PSoC5/CyLib.c **** * Return:
1620:.\Generated_Source\PSoC5/CyLib.c **** *  None
1621:.\Generated_Source\PSoC5/CyLib.c **** *
1622:.\Generated_Source\PSoC5/CyLib.c **** *******************************************************************************/
1623:.\Generated_Source\PSoC5/CyLib.c **** void CyXTAL_SetStartup(uint8 setting) 
1624:.\Generated_Source\PSoC5/CyLib.c **** {
 2555              		.loc 1 1624 0
 2556              		.cfi_startproc
 2557              		@ args = 0, pretend = 0, frame = 8
 2558              		@ frame_needed = 1, uses_anonymous_args = 0
 2559              		@ link register save eliminated.
 2560 0000 80B4     		push	{r7}
 2561              	.LCFI90:
 2562              		.cfi_def_cfa_offset 4
 2563 0002 83B0     		sub	sp, sp, #12
 2564              	.LCFI91:
 2565              		.cfi_def_cfa_offset 16
 2566 0004 00AF     		add	r7, sp, #0
 2567              		.cfi_offset 7, -4
 2568              	.LCFI92:
 2569              		.cfi_def_cfa_register 7
 2570 0006 0346     		mov	r3, r0
 2571 0008 FB71     		strb	r3, [r7, #7]
1625:.\Generated_Source\PSoC5/CyLib.c ****     CY_CLK_XMHZ_CFG0_REG = (CY_CLK_XMHZ_CFG0_REG & ((uint8)(~CY_CLK_XMHZ_CFG0_XCFG_MASK))) |
 2572              		.loc 1 1625 0
 2573 000a 44F21223 		movw	r3, #:lower16:1073758738
 2574 000e C4F20003 		movt	r3, #:upper16:1073758738
 2575 0012 44F21222 		movw	r2, #:lower16:1073758738
 2576 0016 C4F20002 		movt	r2, #:upper16:1073758738
 2577 001a 1278     		ldrb	r2, [r2, #0]
 2578 001c D2B2     		uxtb	r2, r2
 2579 001e 1146     		mov	r1, r2
 2580 0020 01F0E001 		and	r1, r1, #224
 2581 0024 FA79     		ldrb	r2, [r7, #7]	@ zero_extendqisi2
 2582 0026 02F01F02 		and	r2, r2, #31
 2583 002a 41EA0202 		orr	r2, r1, r2
 2584 002e D2B2     		uxtb	r2, r2
 2585 0030 1A70     		strb	r2, [r3, #0]
1626:.\Generated_Source\PSoC5/CyLib.c ****                            (setting & CY_CLK_XMHZ_CFG0_XCFG_MASK);
1627:.\Generated_Source\PSoC5/CyLib.c **** }
 2586              		.loc 1 1627 0
 2587 0032 07F10C07 		add	r7, r7, #12
ARM GAS  C:\Users\karunmj\AppData\Local\Temp\cceFJIz4.s 			page 75


 2588 0036 BD46     		mov	sp, r7
 2589 0038 80BC     		pop	{r7}
 2590 003a 7047     		bx	lr
 2591              		.cfi_endproc
 2592              	.LFE36:
 2593              		.size	CyXTAL_SetStartup, .-CyXTAL_SetStartup
 2594              		.section	.text.CyXTAL_SetFbVoltage,"ax",%progbits
 2595              		.align	2
 2596              		.global	CyXTAL_SetFbVoltage
 2597              		.thumb
 2598              		.thumb_func
 2599              		.type	CyXTAL_SetFbVoltage, %function
 2600              	CyXTAL_SetFbVoltage:
 2601              	.LFB37:
1628:.\Generated_Source\PSoC5/CyLib.c **** 
1629:.\Generated_Source\PSoC5/CyLib.c **** 
1630:.\Generated_Source\PSoC5/CyLib.c **** #if(CY_PSOC3 || CY_PSOC5LP)
1631:.\Generated_Source\PSoC5/CyLib.c ****     /*******************************************************************************
1632:.\Generated_Source\PSoC5/CyLib.c ****     * Function Name: CyXTAL_SetFbVoltage
1633:.\Generated_Source\PSoC5/CyLib.c ****     ********************************************************************************
1634:.\Generated_Source\PSoC5/CyLib.c ****     *
1635:.\Generated_Source\PSoC5/CyLib.c ****     * Summary:
1636:.\Generated_Source\PSoC5/CyLib.c ****     *  Sets the feedback reference voltage to use for the crystal circuit.
1637:.\Generated_Source\PSoC5/CyLib.c ****     *  This function is only available for PSoC3 and PSoC 5LP.
1638:.\Generated_Source\PSoC5/CyLib.c ****     *
1639:.\Generated_Source\PSoC5/CyLib.c ****     * Parameters:
1640:.\Generated_Source\PSoC5/CyLib.c ****     *  setting: Valid range [0-15].
1641:.\Generated_Source\PSoC5/CyLib.c ****     *  Refer to the device TRM and datasheet for more information.
1642:.\Generated_Source\PSoC5/CyLib.c ****     *
1643:.\Generated_Source\PSoC5/CyLib.c ****     * Return:
1644:.\Generated_Source\PSoC5/CyLib.c ****     *  None
1645:.\Generated_Source\PSoC5/CyLib.c ****     *
1646:.\Generated_Source\PSoC5/CyLib.c ****     *******************************************************************************/
1647:.\Generated_Source\PSoC5/CyLib.c ****     void CyXTAL_SetFbVoltage(uint8 setting) 
1648:.\Generated_Source\PSoC5/CyLib.c ****     {
 2602              		.loc 1 1648 0
 2603              		.cfi_startproc
 2604              		@ args = 0, pretend = 0, frame = 8
 2605              		@ frame_needed = 1, uses_anonymous_args = 0
 2606              		@ link register save eliminated.
 2607 0000 80B4     		push	{r7}
 2608              	.LCFI93:
 2609              		.cfi_def_cfa_offset 4
 2610 0002 83B0     		sub	sp, sp, #12
 2611              	.LCFI94:
 2612              		.cfi_def_cfa_offset 16
 2613 0004 00AF     		add	r7, sp, #0
 2614              		.cfi_offset 7, -4
 2615              	.LCFI95:
 2616              		.cfi_def_cfa_register 7
 2617 0006 0346     		mov	r3, r0
 2618 0008 FB71     		strb	r3, [r7, #7]
1649:.\Generated_Source\PSoC5/CyLib.c ****         CY_CLK_XMHZ_CFG1_REG = ((CY_CLK_XMHZ_CFG1_REG & ((uint8)(~CY_CLK_XMHZ_CFG1_VREF_FB_MASK))) 
 2619              		.loc 1 1649 0
 2620 000a 44F21323 		movw	r3, #:lower16:1073758739
 2621 000e C4F20003 		movt	r3, #:upper16:1073758739
 2622 0012 44F21322 		movw	r2, #:lower16:1073758739
ARM GAS  C:\Users\karunmj\AppData\Local\Temp\cceFJIz4.s 			page 76


 2623 0016 C4F20002 		movt	r2, #:upper16:1073758739
 2624 001a 1278     		ldrb	r2, [r2, #0]
 2625 001c D2B2     		uxtb	r2, r2
 2626 001e 1146     		mov	r1, r2
 2627 0020 01F0F001 		and	r1, r1, #240
 2628 0024 FA79     		ldrb	r2, [r7, #7]	@ zero_extendqisi2
 2629 0026 02F00F02 		and	r2, r2, #15
 2630 002a 41EA0202 		orr	r2, r1, r2
 2631 002e D2B2     		uxtb	r2, r2
 2632 0030 1A70     		strb	r2, [r3, #0]
1650:.\Generated_Source\PSoC5/CyLib.c ****                                 (setting & CY_CLK_XMHZ_CFG1_VREF_FB_MASK));
1651:.\Generated_Source\PSoC5/CyLib.c ****     }
 2633              		.loc 1 1651 0
 2634 0032 07F10C07 		add	r7, r7, #12
 2635 0036 BD46     		mov	sp, r7
 2636 0038 80BC     		pop	{r7}
 2637 003a 7047     		bx	lr
 2638              		.cfi_endproc
 2639              	.LFE37:
 2640              		.size	CyXTAL_SetFbVoltage, .-CyXTAL_SetFbVoltage
 2641              		.section	.text.CyXTAL_SetWdVoltage,"ax",%progbits
 2642              		.align	2
 2643              		.global	CyXTAL_SetWdVoltage
 2644              		.thumb
 2645              		.thumb_func
 2646              		.type	CyXTAL_SetWdVoltage, %function
 2647              	CyXTAL_SetWdVoltage:
 2648              	.LFB38:
1652:.\Generated_Source\PSoC5/CyLib.c **** 
1653:.\Generated_Source\PSoC5/CyLib.c **** 
1654:.\Generated_Source\PSoC5/CyLib.c ****     /*******************************************************************************
1655:.\Generated_Source\PSoC5/CyLib.c ****     * Function Name: CyXTAL_SetWdVoltage
1656:.\Generated_Source\PSoC5/CyLib.c ****     ********************************************************************************
1657:.\Generated_Source\PSoC5/CyLib.c ****     *
1658:.\Generated_Source\PSoC5/CyLib.c ****     * Summary:
1659:.\Generated_Source\PSoC5/CyLib.c ****     *  Sets the reference voltage used by the watchdog to detect a failure in the
1660:.\Generated_Source\PSoC5/CyLib.c ****     *  crystal circuit. This function is only available for PSoC3 and PSoC 5LP.
1661:.\Generated_Source\PSoC5/CyLib.c ****     *
1662:.\Generated_Source\PSoC5/CyLib.c ****     * Parameters:
1663:.\Generated_Source\PSoC5/CyLib.c ****     *  setting: Valid range [0-7].
1664:.\Generated_Source\PSoC5/CyLib.c ****     *  Refer to the device TRM and datasheet for more information.
1665:.\Generated_Source\PSoC5/CyLib.c ****     *
1666:.\Generated_Source\PSoC5/CyLib.c ****     * Return:
1667:.\Generated_Source\PSoC5/CyLib.c ****     *  None
1668:.\Generated_Source\PSoC5/CyLib.c ****     *
1669:.\Generated_Source\PSoC5/CyLib.c ****     *******************************************************************************/
1670:.\Generated_Source\PSoC5/CyLib.c ****     void CyXTAL_SetWdVoltage(uint8 setting) 
1671:.\Generated_Source\PSoC5/CyLib.c ****     {
 2649              		.loc 1 1671 0
 2650              		.cfi_startproc
 2651              		@ args = 0, pretend = 0, frame = 8
 2652              		@ frame_needed = 1, uses_anonymous_args = 0
 2653              		@ link register save eliminated.
 2654 0000 80B4     		push	{r7}
 2655              	.LCFI96:
 2656              		.cfi_def_cfa_offset 4
 2657 0002 83B0     		sub	sp, sp, #12
ARM GAS  C:\Users\karunmj\AppData\Local\Temp\cceFJIz4.s 			page 77


 2658              	.LCFI97:
 2659              		.cfi_def_cfa_offset 16
 2660 0004 00AF     		add	r7, sp, #0
 2661              		.cfi_offset 7, -4
 2662              	.LCFI98:
 2663              		.cfi_def_cfa_register 7
 2664 0006 0346     		mov	r3, r0
 2665 0008 FB71     		strb	r3, [r7, #7]
1672:.\Generated_Source\PSoC5/CyLib.c ****         CY_CLK_XMHZ_CFG1_REG = ((CY_CLK_XMHZ_CFG1_REG & ((uint8)(~CY_CLK_XMHZ_CFG1_VREF_WD_MASK))) 
 2666              		.loc 1 1672 0
 2667 000a 44F21323 		movw	r3, #:lower16:1073758739
 2668 000e C4F20003 		movt	r3, #:upper16:1073758739
 2669 0012 44F21322 		movw	r2, #:lower16:1073758739
 2670 0016 C4F20002 		movt	r2, #:upper16:1073758739
 2671 001a 1278     		ldrb	r2, [r2, #0]
 2672 001c D2B2     		uxtb	r2, r2
 2673 001e 1146     		mov	r1, r2
 2674 0020 01F08F01 		and	r1, r1, #143
1673:.\Generated_Source\PSoC5/CyLib.c ****                                 (((uint8)(setting << 4u)) & CY_CLK_XMHZ_CFG1_VREF_WD_MASK));
 2675              		.loc 1 1673 0
 2676 0024 FA79     		ldrb	r2, [r7, #7]
 2677 0026 4FEA0212 		lsl	r2, r2, #4
 2678 002a D2B2     		uxtb	r2, r2
 2679              		.loc 1 1672 0
 2680 002c 02F07002 		and	r2, r2, #112
 2681 0030 41EA0202 		orr	r2, r1, r2
 2682 0034 D2B2     		uxtb	r2, r2
 2683 0036 1A70     		strb	r2, [r3, #0]
1674:.\Generated_Source\PSoC5/CyLib.c ****     }
 2684              		.loc 1 1674 0
 2685 0038 07F10C07 		add	r7, r7, #12
 2686 003c BD46     		mov	sp, r7
 2687 003e 80BC     		pop	{r7}
 2688 0040 7047     		bx	lr
 2689              		.cfi_endproc
 2690              	.LFE38:
 2691              		.size	CyXTAL_SetWdVoltage, .-CyXTAL_SetWdVoltage
 2692 0042 00BF     		.section	.text.CyHalt,"ax",%progbits
 2693              		.align	2
 2694              		.global	CyHalt
 2695              		.thumb
 2696              		.thumb_func
 2697              		.type	CyHalt, %function
 2698              	CyHalt:
 2699              	.LFB39:
1675:.\Generated_Source\PSoC5/CyLib.c **** 
1676:.\Generated_Source\PSoC5/CyLib.c **** #endif /* (CY_PSOC3 || CY_PSOC5LP) */
1677:.\Generated_Source\PSoC5/CyLib.c **** 
1678:.\Generated_Source\PSoC5/CyLib.c **** 
1679:.\Generated_Source\PSoC5/CyLib.c **** /*******************************************************************************
1680:.\Generated_Source\PSoC5/CyLib.c **** * Function Name: CyHalt
1681:.\Generated_Source\PSoC5/CyLib.c **** ********************************************************************************
1682:.\Generated_Source\PSoC5/CyLib.c **** *
1683:.\Generated_Source\PSoC5/CyLib.c **** * Summary:
1684:.\Generated_Source\PSoC5/CyLib.c **** *  Halts the CPU.
1685:.\Generated_Source\PSoC5/CyLib.c **** *
1686:.\Generated_Source\PSoC5/CyLib.c **** * Parameters:
ARM GAS  C:\Users\karunmj\AppData\Local\Temp\cceFJIz4.s 			page 78


1687:.\Generated_Source\PSoC5/CyLib.c **** *  uint8 reason: Value to be used during debugging.
1688:.\Generated_Source\PSoC5/CyLib.c **** *
1689:.\Generated_Source\PSoC5/CyLib.c **** * Return:
1690:.\Generated_Source\PSoC5/CyLib.c **** *  None
1691:.\Generated_Source\PSoC5/CyLib.c **** *
1692:.\Generated_Source\PSoC5/CyLib.c **** *******************************************************************************/
1693:.\Generated_Source\PSoC5/CyLib.c **** void CyHalt(uint8 reason) CYREENTRANT
1694:.\Generated_Source\PSoC5/CyLib.c **** {
 2700              		.loc 1 1694 0
 2701              		.cfi_startproc
 2702              		@ args = 0, pretend = 0, frame = 8
 2703              		@ frame_needed = 1, uses_anonymous_args = 0
 2704              		@ link register save eliminated.
 2705 0000 80B4     		push	{r7}
 2706              	.LCFI99:
 2707              		.cfi_def_cfa_offset 4
 2708 0002 83B0     		sub	sp, sp, #12
 2709              	.LCFI100:
 2710              		.cfi_def_cfa_offset 16
 2711 0004 00AF     		add	r7, sp, #0
 2712              		.cfi_offset 7, -4
 2713              	.LCFI101:
 2714              		.cfi_def_cfa_register 7
 2715 0006 0346     		mov	r3, r0
 2716 0008 FB71     		strb	r3, [r7, #7]
1695:.\Generated_Source\PSoC5/CyLib.c ****     if(0u != reason)
1696:.\Generated_Source\PSoC5/CyLib.c ****     {
1697:.\Generated_Source\PSoC5/CyLib.c ****         /* To remove unreferenced local variable warning */
1698:.\Generated_Source\PSoC5/CyLib.c ****     }
1699:.\Generated_Source\PSoC5/CyLib.c **** 
1700:.\Generated_Source\PSoC5/CyLib.c ****     #if defined (__ARMCC_VERSION)
1701:.\Generated_Source\PSoC5/CyLib.c ****         __breakpoint(0x0);
1702:.\Generated_Source\PSoC5/CyLib.c ****     #elif defined(__GNUC__)
1703:.\Generated_Source\PSoC5/CyLib.c ****         __asm("    bkpt    1");
 2717              		.loc 1 1703 0
 2718              	@ 1703 ".\Generated_Source\PSoC5\CyLib.c" 1
 2719 000a 01BE     		    bkpt    1
 2720              	@ 0 "" 2
1704:.\Generated_Source\PSoC5/CyLib.c ****     #elif defined(__C51__)
1705:.\Generated_Source\PSoC5/CyLib.c ****         CYDEV_HALT_CPU;
1706:.\Generated_Source\PSoC5/CyLib.c ****     #endif  /* (__ARMCC_VERSION) */
1707:.\Generated_Source\PSoC5/CyLib.c **** }
 2721              		.loc 1 1707 0
 2722              		.thumb
 2723 000c 07F10C07 		add	r7, r7, #12
 2724 0010 BD46     		mov	sp, r7
 2725 0012 80BC     		pop	{r7}
 2726 0014 7047     		bx	lr
 2727              		.cfi_endproc
 2728              	.LFE39:
 2729              		.size	CyHalt, .-CyHalt
 2730 0016 00BF     		.section	.text.CySoftwareReset,"ax",%progbits
 2731              		.align	2
 2732              		.global	CySoftwareReset
 2733              		.thumb
 2734              		.thumb_func
 2735              		.type	CySoftwareReset, %function
ARM GAS  C:\Users\karunmj\AppData\Local\Temp\cceFJIz4.s 			page 79


 2736              	CySoftwareReset:
 2737              	.LFB40:
1708:.\Generated_Source\PSoC5/CyLib.c **** 
1709:.\Generated_Source\PSoC5/CyLib.c **** 
1710:.\Generated_Source\PSoC5/CyLib.c **** /*******************************************************************************
1711:.\Generated_Source\PSoC5/CyLib.c **** * Function Name: CySoftwareReset
1712:.\Generated_Source\PSoC5/CyLib.c **** ********************************************************************************
1713:.\Generated_Source\PSoC5/CyLib.c **** *
1714:.\Generated_Source\PSoC5/CyLib.c **** * Summary:
1715:.\Generated_Source\PSoC5/CyLib.c **** *  Forces a software reset of the device.
1716:.\Generated_Source\PSoC5/CyLib.c **** *
1717:.\Generated_Source\PSoC5/CyLib.c **** * Parameters:
1718:.\Generated_Source\PSoC5/CyLib.c **** *  None
1719:.\Generated_Source\PSoC5/CyLib.c **** *
1720:.\Generated_Source\PSoC5/CyLib.c **** * Return:
1721:.\Generated_Source\PSoC5/CyLib.c **** *  None
1722:.\Generated_Source\PSoC5/CyLib.c **** *
1723:.\Generated_Source\PSoC5/CyLib.c **** *******************************************************************************/
1724:.\Generated_Source\PSoC5/CyLib.c **** void CySoftwareReset(void) 
1725:.\Generated_Source\PSoC5/CyLib.c **** {
 2738              		.loc 1 1725 0
 2739              		.cfi_startproc
 2740              		@ args = 0, pretend = 0, frame = 0
 2741              		@ frame_needed = 1, uses_anonymous_args = 0
 2742              		@ link register save eliminated.
 2743 0000 80B4     		push	{r7}
 2744              	.LCFI102:
 2745              		.cfi_def_cfa_offset 4
 2746 0002 00AF     		add	r7, sp, #0
 2747              		.cfi_offset 7, -4
 2748              	.LCFI103:
 2749              		.cfi_def_cfa_register 7
1726:.\Generated_Source\PSoC5/CyLib.c ****     /* Perform software reset */
1727:.\Generated_Source\PSoC5/CyLib.c ****     *RESET_CR2 = 0x1u;
 2750              		.loc 1 1727 0
 2751 0004 44F2F663 		movw	r3, #:lower16:1073759990
 2752 0008 C4F20003 		movt	r3, #:upper16:1073759990
 2753 000c 4FF00102 		mov	r2, #1
 2754 0010 1A70     		strb	r2, [r3, #0]
1728:.\Generated_Source\PSoC5/CyLib.c **** }
 2755              		.loc 1 1728 0
 2756 0012 BD46     		mov	sp, r7
 2757 0014 80BC     		pop	{r7}
 2758 0016 7047     		bx	lr
 2759              		.cfi_endproc
 2760              	.LFE40:
 2761              		.size	CySoftwareReset, .-CySoftwareReset
 2762              		.section	.text.CyDelay,"ax",%progbits
 2763              		.align	2
 2764              		.global	CyDelay
 2765              		.thumb
 2766              		.thumb_func
 2767              		.type	CyDelay, %function
 2768              	CyDelay:
 2769              	.LFB41:
1729:.\Generated_Source\PSoC5/CyLib.c **** 
1730:.\Generated_Source\PSoC5/CyLib.c **** 
ARM GAS  C:\Users\karunmj\AppData\Local\Temp\cceFJIz4.s 			page 80


1731:.\Generated_Source\PSoC5/CyLib.c **** /*******************************************************************************
1732:.\Generated_Source\PSoC5/CyLib.c **** * Function Name: CyDelay
1733:.\Generated_Source\PSoC5/CyLib.c **** ********************************************************************************
1734:.\Generated_Source\PSoC5/CyLib.c **** *
1735:.\Generated_Source\PSoC5/CyLib.c **** * Summary:
1736:.\Generated_Source\PSoC5/CyLib.c **** *  Blocks for milliseconds.
1737:.\Generated_Source\PSoC5/CyLib.c **** *
1738:.\Generated_Source\PSoC5/CyLib.c **** *  Note:
1739:.\Generated_Source\PSoC5/CyLib.c **** *  CyDelay has been implemented with the instruction cache assumed enabled. When
1740:.\Generated_Source\PSoC5/CyLib.c **** *  instruction cache is disabled on PSoC5, CyDelay will be two times larger. For
1741:.\Generated_Source\PSoC5/CyLib.c **** *  example, with instruction cache disabled CyDelay(100) would result in about
1742:.\Generated_Source\PSoC5/CyLib.c **** *  200 ms delay instead of 100 ms.
1743:.\Generated_Source\PSoC5/CyLib.c **** *
1744:.\Generated_Source\PSoC5/CyLib.c **** * Parameters:
1745:.\Generated_Source\PSoC5/CyLib.c **** *  milliseconds: number of milliseconds to delay.
1746:.\Generated_Source\PSoC5/CyLib.c **** *
1747:.\Generated_Source\PSoC5/CyLib.c **** * Return:
1748:.\Generated_Source\PSoC5/CyLib.c **** *   None
1749:.\Generated_Source\PSoC5/CyLib.c **** *
1750:.\Generated_Source\PSoC5/CyLib.c **** *******************************************************************************/
1751:.\Generated_Source\PSoC5/CyLib.c **** void CyDelay(uint32 milliseconds) CYREENTRANT
1752:.\Generated_Source\PSoC5/CyLib.c **** {
 2770              		.loc 1 1752 0
 2771              		.cfi_startproc
 2772              		@ args = 0, pretend = 0, frame = 8
 2773              		@ frame_needed = 1, uses_anonymous_args = 0
 2774 0000 80B5     		push	{r7, lr}
 2775              	.LCFI104:
 2776              		.cfi_def_cfa_offset 8
 2777 0002 82B0     		sub	sp, sp, #8
 2778              	.LCFI105:
 2779              		.cfi_def_cfa_offset 16
 2780 0004 00AF     		add	r7, sp, #0
 2781              		.cfi_offset 14, -4
 2782              		.cfi_offset 7, -8
 2783              	.LCFI106:
 2784              		.cfi_def_cfa_register 7
 2785 0006 7860     		str	r0, [r7, #4]
1753:.\Generated_Source\PSoC5/CyLib.c ****     while (milliseconds > 32768u)
 2786              		.loc 1 1753 0
 2787 0008 0BE0     		b	.L173
 2788              	.L174:
1754:.\Generated_Source\PSoC5/CyLib.c ****     {
1755:.\Generated_Source\PSoC5/CyLib.c ****         /***********************************************************************
1756:.\Generated_Source\PSoC5/CyLib.c ****         * This loop prevents overflow.At 100MHz, milliseconds * delay_freq_khz
1757:.\Generated_Source\PSoC5/CyLib.c ****         * overflows at about 42 seconds.
1758:.\Generated_Source\PSoC5/CyLib.c ****         ***********************************************************************/
1759:.\Generated_Source\PSoC5/CyLib.c ****         CyDelayCycles(cydelay_32k_ms);
 2789              		.loc 1 1759 0
 2790 000a 40F20003 		movw	r3, #:lower16:cydelay_32k_ms
 2791 000e C0F20003 		movt	r3, #:upper16:cydelay_32k_ms
 2792 0012 1B68     		ldr	r3, [r3, #0]
 2793 0014 1846     		mov	r0, r3
 2794 0016 FFF7FEFF 		bl	CyDelayCycles
1760:.\Generated_Source\PSoC5/CyLib.c ****         milliseconds = ((uint32)(milliseconds - 32768u));
 2795              		.loc 1 1760 0
 2796 001a 7B68     		ldr	r3, [r7, #4]
ARM GAS  C:\Users\karunmj\AppData\Local\Temp\cceFJIz4.s 			page 81


 2797 001c A3F50043 		sub	r3, r3, #32768
 2798 0020 7B60     		str	r3, [r7, #4]
 2799              	.L173:
 2800              		.loc 1 1753 0
 2801 0022 7B68     		ldr	r3, [r7, #4]
 2802 0024 B3F5004F 		cmp	r3, #32768
 2803 0028 EFD8     		bhi	.L174
1761:.\Generated_Source\PSoC5/CyLib.c ****     }
1762:.\Generated_Source\PSoC5/CyLib.c **** 
1763:.\Generated_Source\PSoC5/CyLib.c ****     CyDelayCycles(milliseconds * cydelay_freq_khz);
 2804              		.loc 1 1763 0
 2805 002a 40F20003 		movw	r3, #:lower16:cydelay_freq_khz
 2806 002e C0F20003 		movt	r3, #:upper16:cydelay_freq_khz
 2807 0032 1B68     		ldr	r3, [r3, #0]
 2808 0034 7A68     		ldr	r2, [r7, #4]
 2809 0036 02FB03F3 		mul	r3, r2, r3
 2810 003a 1846     		mov	r0, r3
 2811 003c FFF7FEFF 		bl	CyDelayCycles
1764:.\Generated_Source\PSoC5/CyLib.c **** }
 2812              		.loc 1 1764 0
 2813 0040 07F10807 		add	r7, r7, #8
 2814 0044 BD46     		mov	sp, r7
 2815 0046 80BD     		pop	{r7, pc}
 2816              		.cfi_endproc
 2817              	.LFE41:
 2818              		.size	CyDelay, .-CyDelay
 2819              		.section	.text.CyDelayUs,"ax",%progbits
 2820              		.align	2
 2821              		.global	CyDelayUs
 2822              		.thumb
 2823              		.thumb_func
 2824              		.type	CyDelayUs, %function
 2825              	CyDelayUs:
 2826              	.LFB42:
1765:.\Generated_Source\PSoC5/CyLib.c **** 
1766:.\Generated_Source\PSoC5/CyLib.c **** 
1767:.\Generated_Source\PSoC5/CyLib.c **** #if(!CY_PSOC3)
1768:.\Generated_Source\PSoC5/CyLib.c **** 
1769:.\Generated_Source\PSoC5/CyLib.c ****     /* For PSoC3 devices function is defined in CyBootAsmKeil.a51 file */
1770:.\Generated_Source\PSoC5/CyLib.c **** 
1771:.\Generated_Source\PSoC5/CyLib.c ****     /*******************************************************************************
1772:.\Generated_Source\PSoC5/CyLib.c ****     * Function Name: CyDelayUs
1773:.\Generated_Source\PSoC5/CyLib.c ****     ********************************************************************************
1774:.\Generated_Source\PSoC5/CyLib.c ****     *
1775:.\Generated_Source\PSoC5/CyLib.c ****     * Summary:
1776:.\Generated_Source\PSoC5/CyLib.c ****     *  Blocks for microseconds.
1777:.\Generated_Source\PSoC5/CyLib.c ****     *
1778:.\Generated_Source\PSoC5/CyLib.c ****     *  Note:
1779:.\Generated_Source\PSoC5/CyLib.c ****     *   CyDelay has been implemented with the instruction cache assumed enabled.
1780:.\Generated_Source\PSoC5/CyLib.c ****     *   When instruction cache is disabled on PSoC5, CyDelayUs will be two times
1781:.\Generated_Source\PSoC5/CyLib.c ****     *   larger. Ex: With instruction cache disabled CyDelayUs(100) would result
1782:.\Generated_Source\PSoC5/CyLib.c ****     *   in about 200us delay instead of 100us.
1783:.\Generated_Source\PSoC5/CyLib.c ****     *
1784:.\Generated_Source\PSoC5/CyLib.c ****     * Parameters:
1785:.\Generated_Source\PSoC5/CyLib.c ****     *  uint16 microseconds: number of microseconds to delay.
