ARM GAS  C:\Users\karunmj\AppData\Local\Temp\ccS0DOFP.s 			page 1


   1              		.syntax unified
   2              		.cpu cortex-m3
   3              		.fpu softvfp
   4              		.eabi_attribute 20, 1
   5              		.eabi_attribute 21, 1
   6              		.eabi_attribute 23, 3
   7              		.eabi_attribute 24, 1
   8              		.eabi_attribute 25, 1
   9              		.eabi_attribute 26, 1
  10              		.eabi_attribute 30, 6
  11              		.eabi_attribute 18, 4
  12              		.thumb
  13              		.file	"emFile_1_SPI0_PM.c"
  20 0000 CF000000 		.text
  20      02007C00 
  20      00000201 
  20      FB0E0D00 
  20      01010101 
  21              	.Ltext0:
  22              		.cfi_sections	.debug_frame
  23              		.data
  24              		.align	2
  25              		.type	emFile_1_SPI0_backup, %object
  26              		.size	emFile_1_SPI0_backup, 2
  27              	emFile_1_SPI0_backup:
  28 0000 00       		.byte	0
  29 0001 0F       		.byte	15
  30 0002 0000     		.section	.text.emFile_1_SPI0_SaveConfig,"ax",%progbits
  31              		.align	2
  32              		.global	emFile_1_SPI0_SaveConfig
  33              		.thumb
  34              		.thumb_func
  35              		.type	emFile_1_SPI0_SaveConfig, %function
  36              	emFile_1_SPI0_SaveConfig:
  37              	.LFB0:
  38              		.file 1 ".\\Generated_Source\\PSoC5\\emFile_1_SPI0_PM.c"
   1:.\Generated_Source\PSoC5/emFile_1_SPI0_PM.c **** /*******************************************************************************
   2:.\Generated_Source\PSoC5/emFile_1_SPI0_PM.c **** * File Name: emFile_1_SPI0_PM.c
   3:.\Generated_Source\PSoC5/emFile_1_SPI0_PM.c **** * Version 2.40
   4:.\Generated_Source\PSoC5/emFile_1_SPI0_PM.c **** *
   5:.\Generated_Source\PSoC5/emFile_1_SPI0_PM.c **** * Description:
   6:.\Generated_Source\PSoC5/emFile_1_SPI0_PM.c **** *  This file contains the setup, control and status commands to support
   7:.\Generated_Source\PSoC5/emFile_1_SPI0_PM.c **** *  component operations in low power mode.
   8:.\Generated_Source\PSoC5/emFile_1_SPI0_PM.c **** *
   9:.\Generated_Source\PSoC5/emFile_1_SPI0_PM.c **** * Note:
  10:.\Generated_Source\PSoC5/emFile_1_SPI0_PM.c **** *
  11:.\Generated_Source\PSoC5/emFile_1_SPI0_PM.c **** ********************************************************************************
  12:.\Generated_Source\PSoC5/emFile_1_SPI0_PM.c **** * Copyright 2008-2012, Cypress Semiconductor Corporation.  All rights reserved.
  13:.\Generated_Source\PSoC5/emFile_1_SPI0_PM.c **** * You may use this file only in accordance with the license, terms, conditions,
  14:.\Generated_Source\PSoC5/emFile_1_SPI0_PM.c **** * disclaimers, and limitations in the end user license agreement accompanying
  15:.\Generated_Source\PSoC5/emFile_1_SPI0_PM.c **** * the software package with which this file was provided.
ARM GAS  C:\Users\karunmj\AppData\Local\Temp\ccS0DOFP.s 			page 2


  16:.\Generated_Source\PSoC5/emFile_1_SPI0_PM.c **** *******************************************************************************/
  17:.\Generated_Source\PSoC5/emFile_1_SPI0_PM.c **** 
  18:.\Generated_Source\PSoC5/emFile_1_SPI0_PM.c **** #include "emFile_1_SPI0_PVT.h"
  19:.\Generated_Source\PSoC5/emFile_1_SPI0_PM.c **** 
  20:.\Generated_Source\PSoC5/emFile_1_SPI0_PM.c **** static emFile_1_SPI0_BACKUP_STRUCT emFile_1_SPI0_backup =
  21:.\Generated_Source\PSoC5/emFile_1_SPI0_PM.c **** {
  22:.\Generated_Source\PSoC5/emFile_1_SPI0_PM.c ****     emFile_1_SPI0_DISABLED,
  23:.\Generated_Source\PSoC5/emFile_1_SPI0_PM.c ****     emFile_1_SPI0_BITCTR_INIT,
  24:.\Generated_Source\PSoC5/emFile_1_SPI0_PM.c ****     #if(CY_UDB_V0)
  25:.\Generated_Source\PSoC5/emFile_1_SPI0_PM.c ****         emFile_1_SPI0_TX_INIT_INTERRUPTS_MASK,
  26:.\Generated_Source\PSoC5/emFile_1_SPI0_PM.c ****         emFile_1_SPI0_RX_INIT_INTERRUPTS_MASK
  27:.\Generated_Source\PSoC5/emFile_1_SPI0_PM.c ****     #endif /* CY_UDB_V0 */
  28:.\Generated_Source\PSoC5/emFile_1_SPI0_PM.c **** };
  29:.\Generated_Source\PSoC5/emFile_1_SPI0_PM.c **** 
  30:.\Generated_Source\PSoC5/emFile_1_SPI0_PM.c **** 
  31:.\Generated_Source\PSoC5/emFile_1_SPI0_PM.c **** /*******************************************************************************
  32:.\Generated_Source\PSoC5/emFile_1_SPI0_PM.c **** * Function Name: emFile_1_SPI0_SaveConfig
  33:.\Generated_Source\PSoC5/emFile_1_SPI0_PM.c **** ********************************************************************************
  34:.\Generated_Source\PSoC5/emFile_1_SPI0_PM.c **** *
  35:.\Generated_Source\PSoC5/emFile_1_SPI0_PM.c **** * Summary:
  36:.\Generated_Source\PSoC5/emFile_1_SPI0_PM.c **** *  Saves SPIM configuration.
  37:.\Generated_Source\PSoC5/emFile_1_SPI0_PM.c **** *
  38:.\Generated_Source\PSoC5/emFile_1_SPI0_PM.c **** * Parameters:
  39:.\Generated_Source\PSoC5/emFile_1_SPI0_PM.c **** *  None.
  40:.\Generated_Source\PSoC5/emFile_1_SPI0_PM.c **** *
  41:.\Generated_Source\PSoC5/emFile_1_SPI0_PM.c **** * Return:
  42:.\Generated_Source\PSoC5/emFile_1_SPI0_PM.c **** *  None.
  43:.\Generated_Source\PSoC5/emFile_1_SPI0_PM.c **** *
  44:.\Generated_Source\PSoC5/emFile_1_SPI0_PM.c **** * Global Variables:
  45:.\Generated_Source\PSoC5/emFile_1_SPI0_PM.c **** *  emFile_1_SPI0_backup - modified when non-retention registers are saved.
  46:.\Generated_Source\PSoC5/emFile_1_SPI0_PM.c **** *
  47:.\Generated_Source\PSoC5/emFile_1_SPI0_PM.c **** * Reentrant:
  48:.\Generated_Source\PSoC5/emFile_1_SPI0_PM.c **** *  No.
  49:.\Generated_Source\PSoC5/emFile_1_SPI0_PM.c **** *
  50:.\Generated_Source\PSoC5/emFile_1_SPI0_PM.c **** *******************************************************************************/
  51:.\Generated_Source\PSoC5/emFile_1_SPI0_PM.c **** void emFile_1_SPI0_SaveConfig(void) 
  52:.\Generated_Source\PSoC5/emFile_1_SPI0_PM.c **** {
  39              		.loc 1 52 0
  40              		.cfi_startproc
  41              		@ args = 0, pretend = 0, frame = 0
  42              		@ frame_needed = 1, uses_anonymous_args = 0
  43              		@ link register save eliminated.
  44 0000 80B4     		push	{r7}
  45              	.LCFI0:
  46              		.cfi_def_cfa_offset 4
  47 0002 00AF     		add	r7, sp, #0
  48              		.cfi_offset 7, -4
  49              	.LCFI1:
  50              		.cfi_def_cfa_register 7
  53:.\Generated_Source\PSoC5/emFile_1_SPI0_PM.c ****     /* Store Status Mask registers */
  54:.\Generated_Source\PSoC5/emFile_1_SPI0_PM.c ****     #if(CY_UDB_V0)
  55:.\Generated_Source\PSoC5/emFile_1_SPI0_PM.c ****        emFile_1_SPI0_backup.cntrPeriod      = emFile_1_SPI0_COUNTER_PERIOD_REG;
  56:.\Generated_Source\PSoC5/emFile_1_SPI0_PM.c ****        emFile_1_SPI0_backup.saveSrTxIntMask = emFile_1_SPI0_TX_STATUS_MASK_REG;
  57:.\Generated_Source\PSoC5/emFile_1_SPI0_PM.c ****        emFile_1_SPI0_backup.saveSrRxIntMask = emFile_1_SPI0_RX_STATUS_MASK_REG;
  58:.\Generated_Source\PSoC5/emFile_1_SPI0_PM.c ****     #endif /* (CY_UDB_V0) */
  59:.\Generated_Source\PSoC5/emFile_1_SPI0_PM.c **** }
  51              		.loc 1 59 0
ARM GAS  C:\Users\karunmj\AppData\Local\Temp\ccS0DOFP.s 			page 3


  52 0004 BD46     		mov	sp, r7
  53 0006 80BC     		pop	{r7}
  54 0008 7047     		bx	lr
  55              		.cfi_endproc
  56              	.LFE0:
  57              		.size	emFile_1_SPI0_SaveConfig, .-emFile_1_SPI0_SaveConfig
  58 000a 00BF     		.section	.text.emFile_1_SPI0_RestoreConfig,"ax",%progbits
  59              		.align	2
  60              		.global	emFile_1_SPI0_RestoreConfig
  61              		.thumb
  62              		.thumb_func
  63              		.type	emFile_1_SPI0_RestoreConfig, %function
  64              	emFile_1_SPI0_RestoreConfig:
  65              	.LFB1:
  60:.\Generated_Source\PSoC5/emFile_1_SPI0_PM.c **** 
  61:.\Generated_Source\PSoC5/emFile_1_SPI0_PM.c **** 
  62:.\Generated_Source\PSoC5/emFile_1_SPI0_PM.c **** /*******************************************************************************
  63:.\Generated_Source\PSoC5/emFile_1_SPI0_PM.c **** * Function Name: emFile_1_SPI0_RestoreConfig
  64:.\Generated_Source\PSoC5/emFile_1_SPI0_PM.c **** ********************************************************************************
  65:.\Generated_Source\PSoC5/emFile_1_SPI0_PM.c **** *
  66:.\Generated_Source\PSoC5/emFile_1_SPI0_PM.c **** * Summary:
  67:.\Generated_Source\PSoC5/emFile_1_SPI0_PM.c **** *  Restores SPIM configuration.
  68:.\Generated_Source\PSoC5/emFile_1_SPI0_PM.c **** *
  69:.\Generated_Source\PSoC5/emFile_1_SPI0_PM.c **** * Parameters:
  70:.\Generated_Source\PSoC5/emFile_1_SPI0_PM.c **** *  None.
  71:.\Generated_Source\PSoC5/emFile_1_SPI0_PM.c **** *
  72:.\Generated_Source\PSoC5/emFile_1_SPI0_PM.c **** * Return:
  73:.\Generated_Source\PSoC5/emFile_1_SPI0_PM.c **** *  None.
  74:.\Generated_Source\PSoC5/emFile_1_SPI0_PM.c **** *
  75:.\Generated_Source\PSoC5/emFile_1_SPI0_PM.c **** * Global Variables:
  76:.\Generated_Source\PSoC5/emFile_1_SPI0_PM.c **** *  emFile_1_SPI0_backup - used when non-retention registers are restored.
  77:.\Generated_Source\PSoC5/emFile_1_SPI0_PM.c **** *
  78:.\Generated_Source\PSoC5/emFile_1_SPI0_PM.c **** * Side Effects:
  79:.\Generated_Source\PSoC5/emFile_1_SPI0_PM.c **** *  If this API is called without first calling SaveConfig then in the following
  80:.\Generated_Source\PSoC5/emFile_1_SPI0_PM.c **** *  registers will be default values from Customizer:
  81:.\Generated_Source\PSoC5/emFile_1_SPI0_PM.c **** *  emFile_1_SPI0_STATUS_MASK_REG and emFile_1_SPI0_COUNTER_PERIOD_REG.
  82:.\Generated_Source\PSoC5/emFile_1_SPI0_PM.c **** *
  83:.\Generated_Source\PSoC5/emFile_1_SPI0_PM.c **** *******************************************************************************/
  84:.\Generated_Source\PSoC5/emFile_1_SPI0_PM.c **** void emFile_1_SPI0_RestoreConfig(void) 
  85:.\Generated_Source\PSoC5/emFile_1_SPI0_PM.c **** {
  66              		.loc 1 85 0
  67              		.cfi_startproc
  68              		@ args = 0, pretend = 0, frame = 0
  69              		@ frame_needed = 1, uses_anonymous_args = 0
  70              		@ link register save eliminated.
  71 0000 80B4     		push	{r7}
  72              	.LCFI2:
  73              		.cfi_def_cfa_offset 4
  74 0002 00AF     		add	r7, sp, #0
  75              		.cfi_offset 7, -4
  76              	.LCFI3:
  77              		.cfi_def_cfa_register 7
  86:.\Generated_Source\PSoC5/emFile_1_SPI0_PM.c ****     /* Restore the data, saved by SaveConfig() function */
  87:.\Generated_Source\PSoC5/emFile_1_SPI0_PM.c ****     #if(CY_UDB_V0)
  88:.\Generated_Source\PSoC5/emFile_1_SPI0_PM.c ****         emFile_1_SPI0_COUNTER_PERIOD_REG = emFile_1_SPI0_backup.cntrPeriod;
  89:.\Generated_Source\PSoC5/emFile_1_SPI0_PM.c ****         emFile_1_SPI0_TX_STATUS_MASK_REG = ((uint8) emFile_1_SPI0_backup.saveSrTxIntMask);
  90:.\Generated_Source\PSoC5/emFile_1_SPI0_PM.c ****         emFile_1_SPI0_RX_STATUS_MASK_REG = ((uint8) emFile_1_SPI0_backup.saveSrRxIntMask);
ARM GAS  C:\Users\karunmj\AppData\Local\Temp\ccS0DOFP.s 			page 4


  91:.\Generated_Source\PSoC5/emFile_1_SPI0_PM.c ****     #endif /* (CY_UDB_V0) */
  92:.\Generated_Source\PSoC5/emFile_1_SPI0_PM.c **** }
  78              		.loc 1 92 0
  79 0004 BD46     		mov	sp, r7
  80 0006 80BC     		pop	{r7}
  81 0008 7047     		bx	lr
  82              		.cfi_endproc
  83              	.LFE1:
  84              		.size	emFile_1_SPI0_RestoreConfig, .-emFile_1_SPI0_RestoreConfig
  85 000a 00BF     		.section	.text.emFile_1_SPI0_Sleep,"ax",%progbits
  86              		.align	2
  87              		.global	emFile_1_SPI0_Sleep
  88              		.thumb
  89              		.thumb_func
  90              		.type	emFile_1_SPI0_Sleep, %function
  91              	emFile_1_SPI0_Sleep:
  92              	.LFB2:
  93:.\Generated_Source\PSoC5/emFile_1_SPI0_PM.c **** 
  94:.\Generated_Source\PSoC5/emFile_1_SPI0_PM.c **** 
  95:.\Generated_Source\PSoC5/emFile_1_SPI0_PM.c **** /*******************************************************************************
  96:.\Generated_Source\PSoC5/emFile_1_SPI0_PM.c **** * Function Name: emFile_1_SPI0_Sleep
  97:.\Generated_Source\PSoC5/emFile_1_SPI0_PM.c **** ********************************************************************************
  98:.\Generated_Source\PSoC5/emFile_1_SPI0_PM.c **** *
  99:.\Generated_Source\PSoC5/emFile_1_SPI0_PM.c **** * Summary:
 100:.\Generated_Source\PSoC5/emFile_1_SPI0_PM.c **** *  Prepare SPIM Component goes to sleep.
 101:.\Generated_Source\PSoC5/emFile_1_SPI0_PM.c **** *
 102:.\Generated_Source\PSoC5/emFile_1_SPI0_PM.c **** * Parameters:
 103:.\Generated_Source\PSoC5/emFile_1_SPI0_PM.c **** *  None.
 104:.\Generated_Source\PSoC5/emFile_1_SPI0_PM.c **** *
 105:.\Generated_Source\PSoC5/emFile_1_SPI0_PM.c **** * Return:
 106:.\Generated_Source\PSoC5/emFile_1_SPI0_PM.c **** *  None.
 107:.\Generated_Source\PSoC5/emFile_1_SPI0_PM.c **** *
 108:.\Generated_Source\PSoC5/emFile_1_SPI0_PM.c **** * Global Variables:
 109:.\Generated_Source\PSoC5/emFile_1_SPI0_PM.c **** *  emFile_1_SPI0_backup - modified when non-retention registers are saved.
 110:.\Generated_Source\PSoC5/emFile_1_SPI0_PM.c **** *
 111:.\Generated_Source\PSoC5/emFile_1_SPI0_PM.c **** * Reentrant:
 112:.\Generated_Source\PSoC5/emFile_1_SPI0_PM.c **** *  No.
 113:.\Generated_Source\PSoC5/emFile_1_SPI0_PM.c **** *
 114:.\Generated_Source\PSoC5/emFile_1_SPI0_PM.c **** *******************************************************************************/
 115:.\Generated_Source\PSoC5/emFile_1_SPI0_PM.c **** void emFile_1_SPI0_Sleep(void) 
 116:.\Generated_Source\PSoC5/emFile_1_SPI0_PM.c **** {
  93              		.loc 1 116 0
  94              		.cfi_startproc
  95              		@ args = 0, pretend = 0, frame = 0
  96              		@ frame_needed = 1, uses_anonymous_args = 0
  97 0000 80B5     		push	{r7, lr}
  98              	.LCFI4:
  99              		.cfi_def_cfa_offset 8
 100 0002 00AF     		add	r7, sp, #0
 101              		.cfi_offset 14, -4
 102              		.cfi_offset 7, -8
 103              	.LCFI5:
 104              		.cfi_def_cfa_register 7
 117:.\Generated_Source\PSoC5/emFile_1_SPI0_PM.c ****     /* Save components enable state */
 118:.\Generated_Source\PSoC5/emFile_1_SPI0_PM.c ****     emFile_1_SPI0_backup.enableState = ((uint8) emFile_1_SPI0_IS_ENABLED);
 105              		.loc 1 118 0
 106 0004 46F29043 		movw	r3, #:lower16:1073767568
ARM GAS  C:\Users\karunmj\AppData\Local\Temp\ccS0DOFP.s 			page 5


 107 0008 C4F20003 		movt	r3, #:upper16:1073767568
 108 000c 1B78     		ldrb	r3, [r3, #0]
 109 000e DBB2     		uxtb	r3, r3
 110 0010 03F01003 		and	r3, r3, #16
 111 0014 002B     		cmp	r3, #0
 112 0016 0CBF     		ite	eq
 113 0018 0022     		moveq	r2, #0
 114 001a 0122     		movne	r2, #1
 115 001c 40F20003 		movw	r3, #:lower16:emFile_1_SPI0_backup
 116 0020 C0F20003 		movt	r3, #:upper16:emFile_1_SPI0_backup
 117 0024 1A70     		strb	r2, [r3, #0]
 119:.\Generated_Source\PSoC5/emFile_1_SPI0_PM.c **** 
 120:.\Generated_Source\PSoC5/emFile_1_SPI0_PM.c ****     emFile_1_SPI0_Stop();
 118              		.loc 1 120 0
 119 0026 FFF7FEFF 		bl	emFile_1_SPI0_Stop
 121:.\Generated_Source\PSoC5/emFile_1_SPI0_PM.c ****     emFile_1_SPI0_SaveConfig();
 120              		.loc 1 121 0
 121 002a FFF7FEFF 		bl	emFile_1_SPI0_SaveConfig
 122:.\Generated_Source\PSoC5/emFile_1_SPI0_PM.c **** }
 122              		.loc 1 122 0
 123 002e 80BD     		pop	{r7, pc}
 124              		.cfi_endproc
 125              	.LFE2:
 126              		.size	emFile_1_SPI0_Sleep, .-emFile_1_SPI0_Sleep
 127              		.section	.text.emFile_1_SPI0_Wakeup,"ax",%progbits
 128              		.align	2
 129              		.global	emFile_1_SPI0_Wakeup
 130              		.thumb
 131              		.thumb_func
 132              		.type	emFile_1_SPI0_Wakeup, %function
 133              	emFile_1_SPI0_Wakeup:
 134              	.LFB3:
 123:.\Generated_Source\PSoC5/emFile_1_SPI0_PM.c **** 
 124:.\Generated_Source\PSoC5/emFile_1_SPI0_PM.c **** 
 125:.\Generated_Source\PSoC5/emFile_1_SPI0_PM.c **** /*******************************************************************************
 126:.\Generated_Source\PSoC5/emFile_1_SPI0_PM.c **** * Function Name: emFile_1_SPI0_Wakeup
 127:.\Generated_Source\PSoC5/emFile_1_SPI0_PM.c **** ********************************************************************************
 128:.\Generated_Source\PSoC5/emFile_1_SPI0_PM.c **** *
 129:.\Generated_Source\PSoC5/emFile_1_SPI0_PM.c **** * Summary:
 130:.\Generated_Source\PSoC5/emFile_1_SPI0_PM.c **** *  Prepare SPIM Component to wake up.
 131:.\Generated_Source\PSoC5/emFile_1_SPI0_PM.c **** *
 132:.\Generated_Source\PSoC5/emFile_1_SPI0_PM.c **** * Parameters:
 133:.\Generated_Source\PSoC5/emFile_1_SPI0_PM.c **** *  None.
 134:.\Generated_Source\PSoC5/emFile_1_SPI0_PM.c **** *
 135:.\Generated_Source\PSoC5/emFile_1_SPI0_PM.c **** * Return:
 136:.\Generated_Source\PSoC5/emFile_1_SPI0_PM.c **** *  None.
 137:.\Generated_Source\PSoC5/emFile_1_SPI0_PM.c **** *
 138:.\Generated_Source\PSoC5/emFile_1_SPI0_PM.c **** * Global Variables:
 139:.\Generated_Source\PSoC5/emFile_1_SPI0_PM.c **** *  emFile_1_SPI0_backup - used when non-retention registers are restored.
 140:.\Generated_Source\PSoC5/emFile_1_SPI0_PM.c **** *  emFile_1_SPI0_txBufferWrite - modified every function call - resets to
 141:.\Generated_Source\PSoC5/emFile_1_SPI0_PM.c **** *  zero.
 142:.\Generated_Source\PSoC5/emFile_1_SPI0_PM.c **** *  emFile_1_SPI0_txBufferRead - modified every function call - resets to
 143:.\Generated_Source\PSoC5/emFile_1_SPI0_PM.c **** *  zero.
 144:.\Generated_Source\PSoC5/emFile_1_SPI0_PM.c **** *  emFile_1_SPI0_rxBufferWrite - modified every function call - resets to
 145:.\Generated_Source\PSoC5/emFile_1_SPI0_PM.c **** *  zero.
 146:.\Generated_Source\PSoC5/emFile_1_SPI0_PM.c **** *  emFile_1_SPI0_rxBufferRead - modified every function call - resets to
 147:.\Generated_Source\PSoC5/emFile_1_SPI0_PM.c **** *  zero.
ARM GAS  C:\Users\karunmj\AppData\Local\Temp\ccS0DOFP.s 			page 6


 148:.\Generated_Source\PSoC5/emFile_1_SPI0_PM.c **** *
 149:.\Generated_Source\PSoC5/emFile_1_SPI0_PM.c **** * Reentrant:
 150:.\Generated_Source\PSoC5/emFile_1_SPI0_PM.c **** *  No.
 151:.\Generated_Source\PSoC5/emFile_1_SPI0_PM.c **** *
 152:.\Generated_Source\PSoC5/emFile_1_SPI0_PM.c **** *******************************************************************************/
 153:.\Generated_Source\PSoC5/emFile_1_SPI0_PM.c **** void emFile_1_SPI0_Wakeup(void) 
 154:.\Generated_Source\PSoC5/emFile_1_SPI0_PM.c **** {
 135              		.loc 1 154 0
 136              		.cfi_startproc
 137              		@ args = 0, pretend = 0, frame = 0
 138              		@ frame_needed = 1, uses_anonymous_args = 0
 139 0000 80B5     		push	{r7, lr}
 140              	.LCFI6:
 141              		.cfi_def_cfa_offset 8
 142 0002 00AF     		add	r7, sp, #0
 143              		.cfi_offset 14, -4
 144              		.cfi_offset 7, -8
 145              	.LCFI7:
 146              		.cfi_def_cfa_register 7
 155:.\Generated_Source\PSoC5/emFile_1_SPI0_PM.c ****     emFile_1_SPI0_RestoreConfig();
 147              		.loc 1 155 0
 148 0004 FFF7FEFF 		bl	emFile_1_SPI0_RestoreConfig
 156:.\Generated_Source\PSoC5/emFile_1_SPI0_PM.c **** 
 157:.\Generated_Source\PSoC5/emFile_1_SPI0_PM.c ****     #if(emFile_1_SPI0_RX_SOFTWARE_BUF_ENABLED)
 158:.\Generated_Source\PSoC5/emFile_1_SPI0_PM.c ****         emFile_1_SPI0_rxBufferFull  = 0u;
 159:.\Generated_Source\PSoC5/emFile_1_SPI0_PM.c ****         emFile_1_SPI0_rxBufferRead  = 0u;
 160:.\Generated_Source\PSoC5/emFile_1_SPI0_PM.c ****         emFile_1_SPI0_rxBufferWrite = 0u;
 161:.\Generated_Source\PSoC5/emFile_1_SPI0_PM.c ****     #endif /* (emFile_1_SPI0_RX_SOFTWARE_BUF_ENABLED) */
 162:.\Generated_Source\PSoC5/emFile_1_SPI0_PM.c **** 
 163:.\Generated_Source\PSoC5/emFile_1_SPI0_PM.c ****     #if(emFile_1_SPI0_TX_SOFTWARE_BUF_ENABLED)
 164:.\Generated_Source\PSoC5/emFile_1_SPI0_PM.c ****         emFile_1_SPI0_txBufferFull  = 0u;
 165:.\Generated_Source\PSoC5/emFile_1_SPI0_PM.c ****         emFile_1_SPI0_txBufferRead  = 0u;
 166:.\Generated_Source\PSoC5/emFile_1_SPI0_PM.c ****         emFile_1_SPI0_txBufferWrite = 0u;
 167:.\Generated_Source\PSoC5/emFile_1_SPI0_PM.c ****     #endif /* (emFile_1_SPI0_TX_SOFTWARE_BUF_ENABLED) */
 168:.\Generated_Source\PSoC5/emFile_1_SPI0_PM.c **** 
 169:.\Generated_Source\PSoC5/emFile_1_SPI0_PM.c ****     /* Clear any data from the RX and TX FIFO */
 170:.\Generated_Source\PSoC5/emFile_1_SPI0_PM.c ****     emFile_1_SPI0_ClearFIFO();
 149              		.loc 1 170 0
 150 0008 FFF7FEFF 		bl	emFile_1_SPI0_ClearFIFO
 171:.\Generated_Source\PSoC5/emFile_1_SPI0_PM.c **** 
 172:.\Generated_Source\PSoC5/emFile_1_SPI0_PM.c ****     /* Restore components block enable state */
 173:.\Generated_Source\PSoC5/emFile_1_SPI0_PM.c ****     if(0u != emFile_1_SPI0_backup.enableState)
 151              		.loc 1 173 0
 152 000c 40F20003 		movw	r3, #:lower16:emFile_1_SPI0_backup
 153 0010 C0F20003 		movt	r3, #:upper16:emFile_1_SPI0_backup
 154 0014 1B78     		ldrb	r3, [r3, #0]	@ zero_extendqisi2
 155 0016 002B     		cmp	r3, #0
 156 0018 01D0     		beq	.L9
 174:.\Generated_Source\PSoC5/emFile_1_SPI0_PM.c ****     {
 175:.\Generated_Source\PSoC5/emFile_1_SPI0_PM.c ****         emFile_1_SPI0_Enable();
 157              		.loc 1 175 0
 158 001a FFF7FEFF 		bl	emFile_1_SPI0_Enable
 159              	.L9:
 176:.\Generated_Source\PSoC5/emFile_1_SPI0_PM.c ****     }
 177:.\Generated_Source\PSoC5/emFile_1_SPI0_PM.c **** }
 160              		.loc 1 177 0
 161 001e 80BD     		pop	{r7, pc}
ARM GAS  C:\Users\karunmj\AppData\Local\Temp\ccS0DOFP.s 			page 7


 162              		.cfi_endproc
 163              	.LFE3:
 164              		.size	emFile_1_SPI0_Wakeup, .-emFile_1_SPI0_Wakeup
 165              		.text
 166              	.Letext0: