ARM GAS  C:\Users\karunmj\AppData\Local\Temp\cc6n1J4P.s 			page 1


   1              		.syntax unified
   2              		.cpu cortex-m3
   3              		.fpu softvfp
   4              		.eabi_attribute 20, 1
   5              		.eabi_attribute 21, 1
   6              		.eabi_attribute 23, 3
   7              		.eabi_attribute 24, 1
   8              		.eabi_attribute 25, 1
   9              		.eabi_attribute 26, 1
  10              		.eabi_attribute 30, 6
  11              		.eabi_attribute 18, 4
  12              		.thumb
  13              		.file	"emFile_1_SPI0_INT.c"
  20 0000 6E000000 		.text
  20      02004300 
  20      00000201 
  20      FB0E0D00 
  20      01010101 
  21              	.Ltext0:
  22              		.cfi_sections	.debug_frame
  23              		.section	.text.emFile_1_SPI0_TX_ISR,"ax",%progbits
  24              		.align	2
  25              		.global	emFile_1_SPI0_TX_ISR
  26              		.thumb
  27              		.thumb_func
  28              		.type	emFile_1_SPI0_TX_ISR, %function
  29              	emFile_1_SPI0_TX_ISR:
  30              	.LFB0:
  31              		.file 1 ".\\Generated_Source\\PSoC5\\emFile_1_SPI0_INT.c"
   1:.\Generated_Source\PSoC5/emFile_1_SPI0_INT.c **** /*******************************************************************************
   2:.\Generated_Source\PSoC5/emFile_1_SPI0_INT.c **** * File Name: emFile_1_SPI0_INT.c
   3:.\Generated_Source\PSoC5/emFile_1_SPI0_INT.c **** * Version 2.40
   4:.\Generated_Source\PSoC5/emFile_1_SPI0_INT.c **** *
   5:.\Generated_Source\PSoC5/emFile_1_SPI0_INT.c **** * Description:
   6:.\Generated_Source\PSoC5/emFile_1_SPI0_INT.c **** *  This file provides all Interrupt Service Routine (ISR) for the SPI Master
   7:.\Generated_Source\PSoC5/emFile_1_SPI0_INT.c **** *  component.
   8:.\Generated_Source\PSoC5/emFile_1_SPI0_INT.c **** *
   9:.\Generated_Source\PSoC5/emFile_1_SPI0_INT.c **** * Note:
  10:.\Generated_Source\PSoC5/emFile_1_SPI0_INT.c **** *  None.
  11:.\Generated_Source\PSoC5/emFile_1_SPI0_INT.c **** *
  12:.\Generated_Source\PSoC5/emFile_1_SPI0_INT.c **** ********************************************************************************
  13:.\Generated_Source\PSoC5/emFile_1_SPI0_INT.c **** * Copyright 2008-2012, Cypress Semiconductor Corporation.  All rights reserved.
  14:.\Generated_Source\PSoC5/emFile_1_SPI0_INT.c **** * You may use this file only in accordance with the license, terms, conditions,
  15:.\Generated_Source\PSoC5/emFile_1_SPI0_INT.c **** * disclaimers, and limitations in the end user license agreement accompanying
  16:.\Generated_Source\PSoC5/emFile_1_SPI0_INT.c **** * the software package with which this file was provided.
  17:.\Generated_Source\PSoC5/emFile_1_SPI0_INT.c **** *******************************************************************************/
  18:.\Generated_Source\PSoC5/emFile_1_SPI0_INT.c **** 
  19:.\Generated_Source\PSoC5/emFile_1_SPI0_INT.c **** #include "emFile_1_SPI0_PVT.h"
  20:.\Generated_Source\PSoC5/emFile_1_SPI0_INT.c **** 
  21:.\Generated_Source\PSoC5/emFile_1_SPI0_INT.c **** /* User code required at start of ISR */
  22:.\Generated_Source\PSoC5/emFile_1_SPI0_INT.c **** /* `#START emFile_1_SPI0_ISR_START_DEF` */
ARM GAS  C:\Users\karunmj\AppData\Local\Temp\cc6n1J4P.s 			page 2


  23:.\Generated_Source\PSoC5/emFile_1_SPI0_INT.c **** 
  24:.\Generated_Source\PSoC5/emFile_1_SPI0_INT.c **** /* `#END` */
  25:.\Generated_Source\PSoC5/emFile_1_SPI0_INT.c **** 
  26:.\Generated_Source\PSoC5/emFile_1_SPI0_INT.c **** 
  27:.\Generated_Source\PSoC5/emFile_1_SPI0_INT.c **** /*******************************************************************************
  28:.\Generated_Source\PSoC5/emFile_1_SPI0_INT.c **** * Function Name: emFile_1_SPI0_TX_ISR
  29:.\Generated_Source\PSoC5/emFile_1_SPI0_INT.c **** ********************************************************************************
  30:.\Generated_Source\PSoC5/emFile_1_SPI0_INT.c **** *
  31:.\Generated_Source\PSoC5/emFile_1_SPI0_INT.c **** * Summary:
  32:.\Generated_Source\PSoC5/emFile_1_SPI0_INT.c **** *  Interrupt Service Routine for TX portion of the SPI Master.
  33:.\Generated_Source\PSoC5/emFile_1_SPI0_INT.c **** *
  34:.\Generated_Source\PSoC5/emFile_1_SPI0_INT.c **** * Parameters:
  35:.\Generated_Source\PSoC5/emFile_1_SPI0_INT.c **** *  None.
  36:.\Generated_Source\PSoC5/emFile_1_SPI0_INT.c **** *
  37:.\Generated_Source\PSoC5/emFile_1_SPI0_INT.c **** * Return:
  38:.\Generated_Source\PSoC5/emFile_1_SPI0_INT.c **** *  None.
  39:.\Generated_Source\PSoC5/emFile_1_SPI0_INT.c **** *
  40:.\Generated_Source\PSoC5/emFile_1_SPI0_INT.c **** * Global variables:
  41:.\Generated_Source\PSoC5/emFile_1_SPI0_INT.c **** *  emFile_1_SPI0_txBufferWrite - used for the account of the bytes which
  42:.\Generated_Source\PSoC5/emFile_1_SPI0_INT.c **** *  have been written down in the TX software buffer.
  43:.\Generated_Source\PSoC5/emFile_1_SPI0_INT.c **** *  emFile_1_SPI0_txBufferRead - used for the account of the bytes which
  44:.\Generated_Source\PSoC5/emFile_1_SPI0_INT.c **** *  have been read from the TX software buffer, modified when exist data to
  45:.\Generated_Source\PSoC5/emFile_1_SPI0_INT.c **** *  sending and FIFO Not Full.
  46:.\Generated_Source\PSoC5/emFile_1_SPI0_INT.c **** *  emFile_1_SPI0_txBuffer[emFile_1_SPI0_TX_BUFFER_SIZE] - used to store
  47:.\Generated_Source\PSoC5/emFile_1_SPI0_INT.c **** *  data to sending.
  48:.\Generated_Source\PSoC5/emFile_1_SPI0_INT.c **** *  All described above Global variables are used when Software Buffer is used.
  49:.\Generated_Source\PSoC5/emFile_1_SPI0_INT.c **** *
  50:.\Generated_Source\PSoC5/emFile_1_SPI0_INT.c **** *******************************************************************************/
  51:.\Generated_Source\PSoC5/emFile_1_SPI0_INT.c **** CY_ISR(emFile_1_SPI0_TX_ISR)
  52:.\Generated_Source\PSoC5/emFile_1_SPI0_INT.c **** {
  32              		.loc 1 52 0
  33              		.cfi_startproc
  34              		@ args = 0, pretend = 0, frame = 0
  35              		@ frame_needed = 1, uses_anonymous_args = 0
  36              		@ link register save eliminated.
  37 0000 80B4     		push	{r7}
  38              	.LCFI0:
  39              		.cfi_def_cfa_offset 4
  40 0002 00AF     		add	r7, sp, #0
  41              		.cfi_offset 7, -4
  42              	.LCFI1:
  43              		.cfi_def_cfa_register 7
  53:.\Generated_Source\PSoC5/emFile_1_SPI0_INT.c ****     #if(emFile_1_SPI0_TX_SOFTWARE_BUF_ENABLED)
  54:.\Generated_Source\PSoC5/emFile_1_SPI0_INT.c ****         uint8 tmpStatus;
  55:.\Generated_Source\PSoC5/emFile_1_SPI0_INT.c ****     #endif /* (emFile_1_SPI0_TX_SOFTWARE_BUF_ENABLED) */
  56:.\Generated_Source\PSoC5/emFile_1_SPI0_INT.c **** 
  57:.\Generated_Source\PSoC5/emFile_1_SPI0_INT.c ****     /* User code required at start of ISR */
  58:.\Generated_Source\PSoC5/emFile_1_SPI0_INT.c ****     /* `#START emFile_1_SPI0_TX_ISR_START` */
  59:.\Generated_Source\PSoC5/emFile_1_SPI0_INT.c **** 
  60:.\Generated_Source\PSoC5/emFile_1_SPI0_INT.c ****     /* `#END` */
  61:.\Generated_Source\PSoC5/emFile_1_SPI0_INT.c **** 
  62:.\Generated_Source\PSoC5/emFile_1_SPI0_INT.c ****     #if(emFile_1_SPI0_TX_SOFTWARE_BUF_ENABLED)
  63:.\Generated_Source\PSoC5/emFile_1_SPI0_INT.c ****         /* Check if TX data buffer is not empty and there is space in TX FIFO */
  64:.\Generated_Source\PSoC5/emFile_1_SPI0_INT.c ****         while(emFile_1_SPI0_txBufferRead != emFile_1_SPI0_txBufferWrite)
  65:.\Generated_Source\PSoC5/emFile_1_SPI0_INT.c ****         {
  66:.\Generated_Source\PSoC5/emFile_1_SPI0_INT.c ****             tmpStatus = emFile_1_SPI0_GET_STATUS_TX(emFile_1_SPI0_swStatusTx);
  67:.\Generated_Source\PSoC5/emFile_1_SPI0_INT.c ****             emFile_1_SPI0_swStatusTx = tmpStatus;
ARM GAS  C:\Users\karunmj\AppData\Local\Temp\cc6n1J4P.s 			page 3


  68:.\Generated_Source\PSoC5/emFile_1_SPI0_INT.c **** 
  69:.\Generated_Source\PSoC5/emFile_1_SPI0_INT.c ****             if(0u != (emFile_1_SPI0_swStatusTx & emFile_1_SPI0_STS_TX_FIFO_NOT_FULL))
  70:.\Generated_Source\PSoC5/emFile_1_SPI0_INT.c ****             {
  71:.\Generated_Source\PSoC5/emFile_1_SPI0_INT.c ****                 if(0u == emFile_1_SPI0_txBufferFull)
  72:.\Generated_Source\PSoC5/emFile_1_SPI0_INT.c ****                 {
  73:.\Generated_Source\PSoC5/emFile_1_SPI0_INT.c ****                    emFile_1_SPI0_txBufferRead++;
  74:.\Generated_Source\PSoC5/emFile_1_SPI0_INT.c **** 
  75:.\Generated_Source\PSoC5/emFile_1_SPI0_INT.c ****                     if(emFile_1_SPI0_txBufferRead >= emFile_1_SPI0_TX_BUFFER_SIZE)
  76:.\Generated_Source\PSoC5/emFile_1_SPI0_INT.c ****                     {
  77:.\Generated_Source\PSoC5/emFile_1_SPI0_INT.c ****                         emFile_1_SPI0_txBufferRead = 0u;
  78:.\Generated_Source\PSoC5/emFile_1_SPI0_INT.c ****                     }
  79:.\Generated_Source\PSoC5/emFile_1_SPI0_INT.c ****                 }
  80:.\Generated_Source\PSoC5/emFile_1_SPI0_INT.c ****                 else
  81:.\Generated_Source\PSoC5/emFile_1_SPI0_INT.c ****                 {
  82:.\Generated_Source\PSoC5/emFile_1_SPI0_INT.c ****                     emFile_1_SPI0_txBufferFull = 0u;
  83:.\Generated_Source\PSoC5/emFile_1_SPI0_INT.c ****                 }
  84:.\Generated_Source\PSoC5/emFile_1_SPI0_INT.c **** 
  85:.\Generated_Source\PSoC5/emFile_1_SPI0_INT.c ****                 /* Move data from the Buffer to the FIFO */
  86:.\Generated_Source\PSoC5/emFile_1_SPI0_INT.c ****                 CY_SET_REG8(emFile_1_SPI0_TXDATA_PTR,
  87:.\Generated_Source\PSoC5/emFile_1_SPI0_INT.c ****                     emFile_1_SPI0_txBuffer[emFile_1_SPI0_txBufferRead]);
  88:.\Generated_Source\PSoC5/emFile_1_SPI0_INT.c ****             }
  89:.\Generated_Source\PSoC5/emFile_1_SPI0_INT.c ****             else
  90:.\Generated_Source\PSoC5/emFile_1_SPI0_INT.c ****             {
  91:.\Generated_Source\PSoC5/emFile_1_SPI0_INT.c ****                 break;
  92:.\Generated_Source\PSoC5/emFile_1_SPI0_INT.c ****             }
  93:.\Generated_Source\PSoC5/emFile_1_SPI0_INT.c ****         }
  94:.\Generated_Source\PSoC5/emFile_1_SPI0_INT.c **** 
  95:.\Generated_Source\PSoC5/emFile_1_SPI0_INT.c ****         if(emFile_1_SPI0_txBufferRead == emFile_1_SPI0_txBufferWrite)
  96:.\Generated_Source\PSoC5/emFile_1_SPI0_INT.c ****         {
  97:.\Generated_Source\PSoC5/emFile_1_SPI0_INT.c ****             /* TX Buffer is EMPTY: disable interrupt on TX NOT FULL */
  98:.\Generated_Source\PSoC5/emFile_1_SPI0_INT.c ****             emFile_1_SPI0_TX_STATUS_MASK_REG &= ((uint8) ~emFile_1_SPI0_STS_TX_FIFO_NOT_FULL);
  99:.\Generated_Source\PSoC5/emFile_1_SPI0_INT.c ****         }
 100:.\Generated_Source\PSoC5/emFile_1_SPI0_INT.c **** 
 101:.\Generated_Source\PSoC5/emFile_1_SPI0_INT.c ****     #endif /* (emFile_1_SPI0_TX_SOFTWARE_BUF_ENABLED) */
 102:.\Generated_Source\PSoC5/emFile_1_SPI0_INT.c **** 
 103:.\Generated_Source\PSoC5/emFile_1_SPI0_INT.c ****     /* User code required at end of ISR (Optional) */
 104:.\Generated_Source\PSoC5/emFile_1_SPI0_INT.c ****     /* `#START emFile_1_SPI0_TX_ISR_END` */
 105:.\Generated_Source\PSoC5/emFile_1_SPI0_INT.c **** 
 106:.\Generated_Source\PSoC5/emFile_1_SPI0_INT.c ****     /* `#END` */
 107:.\Generated_Source\PSoC5/emFile_1_SPI0_INT.c **** }
  44              		.loc 1 107 0
  45 0004 BD46     		mov	sp, r7
  46 0006 80BC     		pop	{r7}
  47 0008 7047     		bx	lr
  48              		.cfi_endproc
  49              	.LFE0:
  50              		.size	emFile_1_SPI0_TX_ISR, .-emFile_1_SPI0_TX_ISR
  51 000a 00BF     		.section	.text.emFile_1_SPI0_RX_ISR,"ax",%progbits
  52              		.align	2
  53              		.global	emFile_1_SPI0_RX_ISR
  54              		.thumb
  55              		.thumb_func
  56              		.type	emFile_1_SPI0_RX_ISR, %function
  57              	emFile_1_SPI0_RX_ISR:
  58              	.LFB1:
 108:.\Generated_Source\PSoC5/emFile_1_SPI0_INT.c **** 
 109:.\Generated_Source\PSoC5/emFile_1_SPI0_INT.c **** 
ARM GAS  C:\Users\karunmj\AppData\Local\Temp\cc6n1J4P.s 			page 4


 110:.\Generated_Source\PSoC5/emFile_1_SPI0_INT.c **** /*******************************************************************************
 111:.\Generated_Source\PSoC5/emFile_1_SPI0_INT.c **** * Function Name: emFile_1_SPI0_RX_ISR
 112:.\Generated_Source\PSoC5/emFile_1_SPI0_INT.c **** ********************************************************************************
 113:.\Generated_Source\PSoC5/emFile_1_SPI0_INT.c **** *
 114:.\Generated_Source\PSoC5/emFile_1_SPI0_INT.c **** * Summary:
 115:.\Generated_Source\PSoC5/emFile_1_SPI0_INT.c **** *  Interrupt Service Routine for RX portion of the SPI Master.
 116:.\Generated_Source\PSoC5/emFile_1_SPI0_INT.c **** *
 117:.\Generated_Source\PSoC5/emFile_1_SPI0_INT.c **** * Parameters:
 118:.\Generated_Source\PSoC5/emFile_1_SPI0_INT.c **** *  None.
 119:.\Generated_Source\PSoC5/emFile_1_SPI0_INT.c **** *
 120:.\Generated_Source\PSoC5/emFile_1_SPI0_INT.c **** * Return:
 121:.\Generated_Source\PSoC5/emFile_1_SPI0_INT.c **** *  None.
 122:.\Generated_Source\PSoC5/emFile_1_SPI0_INT.c **** *
 123:.\Generated_Source\PSoC5/emFile_1_SPI0_INT.c **** * Global variables:
 124:.\Generated_Source\PSoC5/emFile_1_SPI0_INT.c **** *  emFile_1_SPI0_rxBufferWrite - used for the account of the bytes which
 125:.\Generated_Source\PSoC5/emFile_1_SPI0_INT.c **** *  have been written down in the RX software buffer modified when FIFO contains
 126:.\Generated_Source\PSoC5/emFile_1_SPI0_INT.c **** *  new data.
 127:.\Generated_Source\PSoC5/emFile_1_SPI0_INT.c **** *  emFile_1_SPI0_rxBufferRead - used for the account of the bytes which
 128:.\Generated_Source\PSoC5/emFile_1_SPI0_INT.c **** *  have been read from the RX software buffer, modified when overflow occurred.
 129:.\Generated_Source\PSoC5/emFile_1_SPI0_INT.c **** *  emFile_1_SPI0_rxBuffer[emFile_1_SPI0_RX_BUFFER_SIZE] - used to store
 130:.\Generated_Source\PSoC5/emFile_1_SPI0_INT.c **** *  received data, modified when FIFO contains new data.
 131:.\Generated_Source\PSoC5/emFile_1_SPI0_INT.c **** *  All described above Global variables are used when Software Buffer is used.
 132:.\Generated_Source\PSoC5/emFile_1_SPI0_INT.c **** *
 133:.\Generated_Source\PSoC5/emFile_1_SPI0_INT.c **** *******************************************************************************/
 134:.\Generated_Source\PSoC5/emFile_1_SPI0_INT.c **** CY_ISR(emFile_1_SPI0_RX_ISR)
 135:.\Generated_Source\PSoC5/emFile_1_SPI0_INT.c **** {
  59              		.loc 1 135 0
  60              		.cfi_startproc
  61              		@ args = 0, pretend = 0, frame = 0
  62              		@ frame_needed = 1, uses_anonymous_args = 0
  63              		@ link register save eliminated.
  64 0000 80B4     		push	{r7}
  65              	.LCFI2:
  66              		.cfi_def_cfa_offset 4
  67 0002 00AF     		add	r7, sp, #0
  68              		.cfi_offset 7, -4
  69              	.LCFI3:
  70              		.cfi_def_cfa_register 7
 136:.\Generated_Source\PSoC5/emFile_1_SPI0_INT.c ****     #if(emFile_1_SPI0_RX_SOFTWARE_BUF_ENABLED)
 137:.\Generated_Source\PSoC5/emFile_1_SPI0_INT.c ****         uint8 tmpStatus;
 138:.\Generated_Source\PSoC5/emFile_1_SPI0_INT.c ****         uint8 rxData;
 139:.\Generated_Source\PSoC5/emFile_1_SPI0_INT.c ****     #endif /* (emFile_1_SPI0_RX_SOFTWARE_BUF_ENABLED) */
 140:.\Generated_Source\PSoC5/emFile_1_SPI0_INT.c **** 
 141:.\Generated_Source\PSoC5/emFile_1_SPI0_INT.c ****     /* User code required at start of ISR */
 142:.\Generated_Source\PSoC5/emFile_1_SPI0_INT.c ****     /* `#START emFile_1_SPI0_RX_ISR_START` */
 143:.\Generated_Source\PSoC5/emFile_1_SPI0_INT.c **** 
 144:.\Generated_Source\PSoC5/emFile_1_SPI0_INT.c ****     /* `#END` */
 145:.\Generated_Source\PSoC5/emFile_1_SPI0_INT.c **** 
 146:.\Generated_Source\PSoC5/emFile_1_SPI0_INT.c ****     #if(emFile_1_SPI0_RX_SOFTWARE_BUF_ENABLED)
 147:.\Generated_Source\PSoC5/emFile_1_SPI0_INT.c **** 
 148:.\Generated_Source\PSoC5/emFile_1_SPI0_INT.c ****         tmpStatus = emFile_1_SPI0_GET_STATUS_RX(emFile_1_SPI0_swStatusRx);
 149:.\Generated_Source\PSoC5/emFile_1_SPI0_INT.c ****         emFile_1_SPI0_swStatusRx = tmpStatus;
 150:.\Generated_Source\PSoC5/emFile_1_SPI0_INT.c **** 
 151:.\Generated_Source\PSoC5/emFile_1_SPI0_INT.c ****         /* Check if RX data FIFO has some data to be moved into the RX Buffer */
 152:.\Generated_Source\PSoC5/emFile_1_SPI0_INT.c ****         while(0u != (emFile_1_SPI0_swStatusRx & emFile_1_SPI0_STS_RX_FIFO_NOT_EMPTY))
 153:.\Generated_Source\PSoC5/emFile_1_SPI0_INT.c ****         {
 154:.\Generated_Source\PSoC5/emFile_1_SPI0_INT.c ****             rxData = CY_GET_REG8(emFile_1_SPI0_RXDATA_PTR);
ARM GAS  C:\Users\karunmj\AppData\Local\Temp\cc6n1J4P.s 			page 5


 155:.\Generated_Source\PSoC5/emFile_1_SPI0_INT.c **** 
 156:.\Generated_Source\PSoC5/emFile_1_SPI0_INT.c ****             /* Set next pointer. */
 157:.\Generated_Source\PSoC5/emFile_1_SPI0_INT.c ****             emFile_1_SPI0_rxBufferWrite++;
 158:.\Generated_Source\PSoC5/emFile_1_SPI0_INT.c ****             if(emFile_1_SPI0_rxBufferWrite >= emFile_1_SPI0_RX_BUFFER_SIZE)
 159:.\Generated_Source\PSoC5/emFile_1_SPI0_INT.c ****             {
 160:.\Generated_Source\PSoC5/emFile_1_SPI0_INT.c ****                 emFile_1_SPI0_rxBufferWrite = 0u;
 161:.\Generated_Source\PSoC5/emFile_1_SPI0_INT.c ****             }
 162:.\Generated_Source\PSoC5/emFile_1_SPI0_INT.c **** 
 163:.\Generated_Source\PSoC5/emFile_1_SPI0_INT.c ****             if(emFile_1_SPI0_rxBufferWrite == emFile_1_SPI0_rxBufferRead)
 164:.\Generated_Source\PSoC5/emFile_1_SPI0_INT.c ****             {
 165:.\Generated_Source\PSoC5/emFile_1_SPI0_INT.c ****                 emFile_1_SPI0_rxBufferRead++;
 166:.\Generated_Source\PSoC5/emFile_1_SPI0_INT.c ****                 if(emFile_1_SPI0_rxBufferRead >= emFile_1_SPI0_RX_BUFFER_SIZE)
 167:.\Generated_Source\PSoC5/emFile_1_SPI0_INT.c ****                 {
 168:.\Generated_Source\PSoC5/emFile_1_SPI0_INT.c ****                     emFile_1_SPI0_rxBufferRead = 0u;
 169:.\Generated_Source\PSoC5/emFile_1_SPI0_INT.c ****                 }
 170:.\Generated_Source\PSoC5/emFile_1_SPI0_INT.c **** 
 171:.\Generated_Source\PSoC5/emFile_1_SPI0_INT.c ****                 emFile_1_SPI0_rxBufferFull = 1u;
 172:.\Generated_Source\PSoC5/emFile_1_SPI0_INT.c ****             }
 173:.\Generated_Source\PSoC5/emFile_1_SPI0_INT.c **** 
 174:.\Generated_Source\PSoC5/emFile_1_SPI0_INT.c ****             /* Move data from the FIFO to the Buffer */
 175:.\Generated_Source\PSoC5/emFile_1_SPI0_INT.c ****             emFile_1_SPI0_rxBuffer[emFile_1_SPI0_rxBufferWrite] = rxData;
 176:.\Generated_Source\PSoC5/emFile_1_SPI0_INT.c **** 
 177:.\Generated_Source\PSoC5/emFile_1_SPI0_INT.c ****             tmpStatus = emFile_1_SPI0_GET_STATUS_RX(emFile_1_SPI0_swStatusRx);
 178:.\Generated_Source\PSoC5/emFile_1_SPI0_INT.c ****             emFile_1_SPI0_swStatusRx = tmpStatus;
 179:.\Generated_Source\PSoC5/emFile_1_SPI0_INT.c ****         }
 180:.\Generated_Source\PSoC5/emFile_1_SPI0_INT.c **** 
 181:.\Generated_Source\PSoC5/emFile_1_SPI0_INT.c ****     #endif /* (emFile_1_SPI0_RX_SOFTWARE_BUF_ENABLED) */
 182:.\Generated_Source\PSoC5/emFile_1_SPI0_INT.c **** 
 183:.\Generated_Source\PSoC5/emFile_1_SPI0_INT.c ****     /* User code required at end of ISR (Optional) */
 184:.\Generated_Source\PSoC5/emFile_1_SPI0_INT.c ****     /* `#START emFile_1_SPI0_RX_ISR_END` */
 185:.\Generated_Source\PSoC5/emFile_1_SPI0_INT.c **** 
 186:.\Generated_Source\PSoC5/emFile_1_SPI0_INT.c ****     /* `#END` */
 187:.\Generated_Source\PSoC5/emFile_1_SPI0_INT.c **** }
  71              		.loc 1 187 0
  72 0004 BD46     		mov	sp, r7
  73 0006 80BC     		pop	{r7}
  74 0008 7047     		bx	lr
  75              		.cfi_endproc
  76              	.LFE1:
  77              		.size	emFile_1_SPI0_RX_ISR, .-emFile_1_SPI0_RX_ISR
  78 000a 00BF     		.text
  79              	.Letext0: