ARM GAS  C:\Users\karunmj\AppData\Local\Temp\cczdrClK.s 			page 1


   1              		.syntax unified
   2              		.cpu cortex-m3
   3              		.fpu softvfp
   4              		.eabi_attribute 20, 1
   5              		.eabi_attribute 21, 1
   6              		.eabi_attribute 23, 3
   7              		.eabi_attribute 24, 1
   8              		.eabi_attribute 25, 1
   9              		.eabi_attribute 26, 1
  10              		.eabi_attribute 30, 6
  11              		.eabi_attribute 18, 4
  12              		.thumb
  13              		.file	"main.c"
  20 0000 60010000 		.text
  20      0200BC00 
  20      00000201 
  20      FB0E0D00 
  20      01010101 
  21              	.Ltext0:
  22              		.cfi_sections	.debug_frame
  23              		.comm	modem_state,1,1
  24              		.comm	data_packet,128,4
  25              		.comm	packet_ready,1,1
  26              		.comm	take_reading,1,1
  27              		.global	ultrasonic_reading
  28              		.bss
  29              		.align	2
  30              		.type	ultrasonic_reading, %object
  31              		.size	ultrasonic_reading, 12
  32              	ultrasonic_reading:
  33 0000 00000000 		.space	12
  33      00000000 
  33      00000000 
  34              		.global	__aeabi_f2d
  35              		.section	.rodata
  36              		.align	2
  37              	.LC0:
  38 0000 25643A25 		.ascii	"%d:%d:%d %d/%d/%d u=%f\000"
  38      643A2564 
  38      2025642F 
  38      25642F25 
  38      6420753D 
  39 0017 00       		.align	2
  40              	.LC1:
  41 0018 64617461 		.ascii	"data.txt\000"
  41      2E747874 
  41      00
  42 0021 000000   		.align	2
  43              	.LC2:
  44 0024 6100     		.ascii	"a\000"
  45 0026 0000     		.section	.text.main,"ax",%progbits
ARM GAS  C:\Users\karunmj\AppData\Local\Temp\cczdrClK.s 			page 2


  46              		.align	2
  47              		.global	main
  48              		.thumb
  49              		.thumb_func
  50              		.type	main, %function
  51              	main:
  52              	.LFB29:
  53              		.file 1 ".\\main.c"
   1:.\main.c      **** /* M2M SMS Datalogger */ 
   2:.\main.c      **** 
   3:.\main.c      **** #include <device.h>
   4:.\main.c      **** #include <stdio.h>
   5:.\main.c      **** #include <string.h>
   6:.\main.c      **** #include <FS.h>
   7:.\main.c      **** #include "neomote.h"
   8:.\main.c      **** #include "sleep.h"
   9:.\main.c      **** #include "modem.h"
  10:.\main.c      **** #include "ultrasonic.h"
  11:.\main.c      **** //#include "solinst_depth.h"
  12:.\main.c      **** 
  13:.\main.c      **** // define global variables
  14:.\main.c      **** #define MAX_PACKET_SIZE 128
  15:.\main.c      **** uint8   data_packet[MAX_PACKET_SIZE];
  16:.\main.c      **** uint8   packet_ready;
  17:.\main.c      **** uint8   take_reading;
  18:.\main.c      **** UltrasonicReading ultrasonic_reading = {.valid = 0};    // Initialize UltrasonicReading.valid to 0
  19:.\main.c      **** //SolinstReading solinst_reading = {.valid = 0};          // Initialize SolinstReading.valid to 0
  20:.\main.c      **** 
  21:.\main.c      **** // callback definitions
  22:.\main.c      **** void rtcCallBackReceived(uint8 alarmType);
  23:.\main.c      **** 
  24:.\main.c      **** // prototype functions
  25:.\main.c      **** void read_packet(uint8* packet, uint8 size);
  26:.\main.c      **** void write_packet(uint8* dest, uint8* src_ultrasonic, uint8* src_pressure, uint8 size);
  27:.\main.c      **** void clear_packet(uint8* packet, uint8 size);
  28:.\main.c      **** void Write_To_SD_Card(const char* fileName, const char* pMode, const void* pData, U32 NumBytes);
  29:.\main.c      **** CY_ISR_PROTO(isr_timer);
  30:.\main.c      **** 
  31:.\main.c      **** void main(){
  54              		.loc 1 31 0
  55              		.cfi_startproc
  56              		@ args = 0, pretend = 0, frame = 136
  57              		@ frame_needed = 1, uses_anonymous_args = 0
  58 0000 2DE9F047 		push	{r4, r5, r6, r7, r8, r9, sl, lr}
  59              	.LCFI0:
  60              		.cfi_def_cfa_offset 32
  61 0004 A8B0     		sub	sp, sp, #160
  62              	.LCFI1:
  63              		.cfi_def_cfa_offset 192
  64 0006 06AF     		add	r7, sp, #24
  65              		.cfi_offset 14, -4
  66              		.cfi_offset 10, -8
  67              		.cfi_offset 9, -12
  68              		.cfi_offset 8, -16
  69              		.cfi_offset 7, -20
  70              		.cfi_offset 6, -24
  71              		.cfi_offset 5, -28
ARM GAS  C:\Users\karunmj\AppData\Local\Temp\cczdrClK.s 			page 3


  72              		.cfi_offset 4, -32
  73              	.LCFI2:
  74              		.cfi_def_cfa 7, 168
  32:.\main.c      ****    
  33:.\main.c      ****     
  34:.\main.c      ****     //timer_Start();
  35:.\main.c      ****     //isr_timer_StartEx(isr_timer);
  36:.\main.c      ****      SleepTimer_Start();
  75              		.loc 1 36 0
  76 0008 FFF7FEFF 		bl	SleepTimer_Start
  37:.\main.c      ****     modem_start();
  77              		.loc 1 37 0
  78 000c FFF7FEFF 		bl	modem_start
  38:.\main.c      ****     CyGlobalIntEnable;
  79              		.loc 1 38 0
  80              	@ 38 ".\main.c" 1
  81 0010 62B6     		CPSIE   i
  82              	@ 0 "" 2
  39:.\main.c      ****     FS_Init();
  83              		.loc 1 39 0
  84              		.thumb
  85 0012 FFF7FEFF 		bl	FS_Init
  40:.\main.c      ****     ultrasonic_start();
  86              		.loc 1 40 0
  87 0016 FFF7FEFF 		bl	ultrasonic_start
  41:.\main.c      ****     //solinst_start();
  42:.\main.c      **** 
  43:.\main.c      ****     packet_ready = 0u; 
  88              		.loc 1 43 0
  89 001a 40F20003 		movw	r3, #:lower16:packet_ready
  90 001e C0F20003 		movt	r3, #:upper16:packet_ready
  91 0022 4FF00002 		mov	r2, #0
  92 0026 1A70     		strb	r2, [r3, #0]
  44:.\main.c      ****     take_reading = 1u;
  93              		.loc 1 44 0
  94 0028 40F20003 		movw	r3, #:lower16:take_reading
  95 002c C0F20003 		movt	r3, #:upper16:take_reading
  96 0030 4FF00102 		mov	r2, #1
  97 0034 1A70     		strb	r2, [r3, #0]
  45:.\main.c      **** 
  46:.\main.c      ****     NeoRTC_Start(rtcCallBackReceived);      // Start and enable the RTC.   
  98              		.loc 1 46 0
  99 0036 40F20000 		movw	r0, #:lower16:rtcCallBackReceived
 100 003a C0F20000 		movt	r0, #:upper16:rtcCallBackReceived
 101 003e FFF7FEFF 		bl	NeoRTC_Start
  47:.\main.c      ****     NeoRTC_Set_Repeating_Minute_Alarm(1u);  // Set 1-minute alarm
 102              		.loc 1 47 0
 103 0042 4FF00100 		mov	r0, #1
 104 0046 FFF7FEFF 		bl	NeoRTC_Set_Repeating_Minute_Alarm
 105 004a 02E0     		b	.L7
 106              	.L9:
  48:.\main.c      ****     
  49:.\main.c      ****     for(;;){
  50:.\main.c      ****         // No need to pause for short time in loop?
  51:.\main.c      ****         RTC_Process_Tasks();
  52:.\main.c      ****         
  53:.\main.c      ****         if(packet_ready){
ARM GAS  C:\Users\karunmj\AppData\Local\Temp\cczdrClK.s 			page 4


  54:.\main.c      ****             if(modem_state == MODEM_STATE_OFF){
  55:.\main.c      ****                 modem_power_on();
  56:.\main.c      ****             }
  57:.\main.c      ****             else if(modem_state == MODEM_STATE_IDLE){
  58:.\main.c      ****                 //if(modem_send_packet(data_packet)){     // if packet sent
  59:.\main.c      ****                 if(modem_send_packet(data_packet)){     // if packet sent
  60:.\main.c      ****                     modem_power_off();
  61:.\main.c      ****                     clear_packet(data_packet, MAX_PACKET_SIZE);
  62:.\main.c      ****                 }
  63:.\main.c      ****                 else{                                   // if packet not sent
  64:.\main.c      ****                     modem_reset();
  65:.\main.c      ****                     modem_power_off();
  66:.\main.c      ****                 }
  67:.\main.c      ****             }
  68:.\main.c      ****         }else if(take_reading){
  69:.\main.c      ****         
  70:.\main.c      ****             // Get Readings for:
  71:.\main.c      ****             // depth, pressure, temp
  72:.\main.c      ****             // conductivity.
  73:.\main.c      ****             //solinst_get_reading(&solinst_reading);
  74:.\main.c      ****             ultrasonic_get_reading(&ultrasonic_reading);
  75:.\main.c      **** 
  76:.\main.c      ****             take_reading = 0u;
  77:.\main.c      ****             NeoRtcTimeStruct tm_neo = NeoRTC_Read_Time();
  78:.\main.c      ****             char sendBuffer [128];
  79:.\main.c      **** 
  80:.\main.c      ****             sprintf(data_packet, "%d:%d:%d %d/%d/%d u=%f", tm_neo.hour, tm_neo.minute,
  81:.\main.c      ****                              tm_neo.second, tm_neo.day, tm_neo.month, tm_neo.year, ultrasonic_readi
  82:.\main.c      ****             
  83:.\main.c      ****             Write_To_SD_Card("data.txt","a",data_packet,strlen(data_packet));
  84:.\main.c      **** 
  85:.\main.c      ****             
  86:.\main.c      ****             packet_ready = 1u; 
  87:.\main.c      ****             
  88:.\main.c      ****         }
  89:.\main.c      ****     }
 107              		.loc 1 89 0
 108 004c 00BF     		nop
 109 004e 00E0     		b	.L7
 110              	.L10:
 111 0050 00BF     		nop
 112              	.L7:
 113              		.loc 1 51 0
 114 0052 FFF7FEFF 		bl	RTC_Process_Tasks
 115              		.loc 1 53 0
 116 0056 40F20003 		movw	r3, #:lower16:packet_ready
 117 005a C0F20003 		movt	r3, #:upper16:packet_ready
 118 005e 1B78     		ldrb	r3, [r3, #0]	@ zero_extendqisi2
 119 0060 002B     		cmp	r3, #0
 120 0062 29D0     		beq	.L2
 121              		.loc 1 54 0
 122 0064 40F20003 		movw	r3, #:lower16:modem_state
 123 0068 C0F20003 		movt	r3, #:upper16:modem_state
 124 006c 1B78     		ldrb	r3, [r3, #0]	@ zero_extendqisi2
 125 006e 002B     		cmp	r3, #0
 126 0070 02D1     		bne	.L3
 127              		.loc 1 55 0
ARM GAS  C:\Users\karunmj\AppData\Local\Temp\cczdrClK.s 			page 5


 128 0072 FFF7FEFF 		bl	modem_power_on
 129              		.loc 1 89 0
 130 0076 ECE7     		b	.L7
 131              	.L3:
 132              		.loc 1 57 0
 133 0078 40F20003 		movw	r3, #:lower16:modem_state
 134 007c C0F20003 		movt	r3, #:upper16:modem_state
 135 0080 1B78     		ldrb	r3, [r3, #0]	@ zero_extendqisi2
 136 0082 012B     		cmp	r3, #1
 137 0084 E2D1     		bne	.L9
 138              		.loc 1 59 0
 139 0086 40F20000 		movw	r0, #:lower16:data_packet
 140 008a C0F20000 		movt	r0, #:upper16:data_packet
 141 008e FFF7FEFF 		bl	modem_send_packet
 142 0092 0346     		mov	r3, r0
 143 0094 002B     		cmp	r3, #0
 144 0096 0AD0     		beq	.L5
 145              		.loc 1 60 0
 146 0098 FFF7FEFF 		bl	modem_power_off
 147              		.loc 1 61 0
 148 009c 40F20000 		movw	r0, #:lower16:data_packet
 149 00a0 C0F20000 		movt	r0, #:upper16:data_packet
 150 00a4 4FF08001 		mov	r1, #128
 151 00a8 FFF7FEFF 		bl	clear_packet
 152              		.loc 1 89 0
 153 00ac D1E7     		b	.L7
 154              	.L5:
 155              		.loc 1 64 0
 156 00ae FFF7FEFF 		bl	modem_reset
 157              		.loc 1 65 0
 158 00b2 FFF7FEFF 		bl	modem_power_off
 159              		.loc 1 89 0
 160 00b6 CCE7     		b	.L7
 161              	.L2:
 162              		.loc 1 68 0
 163 00b8 40F20003 		movw	r3, #:lower16:take_reading
 164 00bc C0F20003 		movt	r3, #:upper16:take_reading
 165 00c0 1B78     		ldrb	r3, [r3, #0]	@ zero_extendqisi2
 166 00c2 002B     		cmp	r3, #0
 167 00c4 C4D0     		beq	.L10
 168              	.LBB2:
 169              		.loc 1 74 0
 170 00c6 40F20000 		movw	r0, #:lower16:ultrasonic_reading
 171 00ca C0F20000 		movt	r0, #:upper16:ultrasonic_reading
 172 00ce FFF7FEFF 		bl	ultrasonic_get_reading
 173              		.loc 1 76 0
 174 00d2 40F20003 		movw	r3, #:lower16:take_reading
 175 00d6 C0F20003 		movt	r3, #:upper16:take_reading
 176 00da 4FF00002 		mov	r2, #0
 177 00de 1A70     		strb	r2, [r3, #0]
 178              		.loc 1 77 0
 179 00e0 07F18003 		add	r3, r7, #128
 180 00e4 1846     		mov	r0, r3
 181 00e6 FFF7FEFF 		bl	NeoRTC_Read_Time
 182              		.loc 1 80 0
 183 00ea 97F88230 		ldrb	r3, [r7, #130]	@ zero_extendqisi2
 184 00ee 1D46     		mov	r5, r3
ARM GAS  C:\Users\karunmj\AppData\Local\Temp\cczdrClK.s 			page 6


 185 00f0 97F88130 		ldrb	r3, [r7, #129]	@ zero_extendqisi2
 186 00f4 1C46     		mov	r4, r3
 187              		.loc 1 81 0
 188 00f6 97F88030 		ldrb	r3, [r7, #128]	@ zero_extendqisi2
 189              		.loc 1 80 0
 190 00fa 9946     		mov	r9, r3
 191              		.loc 1 81 0
 192 00fc 97F88330 		ldrb	r3, [r7, #131]	@ zero_extendqisi2
 193              		.loc 1 80 0
 194 0100 9A46     		mov	sl, r3
 195              		.loc 1 81 0
 196 0102 97F88530 		ldrb	r3, [r7, #133]	@ zero_extendqisi2
 197              		.loc 1 80 0
 198 0106 9846     		mov	r8, r3
 199              		.loc 1 81 0
 200 0108 B7F88630 		ldrh	r3, [r7, #134]
 201              		.loc 1 80 0
 202 010c 1E46     		mov	r6, r3
 203              		.loc 1 81 0
 204 010e 40F20003 		movw	r3, #:lower16:ultrasonic_reading
 205 0112 C0F20003 		movt	r3, #:upper16:ultrasonic_reading
 206 0116 5B68     		ldr	r3, [r3, #4]	@ float
 207              		.loc 1 80 0
 208 0118 1846     		mov	r0, r3
 209 011a FFF7FEFF 		bl	__aeabi_f2d
 210 011e 0246     		mov	r2, r0
 211 0120 0B46     		mov	r3, r1
 212 0122 CDF80090 		str	r9, [sp, #0]
 213 0126 CDF804A0 		str	sl, [sp, #4]
 214 012a CDF80880 		str	r8, [sp, #8]
 215 012e 0396     		str	r6, [sp, #12]
 216 0130 CDE90423 		strd	r2, [sp, #16]
 217 0134 40F20000 		movw	r0, #:lower16:data_packet
 218 0138 C0F20000 		movt	r0, #:upper16:data_packet
 219 013c 40F20001 		movw	r1, #:lower16:.LC0
 220 0140 C0F20001 		movt	r1, #:upper16:.LC0
 221 0144 2A46     		mov	r2, r5
 222 0146 2346     		mov	r3, r4
 223 0148 FFF7FEFF 		bl	sprintf
 224              		.loc 1 83 0
 225 014c 40F20000 		movw	r0, #:lower16:data_packet
 226 0150 C0F20000 		movt	r0, #:upper16:data_packet
 227 0154 FFF7FEFF 		bl	strlen
 228 0158 0346     		mov	r3, r0
 229 015a 40F20000 		movw	r0, #:lower16:.LC1
 230 015e C0F20000 		movt	r0, #:upper16:.LC1
 231 0162 40F20001 		movw	r1, #:lower16:.LC2
 232 0166 C0F20001 		movt	r1, #:upper16:.LC2
 233 016a 40F20002 		movw	r2, #:lower16:data_packet
 234 016e C0F20002 		movt	r2, #:upper16:data_packet
 235 0172 FFF7FEFF 		bl	Write_To_SD_Card
 236              		.loc 1 86 0
 237 0176 40F20003 		movw	r3, #:lower16:packet_ready
 238 017a C0F20003 		movt	r3, #:upper16:packet_ready
 239 017e 4FF00102 		mov	r2, #1
 240 0182 1A70     		strb	r2, [r3, #0]
 241              	.LBE2:
ARM GAS  C:\Users\karunmj\AppData\Local\Temp\cczdrClK.s 			page 7


 242              		.loc 1 89 0
 243 0184 65E7     		b	.L7
 244              		.cfi_endproc
 245              	.LFE29:
 246              		.size	main, .-main
 247              		.section	.text.isr_timer,"ax",%progbits
 248              		.align	2
 249              		.global	isr_timer
 250              		.thumb
 251              		.thumb_func
 252              		.type	isr_timer, %function
 253              	isr_timer:
 254              	.LFB30:
  90:.\main.c      **** }
  91:.\main.c      **** 
  92:.\main.c      **** CY_ISR(isr_timer){
 255              		.loc 1 92 0
 256              		.cfi_startproc
 257              		@ args = 0, pretend = 0, frame = 0
 258              		@ frame_needed = 1, uses_anonymous_args = 0
 259              		@ link register save eliminated.
 260 0000 80B4     		push	{r7}
 261              	.LCFI3:
 262              		.cfi_def_cfa_offset 4
 263 0002 00AF     		add	r7, sp, #0
 264              		.cfi_offset 7, -4
 265              	.LCFI4:
 266              		.cfi_def_cfa_register 7
  93:.\main.c      ****     //take_reading = 1u;
  94:.\main.c      ****     //timer_ReadStatusRegister();
  95:.\main.c      **** }
 267              		.loc 1 95 0
 268 0004 BD46     		mov	sp, r7
 269 0006 80BC     		pop	{r7}
 270 0008 7047     		bx	lr
 271              		.cfi_endproc
 272              	.LFE30:
 273              		.size	isr_timer, .-isr_timer
 274 000a 00BF     		.section	.text.clear_packet,"ax",%progbits
 275              		.align	2
 276              		.global	clear_packet
 277              		.thumb
 278              		.thumb_func
 279              		.type	clear_packet, %function
 280              	clear_packet:
 281              	.LFB31:
  96:.\main.c      **** 
  97:.\main.c      **** //void read_packet(){
  98:.\main.c      **** //}
  99:.\main.c      **** 
 100:.\main.c      **** 
 101:.\main.c      **** void clear_packet(uint8* packet, uint8 packet_size){
 282              		.loc 1 101 0
 283              		.cfi_startproc
 284              		@ args = 0, pretend = 0, frame = 16
 285              		@ frame_needed = 1, uses_anonymous_args = 0
 286              		@ link register save eliminated.
ARM GAS  C:\Users\karunmj\AppData\Local\Temp\cczdrClK.s 			page 8


 287 0000 80B4     		push	{r7}
 288              	.LCFI5:
 289              		.cfi_def_cfa_offset 4
 290 0002 85B0     		sub	sp, sp, #20
 291              	.LCFI6:
 292              		.cfi_def_cfa_offset 24
 293 0004 00AF     		add	r7, sp, #0
 294              		.cfi_offset 7, -4
 295              	.LCFI7:
 296              		.cfi_def_cfa_register 7
 297 0006 7860     		str	r0, [r7, #4]
 298 0008 0B46     		mov	r3, r1
 299 000a FB70     		strb	r3, [r7, #3]
 102:.\main.c      ****     uint8 i;
 103:.\main.c      ****     for(i = 0u; i < packet_size; i++){
 300              		.loc 1 103 0
 301 000c 4FF00003 		mov	r3, #0
 302 0010 FB73     		strb	r3, [r7, #15]
 303 0012 09E0     		b	.L14
 304              	.L15:
 104:.\main.c      ****         packet[i] = 0u;
 305              		.loc 1 104 0
 306 0014 FA7B     		ldrb	r2, [r7, #15]	@ zero_extendqisi2
 307 0016 7B68     		ldr	r3, [r7, #4]
 308 0018 1344     		add	r3, r2, r3
 309 001a 4FF00002 		mov	r2, #0
 310 001e 1A70     		strb	r2, [r3, #0]
 311              		.loc 1 103 0
 312 0020 FB7B     		ldrb	r3, [r7, #15]
 313 0022 03F10103 		add	r3, r3, #1
 314 0026 FB73     		strb	r3, [r7, #15]
 315              	.L14:
 316 0028 FA7B     		ldrb	r2, [r7, #15]	@ zero_extendqisi2
 317 002a FB78     		ldrb	r3, [r7, #3]	@ zero_extendqisi2
 318 002c 9A42     		cmp	r2, r3
 319 002e F1D3     		bcc	.L15
 105:.\main.c      ****     }
 106:.\main.c      ****     
 107:.\main.c      ****     packet_ready = 0u;
 320              		.loc 1 107 0
 321 0030 40F20003 		movw	r3, #:lower16:packet_ready
 322 0034 C0F20003 		movt	r3, #:upper16:packet_ready
 323 0038 4FF00002 		mov	r2, #0
 324 003c 1A70     		strb	r2, [r3, #0]
 108:.\main.c      **** }
 325              		.loc 1 108 0
 326 003e 07F11407 		add	r7, r7, #20
 327 0042 BD46     		mov	sp, r7
 328 0044 80BC     		pop	{r7}
 329 0046 7047     		bx	lr
 330              		.cfi_endproc
 331              	.LFE31:
 332              		.size	clear_packet, .-clear_packet
 333              		.section	.text.rtcCallBackReceived,"ax",%progbits
 334              		.align	2
 335              		.global	rtcCallBackReceived
 336              		.thumb
ARM GAS  C:\Users\karunmj\AppData\Local\Temp\cczdrClK.s 			page 9


 337              		.thumb_func
 338              		.type	rtcCallBackReceived, %function
 339              	rtcCallBackReceived:
 340              	.LFB32:
 109:.\main.c      **** 
 110:.\main.c      **** void rtcCallBackReceived(uint8 alarmType){ // RTC Event Handler.
 341              		.loc 1 110 0
 342              		.cfi_startproc
 343              		@ args = 0, pretend = 0, frame = 8
 344              		@ frame_needed = 1, uses_anonymous_args = 0
 345              		@ link register save eliminated.
 346 0000 80B4     		push	{r7}
 347              	.LCFI8:
 348              		.cfi_def_cfa_offset 4
 349 0002 83B0     		sub	sp, sp, #12
 350              	.LCFI9:
 351              		.cfi_def_cfa_offset 16
 352 0004 00AF     		add	r7, sp, #0
 353              		.cfi_offset 7, -4
 354              	.LCFI10:
 355              		.cfi_def_cfa_register 7
 356 0006 0346     		mov	r3, r0
 357 0008 FB71     		strb	r3, [r7, #7]
 111:.\main.c      ****       
 112:.\main.c      ****     if(alarmType == RTC_MINUTE_ALARM){
 358              		.loc 1 112 0
 359 000a FB79     		ldrb	r3, [r7, #7]	@ zero_extendqisi2
 360 000c 012B     		cmp	r3, #1
 361 000e 06D1     		bne	.L19
 113:.\main.c      ****          
 114:.\main.c      ****         take_reading = 1u;
 362              		.loc 1 114 0
 363 0010 40F20003 		movw	r3, #:lower16:take_reading
 364 0014 C0F20003 		movt	r3, #:upper16:take_reading
 365 0018 4FF00102 		mov	r2, #1
 366 001c 1A70     		strb	r2, [r3, #0]
 367              	.L19:
 115:.\main.c      ****         
 116:.\main.c      ****     }   
 117:.\main.c      **** }
 368              		.loc 1 117 0
 369 001e 07F10C07 		add	r7, r7, #12
 370 0022 BD46     		mov	sp, r7
 371 0024 80BC     		pop	{r7}
 372 0026 7047     		bx	lr
 373              		.cfi_endproc
 374              	.LFE32:
 375              		.size	rtcCallBackReceived, .-rtcCallBackReceived
 376              		.section	.text.Write_To_SD_Card,"ax",%progbits
 377              		.align	2
 378              		.global	Write_To_SD_Card
 379              		.thumb
 380              		.thumb_func
 381              		.type	Write_To_SD_Card, %function
 382              	Write_To_SD_Card:
 383              	.LFB33:
 118:.\main.c      **** 
ARM GAS  C:\Users\karunmj\AppData\Local\Temp\cczdrClK.s 			page 10


 119:.\main.c      **** void Write_To_SD_Card(const char* fileName, const char* pMode, const void* pData, U32 NumBytes) {
 384              		.loc 1 119 0
 385              		.cfi_startproc
 386              		@ args = 0, pretend = 0, frame = 32
 387              		@ frame_needed = 1, uses_anonymous_args = 0
 388 0000 80B5     		push	{r7, lr}
 389              	.LCFI11:
 390              		.cfi_def_cfa_offset 8
 391 0002 88B0     		sub	sp, sp, #32
 392              	.LCFI12:
 393              		.cfi_def_cfa_offset 40
 394 0004 00AF     		add	r7, sp, #0
 395              		.cfi_offset 14, -4
 396              		.cfi_offset 7, -8
 397              	.LCFI13:
 398              		.cfi_def_cfa_register 7
 399 0006 F860     		str	r0, [r7, #12]
 400 0008 B960     		str	r1, [r7, #8]
 401 000a 7A60     		str	r2, [r7, #4]
 402 000c 3B60     		str	r3, [r7, #0]
 120:.\main.c      **** // Remember to add line below to rtcCallBack Function
 121:.\main.c      **** // Write_To_SD_Card("myData.txt","a",sendBuffer,strlen(sendBuffer));
 122:.\main.c      **** 
 123:.\main.c      ****     NEOMOTE_1_SD_Card_Power_Write(0u); // Power on the SD Card
 403              		.loc 1 123 0
 404 000e 4FF00000 		mov	r0, #0
 405 0012 FFF7FEFF 		bl	NEOMOTE_1_SD_Card_Power_Write
 124:.\main.c      ****     
 125:.\main.c      ****     FS_FILE *  pFile;
 126:.\main.c      ****     char sdVolName[10];  // Buffer that will hold SD card Volume name
 127:.\main.c      ****     
 128:.\main.c      ****     if (0 != FS_GetVolumeName(0, &sdVolName[0], 9)) {
 406              		.loc 1 128 0
 407 0016 07F11003 		add	r3, r7, #16
 408 001a 4FF00000 		mov	r0, #0
 409 001e 1946     		mov	r1, r3
 410 0020 4FF00902 		mov	r2, #9
 411 0024 FFF7FEFF 		bl	FS_GetVolumeName
 412 0028 0346     		mov	r3, r0
 413 002a 002B     		cmp	r3, #0
 414 002c 1AD0     		beq	.L21
 129:.\main.c      ****         pFile = FS_FOpen(fileName, pMode);
 415              		.loc 1 129 0
 416 002e F868     		ldr	r0, [r7, #12]
 417 0030 B968     		ldr	r1, [r7, #8]
 418 0032 FFF7FEFF 		bl	FS_FOpen
 419 0036 0346     		mov	r3, r0
 420 0038 FB61     		str	r3, [r7, #28]
 130:.\main.c      ****         if (pFile == 0){
 421              		.loc 1 130 0
 422 003a FB69     		ldr	r3, [r7, #28]
 423 003c 002B     		cmp	r3, #0
 424 003e 09D1     		bne	.L22
 131:.\main.c      ****             FS_DeInit();
 425              		.loc 1 131 0
 426 0040 FFF7FEFF 		bl	FS_DeInit
 132:.\main.c      ****             FS_Init(); //poipoi debug error
ARM GAS  C:\Users\karunmj\AppData\Local\Temp\cczdrClK.s 			page 11


 427              		.loc 1 132 0
 428 0044 FFF7FEFF 		bl	FS_Init
 133:.\main.c      ****             pFile = FS_FOpen(fileName, pMode);
 429              		.loc 1 133 0
 430 0048 F868     		ldr	r0, [r7, #12]
 431 004a B968     		ldr	r1, [r7, #8]
 432 004c FFF7FEFF 		bl	FS_FOpen
 433 0050 0346     		mov	r3, r0
 434 0052 FB61     		str	r3, [r7, #28]
 435              	.L22:
 134:.\main.c      ****         }
 135:.\main.c      ****         FS_Write(pFile, pData, NumBytes);
 436              		.loc 1 135 0
 437 0054 F869     		ldr	r0, [r7, #28]
 438 0056 7968     		ldr	r1, [r7, #4]
 439 0058 3A68     		ldr	r2, [r7, #0]
 440 005a FFF7FEFF 		bl	FS_Write
 136:.\main.c      ****         FS_FClose(pFile);
 441              		.loc 1 136 0
 442 005e F869     		ldr	r0, [r7, #28]
 443 0060 FFF7FEFF 		bl	FS_FClose
 444              	.L21:
 137:.\main.c      ****     }
 138:.\main.c      ****     
 139:.\main.c      ****     NEOMOTE_1_SD_Card_Power_Write(1u); // Power off the SD Card
 445              		.loc 1 139 0
 446 0064 4FF00100 		mov	r0, #1
 447 0068 FFF7FEFF 		bl	NEOMOTE_1_SD_Card_Power_Write
 140:.\main.c      **** 
 141:.\main.c      **** }
 448              		.loc 1 141 0
 449 006c 07F12007 		add	r7, r7, #32
 450 0070 BD46     		mov	sp, r7
 451 0072 80BD     		pop	{r7, pc}
 452              		.cfi_endproc
 453              	.LFE33:
 454              		.size	Write_To_SD_Card, .-Write_To_SD_Card
 455              		.text
 456              	.Letext0: