ARM GAS  C:\Users\karunmj\AppData\Local\Temp\ccqLZZEj.s 			page 1


   1              		.syntax unified
   2              		.cpu cortex-m3
   3              		.fpu softvfp
   4              		.eabi_attribute 20, 1
   5              		.eabi_attribute 21, 1
   6              		.eabi_attribute 23, 3
   7              		.eabi_attribute 24, 1
   8              		.eabi_attribute 25, 1
   9              		.eabi_attribute 26, 1
  10              		.eabi_attribute 30, 6
  11              		.eabi_attribute 18, 4
  12              		.thumb
  13              		.file	"main.c"
  14              		.section	.debug_abbrev,"",%progbits
  15              	.Ldebug_abbrev0:
  16              		.section	.debug_info,"",%progbits
  17              	.Ldebug_info0:
  18              		.section	.debug_line,"",%progbits
  19              	.Ldebug_line0:
  20 0000 95010000 		.text
  20      0200C400 
  20      00000201 
  20      FB0E0D00 
  20      01010101 
  21              	.Ltext0:
  22              		.cfi_sections	.debug_frame
  23              		.global	API_KEY
  24              		.section	.rodata
  25              		.align	2
  26              	.LC0:
  27 0000 37696E6B 		.ascii	"7inkCfgjLCcSq6t2E3RC7OnmZykBUXEU8Yv7K56c7JYUOxdn\000"
  27      4366676A 
  27      4C436353 
  27      71367432 
  27      45335243 
  28              		.data
  29              		.align	2
  30              		.type	API_KEY, %object
  31              		.size	API_KEY, 4
  32              	API_KEY:
  33 0000 00000000 		.word	.LC0
  34              		.global	data_packet
  35              		.bss
  36              		.align	2
  37              		.type	data_packet, %object
  38              		.size	data_packet, 1000
  39              	data_packet:
  40 0000 00000000 		.space	1000
  40      00000000 
  40      00000000 
  40      00000000 
  40      00000000 
  41              		.global	debug_packet
  42              		.align	2
  43              		.type	debug_packet, %object
  44              		.size	debug_packet, 1000
  45              	debug_packet:
ARM GAS  C:\Users\karunmj\AppData\Local\Temp\ccqLZZEj.s 			page 2


  46 03e8 00000000 		.space	1000
  46      00000000 
  46      00000000 
  46      00000000 
  46      00000000 
  47              		.comm	packet_ready,1,1
  48              		.comm	take_reading,1,1
  49              		.comm	vBattery,4,4
  50              		.global	moteID
  51              		.data
  52              		.type	moteID, %object
  53              		.size	moteID, 1
  54              	moteID:
  55 0004 02       		.byte	2
  56              		.comm	t_sample,1,1
  57              		.comm	trigger_sampler,1,1
  58              		.comm	bottle_count,1,1
  59              		.comm	tmp,1,1
  60              		.global	ultrasonic_reading
  61 0005 000000   		.bss
  62              		.align	2
  63              		.type	ultrasonic_reading, %object
  64              		.size	ultrasonic_reading, 12
  65              	ultrasonic_reading:
  66 07d0 00000000 		.space	12
  66      00000000 
  66      00000000 
  67              		.global	solinst_reading
  68              		.align	2
  69              		.type	solinst_reading, %object
  70              		.size	solinst_reading, 12
  71              	solinst_reading:
  72 07dc 00000000 		.space	12
  72      00000000 
  72      00000000 
  73              		.section	.rodata
  74 0031 000000   		.align	2
  75              	.LC1:
  76 0034 745F7361 		.ascii	"t_sample,trigger_sampler\000"
  76      6D706C65 
  76      2C747269 
  76      67676572 
  76      5F73616D 
  77 004d 000000   		.align	2
  78              	.LC2:
  79 0050 74726967 		.ascii	"trigger_sampler, 0\000"
  79      6765725F 
  79      73616D70 
  79      6C65722C 
  79      203000
  80 0063 00       		.align	2
  81              	.LC3:
  82 0064 745F7361 		.ascii	"t_sample\000"
  82      6D706C65 
  82      00
  83 006d 000000   		.align	2
  84              	.LC4:
ARM GAS  C:\Users\karunmj\AppData\Local\Temp\ccqLZZEj.s 			page 3


  85 0070 74726967 		.ascii	"trigger_sampler\000"
  85      6765725F 
  85      73616D70 
  85      6C657200 
  86              		.align	2
  87              	.LC5:
  88 0080 626F7474 		.ascii	"bottle_count >= MAX_BOTTLE_COUNT\000"
  88      6C655F63 
  88      6F756E74 
  88      203E3D20 
  88      4D41585F 
  89 00a1 000000   		.align	2
  90              	.LC6:
  91 00a4 25732C20 		.ascii	"%s, %u\015\012\000"
  91      25750D0A 
  91      00
  92 00ad 000000   		.align	2
  93              	.LC7:
  94 00b0 626F7474 		.ascii	"bottle\000"
  94      6C6500
  95              		.global	__aeabi_f2d
  96 00b7 00       		.align	2
  97              	.LC8:
  98 00b8 25732573 		.ascii	"%s%s, %f\015\012\000"
  98      2C202566 
  98      0D0A00
  99 00c3 00       		.align	2
 100              	.LC9:
 101 00c4 64657074 		.ascii	"depth_press\000"
 101      685F7072 
 101      65737300 
 102              		.align	2
 103              	.LC10:
 104 00d0 74656D70 		.ascii	"temp_press\000"
 104      5F707265 
 104      737300
 105 00db 00       		.align	2
 106              	.LC11:
 107 00dc 64657074 		.ascii	"depth_sonic\000"
 107      685F736F 
 107      6E696300 
 108              		.align	2
 109              	.LC12:
 110 00e8 565F6261 		.ascii	"V_batt\000"
 110      747400
 111 00ef 00       		.align	2
 112              	.LC13:
 113 00f0 0D0A2564 		.ascii	"\015\012%d:%d:%d %d/%d/%d -- [ID %d] u_d=%f s_d=%f "
 113      3A25643A 
 113      25642025 
 113      642F2564 
 113      2F256420 
 114 011d 735F743D 		.ascii	"s_t=%f bottle=%d v_b=%f\000"
 114      25662062 
 114      6F74746C 
 114      653D2564 
 114      20765F62 
ARM GAS  C:\Users\karunmj\AppData\Local\Temp\ccqLZZEj.s 			page 4


 115 0135 000000   		.align	2
 116              	.LC14:
 117 0138 64617461 		.ascii	"data.txt\000"
 117      2E747874 
 117      00
 118 0141 000000   		.align	2
 119              	.LC15:
 120 0144 6100     		.ascii	"a\000"
 121 0146 0000     		.section	.text.main,"ax",%progbits
 122              		.align	2
 123              		.global	main
 124              		.thumb
 125              		.thumb_func
 126              		.type	main, %function
 127              	main:
 128              	.LFB29:
 129              		.file 1 ".\\main.c"
   1:.\main.c      **** /* M2M SMS Datalogger */ 
   2:.\main.c      **** 
   3:.\main.c      **** #include <device.h>
   4:.\main.c      **** #include <stdio.h>
   5:.\main.c      **** #include <string.h>
   6:.\main.c      **** #include <FS.h>
   7:.\main.c      **** #include "neomote.h"
   8:.\main.c      **** #include "sleep.h"
   9:.\main.c      **** #include "modem.h"
  10:.\main.c      **** #include "packet.h"
  11:.\main.c      **** #include "ultrasonic.h"
  12:.\main.c      **** #include "solinst_depth.h"
  13:.\main.c      **** #include "autosampler.h"
  14:.\main.c      **** #include "BatteryVoltage.h"
  15:.\main.c      **** #include "debug.h"
  16:.\main.c      **** 
  17:.\main.c      **** // define global variables
  18:.\main.c      **** #define WRITE_DEBUG 1
  19:.\main.c      **** #define FEED_ID 966630999
  20:.\main.c      **** 
  21:.\main.c      **** const char *API_KEY = "7inkCfgjLCcSq6t2E3RC7OnmZykBUXEU8Yv7K56c7JYUOxdn";
  22:.\main.c      **** char   data_packet[MAX_PACKET_LENGTH] = {0}, debug_packet[MAX_PACKET_LENGTH] = {0};
  23:.\main.c      **** uint8   packet_ready, take_reading;
  24:.\main.c      **** float   vBattery;
  25:.\main.c      **** 
  26:.\main.c      **** // Set NeoMote ID Number
  27:.\main.c      **** uint8 moteID = 2;
  28:.\main.c      **** 
  29:.\main.c      **** uint8 t_sample, trigger_sampler, bottle_count, tmp;
  30:.\main.c      **** UltrasonicReading ultrasonic_reading = {.valid = 0};    // Initialize UltrasonicReading.valid to 0
  31:.\main.c      **** SolinstReading solinst_reading = {.valid = 0};          // Initialize SolinstReading.valid to 0
  32:.\main.c      **** 
  33:.\main.c      **** // callback definitions
  34:.\main.c      **** void rtcCallBackReceived(uint8 alarmType);
  35:.\main.c      **** 
  36:.\main.c      **** // prototype functions
  37:.\main.c      **** //void read_packet(uint8* packet, uint8 size);
  38:.\main.c      **** //void write_packet(uint8* dest, uint8* src_ultrasonic, uint8* src_pressure, uint8 size);
  39:.\main.c      **** //void clear_packet(char* packet);
  40:.\main.c      **** void Write_To_SD_Card(const char* fileName, const char* pMode, const void* pData, U32 NumBytes);
ARM GAS  C:\Users\karunmj\AppData\Local\Temp\ccqLZZEj.s 			page 5


  41:.\main.c      **** CY_ISR_PROTO(isr_timer);
  42:.\main.c      **** void Goto_Low_Power_Mode();
  43:.\main.c      **** void debugLog(const void *pData);
  44:.\main.c      **** 
  45:.\main.c      **** 
  46:.\main.c      **** void main(){
 130              		.loc 1 46 0
 131              		.cfi_startproc
 132              		@ args = 0, pretend = 0, frame = 40
 133              		@ frame_needed = 1, uses_anonymous_args = 0
 134 0000 2DE9F04F 		push	{r4, r5, r6, r7, r8, r9, sl, fp, lr}
 135              	.LCFI0:
 136              		.cfi_def_cfa_offset 36
 137 0004 9BB0     		sub	sp, sp, #108
 138              	.LCFI1:
 139              		.cfi_def_cfa_offset 144
 140 0006 10AF     		add	r7, sp, #64
 141              		.cfi_offset 14, -4
 142              		.cfi_offset 11, -8
 143              		.cfi_offset 10, -12
 144              		.cfi_offset 9, -16
 145              		.cfi_offset 8, -20
 146              		.cfi_offset 7, -24
 147              		.cfi_offset 6, -28
 148              		.cfi_offset 5, -32
 149              		.cfi_offset 4, -36
 150              	.LCFI2:
 151              		.cfi_def_cfa 7, 80
  47:.\main.c      **** 
  48:.\main.c      ****     CyGlobalIntEnable;
 152              		.loc 1 48 0
 153              	@ 48 ".\main.c" 1
 154 0008 62B6     		CPSIE   i
 155              	@ 0 "" 2
  49:.\main.c      ****     SleepTimer_Start();
 156              		.loc 1 49 0
 157              		.thumb
 158 000a FFF7FEFF 		bl	SleepTimer_Start
  50:.\main.c      ****     isr_SleepTimer_StartEx(sleepTimerWake_INT);
 159              		.loc 1 50 0
 160 000e 40F20000 		movw	r0, #:lower16:sleepTimerWake_INT
 161 0012 C0F20000 		movt	r0, #:upper16:sleepTimerWake_INT
 162 0016 FFF7FEFF 		bl	isr_SleepTimer_StartEx
  51:.\main.c      ****     FS_Init();
 163              		.loc 1 51 0
 164 001a FFF7FEFF 		bl	FS_Init
  52:.\main.c      ****     modem_set_api_feed(FEED_ID, API_KEY);
 165              		.loc 1 52 0
 166 001e 40F20003 		movw	r3, #:lower16:API_KEY
 167 0022 C0F20003 		movt	r3, #:upper16:API_KEY
 168 0026 1B68     		ldr	r3, [r3, #0]
 169 0028 49F65760 		movw	r0, #:lower16:966630999
 170 002c C3F69D10 		movt	r0, #:upper16:966630999
 171 0030 1946     		mov	r1, r3
 172 0032 FFF7FEFF 		bl	modem_set_api_feed
  53:.\main.c      ****     modem_start();
 173              		.loc 1 53 0
ARM GAS  C:\Users\karunmj\AppData\Local\Temp\ccqLZZEj.s 			page 6


 174 0036 FFF7FEFF 		bl	modem_start
  54:.\main.c      ****     //modem_power_off();
  55:.\main.c      ****     ultrasonic_start();
 175              		.loc 1 55 0
 176 003a FFF7FEFF 		bl	ultrasonic_start
  56:.\main.c      ****     solinst_start();
 177              		.loc 1 56 0
 178 003e FFF7FEFF 		bl	solinst_start
  57:.\main.c      ****     ADC_SAR_1_Start();
 179              		.loc 1 57 0
 180 0042 FFF7FEFF 		bl	ADC_SAR_1_Start
  58:.\main.c      ****     
  59:.\main.c      ****     packet_ready = 0u; 
 181              		.loc 1 59 0
 182 0046 40F20003 		movw	r3, #:lower16:packet_ready
 183 004a C0F20003 		movt	r3, #:upper16:packet_ready
 184 004e 4FF00002 		mov	r2, #0
 185 0052 1A70     		strb	r2, [r3, #0]
  60:.\main.c      ****     take_reading = 1u;
 186              		.loc 1 60 0
 187 0054 40F20003 		movw	r3, #:lower16:take_reading
 188 0058 C0F20003 		movt	r3, #:upper16:take_reading
 189 005c 4FF00102 		mov	r2, #1
 190 0060 1A70     		strb	r2, [r3, #0]
  61:.\main.c      ****     t_sample = 2u;                                  // Initialize Sample Period to 2 minutes
 191              		.loc 1 61 0
 192 0062 40F20003 		movw	r3, #:lower16:t_sample
 193 0066 C0F20003 		movt	r3, #:upper16:t_sample
 194 006a 4FF00202 		mov	r2, #2
 195 006e 1A70     		strb	r2, [r3, #0]
  62:.\main.c      ****     trigger_sampler = 0u;                           // Initialize automated sampler to not take a s
 196              		.loc 1 62 0
 197 0070 40F20003 		movw	r3, #:lower16:trigger_sampler
 198 0074 C0F20003 		movt	r3, #:upper16:trigger_sampler
 199 0078 4FF00002 		mov	r2, #0
 200 007c 1A70     		strb	r2, [r3, #0]
  63:.\main.c      ****     bottle_count = 0u;                              // Initialize bottle count to zero
 201              		.loc 1 63 0
 202 007e 40F20003 		movw	r3, #:lower16:bottle_count
 203 0082 C0F20003 		movt	r3, #:upper16:bottle_count
 204 0086 4FF00002 		mov	r2, #0
 205 008a 1A70     		strb	r2, [r3, #0]
  64:.\main.c      **** 
  65:.\main.c      ****     NeoRTC_Start(rtcCallBackReceived);              // Start and enable the RTC.   
 206              		.loc 1 65 0
 207 008c 40F20000 		movw	r0, #:lower16:rtcCallBackReceived
 208 0090 C0F20000 		movt	r0, #:upper16:rtcCallBackReceived
 209 0094 FFF7FEFF 		bl	NeoRTC_Start
  66:.\main.c      ****     NeoRTC_Set_Repeating_Minute_Alarm(t_sample);    // Set 1-minute alarm
 210              		.loc 1 66 0
 211 0098 40F20003 		movw	r3, #:lower16:t_sample
 212 009c C0F20003 		movt	r3, #:upper16:t_sample
 213 00a0 1B78     		ldrb	r3, [r3, #0]	@ zero_extendqisi2
 214 00a2 1846     		mov	r0, r3
 215 00a4 FFF7FEFF 		bl	NeoRTC_Set_Repeating_Minute_Alarm
 216              	.L14:
  67:.\main.c      ****    
ARM GAS  C:\Users\karunmj\AppData\Local\Temp\ccqLZZEj.s 			page 7


  68:.\main.c      ****     
  69:.\main.c      ****     //  Uncomment below to set RTC
  70:.\main.c      ****     /*
  71:.\main.c      ****     NeoRtcTimeStruct tm = {
  72:.\main.c      ****       .second = 00,
  73:.\main.c      ****       .minute = 54,
  74:.\main.c      ****       .hour = 18,
  75:.\main.c      ****       .day = 27,
  76:.\main.c      ****       .weekday = 2,
  77:.\main.c      ****       .month = 5,
  78:.\main.c      ****       .year = 2014,
  79:.\main.c      ****     } ;
  80:.\main.c      ****     RTC_WriteTime(tm); //sets time
  81:.\main.c      ****     */
  82:.\main.c      **** 
  83:.\main.c      ****     for(;;){
  84:.\main.c      ****     
  85:.\main.c      ****         RTC_Process_Tasks();
 217              		.loc 1 85 0
 218 00a8 FFF7FEFF 		bl	RTC_Process_Tasks
  86:.\main.c      ****          
  87:.\main.c      ****         if(take_reading){ 
 219              		.loc 1 87 0
 220 00ac 40F20003 		movw	r3, #:lower16:take_reading
 221 00b0 C0F20003 		movt	r3, #:upper16:take_reading
 222 00b4 1B78     		ldrb	r3, [r3, #0]	@ zero_extendqisi2
 223 00b6 002B     		cmp	r3, #0
 224 00b8 00F03581 		beq	.L2
  88:.\main.c      **** 
  89:.\main.c      ****             modem_power_on();   
 225              		.loc 1 89 0
 226 00bc FFF7FEFF 		bl	modem_power_on
  90:.\main.c      ****            
  91:.\main.c      ****             if (clear_packet(data_packet)) {
 227              		.loc 1 91 0
 228 00c0 40F20000 		movw	r0, #:lower16:data_packet
 229 00c4 C0F20000 		movt	r0, #:upper16:data_packet
 230 00c8 FFF7FEFF 		bl	clear_packet
 231 00cc 0346     		mov	r3, r0
 232 00ce 002B     		cmp	r3, #0
 233 00d0 06D0     		beq	.L3
  92:.\main.c      ****                 packet_ready = 0u;
 234              		.loc 1 92 0
 235 00d2 40F20003 		movw	r3, #:lower16:packet_ready
 236 00d6 C0F20003 		movt	r3, #:upper16:packet_ready
 237 00da 4FF00002 		mov	r2, #0
 238 00de 1A70     		strb	r2, [r3, #0]
 239              	.L3:
  93:.\main.c      ****             }
  94:.\main.c      ****                         
  95:.\main.c      ****             // modem_get_packet(data_packet);
  96:.\main.c      ****             if (modem_get_packet(data_packet,"t_sample,trigger_sampler")) {
 240              		.loc 1 96 0
 241 00e0 40F20000 		movw	r0, #:lower16:data_packet
 242 00e4 C0F20000 		movt	r0, #:upper16:data_packet
 243 00e8 40F20001 		movw	r1, #:lower16:.LC1
 244 00ec C0F20001 		movt	r1, #:upper16:.LC1
ARM GAS  C:\Users\karunmj\AppData\Local\Temp\ccqLZZEj.s 			page 8


 245 00f0 FFF7FEFF 		bl	modem_get_packet
 246 00f4 0346     		mov	r3, r0
 247 00f6 002B     		cmp	r3, #0
 248 00f8 3BD0     		beq	.L4
  97:.\main.c      ****                 // Send in acknowledgement that packet containing
  98:.\main.c      ****                 // info re:automated sampler has been received:
  99:.\main.c      ****                 modem_send_packet("trigger_sampler, 0");
 249              		.loc 1 99 0
 250 00fa 40F20000 		movw	r0, #:lower16:.LC2
 251 00fe C0F20000 		movt	r0, #:upper16:.LC2
 252 0102 FFF7FEFF 		bl	modem_send_packet
 100:.\main.c      ****                 
 101:.\main.c      ****                 // Read in any updated values
 102:.\main.c      ****                 if(packet_get_uint8(data_packet, "t_sample", &tmp)){
 253              		.loc 1 102 0
 254 0106 40F20000 		movw	r0, #:lower16:data_packet
 255 010a C0F20000 		movt	r0, #:upper16:data_packet
 256 010e 40F20001 		movw	r1, #:lower16:.LC3
 257 0112 C0F20001 		movt	r1, #:upper16:.LC3
 258 0116 40F20002 		movw	r2, #:lower16:tmp
 259 011a C0F20002 		movt	r2, #:upper16:tmp
 260 011e FFF7FEFF 		bl	packet_get_uint8
 261 0122 0346     		mov	r3, r0
 262 0124 002B     		cmp	r3, #0
 263 0126 09D0     		beq	.L5
 103:.\main.c      ****                     t_sample = tmp;
 264              		.loc 1 103 0
 265 0128 40F20003 		movw	r3, #:lower16:tmp
 266 012c C0F20003 		movt	r3, #:upper16:tmp
 267 0130 1A78     		ldrb	r2, [r3, #0]	@ zero_extendqisi2
 268 0132 40F20003 		movw	r3, #:lower16:t_sample
 269 0136 C0F20003 		movt	r3, #:upper16:t_sample
 270 013a 1A70     		strb	r2, [r3, #0]
 271              	.L5:
 104:.\main.c      ****                 }
 105:.\main.c      ****                 if(packet_get_uint8(data_packet, "trigger_sampler", &tmp)){
 272              		.loc 1 105 0
 273 013c 40F20000 		movw	r0, #:lower16:data_packet
 274 0140 C0F20000 		movt	r0, #:upper16:data_packet
 275 0144 40F20001 		movw	r1, #:lower16:.LC4
 276 0148 C0F20001 		movt	r1, #:upper16:.LC4
 277 014c 40F20002 		movw	r2, #:lower16:tmp
 278 0150 C0F20002 		movt	r2, #:upper16:tmp
 279 0154 FFF7FEFF 		bl	packet_get_uint8
 280 0158 0346     		mov	r3, r0
 281 015a 002B     		cmp	r3, #0
 282 015c 09D0     		beq	.L4
 106:.\main.c      ****                     trigger_sampler = tmp;
 283              		.loc 1 106 0
 284 015e 40F20003 		movw	r3, #:lower16:tmp
 285 0162 C0F20003 		movt	r3, #:upper16:tmp
 286 0166 1A78     		ldrb	r2, [r3, #0]	@ zero_extendqisi2
 287 0168 40F20003 		movw	r3, #:lower16:trigger_sampler
 288 016c C0F20003 		movt	r3, #:upper16:trigger_sampler
 289 0170 1A70     		strb	r2, [r3, #0]
 290              	.L4:
 107:.\main.c      ****                 }
ARM GAS  C:\Users\karunmj\AppData\Local\Temp\ccqLZZEj.s 			page 9


 108:.\main.c      ****             }
 109:.\main.c      **** 
 110:.\main.c      **** 
 111:.\main.c      ****             /*
 112:.\main.c      ****             if (send_attempts > 0) {
 113:.\main.c      ****                 debug_write("New reading taken before previous packet was sent");
 114:.\main.c      ****             }
 115:.\main.c      ****             */
 116:.\main.c      ****             if (trigger_sampler){
 291              		.loc 1 116 0
 292 0172 40F20003 		movw	r3, #:lower16:trigger_sampler
 293 0176 C0F20003 		movt	r3, #:upper16:trigger_sampler
 294 017a 1B78     		ldrb	r3, [r3, #0]	@ zero_extendqisi2
 295 017c 002B     		cmp	r3, #0
 296 017e 1DD0     		beq	.L6
 117:.\main.c      ****             
 118:.\main.c      ****                 if (bottle_count < MAX_BOTTLE_COUNT) {
 297              		.loc 1 118 0
 298 0180 40F20003 		movw	r3, #:lower16:bottle_count
 299 0184 C0F20003 		movt	r3, #:upper16:bottle_count
 300 0188 1B78     		ldrb	r3, [r3, #0]	@ zero_extendqisi2
 301 018a 172B     		cmp	r3, #23
 302 018c 10D8     		bhi	.L7
 119:.\main.c      ****                     // Turn off modem to conserve energy
 120:.\main.c      ****                     modem_power_off();
 303              		.loc 1 120 0
 304 018e FFF7FEFF 		bl	modem_power_off
 121:.\main.c      ****                     
 122:.\main.c      ****                     autosampler_start();
 305              		.loc 1 122 0
 306 0192 FFF7FEFF 		bl	autosampler_start
 123:.\main.c      ****                     autosampler_power_on();
 307              		.loc 1 123 0
 308 0196 FFF7FEFF 		bl	autosampler_power_on
 124:.\main.c      ****                     
 125:.\main.c      ****                     /*
 126:.\main.c      ****                     if (autosampler_take_sample(&bottle_count) ) {
 127:.\main.c      ****                         sprintf(data_packet,"%s, %u\r\n",
 128:.\main.c      ****                             "bottle", bottle_count);
 129:.\main.c      ****                     }
 130:.\main.c      ****                     */ 
 131:.\main.c      ****                     
 132:.\main.c      ****                     autosampler_take_sample(&bottle_count);
 309              		.loc 1 132 0
 310 019a 40F20000 		movw	r0, #:lower16:bottle_count
 311 019e C0F20000 		movt	r0, #:upper16:bottle_count
 312 01a2 FFF7FEFF 		bl	autosampler_take_sample
 133:.\main.c      ****                     
 134:.\main.c      ****                     autosampler_power_off(); 
 313              		.loc 1 134 0
 314 01a6 FFF7FEFF 		bl	autosampler_power_off
 135:.\main.c      ****                     autosampler_stop();    
 315              		.loc 1 135 0
 316 01aa FFF7FEFF 		bl	autosampler_stop
 317 01ae 05E0     		b	.L6
 318              	.L7:
 136:.\main.c      ****                 }
ARM GAS  C:\Users\karunmj\AppData\Local\Temp\ccqLZZEj.s 			page 10


 137:.\main.c      ****                 else {
 138:.\main.c      ****                     debug_write("bottle_count >= MAX_BOTTLE_COUNT");
 319              		.loc 1 138 0
 320 01b0 40F20000 		movw	r0, #:lower16:.LC5
 321 01b4 C0F20000 		movt	r0, #:upper16:.LC5
 322 01b8 FFF7FEFF 		bl	debug_write
 323              	.L6:
 139:.\main.c      ****                 }
 140:.\main.c      ****             }
 141:.\main.c      ****             
 142:.\main.c      ****             // Get Readings for:
 143:.\main.c      ****             // depth, pressure, temp
 144:.\main.c      ****             // conductivity.
 145:.\main.c      ****             sprintf(data_packet,"%s, %u\r\n",
 324              		.loc 1 145 0
 325 01bc 40F20003 		movw	r3, #:lower16:bottle_count
 326 01c0 C0F20003 		movt	r3, #:upper16:bottle_count
 327 01c4 1B78     		ldrb	r3, [r3, #0]	@ zero_extendqisi2
 328 01c6 40F20000 		movw	r0, #:lower16:data_packet
 329 01ca C0F20000 		movt	r0, #:upper16:data_packet
 330 01ce 40F20001 		movw	r1, #:lower16:.LC6
 331 01d2 C0F20001 		movt	r1, #:upper16:.LC6
 332 01d6 40F20002 		movw	r2, #:lower16:.LC7
 333 01da C0F20002 		movt	r2, #:upper16:.LC7
 334 01de FFF7FEFF 		bl	sprintf
 146:.\main.c      ****                 "bottle", bottle_count);
 147:.\main.c      ****                 
 148:.\main.c      ****             if (solinst_get_reading(&solinst_reading)){
 335              		.loc 1 148 0
 336 01e2 40F20000 		movw	r0, #:lower16:solinst_reading
 337 01e6 C0F20000 		movt	r0, #:upper16:solinst_reading
 338 01ea FFF7FEFF 		bl	solinst_get_reading
 339 01ee 0346     		mov	r3, r0
 340 01f0 002B     		cmp	r3, #0
 341 01f2 3BD0     		beq	.L8
 149:.\main.c      ****                 sprintf(data_packet,"%s%s, %f\r\n", data_packet,
 150:.\main.c      ****                     "depth_press", solinst_reading.depth);            
 342              		.loc 1 150 0
 343 01f4 40F20003 		movw	r3, #:lower16:solinst_reading
 344 01f8 C0F20003 		movt	r3, #:upper16:solinst_reading
 345 01fc 5B68     		ldr	r3, [r3, #4]	@ float
 346              		.loc 1 149 0
 347 01fe 1846     		mov	r0, r3
 348 0200 FFF7FEFF 		bl	__aeabi_f2d
 349 0204 0246     		mov	r2, r0
 350 0206 0B46     		mov	r3, r1
 351 0208 CDE90023 		strd	r2, [sp]
 352 020c 40F20000 		movw	r0, #:lower16:data_packet
 353 0210 C0F20000 		movt	r0, #:upper16:data_packet
 354 0214 40F20001 		movw	r1, #:lower16:.LC8
 355 0218 C0F20001 		movt	r1, #:upper16:.LC8
 356 021c 40F20002 		movw	r2, #:lower16:data_packet
 357 0220 C0F20002 		movt	r2, #:upper16:data_packet
 358 0224 40F20003 		movw	r3, #:lower16:.LC9
 359 0228 C0F20003 		movt	r3, #:upper16:.LC9
 360 022c FFF7FEFF 		bl	sprintf
 151:.\main.c      ****                     
ARM GAS  C:\Users\karunmj\AppData\Local\Temp\ccqLZZEj.s 			page 11


 152:.\main.c      ****                 sprintf(data_packet,"%s%s, %f\r\n", data_packet,
 153:.\main.c      ****                     "temp_press", solinst_reading.temp);                      
 361              		.loc 1 153 0
 362 0230 40F20003 		movw	r3, #:lower16:solinst_reading
 363 0234 C0F20003 		movt	r3, #:upper16:solinst_reading
 364 0238 1B68     		ldr	r3, [r3, #0]	@ float
 365              		.loc 1 152 0
 366 023a 1846     		mov	r0, r3
 367 023c FFF7FEFF 		bl	__aeabi_f2d
 368 0240 0246     		mov	r2, r0
 369 0242 0B46     		mov	r3, r1
 370 0244 CDE90023 		strd	r2, [sp]
 371 0248 40F20000 		movw	r0, #:lower16:data_packet
 372 024c C0F20000 		movt	r0, #:upper16:data_packet
 373 0250 40F20001 		movw	r1, #:lower16:.LC8
 374 0254 C0F20001 		movt	r1, #:upper16:.LC8
 375 0258 40F20002 		movw	r2, #:lower16:data_packet
 376 025c C0F20002 		movt	r2, #:upper16:data_packet
 377 0260 40F20003 		movw	r3, #:lower16:.LC10
 378 0264 C0F20003 		movt	r3, #:upper16:.LC10
 379 0268 FFF7FEFF 		bl	sprintf
 380              	.L8:
 154:.\main.c      ****             }
 155:.\main.c      ****             
 156:.\main.c      ****             if (ultrasonic_get_reading(&ultrasonic_reading)){
 381              		.loc 1 156 0
 382 026c 40F20000 		movw	r0, #:lower16:ultrasonic_reading
 383 0270 C0F20000 		movt	r0, #:upper16:ultrasonic_reading
 384 0274 FFF7FEFF 		bl	ultrasonic_get_reading
 385 0278 0346     		mov	r3, r0
 386 027a 002B     		cmp	r3, #0
 387 027c 1DD0     		beq	.L9
 157:.\main.c      ****                 sprintf(data_packet,"%s%s, %f\r\n", data_packet,
 158:.\main.c      ****                     "depth_sonic", ultrasonic_reading.depth);              
 388              		.loc 1 158 0
 389 027e 40F20003 		movw	r3, #:lower16:ultrasonic_reading
 390 0282 C0F20003 		movt	r3, #:upper16:ultrasonic_reading
 391 0286 5B68     		ldr	r3, [r3, #4]	@ float
 392              		.loc 1 157 0
 393 0288 1846     		mov	r0, r3
 394 028a FFF7FEFF 		bl	__aeabi_f2d
 395 028e 0246     		mov	r2, r0
 396 0290 0B46     		mov	r3, r1
 397 0292 CDE90023 		strd	r2, [sp]
 398 0296 40F20000 		movw	r0, #:lower16:data_packet
 399 029a C0F20000 		movt	r0, #:upper16:data_packet
 400 029e 40F20001 		movw	r1, #:lower16:.LC8
 401 02a2 C0F20001 		movt	r1, #:upper16:.LC8
 402 02a6 40F20002 		movw	r2, #:lower16:data_packet
 403 02aa C0F20002 		movt	r2, #:upper16:data_packet
 404 02ae 40F20003 		movw	r3, #:lower16:.LC11
 405 02b2 C0F20003 		movt	r3, #:upper16:.LC11
 406 02b6 FFF7FEFF 		bl	sprintf
 407              	.L9:
 159:.\main.c      ****             }
 160:.\main.c      ****             if (ReadBatteryVoltage(&vBattery)){
 408              		.loc 1 160 0
ARM GAS  C:\Users\karunmj\AppData\Local\Temp\ccqLZZEj.s 			page 12


 409 02ba 40F20000 		movw	r0, #:lower16:vBattery
 410 02be C0F20000 		movt	r0, #:upper16:vBattery
 411 02c2 FFF7FEFF 		bl	ReadBatteryVoltage
 412 02c6 0346     		mov	r3, r0
 413 02c8 002B     		cmp	r3, #0
 414 02ca 1DD0     		beq	.L10
 161:.\main.c      ****                 sprintf(data_packet,"%s%s, %f\r\n", data_packet,
 415              		.loc 1 161 0
 416 02cc 40F20003 		movw	r3, #:lower16:vBattery
 417 02d0 C0F20003 		movt	r3, #:upper16:vBattery
 418 02d4 1B68     		ldr	r3, [r3, #0]	@ float
 419 02d6 1846     		mov	r0, r3
 420 02d8 FFF7FEFF 		bl	__aeabi_f2d
 421 02dc 0246     		mov	r2, r0
 422 02de 0B46     		mov	r3, r1
 423 02e0 CDE90023 		strd	r2, [sp]
 424 02e4 40F20000 		movw	r0, #:lower16:data_packet
 425 02e8 C0F20000 		movt	r0, #:upper16:data_packet
 426 02ec 40F20001 		movw	r1, #:lower16:.LC8
 427 02f0 C0F20001 		movt	r1, #:upper16:.LC8
 428 02f4 40F20002 		movw	r2, #:lower16:data_packet
 429 02f8 C0F20002 		movt	r2, #:upper16:data_packet
 430 02fc 40F20003 		movw	r3, #:lower16:.LC12
 431 0300 C0F20003 		movt	r3, #:upper16:.LC12
 432 0304 FFF7FEFF 		bl	sprintf
 433              	.L10:
 162:.\main.c      ****                     "V_batt", vBattery);              
 163:.\main.c      ****             }
 164:.\main.c      ****             
 165:.\main.c      ****             /* Moved to after packet is written to server
 166:.\main.c      ****             NeoRtcTimeStruct tm_neo = NeoRTC_Read_Time();
 167:.\main.c      **** 
 168:.\main.c      ****             sprintf(data_packet, "\r\n%d:%d:%d %d/%d/%d -- [ID %d] u_d=%f s_d=%f s_t=%f v_b=%f", tm
 169:.\main.c      ****                              tm_neo.second, tm_neo.day, tm_neo.month, tm_neo.year, moteID,
 170:.\main.c      ****                              ultrasonic_reading.depth, solinst_reading.depth, solinst_reading.temp,
 171:.\main.c      ****             
 172:.\main.c      ****             Write_To_SD_Card("data.txt","a",data_packet,strlen(data_packet));
 173:.\main.c      ****             */
 174:.\main.c      ****             /* Old AWS packet
 175:.\main.c      ****             sprintf(data_packet, "\n%d:%d:%d %d/%d/%d -- [ID %d] u_d=%f s_d=%f s_t=%f v_b=%f", tm_n
 176:.\main.c      ****                              tm_neo.second, tm_neo.day, tm_neo.month, tm_neo.year, moteID,
 177:.\main.c      ****                              ultrasonic_reading.depth, solinst_reading.depth, solinst_reading.temp,
 178:.\main.c      ****             */
 179:.\main.c      ****    
 180:.\main.c      ****             /* Create Xively Packet */
 181:.\main.c      ****             /*
 182:.\main.c      ****             sprintf(data_packet, "{"
 183:.\main.c      ****                       "\"method\":\"put\","
 184:.\main.c      ****                       "\"resource\":\"/feeds/%d\","
 185:.\main.c      ****                       "\"headers\":{\"X-ApiKey\":\"%s\"},"
 186:.\main.c      ****                       "\"body\":{\"version\":\"1.0.0\",\"datastreams\":["
 187:.\main.c      ****                             "{ \"id\" : \"depth_sonic\", \"current_value\" : \"%f\"},"
 188:.\main.c      ****                             "{ \"id\" : \"depth_press\", \"current_value\" : \"%f\"},"
 189:.\main.c      ****                             "{ \"id\" : \"temp_press\", \"current_value\" : \"%f\"},"
 190:.\main.c      ****                             "{ \"id\" : \"trigger_sampler\", \"current_value\" : \"%d\"},"
 191:.\main.c      ****                             "{ \"id\" : \"V_batt\",  \"current_value\" : \"%f\"}"
 192:.\main.c      ****                       "]}}",
ARM GAS  C:\Users\karunmj\AppData\Local\Temp\ccqLZZEj.s 			page 13


 193:.\main.c      ****                       FEED_ID,API_KEY,
 194:.\main.c      ****                       ultrasonic_reading.depth, solinst_reading.depth, solinst_reading.temp,0u,vBat
 195:.\main.c      ****             */
 196:.\main.c      ****             /*
 197:.\main.c      ****             sprintf(data_packet, "%s, %f\r\n%s, %f\r\n%s, %f\r\n%s, %f",
 198:.\main.c      ****                 "depth_sonic", ultrasonic_reading.depth,
 199:.\main.c      ****                 "depth_press", solinst_reading.depth,
 200:.\main.c      ****                 "temp_press", solinst_reading.temp,
 201:.\main.c      ****                 "V_batt", vBattery
 202:.\main.c      ****                 );
 203:.\main.c      ****             */
 204:.\main.c      ****             packet_ready = 1u;
 434              		.loc 1 204 0
 435 0308 40F20003 		movw	r3, #:lower16:packet_ready
 436 030c C0F20003 		movt	r3, #:upper16:packet_ready
 437 0310 4FF00102 		mov	r2, #1
 438 0314 1A70     		strb	r2, [r3, #0]
 205:.\main.c      ****             //send_attempts = 0u;
 206:.\main.c      ****             take_reading = 0u;
 439              		.loc 1 206 0
 440 0316 40F20003 		movw	r3, #:lower16:take_reading
 441 031a C0F20003 		movt	r3, #:upper16:take_reading
 442 031e 4FF00002 		mov	r2, #0
 443 0322 1A70     		strb	r2, [r3, #0]
 444 0324 ACE0     		b	.L11
 445              	.L2:
 207:.\main.c      ****             
 208:.\main.c      ****   
 209:.\main.c      ****         } else if(packet_ready){
 446              		.loc 1 209 0
 447 0326 40F20003 		movw	r3, #:lower16:packet_ready
 448 032a C0F20003 		movt	r3, #:upper16:packet_ready
 449 032e 1B78     		ldrb	r3, [r3, #0]	@ zero_extendqisi2
 450 0330 002B     		cmp	r3, #0
 451 0332 00F09980 		beq	.L12
 452              	.LBB2:
 210:.\main.c      ****             isr_SleepTimer_Stop;  //  <============= ADDRESS THIS WITH B.K.
 211:.\main.c      ****             
 212:.\main.c      ****             // Power on the modem in case it was turned off
 213:.\main.c      ****             modem_power_on();
 453              		.loc 1 213 0
 454 0336 FFF7FEFF 		bl	modem_power_on
 214:.\main.c      ****             
 215:.\main.c      ****             // modem_state should now be IDLE or READY
 216:.\main.c      ****             modem_send_packet(data_packet);
 455              		.loc 1 216 0
 456 033a 40F20000 		movw	r0, #:lower16:data_packet
 457 033e C0F20000 		movt	r0, #:upper16:data_packet
 458 0342 FFF7FEFF 		bl	modem_send_packet
 217:.\main.c      ****             
 218:.\main.c      ****             modem_power_off();
 459              		.loc 1 218 0
 460 0346 FFF7FEFF 		bl	modem_power_off
 219:.\main.c      ****             
 220:.\main.c      ****             // Backup data to SD Card
 221:.\main.c      ****             NeoRtcTimeStruct tm_neo = NeoRTC_Read_Time();
 461              		.loc 1 221 0
ARM GAS  C:\Users\karunmj\AppData\Local\Temp\ccqLZZEj.s 			page 14


 462 034a 07F12003 		add	r3, r7, #32
 463 034e 1846     		mov	r0, r3
 464 0350 FFF7FEFF 		bl	NeoRTC_Read_Time
 222:.\main.c      **** 
 223:.\main.c      ****             sprintf(data_packet, "\r\n%d:%d:%d %d/%d/%d -- [ID %d] u_d=%f s_d=%f s_t=%f bottle=%d v
 465              		.loc 1 223 0
 466 0354 97F82230 		ldrb	r3, [r7, #34]	@ zero_extendqisi2
 467 0358 7B60     		str	r3, [r7, #4]
 468 035a 97F82130 		ldrb	r3, [r7, #33]	@ zero_extendqisi2
 469 035e BB60     		str	r3, [r7, #8]
 224:.\main.c      ****                              tm_neo.second, tm_neo.day, tm_neo.month, tm_neo.year, moteID,
 470              		.loc 1 224 0
 471 0360 97F82030 		ldrb	r3, [r7, #32]	@ zero_extendqisi2
 472              		.loc 1 223 0
 473 0364 FB60     		str	r3, [r7, #12]
 474              		.loc 1 224 0
 475 0366 97F82330 		ldrb	r3, [r7, #35]	@ zero_extendqisi2
 476              		.loc 1 223 0
 477 036a 3B61     		str	r3, [r7, #16]
 478              		.loc 1 224 0
 479 036c 97F82530 		ldrb	r3, [r7, #37]	@ zero_extendqisi2
 480              		.loc 1 223 0
 481 0370 7B61     		str	r3, [r7, #20]
 482              		.loc 1 224 0
 483 0372 FB8C     		ldrh	r3, [r7, #38]
 484              		.loc 1 223 0
 485 0374 BB61     		str	r3, [r7, #24]
 486 0376 40F20003 		movw	r3, #:lower16:moteID
 487 037a C0F20003 		movt	r3, #:upper16:moteID
 488 037e 1B78     		ldrb	r3, [r3, #0]	@ zero_extendqisi2
 489 0380 FB61     		str	r3, [r7, #28]
 225:.\main.c      ****                              ultrasonic_reading.depth, solinst_reading.depth, solinst_reading.temp,
 490              		.loc 1 225 0
 491 0382 40F20003 		movw	r3, #:lower16:ultrasonic_reading
 492 0386 C0F20003 		movt	r3, #:upper16:ultrasonic_reading
 493 038a 5B68     		ldr	r3, [r3, #4]	@ float
 494              		.loc 1 223 0
 495 038c 1846     		mov	r0, r3
 496 038e FFF7FEFF 		bl	__aeabi_f2d
 497 0392 8246     		mov	sl, r0
 498 0394 8B46     		mov	fp, r1
 499              		.loc 1 225 0
 500 0396 40F20003 		movw	r3, #:lower16:solinst_reading
 501 039a C0F20003 		movt	r3, #:upper16:solinst_reading
 502 039e 5B68     		ldr	r3, [r3, #4]	@ float
 503              		.loc 1 223 0
 504 03a0 1846     		mov	r0, r3
 505 03a2 FFF7FEFF 		bl	__aeabi_f2d
 506 03a6 8046     		mov	r8, r0
 507 03a8 8946     		mov	r9, r1
 508              		.loc 1 225 0
 509 03aa 40F20003 		movw	r3, #:lower16:solinst_reading
 510 03ae C0F20003 		movt	r3, #:upper16:solinst_reading
 511 03b2 1B68     		ldr	r3, [r3, #0]	@ float
 512              		.loc 1 223 0
 513 03b4 1846     		mov	r0, r3
 514 03b6 FFF7FEFF 		bl	__aeabi_f2d
ARM GAS  C:\Users\karunmj\AppData\Local\Temp\ccqLZZEj.s 			page 15


 515 03ba 0446     		mov	r4, r0
 516 03bc 0D46     		mov	r5, r1
 517 03be 40F20003 		movw	r3, #:lower16:bottle_count
 518 03c2 C0F20003 		movt	r3, #:upper16:bottle_count
 519 03c6 1B78     		ldrb	r3, [r3, #0]	@ zero_extendqisi2
 520 03c8 1E46     		mov	r6, r3
 521 03ca 40F20003 		movw	r3, #:lower16:vBattery
 522 03ce C0F20003 		movt	r3, #:upper16:vBattery
 523 03d2 1B68     		ldr	r3, [r3, #0]	@ float
 524 03d4 1846     		mov	r0, r3
 525 03d6 FFF7FEFF 		bl	__aeabi_f2d
 526 03da 0246     		mov	r2, r0
 527 03dc 0B46     		mov	r3, r1
 528 03de F968     		ldr	r1, [r7, #12]
 529 03e0 0091     		str	r1, [sp, #0]
 530 03e2 3969     		ldr	r1, [r7, #16]
 531 03e4 0191     		str	r1, [sp, #4]
 532 03e6 7969     		ldr	r1, [r7, #20]
 533 03e8 0291     		str	r1, [sp, #8]
 534 03ea B969     		ldr	r1, [r7, #24]
 535 03ec 0391     		str	r1, [sp, #12]
 536 03ee F969     		ldr	r1, [r7, #28]
 537 03f0 0491     		str	r1, [sp, #16]
 538 03f2 CDE906AB 		strd	sl, [sp, #24]
 539 03f6 CDE90889 		strd	r8, [sp, #32]
 540 03fa CDE90A45 		strd	r4, [sp, #40]
 541 03fe 0C96     		str	r6, [sp, #48]
 542 0400 CDE90E23 		strd	r2, [sp, #56]
 543 0404 40F20000 		movw	r0, #:lower16:data_packet
 544 0408 C0F20000 		movt	r0, #:upper16:data_packet
 545 040c 40F20001 		movw	r1, #:lower16:.LC13
 546 0410 C0F20001 		movt	r1, #:upper16:.LC13
 547 0414 7A68     		ldr	r2, [r7, #4]
 548 0416 BB68     		ldr	r3, [r7, #8]
 549 0418 FFF7FEFF 		bl	sprintf
 226:.\main.c      ****             
 227:.\main.c      ****             Write_To_SD_Card("data.txt","a",data_packet,strlen(data_packet));
 550              		.loc 1 227 0
 551 041c 40F20000 		movw	r0, #:lower16:data_packet
 552 0420 C0F20000 		movt	r0, #:upper16:data_packet
 553 0424 FFF7FEFF 		bl	strlen
 554 0428 0346     		mov	r3, r0
 555 042a 40F20000 		movw	r0, #:lower16:.LC14
 556 042e C0F20000 		movt	r0, #:upper16:.LC14
 557 0432 40F20001 		movw	r1, #:lower16:.LC15
 558 0436 C0F20001 		movt	r1, #:upper16:.LC15
 559 043a 40F20002 		movw	r2, #:lower16:data_packet
 560 043e C0F20002 		movt	r2, #:upper16:data_packet
 561 0442 FFF7FEFF 		bl	Write_To_SD_Card
 228:.\main.c      ****             
 229:.\main.c      ****             if (clear_packet(data_packet)) {
 562              		.loc 1 229 0
 563 0446 40F20000 		movw	r0, #:lower16:data_packet
 564 044a C0F20000 		movt	r0, #:upper16:data_packet
 565 044e FFF7FEFF 		bl	clear_packet
 566 0452 0346     		mov	r3, r0
 567 0454 002B     		cmp	r3, #0
ARM GAS  C:\Users\karunmj\AppData\Local\Temp\ccqLZZEj.s 			page 16


 568 0456 12D0     		beq	.L16
 230:.\main.c      ****                 packet_ready = 0u;
 569              		.loc 1 230 0
 570 0458 40F20003 		movw	r3, #:lower16:packet_ready
 571 045c C0F20003 		movt	r3, #:upper16:packet_ready
 572 0460 4FF00002 		mov	r2, #0
 573 0464 1A70     		strb	r2, [r3, #0]
 574 0466 0BE0     		b	.L11
 575              	.L12:
 576              	.LBE2:
 231:.\main.c      ****             }
 232:.\main.c      ****             
 233:.\main.c      ****             /*
 234:.\main.c      ****             // else if(modem_state == MODEM_STATE_IDLE){
 235:.\main.c      ****             else { // modem state is ON (aka IDLE or READY)
 236:.\main.c      ****                 
 237:.\main.c      ****                 
 238:.\main.c      ****                 ////if(modem_send_packet(data_packet)){     // if packet sent
 239:.\main.c      ****                 //if(modem_send_packet(data_packet)){     // if packet sent
 240:.\main.c      ****                 //    modem_power_off();
 241:.\main.c      ****                 //    clear_packet(data_packet);
 242:.\main.c      ****                 //}
 243:.\main.c      ****                 //else{                                   // if packet not sent
 244:.\main.c      ****                 //    modem_reset();
 245:.\main.c      ****                 //    modem_power_off();
 246:.\main.c      ****                 //}
 247:.\main.c      ****                 
 248:.\main.c      ****                 if(send_attempts < MAX_SEND_ATTEMPTS){
 249:.\main.c      ****                     
 250:.\main.c      ****                     send_attempts++;
 251:.\main.c      ****                     
 252:.\main.c      ****                     if (modem_send_packet(data_packet)){     
 253:.\main.c      ****                     // the packet is sent within the number of maximum attempts allowed
 254:.\main.c      ****                         //debug_write("Packet sent within max attempts.");
 255:.\main.c      ****                         modem_power_off();
 256:.\main.c      ****                         //debug_write("Modem powered off.");
 257:.\main.c      ****                         clear_packet(data_packet);
 258:.\main.c      ****                         send_attempts = 0u;
 259:.\main.c      ****                     }
 260:.\main.c      ****                     else {
 261:.\main.c      ****                         //modem_reset();
 262:.\main.c      ****                     }
 263:.\main.c      ****                     
 264:.\main.c      ****                 } 
 265:.\main.c      ****                 else {
 266:.\main.c      ****                 // SEND ATTEMPTS MOVED TO modem.c
 267:.\main.c      ****                 // the number of maximum attempts allowed has been exceeded
 268:.\main.c      ****                     modem_power_off();
 269:.\main.c      ****                     clear_packet(data_packet);
 270:.\main.c      ****                     send_attempts = 0u;
 271:.\main.c      ****                     debug_write("MAX_SEND_ATTEMPTS Exceeded");     
 272:.\main.c      ****                 
 273:.\main.c      ****                 }                
 274:.\main.c      ****                  
 275:.\main.c      ****             }
 276:.\main.c      ****             */
 277:.\main.c      ****         }else{
ARM GAS  C:\Users\karunmj\AppData\Local\Temp\ccqLZZEj.s 			page 17


 278:.\main.c      ****             NeoRTC_Set_Repeating_Minute_Alarm(t_sample);  // Set 1-minute alarm
 577              		.loc 1 278 0
 578 0468 40F20003 		movw	r3, #:lower16:t_sample
 579 046c C0F20003 		movt	r3, #:upper16:t_sample
 580 0470 1B78     		ldrb	r3, [r3, #0]	@ zero_extendqisi2
 581 0472 1846     		mov	r0, r3
 582 0474 FFF7FEFF 		bl	NeoRTC_Set_Repeating_Minute_Alarm
 279:.\main.c      ****             Goto_Low_Power_Mode();
 583              		.loc 1 279 0
 584 0478 FFF7FEFF 		bl	Goto_Low_Power_Mode
 585 047c 00E0     		b	.L11
 586              	.L16:
 587              	.LBB3:
 588              		.loc 1 230 0
 589 047e 00BF     		nop
 590              	.L11:
 591              	.LBE3:
 280:.\main.c      ****         }
 281:.\main.c      ****     CyDelay(1u);  // Quick Pause to prevent locking
 592              		.loc 1 281 0
 593 0480 4FF00100 		mov	r0, #1
 594 0484 FFF7FEFF 		bl	CyDelay
 282:.\main.c      ****     }
 595              		.loc 1 282 0
 596 0488 0EE6     		b	.L14
 597              		.cfi_endproc
 598              	.LFE29:
 599              		.size	main, .-main
 600 048a 00BF     		.section	.text.killMotePower,"ax",%progbits
 601              		.align	2
 602              		.global	killMotePower
 603              		.thumb
 604              		.thumb_func
 605              		.type	killMotePower, %function
 606              	killMotePower:
 607              	.LFB30:
 283:.\main.c      **** }
 284:.\main.c      **** 
 285:.\main.c      **** //pulls down all pins relatd to mote to save power since we're nousing it
 286:.\main.c      **** void killMotePower(){
 608              		.loc 1 286 0
 609              		.cfi_startproc
 610              		@ args = 0, pretend = 0, frame = 0
 611              		@ frame_needed = 1, uses_anonymous_args = 0
 612 0000 80B5     		push	{r7, lr}
 613              	.LCFI3:
 614              		.cfi_def_cfa_offset 8
 615 0002 00AF     		add	r7, sp, #0
 616              		.cfi_offset 14, -4
 617              		.cfi_offset 7, -8
 618              	.LCFI4:
 619              		.cfi_def_cfa_register 7
 287:.\main.c      ****     NEOMOTE_1_RX_RTS_n_Write(0u);
 620              		.loc 1 287 0
 621 0004 4FF00000 		mov	r0, #0
 622 0008 FFF7FEFF 		bl	NEOMOTE_1_RX_RTS_n_Write
 288:.\main.c      ****     NEOMOTE_1_RX_CTS_n_Write(0u);
ARM GAS  C:\Users\karunmj\AppData\Local\Temp\ccqLZZEj.s 			page 18


 623              		.loc 1 288 0
 624 000c 4FF00000 		mov	r0, #0
 625 0010 FFF7FEFF 		bl	NEOMOTE_1_RX_CTS_n_Write
 289:.\main.c      ****     NEOMOTE_1_TX_RTS_n_Write(0u);
 626              		.loc 1 289 0
 627 0014 4FF00000 		mov	r0, #0
 628 0018 FFF7FEFF 		bl	NEOMOTE_1_TX_RTS_n_Write
 290:.\main.c      ****     NEOMOTE_1_TX_CTS_n_Write(0u);
 629              		.loc 1 290 0
 630 001c 4FF00000 		mov	r0, #0
 631 0020 FFF7FEFF 		bl	NEOMOTE_1_TX_CTS_n_Write
 291:.\main.c      ****     NEOMOTE_1_RX_Pin_Write(0u);
 632              		.loc 1 291 0
 633 0024 4FF00000 		mov	r0, #0
 634 0028 FFF7FEFF 		bl	NEOMOTE_1_RX_Pin_Write
 292:.\main.c      ****     NEOMOTE_1_TX_Pin_Write(0u);
 635              		.loc 1 292 0
 636 002c 4FF00000 		mov	r0, #0
 637 0030 FFF7FEFF 		bl	NEOMOTE_1_TX_Pin_Write
 293:.\main.c      ****     NEOMOTE_1_TimeN_Write(0u);
 638              		.loc 1 293 0
 639 0034 4FF00000 		mov	r0, #0
 640 0038 FFF7FEFF 		bl	NEOMOTE_1_TimeN_Write
 294:.\main.c      **** }
 641              		.loc 1 294 0
 642 003c 80BD     		pop	{r7, pc}
 643              		.cfi_endproc
 644              	.LFE30:
 645              		.size	killMotePower, .-killMotePower
 646 003e 00BF     		.section	.text.isr_timer,"ax",%progbits
 647              		.align	2
 648              		.global	isr_timer
 649              		.thumb
 650              		.thumb_func
 651              		.type	isr_timer, %function
 652              	isr_timer:
 653              	.LFB31:
 295:.\main.c      **** 
 296:.\main.c      **** 
 297:.\main.c      **** 
 298:.\main.c      **** CY_ISR(isr_timer){
 654              		.loc 1 298 0
 655              		.cfi_startproc
 656              		@ args = 0, pretend = 0, frame = 0
 657              		@ frame_needed = 1, uses_anonymous_args = 0
 658              		@ link register save eliminated.
 659 0000 80B4     		push	{r7}
 660              	.LCFI5:
 661              		.cfi_def_cfa_offset 4
 662 0002 00AF     		add	r7, sp, #0
 663              		.cfi_offset 7, -4
 664              	.LCFI6:
 665              		.cfi_def_cfa_register 7
 299:.\main.c      ****     //take_reading = 1u;
 300:.\main.c      ****     //timer_ReadStatusRegister();
 301:.\main.c      **** }
 666              		.loc 1 301 0
ARM GAS  C:\Users\karunmj\AppData\Local\Temp\ccqLZZEj.s 			page 19


 667 0004 BD46     		mov	sp, r7
 668 0006 80BC     		pop	{r7}
 669 0008 7047     		bx	lr
 670              		.cfi_endproc
 671              	.LFE31:
 672              		.size	isr_timer, .-isr_timer
 673 000a 00BF     		.section	.text.rtcCallBackReceived,"ax",%progbits
 674              		.align	2
 675              		.global	rtcCallBackReceived
 676              		.thumb
 677              		.thumb_func
 678              		.type	rtcCallBackReceived, %function
 679              	rtcCallBackReceived:
 680              	.LFB32:
 302:.\main.c      **** 
 303:.\main.c      **** //void read_packet(){
 304:.\main.c      **** //}
 305:.\main.c      **** 
 306:.\main.c      **** /*
 307:.\main.c      **** void clear_packet(char* packet){
 308:.\main.c      ****     
 309:.\main.c      ****     //uint8 i;
 310:.\main.c      ****     //for(i = 0u; i < packet_size; i++){
 311:.\main.c      ****     //    packet[i] = 0u;
 312:.\main.c      ****     //}
 313:.\main.c      ****     
 314:.\main.c      ****     memset(packet,0,sizeof(packet));
 315:.\main.c      ****     packet_ready = 0u;
 316:.\main.c      **** }
 317:.\main.c      **** */
 318:.\main.c      **** void rtcCallBackReceived(uint8 alarmType){ // RTC Event Handler.
 681              		.loc 1 318 0
 682              		.cfi_startproc
 683              		@ args = 0, pretend = 0, frame = 8
 684              		@ frame_needed = 1, uses_anonymous_args = 0
 685              		@ link register save eliminated.
 686 0000 80B4     		push	{r7}
 687              	.LCFI7:
 688              		.cfi_def_cfa_offset 4
 689 0002 83B0     		sub	sp, sp, #12
 690              	.LCFI8:
 691              		.cfi_def_cfa_offset 16
 692 0004 00AF     		add	r7, sp, #0
 693              		.cfi_offset 7, -4
 694              	.LCFI9:
 695              		.cfi_def_cfa_register 7
 696 0006 0346     		mov	r3, r0
 697 0008 FB71     		strb	r3, [r7, #7]
 319:.\main.c      ****       
 320:.\main.c      ****     if(alarmType == RTC_MINUTE_ALARM){
 698              		.loc 1 320 0
 699 000a FB79     		ldrb	r3, [r7, #7]	@ zero_extendqisi2
 700 000c 012B     		cmp	r3, #1
 701 000e 06D1     		bne	.L23
 321:.\main.c      ****          
 322:.\main.c      ****         take_reading = 1u;
 702              		.loc 1 322 0
ARM GAS  C:\Users\karunmj\AppData\Local\Temp\ccqLZZEj.s 			page 20


 703 0010 40F20003 		movw	r3, #:lower16:take_reading
 704 0014 C0F20003 		movt	r3, #:upper16:take_reading
 705 0018 4FF00102 		mov	r2, #1
 706 001c 1A70     		strb	r2, [r3, #0]
 707              	.L23:
 323:.\main.c      ****         
 324:.\main.c      ****     }   
 325:.\main.c      **** }
 708              		.loc 1 325 0
 709 001e 07F10C07 		add	r7, r7, #12
 710 0022 BD46     		mov	sp, r7
 711 0024 80BC     		pop	{r7}
 712 0026 7047     		bx	lr
 713              		.cfi_endproc
 714              	.LFE32:
 715              		.size	rtcCallBackReceived, .-rtcCallBackReceived
 716              		.section	.text.Write_To_SD_Card,"ax",%progbits
 717              		.align	2
 718              		.global	Write_To_SD_Card
 719              		.thumb
 720              		.thumb_func
 721              		.type	Write_To_SD_Card, %function
 722              	Write_To_SD_Card:
 723              	.LFB33:
 326:.\main.c      **** 
 327:.\main.c      **** 
 328:.\main.c      **** void Write_To_SD_Card(const char* fileName, const char* pMode, const void* pData, U32 NumBytes) {
 724              		.loc 1 328 0
 725              		.cfi_startproc
 726              		@ args = 0, pretend = 0, frame = 32
 727              		@ frame_needed = 1, uses_anonymous_args = 0
 728 0000 80B5     		push	{r7, lr}
 729              	.LCFI10:
 730              		.cfi_def_cfa_offset 8
 731 0002 88B0     		sub	sp, sp, #32
 732              	.LCFI11:
 733              		.cfi_def_cfa_offset 40
 734 0004 00AF     		add	r7, sp, #0
 735              		.cfi_offset 14, -4
 736              		.cfi_offset 7, -8
 737              	.LCFI12:
 738              		.cfi_def_cfa_register 7
 739 0006 F860     		str	r0, [r7, #12]
 740 0008 B960     		str	r1, [r7, #8]
 741 000a 7A60     		str	r2, [r7, #4]
 742 000c 3B60     		str	r3, [r7, #0]
 329:.\main.c      **** // Remember to add line below to rtcCallBack Function
 330:.\main.c      **** // Write_To_SD_Card("myData.txt","a",sendBuffer,strlen(sendBuffer));
 331:.\main.c      **** 
 332:.\main.c      ****     NEOMOTE_1_SD_Card_Power_Write(0u); // Power on the SD Card
 743              		.loc 1 332 0
 744 000e 4FF00000 		mov	r0, #0
 745 0012 FFF7FEFF 		bl	NEOMOTE_1_SD_Card_Power_Write
 333:.\main.c      ****     
 334:.\main.c      ****     FS_FILE *  pFile;
 335:.\main.c      ****     char sdVolName[10];  // Buffer that will hold SD card Volume name
 336:.\main.c      ****     
ARM GAS  C:\Users\karunmj\AppData\Local\Temp\ccqLZZEj.s 			page 21


 337:.\main.c      ****     if (0 != FS_GetVolumeName(0, &sdVolName[0], 9)) {
 746              		.loc 1 337 0
 747 0016 07F11003 		add	r3, r7, #16
 748 001a 4FF00000 		mov	r0, #0
 749 001e 1946     		mov	r1, r3
 750 0020 4FF00902 		mov	r2, #9
 751 0024 FFF7FEFF 		bl	FS_GetVolumeName
 752 0028 0346     		mov	r3, r0
 753 002a 002B     		cmp	r3, #0
 754 002c 1AD0     		beq	.L25
 338:.\main.c      ****         pFile = FS_FOpen(fileName, pMode);
 755              		.loc 1 338 0
 756 002e F868     		ldr	r0, [r7, #12]
 757 0030 B968     		ldr	r1, [r7, #8]
 758 0032 FFF7FEFF 		bl	FS_FOpen
 759 0036 0346     		mov	r3, r0
 760 0038 FB61     		str	r3, [r7, #28]
 339:.\main.c      ****         if (pFile == 0){
 761              		.loc 1 339 0
 762 003a FB69     		ldr	r3, [r7, #28]
 763 003c 002B     		cmp	r3, #0
 764 003e 09D1     		bne	.L26
 340:.\main.c      ****             FS_DeInit();
 765              		.loc 1 340 0
 766 0040 FFF7FEFF 		bl	FS_DeInit
 341:.\main.c      ****             FS_Init(); //poipoi debug error
 767              		.loc 1 341 0
 768 0044 FFF7FEFF 		bl	FS_Init
 342:.\main.c      ****             pFile = FS_FOpen(fileName, pMode);
 769              		.loc 1 342 0
 770 0048 F868     		ldr	r0, [r7, #12]
 771 004a B968     		ldr	r1, [r7, #8]
 772 004c FFF7FEFF 		bl	FS_FOpen
 773 0050 0346     		mov	r3, r0
 774 0052 FB61     		str	r3, [r7, #28]
 775              	.L26:
 343:.\main.c      ****         }
 344:.\main.c      ****         FS_Write(pFile, pData, NumBytes);
 776              		.loc 1 344 0
 777 0054 F869     		ldr	r0, [r7, #28]
 778 0056 7968     		ldr	r1, [r7, #4]
 779 0058 3A68     		ldr	r2, [r7, #0]
 780 005a FFF7FEFF 		bl	FS_Write
 345:.\main.c      ****         FS_FClose(pFile);
 781              		.loc 1 345 0
 782 005e F869     		ldr	r0, [r7, #28]
 783 0060 FFF7FEFF 		bl	FS_FClose
 784              	.L25:
 346:.\main.c      ****     }
 347:.\main.c      ****     
 348:.\main.c      ****     NEOMOTE_1_SD_Card_Power_Write(1u); // Power off the SD Card
 785              		.loc 1 348 0
 786 0064 4FF00100 		mov	r0, #1
 787 0068 FFF7FEFF 		bl	NEOMOTE_1_SD_Card_Power_Write
 349:.\main.c      **** 
 350:.\main.c      **** }
 788              		.loc 1 350 0
ARM GAS  C:\Users\karunmj\AppData\Local\Temp\ccqLZZEj.s 			page 22


 789 006c 07F12007 		add	r7, r7, #32
 790 0070 BD46     		mov	sp, r7
 791 0072 80BD     		pop	{r7, pc}
 792              		.cfi_endproc
 793              	.LFE33:
 794              		.size	Write_To_SD_Card, .-Write_To_SD_Card
 795              		.text
 796              	.Letext0:
 797              		.section	.debug_loc,"",%progbits
 798              	.Ldebug_loc0:
 799              	.LLST0:
 800 0000 00000000 		.4byte	.LFB29
 801 0004 04000000 		.4byte	.LCFI0
 802 0008 0100     		.2byte	0x1
 803 000a 5D       		.byte	0x5d
 804 000b 04000000 		.4byte	.LCFI0
 805 000f 06000000 		.4byte	.LCFI1
 806 0013 0200     		.2byte	0x2
 807 0015 7D       		.byte	0x7d
 808 0016 24       		.sleb128 36
 809 0017 06000000 		.4byte	.LCFI1
 810 001b 08000000 		.4byte	.LCFI2
 811 001f 0300     		.2byte	0x3
 812 0021 7D       		.byte	0x7d
 813 0022 9001     		.sleb128 144
 814 0024 08000000 		.4byte	.LCFI2
 815 0028 8A040000 		.4byte	.LFE29
 816 002c 0300     		.2byte	0x3
 817 002e 77       		.byte	0x77
 818 002f D000     		.sleb128 80
 819 0031 00000000 		.4byte	0x0
 820 0035 00000000 		.4byte	0x0
 821              	.LLST1:
 822 0039 00000000 		.4byte	.LFB30
 823 003d 02000000 		.4byte	.LCFI3
 824 0041 0100     		.2byte	0x1
 825 0043 5D       		.byte	0x5d
 826 0044 02000000 		.4byte	.LCFI3
 827 0048 04000000 		.4byte	.LCFI4
 828 004c 0200     		.2byte	0x2
 829 004e 7D       		.byte	0x7d
 830 004f 08       		.sleb128 8
 831 0050 04000000 		.4byte	.LCFI4
 832 0054 3E000000 		.4byte	.LFE30
 833 0058 0200     		.2byte	0x2
 834 005a 77       		.byte	0x77
 835 005b 08       		.sleb128 8
 836 005c 00000000 		.4byte	0x0
 837 0060 00000000 		.4byte	0x0
 838              	.LLST2:
 839 0064 00000000 		.4byte	.LFB31
 840 0068 02000000 		.4byte	.LCFI5
 841 006c 0100     		.2byte	0x1
 842 006e 5D       		.byte	0x5d
 843 006f 02000000 		.4byte	.LCFI5
 844 0073 04000000 		.4byte	.LCFI6
 845 0077 0200     		.2byte	0x2
ARM GAS  C:\Users\karunmj\AppData\Local\Temp\ccqLZZEj.s 			page 23


 846 0079 7D       		.byte	0x7d
 847 007a 04       		.sleb128 4
 848 007b 04000000 		.4byte	.LCFI6
 849 007f 0A000000 		.4byte	.LFE31
 850 0083 0200     		.2byte	0x2
 851 0085 77       		.byte	0x77
 852 0086 04       		.sleb128 4
 853 0087 00000000 		.4byte	0x0
 854 008b 00000000 		.4byte	0x0
 855              	.LLST3:
 856 008f 00000000 		.4byte	.LFB32
 857 0093 02000000 		.4byte	.LCFI7
 858 0097 0100     		.2byte	0x1
 859 0099 5D       		.byte	0x5d
 860 009a 02000000 		.4byte	.LCFI7
 861 009e 04000000 		.4byte	.LCFI8
 862 00a2 0200     		.2byte	0x2
 863 00a4 7D       		.byte	0x7d
 864 00a5 04       		.sleb128 4
 865 00a6 04000000 		.4byte	.LCFI8
 866 00aa 06000000 		.4byte	.LCFI9
 867 00ae 0200     		.2byte	0x2
 868 00b0 7D       		.byte	0x7d
 869 00b1 10       		.sleb128 16
 870 00b2 06000000 		.4byte	.LCFI9
 871 00b6 28000000 		.4byte	.LFE32
 872 00ba 0200     		.2byte	0x2
 873 00bc 77       		.byte	0x77
 874 00bd 10       		.sleb128 16
 875 00be 00000000 		.4byte	0x0
 876 00c2 00000000 		.4byte	0x0
 877              	.LLST4:
 878 00c6 00000000 		.4byte	.LFB33
 879 00ca 02000000 		.4byte	.LCFI10
 880 00ce 0100     		.2byte	0x1
 881 00d0 5D       		.byte	0x5d
 882 00d1 02000000 		.4byte	.LCFI10
 883 00d5 04000000 		.4byte	.LCFI11
 884 00d9 0200     		.2byte	0x2
 885 00db 7D       		.byte	0x7d
 886 00dc 08       		.sleb128 8
 887 00dd 04000000 		.4byte	.LCFI11
 888 00e1 06000000 		.4byte	.LCFI12
 889 00e5 0200     		.2byte	0x2
 890 00e7 7D       		.byte	0x7d
 891 00e8 28       		.sleb128 40
 892 00e9 06000000 		.4byte	.LCFI12
 893 00ed 74000000 		.4byte	.LFE33
 894 00f1 0200     		.2byte	0x2
 895 00f3 77       		.byte	0x77
 896 00f4 28       		.sleb128 40
 897 00f5 00000000 		.4byte	0x0
 898 00f9 00000000 		.4byte	0x0
 899              		.file 2 "./Generated_Source/PSoC5/cytypes.h"
 900              		.file 3 "..\\emFile_V322b\\Code\\Include\\PSoC5/FS_Types.h"
 901              		.file 4 "..\\neolib/neomote.h"
 902              		.file 5 ".\\/ultrasonic.h"
ARM GAS  C:\Users\karunmj\AppData\Local\Temp\ccqLZZEj.s 			page 24


 903              		.file 6 ".\\/solinst_depth.h"
 904              		.file 7 "./Generated_Source/PSoC5/core_cm3.h"
 905              		.section	.debug_info
 906 0000 CA030000 		.4byte	0x3ca
 907 0004 0200     		.2byte	0x2
 908 0006 00000000 		.4byte	.Ldebug_abbrev0
 909 000a 04       		.byte	0x4
 910 000b 01       		.uleb128 0x1
 911 000c D9010000 		.4byte	.LASF50
 912 0010 01       		.byte	0x1
 913 0011 EA000000 		.4byte	.LASF51
 914 0015 94000000 		.4byte	.LASF52
 915 0019 00000000 		.4byte	0x0
 916 001d 00000000 		.4byte	0x0
 917 0021 18000000 		.4byte	.Ldebug_ranges0+0x18
 918 0025 00000000 		.4byte	.Ldebug_line0
 919 0029 02       		.uleb128 0x2
 920 002a 01       		.byte	0x1
 921 002b 06       		.byte	0x6
 922 002c C5010000 		.4byte	.LASF0
 923 0030 02       		.uleb128 0x2
 924 0031 01       		.byte	0x1
 925 0032 08       		.byte	0x8
 926 0033 55010000 		.4byte	.LASF1
 927 0037 02       		.uleb128 0x2
 928 0038 02       		.byte	0x2
 929 0039 05       		.byte	0x5
 930 003a 10020000 		.4byte	.LASF2
 931 003e 02       		.uleb128 0x2
 932 003f 02       		.byte	0x2
 933 0040 07       		.byte	0x7
 934 0041 57000000 		.4byte	.LASF3
 935 0045 02       		.uleb128 0x2
 936 0046 04       		.byte	0x4
 937 0047 05       		.byte	0x5
 938 0048 3E020000 		.4byte	.LASF4
 939 004c 02       		.uleb128 0x2
 940 004d 04       		.byte	0x4
 941 004e 07       		.byte	0x7
 942 004f F3000000 		.4byte	.LASF5
 943 0053 02       		.uleb128 0x2
 944 0054 08       		.byte	0x8
 945 0055 05       		.byte	0x5
 946 0056 00000000 		.4byte	.LASF6
 947 005a 02       		.uleb128 0x2
 948 005b 08       		.byte	0x8
 949 005c 07       		.byte	0x7
 950 005d A9010000 		.4byte	.LASF7
 951 0061 03       		.uleb128 0x3
 952 0062 04       		.byte	0x4
 953 0063 05       		.byte	0x5
 954 0064 696E7400 		.ascii	"int\000"
 955 0068 02       		.uleb128 0x2
 956 0069 04       		.byte	0x4
 957 006a 07       		.byte	0x7
 958 006b 96010000 		.4byte	.LASF8
 959 006f 04       		.uleb128 0x4
ARM GAS  C:\Users\karunmj\AppData\Local\Temp\ccqLZZEj.s 			page 25


 960 0070 1A020000 		.4byte	.LASF9
 961 0074 02       		.byte	0x2
 962 0075 4C       		.byte	0x4c
 963 0076 30000000 		.4byte	0x30
 964 007a 04       		.uleb128 0x4
 965 007b 6A010000 		.4byte	.LASF10
 966 007f 02       		.byte	0x2
 967 0080 4D       		.byte	0x4d
 968 0081 3E000000 		.4byte	0x3e
 969 0085 02       		.uleb128 0x2
 970 0086 04       		.byte	0x4
 971 0087 04       		.byte	0x4
 972 0088 8E000000 		.4byte	.LASF11
 973 008c 02       		.uleb128 0x2
 974 008d 08       		.byte	0x8
 975 008e 04       		.byte	0x4
 976 008f 63010000 		.4byte	.LASF12
 977 0093 02       		.uleb128 0x2
 978 0094 01       		.byte	0x1
 979 0095 08       		.byte	0x8
 980 0096 EB010000 		.4byte	.LASF13
 981 009a 05       		.uleb128 0x5
 982 009b 04       		.byte	0x4
 983 009c 07       		.byte	0x7
 984 009d 06       		.uleb128 0x6
 985 009e 04       		.byte	0x4
 986 009f A3000000 		.4byte	0xa3
 987 00a3 07       		.uleb128 0x7
 988 00a4 93000000 		.4byte	0x93
 989 00a8 04       		.uleb128 0x4
 990 00a9 D1010000 		.4byte	.LASF14
 991 00ad 03       		.byte	0x3
 992 00ae 7E       		.byte	0x7e
 993 00af B3000000 		.4byte	0xb3
 994 00b3 08       		.uleb128 0x8
 995 00b4 D1010000 		.4byte	.LASF14
 996 00b8 01       		.byte	0x1
 997 00b9 06       		.uleb128 0x6
 998 00ba 04       		.byte	0x4
 999 00bb A8000000 		.4byte	0xa8
 1000 00bf 06       		.uleb128 0x6
 1001 00c0 04       		.byte	0x4
 1002 00c1 C5000000 		.4byte	0xc5
 1003 00c5 09       		.uleb128 0x9
 1004 00c6 0A       		.uleb128 0xa
 1005 00c7 08       		.byte	0x8
 1006 00c8 04       		.byte	0x4
 1007 00c9 1B       		.byte	0x1b
 1008 00ca 31010000 		.4byte	0x131
 1009 00ce 0B       		.uleb128 0xb
 1010 00cf 4E010000 		.4byte	.LASF15
 1011 00d3 04       		.byte	0x4
 1012 00d4 1C       		.byte	0x1c
 1013 00d5 6F000000 		.4byte	0x6f
 1014 00d9 02       		.byte	0x2
 1015 00da 23       		.byte	0x23
 1016 00db 00       		.uleb128 0x0
ARM GAS  C:\Users\karunmj\AppData\Local\Temp\ccqLZZEj.s 			page 26


 1017 00dc 0B       		.uleb128 0xb
 1018 00dd 50000000 		.4byte	.LASF16
 1019 00e1 04       		.byte	0x4
 1020 00e2 1D       		.byte	0x1d
 1021 00e3 6F000000 		.4byte	0x6f
 1022 00e7 02       		.byte	0x2
 1023 00e8 23       		.byte	0x23
 1024 00e9 01       		.uleb128 0x1
 1025 00ea 0B       		.uleb128 0xb
 1026 00eb C0010000 		.4byte	.LASF17
 1027 00ef 04       		.byte	0x4
 1028 00f0 1E       		.byte	0x1e
 1029 00f1 6F000000 		.4byte	0x6f
 1030 00f5 02       		.byte	0x2
 1031 00f6 23       		.byte	0x23
 1032 00f7 02       		.uleb128 0x2
 1033 00f8 0C       		.uleb128 0xc
 1034 00f9 64617900 		.ascii	"day\000"
 1035 00fd 04       		.byte	0x4
 1036 00fe 1F       		.byte	0x1f
 1037 00ff 6F000000 		.4byte	0x6f
 1038 0103 02       		.byte	0x2
 1039 0104 23       		.byte	0x23
 1040 0105 03       		.uleb128 0x3
 1041 0106 0B       		.uleb128 0xb
 1042 0107 33000000 		.4byte	.LASF18
 1043 010b 04       		.byte	0x4
 1044 010c 20       		.byte	0x20
 1045 010d 6F000000 		.4byte	0x6f
 1046 0111 02       		.byte	0x2
 1047 0112 23       		.byte	0x23
 1048 0113 04       		.uleb128 0x4
 1049 0114 0B       		.uleb128 0xb
 1050 0115 73000000 		.4byte	.LASF19
 1051 0119 04       		.byte	0x4
 1052 011a 21       		.byte	0x21
 1053 011b 6F000000 		.4byte	0x6f
 1054 011f 02       		.byte	0x2
 1055 0120 23       		.byte	0x23
 1056 0121 05       		.uleb128 0x5
 1057 0122 0B       		.uleb128 0xb
 1058 0123 4B000000 		.4byte	.LASF20
 1059 0127 04       		.byte	0x4
 1060 0128 22       		.byte	0x22
 1061 0129 7A000000 		.4byte	0x7a
 1062 012d 02       		.byte	0x2
 1063 012e 23       		.byte	0x23
 1064 012f 06       		.uleb128 0x6
 1065 0130 00       		.byte	0x0
 1066 0131 04       		.uleb128 0x4
 1067 0132 71010000 		.4byte	.LASF21
 1068 0136 04       		.byte	0x4
 1069 0137 23       		.byte	0x23
 1070 0138 C6000000 		.4byte	0xc6
 1071 013c 0A       		.uleb128 0xa
 1072 013d 0C       		.byte	0xc
 1073 013e 05       		.byte	0x5
ARM GAS  C:\Users\karunmj\AppData\Local\Temp\ccqLZZEj.s 			page 27


 1074 013f 15       		.byte	0x15
 1075 0140 6F010000 		.4byte	0x16f
 1076 0144 0B       		.uleb128 0xb
 1077 0145 0E000000 		.4byte	.LASF22
 1078 0149 05       		.byte	0x5
 1079 014a 16       		.byte	0x16
 1080 014b 85000000 		.4byte	0x85
 1081 014f 02       		.byte	0x2
 1082 0150 23       		.byte	0x23
 1083 0151 00       		.uleb128 0x0
 1084 0152 0B       		.uleb128 0xb
 1085 0153 E5010000 		.4byte	.LASF23
 1086 0157 05       		.byte	0x5
 1087 0158 17       		.byte	0x17
 1088 0159 85000000 		.4byte	0x85
 1089 015d 02       		.byte	0x2
 1090 015e 23       		.byte	0x23
 1091 015f 04       		.uleb128 0x4
 1092 0160 0B       		.uleb128 0xb
 1093 0161 F0010000 		.4byte	.LASF24
 1094 0165 05       		.byte	0x5
 1095 0166 18       		.byte	0x18
 1096 0167 6F000000 		.4byte	0x6f
 1097 016b 02       		.byte	0x2
 1098 016c 23       		.byte	0x23
 1099 016d 08       		.uleb128 0x8
 1100 016e 00       		.byte	0x0
 1101 016f 04       		.uleb128 0x4
 1102 0170 5E020000 		.4byte	.LASF25
 1103 0174 05       		.byte	0x5
 1104 0175 19       		.byte	0x19
 1105 0176 3C010000 		.4byte	0x13c
 1106 017a 0A       		.uleb128 0xa
 1107 017b 0C       		.byte	0xc
 1108 017c 06       		.byte	0x6
 1109 017d 17       		.byte	0x17
 1110 017e AD010000 		.4byte	0x1ad
 1111 0182 0B       		.uleb128 0xb
 1112 0183 0E000000 		.4byte	.LASF22
 1113 0187 06       		.byte	0x6
 1114 0188 18       		.byte	0x18
 1115 0189 85000000 		.4byte	0x85
 1116 018d 02       		.byte	0x2
 1117 018e 23       		.byte	0x23
 1118 018f 00       		.uleb128 0x0
 1119 0190 0B       		.uleb128 0xb
 1120 0191 E5010000 		.4byte	.LASF23
 1121 0195 06       		.byte	0x6
 1122 0196 19       		.byte	0x19
 1123 0197 85000000 		.4byte	0x85
 1124 019b 02       		.byte	0x2
 1125 019c 23       		.byte	0x23
 1126 019d 04       		.uleb128 0x4
 1127 019e 0B       		.uleb128 0xb
 1128 019f F0010000 		.4byte	.LASF24
 1129 01a3 06       		.byte	0x6
 1130 01a4 1A       		.byte	0x1a
ARM GAS  C:\Users\karunmj\AppData\Local\Temp\ccqLZZEj.s 			page 28


 1131 01a5 6F000000 		.4byte	0x6f
 1132 01a9 02       		.byte	0x2
 1133 01aa 23       		.byte	0x23
 1134 01ab 08       		.uleb128 0x8
 1135 01ac 00       		.byte	0x0
 1136 01ad 04       		.uleb128 0x4
 1137 01ae 87010000 		.4byte	.LASF26
 1138 01b2 06       		.byte	0x6
 1139 01b3 1B       		.byte	0x1b
 1140 01b4 7A010000 		.4byte	0x17a
 1141 01b8 0D       		.uleb128 0xd
 1142 01b9 01       		.byte	0x1
 1143 01ba 82010000 		.4byte	.LASF53
 1144 01be 01       		.byte	0x1
 1145 01bf 2E       		.byte	0x2e
 1146 01c0 00000000 		.4byte	.LFB29
 1147 01c4 8A040000 		.4byte	.LFE29
 1148 01c8 00000000 		.4byte	.LLST0
 1149 01cc E5010000 		.4byte	0x1e5
 1150 01d0 0E       		.uleb128 0xe
 1151 01d1 00000000 		.4byte	.Ldebug_ranges0+0x0
 1152 01d5 0F       		.uleb128 0xf
 1153 01d6 FF010000 		.4byte	.LASF34
 1154 01da 01       		.byte	0x1
 1155 01db DD       		.byte	0xdd
 1156 01dc 31010000 		.4byte	0x131
 1157 01e0 02       		.byte	0x2
 1158 01e1 91       		.byte	0x91
 1159 01e2 50       		.sleb128 -48
 1160 01e3 00       		.byte	0x0
 1161 01e4 00       		.byte	0x0
 1162 01e5 10       		.uleb128 0x10
 1163 01e6 01       		.byte	0x1
 1164 01e7 50020000 		.4byte	.LASF54
 1165 01eb 01       		.byte	0x1
 1166 01ec 1E01     		.2byte	0x11e
 1167 01ee 00000000 		.4byte	.LFB30
 1168 01f2 3E000000 		.4byte	.LFE30
 1169 01f6 39000000 		.4byte	.LLST1
 1170 01fa 11       		.uleb128 0x11
 1171 01fb 01       		.byte	0x1
 1172 01fc 05010000 		.4byte	.LASF55
 1173 0200 01       		.byte	0x1
 1174 0201 2A01     		.2byte	0x12a
 1175 0203 01       		.byte	0x1
 1176 0204 00000000 		.4byte	.LFB31
 1177 0208 0A000000 		.4byte	.LFE31
 1178 020c 64000000 		.4byte	.LLST2
 1179 0210 12       		.uleb128 0x12
 1180 0211 01       		.byte	0x1
 1181 0212 20020000 		.4byte	.LASF27
 1182 0216 01       		.byte	0x1
 1183 0217 3E01     		.2byte	0x13e
 1184 0219 01       		.byte	0x1
 1185 021a 00000000 		.4byte	.LFB32
 1186 021e 28000000 		.4byte	.LFE32
 1187 0222 8F000000 		.4byte	.LLST3
ARM GAS  C:\Users\karunmj\AppData\Local\Temp\ccqLZZEj.s 			page 29


 1188 0226 3A020000 		.4byte	0x23a
 1189 022a 13       		.uleb128 0x13
 1190 022b 06020000 		.4byte	.LASF29
 1191 022f 01       		.byte	0x1
 1192 0230 3E01     		.2byte	0x13e
 1193 0232 6F000000 		.4byte	0x6f
 1194 0236 02       		.byte	0x2
 1195 0237 91       		.byte	0x91
 1196 0238 77       		.sleb128 -9
 1197 0239 00       		.byte	0x0
 1198 023a 12       		.uleb128 0x12
 1199 023b 01       		.byte	0x1
 1200 023c 7D020000 		.4byte	.LASF28
 1201 0240 01       		.byte	0x1
 1202 0241 4801     		.2byte	0x148
 1203 0243 01       		.byte	0x1
 1204 0244 00000000 		.4byte	.LFB33
 1205 0248 74000000 		.4byte	.LFE33
 1206 024c C6000000 		.4byte	.LLST4
 1207 0250 AF020000 		.4byte	0x2af
 1208 0254 13       		.uleb128 0x13
 1209 0255 6A000000 		.4byte	.LASF30
 1210 0259 01       		.byte	0x1
 1211 025a 4801     		.2byte	0x148
 1212 025c 9D000000 		.4byte	0x9d
 1213 0260 02       		.byte	0x2
 1214 0261 91       		.byte	0x91
 1215 0262 64       		.sleb128 -28
 1216 0263 13       		.uleb128 0x13
 1217 0264 A3010000 		.4byte	.LASF31
 1218 0268 01       		.byte	0x1
 1219 0269 4801     		.2byte	0x148
 1220 026b 9D000000 		.4byte	0x9d
 1221 026f 02       		.byte	0x2
 1222 0270 91       		.byte	0x91
 1223 0271 60       		.sleb128 -32
 1224 0272 13       		.uleb128 0x13
 1225 0273 79000000 		.4byte	.LASF32
 1226 0277 01       		.byte	0x1
 1227 0278 4801     		.2byte	0x148
 1228 027a BF000000 		.4byte	0xbf
 1229 027e 02       		.byte	0x2
 1230 027f 91       		.byte	0x91
 1231 0280 5C       		.sleb128 -36
 1232 0281 13       		.uleb128 0x13
 1233 0282 47020000 		.4byte	.LASF33
 1234 0286 01       		.byte	0x1
 1235 0287 4801     		.2byte	0x148
 1236 0289 4C000000 		.4byte	0x4c
 1237 028d 02       		.byte	0x2
 1238 028e 91       		.byte	0x91
 1239 028f 58       		.sleb128 -40
 1240 0290 14       		.uleb128 0x14
 1241 0291 7F000000 		.4byte	.LASF35
 1242 0295 01       		.byte	0x1
 1243 0296 4E01     		.2byte	0x14e
 1244 0298 B9000000 		.4byte	0xb9
ARM GAS  C:\Users\karunmj\AppData\Local\Temp\ccqLZZEj.s 			page 30


 1245 029c 02       		.byte	0x2
 1246 029d 91       		.byte	0x91
 1247 029e 74       		.sleb128 -12
 1248 029f 14       		.uleb128 0x14
 1249 02a0 34020000 		.4byte	.LASF36
 1250 02a4 01       		.byte	0x1
 1251 02a5 4F01     		.2byte	0x14f
 1252 02a7 AF020000 		.4byte	0x2af
 1253 02ab 02       		.byte	0x2
 1254 02ac 91       		.byte	0x91
 1255 02ad 68       		.sleb128 -24
 1256 02ae 00       		.byte	0x0
 1257 02af 15       		.uleb128 0x15
 1258 02b0 93000000 		.4byte	0x93
 1259 02b4 BF020000 		.4byte	0x2bf
 1260 02b8 16       		.uleb128 0x16
 1261 02b9 9A000000 		.4byte	0x9a
 1262 02bd 09       		.byte	0x9
 1263 02be 00       		.byte	0x0
 1264 02bf 17       		.uleb128 0x17
 1265 02c0 34010000 		.4byte	.LASF37
 1266 02c4 07       		.byte	0x7
 1267 02c5 CE06     		.2byte	0x6ce
 1268 02c7 CD020000 		.4byte	0x2cd
 1269 02cb 01       		.byte	0x1
 1270 02cc 01       		.byte	0x1
 1271 02cd 18       		.uleb128 0x18
 1272 02ce 61000000 		.4byte	0x61
 1273 02d2 19       		.uleb128 0x19
 1274 02d3 E3000000 		.4byte	.LASF38
 1275 02d7 01       		.byte	0x1
 1276 02d8 1B       		.byte	0x1b
 1277 02d9 6F000000 		.4byte	0x6f
 1278 02dd 01       		.byte	0x1
 1279 02de 05       		.byte	0x5
 1280 02df 03       		.byte	0x3
 1281 02e0 00000000 		.4byte	moteID
 1282 02e4 19       		.uleb128 0x19
 1283 02e5 1C010000 		.4byte	.LASF39
 1284 02e9 01       		.byte	0x1
 1285 02ea 15       		.byte	0x15
 1286 02eb 9D000000 		.4byte	0x9d
 1287 02ef 01       		.byte	0x1
 1288 02f0 05       		.byte	0x5
 1289 02f1 03       		.byte	0x3
 1290 02f2 00000000 		.4byte	API_KEY
 1291 02f6 15       		.uleb128 0x15
 1292 02f7 93000000 		.4byte	0x93
 1293 02fb 07030000 		.4byte	0x307
 1294 02ff 1A       		.uleb128 0x1a
 1295 0300 9A000000 		.4byte	0x9a
 1296 0304 E703     		.2byte	0x3e7
 1297 0306 00       		.byte	0x0
 1298 0307 19       		.uleb128 0x19
 1299 0308 8E020000 		.4byte	.LASF40
 1300 030c 01       		.byte	0x1
 1301 030d 16       		.byte	0x16
ARM GAS  C:\Users\karunmj\AppData\Local\Temp\ccqLZZEj.s 			page 31


 1302 030e F6020000 		.4byte	0x2f6
 1303 0312 01       		.byte	0x1
 1304 0313 05       		.byte	0x5
 1305 0314 03       		.byte	0x3
 1306 0315 00000000 		.4byte	data_packet
 1307 0319 19       		.uleb128 0x19
 1308 031a 41010000 		.4byte	.LASF41
 1309 031e 01       		.byte	0x1
 1310 031f 16       		.byte	0x16
 1311 0320 F6020000 		.4byte	0x2f6
 1312 0324 01       		.byte	0x1
 1313 0325 05       		.byte	0x5
 1314 0326 03       		.byte	0x3
 1315 0327 00000000 		.4byte	debug_packet
 1316 032b 19       		.uleb128 0x19
 1317 032c 0F010000 		.4byte	.LASF42
 1318 0330 01       		.byte	0x1
 1319 0331 17       		.byte	0x17
 1320 0332 6F000000 		.4byte	0x6f
 1321 0336 01       		.byte	0x1
 1322 0337 05       		.byte	0x5
 1323 0338 03       		.byte	0x3
 1324 0339 00000000 		.4byte	packet_ready
 1325 033d 19       		.uleb128 0x19
 1326 033e 13000000 		.4byte	.LASF43
 1327 0342 01       		.byte	0x1
 1328 0343 17       		.byte	0x17
 1329 0344 6F000000 		.4byte	0x6f
 1330 0348 01       		.byte	0x1
 1331 0349 05       		.byte	0x5
 1332 034a 03       		.byte	0x3
 1333 034b 00000000 		.4byte	take_reading
 1334 034f 19       		.uleb128 0x19
 1335 0350 85000000 		.4byte	.LASF44
 1336 0354 01       		.byte	0x1
 1337 0355 18       		.byte	0x18
 1338 0356 85000000 		.4byte	0x85
 1339 035a 01       		.byte	0x1
 1340 035b 05       		.byte	0x5
 1341 035c 03       		.byte	0x3
 1342 035d 00000000 		.4byte	vBattery
 1343 0361 19       		.uleb128 0x19
 1344 0362 F6010000 		.4byte	.LASF45
 1345 0366 01       		.byte	0x1
 1346 0367 1D       		.byte	0x1d
 1347 0368 6F000000 		.4byte	0x6f
 1348 036c 01       		.byte	0x1
 1349 036d 05       		.byte	0x5
 1350 036e 03       		.byte	0x3
 1351 036f 00000000 		.4byte	t_sample
 1352 0373 19       		.uleb128 0x19
 1353 0374 3B000000 		.4byte	.LASF46
 1354 0378 01       		.byte	0x1
 1355 0379 1D       		.byte	0x1d
 1356 037a 6F000000 		.4byte	0x6f
 1357 037e 01       		.byte	0x1
 1358 037f 05       		.byte	0x5
ARM GAS  C:\Users\karunmj\AppData\Local\Temp\ccqLZZEj.s 			page 32


 1359 0380 03       		.byte	0x3
 1360 0381 00000000 		.4byte	trigger_sampler
 1361 0385 19       		.uleb128 0x19
 1362 0386 70020000 		.4byte	.LASF47
 1363 038a 01       		.byte	0x1
 1364 038b 1D       		.byte	0x1d
 1365 038c 6F000000 		.4byte	0x6f
 1366 0390 01       		.byte	0x1
 1367 0391 05       		.byte	0x5
 1368 0392 03       		.byte	0x3
 1369 0393 00000000 		.4byte	bottle_count
 1370 0397 1B       		.uleb128 0x1b
 1371 0398 746D7000 		.ascii	"tmp\000"
 1372 039c 01       		.byte	0x1
 1373 039d 1D       		.byte	0x1d
 1374 039e 6F000000 		.4byte	0x6f
 1375 03a2 01       		.byte	0x1
 1376 03a3 05       		.byte	0x5
 1377 03a4 03       		.byte	0x3
 1378 03a5 00000000 		.4byte	tmp
 1379 03a9 19       		.uleb128 0x19
 1380 03aa 20000000 		.4byte	.LASF48
 1381 03ae 01       		.byte	0x1
 1382 03af 1E       		.byte	0x1e
 1383 03b0 6F010000 		.4byte	0x16f
 1384 03b4 01       		.byte	0x1
 1385 03b5 05       		.byte	0x5
 1386 03b6 03       		.byte	0x3
 1387 03b7 00000000 		.4byte	ultrasonic_reading
 1388 03bb 19       		.uleb128 0x19
 1389 03bc 24010000 		.4byte	.LASF49
 1390 03c0 01       		.byte	0x1
 1391 03c1 1F       		.byte	0x1f
 1392 03c2 AD010000 		.4byte	0x1ad
 1393 03c6 01       		.byte	0x1
 1394 03c7 05       		.byte	0x5
 1395 03c8 03       		.byte	0x3
 1396 03c9 00000000 		.4byte	solinst_reading
 1397 03cd 00       		.byte	0x0
 1398              		.section	.debug_abbrev
 1399 0000 01       		.uleb128 0x1
 1400 0001 11       		.uleb128 0x11
 1401 0002 01       		.byte	0x1
 1402 0003 25       		.uleb128 0x25
 1403 0004 0E       		.uleb128 0xe
 1404 0005 13       		.uleb128 0x13
 1405 0006 0B       		.uleb128 0xb
 1406 0007 03       		.uleb128 0x3
 1407 0008 0E       		.uleb128 0xe
 1408 0009 1B       		.uleb128 0x1b
 1409 000a 0E       		.uleb128 0xe
 1410 000b 11       		.uleb128 0x11
 1411 000c 01       		.uleb128 0x1
 1412 000d 52       		.uleb128 0x52
 1413 000e 01       		.uleb128 0x1
 1414 000f 55       		.uleb128 0x55
 1415 0010 06       		.uleb128 0x6
ARM GAS  C:\Users\karunmj\AppData\Local\Temp\ccqLZZEj.s 			page 33


 1416 0011 10       		.uleb128 0x10
 1417 0012 06       		.uleb128 0x6
 1418 0013 00       		.byte	0x0
 1419 0014 00       		.byte	0x0
 1420 0015 02       		.uleb128 0x2
 1421 0016 24       		.uleb128 0x24
 1422 0017 00       		.byte	0x0
 1423 0018 0B       		.uleb128 0xb
 1424 0019 0B       		.uleb128 0xb
 1425 001a 3E       		.uleb128 0x3e
 1426 001b 0B       		.uleb128 0xb
 1427 001c 03       		.uleb128 0x3
 1428 001d 0E       		.uleb128 0xe
 1429 001e 00       		.byte	0x0
 1430 001f 00       		.byte	0x0
 1431 0020 03       		.uleb128 0x3
 1432 0021 24       		.uleb128 0x24
 1433 0022 00       		.byte	0x0
 1434 0023 0B       		.uleb128 0xb
 1435 0024 0B       		.uleb128 0xb
 1436 0025 3E       		.uleb128 0x3e
 1437 0026 0B       		.uleb128 0xb
 1438 0027 03       		.uleb128 0x3
 1439 0028 08       		.uleb128 0x8
 1440 0029 00       		.byte	0x0
 1441 002a 00       		.byte	0x0
 1442 002b 04       		.uleb128 0x4
 1443 002c 16       		.uleb128 0x16
 1444 002d 00       		.byte	0x0
 1445 002e 03       		.uleb128 0x3
 1446 002f 0E       		.uleb128 0xe
 1447 0030 3A       		.uleb128 0x3a
 1448 0031 0B       		.uleb128 0xb
 1449 0032 3B       		.uleb128 0x3b
 1450 0033 0B       		.uleb128 0xb
 1451 0034 49       		.uleb128 0x49
 1452 0035 13       		.uleb128 0x13
 1453 0036 00       		.byte	0x0
 1454 0037 00       		.byte	0x0
 1455 0038 05       		.uleb128 0x5
 1456 0039 24       		.uleb128 0x24
 1457 003a 00       		.byte	0x0
 1458 003b 0B       		.uleb128 0xb
 1459 003c 0B       		.uleb128 0xb
 1460 003d 3E       		.uleb128 0x3e
 1461 003e 0B       		.uleb128 0xb
 1462 003f 00       		.byte	0x0
 1463 0040 00       		.byte	0x0
 1464 0041 06       		.uleb128 0x6
 1465 0042 0F       		.uleb128 0xf
 1466 0043 00       		.byte	0x0
 1467 0044 0B       		.uleb128 0xb
 1468 0045 0B       		.uleb128 0xb
 1469 0046 49       		.uleb128 0x49
 1470 0047 13       		.uleb128 0x13
 1471 0048 00       		.byte	0x0
 1472 0049 00       		.byte	0x0
ARM GAS  C:\Users\karunmj\AppData\Local\Temp\ccqLZZEj.s 			page 34


 1473 004a 07       		.uleb128 0x7
 1474 004b 26       		.uleb128 0x26
 1475 004c 00       		.byte	0x0
 1476 004d 49       		.uleb128 0x49
 1477 004e 13       		.uleb128 0x13
 1478 004f 00       		.byte	0x0
 1479 0050 00       		.byte	0x0
 1480 0051 08       		.uleb128 0x8
 1481 0052 13       		.uleb128 0x13
 1482 0053 00       		.byte	0x0
 1483 0054 03       		.uleb128 0x3
 1484 0055 0E       		.uleb128 0xe
 1485 0056 3C       		.uleb128 0x3c
 1486 0057 0C       		.uleb128 0xc
 1487 0058 00       		.byte	0x0
 1488 0059 00       		.byte	0x0
 1489 005a 09       		.uleb128 0x9
 1490 005b 26       		.uleb128 0x26
 1491 005c 00       		.byte	0x0
 1492 005d 00       		.byte	0x0
 1493 005e 00       		.byte	0x0
 1494 005f 0A       		.uleb128 0xa
 1495 0060 13       		.uleb128 0x13
 1496 0061 01       		.byte	0x1
 1497 0062 0B       		.uleb128 0xb
 1498 0063 0B       		.uleb128 0xb
 1499 0064 3A       		.uleb128 0x3a
 1500 0065 0B       		.uleb128 0xb
 1501 0066 3B       		.uleb128 0x3b
 1502 0067 0B       		.uleb128 0xb
 1503 0068 01       		.uleb128 0x1
 1504 0069 13       		.uleb128 0x13
 1505 006a 00       		.byte	0x0
 1506 006b 00       		.byte	0x0
 1507 006c 0B       		.uleb128 0xb
 1508 006d 0D       		.uleb128 0xd
 1509 006e 00       		.byte	0x0
 1510 006f 03       		.uleb128 0x3
 1511 0070 0E       		.uleb128 0xe
 1512 0071 3A       		.uleb128 0x3a
 1513 0072 0B       		.uleb128 0xb
 1514 0073 3B       		.uleb128 0x3b
 1515 0074 0B       		.uleb128 0xb
 1516 0075 49       		.uleb128 0x49
 1517 0076 13       		.uleb128 0x13
 1518 0077 38       		.uleb128 0x38
 1519 0078 0A       		.uleb128 0xa
 1520 0079 00       		.byte	0x0
 1521 007a 00       		.byte	0x0
 1522 007b 0C       		.uleb128 0xc
 1523 007c 0D       		.uleb128 0xd
 1524 007d 00       		.byte	0x0
 1525 007e 03       		.uleb128 0x3
 1526 007f 08       		.uleb128 0x8
 1527 0080 3A       		.uleb128 0x3a
 1528 0081 0B       		.uleb128 0xb
 1529 0082 3B       		.uleb128 0x3b
ARM GAS  C:\Users\karunmj\AppData\Local\Temp\ccqLZZEj.s 			page 35


 1530 0083 0B       		.uleb128 0xb
 1531 0084 49       		.uleb128 0x49
 1532 0085 13       		.uleb128 0x13
 1533 0086 38       		.uleb128 0x38
 1534 0087 0A       		.uleb128 0xa
 1535 0088 00       		.byte	0x0
 1536 0089 00       		.byte	0x0
 1537 008a 0D       		.uleb128 0xd
 1538 008b 2E       		.uleb128 0x2e
 1539 008c 01       		.byte	0x1
 1540 008d 3F       		.uleb128 0x3f
 1541 008e 0C       		.uleb128 0xc
 1542 008f 03       		.uleb128 0x3
 1543 0090 0E       		.uleb128 0xe
 1544 0091 3A       		.uleb128 0x3a
 1545 0092 0B       		.uleb128 0xb
 1546 0093 3B       		.uleb128 0x3b
 1547 0094 0B       		.uleb128 0xb
 1548 0095 11       		.uleb128 0x11
 1549 0096 01       		.uleb128 0x1
 1550 0097 12       		.uleb128 0x12
 1551 0098 01       		.uleb128 0x1
 1552 0099 40       		.uleb128 0x40
 1553 009a 06       		.uleb128 0x6
 1554 009b 01       		.uleb128 0x1
 1555 009c 13       		.uleb128 0x13
 1556 009d 00       		.byte	0x0
 1557 009e 00       		.byte	0x0
 1558 009f 0E       		.uleb128 0xe
 1559 00a0 0B       		.uleb128 0xb
 1560 00a1 01       		.byte	0x1
 1561 00a2 55       		.uleb128 0x55
 1562 00a3 06       		.uleb128 0x6
 1563 00a4 00       		.byte	0x0
 1564 00a5 00       		.byte	0x0
 1565 00a6 0F       		.uleb128 0xf
 1566 00a7 34       		.uleb128 0x34
 1567 00a8 00       		.byte	0x0
 1568 00a9 03       		.uleb128 0x3
 1569 00aa 0E       		.uleb128 0xe
 1570 00ab 3A       		.uleb128 0x3a
 1571 00ac 0B       		.uleb128 0xb
 1572 00ad 3B       		.uleb128 0x3b
 1573 00ae 0B       		.uleb128 0xb
 1574 00af 49       		.uleb128 0x49
 1575 00b0 13       		.uleb128 0x13
 1576 00b1 02       		.uleb128 0x2
 1577 00b2 0A       		.uleb128 0xa
 1578 00b3 00       		.byte	0x0
 1579 00b4 00       		.byte	0x0
 1580 00b5 10       		.uleb128 0x10
 1581 00b6 2E       		.uleb128 0x2e
 1582 00b7 00       		.byte	0x0
 1583 00b8 3F       		.uleb128 0x3f
 1584 00b9 0C       		.uleb128 0xc
 1585 00ba 03       		.uleb128 0x3
 1586 00bb 0E       		.uleb128 0xe
ARM GAS  C:\Users\karunmj\AppData\Local\Temp\ccqLZZEj.s 			page 36


 1587 00bc 3A       		.uleb128 0x3a
 1588 00bd 0B       		.uleb128 0xb
 1589 00be 3B       		.uleb128 0x3b
 1590 00bf 05       		.uleb128 0x5
 1591 00c0 11       		.uleb128 0x11
 1592 00c1 01       		.uleb128 0x1
 1593 00c2 12       		.uleb128 0x12
 1594 00c3 01       		.uleb128 0x1
 1595 00c4 40       		.uleb128 0x40
 1596 00c5 06       		.uleb128 0x6
 1597 00c6 00       		.byte	0x0
 1598 00c7 00       		.byte	0x0
 1599 00c8 11       		.uleb128 0x11
 1600 00c9 2E       		.uleb128 0x2e
 1601 00ca 00       		.byte	0x0
 1602 00cb 3F       		.uleb128 0x3f
 1603 00cc 0C       		.uleb128 0xc
 1604 00cd 03       		.uleb128 0x3
 1605 00ce 0E       		.uleb128 0xe
 1606 00cf 3A       		.uleb128 0x3a
 1607 00d0 0B       		.uleb128 0xb
 1608 00d1 3B       		.uleb128 0x3b
 1609 00d2 05       		.uleb128 0x5
 1610 00d3 27       		.uleb128 0x27
 1611 00d4 0C       		.uleb128 0xc
 1612 00d5 11       		.uleb128 0x11
 1613 00d6 01       		.uleb128 0x1
 1614 00d7 12       		.uleb128 0x12
 1615 00d8 01       		.uleb128 0x1
 1616 00d9 40       		.uleb128 0x40
 1617 00da 06       		.uleb128 0x6
 1618 00db 00       		.byte	0x0
 1619 00dc 00       		.byte	0x0
 1620 00dd 12       		.uleb128 0x12
 1621 00de 2E       		.uleb128 0x2e
 1622 00df 01       		.byte	0x1
 1623 00e0 3F       		.uleb128 0x3f
 1624 00e1 0C       		.uleb128 0xc
 1625 00e2 03       		.uleb128 0x3
 1626 00e3 0E       		.uleb128 0xe
 1627 00e4 3A       		.uleb128 0x3a
 1628 00e5 0B       		.uleb128 0xb
 1629 00e6 3B       		.uleb128 0x3b
 1630 00e7 05       		.uleb128 0x5
 1631 00e8 27       		.uleb128 0x27
 1632 00e9 0C       		.uleb128 0xc
 1633 00ea 11       		.uleb128 0x11
 1634 00eb 01       		.uleb128 0x1
 1635 00ec 12       		.uleb128 0x12
 1636 00ed 01       		.uleb128 0x1
 1637 00ee 40       		.uleb128 0x40
 1638 00ef 06       		.uleb128 0x6
 1639 00f0 01       		.uleb128 0x1
 1640 00f1 13       		.uleb128 0x13
 1641 00f2 00       		.byte	0x0
 1642 00f3 00       		.byte	0x0
 1643 00f4 13       		.uleb128 0x13
ARM GAS  C:\Users\karunmj\AppData\Local\Temp\ccqLZZEj.s 			page 37


 1644 00f5 05       		.uleb128 0x5
 1645 00f6 00       		.byte	0x0
 1646 00f7 03       		.uleb128 0x3
 1647 00f8 0E       		.uleb128 0xe
 1648 00f9 3A       		.uleb128 0x3a
 1649 00fa 0B       		.uleb128 0xb
 1650 00fb 3B       		.uleb128 0x3b
 1651 00fc 05       		.uleb128 0x5
 1652 00fd 49       		.uleb128 0x49
 1653 00fe 13       		.uleb128 0x13
 1654 00ff 02       		.uleb128 0x2
 1655 0100 0A       		.uleb128 0xa
 1656 0101 00       		.byte	0x0
 1657 0102 00       		.byte	0x0
 1658 0103 14       		.uleb128 0x14
 1659 0104 34       		.uleb128 0x34
 1660 0105 00       		.byte	0x0
 1661 0106 03       		.uleb128 0x3
 1662 0107 0E       		.uleb128 0xe
 1663 0108 3A       		.uleb128 0x3a
 1664 0109 0B       		.uleb128 0xb
 1665 010a 3B       		.uleb128 0x3b
 1666 010b 05       		.uleb128 0x5
 1667 010c 49       		.uleb128 0x49
 1668 010d 13       		.uleb128 0x13
 1669 010e 02       		.uleb128 0x2
 1670 010f 0A       		.uleb128 0xa
 1671 0110 00       		.byte	0x0
 1672 0111 00       		.byte	0x0
 1673 0112 15       		.uleb128 0x15
 1674 0113 01       		.uleb128 0x1
 1675 0114 01       		.byte	0x1
 1676 0115 49       		.uleb128 0x49
 1677 0116 13       		.uleb128 0x13
 1678 0117 01       		.uleb128 0x1
 1679 0118 13       		.uleb128 0x13
 1680 0119 00       		.byte	0x0
 1681 011a 00       		.byte	0x0
 1682 011b 16       		.uleb128 0x16
 1683 011c 21       		.uleb128 0x21
 1684 011d 00       		.byte	0x0
 1685 011e 49       		.uleb128 0x49
 1686 011f 13       		.uleb128 0x13
 1687 0120 2F       		.uleb128 0x2f
 1688 0121 0B       		.uleb128 0xb
 1689 0122 00       		.byte	0x0
 1690 0123 00       		.byte	0x0
 1691 0124 17       		.uleb128 0x17
 1692 0125 34       		.uleb128 0x34
 1693 0126 00       		.byte	0x0
 1694 0127 03       		.uleb128 0x3
 1695 0128 0E       		.uleb128 0xe
 1696 0129 3A       		.uleb128 0x3a
 1697 012a 0B       		.uleb128 0xb
 1698 012b 3B       		.uleb128 0x3b
 1699 012c 05       		.uleb128 0x5
 1700 012d 49       		.uleb128 0x49
ARM GAS  C:\Users\karunmj\AppData\Local\Temp\ccqLZZEj.s 			page 38


 1701 012e 13       		.uleb128 0x13
 1702 012f 3F       		.uleb128 0x3f
 1703 0130 0C       		.uleb128 0xc
 1704 0131 3C       		.uleb128 0x3c
 1705 0132 0C       		.uleb128 0xc
 1706 0133 00       		.byte	0x0
 1707 0134 00       		.byte	0x0
 1708 0135 18       		.uleb128 0x18
 1709 0136 35       		.uleb128 0x35
 1710 0137 00       		.byte	0x0
 1711 0138 49       		.uleb128 0x49
 1712 0139 13       		.uleb128 0x13
 1713 013a 00       		.byte	0x0
 1714 013b 00       		.byte	0x0
 1715 013c 19       		.uleb128 0x19
 1716 013d 34       		.uleb128 0x34
 1717 013e 00       		.byte	0x0
 1718 013f 03       		.uleb128 0x3
 1719 0140 0E       		.uleb128 0xe
 1720 0141 3A       		.uleb128 0x3a
 1721 0142 0B       		.uleb128 0xb
 1722 0143 3B       		.uleb128 0x3b
 1723 0144 0B       		.uleb128 0xb
 1724 0145 49       		.uleb128 0x49
 1725 0146 13       		.uleb128 0x13
 1726 0147 3F       		.uleb128 0x3f
 1727 0148 0C       		.uleb128 0xc
 1728 0149 02       		.uleb128 0x2
 1729 014a 0A       		.uleb128 0xa
 1730 014b 00       		.byte	0x0
 1731 014c 00       		.byte	0x0
 1732 014d 1A       		.uleb128 0x1a
 1733 014e 21       		.uleb128 0x21
 1734 014f 00       		.byte	0x0
 1735 0150 49       		.uleb128 0x49
 1736 0151 13       		.uleb128 0x13
 1737 0152 2F       		.uleb128 0x2f
 1738 0153 05       		.uleb128 0x5
 1739 0154 00       		.byte	0x0
 1740 0155 00       		.byte	0x0
 1741 0156 1B       		.uleb128 0x1b
 1742 0157 34       		.uleb128 0x34
 1743 0158 00       		.byte	0x0
 1744 0159 03       		.uleb128 0x3
 1745 015a 08       		.uleb128 0x8
 1746 015b 3A       		.uleb128 0x3a
 1747 015c 0B       		.uleb128 0xb
 1748 015d 3B       		.uleb128 0x3b
 1749 015e 0B       		.uleb128 0xb
 1750 015f 49       		.uleb128 0x49
 1751 0160 13       		.uleb128 0x13
 1752 0161 3F       		.uleb128 0x3f
 1753 0162 0C       		.uleb128 0xc
 1754 0163 02       		.uleb128 0x2
 1755 0164 0A       		.uleb128 0xa
 1756 0165 00       		.byte	0x0
 1757 0166 00       		.byte	0x0
ARM GAS  C:\Users\karunmj\AppData\Local\Temp\ccqLZZEj.s 			page 39


 1758 0167 00       		.byte	0x0
 1759              		.section	.debug_pubnames,"",%progbits
 1760 0000 30010000 		.4byte	0x130
 1761 0004 0200     		.2byte	0x2
 1762 0006 00000000 		.4byte	.Ldebug_info0
 1763 000a CE030000 		.4byte	0x3ce
 1764 000e B8010000 		.4byte	0x1b8
 1765 0012 6D61696E 		.ascii	"main\000"
 1765      00
 1766 0017 E5010000 		.4byte	0x1e5
 1767 001b 6B696C6C 		.ascii	"killMotePower\000"
 1767      4D6F7465 
 1767      506F7765 
 1767      7200
 1768 0029 FA010000 		.4byte	0x1fa
 1769 002d 6973725F 		.ascii	"isr_timer\000"
 1769      74696D65 
 1769      7200
 1770 0037 10020000 		.4byte	0x210
 1771 003b 72746343 		.ascii	"rtcCallBackReceived\000"
 1771      616C6C42 
 1771      61636B52 
 1771      65636569 
 1771      76656400 
 1772 004f 3A020000 		.4byte	0x23a
 1773 0053 57726974 		.ascii	"Write_To_SD_Card\000"
 1773      655F546F 
 1773      5F53445F 
 1773      43617264 
 1773      00
 1774 0064 D2020000 		.4byte	0x2d2
 1775 0068 6D6F7465 		.ascii	"moteID\000"
 1775      494400
 1776 006f E4020000 		.4byte	0x2e4
 1777 0073 4150495F 		.ascii	"API_KEY\000"
 1777      4B455900 
 1778 007b 07030000 		.4byte	0x307
 1779 007f 64617461 		.ascii	"data_packet\000"
 1779      5F706163 
 1779      6B657400 
 1780 008b 19030000 		.4byte	0x319
 1781 008f 64656275 		.ascii	"debug_packet\000"
 1781      675F7061 
 1781      636B6574 
 1781      00
 1782 009c 2B030000 		.4byte	0x32b
 1783 00a0 7061636B 		.ascii	"packet_ready\000"
 1783      65745F72 
 1783      65616479 
 1783      00
 1784 00ad 3D030000 		.4byte	0x33d
 1785 00b1 74616B65 		.ascii	"take_reading\000"
 1785      5F726561 
 1785      64696E67 
 1785      00
 1786 00be 4F030000 		.4byte	0x34f
 1787 00c2 76426174 		.ascii	"vBattery\000"
ARM GAS  C:\Users\karunmj\AppData\Local\Temp\ccqLZZEj.s 			page 40


 1787      74657279 
 1787      00
 1788 00cb 61030000 		.4byte	0x361
 1789 00cf 745F7361 		.ascii	"t_sample\000"
 1789      6D706C65 
 1789      00
 1790 00d8 73030000 		.4byte	0x373
 1791 00dc 74726967 		.ascii	"trigger_sampler\000"
 1791      6765725F 
 1791      73616D70 
 1791      6C657200 
 1792 00ec 85030000 		.4byte	0x385
 1793 00f0 626F7474 		.ascii	"bottle_count\000"
 1793      6C655F63 
 1793      6F756E74 
 1793      00
 1794 00fd 97030000 		.4byte	0x397
 1795 0101 746D7000 		.ascii	"tmp\000"
 1796 0105 A9030000 		.4byte	0x3a9
 1797 0109 756C7472 		.ascii	"ultrasonic_reading\000"
 1797      61736F6E 
 1797      69635F72 
 1797      65616469 
 1797      6E6700
 1798 011c BB030000 		.4byte	0x3bb
 1799 0120 736F6C69 		.ascii	"solinst_reading\000"
 1799      6E73745F 
 1799      72656164 
 1799      696E6700 
 1800 0130 00000000 		.4byte	0x0
 1801              		.section	.debug_aranges,"",%progbits
 1802 0000 3C000000 		.4byte	0x3c
 1803 0004 0200     		.2byte	0x2
 1804 0006 00000000 		.4byte	.Ldebug_info0
 1805 000a 04       		.byte	0x4
 1806 000b 00       		.byte	0x0
 1807 000c 0000     		.2byte	0x0
 1808 000e 0000     		.2byte	0x0
 1809 0010 00000000 		.4byte	.LFB29
 1810 0014 8A040000 		.4byte	.LFE29-.LFB29
 1811 0018 00000000 		.4byte	.LFB30
 1812 001c 3E000000 		.4byte	.LFE30-.LFB30
 1813 0020 00000000 		.4byte	.LFB31
 1814 0024 0A000000 		.4byte	.LFE31-.LFB31
 1815 0028 00000000 		.4byte	.LFB32
 1816 002c 28000000 		.4byte	.LFE32-.LFB32
 1817 0030 00000000 		.4byte	.LFB33
 1818 0034 74000000 		.4byte	.LFE33-.LFB33
 1819 0038 00000000 		.4byte	0x0
 1820 003c 00000000 		.4byte	0x0
 1821              		.section	.debug_ranges,"",%progbits
 1822              	.Ldebug_ranges0:
 1823 0000 36030000 		.4byte	.LBB2
 1824 0004 68040000 		.4byte	.LBE2
 1825 0008 7E040000 		.4byte	.LBB3
 1826 000c 80040000 		.4byte	.LBE3
 1827 0010 00000000 		.4byte	0x0
ARM GAS  C:\Users\karunmj\AppData\Local\Temp\ccqLZZEj.s 			page 41


 1828 0014 00000000 		.4byte	0x0
 1829 0018 00000000 		.4byte	.Ltext0
 1830 001c 00000000 		.4byte	.Letext0
 1831 0020 00000000 		.4byte	.LFB29
 1832 0024 8A040000 		.4byte	.LFE29
 1833 0028 00000000 		.4byte	.LFB30
 1834 002c 3E000000 		.4byte	.LFE30
 1835 0030 00000000 		.4byte	.LFB31
 1836 0034 0A000000 		.4byte	.LFE31
 1837 0038 00000000 		.4byte	.LFB32
 1838 003c 28000000 		.4byte	.LFE32
 1839 0040 00000000 		.4byte	.LFB33
 1840 0044 74000000 		.4byte	.LFE33
 1841 0048 00000000 		.4byte	0x0
 1842 004c 00000000 		.4byte	0x0
 1843              		.section	.debug_str,"MS",%progbits,1
 1844              	.LASF6:
 1845 0000 6C6F6E67 		.ascii	"long long int\000"
 1845      206C6F6E 
 1845      6720696E 
 1845      7400
 1846              	.LASF22:
 1847 000e 74656D70 		.ascii	"temp\000"
 1847      00
 1848              	.LASF43:
 1849 0013 74616B65 		.ascii	"take_reading\000"
 1849      5F726561 
 1849      64696E67 
 1849      00
 1850              	.LASF48:
 1851 0020 756C7472 		.ascii	"ultrasonic_reading\000"
 1851      61736F6E 
 1851      69635F72 
 1851      65616469 
 1851      6E6700
 1852              	.LASF18:
 1853 0033 7765656B 		.ascii	"weekday\000"
 1853      64617900 
 1854              	.LASF46:
 1855 003b 74726967 		.ascii	"trigger_sampler\000"
 1855      6765725F 
 1855      73616D70 
 1855      6C657200 
 1856              	.LASF20:
 1857 004b 79656172 		.ascii	"year\000"
 1857      00
 1858              	.LASF16:
 1859 0050 6D696E75 		.ascii	"minute\000"
 1859      746500
 1860              	.LASF3:
 1861 0057 73686F72 		.ascii	"short unsigned int\000"
 1861      7420756E 
 1861      7369676E 
 1861      65642069 
 1861      6E7400
 1862              	.LASF30:
 1863 006a 66696C65 		.ascii	"fileName\000"
ARM GAS  C:\Users\karunmj\AppData\Local\Temp\ccqLZZEj.s 			page 42


 1863      4E616D65 
 1863      00
 1864              	.LASF19:
 1865 0073 6D6F6E74 		.ascii	"month\000"
 1865      6800
 1866              	.LASF32:
 1867 0079 70446174 		.ascii	"pData\000"
 1867      6100
 1868              	.LASF35:
 1869 007f 7046696C 		.ascii	"pFile\000"
 1869      6500
 1870              	.LASF44:
 1871 0085 76426174 		.ascii	"vBattery\000"
 1871      74657279 
 1871      00
 1872              	.LASF11:
 1873 008e 666C6F61 		.ascii	"float\000"
 1873      7400
 1874              	.LASF52:
 1875 0094 433A5C55 		.ascii	"C:\\Users\\karunmj\\Documents\\GitHub\\m2m\\hardwar"
 1875      73657273 
 1875      5C6B6172 
 1875      756E6D6A 
 1875      5C446F63 
 1876 00c1 655C7073 		.ascii	"e\\psoc5\\PSoC_Datalogger_SMS.cydsn\000"
 1876      6F63355C 
 1876      50536F43 
 1876      5F446174 
 1876      616C6F67 
 1877              	.LASF38:
 1878 00e3 6D6F7465 		.ascii	"moteID\000"
 1878      494400
 1879              	.LASF51:
 1880 00ea 2E5C6D61 		.ascii	".\\main.c\000"
 1880      696E2E63 
 1880      00
 1881              	.LASF5:
 1882 00f3 6C6F6E67 		.ascii	"long unsigned int\000"
 1882      20756E73 
 1882      69676E65 
 1882      6420696E 
 1882      7400
 1883              	.LASF55:
 1884 0105 6973725F 		.ascii	"isr_timer\000"
 1884      74696D65 
 1884      7200
 1885              	.LASF42:
 1886 010f 7061636B 		.ascii	"packet_ready\000"
 1886      65745F72 
 1886      65616479 
 1886      00
 1887              	.LASF39:
 1888 011c 4150495F 		.ascii	"API_KEY\000"
 1888      4B455900 
 1889              	.LASF49:
 1890 0124 736F6C69 		.ascii	"solinst_reading\000"
 1890      6E73745F 
ARM GAS  C:\Users\karunmj\AppData\Local\Temp\ccqLZZEj.s 			page 43


 1890      72656164 
 1890      696E6700 
 1891              	.LASF37:
 1892 0134 49544D5F 		.ascii	"ITM_RxBuffer\000"
 1892      52784275 
 1892      66666572 
 1892      00
 1893              	.LASF41:
 1894 0141 64656275 		.ascii	"debug_packet\000"
 1894      675F7061 
 1894      636B6574 
 1894      00
 1895              	.LASF15:
 1896 014e 7365636F 		.ascii	"second\000"
 1896      6E6400
 1897              	.LASF1:
 1898 0155 756E7369 		.ascii	"unsigned char\000"
 1898      676E6564 
 1898      20636861 
 1898      7200
 1899              	.LASF12:
 1900 0163 646F7562 		.ascii	"double\000"
 1900      6C6500
 1901              	.LASF10:
 1902 016a 75696E74 		.ascii	"uint16\000"
 1902      313600
 1903              	.LASF21:
 1904 0171 4E656F52 		.ascii	"NeoRtcTimeStruct\000"
 1904      74635469 
 1904      6D655374 
 1904      72756374 
 1904      00
 1905              	.LASF53:
 1906 0182 6D61696E 		.ascii	"main\000"
 1906      00
 1907              	.LASF26:
 1908 0187 536F6C69 		.ascii	"SolinstReading\000"
 1908      6E737452 
 1908      65616469 
 1908      6E6700
 1909              	.LASF8:
 1910 0196 756E7369 		.ascii	"unsigned int\000"
 1910      676E6564 
 1910      20696E74 
 1910      00
 1911              	.LASF31:
 1912 01a3 704D6F64 		.ascii	"pMode\000"
 1912      6500
 1913              	.LASF7:
 1914 01a9 6C6F6E67 		.ascii	"long long unsigned int\000"
 1914      206C6F6E 
 1914      6720756E 
 1914      7369676E 
 1914      65642069 
 1915              	.LASF17:
 1916 01c0 686F7572 		.ascii	"hour\000"
 1916      00
ARM GAS  C:\Users\karunmj\AppData\Local\Temp\ccqLZZEj.s 			page 44


 1917              	.LASF0:
 1918 01c5 7369676E 		.ascii	"signed char\000"
 1918      65642063 
 1918      68617200 
 1919              	.LASF14:
 1920 01d1 46535F46 		.ascii	"FS_FILE\000"
 1920      494C4500 
 1921              	.LASF50:
 1922 01d9 474E5520 		.ascii	"GNU C 4.4.1\000"
 1922      4320342E 
 1922      342E3100 
 1923              	.LASF23:
 1924 01e5 64657074 		.ascii	"depth\000"
 1924      6800
 1925              	.LASF13:
 1926 01eb 63686172 		.ascii	"char\000"
 1926      00
 1927              	.LASF24:
 1928 01f0 76616C69 		.ascii	"valid\000"
 1928      6400
 1929              	.LASF45:
 1930 01f6 745F7361 		.ascii	"t_sample\000"
 1930      6D706C65 
 1930      00
 1931              	.LASF34:
 1932 01ff 746D5F6E 		.ascii	"tm_neo\000"
 1932      656F00
 1933              	.LASF29:
 1934 0206 616C6172 		.ascii	"alarmType\000"
 1934      6D547970 
 1934      6500
 1935              	.LASF2:
 1936 0210 73686F72 		.ascii	"short int\000"
 1936      7420696E 
 1936      7400
 1937              	.LASF9:
 1938 021a 75696E74 		.ascii	"uint8\000"
 1938      3800
 1939              	.LASF27:
 1940 0220 72746343 		.ascii	"rtcCallBackReceived\000"
 1940      616C6C42 
 1940      61636B52 
 1940      65636569 
 1940      76656400 
 1941              	.LASF36:
 1942 0234 7364566F 		.ascii	"sdVolName\000"
 1942      6C4E616D 
 1942      6500
 1943              	.LASF4:
 1944 023e 6C6F6E67 		.ascii	"long int\000"
 1944      20696E74 
 1944      00
 1945              	.LASF33:
 1946 0247 4E756D42 		.ascii	"NumBytes\000"
 1946      79746573 
 1946      00
 1947              	.LASF54:
ARM GAS  C:\Users\karunmj\AppData\Local\Temp\ccqLZZEj.s 			page 45


 1948 0250 6B696C6C 		.ascii	"killMotePower\000"
 1948      4D6F7465 
 1948      506F7765 
 1948      7200
 1949              	.LASF25:
 1950 025e 556C7472 		.ascii	"UltrasonicReading\000"
 1950      61736F6E 
 1950      69635265 
 1950      6164696E 
 1950      6700
 1951              	.LASF47:
 1952 0270 626F7474 		.ascii	"bottle_count\000"
 1952      6C655F63 
 1952      6F756E74 
 1952      00
 1953              	.LASF28:
 1954 027d 57726974 		.ascii	"Write_To_SD_Card\000"
 1954      655F546F 
 1954      5F53445F 
 1954      43617264 
 1954      00
 1955              	.LASF40:
 1956 028e 64617461 		.ascii	"data_packet\000"
 1956      5F706163 
 1956      6B657400 
 1957              		.ident	"GCC: (Sourcery G++ Lite 2010q1-188) 4.4.1"
