ARM GAS  C:\Users\karunmj\AppData\Local\Temp\cc2sOn97.s 			page 1


   1              		.syntax unified
   2              		.cpu cortex-m3
   3              		.fpu softvfp
   4              		.eabi_attribute 20, 1
   5              		.eabi_attribute 21, 1
   6              		.eabi_attribute 23, 3
   7              		.eabi_attribute 24, 1
   8              		.eabi_attribute 25, 1
   9              		.eabi_attribute 26, 1
  10              		.eabi_attribute 30, 6
  11              		.eabi_attribute 18, 4
  12              		.thumb
  13              		.file	"modem.c"
  20 0000 51010000 		.text
  20      02006200 
  20      00000201 
  20      FB0E0D00 
  20      01010101 
  21              	.Ltext0:
  22              		.cfi_sections	.debug_frame
  23              		.comm	modem_state,1,1
  24              		.comm	uart_received_string,256,4
  25              		.global	uart_string_index
  26              		.bss
  27              		.type	uart_string_index, %object
  28              		.size	uart_string_index, 1
  29              	uart_string_index:
  30 0000 00       		.space	1
  31              		.section	.text.modem_start,"ax",%progbits
  32              		.align	2
  33              		.global	modem_start
  34              		.thumb
  35              		.thumb_func
  36              		.type	modem_start, %function
  37              	modem_start:
  38              	.LFB29:
  39              		.file 1 ".\\modem.c"
   1:.\modem.c     **** ///* ========================================
   2:.\modem.c     **** // *
   3:.\modem.c     **** // * Copyright YOUR COMPANY, THE YEAR
   4:.\modem.c     **** // * All Rights Reserved
   5:.\modem.c     **** // * UNPUBLISHED, LICENSED SOFTWARE.
   6:.\modem.c     **** // *
   7:.\modem.c     **** // * CONFIDENTIAL AND PROPRIETARY INFORMATION
   8:.\modem.c     **** // * WHICH IS THE PROPERTY OF your company.
   9:.\modem.c     **** // *
  10:.\modem.c     **** // * ========================================
  11:.\modem.c     **** //*/
  12:.\modem.c     **** //
  13:.\modem.c     **** 
  14:.\modem.c     **** #include <device.h>
ARM GAS  C:\Users\karunmj\AppData\Local\Temp\cc2sOn97.s 			page 2


  15:.\modem.c     **** #include <string.h>
  16:.\modem.c     **** #include "modem.h"
  17:.\modem.c     **** 
  18:.\modem.c     **** // declare varaiables
  19:.\modem.c     **** uint8 uart_received_string[256];
  20:.\modem.c     **** uint8 uart_string_index = 0;
  21:.\modem.c     **** 
  22:.\modem.c     **** // prototype modem interrupt
  23:.\modem.c     **** CY_ISR_PROTO(isr_byte_rx);
  24:.\modem.c     **** 
  25:.\modem.c     **** // prototype functions
  26:.\modem.c     **** void uart_string_reset();
  27:.\modem.c     **** void at_command_write(uint8 uart_string, uint8 uart_timeout);
  28:.\modem.c     **** 
  29:.\modem.c     **** // initialize modem
  30:.\modem.c     **** void modem_start(){
  40              		.loc 1 30 0
  41              		.cfi_startproc
  42              		@ args = 0, pretend = 0, frame = 0
  43              		@ frame_needed = 1, uses_anonymous_args = 0
  44 0000 80B5     		push	{r7, lr}
  45              	.LCFI0:
  46              		.cfi_def_cfa_offset 8
  47 0002 00AF     		add	r7, sp, #0
  48              		.cfi_offset 14, -4
  49              		.cfi_offset 7, -8
  50              	.LCFI1:
  51              		.cfi_def_cfa_register 7
  31:.\modem.c     ****     uart_Start();
  52              		.loc 1 31 0
  53 0004 FFF7FEFF 		bl	uart_Start
  32:.\modem.c     ****     isr_byte_rx_StartEx(isr_byte_rx);
  54              		.loc 1 32 0
  55 0008 40F20000 		movw	r0, #:lower16:isr_byte_rx
  56 000c C0F20000 		movt	r0, #:upper16:isr_byte_rx
  57 0010 FFF7FEFF 		bl	isr_byte_rx_StartEx
  33:.\modem.c     ****     modem_state = MODEM_STATE_OFF;
  58              		.loc 1 33 0
  59 0014 40F20003 		movw	r3, #:lower16:modem_state
  60 0018 C0F20003 		movt	r3, #:upper16:modem_state
  61 001c 4FF00002 		mov	r2, #0
  62 0020 1A70     		strb	r2, [r3, #0]
  34:.\modem.c     **** }
  63              		.loc 1 34 0
  64 0022 80BD     		pop	{r7, pc}
  65              		.cfi_endproc
  66              	.LFE29:
  67              		.size	modem_start, .-modem_start
  68              		.section	.rodata
  69              		.align	2
  70              	.LC0:
  71 0000 00       		.ascii	"\000"
  72              		.section	.text.at_write_command,"ax",%progbits
  73              		.align	2
  74              		.global	at_write_command
  75              		.thumb
  76              		.thumb_func
ARM GAS  C:\Users\karunmj\AppData\Local\Temp\cc2sOn97.s 			page 3


  77              		.type	at_write_command, %function
  78              	at_write_command:
  79              	.LFB30:
  35:.\modem.c     **** 
  36:.\modem.c     **** // send at-command to modem
  37:.\modem.c     **** uint8 at_write_command(uint8* uart_string, uint8* expected_response, uint32 uart_timeout){
  80              		.loc 1 37 0
  81              		.cfi_startproc
  82              		@ args = 0, pretend = 0, frame = 40
  83              		@ frame_needed = 1, uses_anonymous_args = 0
  84 0000 80B5     		push	{r7, lr}
  85              	.LCFI2:
  86              		.cfi_def_cfa_offset 8
  87 0002 8AB0     		sub	sp, sp, #40
  88              	.LCFI3:
  89              		.cfi_def_cfa_offset 48
  90 0004 00AF     		add	r7, sp, #0
  91              		.cfi_offset 14, -4
  92              		.cfi_offset 7, -8
  93              	.LCFI4:
  94              		.cfi_def_cfa_register 7
  95 0006 F860     		str	r0, [r7, #12]
  96 0008 B960     		str	r1, [r7, #8]
  97 000a 7A60     		str	r2, [r7, #4]
  38:.\modem.c     ****     uint8 response = 0u;
  98              		.loc 1 38 0
  99 000c 4FF00003 		mov	r3, #0
 100 0010 FB75     		strb	r3, [r7, #23]
  39:.\modem.c     ****     uint32 i = 0u;
 101              		.loc 1 39 0
 102 0012 4FF00003 		mov	r3, #0
 103 0016 BB61     		str	r3, [r7, #24]
  40:.\modem.c     ****     uint32 delay = 100u;
 104              		.loc 1 40 0
 105 0018 4FF06403 		mov	r3, #100
 106 001c FB61     		str	r3, [r7, #28]
  41:.\modem.c     ****     uint32 interval = uart_timeout/delay;
 107              		.loc 1 41 0
 108 001e 7A68     		ldr	r2, [r7, #4]
 109 0020 FB69     		ldr	r3, [r7, #28]
 110 0022 B2FBF3F3 		udiv	r3, r2, r3
 111 0026 3B62     		str	r3, [r7, #32]
  42:.\modem.c     ****     
  43:.\modem.c     ****     uart_string_reset();
 112              		.loc 1 43 0
 113 0028 FFF7FEFF 		bl	uart_string_reset
  44:.\modem.c     ****     uart_PutString(uart_string);
 114              		.loc 1 44 0
 115 002c F868     		ldr	r0, [r7, #12]
 116 002e FFF7FEFF 		bl	uart_PutString
  45:.\modem.c     ****     
  46:.\modem.c     ****     if(expected_response != ""){
 117              		.loc 1 46 0
 118 0032 BA68     		ldr	r2, [r7, #8]
 119 0034 40F20003 		movw	r3, #:lower16:.LC0
 120 0038 C0F20003 		movt	r3, #:upper16:.LC0
 121 003c 9A42     		cmp	r2, r3
ARM GAS  C:\Users\karunmj\AppData\Local\Temp\cc2sOn97.s 			page 4


 122 003e 1ED0     		beq	.L4
  47:.\modem.c     ****         for(i=0;i<interval;i++){
 123              		.loc 1 47 0
 124 0040 4FF00003 		mov	r3, #0
 125 0044 BB61     		str	r3, [r7, #24]
 126 0046 16E0     		b	.L5
 127              	.L7:
 128              	.LBB2:
  48:.\modem.c     ****             uint16 valid = strstr(uart_received_string, expected_response);
 129              		.loc 1 48 0
 130 0048 40F20000 		movw	r0, #:lower16:uart_received_string
 131 004c C0F20000 		movt	r0, #:upper16:uart_received_string
 132 0050 B968     		ldr	r1, [r7, #8]
 133 0052 FFF7FEFF 		bl	strstr
 134 0056 0346     		mov	r3, r0
 135 0058 FB84     		strh	r3, [r7, #38]	@ movhi
  49:.\modem.c     ****             if(valid != NULL){
 136              		.loc 1 49 0
 137 005a FB8C     		ldrh	r3, [r7, #38]
 138 005c 002B     		cmp	r3, #0
 139 005e 03D0     		beq	.L6
  50:.\modem.c     ****                 response = 1u;
 140              		.loc 1 50 0
 141 0060 4FF00103 		mov	r3, #1
 142 0064 FB75     		strb	r3, [r7, #23]
  51:.\modem.c     ****                 break;
 143              		.loc 1 51 0
 144 0066 0AE0     		b	.L4
 145              	.L6:
  52:.\modem.c     ****             }
  53:.\modem.c     ****         CyDelay(delay);
 146              		.loc 1 53 0
 147 0068 F869     		ldr	r0, [r7, #28]
 148 006a FFF7FEFF 		bl	CyDelay
 149              	.LBE2:
 150              		.loc 1 47 0
 151 006e BB69     		ldr	r3, [r7, #24]
 152 0070 03F10103 		add	r3, r3, #1
 153 0074 BB61     		str	r3, [r7, #24]
 154              	.L5:
 155 0076 BA69     		ldr	r2, [r7, #24]
 156 0078 3B6A     		ldr	r3, [r7, #32]
 157 007a 9A42     		cmp	r2, r3
 158 007c E4D3     		bcc	.L7
 159              	.L4:
  54:.\modem.c     ****         }
  55:.\modem.c     ****     }
  56:.\modem.c     ****     
  57:.\modem.c     ****     return response;
 160              		.loc 1 57 0
 161 007e FB7D     		ldrb	r3, [r7, #23]	@ zero_extendqisi2
  58:.\modem.c     **** }
 162              		.loc 1 58 0
 163 0080 1846     		mov	r0, r3
 164 0082 07F12807 		add	r7, r7, #40
 165 0086 BD46     		mov	sp, r7
 166 0088 80BD     		pop	{r7, pc}
ARM GAS  C:\Users\karunmj\AppData\Local\Temp\cc2sOn97.s 			page 5


 167              		.cfi_endproc
 168              	.LFE30:
 169              		.size	at_write_command, .-at_write_command
 170 008a 00BF     		.section	.text.modem_power_on,"ax",%progbits
 171              		.align	2
 172              		.global	modem_power_on
 173              		.thumb
 174              		.thumb_func
 175              		.type	modem_power_on, %function
 176              	modem_power_on:
 177              	.LFB31:
  59:.\modem.c     **** 
  60:.\modem.c     **** uint8 modem_power_on(){
 178              		.loc 1 60 0
 179              		.cfi_startproc
 180              		@ args = 0, pretend = 0, frame = 0
 181              		@ frame_needed = 1, uses_anonymous_args = 0
 182 0000 80B5     		push	{r7, lr}
 183              	.LCFI5:
 184              		.cfi_def_cfa_offset 8
 185 0002 00AF     		add	r7, sp, #0
 186              		.cfi_offset 14, -4
 187              		.cfi_offset 7, -8
 188              	.LCFI6:
 189              		.cfi_def_cfa_register 7
  61:.\modem.c     ****     modem_voltage_pin_Write(0u); //provide power to modem
 190              		.loc 1 61 0
 191 0004 4FF00000 		mov	r0, #0
 192 0008 FFF7FEFF 		bl	modem_voltage_pin_Write
  62:.\modem.c     ****     modem_power_pin_Write(0u);
 193              		.loc 1 62 0
 194 000c 4FF00000 		mov	r0, #0
 195 0010 FFF7FEFF 		bl	modem_power_pin_Write
  63:.\modem.c     ****     CyDelay(1500u);
 196              		.loc 1 63 0
 197 0014 40F2DC50 		movw	r0, #1500
 198 0018 FFF7FEFF 		bl	CyDelay
  64:.\modem.c     ****     modem_power_pin_Write(1u);
 199              		.loc 1 64 0
 200 001c 4FF00100 		mov	r0, #1
 201 0020 FFF7FEFF 		bl	modem_power_pin_Write
  65:.\modem.c     ****     CyDelay(5000u);
 202              		.loc 1 65 0
 203 0024 41F28830 		movw	r0, #5000
 204 0028 FFF7FEFF 		bl	CyDelay
  66:.\modem.c     ****     modem_state = MODEM_STATE_IDLE;
 205              		.loc 1 66 0
 206 002c 40F20003 		movw	r3, #:lower16:modem_state
 207 0030 C0F20003 		movt	r3, #:upper16:modem_state
 208 0034 4FF00102 		mov	r2, #1
 209 0038 1A70     		strb	r2, [r3, #0]
  67:.\modem.c     **** }
 210              		.loc 1 67 0
 211 003a 80BD     		pop	{r7, pc}
 212              		.cfi_endproc
 213              	.LFE31:
 214              		.size	modem_power_on, .-modem_power_on
ARM GAS  C:\Users\karunmj\AppData\Local\Temp\cc2sOn97.s 			page 6


 215              		.section	.text.modem_power_off,"ax",%progbits
 216              		.align	2
 217              		.global	modem_power_off
 218              		.thumb
 219              		.thumb_func
 220              		.type	modem_power_off, %function
 221              	modem_power_off:
 222              	.LFB32:
  68:.\modem.c     **** 
  69:.\modem.c     **** uint8 modem_power_off(){
 223              		.loc 1 69 0
 224              		.cfi_startproc
 225              		@ args = 0, pretend = 0, frame = 0
 226              		@ frame_needed = 1, uses_anonymous_args = 0
 227 0000 80B5     		push	{r7, lr}
 228              	.LCFI7:
 229              		.cfi_def_cfa_offset 8
 230 0002 00AF     		add	r7, sp, #0
 231              		.cfi_offset 14, -4
 232              		.cfi_offset 7, -8
 233              	.LCFI8:
 234              		.cfi_def_cfa_register 7
  70:.\modem.c     ****     modem_power_pin_Write(0u);
 235              		.loc 1 70 0
 236 0004 4FF00000 		mov	r0, #0
 237 0008 FFF7FEFF 		bl	modem_power_pin_Write
  71:.\modem.c     ****     CyDelay(1500u);
 238              		.loc 1 71 0
 239 000c 40F2DC50 		movw	r0, #1500
 240 0010 FFF7FEFF 		bl	CyDelay
  72:.\modem.c     ****     modem_power_pin_Write(1u);
 241              		.loc 1 72 0
 242 0014 4FF00100 		mov	r0, #1
 243 0018 FFF7FEFF 		bl	modem_power_pin_Write
  73:.\modem.c     ****     CyDelay(5000u); // wait for module to turn off
 244              		.loc 1 73 0
 245 001c 41F28830 		movw	r0, #5000
 246 0020 FFF7FEFF 		bl	CyDelay
  74:.\modem.c     ****     modem_voltage_pin_Write(1u); // cut power to modem
 247              		.loc 1 74 0
 248 0024 4FF00100 		mov	r0, #1
 249 0028 FFF7FEFF 		bl	modem_voltage_pin_Write
  75:.\modem.c     ****     modem_state = MODEM_STATE_OFF;
 250              		.loc 1 75 0
 251 002c 40F20003 		movw	r3, #:lower16:modem_state
 252 0030 C0F20003 		movt	r3, #:upper16:modem_state
 253 0034 4FF00002 		mov	r2, #0
 254 0038 1A70     		strb	r2, [r3, #0]
  76:.\modem.c     **** }
 255              		.loc 1 76 0
 256 003a 80BD     		pop	{r7, pc}
 257              		.cfi_endproc
 258              	.LFE32:
 259              		.size	modem_power_off, .-modem_power_off
 260              		.section	.text.modem_reset,"ax",%progbits
 261              		.align	2
 262              		.global	modem_reset
ARM GAS  C:\Users\karunmj\AppData\Local\Temp\cc2sOn97.s 			page 7


 263              		.thumb
 264              		.thumb_func
 265              		.type	modem_reset, %function
 266              	modem_reset:
 267              	.LFB33:
  77:.\modem.c     **** 
  78:.\modem.c     **** uint8 modem_reset(){}
 268              		.loc 1 78 0
 269              		.cfi_startproc
 270              		@ args = 0, pretend = 0, frame = 0
 271              		@ frame_needed = 1, uses_anonymous_args = 0
 272              		@ link register save eliminated.
 273 0000 80B4     		push	{r7}
 274              	.LCFI9:
 275              		.cfi_def_cfa_offset 4
 276 0002 00AF     		add	r7, sp, #0
 277              		.cfi_offset 7, -4
 278              	.LCFI10:
 279              		.cfi_def_cfa_register 7
 280              		.loc 1 78 0
 281 0004 BD46     		mov	sp, r7
 282 0006 80BC     		pop	{r7}
 283 0008 7047     		bx	lr
 284              		.cfi_endproc
 285              	.LFE33:
 286              		.size	modem_reset, .-modem_reset
 287 000a 00BF     		.section	.rodata
 288 0001 000000   		.align	2
 289              	.LC1:
 290 0004 41542B43 		.ascii	"AT+CSQ\015\000"
 290      53510D00 
 291              		.align	2
 292              	.LC2:
 293 000c 4F4B00   		.ascii	"OK\000"
 294 000f 00       		.align	2
 295              	.LC3:
 296 0010 41542B43 		.ascii	"AT+CREG=1\015\000"
 296      5245473D 
 296      310D00
 297 001b 00       		.align	2
 298              	.LC4:
 299 001c 41542353 		.ascii	"AT#SCFG=1,1,0,0,1200,0\015\000"
 299      4346473D 
 299      312C312C 
 299      302C302C 
 299      31323030 
 300              		.align	2
 301              	.LC5:
 302 0034 41542343 		.ascii	"AT#CGPADDR=1\015\000"
 302      47504144 
 302      44523D31 
 302      0D00
 303 0042 0000     		.align	2
 304              	.LC6:
 305 0044 41542353 		.ascii	"AT#SGACT?\015\000"
 305      47414354 
 305      3F0D00
ARM GAS  C:\Users\karunmj\AppData\Local\Temp\cc2sOn97.s 			page 8


 306 004f 00       		.align	2
 307              	.LC7:
 308 0050 41542353 		.ascii	"AT#SGACT=1,1\015\000"
 308      47414354 
 308      3D312C31 
 308      0D00
 309              		.section	.text.modem_connect,"ax",%progbits
 310              		.align	2
 311              		.global	modem_connect
 312              		.thumb
 313              		.thumb_func
 314              		.type	modem_connect, %function
 315              	modem_connect:
 316              	.LFB34:
  79:.\modem.c     **** 
  80:.\modem.c     **** uint8 modem_connect(){
 317              		.loc 1 80 0
 318              		.cfi_startproc
 319              		@ args = 0, pretend = 0, frame = 8
 320              		@ frame_needed = 1, uses_anonymous_args = 0
 321 0000 80B5     		push	{r7, lr}
 322              	.LCFI11:
 323              		.cfi_def_cfa_offset 8
 324 0002 82B0     		sub	sp, sp, #8
 325              	.LCFI12:
 326              		.cfi_def_cfa_offset 16
 327 0004 00AF     		add	r7, sp, #0
 328              		.cfi_offset 14, -4
 329              		.cfi_offset 7, -8
 330              	.LCFI13:
 331              		.cfi_def_cfa_register 7
  81:.\modem.c     **** //    if(at_write_command("AT+CREG=1\r","OK",5000u)){
  82:.\modem.c     **** //        if(!at_write_command("AT#CGPADDR=1\r","\"",10000u)){
  83:.\modem.c     **** //            if(at_write_command("AT#SGACT=1,1\r","OK",30000u)){
  84:.\modem.c     **** //                return 1u; // connected to network
  85:.\modem.c     **** //            }
  86:.\modem.c     **** //        }
  87:.\modem.c     **** //    }
  88:.\modem.c     **** 
  89:.\modem.c     ****     at_write_command("AT+CSQ\r","OK",5000u); // get signal strength
 332              		.loc 1 89 0
 333 0006 40F20000 		movw	r0, #:lower16:.LC1
 334 000a C0F20000 		movt	r0, #:upper16:.LC1
 335 000e 40F20001 		movw	r1, #:lower16:.LC2
 336 0012 C0F20001 		movt	r1, #:upper16:.LC2
 337 0016 41F28832 		movw	r2, #5000
 338 001a FFF7FEFF 		bl	at_write_command
  90:.\modem.c     ****     at_write_command("AT+CREG=1\r","OK",5000u); // look for network
 339              		.loc 1 90 0
 340 001e 40F20000 		movw	r0, #:lower16:.LC3
 341 0022 C0F20000 		movt	r0, #:upper16:.LC3
 342 0026 40F20001 		movw	r1, #:lower16:.LC2
 343 002a C0F20001 		movt	r1, #:upper16:.LC2
 344 002e 41F28832 		movw	r2, #5000
 345 0032 FFF7FEFF 		bl	at_write_command
  91:.\modem.c     ****     at_write_command("AT#SCFG=1,1,0,0,1200,0\r","OK",5000u); // config parameter
 346              		.loc 1 91 0
ARM GAS  C:\Users\karunmj\AppData\Local\Temp\cc2sOn97.s 			page 9


 347 0036 40F20000 		movw	r0, #:lower16:.LC4
 348 003a C0F20000 		movt	r0, #:upper16:.LC4
 349 003e 40F20001 		movw	r1, #:lower16:.LC2
 350 0042 C0F20001 		movt	r1, #:upper16:.LC2
 351 0046 41F28832 		movw	r2, #5000
 352 004a FFF7FEFF 		bl	at_write_command
  92:.\modem.c     ****     at_write_command("AT#CGPADDR=1\r","OK",5000u); // check if ip address exists
 353              		.loc 1 92 0
 354 004e 40F20000 		movw	r0, #:lower16:.LC5
 355 0052 C0F20000 		movt	r0, #:upper16:.LC5
 356 0056 40F20001 		movw	r1, #:lower16:.LC2
 357 005a C0F20001 		movt	r1, #:upper16:.LC2
 358 005e 41F28832 		movw	r2, #5000
 359 0062 FFF7FEFF 		bl	at_write_command
  93:.\modem.c     ****     at_write_command("AT#SGACT?\r","OK",30000u);
 360              		.loc 1 93 0
 361 0066 40F20000 		movw	r0, #:lower16:.LC6
 362 006a C0F20000 		movt	r0, #:upper16:.LC6
 363 006e 40F20001 		movw	r1, #:lower16:.LC2
 364 0072 C0F20001 		movt	r1, #:upper16:.LC2
 365 0076 47F23052 		movw	r2, #30000
 366 007a FFF7FEFF 		bl	at_write_command
  94:.\modem.c     ****     uint8 success  = at_write_command("AT#SGACT=1,1\r","OK",30000u); // This command should return 
 367              		.loc 1 94 0
 368 007e 40F20000 		movw	r0, #:lower16:.LC7
 369 0082 C0F20000 		movt	r0, #:upper16:.LC7
 370 0086 40F20001 		movw	r1, #:lower16:.LC2
 371 008a C0F20001 		movt	r1, #:upper16:.LC2
 372 008e 47F23052 		movw	r2, #30000
 373 0092 FFF7FEFF 		bl	at_write_command
 374 0096 0346     		mov	r3, r0
 375 0098 FB71     		strb	r3, [r7, #7]
  95:.\modem.c     ****     //success = at_write_command("AT#SD=1,0,50000,\"141.212.136.222\",0,0,1\r","OK",5000u); // conn
  96:.\modem.c     ****     
  97:.\modem.c     ****     return success;
 376              		.loc 1 97 0
 377 009a FB79     		ldrb	r3, [r7, #7]	@ zero_extendqisi2
  98:.\modem.c     **** }
 378              		.loc 1 98 0
 379 009c 1846     		mov	r0, r3
 380 009e 07F10807 		add	r7, r7, #8
 381 00a2 BD46     		mov	sp, r7
 382 00a4 80BD     		pop	{r7, pc}
 383              		.cfi_endproc
 384              	.LFE34:
 385              		.size	modem_connect, .-modem_connect
 386 00a6 00BF     		.section	.rodata
 387 005e 0000     		.align	2
 388              	.LC8:
 389 0060 41542353 		.ascii	"AT#SH=1\000"
 389      483D3100 
 390              		.align	2
 391              	.LC9:
 392 0068 41542353 		.ascii	"AT#SGACT=1,0\000"
 392      47414354 
 392      3D312C30 
 392      00
ARM GAS  C:\Users\karunmj\AppData\Local\Temp\cc2sOn97.s 			page 10


 393              		.section	.text.modem_disconnect,"ax",%progbits
 394              		.align	2
 395              		.global	modem_disconnect
 396              		.thumb
 397              		.thumb_func
 398              		.type	modem_disconnect, %function
 399              	modem_disconnect:
 400              	.LFB35:
  99:.\modem.c     **** 
 100:.\modem.c     **** uint8 modem_disconnect(){
 401              		.loc 1 100 0
 402              		.cfi_startproc
 403              		@ args = 0, pretend = 0, frame = 0
 404              		@ frame_needed = 1, uses_anonymous_args = 0
 405 0000 80B5     		push	{r7, lr}
 406              	.LCFI14:
 407              		.cfi_def_cfa_offset 8
 408 0002 00AF     		add	r7, sp, #0
 409              		.cfi_offset 14, -4
 410              		.cfi_offset 7, -8
 411              	.LCFI15:
 412              		.cfi_def_cfa_register 7
 101:.\modem.c     ****     if(at_write_command("AT#SH=1","OK",15000u)){
 413              		.loc 1 101 0
 414 0004 40F20000 		movw	r0, #:lower16:.LC8
 415 0008 C0F20000 		movt	r0, #:upper16:.LC8
 416 000c 40F20001 		movw	r1, #:lower16:.LC2
 417 0010 C0F20001 		movt	r1, #:upper16:.LC2
 418 0014 43F69822 		movw	r2, #15000
 419 0018 FFF7FEFF 		bl	at_write_command
 420 001c 0346     		mov	r3, r0
 421 001e 002B     		cmp	r3, #0
 422 0020 11D0     		beq	.L18
 102:.\modem.c     ****         if(at_write_command("AT#SGACT=1,0","OK",15000u)){
 423              		.loc 1 102 0
 424 0022 40F20000 		movw	r0, #:lower16:.LC9
 425 0026 C0F20000 		movt	r0, #:upper16:.LC9
 426 002a 40F20001 		movw	r1, #:lower16:.LC2
 427 002e C0F20001 		movt	r1, #:upper16:.LC2
 428 0032 43F69822 		movw	r2, #15000
 429 0036 FFF7FEFF 		bl	at_write_command
 430 003a 0346     		mov	r3, r0
 431 003c 002B     		cmp	r3, #0
 432 003e 02D0     		beq	.L18
 103:.\modem.c     ****             return 1u;
 433              		.loc 1 103 0
 434 0040 4FF00103 		mov	r3, #1
 435 0044 01E0     		b	.L19
 436              	.L18:
 104:.\modem.c     ****         }
 105:.\modem.c     ****     }
 106:.\modem.c     **** 
 107:.\modem.c     ****     return 0u; // failed to disconnect
 437              		.loc 1 107 0
 438 0046 4FF00003 		mov	r3, #0
 439              	.L19:
 108:.\modem.c     **** }
ARM GAS  C:\Users\karunmj\AppData\Local\Temp\cc2sOn97.s 			page 11


 440              		.loc 1 108 0
 441 004a 1846     		mov	r0, r3
 442 004c 80BD     		pop	{r7, pc}
 443              		.cfi_endproc
 444              	.LFE35:
 445              		.size	modem_disconnect, .-modem_disconnect
 446 004e 00BF     		.section	.rodata
 447 0075 000000   		.align	2
 448              	.LC10:
 449 0078 41542353 		.ascii	"AT#SD=1,0,50030,\"184.72.228.61\",0,0,1\015\000"
 449      443D312C 
 449      302C3530 
 449      3033302C 
 449      22313834 
 450 009f 00       		.align	2
 451              	.LC11:
 452 00a0 41542353 		.ascii	"AT#SSEND=1\015\000"
 452      53454E44 
 452      3D310D00 
 453              		.align	2
 454              	.LC12:
 455 00ac 3E00     		.ascii	">\000"
 456 00ae 0000     		.align	2
 457              	.LC13:
 458 00b0 25731A00 		.ascii	"%s\032\000"
 459              		.section	.text.modem_send_packet,"ax",%progbits
 460              		.align	2
 461              		.global	modem_send_packet
 462              		.thumb
 463              		.thumb_func
 464              		.type	modem_send_packet, %function
 465              	modem_send_packet:
 466              	.LFB36:
 109:.\modem.c     **** 
 110:.\modem.c     **** // send packet to AWS server
 111:.\modem.c     **** uint8 modem_send_packet(uint8* packet){
 467              		.loc 1 111 0
 468              		.cfi_startproc
 469              		@ args = 0, pretend = 0, frame = 272
 470              		@ frame_needed = 1, uses_anonymous_args = 0
 471 0000 80B5     		push	{r7, lr}
 472              	.LCFI16:
 473              		.cfi_def_cfa_offset 8
 474 0002 C4B0     		sub	sp, sp, #272
 475              	.LCFI17:
 476              		.cfi_def_cfa_offset 280
 477 0004 00AF     		add	r7, sp, #0
 478              		.cfi_offset 14, -4
 479              		.cfi_offset 7, -8
 480              	.LCFI18:
 481              		.cfi_def_cfa_register 7
 482 0006 07F10403 		add	r3, r7, #4
 483 000a 1860     		str	r0, [r3, #0]
 112:.\modem.c     ****     // provide power to rx and tx pins
 113:.\modem.c     ****     //uart_rx_voltage_pin_Write(0u);
 114:.\modem.c     ****     //uart_tx_voltage_pin_Write(0u);
 115:.\modem.c     ****     
ARM GAS  C:\Users\karunmj\AppData\Local\Temp\cc2sOn97.s 			page 12


 116:.\modem.c     ****     // join network
 117:.\modem.c     ****     uint8 connected = modem_connect();
 484              		.loc 1 117 0
 485 000c FFF7FEFF 		bl	modem_connect
 486 0010 0346     		mov	r3, r0
 487 0012 87F80E31 		strb	r3, [r7, #270]
 118:.\modem.c     ****     
 119:.\modem.c     ****     // write to AWS server  - 184.72.228.61\",0,0,1
 120:.\modem.c     ****     if(at_write_command("AT#SD=1,0,50030,\"184.72.228.61\",0,0,1\r","OK",5000u) != 0){
 488              		.loc 1 120 0
 489 0016 40F20000 		movw	r0, #:lower16:.LC10
 490 001a C0F20000 		movt	r0, #:upper16:.LC10
 491 001e 40F20001 		movw	r1, #:lower16:.LC2
 492 0022 C0F20001 		movt	r1, #:upper16:.LC2
 493 0026 41F28832 		movw	r2, #5000
 494 002a FFF7FEFF 		bl	at_write_command
 495 002e 0346     		mov	r3, r0
 496 0030 002B     		cmp	r3, #0
 497 0032 32D0     		beq	.L22
 121:.\modem.c     ****         if(at_write_command("AT#SSEND=1\r",">",5000u) != 0){
 498              		.loc 1 121 0
 499 0034 40F20000 		movw	r0, #:lower16:.LC11
 500 0038 C0F20000 		movt	r0, #:upper16:.LC11
 501 003c 40F20001 		movw	r1, #:lower16:.LC12
 502 0040 C0F20001 		movt	r1, #:upper16:.LC12
 503 0044 41F28832 		movw	r2, #5000
 504 0048 FFF7FEFF 		bl	at_write_command
 505 004c 0346     		mov	r3, r0
 506 004e 002B     		cmp	r3, #0
 507 0050 23D0     		beq	.L22
 508              	.LBB3:
 122:.\modem.c     ****             //if(at_write_command(packet,"OK",20000u) != 0){
 123:.\modem.c     ****             uint8 sendBuffer[256];
 124:.\modem.c     ****             sprintf(sendBuffer, "%s\032", packet);
 509              		.loc 1 124 0
 510 0052 07F10C02 		add	r2, r7, #12
 511 0056 07F10403 		add	r3, r7, #4
 512 005a 1046     		mov	r0, r2
 513 005c 40F20001 		movw	r1, #:lower16:.LC13
 514 0060 C0F20001 		movt	r1, #:upper16:.LC13
 515 0064 1A68     		ldr	r2, [r3, #0]
 516 0066 FFF7FEFF 		bl	sprintf
 125:.\modem.c     ****             if(at_write_command(sendBuffer,"OK",20000u) != 0){
 517              		.loc 1 125 0
 518 006a 07F10C03 		add	r3, r7, #12
 519 006e 1846     		mov	r0, r3
 520 0070 40F20001 		movw	r1, #:lower16:.LC2
 521 0074 C0F20001 		movt	r1, #:upper16:.LC2
 522 0078 44F62062 		movw	r2, #20000
 523 007c FFF7FEFF 		bl	at_write_command
 524 0080 0346     		mov	r3, r0
 525 0082 002B     		cmp	r3, #0
 526 0084 09D0     		beq	.L22
 126:.\modem.c     ****                 modem_state = MODEM_STATE_IDLE;
 527              		.loc 1 126 0
 528 0086 40F20003 		movw	r3, #:lower16:modem_state
 529 008a C0F20003 		movt	r3, #:upper16:modem_state
ARM GAS  C:\Users\karunmj\AppData\Local\Temp\cc2sOn97.s 			page 13


 530 008e 4FF00102 		mov	r2, #1
 531 0092 1A70     		strb	r2, [r3, #0]
 127:.\modem.c     ****                 return 1u;   // return 1 if succesfully sent sms
 532              		.loc 1 127 0
 533 0094 4FF00103 		mov	r3, #1
 534 0098 06E0     		b	.L23
 535              	.L22:
 536              	.LBE3:
 128:.\modem.c     ****             }
 129:.\modem.c     ****         }
 130:.\modem.c     ****     }
 131:.\modem.c     ****     
 132:.\modem.c     ****     uint8 disconnected = modem_disconnect();
 537              		.loc 1 132 0
 538 009a FFF7FEFF 		bl	modem_disconnect
 539 009e 0346     		mov	r3, r0
 540 00a0 87F80F31 		strb	r3, [r7, #271]
 133:.\modem.c     ****     
 134:.\modem.c     ****     // cut power to rx and tx pins
 135:.\modem.c     ****     //uart_rx_voltage_pin_Write(1u);
 136:.\modem.c     ****     //uart_rx_voltage_pin_Write(1u);
 137:.\modem.c     ****     
 138:.\modem.c     ****     return 0u;   // return 0 if failure to send sms
 541              		.loc 1 138 0
 542 00a4 4FF00003 		mov	r3, #0
 543              	.L23:
 139:.\modem.c     **** }
 544              		.loc 1 139 0
 545 00a8 1846     		mov	r0, r3
 546 00aa 07F58877 		add	r7, r7, #272
 547 00ae BD46     		mov	sp, r7
 548 00b0 80BD     		pop	{r7, pc}
 549              		.cfi_endproc
 550              	.LFE36:
 551              		.size	modem_send_packet, .-modem_send_packet
 552 00b2 00BF     		.section	.text.uart_string_reset,"ax",%progbits
 553              		.align	2
 554              		.global	uart_string_reset
 555              		.thumb
 556              		.thumb_func
 557              		.type	uart_string_reset, %function
 558              	uart_string_reset:
 559              	.LFB37:
 140:.\modem.c     **** 
 141:.\modem.c     **** void uart_string_reset(){
 560              		.loc 1 141 0
 561              		.cfi_startproc
 562              		@ args = 0, pretend = 0, frame = 8
 563              		@ frame_needed = 1, uses_anonymous_args = 0
 564 0000 80B5     		push	{r7, lr}
 565              	.LCFI19:
 566              		.cfi_def_cfa_offset 8
 567 0002 82B0     		sub	sp, sp, #8
 568              	.LCFI20:
 569              		.cfi_def_cfa_offset 16
 570 0004 00AF     		add	r7, sp, #0
 571              		.cfi_offset 14, -4
ARM GAS  C:\Users\karunmj\AppData\Local\Temp\cc2sOn97.s 			page 14


 572              		.cfi_offset 7, -8
 573              	.LCFI21:
 574              		.cfi_def_cfa_register 7
 142:.\modem.c     ****     // reset uart_received_string to zero
 143:.\modem.c     ****     uint8 i = 0;
 575              		.loc 1 143 0
 576 0006 4FF00003 		mov	r3, #0
 577 000a FB71     		strb	r3, [r7, #7]
 144:.\modem.c     ****     
 145:.\modem.c     ****     for(i = 0; i < 128; i++){
 578              		.loc 1 145 0
 579 000c 4FF00003 		mov	r3, #0
 580 0010 FB71     		strb	r3, [r7, #7]
 581 0012 0BE0     		b	.L26
 582              	.L27:
 146:.\modem.c     ****         uart_received_string[i] = 0;
 583              		.loc 1 146 0
 584 0014 FA79     		ldrb	r2, [r7, #7]	@ zero_extendqisi2
 585 0016 40F20003 		movw	r3, #:lower16:uart_received_string
 586 001a C0F20003 		movt	r3, #:upper16:uart_received_string
 587 001e 4FF00001 		mov	r1, #0
 588 0022 9954     		strb	r1, [r3, r2]
 589              		.loc 1 145 0
 590 0024 FB79     		ldrb	r3, [r7, #7]
 591 0026 03F10103 		add	r3, r3, #1
 592 002a FB71     		strb	r3, [r7, #7]
 593              	.L26:
 594 002c FB79     		ldrb	r3, [r7, #7]	@ zero_extendqisi2
 595 002e 5BB2     		sxtb	r3, r3
 596 0030 002B     		cmp	r3, #0
 597 0032 EFDA     		bge	.L27
 147:.\modem.c     ****     }
 148:.\modem.c     ****     uart_string_index = 0;
 598              		.loc 1 148 0
 599 0034 40F20003 		movw	r3, #:lower16:uart_string_index
 600 0038 C0F20003 		movt	r3, #:upper16:uart_string_index
 601 003c 4FF00002 		mov	r2, #0
 602 0040 1A70     		strb	r2, [r3, #0]
 149:.\modem.c     ****     uart_ClearRxBuffer();
 603              		.loc 1 149 0
 604 0042 FFF7FEFF 		bl	uart_ClearRxBuffer
 150:.\modem.c     **** }
 605              		.loc 1 150 0
 606 0046 07F10807 		add	r7, r7, #8
 607 004a BD46     		mov	sp, r7
 608 004c 80BD     		pop	{r7, pc}
 609              		.cfi_endproc
 610              	.LFE37:
 611              		.size	uart_string_reset, .-uart_string_reset
 612 004e 00BF     		.section	.text.isr_byte_rx,"ax",%progbits
 613              		.align	2
 614              		.global	isr_byte_rx
 615              		.thumb
 616              		.thumb_func
 617              		.type	isr_byte_rx, %function
 618              	isr_byte_rx:
 619              	.LFB38:
ARM GAS  C:\Users\karunmj\AppData\Local\Temp\cc2sOn97.s 			page 15


 151:.\modem.c     **** 
 152:.\modem.c     **** // this function fires when uart rx receives bytes (when modem is sending bytes)
 153:.\modem.c     **** CY_ISR(isr_byte_rx){
 620              		.loc 1 153 0
 621              		.cfi_startproc
 622              		@ args = 0, pretend = 0, frame = 8
 623              		@ frame_needed = 1, uses_anonymous_args = 0
 624 0000 80B5     		push	{r7, lr}
 625              	.LCFI22:
 626              		.cfi_def_cfa_offset 8
 627 0002 82B0     		sub	sp, sp, #8
 628              	.LCFI23:
 629              		.cfi_def_cfa_offset 16
 630 0004 00AF     		add	r7, sp, #0
 631              		.cfi_offset 14, -4
 632              		.cfi_offset 7, -8
 633              	.LCFI24:
 634              		.cfi_def_cfa_register 7
 154:.\modem.c     ****     // hold the next char in the rx register as a temporary variable
 155:.\modem.c     ****     uint8 rx_char_hold = uart_GetChar();
 635              		.loc 1 155 0
 636 0006 FFF7FEFF 		bl	uart_GetChar
 637 000a 0346     		mov	r3, r0
 638 000c FB71     		strb	r3, [r7, #7]
 156:.\modem.c     ****     
 157:.\modem.c     ****     // store the char in uart_received_string
 158:.\modem.c     ****     if(rx_char_hold){
 639              		.loc 1 158 0
 640 000e FB79     		ldrb	r3, [r7, #7]	@ zero_extendqisi2
 641 0010 002B     		cmp	r3, #0
 642 0012 18D0     		beq	.L31
 159:.\modem.c     ****         uart_received_string[uart_string_index] = rx_char_hold;
 643              		.loc 1 159 0
 644 0014 40F20003 		movw	r3, #:lower16:uart_string_index
 645 0018 C0F20003 		movt	r3, #:upper16:uart_string_index
 646 001c 1B78     		ldrb	r3, [r3, #0]	@ zero_extendqisi2
 647 001e 1A46     		mov	r2, r3
 648 0020 40F20003 		movw	r3, #:lower16:uart_received_string
 649 0024 C0F20003 		movt	r3, #:upper16:uart_received_string
 650 0028 F979     		ldrb	r1, [r7, #7]
 651 002a 9954     		strb	r1, [r3, r2]
 160:.\modem.c     ****         uart_string_index++;
 652              		.loc 1 160 0
 653 002c 40F20003 		movw	r3, #:lower16:uart_string_index
 654 0030 C0F20003 		movt	r3, #:upper16:uart_string_index
 655 0034 1B78     		ldrb	r3, [r3, #0]	@ zero_extendqisi2
 656 0036 03F10103 		add	r3, r3, #1
 657 003a DAB2     		uxtb	r2, r3
 658 003c 40F20003 		movw	r3, #:lower16:uart_string_index
 659 0040 C0F20003 		movt	r3, #:upper16:uart_string_index
 660 0044 1A70     		strb	r2, [r3, #0]
 661              	.L31:
 161:.\modem.c     ****     }
 162:.\modem.c     **** }
 662              		.loc 1 162 0
 663 0046 07F10807 		add	r7, r7, #8
 664 004a BD46     		mov	sp, r7
ARM GAS  C:\Users\karunmj\AppData\Local\Temp\cc2sOn97.s 			page 16


 665 004c 80BD     		pop	{r7, pc}
 666              		.cfi_endproc
 667              	.LFE38:
 668              		.size	isr_byte_rx, .-isr_byte_rx
 669 004e 00BF     		.text
 670              	.Letext0: