ARM GAS  C:\Users\karunmj\AppData\Local\Temp\ccb1mZ87.s 			page 1


   1              		.syntax unified
   2              		.cpu cortex-m3
   3              		.fpu softvfp
   4              		.eabi_attribute 20, 1
   5              		.eabi_attribute 21, 1
   6              		.eabi_attribute 23, 3
   7              		.eabi_attribute 24, 1
   8              		.eabi_attribute 25, 1
   9              		.eabi_attribute 26, 1
  10              		.eabi_attribute 30, 6
  11              		.eabi_attribute 18, 4
  12              		.thumb
  13              		.file	"modem.c"
  14              		.section	.debug_abbrev,"",%progbits
  15              	.Ldebug_abbrev0:
  16              		.section	.debug_info,"",%progbits
  17              	.Ldebug_info0:
  18              		.section	.debug_line,"",%progbits
  19              	.Ldebug_line0:
  20 0000 DB010000 		.text
  20      02005400 
  20      00000201 
  20      FB0E0D00 
  20      01010101 
  21              	.Ltext0:
  22              		.cfi_sections	.debug_frame
  23              		.comm	modem_state,1,1
  24              		.global	lock_acquired
  25              		.bss
  26              		.type	lock_acquired, %object
  27              		.size	lock_acquired, 1
  28              	lock_acquired:
  29 0000 00       		.space	1
  30              		.global	uart_string_index
  31 0001 00       		.align	1
  32              		.type	uart_string_index, %object
  33              		.size	uart_string_index, 2
  34              	uart_string_index:
  35 0002 0000     		.space	2
  36              		.comm	feed_id,4,4
  37              		.global	uart_received_string
  38              		.align	2
  39              		.type	uart_received_string, %object
  40              		.size	uart_received_string, 700
  41              	uart_received_string:
  42 0004 00000000 		.space	700
  42      00000000 
  42      00000000 
  42      00000000 
  42      00000000 
  43              		.comm	api_key,4,4
  44              		.section	.text.modem_set_api_feed,"ax",%progbits
  45              		.align	2
  46              		.global	modem_set_api_feed
  47              		.thumb
  48              		.thumb_func
  49              		.type	modem_set_api_feed, %function
ARM GAS  C:\Users\karunmj\AppData\Local\Temp\ccb1mZ87.s 			page 2


  50              	modem_set_api_feed:
  51              	.LFB29:
  52              		.file 1 ".\\modem.c"
   1:.\modem.c     **** ///* ========================================
   2:.\modem.c     **** // *
   3:.\modem.c     **** // * Copyright YOUR COMPANY, THE YEAR
   4:.\modem.c     **** // * All Rights Reserved
   5:.\modem.c     **** // * UNPUBLISHED, LICENSED SOFTWARE.
   6:.\modem.c     **** // *
   7:.\modem.c     **** // * CONFIDENTIAL AND PROPRIETARY INFORMATION
   8:.\modem.c     **** // * WHICH IS THE PROPERTY OF your company.
   9:.\modem.c     **** // *
  10:.\modem.c     **** // * ========================================
  11:.\modem.c     **** //*/
  12:.\modem.c     **** //
  13:.\modem.c     **** 
  14:.\modem.c     **** #include <device.h>
  15:.\modem.c     **** #include <string.h>
  16:.\modem.c     **** #include "modem.h"
  17:.\modem.c     **** #include "debug.h"
  18:.\modem.c     **** 
  19:.\modem.c     **** // declare varaiables
  20:.\modem.c     **** uint8 modem_state, lock_acquired = 0;
  21:.\modem.c     **** uint16 uart_string_index = 0;
  22:.\modem.c     **** uint32 feed_id;
  23:.\modem.c     **** char uart_received_string[700] = {0}, *api_key;
  24:.\modem.c     **** 
  25:.\modem.c     **** 
  26:.\modem.c     **** 
  27:.\modem.c     **** // prototype modem interrupt
  28:.\modem.c     **** CY_ISR_PROTO(isr_byte_rx);
  29:.\modem.c     **** void uart_string_reset();
  30:.\modem.c     **** 
  31:.\modem.c     **** uint8 modem_set_api_feed(uint32 id, char* key){
  53              		.loc 1 31 0
  54              		.cfi_startproc
  55              		@ args = 0, pretend = 0, frame = 8
  56              		@ frame_needed = 1, uses_anonymous_args = 0
  57              		@ link register save eliminated.
  58 0000 80B4     		push	{r7}
  59              	.LCFI0:
  60              		.cfi_def_cfa_offset 4
  61 0002 83B0     		sub	sp, sp, #12
  62              	.LCFI1:
  63              		.cfi_def_cfa_offset 16
  64 0004 00AF     		add	r7, sp, #0
  65              		.cfi_offset 7, -4
  66              	.LCFI2:
  67              		.cfi_def_cfa_register 7
  68 0006 7860     		str	r0, [r7, #4]
  69 0008 3960     		str	r1, [r7, #0]
  32:.\modem.c     ****     feed_id = id;
  70              		.loc 1 32 0
  71 000a 40F20003 		movw	r3, #:lower16:feed_id
  72 000e C0F20003 		movt	r3, #:upper16:feed_id
  73 0012 7A68     		ldr	r2, [r7, #4]
  74 0014 1A60     		str	r2, [r3, #0]
ARM GAS  C:\Users\karunmj\AppData\Local\Temp\ccb1mZ87.s 			page 3


  33:.\modem.c     ****     api_key = key;
  75              		.loc 1 33 0
  76 0016 40F20003 		movw	r3, #:lower16:api_key
  77 001a C0F20003 		movt	r3, #:upper16:api_key
  78 001e 3A68     		ldr	r2, [r7, #0]
  79 0020 1A60     		str	r2, [r3, #0]
  34:.\modem.c     ****     return 1u;
  80              		.loc 1 34 0
  81 0022 4FF00103 		mov	r3, #1
  35:.\modem.c     **** }
  82              		.loc 1 35 0
  83 0026 1846     		mov	r0, r3
  84 0028 07F10C07 		add	r7, r7, #12
  85 002c BD46     		mov	sp, r7
  86 002e 80BC     		pop	{r7}
  87 0030 7047     		bx	lr
  88              		.cfi_endproc
  89              	.LFE29:
  90              		.size	modem_set_api_feed, .-modem_set_api_feed
  91 0032 00BF     		.section	.text.modem_start,"ax",%progbits
  92              		.align	2
  93              		.global	modem_start
  94              		.thumb
  95              		.thumb_func
  96              		.type	modem_start, %function
  97              	modem_start:
  98              	.LFB30:
  36:.\modem.c     **** 
  37:.\modem.c     **** // initialize modem
  38:.\modem.c     **** void modem_start(){
  99              		.loc 1 38 0
 100              		.cfi_startproc
 101              		@ args = 0, pretend = 0, frame = 0
 102              		@ frame_needed = 1, uses_anonymous_args = 0
 103 0000 80B5     		push	{r7, lr}
 104              	.LCFI3:
 105              		.cfi_def_cfa_offset 8
 106 0002 00AF     		add	r7, sp, #0
 107              		.cfi_offset 14, -4
 108              		.cfi_offset 7, -8
 109              	.LCFI4:
 110              		.cfi_def_cfa_register 7
  39:.\modem.c     ****     uart_Start();
 111              		.loc 1 39 0
 112 0004 FFF7FEFF 		bl	uart_Start
  40:.\modem.c     ****     ControlReg_Modem_Write(0u);
 113              		.loc 1 40 0
 114 0008 4FF00000 		mov	r0, #0
 115 000c FFF7FEFF 		bl	ControlReg_Modem_Write
  41:.\modem.c     ****     modem_power_pin_Write(0u);
 116              		.loc 1 41 0
 117 0010 4FF00000 		mov	r0, #0
 118 0014 FFF7FEFF 		bl	modem_power_pin_Write
  42:.\modem.c     ****     isr_byte_rx_StartEx(isr_byte_rx);
 119              		.loc 1 42 0
 120 0018 40F20000 		movw	r0, #:lower16:isr_byte_rx
 121 001c C0F20000 		movt	r0, #:upper16:isr_byte_rx
ARM GAS  C:\Users\karunmj\AppData\Local\Temp\ccb1mZ87.s 			page 4


 122 0020 FFF7FEFF 		bl	isr_byte_rx_StartEx
  43:.\modem.c     ****     modem_state = MODEM_STATE_OFF;
 123              		.loc 1 43 0
 124 0024 40F20003 		movw	r3, #:lower16:modem_state
 125 0028 C0F20003 		movt	r3, #:upper16:modem_state
 126 002c 4FF00002 		mov	r2, #0
 127 0030 1A70     		strb	r2, [r3, #0]
  44:.\modem.c     **** }
 128              		.loc 1 44 0
 129 0032 80BD     		pop	{r7, pc}
 130              		.cfi_endproc
 131              	.LFE30:
 132              		.size	modem_start, .-modem_start
 133              		.section	.text.at_write_command,"ax",%progbits
 134              		.align	2
 135              		.global	at_write_command
 136              		.thumb
 137              		.thumb_func
 138              		.type	at_write_command, %function
 139              	at_write_command:
 140              	.LFB31:
  45:.\modem.c     **** 
  46:.\modem.c     **** // send at-command to modem
  47:.\modem.c     **** uint8 at_write_command(char* uart_string, char* expected_response, uint32 uart_timeout){
 141              		.loc 1 47 0
 142              		.cfi_startproc
 143              		@ args = 0, pretend = 0, frame = 40
 144              		@ frame_needed = 1, uses_anonymous_args = 0
 145 0000 80B5     		push	{r7, lr}
 146              	.LCFI5:
 147              		.cfi_def_cfa_offset 8
 148 0002 8AB0     		sub	sp, sp, #40
 149              	.LCFI6:
 150              		.cfi_def_cfa_offset 48
 151 0004 00AF     		add	r7, sp, #0
 152              		.cfi_offset 14, -4
 153              		.cfi_offset 7, -8
 154              	.LCFI7:
 155              		.cfi_def_cfa_register 7
 156 0006 F860     		str	r0, [r7, #12]
 157 0008 B960     		str	r1, [r7, #8]
 158 000a 7A60     		str	r2, [r7, #4]
  48:.\modem.c     ****     uint8 response = 0u;
 159              		.loc 1 48 0
 160 000c 4FF00003 		mov	r3, #0
 161 0010 FB75     		strb	r3, [r7, #23]
  49:.\modem.c     ****     uint32 i = 0u, delay = 100u, interval = uart_timeout/delay;
 162              		.loc 1 49 0
 163 0012 4FF00003 		mov	r3, #0
 164 0016 BB61     		str	r3, [r7, #24]
 165 0018 4FF06403 		mov	r3, #100
 166 001c FB61     		str	r3, [r7, #28]
 167 001e 7A68     		ldr	r2, [r7, #4]
 168 0020 FB69     		ldr	r3, [r7, #28]
 169 0022 B2FBF3F3 		udiv	r3, r2, r3
 170 0026 3B62     		str	r3, [r7, #32]
  50:.\modem.c     ****     
ARM GAS  C:\Users\karunmj\AppData\Local\Temp\ccb1mZ87.s 			page 5


  51:.\modem.c     ****     uart_string_reset();
 171              		.loc 1 51 0
 172 0028 FFF7FEFF 		bl	uart_string_reset
  52:.\modem.c     ****     uart_PutString(uart_string);
 173              		.loc 1 52 0
 174 002c F868     		ldr	r0, [r7, #12]
 175 002e FFF7FEFF 		bl	uart_PutString
  53:.\modem.c     ****     
  54:.\modem.c     ****     if( strcmp(expected_response, "") != 0){
 176              		.loc 1 54 0
 177 0032 BB68     		ldr	r3, [r7, #8]
 178 0034 1B78     		ldrb	r3, [r3, #0]	@ zero_extendqisi2
 179 0036 002B     		cmp	r3, #0
 180 0038 1ED0     		beq	.L6
  55:.\modem.c     ****         for(i=0;i<interval;i++){
 181              		.loc 1 55 0
 182 003a 4FF00003 		mov	r3, #0
 183 003e BB61     		str	r3, [r7, #24]
 184 0040 16E0     		b	.L7
 185              	.L9:
 186              	.LBB2:
  56:.\modem.c     ****             char* valid = strstr(uart_received_string, expected_response);
 187              		.loc 1 56 0
 188 0042 40F20000 		movw	r0, #:lower16:uart_received_string
 189 0046 C0F20000 		movt	r0, #:upper16:uart_received_string
 190 004a B968     		ldr	r1, [r7, #8]
 191 004c FFF7FEFF 		bl	strstr
 192 0050 0346     		mov	r3, r0
 193 0052 7B62     		str	r3, [r7, #36]
  57:.\modem.c     ****             if(valid != NULL){
 194              		.loc 1 57 0
 195 0054 7B6A     		ldr	r3, [r7, #36]
 196 0056 002B     		cmp	r3, #0
 197 0058 03D0     		beq	.L8
  58:.\modem.c     ****                 response = 1u;
 198              		.loc 1 58 0
 199 005a 4FF00103 		mov	r3, #1
 200 005e FB75     		strb	r3, [r7, #23]
  59:.\modem.c     ****                 break;
 201              		.loc 1 59 0
 202 0060 0AE0     		b	.L6
 203              	.L8:
  60:.\modem.c     ****             }
  61:.\modem.c     ****             CyDelay(delay);
 204              		.loc 1 61 0
 205 0062 F869     		ldr	r0, [r7, #28]
 206 0064 FFF7FEFF 		bl	CyDelay
 207              	.LBE2:
 208              		.loc 1 55 0
 209 0068 BB69     		ldr	r3, [r7, #24]
 210 006a 03F10103 		add	r3, r3, #1
 211 006e BB61     		str	r3, [r7, #24]
 212              	.L7:
 213 0070 BA69     		ldr	r2, [r7, #24]
 214 0072 3B6A     		ldr	r3, [r7, #32]
 215 0074 9A42     		cmp	r2, r3
 216 0076 E4D3     		bcc	.L9
ARM GAS  C:\Users\karunmj\AppData\Local\Temp\ccb1mZ87.s 			page 6


 217              	.L6:
  62:.\modem.c     ****         }
  63:.\modem.c     ****     }
  64:.\modem.c     ****     
  65:.\modem.c     ****     return response;
 218              		.loc 1 65 0
 219 0078 FB7D     		ldrb	r3, [r7, #23]	@ zero_extendqisi2
  66:.\modem.c     **** }
 220              		.loc 1 66 0
 221 007a 1846     		mov	r0, r3
 222 007c 07F12807 		add	r7, r7, #40
 223 0080 BD46     		mov	sp, r7
 224 0082 80BD     		pop	{r7, pc}
 225              		.cfi_endproc
 226              	.LFE31:
 227              		.size	at_write_command, .-at_write_command
 228              		.section	.text.modem_power_on,"ax",%progbits
 229              		.align	2
 230              		.global	modem_power_on
 231              		.thumb
 232              		.thumb_func
 233              		.type	modem_power_on, %function
 234              	modem_power_on:
 235              	.LFB32:
  67:.\modem.c     **** 
  68:.\modem.c     **** uint8 modem_power_on(){
 236              		.loc 1 68 0
 237              		.cfi_startproc
 238              		@ args = 0, pretend = 0, frame = 0
 239              		@ frame_needed = 1, uses_anonymous_args = 0
 240 0000 80B5     		push	{r7, lr}
 241              	.LCFI8:
 242              		.cfi_def_cfa_offset 8
 243 0002 00AF     		add	r7, sp, #0
 244              		.cfi_offset 14, -4
 245              		.cfi_offset 7, -8
 246              	.LCFI9:
 247              		.cfi_def_cfa_register 7
  69:.\modem.c     ****     modem_power_pin_Write(1u);
 248              		.loc 1 69 0
 249 0004 4FF00100 		mov	r0, #1
 250 0008 FFF7FEFF 		bl	modem_power_pin_Write
  70:.\modem.c     ****     modem_reset_pin_Write(1u);
 251              		.loc 1 70 0
 252 000c 4FF00100 		mov	r0, #1
 253 0010 FFF7FEFF 		bl	modem_reset_pin_Write
  71:.\modem.c     ****     modem_voltage_pin_Write(0u); //provide power to modem
 254              		.loc 1 71 0
 255 0014 4FF00000 		mov	r0, #0
 256 0018 FFF7FEFF 		bl	modem_voltage_pin_Write
  72:.\modem.c     ****     ControlReg_Modem_Write(1u);
 257              		.loc 1 72 0
 258 001c 4FF00100 		mov	r0, #1
 259 0020 FFF7FEFF 		bl	ControlReg_Modem_Write
  73:.\modem.c     ****     modem_power_pin_Write(0u);
 260              		.loc 1 73 0
 261 0024 4FF00000 		mov	r0, #0
ARM GAS  C:\Users\karunmj\AppData\Local\Temp\ccb1mZ87.s 			page 7


 262 0028 FFF7FEFF 		bl	modem_power_pin_Write
  74:.\modem.c     ****     CyDelay(2000u);  // the pad ON# must be tied low for at least 1 second and then released.
 263              		.loc 1 74 0
 264 002c 4FF4FA60 		mov	r0, #2000
 265 0030 FFF7FEFF 		bl	CyDelay
  75:.\modem.c     ****     modem_power_pin_Write(1u);
 266              		.loc 1 75 0
 267 0034 4FF00100 		mov	r0, #1
 268 0038 FFF7FEFF 		bl	modem_power_pin_Write
  76:.\modem.c     ****     CyDelay(10000u);  
 269              		.loc 1 76 0
 270 003c 42F21070 		movw	r0, #10000
 271 0040 FFF7FEFF 		bl	CyDelay
  77:.\modem.c     ****     /* changed from CyDelay(5000u);?
  78:.\modem.c     ****         "To get the desirable stability, 
  79:.\modem.c     ****         CC864-DUAL needs at least 10 seconds 
  80:.\modem.c     ****         after the PWRMON goes HIGH.*/
  81:.\modem.c     ****     modem_state = MODEM_STATE_IDLE;
 272              		.loc 1 81 0
 273 0044 40F20003 		movw	r3, #:lower16:modem_state
 274 0048 C0F20003 		movt	r3, #:upper16:modem_state
 275 004c 4FF00102 		mov	r2, #1
 276 0050 1A70     		strb	r2, [r3, #0]
  82:.\modem.c     ****     return modem_state;
 277              		.loc 1 82 0
 278 0052 40F20003 		movw	r3, #:lower16:modem_state
 279 0056 C0F20003 		movt	r3, #:upper16:modem_state
 280 005a 1B78     		ldrb	r3, [r3, #0]	@ zero_extendqisi2
  83:.\modem.c     **** }
 281              		.loc 1 83 0
 282 005c 1846     		mov	r0, r3
 283 005e 80BD     		pop	{r7, pc}
 284              		.cfi_endproc
 285              	.LFE32:
 286              		.size	modem_power_on, .-modem_power_on
 287              		.section	.text.modem_power_off,"ax",%progbits
 288              		.align	2
 289              		.global	modem_power_off
 290              		.thumb
 291              		.thumb_func
 292              		.type	modem_power_off, %function
 293              	modem_power_off:
 294              	.LFB33:
  84:.\modem.c     **** 
  85:.\modem.c     **** uint8 modem_power_off(){
 295              		.loc 1 85 0
 296              		.cfi_startproc
 297              		@ args = 0, pretend = 0, frame = 0
 298              		@ frame_needed = 1, uses_anonymous_args = 0
 299 0000 80B5     		push	{r7, lr}
 300              	.LCFI10:
 301              		.cfi_def_cfa_offset 8
 302 0002 00AF     		add	r7, sp, #0
 303              		.cfi_offset 14, -4
 304              		.cfi_offset 7, -8
 305              	.LCFI11:
 306              		.cfi_def_cfa_register 7
ARM GAS  C:\Users\karunmj\AppData\Local\Temp\ccb1mZ87.s 			page 8


  86:.\modem.c     ****     modem_power_pin_Write(0u);
 307              		.loc 1 86 0
 308 0004 4FF00000 		mov	r0, #0
 309 0008 FFF7FEFF 		bl	modem_power_pin_Write
  87:.\modem.c     ****     CyDelay(2500u);  // To turn the CC864-DUAL off, the ON/OFF Pin must be tied low for 2 second an
 310              		.loc 1 87 0
 311 000c 40F6C410 		movw	r0, #2500
 312 0010 FFF7FEFF 		bl	CyDelay
  88:.\modem.c     ****     modem_power_pin_Write(1u);
 313              		.loc 1 88 0
 314 0014 4FF00100 		mov	r0, #1
 315 0018 FFF7FEFF 		bl	modem_power_pin_Write
  89:.\modem.c     ****     CyDelay(5000u); 
 316              		.loc 1 89 0
 317 001c 41F28830 		movw	r0, #5000
 318 0020 FFF7FEFF 		bl	CyDelay
  90:.\modem.c     ****     /* CyDelay(5000u); // wait for module to turn off
  91:.\modem.c     ****         "Normally it will be above 10 seconds later from releasing
  92:.\modem.c     ****         ON/OFF# and DTE should monitor the status of PWRMON to see the
  93:.\modem.c     ****         actual power off."  */
  94:.\modem.c     ****     ControlReg_Modem_Write(0u);
 319              		.loc 1 94 0
 320 0024 4FF00000 		mov	r0, #0
 321 0028 FFF7FEFF 		bl	ControlReg_Modem_Write
  95:.\modem.c     ****     modem_voltage_pin_Write(1u); // cut power to modem
 322              		.loc 1 95 0
 323 002c 4FF00100 		mov	r0, #1
 324 0030 FFF7FEFF 		bl	modem_voltage_pin_Write
  96:.\modem.c     ****     modem_power_pin_Write(0u); //kill modem power pin as well
 325              		.loc 1 96 0
 326 0034 4FF00000 		mov	r0, #0
 327 0038 FFF7FEFF 		bl	modem_power_pin_Write
  97:.\modem.c     ****     modem_reset_pin_Write(0u);
 328              		.loc 1 97 0
 329 003c 4FF00000 		mov	r0, #0
 330 0040 FFF7FEFF 		bl	modem_reset_pin_Write
  98:.\modem.c     ****     modem_state = MODEM_STATE_OFF;
 331              		.loc 1 98 0
 332 0044 40F20003 		movw	r3, #:lower16:modem_state
 333 0048 C0F20003 		movt	r3, #:upper16:modem_state
 334 004c 4FF00002 		mov	r2, #0
 335 0050 1A70     		strb	r2, [r3, #0]
  99:.\modem.c     ****     return modem_state;
 336              		.loc 1 99 0
 337 0052 40F20003 		movw	r3, #:lower16:modem_state
 338 0056 C0F20003 		movt	r3, #:upper16:modem_state
 339 005a 1B78     		ldrb	r3, [r3, #0]	@ zero_extendqisi2
 100:.\modem.c     **** }
 340              		.loc 1 100 0
 341 005c 1846     		mov	r0, r3
 342 005e 80BD     		pop	{r7, pc}
 343              		.cfi_endproc
 344              	.LFE33:
 345              		.size	modem_power_off, .-modem_power_off
 346              		.section	.text.modem_reset,"ax",%progbits
 347              		.align	2
 348              		.global	modem_reset
ARM GAS  C:\Users\karunmj\AppData\Local\Temp\ccb1mZ87.s 			page 9


 349              		.thumb
 350              		.thumb_func
 351              		.type	modem_reset, %function
 352              	modem_reset:
 353              	.LFB34:
 101:.\modem.c     **** 
 102:.\modem.c     **** uint8 modem_reset(){
 354              		.loc 1 102 0
 355              		.cfi_startproc
 356              		@ args = 0, pretend = 0, frame = 0
 357              		@ frame_needed = 1, uses_anonymous_args = 0
 358 0000 80B5     		push	{r7, lr}
 359              	.LCFI12:
 360              		.cfi_def_cfa_offset 8
 361 0002 00AF     		add	r7, sp, #0
 362              		.cfi_offset 14, -4
 363              		.cfi_offset 7, -8
 364              	.LCFI13:
 365              		.cfi_def_cfa_register 7
 103:.\modem.c     ****     if (modem_state != MODEM_STATE_OFF) { // The modem is idle/ready (powered on)
 366              		.loc 1 103 0
 367 0004 40F20003 		movw	r3, #:lower16:modem_state
 368 0008 C0F20003 		movt	r3, #:upper16:modem_state
 369 000c 1B78     		ldrb	r3, [r3, #0]	@ zero_extendqisi2
 370 000e 002B     		cmp	r3, #0
 371 0010 16D0     		beq	.L16
 104:.\modem.c     ****         //modem_reset_pin_Write(0u); //provide power to modem
 105:.\modem.c     ****         modem_reset_pin_Write(0u);
 372              		.loc 1 105 0
 373 0012 4FF00000 		mov	r0, #0
 374 0016 FFF7FEFF 		bl	modem_reset_pin_Write
 106:.\modem.c     ****         CyDelay(500u);  // To reset and to reboot the module, 
 375              		.loc 1 106 0
 376 001a 4FF4FA70 		mov	r0, #500
 377 001e FFF7FEFF 		bl	CyDelay
 107:.\modem.c     ****                          // the RESET pin must be tied low for at least 200 milliseconds and then r
 108:.\modem.c     ****         modem_reset_pin_Write(1u);
 378              		.loc 1 108 0
 379 0022 4FF00100 		mov	r0, #1
 380 0026 FFF7FEFF 		bl	modem_reset_pin_Write
 109:.\modem.c     ****         //CyDelay(5000u);
 110:.\modem.c     ****         CyDelay(10000u);
 381              		.loc 1 110 0
 382 002a 42F21070 		movw	r0, #10000
 383 002e FFF7FEFF 		bl	CyDelay
 111:.\modem.c     ****         modem_state = MODEM_STATE_IDLE;
 384              		.loc 1 111 0
 385 0032 40F20003 		movw	r3, #:lower16:modem_state
 386 0036 C0F20003 		movt	r3, #:upper16:modem_state
 387 003a 4FF00102 		mov	r2, #1
 388 003e 1A70     		strb	r2, [r3, #0]
 389              	.L16:
 112:.\modem.c     ****     }
 113:.\modem.c     ****     return modem_state;
 390              		.loc 1 113 0
 391 0040 40F20003 		movw	r3, #:lower16:modem_state
 392 0044 C0F20003 		movt	r3, #:upper16:modem_state
ARM GAS  C:\Users\karunmj\AppData\Local\Temp\ccb1mZ87.s 			page 10


 393 0048 1B78     		ldrb	r3, [r3, #0]	@ zero_extendqisi2
 114:.\modem.c     **** }
 394              		.loc 1 114 0
 395 004a 1846     		mov	r0, r3
 396 004c 80BD     		pop	{r7, pc}
 397              		.cfi_endproc
 398              	.LFE34:
 399              		.size	modem_reset, .-modem_reset
 400 004e 00BF     		.section	.rodata
 401              		.align	2
 402              	.LC0:
 403 0000 41542353 		.ascii	"AT#SGACT=1,1\015\000"
 403      47414354 
 403      3D312C31 
 403      0D00
 404 000e 0000     		.align	2
 405              	.LC1:
 406 0010 4F4B00   		.ascii	"OK\000"
 407 0013 00       		.align	2
 408              	.LC2:
 409 0014 28415423 		.ascii	"(AT#SGACT=1,1) No IP Address Assigned.\000"
 409      53474143 
 409      543D312C 
 409      3129204E 
 409      6F204950 
 410              		.section	.text.modem_connect,"ax",%progbits
 411              		.align	2
 412              		.global	modem_connect
 413              		.thumb
 414              		.thumb_func
 415              		.type	modem_connect, %function
 416              	modem_connect:
 417              	.LFB35:
 115:.\modem.c     **** 
 116:.\modem.c     **** uint8 modem_connect(){
 418              		.loc 1 116 0
 419              		.cfi_startproc
 420              		@ args = 0, pretend = 0, frame = 0
 421              		@ frame_needed = 1, uses_anonymous_args = 0
 422 0000 80B5     		push	{r7, lr}
 423              	.LCFI14:
 424              		.cfi_def_cfa_offset 8
 425 0002 00AF     		add	r7, sp, #0
 426              		.cfi_offset 14, -4
 427              		.cfi_offset 7, -8
 428              	.LCFI15:
 429              		.cfi_def_cfa_register 7
 117:.\modem.c     ****     if(at_write_command("AT#SGACT=1,1\r","OK",15000u) == 1){
 430              		.loc 1 117 0
 431 0004 40F20000 		movw	r0, #:lower16:.LC0
 432 0008 C0F20000 		movt	r0, #:upper16:.LC0
 433 000c 40F20001 		movw	r1, #:lower16:.LC1
 434 0010 C0F20001 		movt	r1, #:upper16:.LC1
 435 0014 43F69822 		movw	r2, #15000
 436 0018 FFF7FEFF 		bl	at_write_command
 437 001c 0346     		mov	r3, r0
 438 001e 012B     		cmp	r3, #1
ARM GAS  C:\Users\karunmj\AppData\Local\Temp\ccb1mZ87.s 			page 11


 439 0020 07D1     		bne	.L19
 118:.\modem.c     ****         modem_state = MODEM_STATE_READY;
 440              		.loc 1 118 0
 441 0022 40F20003 		movw	r3, #:lower16:modem_state
 442 0026 C0F20003 		movt	r3, #:upper16:modem_state
 443 002a 4FF00302 		mov	r2, #3
 444 002e 1A70     		strb	r2, [r3, #0]
 445 0030 05E0     		b	.L20
 446              	.L19:
 119:.\modem.c     ****         //return 1u; // connected to network
 120:.\modem.c     ****     }
 121:.\modem.c     ****     else debug_write("(AT#SGACT=1,1) No IP Address Assigned.");
 447              		.loc 1 121 0
 448 0032 40F20000 		movw	r0, #:lower16:.LC2
 449 0036 C0F20000 		movt	r0, #:upper16:.LC2
 450 003a FFF7FEFF 		bl	debug_write
 451              	.L20:
 122:.\modem.c     **** 
 123:.\modem.c     ****     return modem_state;
 452              		.loc 1 123 0
 453 003e 40F20003 		movw	r3, #:lower16:modem_state
 454 0042 C0F20003 		movt	r3, #:upper16:modem_state
 455 0046 1B78     		ldrb	r3, [r3, #0]	@ zero_extendqisi2
 124:.\modem.c     ****     
 125:.\modem.c     **** /*
 126:.\modem.c     ****     if(at_write_command("AT+CREG=1\r","OK",5000u)){
 127:.\modem.c     ****         if(at_write_command("AT+CREG?\r","OK",5000u)){
 128:.\modem.c     ****         //if(!at_write_command("AT#CGPADDR=1\r","\"",5000u)){
 129:.\modem.c     ****             if(at_write_command("AT#SGACT=1,1\r","OK",30000u)){
 130:.\modem.c     ****                 modem_state = MODEM_STATE_READY;
 131:.\modem.c     ****                 //return 1u; // connected to network
 132:.\modem.c     ****             }
 133:.\modem.c     ****             else debug_write("(AT#SGACT=1,1) No IP Address Assigned.");
 134:.\modem.c     ****         }
 135:.\modem.c     ****        else debug_write("(AT#CGPADDR=1) No IP Address Exists.");   Returns IP address.. should be c
 136:.\modem.c     ****     }
 137:.\modem.c     ****     else debug_write("(AT+CREG=1) Could not register to network."); CREG reports registration statu
 138:.\modem.c     ****     
 139:.\modem.c     ****     return 0u;
 140:.\modem.c     **** */
 141:.\modem.c     **** /*
 142:.\modem.c     ****     at_write_command("AT+CSQ\r","OK",5000u); // get signal strength
 143:.\modem.c     ****     
 144:.\modem.c     ****     if (!at_write_command("AT+CREG=1\r","OK",5000u)) { // look for network
 145:.\modem.c     ****         debug_write("(AT+CREG=1) Could not register to network.");
 146:.\modem.c     ****     }
 147:.\modem.c     ****     
 148:.\modem.c     ****     at_write_command("AT#SCFG=1,1,0,0,1200,0\r","OK",5000u); // config parameter
 149:.\modem.c     ****     
 150:.\modem.c     ****     if (at_write_command("AT#CGPADDR=1\r","OK",5000u)) {// check if ip address exists
 151:.\modem.c     ****         debug_write("(AT#CGPADDR=1) No IP Address Exists.");    
 152:.\modem.c     ****     }
 153:.\modem.c     ****     
 154:.\modem.c     ****     at_write_command("AT#SGACT?","OK",30000u);
 155:.\modem.c     ****     
 156:.\modem.c     ****     uint8 success  = at_write_command("AT#SGACT=1,1\r","OK",30000u); // This command should return 
 157:.\modem.c     ****     //success = at_write_command("AT#SD=1,0,50000,\"141.212.136.222\",0,0,1\r","OK",5000u); // conn
ARM GAS  C:\Users\karunmj\AppData\Local\Temp\ccb1mZ87.s 			page 12


 158:.\modem.c     ****     
 159:.\modem.c     ****     if (!success) {
 160:.\modem.c     ****         debug_write("(AT#SGACT=1,1) No IP Address Assigned.");
 161:.\modem.c     ****     }
 162:.\modem.c     ****     
 163:.\modem.c     ****     return success;
 164:.\modem.c     ****     */
 165:.\modem.c     ****     
 166:.\modem.c     **** }
 456              		.loc 1 166 0
 457 0048 1846     		mov	r0, r3
 458 004a 80BD     		pop	{r7, pc}
 459              		.cfi_endproc
 460              	.LFE35:
 461              		.size	modem_connect, .-modem_connect
 462              		.section	.rodata
 463 003b 00       		.align	2
 464              	.LC3:
 465 003c 41542353 		.ascii	"AT#SH=1\000"
 465      483D3100 
 466              		.align	2
 467              	.LC4:
 468 0044 41542353 		.ascii	"AT#SGACT=1,0\000"
 468      47414354 
 468      3D312C30 
 468      00
 469 0051 000000   		.align	2
 470              	.LC5:
 471 0054 28415423 		.ascii	"(AT#SGACT=1,0) Could not disconnect.\000"
 471      53474143 
 471      543D312C 
 471      30292043 
 471      6F756C64 
 472 0079 000000   		.align	2
 473              	.LC6:
 474 007c 28415423 		.ascii	"(AT#SH=1) Could not close socket.\000"
 474      53483D31 
 474      2920436F 
 474      756C6420 
 474      6E6F7420 
 475 009e 0000     		.align	2
 476              	.LC7:
 477 00a0 286D6F64 		.ascii	"(modem_state != MODEM_STATE_READY) modem_state = MO"
 477      656D5F73 
 477      74617465 
 477      20213D20 
 477      4D4F4445 
 478 00d3 44454D5F 		.ascii	"DEM_STATE_OFF\000"
 478      53544154 
 478      455F4F46 
 478      4600
 479 00e1 000000   		.align	2
 480              	.LC8:
 481 00e4 286D6F64 		.ascii	"(modem_state != MODEM_STATE_READY) modem_state = MO"
 481      656D5F73 
 481      74617465 
 481      20213D20 
ARM GAS  C:\Users\karunmj\AppData\Local\Temp\ccb1mZ87.s 			page 13


 481      4D4F4445 
 482 0117 44454D5F 		.ascii	"DEM_STATE_IDLE\000"
 482      53544154 
 482      455F4944 
 482      4C4500
 483              		.section	.text.modem_disconnect,"ax",%progbits
 484              		.align	2
 485              		.global	modem_disconnect
 486              		.thumb
 487              		.thumb_func
 488              		.type	modem_disconnect, %function
 489              	modem_disconnect:
 490              	.LFB36:
 167:.\modem.c     **** 
 168:.\modem.c     **** uint8 modem_disconnect(){
 491              		.loc 1 168 0
 492              		.cfi_startproc
 493              		@ args = 0, pretend = 0, frame = 0
 494              		@ frame_needed = 1, uses_anonymous_args = 0
 495 0000 80B5     		push	{r7, lr}
 496              	.LCFI16:
 497              		.cfi_def_cfa_offset 8
 498 0002 00AF     		add	r7, sp, #0
 499              		.cfi_offset 14, -4
 500              		.cfi_offset 7, -8
 501              	.LCFI17:
 502              		.cfi_def_cfa_register 7
 169:.\modem.c     ****     // Proceed if modem is not connected to network.  Otherwise, try to disconnect from the network
 170:.\modem.c     ****     if(modem_state != MODEM_STATE_READY) {
 503              		.loc 1 170 0
 504 0004 40F20003 		movw	r3, #:lower16:modem_state
 505 0008 C0F20003 		movt	r3, #:upper16:modem_state
 506 000c 1B78     		ldrb	r3, [r3, #0]	@ zero_extendqisi2
 507 000e 032B     		cmp	r3, #3
 508 0010 33D0     		beq	.L23
 171:.\modem.c     ****         if(at_write_command("AT#SH=1","OK",10000u) == 1){
 509              		.loc 1 171 0
 510 0012 40F20000 		movw	r0, #:lower16:.LC3
 511 0016 C0F20000 		movt	r0, #:upper16:.LC3
 512 001a 40F20001 		movw	r1, #:lower16:.LC1
 513 001e C0F20001 		movt	r1, #:upper16:.LC1
 514 0022 42F21072 		movw	r2, #10000
 515 0026 FFF7FEFF 		bl	at_write_command
 516 002a 0346     		mov	r3, r0
 517 002c 012B     		cmp	r3, #1
 518 002e 1DD1     		bne	.L24
 172:.\modem.c     ****             if(at_write_command("AT#SGACT=1,0","OK",10000u) == 1){
 519              		.loc 1 172 0
 520 0030 40F20000 		movw	r0, #:lower16:.LC4
 521 0034 C0F20000 		movt	r0, #:upper16:.LC4
 522 0038 40F20001 		movw	r1, #:lower16:.LC1
 523 003c C0F20001 		movt	r1, #:upper16:.LC1
 524 0040 42F21072 		movw	r2, #10000
 525 0044 FFF7FEFF 		bl	at_write_command
 526 0048 0346     		mov	r3, r0
 527 004a 012B     		cmp	r3, #1
 528 004c 07D1     		bne	.L25
ARM GAS  C:\Users\karunmj\AppData\Local\Temp\ccb1mZ87.s 			page 14


 173:.\modem.c     ****                 modem_state = MODEM_STATE_IDLE;
 529              		.loc 1 173 0
 530 004e 40F20003 		movw	r3, #:lower16:modem_state
 531 0052 C0F20003 		movt	r3, #:upper16:modem_state
 532 0056 4FF00102 		mov	r2, #1
 533 005a 1A70     		strb	r2, [r3, #0]
 174:.\modem.c     ****                 //return 1u;
 175:.\modem.c     ****             }
 176:.\modem.c     ****             else {
 177:.\modem.c     ****                 debug_write("(AT#SGACT=1,0) Could not disconnect.");
 178:.\modem.c     ****             }
 179:.\modem.c     ****         }
 180:.\modem.c     ****         else {
 181:.\modem.c     ****             debug_write("(AT#SH=1) Could not close socket.");
 534              		.loc 1 181 0
 535 005c 28E0     		b	.L28
 536              	.L25:
 537              		.loc 1 177 0
 538 005e 40F20000 		movw	r0, #:lower16:.LC5
 539 0062 C0F20000 		movt	r0, #:upper16:.LC5
 540 0066 FFF7FEFF 		bl	debug_write
 541              		.loc 1 181 0
 542 006a 21E0     		b	.L28
 543              	.L24:
 544 006c 40F20000 		movw	r0, #:lower16:.LC6
 545 0070 C0F20000 		movt	r0, #:upper16:.LC6
 546 0074 FFF7FEFF 		bl	debug_write
 547 0078 1AE0     		b	.L28
 548              	.L23:
 182:.\modem.c     ****         }
 183:.\modem.c     ****     }
 184:.\modem.c     ****     else {
 185:.\modem.c     ****         if (modem_state == MODEM_STATE_OFF) {
 549              		.loc 1 185 0
 550 007a 40F20003 		movw	r3, #:lower16:modem_state
 551 007e C0F20003 		movt	r3, #:upper16:modem_state
 552 0082 1B78     		ldrb	r3, [r3, #0]	@ zero_extendqisi2
 553 0084 002B     		cmp	r3, #0
 554 0086 06D1     		bne	.L29
 186:.\modem.c     ****             debug_write( "(modem_state != MODEM_STATE_READY) modem_state = MODEM_STATE_OFF" );
 555              		.loc 1 186 0
 556 0088 40F20000 		movw	r0, #:lower16:.LC7
 557 008c C0F20000 		movt	r0, #:upper16:.LC7
 558 0090 FFF7FEFF 		bl	debug_write
 559 0094 0CE0     		b	.L28
 560              	.L29:
 187:.\modem.c     ****         }
 188:.\modem.c     ****         else if (modem_state == MODEM_STATE_IDLE) {
 561              		.loc 1 188 0
 562 0096 40F20003 		movw	r3, #:lower16:modem_state
 563 009a C0F20003 		movt	r3, #:upper16:modem_state
 564 009e 1B78     		ldrb	r3, [r3, #0]	@ zero_extendqisi2
 565 00a0 012B     		cmp	r3, #1
 566 00a2 05D1     		bne	.L28
 189:.\modem.c     ****             debug_write( "(modem_state != MODEM_STATE_READY) modem_state = MODEM_STATE_IDLE" );
 567              		.loc 1 189 0
 568 00a4 40F20000 		movw	r0, #:lower16:.LC8
ARM GAS  C:\Users\karunmj\AppData\Local\Temp\ccb1mZ87.s 			page 15


 569 00a8 C0F20000 		movt	r0, #:upper16:.LC8
 570 00ac FFF7FEFF 		bl	debug_write
 571              	.L28:
 190:.\modem.c     ****         }
 191:.\modem.c     ****     }
 192:.\modem.c     ****     return modem_state; 
 572              		.loc 1 192 0
 573 00b0 40F20003 		movw	r3, #:lower16:modem_state
 574 00b4 C0F20003 		movt	r3, #:upper16:modem_state
 575 00b8 1B78     		ldrb	r3, [r3, #0]	@ zero_extendqisi2
 193:.\modem.c     ****     //return 0u; // failed to disconnect
 194:.\modem.c     **** }
 576              		.loc 1 194 0
 577 00ba 1846     		mov	r0, r3
 578 00bc 80BD     		pop	{r7, pc}
 579              		.cfi_endproc
 580              	.LFE36:
 581              		.size	modem_disconnect, .-modem_disconnect
 582 00be 00BF     		.section	.rodata
 583 0126 0000     		.align	2
 584              	.LC9:
 585 0128 41542353 		.ascii	"AT#SD=1,0,8081,\"api.xively.com\",0,0,1\015\000"
 585      443D312C 
 585      302C3830 
 585      38312C22 
 585      6170692E 
 586 014f 00       		.align	2
 587              	.LC10:
 588 0150 41542353 		.ascii	"AT#SSEND=1\015\000"
 588      53454E44 
 588      3D310D00 
 589              		.align	2
 590              	.LC11:
 591 015c 3E00     		.ascii	">\000"
 592 015e 0000     		.align	2
 593              	.LC12:
 594 0160 25731A00 		.ascii	"%s\032\000"
 595              		.align	2
 596              	.LC13:
 597 0164 2861745F 		.ascii	"(at_write_command(sendBuffer,\"OK\"...) Data sent u"
 597      77726974 
 597      655F636F 
 597      6D6D616E 
 597      64287365 
 598 0195 6E737563 		.ascii	"nsuccessfully.\000"
 598      63657373 
 598      66756C6C 
 598      792E00
 599              		.align	2
 600              	.LC14:
 601 01a4 28415423 		.ascii	"(AT#SSEND=1) Could not send data through connected "
 601      5353454E 
 601      443D3129 
 601      20436F75 
 601      6C64206E 
 602 01d7 736F636B 		.ascii	"socket.\000"
 602      65742E00 
ARM GAS  C:\Users\karunmj\AppData\Local\Temp\ccb1mZ87.s 			page 16


 603 01df 00       		.align	2
 604              	.LC15:
 605 01e0 28415423 		.ascii	"(AT#SD=1,0,8081,\"api.xively.com\",0,0,1\015) Could"
 605      53443D31 
 605      2C302C38 
 605      3038312C 
 605      22617069 
 606 020e 206E6F74 		.ascii	" not connect to server.\000"
 606      20636F6E 
 606      6E656374 
 606      20746F20 
 606      73657276 
 607 0226 0000     		.align	2
 608              	.LC16:
 609 0228 4D41585F 		.ascii	"MAX_SEND_ATTEMPTS Exceeded.\000"
 609      53454E44 
 609      5F415454 
 609      454D5054 
 609      53204578 
 610              		.section	.text.modem_send_packet,"ax",%progbits
 611              		.align	2
 612              		.global	modem_send_packet
 613              		.thumb
 614              		.thumb_func
 615              		.type	modem_send_packet, %function
 616              	modem_send_packet:
 617              	.LFB37:
 195:.\modem.c     **** 
 196:.\modem.c     **** // send packet to Xively server
 197:.\modem.c     **** uint8 modem_send_packet(char* packet){
 618              		.loc 1 197 0
 619              		.cfi_startproc
 620              		@ args = 0, pretend = 0, frame = 760
 621              		@ frame_needed = 1, uses_anonymous_args = 0
 622 0000 80B5     		push	{r7, lr}
 623              	.LCFI18:
 624              		.cfi_def_cfa_offset 8
 625 0002 ADF53E7D 		sub	sp, sp, #760
 626              	.LCFI19:
 627              		.cfi_def_cfa_offset 768
 628 0006 00AF     		add	r7, sp, #0
 629              		.cfi_offset 14, -4
 630              		.cfi_offset 7, -8
 631              	.LCFI20:
 632              		.cfi_def_cfa_register 7
 633 0008 07F10403 		add	r3, r7, #4
 634 000c 1860     		str	r0, [r3, #0]
 198:.\modem.c     **** 
 199:.\modem.c     ****     
 200:.\modem.c     ****     /*
 201:.\modem.c     ****     // provide power to rx and tx pins
 202:.\modem.c     ****     //uart_rx_voltage_pin_Write(0u);
 203:.\modem.c     ****     //uart_tx_voltage_pin_Write(0u);
 204:.\modem.c     ****     
 205:.\modem.c     ****     // join network
 206:.\modem.c     ****     uint8 connected = modem_connect();
 207:.\modem.c     ****     */
ARM GAS  C:\Users\karunmj\AppData\Local\Temp\ccb1mZ87.s 			page 17


 208:.\modem.c     ****     uint8 attempts = 0;
 635              		.loc 1 208 0
 636 000e 4FF00003 		mov	r3, #0
 637 0012 87F8F732 		strb	r3, [r7, #759]
 209:.\modem.c     ****     
 210:.\modem.c     ****     for(attempts = 0; attempts < MAX_SEND_ATTEMPTS; attempts++) {
 638              		.loc 1 210 0
 639 0016 4FF00003 		mov	r3, #0
 640 001a 87F8F732 		strb	r3, [r7, #759]
 641 001e 71E0     		b	.L32
 642              	.L41:
 211:.\modem.c     ****         
 212:.\modem.c     ****         // Proceed if modem is already connected.  Otherwise, try to join the network and proceed
 213:.\modem.c     ****         if( modem_state == MODEM_STATE_READY || modem_connect() != 0){ 
 643              		.loc 1 213 0
 644 0020 40F20003 		movw	r3, #:lower16:modem_state
 645 0024 C0F20003 		movt	r3, #:upper16:modem_state
 646 0028 1B78     		ldrb	r3, [r3, #0]	@ zero_extendqisi2
 647 002a 032B     		cmp	r3, #3
 648 002c 04D0     		beq	.L33
 649 002e FFF7FEFF 		bl	modem_connect
 650 0032 0346     		mov	r3, r0
 651 0034 002B     		cmp	r3, #0
 652 0036 59D0     		beq	.L34
 653              	.L33:
 214:.\modem.c     ****             // write to AWS server  - 184.72.228.61\",0,0,1
 215:.\modem.c     ****             //if(at_write_command("AT#SD=1,0,50030,\"184.72.228.61\",0,0,1\r","OK",5000u) != 0){
 216:.\modem.c     ****             if(at_write_command("AT#SD=1,0,8081,\"api.xively.com\",0,0,1\r","OK",10000u) != 0){
 654              		.loc 1 216 0
 655 0038 40F20000 		movw	r0, #:lower16:.LC9
 656 003c C0F20000 		movt	r0, #:upper16:.LC9
 657 0040 40F20001 		movw	r1, #:lower16:.LC1
 658 0044 C0F20001 		movt	r1, #:upper16:.LC1
 659 0048 42F21072 		movw	r2, #10000
 660 004c FFF7FEFF 		bl	at_write_command
 661 0050 0346     		mov	r3, r0
 662 0052 002B     		cmp	r3, #0
 663 0054 44D0     		beq	.L35
 217:.\modem.c     ****                 if(at_write_command("AT#SSEND=1\r",">",10000u) != 0){
 664              		.loc 1 217 0
 665 0056 40F20000 		movw	r0, #:lower16:.LC10
 666 005a C0F20000 		movt	r0, #:upper16:.LC10
 667 005e 40F20001 		movw	r1, #:lower16:.LC11
 668 0062 C0F20001 		movt	r1, #:upper16:.LC11
 669 0066 42F21072 		movw	r2, #10000
 670 006a FFF7FEFF 		bl	at_write_command
 671 006e 0346     		mov	r3, r0
 672 0070 002B     		cmp	r3, #0
 673 0072 2ED0     		beq	.L36
 674              	.LBB3:
 218:.\modem.c     ****                     //if(at_write_command(packet,"OK",20000u) != 0){
 219:.\modem.c     ****                     char sendBuffer[750];
 220:.\modem.c     ****                     sprintf(sendBuffer, "%s\032", packet);
 675              		.loc 1 220 0
 676 0074 07F10802 		add	r2, r7, #8
 677 0078 07F10403 		add	r3, r7, #4
 678 007c 1046     		mov	r0, r2
ARM GAS  C:\Users\karunmj\AppData\Local\Temp\ccb1mZ87.s 			page 18


 679 007e 40F20001 		movw	r1, #:lower16:.LC12
 680 0082 C0F20001 		movt	r1, #:upper16:.LC12
 681 0086 1A68     		ldr	r2, [r3, #0]
 682 0088 FFF7FEFF 		bl	sprintf
 221:.\modem.c     ****                     if(at_write_command(sendBuffer,"OK",15000u) != 0){
 683              		.loc 1 221 0
 684 008c 07F10803 		add	r3, r7, #8
 685 0090 1846     		mov	r0, r3
 686 0092 40F20001 		movw	r1, #:lower16:.LC1
 687 0096 C0F20001 		movt	r1, #:upper16:.LC1
 688 009a 43F69822 		movw	r2, #15000
 689 009e FFF7FEFF 		bl	at_write_command
 690 00a2 0346     		mov	r3, r0
 691 00a4 002B     		cmp	r3, #0
 692 00a6 0DD0     		beq	.L37
 222:.\modem.c     ****                         modem_state = MODEM_STATE_IDLE;
 693              		.loc 1 222 0
 694 00a8 40F20003 		movw	r3, #:lower16:modem_state
 695 00ac C0F20003 		movt	r3, #:upper16:modem_state
 696 00b0 4FF00102 		mov	r2, #1
 697 00b4 1A70     		strb	r2, [r3, #0]
 223:.\modem.c     ****                         CyDelay(1000u); //debug_write("Packet sent successfully.");
 698              		.loc 1 223 0
 699 00b6 4FF47A70 		mov	r0, #1000
 700 00ba FFF7FEFF 		bl	CyDelay
 224:.\modem.c     ****                         return 1u;   // return 1 if succesfully sent sms
 701              		.loc 1 224 0
 702 00be 4FF00103 		mov	r3, #1
 703 00c2 2DE0     		b	.L38
 704              	.L37:
 225:.\modem.c     ****                     }
 226:.\modem.c     ****                     else {
 227:.\modem.c     ****                         debug_write("(at_write_command(sendBuffer,\"OK\"...) Data sent unsuccessful
 705              		.loc 1 227 0
 706 00c4 40F20000 		movw	r0, #:lower16:.LC13
 707 00c8 C0F20000 		movt	r0, #:upper16:.LC13
 708 00cc FFF7FEFF 		bl	debug_write
 709              	.LBE3:
 228:.\modem.c     ****                     }
 229:.\modem.c     ****                 }
 230:.\modem.c     ****                 else {
 231:.\modem.c     ****                     debug_write("(AT#SSEND=1) Could not send data through connected socket.");
 710              		.loc 1 231 0
 711 00d0 0CE0     		b	.L34
 712              	.L36:
 713 00d2 40F20000 		movw	r0, #:lower16:.LC14
 714 00d6 C0F20000 		movt	r0, #:upper16:.LC14
 715 00da FFF7FEFF 		bl	debug_write
 716 00de 05E0     		b	.L34
 717              	.L35:
 232:.\modem.c     ****                 }
 233:.\modem.c     ****             }
 234:.\modem.c     ****             else {
 235:.\modem.c     ****                 debug_write("(AT#SD=1,0,8081,\"api.xively.com\",0,0,1\r) Could not connect to serve
 718              		.loc 1 235 0
 719 00e0 40F20000 		movw	r0, #:lower16:.LC15
 720 00e4 C0F20000 		movt	r0, #:upper16:.LC15
ARM GAS  C:\Users\karunmj\AppData\Local\Temp\ccb1mZ87.s 			page 19


 721 00e8 FFF7FEFF 		bl	debug_write
 722              	.L34:
 236:.\modem.c     ****             }
 237:.\modem.c     ****         }
 238:.\modem.c     ****     
 239:.\modem.c     ****         if (attempts < MAX_SEND_ATTEMPTS-1) { // Don't reset the modem on the last attempt since it
 723              		.loc 1 239 0
 724 00ec 97F8F732 		ldrb	r3, [r7, #759]	@ zero_extendqisi2
 725 00f0 002B     		cmp	r3, #0
 726 00f2 01D1     		bne	.L40
 240:.\modem.c     ****             modem_reset();
 727              		.loc 1 240 0
 728 00f4 FFF7FEFF 		bl	modem_reset
 729              	.L40:
 730              		.loc 1 210 0
 731 00f8 97F8F732 		ldrb	r3, [r7, #759]
 732 00fc 03F10103 		add	r3, r3, #1
 733 0100 87F8F732 		strb	r3, [r7, #759]
 734              	.L32:
 735 0104 97F8F732 		ldrb	r3, [r7, #759]	@ zero_extendqisi2
 736 0108 012B     		cmp	r3, #1
 737 010a 89D9     		bls	.L41
 241:.\modem.c     ****         }
 242:.\modem.c     ****         
 243:.\modem.c     ****     }    
 244:.\modem.c     ****     
 245:.\modem.c     ****     // cut power to rx and tx pins
 246:.\modem.c     ****     //uart_rx_voltage_pin_Write(1u);
 247:.\modem.c     ****     //uart_rx_voltage_pin_Write(1u);
 248:.\modem.c     ****     debug_write("MAX_SEND_ATTEMPTS Exceeded.");
 738              		.loc 1 248 0
 739 010c 40F20000 		movw	r0, #:lower16:.LC16
 740 0110 C0F20000 		movt	r0, #:upper16:.LC16
 741 0114 FFF7FEFF 		bl	debug_write
 249:.\modem.c     ****     modem_disconnect();
 742              		.loc 1 249 0
 743 0118 FFF7FEFF 		bl	modem_disconnect
 250:.\modem.c     ****     return 0u;   // return 0 if failure to send sms
 744              		.loc 1 250 0
 745 011c 4FF00003 		mov	r3, #0
 746              	.L38:
 251:.\modem.c     **** }
 747              		.loc 1 251 0
 748 0120 1846     		mov	r0, r3
 749 0122 07F53E77 		add	r7, r7, #760
 750 0126 BD46     		mov	sp, r7
 751 0128 80BD     		pop	{r7, pc}
 752              		.cfi_endproc
 753              	.LFE37:
 754              		.size	modem_send_packet, .-modem_send_packet
 755 012a 00BF     		.section	.rodata
 756              		.align	2
 757              	.LC17:
 758 0244 6D6F6465 		.ascii	"modem_get_packet(): csv length > 100\000"
 758      6D5F6765 
 758      745F7061 
 758      636B6574 
ARM GAS  C:\Users\karunmj\AppData\Local\Temp\ccb1mZ87.s 			page 20


 758      28293A20 
 759 0269 000000   		.align	2
 760              	.LC18:
 761 026c 41542353 		.ascii	"AT#SD=1,0,80,\"api.xively.com\",0,0,1\015\000"
 761      443D312C 
 761      302C3830 
 761      2C226170 
 761      692E7869 
 762 0291 000000   		.align	2
 763              	.LC19:
 764 0294 47455420 		.ascii	"GET /v2/feeds/%lu.csv?datastreams=%s HTTP/1.0\015\012"
 764      2F76322F 
 764      66656564 
 764      732F256C 
 764      752E6373 
 765 02c3 00       		.ascii	"\000"
 766              		.align	2
 767              	.LC20:
 768 02c4 582D4170 		.ascii	"X-ApiKey: %s\015\012\015\012\000"
 768      694B6579 
 768      3A202573 
 768      0D0A0D0A 
 768      00
 769 02d5 000000   		.align	2
 770              	.LC21:
 771 02d8 486F7374 		.ascii	"Host: api.xively.com\015\012\000"
 771      3A206170 
 771      692E7869 
 771      76656C79 
 771      2E636F6D 
 772 02ef 00       		.align	2
 773              	.LC22:
 774 02f0 41636365 		.ascii	"Accept: text/csv\015\012\000"
 774      70743A20 
 774      74657874 
 774      2F637376 
 774      0D0A00
 775 0303 00       		.align	2
 776              	.LC23:
 777 0304 1A0D00   		.ascii	"\032\015\000"
 778 0307 00       		.align	2
 779              	.LC24:
 780 0308 41542353 		.ascii	"AT#SRECV=1,700\015\000"
 780      52454356 
 780      3D312C37 
 780      30300D00 
 781              		.align	2
 782              	.LC25:
 783 0318 0D0A0D0A 		.ascii	"\015\012\015\012\000"
 783      00
 784 031d 000000   		.align	2
 785              	.LC26:
 786 0320 28415423 		.ascii	"(AT#SD=1,0,80,\"api.xively.com\",0,0,1) Could not c"
 786      53443D31 
 786      2C302C38 
 786      302C2261 
 786      70692E78 
ARM GAS  C:\Users\karunmj\AppData\Local\Temp\ccb1mZ87.s 			page 21


 787 0351 6F6E6E65 		.ascii	"onnect to server.\000"
 787      63742074 
 787      6F207365 
 787      72766572 
 787      2E00
 788 0363 00       		.align	2
 789              	.LC27:
 790 0364 4D41585F 		.ascii	"MAX_GET_ATTEMPTS Exceeded.\000"
 790      4745545F 
 790      41545445 
 790      4D505453 
 790      20457863 
 791 037f 00       		.section	.text.modem_get_packet,"ax",%progbits
 792              		.align	2
 793              		.global	modem_get_packet
 794              		.thumb
 795              		.thumb_func
 796              		.type	modem_get_packet, %function
 797              	modem_get_packet:
 798              	.LFB38:
 252:.\modem.c     **** 
 253:.\modem.c     **** 
 254:.\modem.c     **** // read packet from Xively server
 255:.\modem.c     **** uint8 modem_get_packet(char* packet, char* csv){
 799              		.loc 1 255 0
 800              		.cfi_startproc
 801              		@ args = 0, pretend = 0, frame = 312
 802              		@ frame_needed = 1, uses_anonymous_args = 0
 803 0000 80B5     		push	{r7, lr}
 804              	.LCFI21:
 805              		.cfi_def_cfa_offset 8
 806 0002 CEB0     		sub	sp, sp, #312
 807              	.LCFI22:
 808              		.cfi_def_cfa_offset 320
 809 0004 00AF     		add	r7, sp, #0
 810              		.cfi_offset 14, -4
 811              		.cfi_offset 7, -8
 812              	.LCFI23:
 813              		.cfi_def_cfa_register 7
 814 0006 07F10403 		add	r3, r7, #4
 815 000a 1860     		str	r0, [r3, #0]
 816 000c 3B46     		mov	r3, r7
 817 000e 1960     		str	r1, [r3, #0]
 256:.\modem.c     ****     
 257:.\modem.c     ****     /*
 258:.\modem.c     ****     // provide power to rx and tx pins
 259:.\modem.c     ****     //uart_rx_voltage_pin_Write(0u);
 260:.\modem.c     ****     //uart_tx_voltage_pin_Write(0u);    
 261:.\modem.c     ****     
 262:.\modem.c     ****     // join network
 263:.\modem.c     ****     uint8 connected = modem_connect();
 264:.\modem.c     ****     */
 265:.\modem.c     ****     char get_str[200], key_str[100];
 266:.\modem.c     ****     uint8 attempts = 0;
 818              		.loc 1 266 0
 819 0010 4FF00003 		mov	r3, #0
 820 0014 87F83731 		strb	r3, [r7, #311]
ARM GAS  C:\Users\karunmj\AppData\Local\Temp\ccb1mZ87.s 			page 22


 267:.\modem.c     ****     
 268:.\modem.c     ****     if (strlen(csv) > 125) {
 821              		.loc 1 268 0
 822 0018 3B46     		mov	r3, r7
 823 001a 1868     		ldr	r0, [r3, #0]
 824 001c FFF7FEFF 		bl	strlen
 825 0020 0346     		mov	r3, r0
 826 0022 7D2B     		cmp	r3, #125
 827 0024 08D9     		bls	.L44
 269:.\modem.c     ****         debug_write("modem_get_packet(): csv length > 100");
 828              		.loc 1 269 0
 829 0026 40F20000 		movw	r0, #:lower16:.LC17
 830 002a C0F20000 		movt	r0, #:upper16:.LC17
 831 002e FFF7FEFF 		bl	debug_write
 270:.\modem.c     ****         return 0u;
 832              		.loc 1 270 0
 833 0032 4FF00003 		mov	r3, #0
 834 0036 EAE0     		b	.L45
 835              	.L44:
 271:.\modem.c     ****     }
 272:.\modem.c     ****             
 273:.\modem.c     ****     for(attempts = 0; attempts < MAX_GET_ATTEMPTS; attempts++) {
 836              		.loc 1 273 0
 837 0038 4FF00003 		mov	r3, #0
 838 003c 87F83731 		strb	r3, [r7, #311]
 839 0040 D6E0     		b	.L46
 840              	.L54:
 274:.\modem.c     ****         // Proceed if modem is already connected.  Otherwise, try to join the network and proceed
 275:.\modem.c     ****         if( modem_state == MODEM_STATE_READY || modem_connect() != 0 ){ 
 841              		.loc 1 275 0
 842 0042 40F20003 		movw	r3, #:lower16:modem_state
 843 0046 C0F20003 		movt	r3, #:upper16:modem_state
 844 004a 1B78     		ldrb	r3, [r3, #0]	@ zero_extendqisi2
 845 004c 032B     		cmp	r3, #3
 846 004e 05D0     		beq	.L47
 847 0050 FFF7FEFF 		bl	modem_connect
 848 0054 0346     		mov	r3, r0
 849 0056 002B     		cmp	r3, #0
 850 0058 00F0BE80 		beq	.L48
 851              	.L47:
 276:.\modem.c     ****             // write to AWS server  - 184.72.228.61\",0,0,1
 277:.\modem.c     ****             //if(at_write_command("AT#SD=1,0,50030,\"184.72.228.61\",0,0,1\r","OK",5000u) != 0){
 278:.\modem.c     ****             if(at_write_command("AT#SD=1,0,80,\"api.xively.com\",0,0,1\r","OK",10000u) != 0){
 852              		.loc 1 278 0
 853 005c 40F20000 		movw	r0, #:lower16:.LC18
 854 0060 C0F20000 		movt	r0, #:upper16:.LC18
 855 0064 40F20001 		movw	r1, #:lower16:.LC1
 856 0068 C0F20001 		movt	r1, #:upper16:.LC1
 857 006c 42F21072 		movw	r2, #10000
 858 0070 FFF7FEFF 		bl	at_write_command
 859 0074 0346     		mov	r3, r0
 860 0076 002B     		cmp	r3, #0
 861 0078 00F0A880 		beq	.L49
 279:.\modem.c     ****                 if(at_write_command("AT#SSEND=1\r",">",10000u) != 0){
 862              		.loc 1 279 0
 863 007c 40F20000 		movw	r0, #:lower16:.LC10
 864 0080 C0F20000 		movt	r0, #:upper16:.LC10
ARM GAS  C:\Users\karunmj\AppData\Local\Temp\ccb1mZ87.s 			page 23


 865 0084 40F20001 		movw	r1, #:lower16:.LC11
 866 0088 C0F20001 		movt	r1, #:upper16:.LC11
 867 008c 42F21072 		movw	r2, #10000
 868 0090 FFF7FEFF 		bl	at_write_command
 869 0094 0346     		mov	r3, r0
 870 0096 002B     		cmp	r3, #0
 871 0098 00F09180 		beq	.L50
 280:.\modem.c     ****                     
 281:.\modem.c     ****                     sprintf(get_str,"GET /v2/feeds/%lu.csv?datastreams=%s HTTP/1.0\r\n", feed_id, c
 872              		.loc 1 281 0
 873 009c 40F20003 		movw	r3, #:lower16:feed_id
 874 00a0 C0F20003 		movt	r3, #:upper16:feed_id
 875 00a4 1A68     		ldr	r2, [r3, #0]
 876 00a6 07F16C01 		add	r1, r7, #108
 877 00aa 3B46     		mov	r3, r7
 878 00ac 0846     		mov	r0, r1
 879 00ae 40F20001 		movw	r1, #:lower16:.LC19
 880 00b2 C0F20001 		movt	r1, #:upper16:.LC19
 881 00b6 1B68     		ldr	r3, [r3, #0]
 882 00b8 FFF7FEFF 		bl	sprintf
 282:.\modem.c     ****                     sprintf(key_str,"X-ApiKey: %s\r\n\r\n", api_key);
 883              		.loc 1 282 0
 884 00bc 40F20003 		movw	r3, #:lower16:api_key
 885 00c0 C0F20003 		movt	r3, #:upper16:api_key
 886 00c4 1B68     		ldr	r3, [r3, #0]
 887 00c6 07F10802 		add	r2, r7, #8
 888 00ca 1046     		mov	r0, r2
 889 00cc 40F20001 		movw	r1, #:lower16:.LC20
 890 00d0 C0F20001 		movt	r1, #:upper16:.LC20
 891 00d4 1A46     		mov	r2, r3
 892 00d6 FFF7FEFF 		bl	sprintf
 283:.\modem.c     ****                     
 284:.\modem.c     ****                     uart_string_reset();
 893              		.loc 1 284 0
 894 00da FFF7FEFF 		bl	uart_string_reset
 285:.\modem.c     ****                     at_write_command(get_str,">",10000u);// CyDelay(500u);
 895              		.loc 1 285 0
 896 00de 07F16C03 		add	r3, r7, #108
 897 00e2 1846     		mov	r0, r3
 898 00e4 40F20001 		movw	r1, #:lower16:.LC11
 899 00e8 C0F20001 		movt	r1, #:upper16:.LC11
 900 00ec 42F21072 		movw	r2, #10000
 901 00f0 FFF7FEFF 		bl	at_write_command
 286:.\modem.c     ****                     at_write_command("Host: api.xively.com\r\n",">",10000u);// CyDelay(500u);
 902              		.loc 1 286 0
 903 00f4 40F20000 		movw	r0, #:lower16:.LC21
 904 00f8 C0F20000 		movt	r0, #:upper16:.LC21
 905 00fc 40F20001 		movw	r1, #:lower16:.LC11
 906 0100 C0F20001 		movt	r1, #:upper16:.LC11
 907 0104 42F21072 		movw	r2, #10000
 908 0108 FFF7FEFF 		bl	at_write_command
 287:.\modem.c     ****                     at_write_command("Accept: text/csv\r\n",">",10000u);// CyDelay(500u);
 909              		.loc 1 287 0
 910 010c 40F20000 		movw	r0, #:lower16:.LC22
 911 0110 C0F20000 		movt	r0, #:upper16:.LC22
 912 0114 40F20001 		movw	r1, #:lower16:.LC11
 913 0118 C0F20001 		movt	r1, #:upper16:.LC11
ARM GAS  C:\Users\karunmj\AppData\Local\Temp\ccb1mZ87.s 			page 24


 914 011c 42F21072 		movw	r2, #10000
 915 0120 FFF7FEFF 		bl	at_write_command
 288:.\modem.c     ****                     at_write_command(key_str,">",10000u);// CyDelay(500u);
 916              		.loc 1 288 0
 917 0124 07F10803 		add	r3, r7, #8
 918 0128 1846     		mov	r0, r3
 919 012a 40F20001 		movw	r1, #:lower16:.LC11
 920 012e C0F20001 		movt	r1, #:upper16:.LC11
 921 0132 42F21072 		movw	r2, #10000
 922 0136 FFF7FEFF 		bl	at_write_command
 289:.\modem.c     ****                     
 290:.\modem.c     ****                     // Successfully Sent AT-Commands for GET Request
 291:.\modem.c     ****                     if(at_write_command("\032\r","OK",15000u) != 0){
 923              		.loc 1 291 0
 924 013a 40F20000 		movw	r0, #:lower16:.LC23
 925 013e C0F20000 		movt	r0, #:upper16:.LC23
 926 0142 40F20001 		movw	r1, #:lower16:.LC1
 927 0146 C0F20001 		movt	r1, #:upper16:.LC1
 928 014a 43F69822 		movw	r2, #15000
 929 014e FFF7FEFF 		bl	at_write_command
 930 0152 0346     		mov	r3, r0
 931 0154 002B     		cmp	r3, #0
 932 0156 2BD0     		beq	.L51
 292:.\modem.c     ****                     
 293:.\modem.c     ****                         // Read GET response from the buffer
 294:.\modem.c     ****                         uart_string_reset();
 933              		.loc 1 294 0
 934 0158 FFF7FEFF 		bl	uart_string_reset
 295:.\modem.c     ****                         CyDelay(5000u);
 935              		.loc 1 295 0
 936 015c 41F28830 		movw	r0, #5000
 937 0160 FFF7FEFF 		bl	CyDelay
 296:.\modem.c     ****                         at_write_command("AT#SRECV=1,700\r","OK",15000u);
 938              		.loc 1 296 0
 939 0164 40F20000 		movw	r0, #:lower16:.LC24
 940 0168 C0F20000 		movt	r0, #:upper16:.LC24
 941 016c 40F20001 		movw	r1, #:lower16:.LC1
 942 0170 C0F20001 		movt	r1, #:upper16:.LC1
 943 0174 43F69822 		movw	r2, #15000
 944 0178 FFF7FEFF 		bl	at_write_command
 297:.\modem.c     ****                         //strcpy(packet, uart_received_string);
 298:.\modem.c     ****                         strcpy(packet, strstr(uart_received_string, "\r\n\r\n")+strlen("\r\n\r\n"))
 945              		.loc 1 298 0
 946 017c 40F20000 		movw	r0, #:lower16:uart_received_string
 947 0180 C0F20000 		movt	r0, #:upper16:uart_received_string
 948 0184 40F20001 		movw	r1, #:lower16:.LC25
 949 0188 C0F20001 		movt	r1, #:upper16:.LC25
 950 018c FFF7FEFF 		bl	strstr
 951 0190 0346     		mov	r3, r0
 952 0192 03F10403 		add	r3, r3, #4
 953 0196 07F10402 		add	r2, r7, #4
 954 019a 1068     		ldr	r0, [r2, #0]
 955 019c 1946     		mov	r1, r3
 956 019e FFF7FEFF 		bl	strcpy
 299:.\modem.c     ****                         
 300:.\modem.c     ****                         CyDelay(1000u); //debug_write("Packet received successfully.");
 957              		.loc 1 300 0
ARM GAS  C:\Users\karunmj\AppData\Local\Temp\ccb1mZ87.s 			page 25


 958 01a2 4FF47A70 		mov	r0, #1000
 959 01a6 FFF7FEFF 		bl	CyDelay
 301:.\modem.c     ****                         return 1u;   // return 1 if succesfully sent sms
 960              		.loc 1 301 0
 961 01aa 4FF00103 		mov	r3, #1
 962 01ae 2EE0     		b	.L45
 963              	.L51:
 302:.\modem.c     **** 
 303:.\modem.c     ****                     }
 304:.\modem.c     ****                     else {
 305:.\modem.c     ****                         debug_write("(at_write_command(sendBuffer,\"OK\"...) Data sent unsuccessful
 964              		.loc 1 305 0
 965 01b0 40F20000 		movw	r0, #:lower16:.LC13
 966 01b4 C0F20000 		movt	r0, #:upper16:.LC13
 967 01b8 FFF7FEFF 		bl	debug_write
 306:.\modem.c     ****                     }
 307:.\modem.c     ****                 }
 308:.\modem.c     ****                 else {
 309:.\modem.c     ****                     debug_write("(AT#SSEND=1) Could not send data through connected socket.");
 968              		.loc 1 309 0
 969 01bc 0CE0     		b	.L48
 970              	.L50:
 971 01be 40F20000 		movw	r0, #:lower16:.LC14
 972 01c2 C0F20000 		movt	r0, #:upper16:.LC14
 973 01c6 FFF7FEFF 		bl	debug_write
 974 01ca 05E0     		b	.L48
 975              	.L49:
 310:.\modem.c     ****                 }
 311:.\modem.c     ****                 //uint8 disconnected = modem_disconnect();
 312:.\modem.c     ****             }
 313:.\modem.c     ****             else {
 314:.\modem.c     ****                 debug_write("(AT#SD=1,0,80,\"api.xively.com\",0,0,1) Could not connect to server.")
 976              		.loc 1 314 0
 977 01cc 40F20000 		movw	r0, #:lower16:.LC26
 978 01d0 C0F20000 		movt	r0, #:upper16:.LC26
 979 01d4 FFF7FEFF 		bl	debug_write
 980              	.L48:
 315:.\modem.c     ****             }
 316:.\modem.c     ****         }
 317:.\modem.c     ****         
 318:.\modem.c     ****         if (attempts < MAX_GET_ATTEMPTS-1) { // Don't reset the modem on the last attempt since it 
 981              		.loc 1 318 0
 982 01d8 97F83731 		ldrb	r3, [r7, #311]	@ zero_extendqisi2
 983 01dc 002B     		cmp	r3, #0
 984 01de 01D1     		bne	.L53
 319:.\modem.c     ****             modem_reset();
 985              		.loc 1 319 0
 986 01e0 FFF7FEFF 		bl	modem_reset
 987              	.L53:
 988              		.loc 1 273 0
 989 01e4 97F83731 		ldrb	r3, [r7, #311]
 990 01e8 03F10103 		add	r3, r3, #1
 991 01ec 87F83731 		strb	r3, [r7, #311]
 992              	.L46:
 993 01f0 97F83731 		ldrb	r3, [r7, #311]	@ zero_extendqisi2
 994 01f4 012B     		cmp	r3, #1
 995 01f6 7FF624AF 		bls	.L54
ARM GAS  C:\Users\karunmj\AppData\Local\Temp\ccb1mZ87.s 			page 26


 320:.\modem.c     ****         }
 321:.\modem.c     ****         
 322:.\modem.c     ****     }
 323:.\modem.c     ****     // cut power to rx and tx pins
 324:.\modem.c     ****     //uart_rx_voltage_pin_Write(1u);
 325:.\modem.c     ****     //uart_rx_voltage_pin_Write(1u);
 326:.\modem.c     ****     debug_write("MAX_GET_ATTEMPTS Exceeded.");
 996              		.loc 1 326 0
 997 01fa 40F20000 		movw	r0, #:lower16:.LC27
 998 01fe C0F20000 		movt	r0, #:upper16:.LC27
 999 0202 FFF7FEFF 		bl	debug_write
 327:.\modem.c     ****     modem_disconnect();
 1000              		.loc 1 327 0
 1001 0206 FFF7FEFF 		bl	modem_disconnect
 328:.\modem.c     ****     return 0u;   // return 0 if failure to send sms
 1002              		.loc 1 328 0
 1003 020a 4FF00003 		mov	r3, #0
 1004              	.L45:
 329:.\modem.c     **** }
 1005              		.loc 1 329 0
 1006 020e 1846     		mov	r0, r3
 1007 0210 07F59C77 		add	r7, r7, #312
 1008 0214 BD46     		mov	sp, r7
 1009 0216 80BD     		pop	{r7, pc}
 1010              		.cfi_endproc
 1011              	.LFE38:
 1012              		.size	modem_get_packet, .-modem_get_packet
 1013              		.section	.text.modem_acquire_lock,"ax",%progbits
 1014              		.align	2
 1015              		.global	modem_acquire_lock
 1016              		.thumb
 1017              		.thumb_func
 1018              		.type	modem_acquire_lock, %function
 1019              	modem_acquire_lock:
 1020              	.LFB39:
 330:.\modem.c     **** 
 331:.\modem.c     **** uint8 modem_acquire_lock(){
 1021              		.loc 1 331 0
 1022              		.cfi_startproc
 1023              		@ args = 0, pretend = 0, frame = 0
 1024              		@ frame_needed = 1, uses_anonymous_args = 0
 1025              		@ link register save eliminated.
 1026 0000 80B4     		push	{r7}
 1027              	.LCFI24:
 1028              		.cfi_def_cfa_offset 4
 1029 0002 00AF     		add	r7, sp, #0
 1030              		.cfi_offset 7, -4
 1031              	.LCFI25:
 1032              		.cfi_def_cfa_register 7
 332:.\modem.c     ****     return 1u;
 1033              		.loc 1 332 0
 1034 0004 4FF00103 		mov	r3, #1
 333:.\modem.c     **** }
 1035              		.loc 1 333 0
 1036 0008 1846     		mov	r0, r3
 1037 000a BD46     		mov	sp, r7
 1038 000c 80BC     		pop	{r7}
ARM GAS  C:\Users\karunmj\AppData\Local\Temp\ccb1mZ87.s 			page 27


 1039 000e 7047     		bx	lr
 1040              		.cfi_endproc
 1041              	.LFE39:
 1042              		.size	modem_acquire_lock, .-modem_acquire_lock
 1043              		.section	.text.modem_release_lock,"ax",%progbits
 1044              		.align	2
 1045              		.global	modem_release_lock
 1046              		.thumb
 1047              		.thumb_func
 1048              		.type	modem_release_lock, %function
 1049              	modem_release_lock:
 1050              	.LFB40:
 334:.\modem.c     **** 
 335:.\modem.c     **** uint8 modem_release_lock(){
 1051              		.loc 1 335 0
 1052              		.cfi_startproc
 1053              		@ args = 0, pretend = 0, frame = 0
 1054              		@ frame_needed = 1, uses_anonymous_args = 0
 1055              		@ link register save eliminated.
 1056 0000 80B4     		push	{r7}
 1057              	.LCFI26:
 1058              		.cfi_def_cfa_offset 4
 1059 0002 00AF     		add	r7, sp, #0
 1060              		.cfi_offset 7, -4
 1061              	.LCFI27:
 1062              		.cfi_def_cfa_register 7
 336:.\modem.c     ****     return 1u;
 1063              		.loc 1 336 0
 1064 0004 4FF00103 		mov	r3, #1
 337:.\modem.c     **** }
 1065              		.loc 1 337 0
 1066 0008 1846     		mov	r0, r3
 1067 000a BD46     		mov	sp, r7
 1068 000c 80BC     		pop	{r7}
 1069 000e 7047     		bx	lr
 1070              		.cfi_endproc
 1071              	.LFE40:
 1072              		.size	modem_release_lock, .-modem_release_lock
 1073              		.section	.text.uart_string_reset,"ax",%progbits
 1074              		.align	2
 1075              		.global	uart_string_reset
 1076              		.thumb
 1077              		.thumb_func
 1078              		.type	uart_string_reset, %function
 1079              	uart_string_reset:
 1080              	.LFB41:
 338:.\modem.c     **** 
 339:.\modem.c     **** void uart_string_reset(){
 1081              		.loc 1 339 0
 1082              		.cfi_startproc
 1083              		@ args = 0, pretend = 0, frame = 0
 1084              		@ frame_needed = 1, uses_anonymous_args = 0
 1085 0000 80B5     		push	{r7, lr}
 1086              	.LCFI28:
 1087              		.cfi_def_cfa_offset 8
 1088 0002 00AF     		add	r7, sp, #0
 1089              		.cfi_offset 14, -4
ARM GAS  C:\Users\karunmj\AppData\Local\Temp\ccb1mZ87.s 			page 28


 1090              		.cfi_offset 7, -8
 1091              	.LCFI29:
 1092              		.cfi_def_cfa_register 7
 340:.\modem.c     ****     // reset uart_received_string to zero
 341:.\modem.c     ****     /*
 342:.\modem.c     ****     uint16 i = 0;
 343:.\modem.c     ****     
 344:.\modem.c     ****     for(i = 0; i < 700; i++){
 345:.\modem.c     ****         uart_received_string[i] = 0;
 346:.\modem.c     ****     }
 347:.\modem.c     ****     */
 348:.\modem.c     ****     memset(&uart_received_string[0],0,sizeof(uart_received_string));
 1093              		.loc 1 348 0
 1094 0004 40F20000 		movw	r0, #:lower16:uart_received_string
 1095 0008 C0F20000 		movt	r0, #:upper16:uart_received_string
 1096 000c 4FF00001 		mov	r1, #0
 1097 0010 4FF42F72 		mov	r2, #700
 1098 0014 FFF7FEFF 		bl	memset
 349:.\modem.c     ****     uart_string_index = 0;
 1099              		.loc 1 349 0
 1100 0018 40F20003 		movw	r3, #:lower16:uart_string_index
 1101 001c C0F20003 		movt	r3, #:upper16:uart_string_index
 1102 0020 4FF00002 		mov	r2, #0
 1103 0024 1A80     		strh	r2, [r3, #0]	@ movhi
 350:.\modem.c     ****     uart_ClearRxBuffer();
 1104              		.loc 1 350 0
 1105 0026 FFF7FEFF 		bl	uart_ClearRxBuffer
 351:.\modem.c     **** //    uart_ClearTxBuffer();
 352:.\modem.c     **** }
 1106              		.loc 1 352 0
 1107 002a 80BD     		pop	{r7, pc}
 1108              		.cfi_endproc
 1109              	.LFE41:
 1110              		.size	uart_string_reset, .-uart_string_reset
 1111              		.section	.text.isr_byte_rx,"ax",%progbits
 1112              		.align	2
 1113              		.global	isr_byte_rx
 1114              		.thumb
 1115              		.thumb_func
 1116              		.type	isr_byte_rx, %function
 1117              	isr_byte_rx:
 1118              	.LFB42:
 353:.\modem.c     **** 
 354:.\modem.c     **** // this function fires when uart rx receives bytes (when modem is sending bytes)
 355:.\modem.c     **** CY_ISR(isr_byte_rx){
 1119              		.loc 1 355 0
 1120              		.cfi_startproc
 1121              		@ args = 0, pretend = 0, frame = 8
 1122              		@ frame_needed = 1, uses_anonymous_args = 0
 1123 0000 80B5     		push	{r7, lr}
 1124              	.LCFI30:
 1125              		.cfi_def_cfa_offset 8
 1126 0002 82B0     		sub	sp, sp, #8
 1127              	.LCFI31:
 1128              		.cfi_def_cfa_offset 16
 1129 0004 00AF     		add	r7, sp, #0
 1130              		.cfi_offset 14, -4
ARM GAS  C:\Users\karunmj\AppData\Local\Temp\ccb1mZ87.s 			page 29


 1131              		.cfi_offset 7, -8
 1132              	.LCFI32:
 1133              		.cfi_def_cfa_register 7
 356:.\modem.c     ****     while (uart_GetRxBufferSize()){
 1134              		.loc 1 356 0
 1135 0006 1FE0     		b	.L63
 1136              	.L64:
 1137              	.LBB4:
 357:.\modem.c     ****         // hold the next char in the rx register as a temporary variable
 358:.\modem.c     ****         char rx_char_hold = uart_GetChar();
 1138              		.loc 1 358 0
 1139 0008 FFF7FEFF 		bl	uart_GetChar
 1140 000c 0346     		mov	r3, r0
 1141 000e FB71     		strb	r3, [r7, #7]
 359:.\modem.c     ****         
 360:.\modem.c     ****         // store the char in uart_received_string
 361:.\modem.c     ****         if(rx_char_hold){
 1142              		.loc 1 361 0
 1143 0010 FB79     		ldrb	r3, [r7, #7]	@ zero_extendqisi2
 1144 0012 002B     		cmp	r3, #0
 1145 0014 18D0     		beq	.L63
 362:.\modem.c     ****             uart_received_string[uart_string_index] = rx_char_hold;
 1146              		.loc 1 362 0
 1147 0016 40F20003 		movw	r3, #:lower16:uart_string_index
 1148 001a C0F20003 		movt	r3, #:upper16:uart_string_index
 1149 001e 1B88     		ldrh	r3, [r3, #0]
 1150 0020 1A46     		mov	r2, r3
 1151 0022 40F20003 		movw	r3, #:lower16:uart_received_string
 1152 0026 C0F20003 		movt	r3, #:upper16:uart_received_string
 1153 002a F979     		ldrb	r1, [r7, #7]
 1154 002c 9954     		strb	r1, [r3, r2]
 363:.\modem.c     ****             uart_string_index++;
 1155              		.loc 1 363 0
 1156 002e 40F20003 		movw	r3, #:lower16:uart_string_index
 1157 0032 C0F20003 		movt	r3, #:upper16:uart_string_index
 1158 0036 1B88     		ldrh	r3, [r3, #0]
 1159 0038 03F10103 		add	r3, r3, #1
 1160 003c 9AB2     		uxth	r2, r3
 1161 003e 40F20003 		movw	r3, #:lower16:uart_string_index
 1162 0042 C0F20003 		movt	r3, #:upper16:uart_string_index
 1163 0046 1A80     		strh	r2, [r3, #0]	@ movhi
 1164              	.L63:
 1165              	.LBE4:
 1166              		.loc 1 356 0
 1167 0048 FFF7FEFF 		bl	uart_GetRxBufferSize
 1168 004c 0346     		mov	r3, r0
 1169 004e 002B     		cmp	r3, #0
 1170 0050 DAD1     		bne	.L64
 364:.\modem.c     ****         }
 365:.\modem.c     ****     }
 366:.\modem.c     **** }
 1171              		.loc 1 366 0
 1172 0052 07F10807 		add	r7, r7, #8
 1173 0056 BD46     		mov	sp, r7
 1174 0058 80BD     		pop	{r7, pc}
 1175              		.cfi_endproc
 1176              	.LFE42:
ARM GAS  C:\Users\karunmj\AppData\Local\Temp\ccb1mZ87.s 			page 30


 1177              		.size	isr_byte_rx, .-isr_byte_rx
 1178 005a 00BF     		.text
 1179              	.Letext0:
 1180              		.section	.debug_loc,"",%progbits
 1181              	.Ldebug_loc0:
 1182              	.LLST0:
 1183 0000 00000000 		.4byte	.LFB29
 1184 0004 02000000 		.4byte	.LCFI0
 1185 0008 0100     		.2byte	0x1
 1186 000a 5D       		.byte	0x5d
 1187 000b 02000000 		.4byte	.LCFI0
 1188 000f 04000000 		.4byte	.LCFI1
 1189 0013 0200     		.2byte	0x2
 1190 0015 7D       		.byte	0x7d
 1191 0016 04       		.sleb128 4
 1192 0017 04000000 		.4byte	.LCFI1
 1193 001b 06000000 		.4byte	.LCFI2
 1194 001f 0200     		.2byte	0x2
 1195 0021 7D       		.byte	0x7d
 1196 0022 10       		.sleb128 16
 1197 0023 06000000 		.4byte	.LCFI2
 1198 0027 32000000 		.4byte	.LFE29
 1199 002b 0200     		.2byte	0x2
 1200 002d 77       		.byte	0x77
 1201 002e 10       		.sleb128 16
 1202 002f 00000000 		.4byte	0x0
 1203 0033 00000000 		.4byte	0x0
 1204              	.LLST1:
 1205 0037 00000000 		.4byte	.LFB30
 1206 003b 02000000 		.4byte	.LCFI3
 1207 003f 0100     		.2byte	0x1
 1208 0041 5D       		.byte	0x5d
 1209 0042 02000000 		.4byte	.LCFI3
 1210 0046 04000000 		.4byte	.LCFI4
 1211 004a 0200     		.2byte	0x2
 1212 004c 7D       		.byte	0x7d
 1213 004d 08       		.sleb128 8
 1214 004e 04000000 		.4byte	.LCFI4
 1215 0052 34000000 		.4byte	.LFE30
 1216 0056 0200     		.2byte	0x2
 1217 0058 77       		.byte	0x77
 1218 0059 08       		.sleb128 8
 1219 005a 00000000 		.4byte	0x0
 1220 005e 00000000 		.4byte	0x0
 1221              	.LLST2:
 1222 0062 00000000 		.4byte	.LFB31
 1223 0066 02000000 		.4byte	.LCFI5
 1224 006a 0100     		.2byte	0x1
 1225 006c 5D       		.byte	0x5d
 1226 006d 02000000 		.4byte	.LCFI5
 1227 0071 04000000 		.4byte	.LCFI6
 1228 0075 0200     		.2byte	0x2
 1229 0077 7D       		.byte	0x7d
 1230 0078 08       		.sleb128 8
 1231 0079 04000000 		.4byte	.LCFI6
 1232 007d 06000000 		.4byte	.LCFI7
 1233 0081 0200     		.2byte	0x2
ARM GAS  C:\Users\karunmj\AppData\Local\Temp\ccb1mZ87.s 			page 31


 1234 0083 7D       		.byte	0x7d
 1235 0084 30       		.sleb128 48
 1236 0085 06000000 		.4byte	.LCFI7
 1237 0089 84000000 		.4byte	.LFE31
 1238 008d 0200     		.2byte	0x2
 1239 008f 77       		.byte	0x77
 1240 0090 30       		.sleb128 48
 1241 0091 00000000 		.4byte	0x0
 1242 0095 00000000 		.4byte	0x0
 1243              	.LLST3:
 1244 0099 00000000 		.4byte	.LFB32
 1245 009d 02000000 		.4byte	.LCFI8
 1246 00a1 0100     		.2byte	0x1
 1247 00a3 5D       		.byte	0x5d
 1248 00a4 02000000 		.4byte	.LCFI8
 1249 00a8 04000000 		.4byte	.LCFI9
 1250 00ac 0200     		.2byte	0x2
 1251 00ae 7D       		.byte	0x7d
 1252 00af 08       		.sleb128 8
 1253 00b0 04000000 		.4byte	.LCFI9
 1254 00b4 60000000 		.4byte	.LFE32
 1255 00b8 0200     		.2byte	0x2
 1256 00ba 77       		.byte	0x77
 1257 00bb 08       		.sleb128 8
 1258 00bc 00000000 		.4byte	0x0
 1259 00c0 00000000 		.4byte	0x0
 1260              	.LLST4:
 1261 00c4 00000000 		.4byte	.LFB33
 1262 00c8 02000000 		.4byte	.LCFI10
 1263 00cc 0100     		.2byte	0x1
 1264 00ce 5D       		.byte	0x5d
 1265 00cf 02000000 		.4byte	.LCFI10
 1266 00d3 04000000 		.4byte	.LCFI11
 1267 00d7 0200     		.2byte	0x2
 1268 00d9 7D       		.byte	0x7d
 1269 00da 08       		.sleb128 8
 1270 00db 04000000 		.4byte	.LCFI11
 1271 00df 60000000 		.4byte	.LFE33
 1272 00e3 0200     		.2byte	0x2
 1273 00e5 77       		.byte	0x77
 1274 00e6 08       		.sleb128 8
 1275 00e7 00000000 		.4byte	0x0
 1276 00eb 00000000 		.4byte	0x0
 1277              	.LLST5:
 1278 00ef 00000000 		.4byte	.LFB34
 1279 00f3 02000000 		.4byte	.LCFI12
 1280 00f7 0100     		.2byte	0x1
 1281 00f9 5D       		.byte	0x5d
 1282 00fa 02000000 		.4byte	.LCFI12
 1283 00fe 04000000 		.4byte	.LCFI13
 1284 0102 0200     		.2byte	0x2
 1285 0104 7D       		.byte	0x7d
 1286 0105 08       		.sleb128 8
 1287 0106 04000000 		.4byte	.LCFI13
 1288 010a 4E000000 		.4byte	.LFE34
 1289 010e 0200     		.2byte	0x2
 1290 0110 77       		.byte	0x77
ARM GAS  C:\Users\karunmj\AppData\Local\Temp\ccb1mZ87.s 			page 32


 1291 0111 08       		.sleb128 8
 1292 0112 00000000 		.4byte	0x0
 1293 0116 00000000 		.4byte	0x0
 1294              	.LLST6:
 1295 011a 00000000 		.4byte	.LFB35
 1296 011e 02000000 		.4byte	.LCFI14
 1297 0122 0100     		.2byte	0x1
 1298 0124 5D       		.byte	0x5d
 1299 0125 02000000 		.4byte	.LCFI14
 1300 0129 04000000 		.4byte	.LCFI15
 1301 012d 0200     		.2byte	0x2
 1302 012f 7D       		.byte	0x7d
 1303 0130 08       		.sleb128 8
 1304 0131 04000000 		.4byte	.LCFI15
 1305 0135 4C000000 		.4byte	.LFE35
 1306 0139 0200     		.2byte	0x2
 1307 013b 77       		.byte	0x77
 1308 013c 08       		.sleb128 8
 1309 013d 00000000 		.4byte	0x0
 1310 0141 00000000 		.4byte	0x0
 1311              	.LLST7:
 1312 0145 00000000 		.4byte	.LFB36
 1313 0149 02000000 		.4byte	.LCFI16
 1314 014d 0100     		.2byte	0x1
 1315 014f 5D       		.byte	0x5d
 1316 0150 02000000 		.4byte	.LCFI16
 1317 0154 04000000 		.4byte	.LCFI17
 1318 0158 0200     		.2byte	0x2
 1319 015a 7D       		.byte	0x7d
 1320 015b 08       		.sleb128 8
 1321 015c 04000000 		.4byte	.LCFI17
 1322 0160 BE000000 		.4byte	.LFE36
 1323 0164 0200     		.2byte	0x2
 1324 0166 77       		.byte	0x77
 1325 0167 08       		.sleb128 8
 1326 0168 00000000 		.4byte	0x0
 1327 016c 00000000 		.4byte	0x0
 1328              	.LLST8:
 1329 0170 00000000 		.4byte	.LFB37
 1330 0174 02000000 		.4byte	.LCFI18
 1331 0178 0100     		.2byte	0x1
 1332 017a 5D       		.byte	0x5d
 1333 017b 02000000 		.4byte	.LCFI18
 1334 017f 06000000 		.4byte	.LCFI19
 1335 0183 0200     		.2byte	0x2
 1336 0185 7D       		.byte	0x7d
 1337 0186 08       		.sleb128 8
 1338 0187 06000000 		.4byte	.LCFI19
 1339 018b 08000000 		.4byte	.LCFI20
 1340 018f 0300     		.2byte	0x3
 1341 0191 7D       		.byte	0x7d
 1342 0192 8006     		.sleb128 768
 1343 0194 08000000 		.4byte	.LCFI20
 1344 0198 2A010000 		.4byte	.LFE37
 1345 019c 0300     		.2byte	0x3
 1346 019e 77       		.byte	0x77
 1347 019f 8006     		.sleb128 768
ARM GAS  C:\Users\karunmj\AppData\Local\Temp\ccb1mZ87.s 			page 33


 1348 01a1 00000000 		.4byte	0x0
 1349 01a5 00000000 		.4byte	0x0
 1350              	.LLST9:
 1351 01a9 00000000 		.4byte	.LFB38
 1352 01ad 02000000 		.4byte	.LCFI21
 1353 01b1 0100     		.2byte	0x1
 1354 01b3 5D       		.byte	0x5d
 1355 01b4 02000000 		.4byte	.LCFI21
 1356 01b8 04000000 		.4byte	.LCFI22
 1357 01bc 0200     		.2byte	0x2
 1358 01be 7D       		.byte	0x7d
 1359 01bf 08       		.sleb128 8
 1360 01c0 04000000 		.4byte	.LCFI22
 1361 01c4 06000000 		.4byte	.LCFI23
 1362 01c8 0300     		.2byte	0x3
 1363 01ca 7D       		.byte	0x7d
 1364 01cb C002     		.sleb128 320
 1365 01cd 06000000 		.4byte	.LCFI23
 1366 01d1 18020000 		.4byte	.LFE38
 1367 01d5 0300     		.2byte	0x3
 1368 01d7 77       		.byte	0x77
 1369 01d8 C002     		.sleb128 320
 1370 01da 00000000 		.4byte	0x0
 1371 01de 00000000 		.4byte	0x0
 1372              	.LLST10:
 1373 01e2 00000000 		.4byte	.LFB39
 1374 01e6 02000000 		.4byte	.LCFI24
 1375 01ea 0100     		.2byte	0x1
 1376 01ec 5D       		.byte	0x5d
 1377 01ed 02000000 		.4byte	.LCFI24
 1378 01f1 04000000 		.4byte	.LCFI25
 1379 01f5 0200     		.2byte	0x2
 1380 01f7 7D       		.byte	0x7d
 1381 01f8 04       		.sleb128 4
 1382 01f9 04000000 		.4byte	.LCFI25
 1383 01fd 10000000 		.4byte	.LFE39
 1384 0201 0200     		.2byte	0x2
 1385 0203 77       		.byte	0x77
 1386 0204 04       		.sleb128 4
 1387 0205 00000000 		.4byte	0x0
 1388 0209 00000000 		.4byte	0x0
 1389              	.LLST11:
 1390 020d 00000000 		.4byte	.LFB40
 1391 0211 02000000 		.4byte	.LCFI26
 1392 0215 0100     		.2byte	0x1
 1393 0217 5D       		.byte	0x5d
 1394 0218 02000000 		.4byte	.LCFI26
 1395 021c 04000000 		.4byte	.LCFI27
 1396 0220 0200     		.2byte	0x2
 1397 0222 7D       		.byte	0x7d
 1398 0223 04       		.sleb128 4
 1399 0224 04000000 		.4byte	.LCFI27
 1400 0228 10000000 		.4byte	.LFE40
 1401 022c 0200     		.2byte	0x2
 1402 022e 77       		.byte	0x77
 1403 022f 04       		.sleb128 4
 1404 0230 00000000 		.4byte	0x0
ARM GAS  C:\Users\karunmj\AppData\Local\Temp\ccb1mZ87.s 			page 34


 1405 0234 00000000 		.4byte	0x0
 1406              	.LLST12:
 1407 0238 00000000 		.4byte	.LFB41
 1408 023c 02000000 		.4byte	.LCFI28
 1409 0240 0100     		.2byte	0x1
 1410 0242 5D       		.byte	0x5d
 1411 0243 02000000 		.4byte	.LCFI28
 1412 0247 04000000 		.4byte	.LCFI29
 1413 024b 0200     		.2byte	0x2
 1414 024d 7D       		.byte	0x7d
 1415 024e 08       		.sleb128 8
 1416 024f 04000000 		.4byte	.LCFI29
 1417 0253 2C000000 		.4byte	.LFE41
 1418 0257 0200     		.2byte	0x2
 1419 0259 77       		.byte	0x77
 1420 025a 08       		.sleb128 8
 1421 025b 00000000 		.4byte	0x0
 1422 025f 00000000 		.4byte	0x0
 1423              	.LLST13:
 1424 0263 00000000 		.4byte	.LFB42
 1425 0267 02000000 		.4byte	.LCFI30
 1426 026b 0100     		.2byte	0x1
 1427 026d 5D       		.byte	0x5d
 1428 026e 02000000 		.4byte	.LCFI30
 1429 0272 04000000 		.4byte	.LCFI31
 1430 0276 0200     		.2byte	0x2
 1431 0278 7D       		.byte	0x7d
 1432 0279 08       		.sleb128 8
 1433 027a 04000000 		.4byte	.LCFI31
 1434 027e 06000000 		.4byte	.LCFI32
 1435 0282 0200     		.2byte	0x2
 1436 0284 7D       		.byte	0x7d
 1437 0285 10       		.sleb128 16
 1438 0286 06000000 		.4byte	.LCFI32
 1439 028a 5A000000 		.4byte	.LFE42
 1440 028e 0200     		.2byte	0x2
 1441 0290 77       		.byte	0x77
 1442 0291 10       		.sleb128 16
 1443 0292 00000000 		.4byte	0x0
 1444 0296 00000000 		.4byte	0x0
 1445              		.file 2 "./Generated_Source/PSoC5/cytypes.h"
 1446              		.file 3 "./Generated_Source/PSoC5/core_cm3.h"
 1447              		.section	.debug_info
 1448 0000 01040000 		.4byte	0x401
 1449 0004 0200     		.2byte	0x2
 1450 0006 00000000 		.4byte	.Ldebug_abbrev0
 1451 000a 04       		.byte	0x4
 1452 000b 01       		.uleb128 0x1
 1453 000c F2010000 		.4byte	.LASF48
 1454 0010 01       		.byte	0x1
 1455 0011 DF010000 		.4byte	.LASF49
 1456 0015 D1000000 		.4byte	.LASF50
 1457 0019 00000000 		.4byte	0x0
 1458 001d 00000000 		.4byte	0x0
 1459 0021 00000000 		.4byte	.Ldebug_ranges0+0x0
 1460 0025 00000000 		.4byte	.Ldebug_line0
 1461 0029 02       		.uleb128 0x2
ARM GAS  C:\Users\karunmj\AppData\Local\Temp\ccb1mZ87.s 			page 35


 1462 002a 01       		.byte	0x1
 1463 002b 06       		.byte	0x6
 1464 002c 9E020000 		.4byte	.LASF0
 1465 0030 02       		.uleb128 0x2
 1466 0031 01       		.byte	0x1
 1467 0032 08       		.byte	0x8
 1468 0033 20010000 		.4byte	.LASF1
 1469 0037 02       		.uleb128 0x2
 1470 0038 02       		.byte	0x2
 1471 0039 05       		.byte	0x5
 1472 003a 82010000 		.4byte	.LASF2
 1473 003e 02       		.uleb128 0x2
 1474 003f 02       		.byte	0x2
 1475 0040 07       		.byte	0x7
 1476 0041 7C000000 		.4byte	.LASF3
 1477 0045 02       		.uleb128 0x2
 1478 0046 04       		.byte	0x4
 1479 0047 05       		.byte	0x5
 1480 0048 7B020000 		.4byte	.LASF4
 1481 004c 02       		.uleb128 0x2
 1482 004d 04       		.byte	0x4
 1483 004e 07       		.byte	0x7
 1484 004f A1010000 		.4byte	.LASF5
 1485 0053 02       		.uleb128 0x2
 1486 0054 08       		.byte	0x8
 1487 0055 05       		.byte	0x5
 1488 0056 00000000 		.4byte	.LASF6
 1489 005a 02       		.uleb128 0x2
 1490 005b 08       		.byte	0x8
 1491 005c 07       		.byte	0x7
 1492 005d C0010000 		.4byte	.LASF7
 1493 0061 03       		.uleb128 0x3
 1494 0062 04       		.byte	0x4
 1495 0063 05       		.byte	0x5
 1496 0064 696E7400 		.ascii	"int\000"
 1497 0068 02       		.uleb128 0x2
 1498 0069 04       		.byte	0x4
 1499 006a 07       		.byte	0x7
 1500 006b B3010000 		.4byte	.LASF8
 1501 006f 04       		.uleb128 0x4
 1502 0070 A1000000 		.4byte	.LASF9
 1503 0074 02       		.byte	0x2
 1504 0075 4C       		.byte	0x4c
 1505 0076 30000000 		.4byte	0x30
 1506 007a 04       		.uleb128 0x4
 1507 007b 93010000 		.4byte	.LASF10
 1508 007f 02       		.byte	0x2
 1509 0080 4D       		.byte	0x4d
 1510 0081 3E000000 		.4byte	0x3e
 1511 0085 04       		.uleb128 0x4
 1512 0086 9A010000 		.4byte	.LASF11
 1513 008a 02       		.byte	0x2
 1514 008b 4E       		.byte	0x4e
 1515 008c 4C000000 		.4byte	0x4c
 1516 0090 02       		.uleb128 0x2
 1517 0091 04       		.byte	0x4
 1518 0092 04       		.byte	0x4
ARM GAS  C:\Users\karunmj\AppData\Local\Temp\ccb1mZ87.s 			page 36


 1519 0093 C5000000 		.4byte	.LASF12
 1520 0097 02       		.uleb128 0x2
 1521 0098 08       		.byte	0x8
 1522 0099 04       		.byte	0x4
 1523 009a AA020000 		.4byte	.LASF13
 1524 009e 02       		.uleb128 0x2
 1525 009f 01       		.byte	0x1
 1526 00a0 08       		.byte	0x8
 1527 00a1 FE010000 		.4byte	.LASF14
 1528 00a5 05       		.uleb128 0x5
 1529 00a6 04       		.byte	0x4
 1530 00a7 07       		.byte	0x7
 1531 00a8 06       		.uleb128 0x6
 1532 00a9 04       		.byte	0x4
 1533 00aa 9E000000 		.4byte	0x9e
 1534 00ae 07       		.uleb128 0x7
 1535 00af 01       		.byte	0x1
 1536 00b0 42000000 		.4byte	.LASF15
 1537 00b4 01       		.byte	0x1
 1538 00b5 1F       		.byte	0x1f
 1539 00b6 01       		.byte	0x1
 1540 00b7 6F000000 		.4byte	0x6f
 1541 00bb 00000000 		.4byte	.LFB29
 1542 00bf 32000000 		.4byte	.LFE29
 1543 00c3 00000000 		.4byte	.LLST0
 1544 00c7 E7000000 		.4byte	0xe7
 1545 00cb 08       		.uleb128 0x8
 1546 00cc 696400   		.ascii	"id\000"
 1547 00cf 01       		.byte	0x1
 1548 00d0 1F       		.byte	0x1f
 1549 00d1 85000000 		.4byte	0x85
 1550 00d5 02       		.byte	0x2
 1551 00d6 91       		.byte	0x91
 1552 00d7 74       		.sleb128 -12
 1553 00d8 08       		.uleb128 0x8
 1554 00d9 6B657900 		.ascii	"key\000"
 1555 00dd 01       		.byte	0x1
 1556 00de 1F       		.byte	0x1f
 1557 00df A8000000 		.4byte	0xa8
 1558 00e3 02       		.byte	0x2
 1559 00e4 91       		.byte	0x91
 1560 00e5 70       		.sleb128 -16
 1561 00e6 00       		.byte	0x0
 1562 00e7 09       		.uleb128 0x9
 1563 00e8 01       		.byte	0x1
 1564 00e9 B1020000 		.4byte	.LASF38
 1565 00ed 01       		.byte	0x1
 1566 00ee 26       		.byte	0x26
 1567 00ef 00000000 		.4byte	.LFB30
 1568 00f3 34000000 		.4byte	.LFE30
 1569 00f7 37000000 		.4byte	.LLST1
 1570 00fb 07       		.uleb128 0x7
 1571 00fc 01       		.byte	0x1
 1572 00fd 1D000000 		.4byte	.LASF16
 1573 0101 01       		.byte	0x1
 1574 0102 2F       		.byte	0x2f
 1575 0103 01       		.byte	0x1
ARM GAS  C:\Users\karunmj\AppData\Local\Temp\ccb1mZ87.s 			page 37


 1576 0104 6F000000 		.4byte	0x6f
 1577 0108 00000000 		.4byte	.LFB31
 1578 010c 84000000 		.4byte	.LFE31
 1579 0110 62000000 		.4byte	.LLST2
 1580 0114 91010000 		.4byte	0x191
 1581 0118 0A       		.uleb128 0xa
 1582 0119 76010000 		.4byte	.LASF17
 1583 011d 01       		.byte	0x1
 1584 011e 2F       		.byte	0x2f
 1585 011f A8000000 		.4byte	0xa8
 1586 0123 02       		.byte	0x2
 1587 0124 91       		.byte	0x91
 1588 0125 5C       		.sleb128 -36
 1589 0126 0A       		.uleb128 0xa
 1590 0127 2E010000 		.4byte	.LASF18
 1591 012b 01       		.byte	0x1
 1592 012c 2F       		.byte	0x2f
 1593 012d A8000000 		.4byte	0xa8
 1594 0131 02       		.byte	0x2
 1595 0132 91       		.byte	0x91
 1596 0133 58       		.sleb128 -40
 1597 0134 0A       		.uleb128 0xa
 1598 0135 6E020000 		.4byte	.LASF19
 1599 0139 01       		.byte	0x1
 1600 013a 2F       		.byte	0x2f
 1601 013b 85000000 		.4byte	0x85
 1602 013f 02       		.byte	0x2
 1603 0140 91       		.byte	0x91
 1604 0141 54       		.sleb128 -44
 1605 0142 0B       		.uleb128 0xb
 1606 0143 E9010000 		.4byte	.LASF20
 1607 0147 01       		.byte	0x1
 1608 0148 30       		.byte	0x30
 1609 0149 6F000000 		.4byte	0x6f
 1610 014d 02       		.byte	0x2
 1611 014e 91       		.byte	0x91
 1612 014f 67       		.sleb128 -25
 1613 0150 0C       		.uleb128 0xc
 1614 0151 6900     		.ascii	"i\000"
 1615 0153 01       		.byte	0x1
 1616 0154 31       		.byte	0x31
 1617 0155 85000000 		.4byte	0x85
 1618 0159 02       		.byte	0x2
 1619 015a 91       		.byte	0x91
 1620 015b 68       		.sleb128 -24
 1621 015c 0B       		.uleb128 0xb
 1622 015d CB000000 		.4byte	.LASF21
 1623 0161 01       		.byte	0x1
 1624 0162 31       		.byte	0x31
 1625 0163 85000000 		.4byte	0x85
 1626 0167 02       		.byte	0x2
 1627 0168 91       		.byte	0x91
 1628 0169 6C       		.sleb128 -20
 1629 016a 0B       		.uleb128 0xb
 1630 016b 49020000 		.4byte	.LASF22
 1631 016f 01       		.byte	0x1
 1632 0170 31       		.byte	0x31
ARM GAS  C:\Users\karunmj\AppData\Local\Temp\ccb1mZ87.s 			page 38


 1633 0171 85000000 		.4byte	0x85
 1634 0175 02       		.byte	0x2
 1635 0176 91       		.byte	0x91
 1636 0177 70       		.sleb128 -16
 1637 0178 0D       		.uleb128 0xd
 1638 0179 42000000 		.4byte	.LBB2
 1639 017d 68000000 		.4byte	.LBE2
 1640 0181 0B       		.uleb128 0xb
 1641 0182 13020000 		.4byte	.LASF23
 1642 0186 01       		.byte	0x1
 1643 0187 38       		.byte	0x38
 1644 0188 A8000000 		.4byte	0xa8
 1645 018c 02       		.byte	0x2
 1646 018d 91       		.byte	0x91
 1647 018e 74       		.sleb128 -12
 1648 018f 00       		.byte	0x0
 1649 0190 00       		.byte	0x0
 1650 0191 0E       		.uleb128 0xe
 1651 0192 01       		.byte	0x1
 1652 0193 0E000000 		.4byte	.LASF24
 1653 0197 01       		.byte	0x1
 1654 0198 44       		.byte	0x44
 1655 0199 6F000000 		.4byte	0x6f
 1656 019d 00000000 		.4byte	.LFB32
 1657 01a1 60000000 		.4byte	.LFE32
 1658 01a5 99000000 		.4byte	.LLST3
 1659 01a9 0E       		.uleb128 0xe
 1660 01aa 01       		.byte	0x1
 1661 01ab 03020000 		.4byte	.LASF25
 1662 01af 01       		.byte	0x1
 1663 01b0 55       		.byte	0x55
 1664 01b1 6F000000 		.4byte	0x6f
 1665 01b5 00000000 		.4byte	.LFB33
 1666 01b9 60000000 		.4byte	.LFE33
 1667 01bd C4000000 		.4byte	.LLST4
 1668 01c1 0E       		.uleb128 0xe
 1669 01c2 01       		.byte	0x1
 1670 01c3 2E000000 		.4byte	.LASF26
 1671 01c7 01       		.byte	0x1
 1672 01c8 66       		.byte	0x66
 1673 01c9 6F000000 		.4byte	0x6f
 1674 01cd 00000000 		.4byte	.LFB34
 1675 01d1 4E000000 		.4byte	.LFE34
 1676 01d5 EF000000 		.4byte	.LLST5
 1677 01d9 0E       		.uleb128 0xe
 1678 01da 01       		.byte	0x1
 1679 01db A7000000 		.4byte	.LASF27
 1680 01df 01       		.byte	0x1
 1681 01e0 74       		.byte	0x74
 1682 01e1 6F000000 		.4byte	0x6f
 1683 01e5 00000000 		.4byte	.LFB35
 1684 01e9 4C000000 		.4byte	.LFE35
 1685 01ed 1A010000 		.4byte	.LLST6
 1686 01f1 0E       		.uleb128 0xe
 1687 01f2 01       		.byte	0x1
 1688 01f3 58010000 		.4byte	.LASF28
 1689 01f7 01       		.byte	0x1
ARM GAS  C:\Users\karunmj\AppData\Local\Temp\ccb1mZ87.s 			page 39


 1690 01f8 A8       		.byte	0xa8
 1691 01f9 6F000000 		.4byte	0x6f
 1692 01fd 00000000 		.4byte	.LFB36
 1693 0201 BE000000 		.4byte	.LFE36
 1694 0205 45010000 		.4byte	.LLST7
 1695 0209 07       		.uleb128 0x7
 1696 020a 01       		.byte	0x1
 1697 020b BD020000 		.4byte	.LASF29
 1698 020f 01       		.byte	0x1
 1699 0210 C5       		.byte	0xc5
 1700 0211 01       		.byte	0x1
 1701 0212 6F000000 		.4byte	0x6f
 1702 0216 00000000 		.4byte	.LFB37
 1703 021a 2A010000 		.4byte	.LFE37
 1704 021e 70010000 		.4byte	.LLST8
 1705 0222 5D020000 		.4byte	0x25d
 1706 0226 0A       		.uleb128 0xa
 1707 0227 8C010000 		.4byte	.LASF30
 1708 022b 01       		.byte	0x1
 1709 022c C5       		.byte	0xc5
 1710 022d A8000000 		.4byte	0xa8
 1711 0231 03       		.byte	0x3
 1712 0232 91       		.byte	0x91
 1713 0233 847A     		.sleb128 -764
 1714 0235 0B       		.uleb128 0xb
 1715 0236 52020000 		.4byte	.LASF31
 1716 023a 01       		.byte	0x1
 1717 023b D0       		.byte	0xd0
 1718 023c 6F000000 		.4byte	0x6f
 1719 0240 02       		.byte	0x2
 1720 0241 91       		.byte	0x91
 1721 0242 77       		.sleb128 -9
 1722 0243 0D       		.uleb128 0xd
 1723 0244 74000000 		.4byte	.LBB3
 1724 0248 D0000000 		.4byte	.LBE3
 1725 024c 0B       		.uleb128 0xb
 1726 024d 40010000 		.4byte	.LASF32
 1727 0251 01       		.byte	0x1
 1728 0252 DB       		.byte	0xdb
 1729 0253 5D020000 		.4byte	0x25d
 1730 0257 03       		.byte	0x3
 1731 0258 91       		.byte	0x91
 1732 0259 887A     		.sleb128 -760
 1733 025b 00       		.byte	0x0
 1734 025c 00       		.byte	0x0
 1735 025d 0F       		.uleb128 0xf
 1736 025e 9E000000 		.4byte	0x9e
 1737 0262 6E020000 		.4byte	0x26e
 1738 0266 10       		.uleb128 0x10
 1739 0267 A5000000 		.4byte	0xa5
 1740 026b ED02     		.2byte	0x2ed
 1741 026d 00       		.byte	0x0
 1742 026e 07       		.uleb128 0x7
 1743 026f 01       		.byte	0x1
 1744 0270 25020000 		.4byte	.LASF33
 1745 0274 01       		.byte	0x1
 1746 0275 FF       		.byte	0xff
ARM GAS  C:\Users\karunmj\AppData\Local\Temp\ccb1mZ87.s 			page 40


 1747 0276 01       		.byte	0x1
 1748 0277 6F000000 		.4byte	0x6f
 1749 027b 00000000 		.4byte	.LFB38
 1750 027f 18020000 		.4byte	.LFE38
 1751 0283 A9010000 		.4byte	.LLST9
 1752 0287 D9020000 		.4byte	0x2d9
 1753 028b 0A       		.uleb128 0xa
 1754 028c 8C010000 		.4byte	.LASF30
 1755 0290 01       		.byte	0x1
 1756 0291 FF       		.byte	0xff
 1757 0292 A8000000 		.4byte	0xa8
 1758 0296 03       		.byte	0x3
 1759 0297 91       		.byte	0x91
 1760 0298 C47D     		.sleb128 -316
 1761 029a 08       		.uleb128 0x8
 1762 029b 63737600 		.ascii	"csv\000"
 1763 029f 01       		.byte	0x1
 1764 02a0 FF       		.byte	0xff
 1765 02a1 A8000000 		.4byte	0xa8
 1766 02a5 03       		.byte	0x3
 1767 02a6 91       		.byte	0x91
 1768 02a7 C07D     		.sleb128 -320
 1769 02a9 11       		.uleb128 0x11
 1770 02aa D7010000 		.4byte	.LASF34
 1771 02ae 01       		.byte	0x1
 1772 02af 0901     		.2byte	0x109
 1773 02b1 D9020000 		.4byte	0x2d9
 1774 02b5 03       		.byte	0x3
 1775 02b6 91       		.byte	0x91
 1776 02b7 AC7E     		.sleb128 -212
 1777 02b9 11       		.uleb128 0x11
 1778 02ba B5000000 		.4byte	.LASF35
 1779 02be 01       		.byte	0x1
 1780 02bf 0901     		.2byte	0x109
 1781 02c1 E9020000 		.4byte	0x2e9
 1782 02c5 03       		.byte	0x3
 1783 02c6 91       		.byte	0x91
 1784 02c7 C87D     		.sleb128 -312
 1785 02c9 11       		.uleb128 0x11
 1786 02ca 52020000 		.4byte	.LASF31
 1787 02ce 01       		.byte	0x1
 1788 02cf 0A01     		.2byte	0x10a
 1789 02d1 6F000000 		.4byte	0x6f
 1790 02d5 02       		.byte	0x2
 1791 02d6 91       		.byte	0x91
 1792 02d7 77       		.sleb128 -9
 1793 02d8 00       		.byte	0x0
 1794 02d9 0F       		.uleb128 0xf
 1795 02da 9E000000 		.4byte	0x9e
 1796 02de E9020000 		.4byte	0x2e9
 1797 02e2 12       		.uleb128 0x12
 1798 02e3 A5000000 		.4byte	0xa5
 1799 02e7 C7       		.byte	0xc7
 1800 02e8 00       		.byte	0x0
 1801 02e9 0F       		.uleb128 0xf
 1802 02ea 9E000000 		.4byte	0x9e
 1803 02ee F9020000 		.4byte	0x2f9
ARM GAS  C:\Users\karunmj\AppData\Local\Temp\ccb1mZ87.s 			page 41


 1804 02f2 12       		.uleb128 0x12
 1805 02f3 A5000000 		.4byte	0xa5
 1806 02f7 63       		.byte	0x63
 1807 02f8 00       		.byte	0x0
 1808 02f9 13       		.uleb128 0x13
 1809 02fa 01       		.byte	0x1
 1810 02fb 36020000 		.4byte	.LASF36
 1811 02ff 01       		.byte	0x1
 1812 0300 4B01     		.2byte	0x14b
 1813 0302 6F000000 		.4byte	0x6f
 1814 0306 00000000 		.4byte	.LFB39
 1815 030a 10000000 		.4byte	.LFE39
 1816 030e E2010000 		.4byte	.LLST10
 1817 0312 13       		.uleb128 0x13
 1818 0313 01       		.byte	0x1
 1819 0314 5B020000 		.4byte	.LASF37
 1820 0318 01       		.byte	0x1
 1821 0319 4F01     		.2byte	0x14f
 1822 031b 6F000000 		.4byte	0x6f
 1823 031f 00000000 		.4byte	.LFB40
 1824 0323 10000000 		.4byte	.LFE40
 1825 0327 0D020000 		.4byte	.LLST11
 1826 032b 14       		.uleb128 0x14
 1827 032c 01       		.byte	0x1
 1828 032d 8F000000 		.4byte	.LASF39
 1829 0331 01       		.byte	0x1
 1830 0332 5301     		.2byte	0x153
 1831 0334 00000000 		.4byte	.LFB41
 1832 0338 2C000000 		.4byte	.LFE41
 1833 033c 38020000 		.4byte	.LLST12
 1834 0340 15       		.uleb128 0x15
 1835 0341 01       		.byte	0x1
 1836 0342 19020000 		.4byte	.LASF51
 1837 0346 01       		.byte	0x1
 1838 0347 6301     		.2byte	0x163
 1839 0349 01       		.byte	0x1
 1840 034a 00000000 		.4byte	.LFB42
 1841 034e 5A000000 		.4byte	.LFE42
 1842 0352 63020000 		.4byte	.LLST13
 1843 0356 74030000 		.4byte	0x374
 1844 035a 0D       		.uleb128 0xd
 1845 035b 08000000 		.4byte	.LBB4
 1846 035f 48000000 		.4byte	.LBE4
 1847 0363 11       		.uleb128 0x11
 1848 0364 4B010000 		.4byte	.LASF40
 1849 0368 01       		.byte	0x1
 1850 0369 6601     		.2byte	0x166
 1851 036b 9E000000 		.4byte	0x9e
 1852 036f 02       		.byte	0x2
 1853 0370 91       		.byte	0x91
 1854 0371 77       		.sleb128 -9
 1855 0372 00       		.byte	0x0
 1856 0373 00       		.byte	0x0
 1857 0374 16       		.uleb128 0x16
 1858 0375 69010000 		.4byte	.LASF41
 1859 0379 03       		.byte	0x3
 1860 037a CE06     		.2byte	0x6ce
ARM GAS  C:\Users\karunmj\AppData\Local\Temp\ccb1mZ87.s 			page 42


 1861 037c 82030000 		.4byte	0x382
 1862 0380 01       		.byte	0x1
 1863 0381 01       		.byte	0x1
 1864 0382 17       		.uleb128 0x17
 1865 0383 61000000 		.4byte	0x61
 1866 0387 18       		.uleb128 0x18
 1867 0388 84020000 		.4byte	.LASF42
 1868 038c 01       		.byte	0x1
 1869 038d 14       		.byte	0x14
 1870 038e 6F000000 		.4byte	0x6f
 1871 0392 01       		.byte	0x1
 1872 0393 05       		.byte	0x5
 1873 0394 03       		.byte	0x3
 1874 0395 00000000 		.4byte	modem_state
 1875 0399 18       		.uleb128 0x18
 1876 039a 90020000 		.4byte	.LASF43
 1877 039e 01       		.byte	0x1
 1878 039f 14       		.byte	0x14
 1879 03a0 6F000000 		.4byte	0x6f
 1880 03a4 01       		.byte	0x1
 1881 03a5 05       		.byte	0x5
 1882 03a6 03       		.byte	0x3
 1883 03a7 00000000 		.4byte	lock_acquired
 1884 03ab 18       		.uleb128 0x18
 1885 03ac 3A000000 		.4byte	.LASF44
 1886 03b0 01       		.byte	0x1
 1887 03b1 16       		.byte	0x16
 1888 03b2 85000000 		.4byte	0x85
 1889 03b6 01       		.byte	0x1
 1890 03b7 05       		.byte	0x5
 1891 03b8 03       		.byte	0x3
 1892 03b9 00000000 		.4byte	feed_id
 1893 03bd 18       		.uleb128 0x18
 1894 03be BD000000 		.4byte	.LASF45
 1895 03c2 01       		.byte	0x1
 1896 03c3 17       		.byte	0x17
 1897 03c4 A8000000 		.4byte	0xa8
 1898 03c8 01       		.byte	0x1
 1899 03c9 05       		.byte	0x5
 1900 03ca 03       		.byte	0x3
 1901 03cb 00000000 		.4byte	api_key
 1902 03cf 18       		.uleb128 0x18
 1903 03d0 55000000 		.4byte	.LASF46
 1904 03d4 01       		.byte	0x1
 1905 03d5 15       		.byte	0x15
 1906 03d6 7A000000 		.4byte	0x7a
 1907 03da 01       		.byte	0x1
 1908 03db 05       		.byte	0x5
 1909 03dc 03       		.byte	0x3
 1910 03dd 00000000 		.4byte	uart_string_index
 1911 03e1 0F       		.uleb128 0xf
 1912 03e2 9E000000 		.4byte	0x9e
 1913 03e6 F2030000 		.4byte	0x3f2
 1914 03ea 10       		.uleb128 0x10
 1915 03eb A5000000 		.4byte	0xa5
 1916 03ef BB02     		.2byte	0x2bb
 1917 03f1 00       		.byte	0x0
ARM GAS  C:\Users\karunmj\AppData\Local\Temp\ccb1mZ87.s 			page 43


 1918 03f2 18       		.uleb128 0x18
 1919 03f3 67000000 		.4byte	.LASF47
 1920 03f7 01       		.byte	0x1
 1921 03f8 17       		.byte	0x17
 1922 03f9 E1030000 		.4byte	0x3e1
 1923 03fd 01       		.byte	0x1
 1924 03fe 05       		.byte	0x5
 1925 03ff 03       		.byte	0x3
 1926 0400 00000000 		.4byte	uart_received_string
 1927 0404 00       		.byte	0x0
 1928              		.section	.debug_abbrev
 1929 0000 01       		.uleb128 0x1
 1930 0001 11       		.uleb128 0x11
 1931 0002 01       		.byte	0x1
 1932 0003 25       		.uleb128 0x25
 1933 0004 0E       		.uleb128 0xe
 1934 0005 13       		.uleb128 0x13
 1935 0006 0B       		.uleb128 0xb
 1936 0007 03       		.uleb128 0x3
 1937 0008 0E       		.uleb128 0xe
 1938 0009 1B       		.uleb128 0x1b
 1939 000a 0E       		.uleb128 0xe
 1940 000b 11       		.uleb128 0x11
 1941 000c 01       		.uleb128 0x1
 1942 000d 52       		.uleb128 0x52
 1943 000e 01       		.uleb128 0x1
 1944 000f 55       		.uleb128 0x55
 1945 0010 06       		.uleb128 0x6
 1946 0011 10       		.uleb128 0x10
 1947 0012 06       		.uleb128 0x6
 1948 0013 00       		.byte	0x0
 1949 0014 00       		.byte	0x0
 1950 0015 02       		.uleb128 0x2
 1951 0016 24       		.uleb128 0x24
 1952 0017 00       		.byte	0x0
 1953 0018 0B       		.uleb128 0xb
 1954 0019 0B       		.uleb128 0xb
 1955 001a 3E       		.uleb128 0x3e
 1956 001b 0B       		.uleb128 0xb
 1957 001c 03       		.uleb128 0x3
 1958 001d 0E       		.uleb128 0xe
 1959 001e 00       		.byte	0x0
 1960 001f 00       		.byte	0x0
 1961 0020 03       		.uleb128 0x3
 1962 0021 24       		.uleb128 0x24
 1963 0022 00       		.byte	0x0
 1964 0023 0B       		.uleb128 0xb
 1965 0024 0B       		.uleb128 0xb
 1966 0025 3E       		.uleb128 0x3e
 1967 0026 0B       		.uleb128 0xb
 1968 0027 03       		.uleb128 0x3
 1969 0028 08       		.uleb128 0x8
 1970 0029 00       		.byte	0x0
 1971 002a 00       		.byte	0x0
 1972 002b 04       		.uleb128 0x4
 1973 002c 16       		.uleb128 0x16
 1974 002d 00       		.byte	0x0
ARM GAS  C:\Users\karunmj\AppData\Local\Temp\ccb1mZ87.s 			page 44


 1975 002e 03       		.uleb128 0x3
 1976 002f 0E       		.uleb128 0xe
 1977 0030 3A       		.uleb128 0x3a
 1978 0031 0B       		.uleb128 0xb
 1979 0032 3B       		.uleb128 0x3b
 1980 0033 0B       		.uleb128 0xb
 1981 0034 49       		.uleb128 0x49
 1982 0035 13       		.uleb128 0x13
 1983 0036 00       		.byte	0x0
 1984 0037 00       		.byte	0x0
 1985 0038 05       		.uleb128 0x5
 1986 0039 24       		.uleb128 0x24
 1987 003a 00       		.byte	0x0
 1988 003b 0B       		.uleb128 0xb
 1989 003c 0B       		.uleb128 0xb
 1990 003d 3E       		.uleb128 0x3e
 1991 003e 0B       		.uleb128 0xb
 1992 003f 00       		.byte	0x0
 1993 0040 00       		.byte	0x0
 1994 0041 06       		.uleb128 0x6
 1995 0042 0F       		.uleb128 0xf
 1996 0043 00       		.byte	0x0
 1997 0044 0B       		.uleb128 0xb
 1998 0045 0B       		.uleb128 0xb
 1999 0046 49       		.uleb128 0x49
 2000 0047 13       		.uleb128 0x13
 2001 0048 00       		.byte	0x0
 2002 0049 00       		.byte	0x0
 2003 004a 07       		.uleb128 0x7
 2004 004b 2E       		.uleb128 0x2e
 2005 004c 01       		.byte	0x1
 2006 004d 3F       		.uleb128 0x3f
 2007 004e 0C       		.uleb128 0xc
 2008 004f 03       		.uleb128 0x3
 2009 0050 0E       		.uleb128 0xe
 2010 0051 3A       		.uleb128 0x3a
 2011 0052 0B       		.uleb128 0xb
 2012 0053 3B       		.uleb128 0x3b
 2013 0054 0B       		.uleb128 0xb
 2014 0055 27       		.uleb128 0x27
 2015 0056 0C       		.uleb128 0xc
 2016 0057 49       		.uleb128 0x49
 2017 0058 13       		.uleb128 0x13
 2018 0059 11       		.uleb128 0x11
 2019 005a 01       		.uleb128 0x1
 2020 005b 12       		.uleb128 0x12
 2021 005c 01       		.uleb128 0x1
 2022 005d 40       		.uleb128 0x40
 2023 005e 06       		.uleb128 0x6
 2024 005f 01       		.uleb128 0x1
 2025 0060 13       		.uleb128 0x13
 2026 0061 00       		.byte	0x0
 2027 0062 00       		.byte	0x0
 2028 0063 08       		.uleb128 0x8
 2029 0064 05       		.uleb128 0x5
 2030 0065 00       		.byte	0x0
 2031 0066 03       		.uleb128 0x3
ARM GAS  C:\Users\karunmj\AppData\Local\Temp\ccb1mZ87.s 			page 45


 2032 0067 08       		.uleb128 0x8
 2033 0068 3A       		.uleb128 0x3a
 2034 0069 0B       		.uleb128 0xb
 2035 006a 3B       		.uleb128 0x3b
 2036 006b 0B       		.uleb128 0xb
 2037 006c 49       		.uleb128 0x49
 2038 006d 13       		.uleb128 0x13
 2039 006e 02       		.uleb128 0x2
 2040 006f 0A       		.uleb128 0xa
 2041 0070 00       		.byte	0x0
 2042 0071 00       		.byte	0x0
 2043 0072 09       		.uleb128 0x9
 2044 0073 2E       		.uleb128 0x2e
 2045 0074 00       		.byte	0x0
 2046 0075 3F       		.uleb128 0x3f
 2047 0076 0C       		.uleb128 0xc
 2048 0077 03       		.uleb128 0x3
 2049 0078 0E       		.uleb128 0xe
 2050 0079 3A       		.uleb128 0x3a
 2051 007a 0B       		.uleb128 0xb
 2052 007b 3B       		.uleb128 0x3b
 2053 007c 0B       		.uleb128 0xb
 2054 007d 11       		.uleb128 0x11
 2055 007e 01       		.uleb128 0x1
 2056 007f 12       		.uleb128 0x12
 2057 0080 01       		.uleb128 0x1
 2058 0081 40       		.uleb128 0x40
 2059 0082 06       		.uleb128 0x6
 2060 0083 00       		.byte	0x0
 2061 0084 00       		.byte	0x0
 2062 0085 0A       		.uleb128 0xa
 2063 0086 05       		.uleb128 0x5
 2064 0087 00       		.byte	0x0
 2065 0088 03       		.uleb128 0x3
 2066 0089 0E       		.uleb128 0xe
 2067 008a 3A       		.uleb128 0x3a
 2068 008b 0B       		.uleb128 0xb
 2069 008c 3B       		.uleb128 0x3b
 2070 008d 0B       		.uleb128 0xb
 2071 008e 49       		.uleb128 0x49
 2072 008f 13       		.uleb128 0x13
 2073 0090 02       		.uleb128 0x2
 2074 0091 0A       		.uleb128 0xa
 2075 0092 00       		.byte	0x0
 2076 0093 00       		.byte	0x0
 2077 0094 0B       		.uleb128 0xb
 2078 0095 34       		.uleb128 0x34
 2079 0096 00       		.byte	0x0
 2080 0097 03       		.uleb128 0x3
 2081 0098 0E       		.uleb128 0xe
 2082 0099 3A       		.uleb128 0x3a
 2083 009a 0B       		.uleb128 0xb
 2084 009b 3B       		.uleb128 0x3b
 2085 009c 0B       		.uleb128 0xb
 2086 009d 49       		.uleb128 0x49
 2087 009e 13       		.uleb128 0x13
 2088 009f 02       		.uleb128 0x2
ARM GAS  C:\Users\karunmj\AppData\Local\Temp\ccb1mZ87.s 			page 46


 2089 00a0 0A       		.uleb128 0xa
 2090 00a1 00       		.byte	0x0
 2091 00a2 00       		.byte	0x0
 2092 00a3 0C       		.uleb128 0xc
 2093 00a4 34       		.uleb128 0x34
 2094 00a5 00       		.byte	0x0
 2095 00a6 03       		.uleb128 0x3
 2096 00a7 08       		.uleb128 0x8
 2097 00a8 3A       		.uleb128 0x3a
 2098 00a9 0B       		.uleb128 0xb
 2099 00aa 3B       		.uleb128 0x3b
 2100 00ab 0B       		.uleb128 0xb
 2101 00ac 49       		.uleb128 0x49
 2102 00ad 13       		.uleb128 0x13
 2103 00ae 02       		.uleb128 0x2
 2104 00af 0A       		.uleb128 0xa
 2105 00b0 00       		.byte	0x0
 2106 00b1 00       		.byte	0x0
 2107 00b2 0D       		.uleb128 0xd
 2108 00b3 0B       		.uleb128 0xb
 2109 00b4 01       		.byte	0x1
 2110 00b5 11       		.uleb128 0x11
 2111 00b6 01       		.uleb128 0x1
 2112 00b7 12       		.uleb128 0x12
 2113 00b8 01       		.uleb128 0x1
 2114 00b9 00       		.byte	0x0
 2115 00ba 00       		.byte	0x0
 2116 00bb 0E       		.uleb128 0xe
 2117 00bc 2E       		.uleb128 0x2e
 2118 00bd 00       		.byte	0x0
 2119 00be 3F       		.uleb128 0x3f
 2120 00bf 0C       		.uleb128 0xc
 2121 00c0 03       		.uleb128 0x3
 2122 00c1 0E       		.uleb128 0xe
 2123 00c2 3A       		.uleb128 0x3a
 2124 00c3 0B       		.uleb128 0xb
 2125 00c4 3B       		.uleb128 0x3b
 2126 00c5 0B       		.uleb128 0xb
 2127 00c6 49       		.uleb128 0x49
 2128 00c7 13       		.uleb128 0x13
 2129 00c8 11       		.uleb128 0x11
 2130 00c9 01       		.uleb128 0x1
 2131 00ca 12       		.uleb128 0x12
 2132 00cb 01       		.uleb128 0x1
 2133 00cc 40       		.uleb128 0x40
 2134 00cd 06       		.uleb128 0x6
 2135 00ce 00       		.byte	0x0
 2136 00cf 00       		.byte	0x0
 2137 00d0 0F       		.uleb128 0xf
 2138 00d1 01       		.uleb128 0x1
 2139 00d2 01       		.byte	0x1
 2140 00d3 49       		.uleb128 0x49
 2141 00d4 13       		.uleb128 0x13
 2142 00d5 01       		.uleb128 0x1
 2143 00d6 13       		.uleb128 0x13
 2144 00d7 00       		.byte	0x0
 2145 00d8 00       		.byte	0x0
ARM GAS  C:\Users\karunmj\AppData\Local\Temp\ccb1mZ87.s 			page 47


 2146 00d9 10       		.uleb128 0x10
 2147 00da 21       		.uleb128 0x21
 2148 00db 00       		.byte	0x0
 2149 00dc 49       		.uleb128 0x49
 2150 00dd 13       		.uleb128 0x13
 2151 00de 2F       		.uleb128 0x2f
 2152 00df 05       		.uleb128 0x5
 2153 00e0 00       		.byte	0x0
 2154 00e1 00       		.byte	0x0
 2155 00e2 11       		.uleb128 0x11
 2156 00e3 34       		.uleb128 0x34
 2157 00e4 00       		.byte	0x0
 2158 00e5 03       		.uleb128 0x3
 2159 00e6 0E       		.uleb128 0xe
 2160 00e7 3A       		.uleb128 0x3a
 2161 00e8 0B       		.uleb128 0xb
 2162 00e9 3B       		.uleb128 0x3b
 2163 00ea 05       		.uleb128 0x5
 2164 00eb 49       		.uleb128 0x49
 2165 00ec 13       		.uleb128 0x13
 2166 00ed 02       		.uleb128 0x2
 2167 00ee 0A       		.uleb128 0xa
 2168 00ef 00       		.byte	0x0
 2169 00f0 00       		.byte	0x0
 2170 00f1 12       		.uleb128 0x12
 2171 00f2 21       		.uleb128 0x21
 2172 00f3 00       		.byte	0x0
 2173 00f4 49       		.uleb128 0x49
 2174 00f5 13       		.uleb128 0x13
 2175 00f6 2F       		.uleb128 0x2f
 2176 00f7 0B       		.uleb128 0xb
 2177 00f8 00       		.byte	0x0
 2178 00f9 00       		.byte	0x0
 2179 00fa 13       		.uleb128 0x13
 2180 00fb 2E       		.uleb128 0x2e
 2181 00fc 00       		.byte	0x0
 2182 00fd 3F       		.uleb128 0x3f
 2183 00fe 0C       		.uleb128 0xc
 2184 00ff 03       		.uleb128 0x3
 2185 0100 0E       		.uleb128 0xe
 2186 0101 3A       		.uleb128 0x3a
 2187 0102 0B       		.uleb128 0xb
 2188 0103 3B       		.uleb128 0x3b
 2189 0104 05       		.uleb128 0x5
 2190 0105 49       		.uleb128 0x49
 2191 0106 13       		.uleb128 0x13
 2192 0107 11       		.uleb128 0x11
 2193 0108 01       		.uleb128 0x1
 2194 0109 12       		.uleb128 0x12
 2195 010a 01       		.uleb128 0x1
 2196 010b 40       		.uleb128 0x40
 2197 010c 06       		.uleb128 0x6
 2198 010d 00       		.byte	0x0
 2199 010e 00       		.byte	0x0
 2200 010f 14       		.uleb128 0x14
 2201 0110 2E       		.uleb128 0x2e
 2202 0111 00       		.byte	0x0
ARM GAS  C:\Users\karunmj\AppData\Local\Temp\ccb1mZ87.s 			page 48


 2203 0112 3F       		.uleb128 0x3f
 2204 0113 0C       		.uleb128 0xc
 2205 0114 03       		.uleb128 0x3
 2206 0115 0E       		.uleb128 0xe
 2207 0116 3A       		.uleb128 0x3a
 2208 0117 0B       		.uleb128 0xb
 2209 0118 3B       		.uleb128 0x3b
 2210 0119 05       		.uleb128 0x5
 2211 011a 11       		.uleb128 0x11
 2212 011b 01       		.uleb128 0x1
 2213 011c 12       		.uleb128 0x12
 2214 011d 01       		.uleb128 0x1
 2215 011e 40       		.uleb128 0x40
 2216 011f 06       		.uleb128 0x6
 2217 0120 00       		.byte	0x0
 2218 0121 00       		.byte	0x0
 2219 0122 15       		.uleb128 0x15
 2220 0123 2E       		.uleb128 0x2e
 2221 0124 01       		.byte	0x1
 2222 0125 3F       		.uleb128 0x3f
 2223 0126 0C       		.uleb128 0xc
 2224 0127 03       		.uleb128 0x3
 2225 0128 0E       		.uleb128 0xe
 2226 0129 3A       		.uleb128 0x3a
 2227 012a 0B       		.uleb128 0xb
 2228 012b 3B       		.uleb128 0x3b
 2229 012c 05       		.uleb128 0x5
 2230 012d 27       		.uleb128 0x27
 2231 012e 0C       		.uleb128 0xc
 2232 012f 11       		.uleb128 0x11
 2233 0130 01       		.uleb128 0x1
 2234 0131 12       		.uleb128 0x12
 2235 0132 01       		.uleb128 0x1
 2236 0133 40       		.uleb128 0x40
 2237 0134 06       		.uleb128 0x6
 2238 0135 01       		.uleb128 0x1
 2239 0136 13       		.uleb128 0x13
 2240 0137 00       		.byte	0x0
 2241 0138 00       		.byte	0x0
 2242 0139 16       		.uleb128 0x16
 2243 013a 34       		.uleb128 0x34
 2244 013b 00       		.byte	0x0
 2245 013c 03       		.uleb128 0x3
 2246 013d 0E       		.uleb128 0xe
 2247 013e 3A       		.uleb128 0x3a
 2248 013f 0B       		.uleb128 0xb
 2249 0140 3B       		.uleb128 0x3b
 2250 0141 05       		.uleb128 0x5
 2251 0142 49       		.uleb128 0x49
 2252 0143 13       		.uleb128 0x13
 2253 0144 3F       		.uleb128 0x3f
 2254 0145 0C       		.uleb128 0xc
 2255 0146 3C       		.uleb128 0x3c
 2256 0147 0C       		.uleb128 0xc
 2257 0148 00       		.byte	0x0
 2258 0149 00       		.byte	0x0
 2259 014a 17       		.uleb128 0x17
ARM GAS  C:\Users\karunmj\AppData\Local\Temp\ccb1mZ87.s 			page 49


 2260 014b 35       		.uleb128 0x35
 2261 014c 00       		.byte	0x0
 2262 014d 49       		.uleb128 0x49
 2263 014e 13       		.uleb128 0x13
 2264 014f 00       		.byte	0x0
 2265 0150 00       		.byte	0x0
 2266 0151 18       		.uleb128 0x18
 2267 0152 34       		.uleb128 0x34
 2268 0153 00       		.byte	0x0
 2269 0154 03       		.uleb128 0x3
 2270 0155 0E       		.uleb128 0xe
 2271 0156 3A       		.uleb128 0x3a
 2272 0157 0B       		.uleb128 0xb
 2273 0158 3B       		.uleb128 0x3b
 2274 0159 0B       		.uleb128 0xb
 2275 015a 49       		.uleb128 0x49
 2276 015b 13       		.uleb128 0x13
 2277 015c 3F       		.uleb128 0x3f
 2278 015d 0C       		.uleb128 0xc
 2279 015e 02       		.uleb128 0x2
 2280 015f 0A       		.uleb128 0xa
 2281 0160 00       		.byte	0x0
 2282 0161 00       		.byte	0x0
 2283 0162 00       		.byte	0x0
 2284              		.section	.debug_pubnames,"",%progbits
 2285 0000 90010000 		.4byte	0x190
 2286 0004 0200     		.2byte	0x2
 2287 0006 00000000 		.4byte	.Ldebug_info0
 2288 000a 05040000 		.4byte	0x405
 2289 000e AE000000 		.4byte	0xae
 2290 0012 6D6F6465 		.ascii	"modem_set_api_feed\000"
 2290      6D5F7365 
 2290      745F6170 
 2290      695F6665 
 2290      656400
 2291 0025 E7000000 		.4byte	0xe7
 2292 0029 6D6F6465 		.ascii	"modem_start\000"
 2292      6D5F7374 
 2292      61727400 
 2293 0035 FB000000 		.4byte	0xfb
 2294 0039 61745F77 		.ascii	"at_write_command\000"
 2294      72697465 
 2294      5F636F6D 
 2294      6D616E64 
 2294      00
 2295 004a 91010000 		.4byte	0x191
 2296 004e 6D6F6465 		.ascii	"modem_power_on\000"
 2296      6D5F706F 
 2296      7765725F 
 2296      6F6E00
 2297 005d A9010000 		.4byte	0x1a9
 2298 0061 6D6F6465 		.ascii	"modem_power_off\000"
 2298      6D5F706F 
 2298      7765725F 
 2298      6F666600 
 2299 0071 C1010000 		.4byte	0x1c1
 2300 0075 6D6F6465 		.ascii	"modem_reset\000"
ARM GAS  C:\Users\karunmj\AppData\Local\Temp\ccb1mZ87.s 			page 50


 2300      6D5F7265 
 2300      73657400 
 2301 0081 D9010000 		.4byte	0x1d9
 2302 0085 6D6F6465 		.ascii	"modem_connect\000"
 2302      6D5F636F 
 2302      6E6E6563 
 2302      7400
 2303 0093 F1010000 		.4byte	0x1f1
 2304 0097 6D6F6465 		.ascii	"modem_disconnect\000"
 2304      6D5F6469 
 2304      73636F6E 
 2304      6E656374 
 2304      00
 2305 00a8 09020000 		.4byte	0x209
 2306 00ac 6D6F6465 		.ascii	"modem_send_packet\000"
 2306      6D5F7365 
 2306      6E645F70 
 2306      61636B65 
 2306      7400
 2307 00be 6E020000 		.4byte	0x26e
 2308 00c2 6D6F6465 		.ascii	"modem_get_packet\000"
 2308      6D5F6765 
 2308      745F7061 
 2308      636B6574 
 2308      00
 2309 00d3 F9020000 		.4byte	0x2f9
 2310 00d7 6D6F6465 		.ascii	"modem_acquire_lock\000"
 2310      6D5F6163 
 2310      71756972 
 2310      655F6C6F 
 2310      636B00
 2311 00ea 12030000 		.4byte	0x312
 2312 00ee 6D6F6465 		.ascii	"modem_release_lock\000"
 2312      6D5F7265 
 2312      6C656173 
 2312      655F6C6F 
 2312      636B00
 2313 0101 2B030000 		.4byte	0x32b
 2314 0105 75617274 		.ascii	"uart_string_reset\000"
 2314      5F737472 
 2314      696E675F 
 2314      72657365 
 2314      7400
 2315 0117 40030000 		.4byte	0x340
 2316 011b 6973725F 		.ascii	"isr_byte_rx\000"
 2316      62797465 
 2316      5F727800 
 2317 0127 87030000 		.4byte	0x387
 2318 012b 6D6F6465 		.ascii	"modem_state\000"
 2318      6D5F7374 
 2318      61746500 
 2319 0137 99030000 		.4byte	0x399
 2320 013b 6C6F636B 		.ascii	"lock_acquired\000"
 2320      5F616371 
 2320      75697265 
 2320      6400
 2321 0149 AB030000 		.4byte	0x3ab
ARM GAS  C:\Users\karunmj\AppData\Local\Temp\ccb1mZ87.s 			page 51


 2322 014d 66656564 		.ascii	"feed_id\000"
 2322      5F696400 
 2323 0155 BD030000 		.4byte	0x3bd
 2324 0159 6170695F 		.ascii	"api_key\000"
 2324      6B657900 
 2325 0161 CF030000 		.4byte	0x3cf
 2326 0165 75617274 		.ascii	"uart_string_index\000"
 2326      5F737472 
 2326      696E675F 
 2326      696E6465 
 2326      7800
 2327 0177 F2030000 		.4byte	0x3f2
 2328 017b 75617274 		.ascii	"uart_received_string\000"
 2328      5F726563 
 2328      65697665 
 2328      645F7374 
 2328      72696E67 
 2329 0190 00000000 		.4byte	0x0
 2330              		.section	.debug_aranges,"",%progbits
 2331 0000 84000000 		.4byte	0x84
 2332 0004 0200     		.2byte	0x2
 2333 0006 00000000 		.4byte	.Ldebug_info0
 2334 000a 04       		.byte	0x4
 2335 000b 00       		.byte	0x0
 2336 000c 0000     		.2byte	0x0
 2337 000e 0000     		.2byte	0x0
 2338 0010 00000000 		.4byte	.LFB29
 2339 0014 32000000 		.4byte	.LFE29-.LFB29
 2340 0018 00000000 		.4byte	.LFB30
 2341 001c 34000000 		.4byte	.LFE30-.LFB30
 2342 0020 00000000 		.4byte	.LFB31
 2343 0024 84000000 		.4byte	.LFE31-.LFB31
 2344 0028 00000000 		.4byte	.LFB32
 2345 002c 60000000 		.4byte	.LFE32-.LFB32
 2346 0030 00000000 		.4byte	.LFB33
 2347 0034 60000000 		.4byte	.LFE33-.LFB33
 2348 0038 00000000 		.4byte	.LFB34
 2349 003c 4E000000 		.4byte	.LFE34-.LFB34
 2350 0040 00000000 		.4byte	.LFB35
 2351 0044 4C000000 		.4byte	.LFE35-.LFB35
 2352 0048 00000000 		.4byte	.LFB36
 2353 004c BE000000 		.4byte	.LFE36-.LFB36
 2354 0050 00000000 		.4byte	.LFB37
 2355 0054 2A010000 		.4byte	.LFE37-.LFB37
 2356 0058 00000000 		.4byte	.LFB38
 2357 005c 18020000 		.4byte	.LFE38-.LFB38
 2358 0060 00000000 		.4byte	.LFB39
 2359 0064 10000000 		.4byte	.LFE39-.LFB39
 2360 0068 00000000 		.4byte	.LFB40
 2361 006c 10000000 		.4byte	.LFE40-.LFB40
 2362 0070 00000000 		.4byte	.LFB41
 2363 0074 2C000000 		.4byte	.LFE41-.LFB41
 2364 0078 00000000 		.4byte	.LFB42
 2365 007c 5A000000 		.4byte	.LFE42-.LFB42
 2366 0080 00000000 		.4byte	0x0
 2367 0084 00000000 		.4byte	0x0
 2368              		.section	.debug_ranges,"",%progbits
ARM GAS  C:\Users\karunmj\AppData\Local\Temp\ccb1mZ87.s 			page 52


 2369              	.Ldebug_ranges0:
 2370 0000 00000000 		.4byte	.Ltext0
 2371 0004 00000000 		.4byte	.Letext0
 2372 0008 00000000 		.4byte	.LFB29
 2373 000c 32000000 		.4byte	.LFE29
 2374 0010 00000000 		.4byte	.LFB30
 2375 0014 34000000 		.4byte	.LFE30
 2376 0018 00000000 		.4byte	.LFB31
 2377 001c 84000000 		.4byte	.LFE31
 2378 0020 00000000 		.4byte	.LFB32
 2379 0024 60000000 		.4byte	.LFE32
 2380 0028 00000000 		.4byte	.LFB33
 2381 002c 60000000 		.4byte	.LFE33
 2382 0030 00000000 		.4byte	.LFB34
 2383 0034 4E000000 		.4byte	.LFE34
 2384 0038 00000000 		.4byte	.LFB35
 2385 003c 4C000000 		.4byte	.LFE35
 2386 0040 00000000 		.4byte	.LFB36
 2387 0044 BE000000 		.4byte	.LFE36
 2388 0048 00000000 		.4byte	.LFB37
 2389 004c 2A010000 		.4byte	.LFE37
 2390 0050 00000000 		.4byte	.LFB38
 2391 0054 18020000 		.4byte	.LFE38
 2392 0058 00000000 		.4byte	.LFB39
 2393 005c 10000000 		.4byte	.LFE39
 2394 0060 00000000 		.4byte	.LFB40
 2395 0064 10000000 		.4byte	.LFE40
 2396 0068 00000000 		.4byte	.LFB41
 2397 006c 2C000000 		.4byte	.LFE41
 2398 0070 00000000 		.4byte	.LFB42
 2399 0074 5A000000 		.4byte	.LFE42
 2400 0078 00000000 		.4byte	0x0
 2401 007c 00000000 		.4byte	0x0
 2402              		.section	.debug_str,"MS",%progbits,1
 2403              	.LASF6:
 2404 0000 6C6F6E67 		.ascii	"long long int\000"
 2404      206C6F6E 
 2404      6720696E 
 2404      7400
 2405              	.LASF24:
 2406 000e 6D6F6465 		.ascii	"modem_power_on\000"
 2406      6D5F706F 
 2406      7765725F 
 2406      6F6E00
 2407              	.LASF16:
 2408 001d 61745F77 		.ascii	"at_write_command\000"
 2408      72697465 
 2408      5F636F6D 
 2408      6D616E64 
 2408      00
 2409              	.LASF26:
 2410 002e 6D6F6465 		.ascii	"modem_reset\000"
 2410      6D5F7265 
 2410      73657400 
 2411              	.LASF44:
 2412 003a 66656564 		.ascii	"feed_id\000"
 2412      5F696400 
ARM GAS  C:\Users\karunmj\AppData\Local\Temp\ccb1mZ87.s 			page 53


 2413              	.LASF15:
 2414 0042 6D6F6465 		.ascii	"modem_set_api_feed\000"
 2414      6D5F7365 
 2414      745F6170 
 2414      695F6665 
 2414      656400
 2415              	.LASF46:
 2416 0055 75617274 		.ascii	"uart_string_index\000"
 2416      5F737472 
 2416      696E675F 
 2416      696E6465 
 2416      7800
 2417              	.LASF47:
 2418 0067 75617274 		.ascii	"uart_received_string\000"
 2418      5F726563 
 2418      65697665 
 2418      645F7374 
 2418      72696E67 
 2419              	.LASF3:
 2420 007c 73686F72 		.ascii	"short unsigned int\000"
 2420      7420756E 
 2420      7369676E 
 2420      65642069 
 2420      6E7400
 2421              	.LASF39:
 2422 008f 75617274 		.ascii	"uart_string_reset\000"
 2422      5F737472 
 2422      696E675F 
 2422      72657365 
 2422      7400
 2423              	.LASF9:
 2424 00a1 75696E74 		.ascii	"uint8\000"
 2424      3800
 2425              	.LASF27:
 2426 00a7 6D6F6465 		.ascii	"modem_connect\000"
 2426      6D5F636F 
 2426      6E6E6563 
 2426      7400
 2427              	.LASF35:
 2428 00b5 6B65795F 		.ascii	"key_str\000"
 2428      73747200 
 2429              	.LASF45:
 2430 00bd 6170695F 		.ascii	"api_key\000"
 2430      6B657900 
 2431              	.LASF12:
 2432 00c5 666C6F61 		.ascii	"float\000"
 2432      7400
 2433              	.LASF21:
 2434 00cb 64656C61 		.ascii	"delay\000"
 2434      7900
 2435              	.LASF50:
 2436 00d1 433A5C55 		.ascii	"C:\\Users\\karunmj\\Documents\\GitHub\\m2m\\hardwar"
 2436      73657273 
 2436      5C6B6172 
 2436      756E6D6A 
 2436      5C446F63 
 2437 00fe 655C7073 		.ascii	"e\\psoc5\\PSoC_Datalogger_SMS.cydsn\000"
ARM GAS  C:\Users\karunmj\AppData\Local\Temp\ccb1mZ87.s 			page 54


 2437      6F63355C 
 2437      50536F43 
 2437      5F446174 
 2437      616C6F67 
 2438              	.LASF1:
 2439 0120 756E7369 		.ascii	"unsigned char\000"
 2439      676E6564 
 2439      20636861 
 2439      7200
 2440              	.LASF18:
 2441 012e 65787065 		.ascii	"expected_response\000"
 2441      63746564 
 2441      5F726573 
 2441      706F6E73 
 2441      6500
 2442              	.LASF32:
 2443 0140 73656E64 		.ascii	"sendBuffer\000"
 2443      42756666 
 2443      657200
 2444              	.LASF40:
 2445 014b 72785F63 		.ascii	"rx_char_hold\000"
 2445      6861725F 
 2445      686F6C64 
 2445      00
 2446              	.LASF28:
 2447 0158 6D6F6465 		.ascii	"modem_disconnect\000"
 2447      6D5F6469 
 2447      73636F6E 
 2447      6E656374 
 2447      00
 2448              	.LASF41:
 2449 0169 49544D5F 		.ascii	"ITM_RxBuffer\000"
 2449      52784275 
 2449      66666572 
 2449      00
 2450              	.LASF17:
 2451 0176 75617274 		.ascii	"uart_string\000"
 2451      5F737472 
 2451      696E6700 
 2452              	.LASF2:
 2453 0182 73686F72 		.ascii	"short int\000"
 2453      7420696E 
 2453      7400
 2454              	.LASF30:
 2455 018c 7061636B 		.ascii	"packet\000"
 2455      657400
 2456              	.LASF10:
 2457 0193 75696E74 		.ascii	"uint16\000"
 2457      313600
 2458              	.LASF11:
 2459 019a 75696E74 		.ascii	"uint32\000"
 2459      333200
 2460              	.LASF5:
 2461 01a1 6C6F6E67 		.ascii	"long unsigned int\000"
 2461      20756E73 
 2461      69676E65 
 2461      6420696E 
ARM GAS  C:\Users\karunmj\AppData\Local\Temp\ccb1mZ87.s 			page 55


 2461      7400
 2462              	.LASF8:
 2463 01b3 756E7369 		.ascii	"unsigned int\000"
 2463      676E6564 
 2463      20696E74 
 2463      00
 2464              	.LASF7:
 2465 01c0 6C6F6E67 		.ascii	"long long unsigned int\000"
 2465      206C6F6E 
 2465      6720756E 
 2465      7369676E 
 2465      65642069 
 2466              	.LASF34:
 2467 01d7 6765745F 		.ascii	"get_str\000"
 2467      73747200 
 2468              	.LASF49:
 2469 01df 2E5C6D6F 		.ascii	".\\modem.c\000"
 2469      64656D2E 
 2469      6300
 2470              	.LASF20:
 2471 01e9 72657370 		.ascii	"response\000"
 2471      6F6E7365 
 2471      00
 2472              	.LASF48:
 2473 01f2 474E5520 		.ascii	"GNU C 4.4.1\000"
 2473      4320342E 
 2473      342E3100 
 2474              	.LASF14:
 2475 01fe 63686172 		.ascii	"char\000"
 2475      00
 2476              	.LASF25:
 2477 0203 6D6F6465 		.ascii	"modem_power_off\000"
 2477      6D5F706F 
 2477      7765725F 
 2477      6F666600 
 2478              	.LASF23:
 2479 0213 76616C69 		.ascii	"valid\000"
 2479      6400
 2480              	.LASF51:
 2481 0219 6973725F 		.ascii	"isr_byte_rx\000"
 2481      62797465 
 2481      5F727800 
 2482              	.LASF33:
 2483 0225 6D6F6465 		.ascii	"modem_get_packet\000"
 2483      6D5F6765 
 2483      745F7061 
 2483      636B6574 
 2483      00
 2484              	.LASF36:
 2485 0236 6D6F6465 		.ascii	"modem_acquire_lock\000"
 2485      6D5F6163 
 2485      71756972 
 2485      655F6C6F 
 2485      636B00
 2486              	.LASF22:
 2487 0249 696E7465 		.ascii	"interval\000"
 2487      7276616C 
ARM GAS  C:\Users\karunmj\AppData\Local\Temp\ccb1mZ87.s 			page 56


 2487      00
 2488              	.LASF31:
 2489 0252 61747465 		.ascii	"attempts\000"
 2489      6D707473 
 2489      00
 2490              	.LASF37:
 2491 025b 6D6F6465 		.ascii	"modem_release_lock\000"
 2491      6D5F7265 
 2491      6C656173 
 2491      655F6C6F 
 2491      636B00
 2492              	.LASF19:
 2493 026e 75617274 		.ascii	"uart_timeout\000"
 2493      5F74696D 
 2493      656F7574 
 2493      00
 2494              	.LASF4:
 2495 027b 6C6F6E67 		.ascii	"long int\000"
 2495      20696E74 
 2495      00
 2496              	.LASF42:
 2497 0284 6D6F6465 		.ascii	"modem_state\000"
 2497      6D5F7374 
 2497      61746500 
 2498              	.LASF43:
 2499 0290 6C6F636B 		.ascii	"lock_acquired\000"
 2499      5F616371 
 2499      75697265 
 2499      6400
 2500              	.LASF0:
 2501 029e 7369676E 		.ascii	"signed char\000"
 2501      65642063 
 2501      68617200 
 2502              	.LASF13:
 2503 02aa 646F7562 		.ascii	"double\000"
 2503      6C6500
 2504              	.LASF38:
 2505 02b1 6D6F6465 		.ascii	"modem_start\000"
 2505      6D5F7374 
 2505      61727400 
 2506              	.LASF29:
 2507 02bd 6D6F6465 		.ascii	"modem_send_packet\000"
 2507      6D5F7365 
 2507      6E645F70 
 2507      61636B65 
 2507      7400
 2508              		.ident	"GCC: (Sourcery G++ Lite 2010q1-188) 4.4.1"
