ARM GAS  C:\Users\karunmj\AppData\Local\Temp\ccSaeQFW.s 			page 1


   1              		.syntax unified
   2              		.cpu cortex-m3
   3              		.fpu softvfp
   4              		.eabi_attribute 20, 1
   5              		.eabi_attribute 21, 1
   6              		.eabi_attribute 23, 3
   7              		.eabi_attribute 24, 1
   8              		.eabi_attribute 25, 1
   9              		.eabi_attribute 26, 1
  10              		.eabi_attribute 30, 6
  11              		.eabi_attribute 18, 4
  12              		.thumb
  13              		.file	"NEOMOTE_1_I2C_0_PM.c"
  20 0000 EC000000 		.text
  20      02008000 
  20      00000201 
  20      FB0E0D00 
  20      01010101 
  21              	.Ltext0:
  22              		.cfi_sections	.debug_frame
  23              		.global	NEOMOTE_1_I2C_0_backup
  24              		.data
  25              		.align	2
  26              		.type	NEOMOTE_1_I2C_0_backup, %object
  27              		.size	NEOMOTE_1_I2C_0_backup, 5
  28              	NEOMOTE_1_I2C_0_backup:
  29 0000 00       		.byte	0
  30 0001 81       		.byte	-127
  31 0002 02       		.byte	2
  32 0003 0F       		.byte	15
  33 0004 00       		.byte	0
  34 0005 000000   		.section	.text.NEOMOTE_1_I2C_0_SaveConfig,"ax",%progbits
  35              		.align	2
  36              		.global	NEOMOTE_1_I2C_0_SaveConfig
  37              		.thumb
  38              		.thumb_func
  39              		.type	NEOMOTE_1_I2C_0_SaveConfig, %function
  40              	NEOMOTE_1_I2C_0_SaveConfig:
  41              	.LFB0:
  42              		.file 1 ".\\Generated_Source\\PSoC5\\NEOMOTE_1_I2C_0_PM.c"
   1:.\Generated_Source\PSoC5/NEOMOTE_1_I2C_0_PM.c **** /*******************************************************************************
   2:.\Generated_Source\PSoC5/NEOMOTE_1_I2C_0_PM.c **** * File Name: NEOMOTE_1_I2C_0_PM.c
   3:.\Generated_Source\PSoC5/NEOMOTE_1_I2C_0_PM.c **** * Version 3.30
   4:.\Generated_Source\PSoC5/NEOMOTE_1_I2C_0_PM.c **** *
   5:.\Generated_Source\PSoC5/NEOMOTE_1_I2C_0_PM.c **** * Description:
   6:.\Generated_Source\PSoC5/NEOMOTE_1_I2C_0_PM.c **** *  This file provides Low power mode APIs for I2C component.
   7:.\Generated_Source\PSoC5/NEOMOTE_1_I2C_0_PM.c **** *
   8:.\Generated_Source\PSoC5/NEOMOTE_1_I2C_0_PM.c **** * Note:
   9:.\Generated_Source\PSoC5/NEOMOTE_1_I2C_0_PM.c **** *  None
  10:.\Generated_Source\PSoC5/NEOMOTE_1_I2C_0_PM.c **** *
  11:.\Generated_Source\PSoC5/NEOMOTE_1_I2C_0_PM.c **** ********************************************************************************
ARM GAS  C:\Users\karunmj\AppData\Local\Temp\ccSaeQFW.s 			page 2


  12:.\Generated_Source\PSoC5/NEOMOTE_1_I2C_0_PM.c **** * Copyright 2008-2012, Cypress Semiconductor Corporation.  All rights reserved.
  13:.\Generated_Source\PSoC5/NEOMOTE_1_I2C_0_PM.c **** * You may use this file only in accordance with the license, terms, conditions,
  14:.\Generated_Source\PSoC5/NEOMOTE_1_I2C_0_PM.c **** * disclaimers, and limitations in the end user license agreement accompanying
  15:.\Generated_Source\PSoC5/NEOMOTE_1_I2C_0_PM.c **** * the software package with which this file was provided.
  16:.\Generated_Source\PSoC5/NEOMOTE_1_I2C_0_PM.c **** *******************************************************************************/
  17:.\Generated_Source\PSoC5/NEOMOTE_1_I2C_0_PM.c **** 
  18:.\Generated_Source\PSoC5/NEOMOTE_1_I2C_0_PM.c **** #include "NEOMOTE_1_I2C_0_PVT.h"
  19:.\Generated_Source\PSoC5/NEOMOTE_1_I2C_0_PM.c **** 
  20:.\Generated_Source\PSoC5/NEOMOTE_1_I2C_0_PM.c **** NEOMOTE_1_I2C_0_BACKUP_STRUCT NEOMOTE_1_I2C_0_backup =
  21:.\Generated_Source\PSoC5/NEOMOTE_1_I2C_0_PM.c **** {
  22:.\Generated_Source\PSoC5/NEOMOTE_1_I2C_0_PM.c ****     NEOMOTE_1_I2C_0_DISABLE, /* enableState */
  23:.\Generated_Source\PSoC5/NEOMOTE_1_I2C_0_PM.c **** 
  24:.\Generated_Source\PSoC5/NEOMOTE_1_I2C_0_PM.c ****     #if(NEOMOTE_1_I2C_0_FF_IMPLEMENTED)
  25:.\Generated_Source\PSoC5/NEOMOTE_1_I2C_0_PM.c ****         NEOMOTE_1_I2C_0_DEFAULT_XCFG,  /* xcfg */
  26:.\Generated_Source\PSoC5/NEOMOTE_1_I2C_0_PM.c ****         NEOMOTE_1_I2C_0_DEFAULT_CFG,   /* cfg  */
  27:.\Generated_Source\PSoC5/NEOMOTE_1_I2C_0_PM.c **** 
  28:.\Generated_Source\PSoC5/NEOMOTE_1_I2C_0_PM.c ****         #if(NEOMOTE_1_I2C_0_MODE_SLAVE_ENABLED)
  29:.\Generated_Source\PSoC5/NEOMOTE_1_I2C_0_PM.c ****             NEOMOTE_1_I2C_0_DEFAULT_ADDR, /* addr */
  30:.\Generated_Source\PSoC5/NEOMOTE_1_I2C_0_PM.c ****         #endif /* (NEOMOTE_1_I2C_0_MODE_SLAVE_ENABLED) */
  31:.\Generated_Source\PSoC5/NEOMOTE_1_I2C_0_PM.c **** 
  32:.\Generated_Source\PSoC5/NEOMOTE_1_I2C_0_PM.c ****         #if(CY_PSOC5A)
  33:.\Generated_Source\PSoC5/NEOMOTE_1_I2C_0_PM.c ****             LO8(NEOMOTE_1_I2C_0_DEFAULT_DIVIDE_FACTOR),  /* div */
  34:.\Generated_Source\PSoC5/NEOMOTE_1_I2C_0_PM.c ****         #else
  35:.\Generated_Source\PSoC5/NEOMOTE_1_I2C_0_PM.c ****             LO8(NEOMOTE_1_I2C_0_DEFAULT_DIVIDE_FACTOR), /* div1 */
  36:.\Generated_Source\PSoC5/NEOMOTE_1_I2C_0_PM.c ****             HI8(NEOMOTE_1_I2C_0_DEFAULT_DIVIDE_FACTOR), /* div2 */
  37:.\Generated_Source\PSoC5/NEOMOTE_1_I2C_0_PM.c ****         #endif /* (CY_PSOC5A) */
  38:.\Generated_Source\PSoC5/NEOMOTE_1_I2C_0_PM.c **** 
  39:.\Generated_Source\PSoC5/NEOMOTE_1_I2C_0_PM.c ****     #else  /* (NEOMOTE_1_I2C_0_UDB_IMPLEMENTED) */
  40:.\Generated_Source\PSoC5/NEOMOTE_1_I2C_0_PM.c ****         NEOMOTE_1_I2C_0_DEFAULT_CFG,    /* control */
  41:.\Generated_Source\PSoC5/NEOMOTE_1_I2C_0_PM.c **** 
  42:.\Generated_Source\PSoC5/NEOMOTE_1_I2C_0_PM.c ****         #if(CY_UDB_V0)
  43:.\Generated_Source\PSoC5/NEOMOTE_1_I2C_0_PM.c ****             NEOMOTE_1_I2C_0_INT_ENABLE_MASK, /* aux_ctl */
  44:.\Generated_Source\PSoC5/NEOMOTE_1_I2C_0_PM.c **** 
  45:.\Generated_Source\PSoC5/NEOMOTE_1_I2C_0_PM.c ****             #if(NEOMOTE_1_I2C_0_MODE_SLAVE_ENABLED)
  46:.\Generated_Source\PSoC5/NEOMOTE_1_I2C_0_PM.c ****                 NEOMOTE_1_I2C_0_DEFAULT_ADDR, /* addr_d0 */
  47:.\Generated_Source\PSoC5/NEOMOTE_1_I2C_0_PM.c ****             #endif /* (NEOMOTE_1_I2C_0_MODE_SLAVE_ENABLED) */
  48:.\Generated_Source\PSoC5/NEOMOTE_1_I2C_0_PM.c ****         #endif /* (CY_UDB_V0) */
  49:.\Generated_Source\PSoC5/NEOMOTE_1_I2C_0_PM.c ****     #endif /* (NEOMOTE_1_I2C_0_FF_IMPLEMENTED) */
  50:.\Generated_Source\PSoC5/NEOMOTE_1_I2C_0_PM.c **** 
  51:.\Generated_Source\PSoC5/NEOMOTE_1_I2C_0_PM.c ****     #if(NEOMOTE_1_I2C_0_TIMEOUT_ENABLED)
  52:.\Generated_Source\PSoC5/NEOMOTE_1_I2C_0_PM.c ****         NEOMOTE_1_I2C_0_DEFAULT_TMOUT_PERIOD,
  53:.\Generated_Source\PSoC5/NEOMOTE_1_I2C_0_PM.c ****         NEOMOTE_1_I2C_0_DEFAULT_TMOUT_INTR_MASK,
  54:.\Generated_Source\PSoC5/NEOMOTE_1_I2C_0_PM.c **** 
  55:.\Generated_Source\PSoC5/NEOMOTE_1_I2C_0_PM.c ****         #if(NEOMOTE_1_I2C_0_TIMEOUT_PRESCALER_ENABLED && CY_UDB_V0)
  56:.\Generated_Source\PSoC5/NEOMOTE_1_I2C_0_PM.c ****             NEOMOTE_1_I2C_0_DEFAULT_TMOUT_PRESCALER_PRD,
  57:.\Generated_Source\PSoC5/NEOMOTE_1_I2C_0_PM.c ****         #endif /* (NEOMOTE_1_I2C_0_TIMEOUT_PRESCALER_ENABLED) */
  58:.\Generated_Source\PSoC5/NEOMOTE_1_I2C_0_PM.c **** 
  59:.\Generated_Source\PSoC5/NEOMOTE_1_I2C_0_PM.c ****     #endif /* (NEOMOTE_1_I2C_0_TIMEOUT_ENABLED) */
  60:.\Generated_Source\PSoC5/NEOMOTE_1_I2C_0_PM.c **** };
  61:.\Generated_Source\PSoC5/NEOMOTE_1_I2C_0_PM.c **** 
  62:.\Generated_Source\PSoC5/NEOMOTE_1_I2C_0_PM.c **** #if((NEOMOTE_1_I2C_0_FF_IMPLEMENTED) && (NEOMOTE_1_I2C_0_WAKEUP_ENABLED))
  63:.\Generated_Source\PSoC5/NEOMOTE_1_I2C_0_PM.c ****     volatile uint8 NEOMOTE_1_I2C_0_wakeupSource;
  64:.\Generated_Source\PSoC5/NEOMOTE_1_I2C_0_PM.c **** #endif /* ((NEOMOTE_1_I2C_0_FF_IMPLEMENTED) && (NEOMOTE_1_I2C_0_WAKEUP_ENABLED)) */
  65:.\Generated_Source\PSoC5/NEOMOTE_1_I2C_0_PM.c **** 
  66:.\Generated_Source\PSoC5/NEOMOTE_1_I2C_0_PM.c **** 
  67:.\Generated_Source\PSoC5/NEOMOTE_1_I2C_0_PM.c **** /*******************************************************************************
  68:.\Generated_Source\PSoC5/NEOMOTE_1_I2C_0_PM.c **** * Function Name: NEOMOTE_1_I2C_0_SaveConfig
ARM GAS  C:\Users\karunmj\AppData\Local\Temp\ccSaeQFW.s 			page 3


  69:.\Generated_Source\PSoC5/NEOMOTE_1_I2C_0_PM.c **** ********************************************************************************
  70:.\Generated_Source\PSoC5/NEOMOTE_1_I2C_0_PM.c **** *
  71:.\Generated_Source\PSoC5/NEOMOTE_1_I2C_0_PM.c **** * Summary:
  72:.\Generated_Source\PSoC5/NEOMOTE_1_I2C_0_PM.c **** *  Wakeup on address match enabled: disables I2C Master(if was enabled before go
  73:.\Generated_Source\PSoC5/NEOMOTE_1_I2C_0_PM.c **** *  to sleep), enables I2C backup regulator. Waits while on-going transaction be
  74:.\Generated_Source\PSoC5/NEOMOTE_1_I2C_0_PM.c **** *  will completed and I2C will be ready go to sleep. All incoming transaction
  75:.\Generated_Source\PSoC5/NEOMOTE_1_I2C_0_PM.c **** *  will be NACKed till power down will be asserted. The address match event
  76:.\Generated_Source\PSoC5/NEOMOTE_1_I2C_0_PM.c **** *  wakes up the chip.
  77:.\Generated_Source\PSoC5/NEOMOTE_1_I2C_0_PM.c **** *  Wakeup on address match disabled: saves I2C configuration and non-retention
  78:.\Generated_Source\PSoC5/NEOMOTE_1_I2C_0_PM.c **** *  register values.
  79:.\Generated_Source\PSoC5/NEOMOTE_1_I2C_0_PM.c **** *
  80:.\Generated_Source\PSoC5/NEOMOTE_1_I2C_0_PM.c **** * Parameters:
  81:.\Generated_Source\PSoC5/NEOMOTE_1_I2C_0_PM.c **** *  None
  82:.\Generated_Source\PSoC5/NEOMOTE_1_I2C_0_PM.c **** *
  83:.\Generated_Source\PSoC5/NEOMOTE_1_I2C_0_PM.c **** * Return:
  84:.\Generated_Source\PSoC5/NEOMOTE_1_I2C_0_PM.c **** *  None
  85:.\Generated_Source\PSoC5/NEOMOTE_1_I2C_0_PM.c **** *
  86:.\Generated_Source\PSoC5/NEOMOTE_1_I2C_0_PM.c **** * Global Variables:
  87:.\Generated_Source\PSoC5/NEOMOTE_1_I2C_0_PM.c **** *  NEOMOTE_1_I2C_0_backup - used to save component configuration and
  88:.\Generated_Source\PSoC5/NEOMOTE_1_I2C_0_PM.c **** *       none-retention registers before enter sleep mode.
  89:.\Generated_Source\PSoC5/NEOMOTE_1_I2C_0_PM.c **** *
  90:.\Generated_Source\PSoC5/NEOMOTE_1_I2C_0_PM.c **** * Reentrant:
  91:.\Generated_Source\PSoC5/NEOMOTE_1_I2C_0_PM.c **** *  No
  92:.\Generated_Source\PSoC5/NEOMOTE_1_I2C_0_PM.c **** *
  93:.\Generated_Source\PSoC5/NEOMOTE_1_I2C_0_PM.c **** *******************************************************************************/
  94:.\Generated_Source\PSoC5/NEOMOTE_1_I2C_0_PM.c **** void NEOMOTE_1_I2C_0_SaveConfig(void) 
  95:.\Generated_Source\PSoC5/NEOMOTE_1_I2C_0_PM.c **** {
  43              		.loc 1 95 0
  44              		.cfi_startproc
  45              		@ args = 0, pretend = 0, frame = 0
  46              		@ frame_needed = 1, uses_anonymous_args = 0
  47              		@ link register save eliminated.
  48 0000 80B4     		push	{r7}
  49              	.LCFI0:
  50              		.cfi_def_cfa_offset 4
  51 0002 00AF     		add	r7, sp, #0
  52              		.cfi_offset 7, -4
  53              	.LCFI1:
  54              		.cfi_def_cfa_register 7
  96:.\Generated_Source\PSoC5/NEOMOTE_1_I2C_0_PM.c ****     #if(NEOMOTE_1_I2C_0_FF_IMPLEMENTED)
  97:.\Generated_Source\PSoC5/NEOMOTE_1_I2C_0_PM.c ****         #if(NEOMOTE_1_I2C_0_WAKEUP_ENABLED)
  98:.\Generated_Source\PSoC5/NEOMOTE_1_I2C_0_PM.c ****             uint8 enableInterrupts;
  99:.\Generated_Source\PSoC5/NEOMOTE_1_I2C_0_PM.c ****         #endif /* (NEOMOTE_1_I2C_0_WAKEUP_ENABLED) */
 100:.\Generated_Source\PSoC5/NEOMOTE_1_I2C_0_PM.c **** 
 101:.\Generated_Source\PSoC5/NEOMOTE_1_I2C_0_PM.c ****         /* Store regiters in either Sleep mode */
 102:.\Generated_Source\PSoC5/NEOMOTE_1_I2C_0_PM.c ****         NEOMOTE_1_I2C_0_backup.cfg  = NEOMOTE_1_I2C_0_CFG_REG;
  55              		.loc 1 102 0
  56 0004 44F6D613 		movw	r3, #:lower16:1073760726
  57 0008 C4F20003 		movt	r3, #:upper16:1073760726
  58 000c 1B78     		ldrb	r3, [r3, #0]
  59 000e DAB2     		uxtb	r2, r3
  60 0010 40F20003 		movw	r3, #:lower16:NEOMOTE_1_I2C_0_backup
  61 0014 C0F20003 		movt	r3, #:upper16:NEOMOTE_1_I2C_0_backup
  62 0018 9A70     		strb	r2, [r3, #2]
 103:.\Generated_Source\PSoC5/NEOMOTE_1_I2C_0_PM.c ****         NEOMOTE_1_I2C_0_backup.xcfg = NEOMOTE_1_I2C_0_XCFG_REG;
  63              		.loc 1 103 0
  64 001a 44F6C813 		movw	r3, #:lower16:1073760712
ARM GAS  C:\Users\karunmj\AppData\Local\Temp\ccSaeQFW.s 			page 4


  65 001e C4F20003 		movt	r3, #:upper16:1073760712
  66 0022 1B78     		ldrb	r3, [r3, #0]
  67 0024 DAB2     		uxtb	r2, r3
  68 0026 40F20003 		movw	r3, #:lower16:NEOMOTE_1_I2C_0_backup
  69 002a C0F20003 		movt	r3, #:upper16:NEOMOTE_1_I2C_0_backup
  70 002e 5A70     		strb	r2, [r3, #1]
 104:.\Generated_Source\PSoC5/NEOMOTE_1_I2C_0_PM.c **** 
 105:.\Generated_Source\PSoC5/NEOMOTE_1_I2C_0_PM.c ****         #if(NEOMOTE_1_I2C_0_MODE_SLAVE_ENABLED)
 106:.\Generated_Source\PSoC5/NEOMOTE_1_I2C_0_PM.c ****             NEOMOTE_1_I2C_0_backup.addr = NEOMOTE_1_I2C_0_ADDR_REG;
 107:.\Generated_Source\PSoC5/NEOMOTE_1_I2C_0_PM.c ****         #endif /* (NEOMOTE_1_I2C_0_MODE_SLAVE_ENABLED) */
 108:.\Generated_Source\PSoC5/NEOMOTE_1_I2C_0_PM.c **** 
 109:.\Generated_Source\PSoC5/NEOMOTE_1_I2C_0_PM.c ****         #if(CY_PSOC5A)
 110:.\Generated_Source\PSoC5/NEOMOTE_1_I2C_0_PM.c ****             NEOMOTE_1_I2C_0_backup.clkDiv   = NEOMOTE_1_I2C_0_CLKDIV_REG;
 111:.\Generated_Source\PSoC5/NEOMOTE_1_I2C_0_PM.c ****         #else
 112:.\Generated_Source\PSoC5/NEOMOTE_1_I2C_0_PM.c ****             NEOMOTE_1_I2C_0_backup.clkDiv1  = NEOMOTE_1_I2C_0_CLKDIV1_REG;
  71              		.loc 1 112 0
  72 0030 44F6DB13 		movw	r3, #:lower16:1073760731
  73 0034 C4F20003 		movt	r3, #:upper16:1073760731
  74 0038 1B78     		ldrb	r3, [r3, #0]
  75 003a DAB2     		uxtb	r2, r3
  76 003c 40F20003 		movw	r3, #:lower16:NEOMOTE_1_I2C_0_backup
  77 0040 C0F20003 		movt	r3, #:upper16:NEOMOTE_1_I2C_0_backup
  78 0044 DA70     		strb	r2, [r3, #3]
 113:.\Generated_Source\PSoC5/NEOMOTE_1_I2C_0_PM.c ****             NEOMOTE_1_I2C_0_backup.clkDiv2  = NEOMOTE_1_I2C_0_CLKDIV2_REG;
  79              		.loc 1 113 0
  80 0046 44F6DC13 		movw	r3, #:lower16:1073760732
  81 004a C4F20003 		movt	r3, #:upper16:1073760732
  82 004e 1B78     		ldrb	r3, [r3, #0]
  83 0050 DAB2     		uxtb	r2, r3
  84 0052 40F20003 		movw	r3, #:lower16:NEOMOTE_1_I2C_0_backup
  85 0056 C0F20003 		movt	r3, #:upper16:NEOMOTE_1_I2C_0_backup
  86 005a 1A71     		strb	r2, [r3, #4]
 114:.\Generated_Source\PSoC5/NEOMOTE_1_I2C_0_PM.c ****         #endif /* (CY_PSOC5A) */
 115:.\Generated_Source\PSoC5/NEOMOTE_1_I2C_0_PM.c **** 
 116:.\Generated_Source\PSoC5/NEOMOTE_1_I2C_0_PM.c ****         #if(NEOMOTE_1_I2C_0_WAKEUP_ENABLED)
 117:.\Generated_Source\PSoC5/NEOMOTE_1_I2C_0_PM.c ****             /* Need to disable Master */
 118:.\Generated_Source\PSoC5/NEOMOTE_1_I2C_0_PM.c ****             NEOMOTE_1_I2C_0_CFG_REG &= ((uint8) ~NEOMOTE_1_I2C_0_ENABLE_MASTER);
 119:.\Generated_Source\PSoC5/NEOMOTE_1_I2C_0_PM.c **** 
 120:.\Generated_Source\PSoC5/NEOMOTE_1_I2C_0_PM.c ****             /* Enable the I2C regulator backup */
 121:.\Generated_Source\PSoC5/NEOMOTE_1_I2C_0_PM.c ****             enableInterrupts = CyEnterCriticalSection();
 122:.\Generated_Source\PSoC5/NEOMOTE_1_I2C_0_PM.c ****             NEOMOTE_1_I2C_0_PWRSYS_CR1_REG |= NEOMOTE_1_I2C_0_PWRSYS_CR1_I2C_REG_BACKUP;
 123:.\Generated_Source\PSoC5/NEOMOTE_1_I2C_0_PM.c ****             CyExitCriticalSection(enableInterrupts);
 124:.\Generated_Source\PSoC5/NEOMOTE_1_I2C_0_PM.c **** 
 125:.\Generated_Source\PSoC5/NEOMOTE_1_I2C_0_PM.c ****             /* 1) Set force NACK to ignore I2C transactions
 126:.\Generated_Source\PSoC5/NEOMOTE_1_I2C_0_PM.c ****                2) Wait while I2C will be ready go to Sleep
 127:.\Generated_Source\PSoC5/NEOMOTE_1_I2C_0_PM.c ****                3) These bits are cleared on wake up */
 128:.\Generated_Source\PSoC5/NEOMOTE_1_I2C_0_PM.c ****             NEOMOTE_1_I2C_0_XCFG_REG |= NEOMOTE_1_I2C_0_XCFG_FORCE_NACK;
 129:.\Generated_Source\PSoC5/NEOMOTE_1_I2C_0_PM.c ****             while(0u == (NEOMOTE_1_I2C_0_XCFG_REG & NEOMOTE_1_I2C_0_XCFG_RDY_TO_SLEEP))
 130:.\Generated_Source\PSoC5/NEOMOTE_1_I2C_0_PM.c ****             {
 131:.\Generated_Source\PSoC5/NEOMOTE_1_I2C_0_PM.c ****                 ; /* Wait when block is ready to Sleep */
 132:.\Generated_Source\PSoC5/NEOMOTE_1_I2C_0_PM.c ****             }
 133:.\Generated_Source\PSoC5/NEOMOTE_1_I2C_0_PM.c **** 
 134:.\Generated_Source\PSoC5/NEOMOTE_1_I2C_0_PM.c ****             /* Setup wakeup interrupt */
 135:.\Generated_Source\PSoC5/NEOMOTE_1_I2C_0_PM.c ****             NEOMOTE_1_I2C_0_DisableInt();
 136:.\Generated_Source\PSoC5/NEOMOTE_1_I2C_0_PM.c ****             (void) CyIntSetVector(NEOMOTE_1_I2C_0_ISR_NUMBER, &NEOMOTE_1_I2C_0_WAKEUP_ISR);
 137:.\Generated_Source\PSoC5/NEOMOTE_1_I2C_0_PM.c ****             NEOMOTE_1_I2C_0_wakeupSource = 0u;
 138:.\Generated_Source\PSoC5/NEOMOTE_1_I2C_0_PM.c ****             NEOMOTE_1_I2C_0_EnableInt();
ARM GAS  C:\Users\karunmj\AppData\Local\Temp\ccSaeQFW.s 			page 5


 139:.\Generated_Source\PSoC5/NEOMOTE_1_I2C_0_PM.c **** 
 140:.\Generated_Source\PSoC5/NEOMOTE_1_I2C_0_PM.c ****         #endif /* (NEOMOTE_1_I2C_0_WAKEUP_ENABLED) */
 141:.\Generated_Source\PSoC5/NEOMOTE_1_I2C_0_PM.c **** 
 142:.\Generated_Source\PSoC5/NEOMOTE_1_I2C_0_PM.c ****     #else
 143:.\Generated_Source\PSoC5/NEOMOTE_1_I2C_0_PM.c ****         /* Store only address match bit */
 144:.\Generated_Source\PSoC5/NEOMOTE_1_I2C_0_PM.c ****         NEOMOTE_1_I2C_0_backup.control = (NEOMOTE_1_I2C_0_CFG_REG & NEOMOTE_1_I2C_0_CTRL_ANY_ADDRES
 145:.\Generated_Source\PSoC5/NEOMOTE_1_I2C_0_PM.c **** 
 146:.\Generated_Source\PSoC5/NEOMOTE_1_I2C_0_PM.c ****         #if(CY_UDB_V0)
 147:.\Generated_Source\PSoC5/NEOMOTE_1_I2C_0_PM.c ****             /* Store interrupt mask bits */
 148:.\Generated_Source\PSoC5/NEOMOTE_1_I2C_0_PM.c ****             NEOMOTE_1_I2C_0_backup.intMask = NEOMOTE_1_I2C_0_INT_MASK_REG;
 149:.\Generated_Source\PSoC5/NEOMOTE_1_I2C_0_PM.c **** 
 150:.\Generated_Source\PSoC5/NEOMOTE_1_I2C_0_PM.c ****             #if(NEOMOTE_1_I2C_0_MODE & NEOMOTE_1_I2C_0_MODE_SLAVE)
 151:.\Generated_Source\PSoC5/NEOMOTE_1_I2C_0_PM.c ****                 NEOMOTE_1_I2C_0_backup.addr = NEOMOTE_1_I2C_0_ADDR_REG;
 152:.\Generated_Source\PSoC5/NEOMOTE_1_I2C_0_PM.c ****             #endif /* (NEOMOTE_1_I2C_0_MODE & NEOMOTE_1_I2C_0_MODE_SLAVE) */
 153:.\Generated_Source\PSoC5/NEOMOTE_1_I2C_0_PM.c **** 
 154:.\Generated_Source\PSoC5/NEOMOTE_1_I2C_0_PM.c ****         #endif /* (CY_UDB_V0) */
 155:.\Generated_Source\PSoC5/NEOMOTE_1_I2C_0_PM.c **** 
 156:.\Generated_Source\PSoC5/NEOMOTE_1_I2C_0_PM.c ****     #endif /* (NEOMOTE_1_I2C_0_FF_IMPLEMENTED) */
 157:.\Generated_Source\PSoC5/NEOMOTE_1_I2C_0_PM.c **** 
 158:.\Generated_Source\PSoC5/NEOMOTE_1_I2C_0_PM.c ****     #if(NEOMOTE_1_I2C_0_TIMEOUT_ENABLED)
 159:.\Generated_Source\PSoC5/NEOMOTE_1_I2C_0_PM.c ****         NEOMOTE_1_I2C_0_TimeoutSaveConfig();   /* Save Timeout config */
 160:.\Generated_Source\PSoC5/NEOMOTE_1_I2C_0_PM.c ****     #endif /* (NEOMOTE_1_I2C_0_TIMEOUT_ENABLED) */
 161:.\Generated_Source\PSoC5/NEOMOTE_1_I2C_0_PM.c **** }
  87              		.loc 1 161 0
  88 005c BD46     		mov	sp, r7
  89 005e 80BC     		pop	{r7}
  90 0060 7047     		bx	lr
  91              		.cfi_endproc
  92              	.LFE0:
  93              		.size	NEOMOTE_1_I2C_0_SaveConfig, .-NEOMOTE_1_I2C_0_SaveConfig
  94 0062 00BF     		.section	.text.NEOMOTE_1_I2C_0_Sleep,"ax",%progbits
  95              		.align	2
  96              		.global	NEOMOTE_1_I2C_0_Sleep
  97              		.thumb
  98              		.thumb_func
  99              		.type	NEOMOTE_1_I2C_0_Sleep, %function
 100              	NEOMOTE_1_I2C_0_Sleep:
 101              	.LFB1:
 162:.\Generated_Source\PSoC5/NEOMOTE_1_I2C_0_PM.c **** 
 163:.\Generated_Source\PSoC5/NEOMOTE_1_I2C_0_PM.c **** 
 164:.\Generated_Source\PSoC5/NEOMOTE_1_I2C_0_PM.c **** /*******************************************************************************
 165:.\Generated_Source\PSoC5/NEOMOTE_1_I2C_0_PM.c **** * Function Name: NEOMOTE_1_I2C_0_Sleep
 166:.\Generated_Source\PSoC5/NEOMOTE_1_I2C_0_PM.c **** ********************************************************************************
 167:.\Generated_Source\PSoC5/NEOMOTE_1_I2C_0_PM.c **** *
 168:.\Generated_Source\PSoC5/NEOMOTE_1_I2C_0_PM.c **** * Summary:
 169:.\Generated_Source\PSoC5/NEOMOTE_1_I2C_0_PM.c **** *  Wakeup on address match enabled: All incoming transaction will be NACKed till
 170:.\Generated_Source\PSoC5/NEOMOTE_1_I2C_0_PM.c **** *  power down will be asserted. The address match event wakes up the chip.
 171:.\Generated_Source\PSoC5/NEOMOTE_1_I2C_0_PM.c **** *  Wakeup on address match disabled: Disables active mode power template bits or
 172:.\Generated_Source\PSoC5/NEOMOTE_1_I2C_0_PM.c **** *  clock gating as appropriate. Saves I2C configuration and non-retention
 173:.\Generated_Source\PSoC5/NEOMOTE_1_I2C_0_PM.c **** *  register values.
 174:.\Generated_Source\PSoC5/NEOMOTE_1_I2C_0_PM.c **** *  Disables I2C interrupt.
 175:.\Generated_Source\PSoC5/NEOMOTE_1_I2C_0_PM.c **** *
 176:.\Generated_Source\PSoC5/NEOMOTE_1_I2C_0_PM.c **** * Parameters:
 177:.\Generated_Source\PSoC5/NEOMOTE_1_I2C_0_PM.c **** *  None
 178:.\Generated_Source\PSoC5/NEOMOTE_1_I2C_0_PM.c **** *
 179:.\Generated_Source\PSoC5/NEOMOTE_1_I2C_0_PM.c **** * Return:
 180:.\Generated_Source\PSoC5/NEOMOTE_1_I2C_0_PM.c **** *  None
ARM GAS  C:\Users\karunmj\AppData\Local\Temp\ccSaeQFW.s 			page 6


 181:.\Generated_Source\PSoC5/NEOMOTE_1_I2C_0_PM.c **** *
 182:.\Generated_Source\PSoC5/NEOMOTE_1_I2C_0_PM.c **** * Reentrant:
 183:.\Generated_Source\PSoC5/NEOMOTE_1_I2C_0_PM.c **** *  No
 184:.\Generated_Source\PSoC5/NEOMOTE_1_I2C_0_PM.c **** *
 185:.\Generated_Source\PSoC5/NEOMOTE_1_I2C_0_PM.c **** *******************************************************************************/
 186:.\Generated_Source\PSoC5/NEOMOTE_1_I2C_0_PM.c **** void NEOMOTE_1_I2C_0_Sleep(void) 
 187:.\Generated_Source\PSoC5/NEOMOTE_1_I2C_0_PM.c **** {
 102              		.loc 1 187 0
 103              		.cfi_startproc
 104              		@ args = 0, pretend = 0, frame = 0
 105              		@ frame_needed = 1, uses_anonymous_args = 0
 106 0000 80B5     		push	{r7, lr}
 107              	.LCFI2:
 108              		.cfi_def_cfa_offset 8
 109 0002 00AF     		add	r7, sp, #0
 110              		.cfi_offset 14, -4
 111              		.cfi_offset 7, -8
 112              	.LCFI3:
 113              		.cfi_def_cfa_register 7
 188:.\Generated_Source\PSoC5/NEOMOTE_1_I2C_0_PM.c ****     #if(NEOMOTE_1_I2C_0_WAKEUP_ENABLED)
 189:.\Generated_Source\PSoC5/NEOMOTE_1_I2C_0_PM.c ****         /* The I2C block should be always enabled if used as wakeup source */
 190:.\Generated_Source\PSoC5/NEOMOTE_1_I2C_0_PM.c ****         NEOMOTE_1_I2C_0_backup.enableState = NEOMOTE_1_I2C_0_DISABLE;
 191:.\Generated_Source\PSoC5/NEOMOTE_1_I2C_0_PM.c **** 
 192:.\Generated_Source\PSoC5/NEOMOTE_1_I2C_0_PM.c ****         #if(NEOMOTE_1_I2C_0_TIMEOUT_ENABLED)
 193:.\Generated_Source\PSoC5/NEOMOTE_1_I2C_0_PM.c ****             NEOMOTE_1_I2C_0_TimeoutStop();
 194:.\Generated_Source\PSoC5/NEOMOTE_1_I2C_0_PM.c ****         #endif /* (NEOMOTE_1_I2C_0_TIMEOUT_ENABLED) */
 195:.\Generated_Source\PSoC5/NEOMOTE_1_I2C_0_PM.c **** 
 196:.\Generated_Source\PSoC5/NEOMOTE_1_I2C_0_PM.c ****     #else
 197:.\Generated_Source\PSoC5/NEOMOTE_1_I2C_0_PM.c **** 
 198:.\Generated_Source\PSoC5/NEOMOTE_1_I2C_0_PM.c ****         NEOMOTE_1_I2C_0_backup.enableState = ((uint8) NEOMOTE_1_I2C_0_IS_ENABLED);
 114              		.loc 1 198 0
 115 0004 44F2A533 		movw	r3, #:lower16:1073759141
 116 0008 C4F20003 		movt	r3, #:upper16:1073759141
 117 000c 1B78     		ldrb	r3, [r3, #0]
 118 000e DBB2     		uxtb	r3, r3
 119 0010 03F00403 		and	r3, r3, #4
 120 0014 002B     		cmp	r3, #0
 121 0016 0CBF     		ite	eq
 122 0018 0022     		moveq	r2, #0
 123 001a 0122     		movne	r2, #1
 124 001c 40F20003 		movw	r3, #:lower16:NEOMOTE_1_I2C_0_backup
 125 0020 C0F20003 		movt	r3, #:upper16:NEOMOTE_1_I2C_0_backup
 126 0024 1A70     		strb	r2, [r3, #0]
 199:.\Generated_Source\PSoC5/NEOMOTE_1_I2C_0_PM.c **** 
 200:.\Generated_Source\PSoC5/NEOMOTE_1_I2C_0_PM.c ****         if(NEOMOTE_1_I2C_0_IS_ENABLED)
 127              		.loc 1 200 0
 128 0026 44F2A533 		movw	r3, #:lower16:1073759141
 129 002a C4F20003 		movt	r3, #:upper16:1073759141
 130 002e 1B78     		ldrb	r3, [r3, #0]
 131 0030 DBB2     		uxtb	r3, r3
 132 0032 03F00403 		and	r3, r3, #4
 133 0036 002B     		cmp	r3, #0
 134 0038 01D0     		beq	.L4
 201:.\Generated_Source\PSoC5/NEOMOTE_1_I2C_0_PM.c ****         {
 202:.\Generated_Source\PSoC5/NEOMOTE_1_I2C_0_PM.c ****             NEOMOTE_1_I2C_0_Stop();
 135              		.loc 1 202 0
 136 003a FFF7FEFF 		bl	NEOMOTE_1_I2C_0_Stop
ARM GAS  C:\Users\karunmj\AppData\Local\Temp\ccSaeQFW.s 			page 7


 137              	.L4:
 203:.\Generated_Source\PSoC5/NEOMOTE_1_I2C_0_PM.c ****         }
 204:.\Generated_Source\PSoC5/NEOMOTE_1_I2C_0_PM.c ****     #endif /* (NEOMOTE_1_I2C_0_WAKEUP_ENABLED) */
 205:.\Generated_Source\PSoC5/NEOMOTE_1_I2C_0_PM.c **** 
 206:.\Generated_Source\PSoC5/NEOMOTE_1_I2C_0_PM.c ****     NEOMOTE_1_I2C_0_SaveConfig();
 138              		.loc 1 206 0
 139 003e FFF7FEFF 		bl	NEOMOTE_1_I2C_0_SaveConfig
 207:.\Generated_Source\PSoC5/NEOMOTE_1_I2C_0_PM.c **** }
 140              		.loc 1 207 0
 141 0042 80BD     		pop	{r7, pc}
 142              		.cfi_endproc
 143              	.LFE1:
 144              		.size	NEOMOTE_1_I2C_0_Sleep, .-NEOMOTE_1_I2C_0_Sleep
 145              		.section	.text.NEOMOTE_1_I2C_0_RestoreConfig,"ax",%progbits
 146              		.align	2
 147              		.global	NEOMOTE_1_I2C_0_RestoreConfig
 148              		.thumb
 149              		.thumb_func
 150              		.type	NEOMOTE_1_I2C_0_RestoreConfig, %function
 151              	NEOMOTE_1_I2C_0_RestoreConfig:
 152              	.LFB2:
 208:.\Generated_Source\PSoC5/NEOMOTE_1_I2C_0_PM.c **** 
 209:.\Generated_Source\PSoC5/NEOMOTE_1_I2C_0_PM.c **** 
 210:.\Generated_Source\PSoC5/NEOMOTE_1_I2C_0_PM.c **** /*******************************************************************************
 211:.\Generated_Source\PSoC5/NEOMOTE_1_I2C_0_PM.c **** * Function Name: NEOMOTE_1_I2C_0_RestoreConfig
 212:.\Generated_Source\PSoC5/NEOMOTE_1_I2C_0_PM.c **** ********************************************************************************
 213:.\Generated_Source\PSoC5/NEOMOTE_1_I2C_0_PM.c **** *
 214:.\Generated_Source\PSoC5/NEOMOTE_1_I2C_0_PM.c **** * Summary:
 215:.\Generated_Source\PSoC5/NEOMOTE_1_I2C_0_PM.c **** *  Wakeup on address match enabled: enables I2C Master (if was enabled before go
 216:.\Generated_Source\PSoC5/NEOMOTE_1_I2C_0_PM.c **** *  to sleep), disables I2C backup regulator.
 217:.\Generated_Source\PSoC5/NEOMOTE_1_I2C_0_PM.c **** *  Wakeup on address match disabled: Restores I2C configuration and
 218:.\Generated_Source\PSoC5/NEOMOTE_1_I2C_0_PM.c **** *  non-retention register values.
 219:.\Generated_Source\PSoC5/NEOMOTE_1_I2C_0_PM.c **** *
 220:.\Generated_Source\PSoC5/NEOMOTE_1_I2C_0_PM.c **** * Parameters:
 221:.\Generated_Source\PSoC5/NEOMOTE_1_I2C_0_PM.c **** *  None
 222:.\Generated_Source\PSoC5/NEOMOTE_1_I2C_0_PM.c **** *
 223:.\Generated_Source\PSoC5/NEOMOTE_1_I2C_0_PM.c **** * Return:
 224:.\Generated_Source\PSoC5/NEOMOTE_1_I2C_0_PM.c **** *  None
 225:.\Generated_Source\PSoC5/NEOMOTE_1_I2C_0_PM.c **** *
 226:.\Generated_Source\PSoC5/NEOMOTE_1_I2C_0_PM.c **** * Global Variables:
 227:.\Generated_Source\PSoC5/NEOMOTE_1_I2C_0_PM.c **** *  NEOMOTE_1_I2C_0_backup - used to save component configuration and
 228:.\Generated_Source\PSoC5/NEOMOTE_1_I2C_0_PM.c **** *  none-retention registers before exit sleep mode.
 229:.\Generated_Source\PSoC5/NEOMOTE_1_I2C_0_PM.c **** *
 230:.\Generated_Source\PSoC5/NEOMOTE_1_I2C_0_PM.c **** *******************************************************************************/
 231:.\Generated_Source\PSoC5/NEOMOTE_1_I2C_0_PM.c **** void NEOMOTE_1_I2C_0_RestoreConfig(void) 
 232:.\Generated_Source\PSoC5/NEOMOTE_1_I2C_0_PM.c **** {
 153              		.loc 1 232 0
 154              		.cfi_startproc
 155              		@ args = 0, pretend = 0, frame = 8
 156              		@ frame_needed = 1, uses_anonymous_args = 0
 157 0000 80B5     		push	{r7, lr}
 158              	.LCFI4:
 159              		.cfi_def_cfa_offset 8
 160 0002 82B0     		sub	sp, sp, #8
 161              	.LCFI5:
 162              		.cfi_def_cfa_offset 16
 163 0004 00AF     		add	r7, sp, #0
ARM GAS  C:\Users\karunmj\AppData\Local\Temp\ccSaeQFW.s 			page 8


 164              		.cfi_offset 14, -4
 165              		.cfi_offset 7, -8
 166              	.LCFI6:
 167              		.cfi_def_cfa_register 7
 233:.\Generated_Source\PSoC5/NEOMOTE_1_I2C_0_PM.c ****     #if(NEOMOTE_1_I2C_0_FF_IMPLEMENTED)
 234:.\Generated_Source\PSoC5/NEOMOTE_1_I2C_0_PM.c ****         uint8 enableInterrupts;
 235:.\Generated_Source\PSoC5/NEOMOTE_1_I2C_0_PM.c **** 
 236:.\Generated_Source\PSoC5/NEOMOTE_1_I2C_0_PM.c ****         if(NEOMOTE_1_I2C_0_CHECK_PWRSYS_I2C_BACKUP)    /* Enabled if was in Sleep */
 168              		.loc 1 236 0
 169 0006 44F23133 		movw	r3, #:lower16:1073759025
 170 000a C4F20003 		movt	r3, #:upper16:1073759025
 171 000e 1B78     		ldrb	r3, [r3, #0]
 172 0010 DBB2     		uxtb	r3, r3
 173 0012 03F00403 		and	r3, r3, #4
 174 0016 002B     		cmp	r3, #0
 175 0018 1FD0     		beq	.L7
 237:.\Generated_Source\PSoC5/NEOMOTE_1_I2C_0_PM.c ****         {
 238:.\Generated_Source\PSoC5/NEOMOTE_1_I2C_0_PM.c ****             /* Disable back-up regulator */
 239:.\Generated_Source\PSoC5/NEOMOTE_1_I2C_0_PM.c ****             enableInterrupts = CyEnterCriticalSection();
 176              		.loc 1 239 0
 177 001a FFF7FEFF 		bl	CyEnterCriticalSection
 178 001e 0346     		mov	r3, r0
 179 0020 FB71     		strb	r3, [r7, #7]
 240:.\Generated_Source\PSoC5/NEOMOTE_1_I2C_0_PM.c ****             NEOMOTE_1_I2C_0_PWRSYS_CR1_REG &= ((uint8) ~NEOMOTE_1_I2C_0_PWRSYS_CR1_I2C_REG_BACKUP);
 180              		.loc 1 240 0
 181 0022 44F23133 		movw	r3, #:lower16:1073759025
 182 0026 C4F20003 		movt	r3, #:upper16:1073759025
 183 002a 44F23132 		movw	r2, #:lower16:1073759025
 184 002e C4F20002 		movt	r2, #:upper16:1073759025
 185 0032 1278     		ldrb	r2, [r2, #0]
 186 0034 D2B2     		uxtb	r2, r2
 187 0036 02F0FB02 		and	r2, r2, #251
 188 003a 1A70     		strb	r2, [r3, #0]
 241:.\Generated_Source\PSoC5/NEOMOTE_1_I2C_0_PM.c ****             CyExitCriticalSection(enableInterrupts);
 189              		.loc 1 241 0
 190 003c FB79     		ldrb	r3, [r7, #7]	@ zero_extendqisi2
 191 003e 1846     		mov	r0, r3
 192 0040 FFF7FEFF 		bl	CyExitCriticalSection
 242:.\Generated_Source\PSoC5/NEOMOTE_1_I2C_0_PM.c **** 
 243:.\Generated_Source\PSoC5/NEOMOTE_1_I2C_0_PM.c ****             /* Re-enable Master */
 244:.\Generated_Source\PSoC5/NEOMOTE_1_I2C_0_PM.c ****             NEOMOTE_1_I2C_0_CFG_REG = NEOMOTE_1_I2C_0_backup.cfg;
 193              		.loc 1 244 0
 194 0044 44F6D613 		movw	r3, #:lower16:1073760726
 195 0048 C4F20003 		movt	r3, #:upper16:1073760726
 196 004c 40F20002 		movw	r2, #:lower16:NEOMOTE_1_I2C_0_backup
 197 0050 C0F20002 		movt	r2, #:upper16:NEOMOTE_1_I2C_0_backup
 198 0054 9278     		ldrb	r2, [r2, #2]	@ zero_extendqisi2
 199 0056 1A70     		strb	r2, [r3, #0]
 200 0058 27E0     		b	.L9
 201              	.L7:
 245:.\Generated_Source\PSoC5/NEOMOTE_1_I2C_0_PM.c ****         }
 246:.\Generated_Source\PSoC5/NEOMOTE_1_I2C_0_PM.c ****         else /* The I2C_REG_BACKUP was cleaned by PM API: it means Hibernate or wake-up not set */
 247:.\Generated_Source\PSoC5/NEOMOTE_1_I2C_0_PM.c ****         {
 248:.\Generated_Source\PSoC5/NEOMOTE_1_I2C_0_PM.c ****             #if(NEOMOTE_1_I2C_0_WAKEUP_ENABLED)
 249:.\Generated_Source\PSoC5/NEOMOTE_1_I2C_0_PM.c ****                 /* Disable power to I2C block before register restore */
 250:.\Generated_Source\PSoC5/NEOMOTE_1_I2C_0_PM.c ****                 enableInterrupts = CyEnterCriticalSection();
 251:.\Generated_Source\PSoC5/NEOMOTE_1_I2C_0_PM.c ****                 NEOMOTE_1_I2C_0_ACT_PWRMGR_REG  &= ((uint8) ~NEOMOTE_1_I2C_0_ACT_PWR_EN);
ARM GAS  C:\Users\karunmj\AppData\Local\Temp\ccSaeQFW.s 			page 9


 252:.\Generated_Source\PSoC5/NEOMOTE_1_I2C_0_PM.c ****                 NEOMOTE_1_I2C_0_STBY_PWRMGR_REG &= ((uint8) ~NEOMOTE_1_I2C_0_STBY_PWR_EN);
 253:.\Generated_Source\PSoC5/NEOMOTE_1_I2C_0_PM.c ****                 CyExitCriticalSection(enableInterrupts);
 254:.\Generated_Source\PSoC5/NEOMOTE_1_I2C_0_PM.c **** 
 255:.\Generated_Source\PSoC5/NEOMOTE_1_I2C_0_PM.c ****                 /* Enable component after restore complete */
 256:.\Generated_Source\PSoC5/NEOMOTE_1_I2C_0_PM.c ****                 NEOMOTE_1_I2C_0_backup.enableState = NEOMOTE_1_I2C_0_ENABLE;
 257:.\Generated_Source\PSoC5/NEOMOTE_1_I2C_0_PM.c ****             #endif /* (NEOMOTE_1_I2C_0_WAKEUP_ENABLED) */
 258:.\Generated_Source\PSoC5/NEOMOTE_1_I2C_0_PM.c **** 
 259:.\Generated_Source\PSoC5/NEOMOTE_1_I2C_0_PM.c ****             /* Restore component registers: Hibernate disable power */
 260:.\Generated_Source\PSoC5/NEOMOTE_1_I2C_0_PM.c ****             NEOMOTE_1_I2C_0_XCFG_REG = NEOMOTE_1_I2C_0_backup.xcfg;
 202              		.loc 1 260 0
 203 005a 44F6C813 		movw	r3, #:lower16:1073760712
 204 005e C4F20003 		movt	r3, #:upper16:1073760712
 205 0062 40F20002 		movw	r2, #:lower16:NEOMOTE_1_I2C_0_backup
 206 0066 C0F20002 		movt	r2, #:upper16:NEOMOTE_1_I2C_0_backup
 207 006a 5278     		ldrb	r2, [r2, #1]	@ zero_extendqisi2
 208 006c 1A70     		strb	r2, [r3, #0]
 261:.\Generated_Source\PSoC5/NEOMOTE_1_I2C_0_PM.c ****             NEOMOTE_1_I2C_0_CFG_REG  = NEOMOTE_1_I2C_0_backup.cfg;
 209              		.loc 1 261 0
 210 006e 44F6D613 		movw	r3, #:lower16:1073760726
 211 0072 C4F20003 		movt	r3, #:upper16:1073760726
 212 0076 40F20002 		movw	r2, #:lower16:NEOMOTE_1_I2C_0_backup
 213 007a C0F20002 		movt	r2, #:upper16:NEOMOTE_1_I2C_0_backup
 214 007e 9278     		ldrb	r2, [r2, #2]	@ zero_extendqisi2
 215 0080 1A70     		strb	r2, [r3, #0]
 262:.\Generated_Source\PSoC5/NEOMOTE_1_I2C_0_PM.c **** 
 263:.\Generated_Source\PSoC5/NEOMOTE_1_I2C_0_PM.c ****             #if(NEOMOTE_1_I2C_0_MODE_SLAVE_ENABLED)
 264:.\Generated_Source\PSoC5/NEOMOTE_1_I2C_0_PM.c ****                 NEOMOTE_1_I2C_0_ADDR_REG = NEOMOTE_1_I2C_0_backup.addr;
 265:.\Generated_Source\PSoC5/NEOMOTE_1_I2C_0_PM.c ****             #endif /* (NEOMOTE_1_I2C_0_MODE_SLAVE_ENABLED) */
 266:.\Generated_Source\PSoC5/NEOMOTE_1_I2C_0_PM.c **** 
 267:.\Generated_Source\PSoC5/NEOMOTE_1_I2C_0_PM.c ****             #if(CY_PSOC5A)
 268:.\Generated_Source\PSoC5/NEOMOTE_1_I2C_0_PM.c ****                 NEOMOTE_1_I2C_0_CLKDIV_REG  = NEOMOTE_1_I2C_0_backup.clkDiv;
 269:.\Generated_Source\PSoC5/NEOMOTE_1_I2C_0_PM.c ****             #else
 270:.\Generated_Source\PSoC5/NEOMOTE_1_I2C_0_PM.c ****                 NEOMOTE_1_I2C_0_CLKDIV1_REG = NEOMOTE_1_I2C_0_backup.clkDiv1;
 216              		.loc 1 270 0
 217 0082 44F6DB13 		movw	r3, #:lower16:1073760731
 218 0086 C4F20003 		movt	r3, #:upper16:1073760731
 219 008a 40F20002 		movw	r2, #:lower16:NEOMOTE_1_I2C_0_backup
 220 008e C0F20002 		movt	r2, #:upper16:NEOMOTE_1_I2C_0_backup
 221 0092 D278     		ldrb	r2, [r2, #3]	@ zero_extendqisi2
 222 0094 1A70     		strb	r2, [r3, #0]
 271:.\Generated_Source\PSoC5/NEOMOTE_1_I2C_0_PM.c ****                 NEOMOTE_1_I2C_0_CLKDIV2_REG = NEOMOTE_1_I2C_0_backup.clkDiv2;
 223              		.loc 1 271 0
 224 0096 44F6DC13 		movw	r3, #:lower16:1073760732
 225 009a C4F20003 		movt	r3, #:upper16:1073760732
 226 009e 40F20002 		movw	r2, #:lower16:NEOMOTE_1_I2C_0_backup
 227 00a2 C0F20002 		movt	r2, #:upper16:NEOMOTE_1_I2C_0_backup
 228 00a6 1279     		ldrb	r2, [r2, #4]	@ zero_extendqisi2
 229 00a8 1A70     		strb	r2, [r3, #0]
 230              	.L9:
 272:.\Generated_Source\PSoC5/NEOMOTE_1_I2C_0_PM.c ****             #endif /* (CY_PSOC5A) */
 273:.\Generated_Source\PSoC5/NEOMOTE_1_I2C_0_PM.c ****         }
 274:.\Generated_Source\PSoC5/NEOMOTE_1_I2C_0_PM.c **** 
 275:.\Generated_Source\PSoC5/NEOMOTE_1_I2C_0_PM.c ****         #if(NEOMOTE_1_I2C_0_WAKEUP_ENABLED)
 276:.\Generated_Source\PSoC5/NEOMOTE_1_I2C_0_PM.c ****             NEOMOTE_1_I2C_0_DisableInt();
 277:.\Generated_Source\PSoC5/NEOMOTE_1_I2C_0_PM.c ****             (void) CyIntSetVector(NEOMOTE_1_I2C_0_ISR_NUMBER, &NEOMOTE_1_I2C_0_ISR);
 278:.\Generated_Source\PSoC5/NEOMOTE_1_I2C_0_PM.c ****             if(0u != NEOMOTE_1_I2C_0_wakeupSource)
 279:.\Generated_Source\PSoC5/NEOMOTE_1_I2C_0_PM.c ****             {
ARM GAS  C:\Users\karunmj\AppData\Local\Temp\ccSaeQFW.s 			page 10


 280:.\Generated_Source\PSoC5/NEOMOTE_1_I2C_0_PM.c ****                 NEOMOTE_1_I2C_0_SetPendingInt();   /* Generate interrupt to process incomming trans
 281:.\Generated_Source\PSoC5/NEOMOTE_1_I2C_0_PM.c ****             }
 282:.\Generated_Source\PSoC5/NEOMOTE_1_I2C_0_PM.c ****             NEOMOTE_1_I2C_0_EnableInt();
 283:.\Generated_Source\PSoC5/NEOMOTE_1_I2C_0_PM.c ****         #endif /* (NEOMOTE_1_I2C_0_WAKEUP_ENABLED) */
 284:.\Generated_Source\PSoC5/NEOMOTE_1_I2C_0_PM.c **** 
 285:.\Generated_Source\PSoC5/NEOMOTE_1_I2C_0_PM.c ****     #else
 286:.\Generated_Source\PSoC5/NEOMOTE_1_I2C_0_PM.c **** 
 287:.\Generated_Source\PSoC5/NEOMOTE_1_I2C_0_PM.c ****         #if(CY_UDB_V0)
 288:.\Generated_Source\PSoC5/NEOMOTE_1_I2C_0_PM.c ****             uint8 enableInterrupts;
 289:.\Generated_Source\PSoC5/NEOMOTE_1_I2C_0_PM.c **** 
 290:.\Generated_Source\PSoC5/NEOMOTE_1_I2C_0_PM.c ****             NEOMOTE_1_I2C_0_INT_MASK_REG |= NEOMOTE_1_I2C_0_backup.intMask;
 291:.\Generated_Source\PSoC5/NEOMOTE_1_I2C_0_PM.c **** 
 292:.\Generated_Source\PSoC5/NEOMOTE_1_I2C_0_PM.c ****             enableInterrupts = CyEnterCriticalSection();
 293:.\Generated_Source\PSoC5/NEOMOTE_1_I2C_0_PM.c ****             NEOMOTE_1_I2C_0_INT_ENABLE_REG |= NEOMOTE_1_I2C_0_INT_ENABLE_MASK;
 294:.\Generated_Source\PSoC5/NEOMOTE_1_I2C_0_PM.c ****             CyExitCriticalSection(enableInterrupts);
 295:.\Generated_Source\PSoC5/NEOMOTE_1_I2C_0_PM.c **** 
 296:.\Generated_Source\PSoC5/NEOMOTE_1_I2C_0_PM.c ****             #if(NEOMOTE_1_I2C_0_MODE_MASTER_ENABLED)
 297:.\Generated_Source\PSoC5/NEOMOTE_1_I2C_0_PM.c ****                 /* Restore Master Clock generator */
 298:.\Generated_Source\PSoC5/NEOMOTE_1_I2C_0_PM.c ****                 NEOMOTE_1_I2C_0_MCLK_PRD_REG = NEOMOTE_1_I2C_0_DEFAULT_MCLK_PRD;
 299:.\Generated_Source\PSoC5/NEOMOTE_1_I2C_0_PM.c ****                 NEOMOTE_1_I2C_0_MCLK_CMP_REG = NEOMOTE_1_I2C_0_DEFAULT_MCLK_CMP;
 300:.\Generated_Source\PSoC5/NEOMOTE_1_I2C_0_PM.c ****             #endif /* (NEOMOTE_1_I2C_0_MODE_MASTER_ENABLED) */
 301:.\Generated_Source\PSoC5/NEOMOTE_1_I2C_0_PM.c **** 
 302:.\Generated_Source\PSoC5/NEOMOTE_1_I2C_0_PM.c ****             #if(NEOMOTE_1_I2C_0_MODE_SLAVE_ENABLED)
 303:.\Generated_Source\PSoC5/NEOMOTE_1_I2C_0_PM.c ****                 NEOMOTE_1_I2C_0_ADDR_REG = NEOMOTE_1_I2C_0_backup.addr;
 304:.\Generated_Source\PSoC5/NEOMOTE_1_I2C_0_PM.c **** 
 305:.\Generated_Source\PSoC5/NEOMOTE_1_I2C_0_PM.c ****                 /* Restore slave bit counter period */
 306:.\Generated_Source\PSoC5/NEOMOTE_1_I2C_0_PM.c ****                 NEOMOTE_1_I2C_0_PERIOD_REG = NEOMOTE_1_I2C_0_DEFAULT_PERIOD;
 307:.\Generated_Source\PSoC5/NEOMOTE_1_I2C_0_PM.c ****             #endif /* (NEOMOTE_1_I2C_0_MODE_SLAVE_ENABLED) */
 308:.\Generated_Source\PSoC5/NEOMOTE_1_I2C_0_PM.c **** 
 309:.\Generated_Source\PSoC5/NEOMOTE_1_I2C_0_PM.c ****         #endif /* (CY_UDB_V0) */
 310:.\Generated_Source\PSoC5/NEOMOTE_1_I2C_0_PM.c **** 
 311:.\Generated_Source\PSoC5/NEOMOTE_1_I2C_0_PM.c ****         NEOMOTE_1_I2C_0_CFG_REG = NEOMOTE_1_I2C_0_backup.control;
 312:.\Generated_Source\PSoC5/NEOMOTE_1_I2C_0_PM.c **** 
 313:.\Generated_Source\PSoC5/NEOMOTE_1_I2C_0_PM.c ****     #endif /* (NEOMOTE_1_I2C_0_FF_IMPLEMENTED) */
 314:.\Generated_Source\PSoC5/NEOMOTE_1_I2C_0_PM.c **** 
 315:.\Generated_Source\PSoC5/NEOMOTE_1_I2C_0_PM.c ****     #if(NEOMOTE_1_I2C_0_TIMEOUT_ENABLED)
 316:.\Generated_Source\PSoC5/NEOMOTE_1_I2C_0_PM.c ****         NEOMOTE_1_I2C_0_TimeoutRestoreConfig();
 317:.\Generated_Source\PSoC5/NEOMOTE_1_I2C_0_PM.c ****     #endif /* (NEOMOTE_1_I2C_0_TIMEOUT_ENABLED) */
 318:.\Generated_Source\PSoC5/NEOMOTE_1_I2C_0_PM.c **** }
 231              		.loc 1 318 0
 232 00aa 07F10807 		add	r7, r7, #8
 233 00ae BD46     		mov	sp, r7
 234 00b0 80BD     		pop	{r7, pc}
 235              		.cfi_endproc
 236              	.LFE2:
 237              		.size	NEOMOTE_1_I2C_0_RestoreConfig, .-NEOMOTE_1_I2C_0_RestoreConfig
 238 00b2 00BF     		.section	.text.NEOMOTE_1_I2C_0_Wakeup,"ax",%progbits
 239              		.align	2
 240              		.global	NEOMOTE_1_I2C_0_Wakeup
 241              		.thumb
 242              		.thumb_func
 243              		.type	NEOMOTE_1_I2C_0_Wakeup, %function
 244              	NEOMOTE_1_I2C_0_Wakeup:
 245              	.LFB3:
 319:.\Generated_Source\PSoC5/NEOMOTE_1_I2C_0_PM.c **** 
 320:.\Generated_Source\PSoC5/NEOMOTE_1_I2C_0_PM.c **** 
 321:.\Generated_Source\PSoC5/NEOMOTE_1_I2C_0_PM.c **** /*******************************************************************************
ARM GAS  C:\Users\karunmj\AppData\Local\Temp\ccSaeQFW.s 			page 11


 322:.\Generated_Source\PSoC5/NEOMOTE_1_I2C_0_PM.c **** * Function Name: NEOMOTE_1_I2C_0_Wakeup
 323:.\Generated_Source\PSoC5/NEOMOTE_1_I2C_0_PM.c **** ********************************************************************************
 324:.\Generated_Source\PSoC5/NEOMOTE_1_I2C_0_PM.c **** *
 325:.\Generated_Source\PSoC5/NEOMOTE_1_I2C_0_PM.c **** * Summary:
 326:.\Generated_Source\PSoC5/NEOMOTE_1_I2C_0_PM.c **** *  Wakeup on address match enabled: enables I2C Master (if was enabled before go
 327:.\Generated_Source\PSoC5/NEOMOTE_1_I2C_0_PM.c **** *  to sleep) and disables I2C backup regulator.
 328:.\Generated_Source\PSoC5/NEOMOTE_1_I2C_0_PM.c **** *  Wakeup on address match disabled: Restores I2C configuration and
 329:.\Generated_Source\PSoC5/NEOMOTE_1_I2C_0_PM.c **** *  non-retention register values. Restores Active mode power template bits or
 330:.\Generated_Source\PSoC5/NEOMOTE_1_I2C_0_PM.c **** *  clock gating as appropriate.
 331:.\Generated_Source\PSoC5/NEOMOTE_1_I2C_0_PM.c **** *  The I2C interrupt remains disabled after function call.
 332:.\Generated_Source\PSoC5/NEOMOTE_1_I2C_0_PM.c **** *
 333:.\Generated_Source\PSoC5/NEOMOTE_1_I2C_0_PM.c **** * Parameters:
 334:.\Generated_Source\PSoC5/NEOMOTE_1_I2C_0_PM.c **** *  None
 335:.\Generated_Source\PSoC5/NEOMOTE_1_I2C_0_PM.c **** *
 336:.\Generated_Source\PSoC5/NEOMOTE_1_I2C_0_PM.c **** * Return:
 337:.\Generated_Source\PSoC5/NEOMOTE_1_I2C_0_PM.c **** *  None
 338:.\Generated_Source\PSoC5/NEOMOTE_1_I2C_0_PM.c **** *
 339:.\Generated_Source\PSoC5/NEOMOTE_1_I2C_0_PM.c **** * Reentrant:
 340:.\Generated_Source\PSoC5/NEOMOTE_1_I2C_0_PM.c **** *  No
 341:.\Generated_Source\PSoC5/NEOMOTE_1_I2C_0_PM.c **** *
 342:.\Generated_Source\PSoC5/NEOMOTE_1_I2C_0_PM.c **** *******************************************************************************/
 343:.\Generated_Source\PSoC5/NEOMOTE_1_I2C_0_PM.c **** void NEOMOTE_1_I2C_0_Wakeup(void) 
 344:.\Generated_Source\PSoC5/NEOMOTE_1_I2C_0_PM.c **** {
 246              		.loc 1 344 0
 247              		.cfi_startproc
 248              		@ args = 0, pretend = 0, frame = 0
 249              		@ frame_needed = 1, uses_anonymous_args = 0
 250 0000 80B5     		push	{r7, lr}
 251              	.LCFI7:
 252              		.cfi_def_cfa_offset 8
 253 0002 00AF     		add	r7, sp, #0
 254              		.cfi_offset 14, -4
 255              		.cfi_offset 7, -8
 256              	.LCFI8:
 257              		.cfi_def_cfa_register 7
 345:.\Generated_Source\PSoC5/NEOMOTE_1_I2C_0_PM.c ****     NEOMOTE_1_I2C_0_RestoreConfig();   /* Restore I2C register settings */
 258              		.loc 1 345 0
 259 0004 FFF7FEFF 		bl	NEOMOTE_1_I2C_0_RestoreConfig
 346:.\Generated_Source\PSoC5/NEOMOTE_1_I2C_0_PM.c **** 
 347:.\Generated_Source\PSoC5/NEOMOTE_1_I2C_0_PM.c ****     /* Restore component enable state */
 348:.\Generated_Source\PSoC5/NEOMOTE_1_I2C_0_PM.c ****     if(0u != NEOMOTE_1_I2C_0_backup.enableState)
 260              		.loc 1 348 0
 261 0008 40F20003 		movw	r3, #:lower16:NEOMOTE_1_I2C_0_backup
 262 000c C0F20003 		movt	r3, #:upper16:NEOMOTE_1_I2C_0_backup
 263 0010 1B78     		ldrb	r3, [r3, #0]	@ zero_extendqisi2
 264 0012 002B     		cmp	r3, #0
 265 0014 08D0     		beq	.L12
 349:.\Generated_Source\PSoC5/NEOMOTE_1_I2C_0_PM.c ****     {
 350:.\Generated_Source\PSoC5/NEOMOTE_1_I2C_0_PM.c ****         NEOMOTE_1_I2C_0_Enable();
 266              		.loc 1 350 0
 267 0016 FFF7FEFF 		bl	NEOMOTE_1_I2C_0_Enable
 351:.\Generated_Source\PSoC5/NEOMOTE_1_I2C_0_PM.c ****         NEOMOTE_1_I2C_0_EnableInt();
 268              		.loc 1 351 0
 269 001a 4EF20013 		movw	r3, #:lower16:-536813312
 270 001e CEF20003 		movt	r3, #:upper16:-536813312
 271 0022 4FF40042 		mov	r2, #32768
 272 0026 1A60     		str	r2, [r3, #0]
ARM GAS  C:\Users\karunmj\AppData\Local\Temp\ccSaeQFW.s 			page 12


 273              	.L12:
 352:.\Generated_Source\PSoC5/NEOMOTE_1_I2C_0_PM.c ****     }
 353:.\Generated_Source\PSoC5/NEOMOTE_1_I2C_0_PM.c ****     else
 354:.\Generated_Source\PSoC5/NEOMOTE_1_I2C_0_PM.c ****     {
 355:.\Generated_Source\PSoC5/NEOMOTE_1_I2C_0_PM.c ****         #if(NEOMOTE_1_I2C_0_TIMEOUT_ENABLED)
 356:.\Generated_Source\PSoC5/NEOMOTE_1_I2C_0_PM.c ****             NEOMOTE_1_I2C_0_TimeoutEnable();
 357:.\Generated_Source\PSoC5/NEOMOTE_1_I2C_0_PM.c ****         #endif /* (NEOMOTE_1_I2C_0_TIMEOUT_ENABLED) */
 358:.\Generated_Source\PSoC5/NEOMOTE_1_I2C_0_PM.c ****     }
 359:.\Generated_Source\PSoC5/NEOMOTE_1_I2C_0_PM.c **** }
 274              		.loc 1 359 0
 275 0028 80BD     		pop	{r7, pc}
 276              		.cfi_endproc
 277              	.LFE3:
 278              		.size	NEOMOTE_1_I2C_0_Wakeup, .-NEOMOTE_1_I2C_0_Wakeup
 279 002a 00BF     		.text
 280              	.Letext0: