ARM GAS  C:\Users\karunmj\AppData\Local\Temp\ccqEUaBl.s 			page 1


   1              		.syntax unified
   2              		.cpu cortex-m3
   3              		.fpu softvfp
   4              		.eabi_attribute 20, 1
   5              		.eabi_attribute 21, 1
   6              		.eabi_attribute 23, 3
   7              		.eabi_attribute 24, 1
   8              		.eabi_attribute 25, 1
   9              		.eabi_attribute 26, 1
  10              		.eabi_attribute 30, 6
  11              		.eabi_attribute 18, 4
  12              		.thumb
  13              		.file	"NEOMOTE_1_RX_RTS_n.c"
  20 0000 CB000000 		.text
  20      02006B00 
  20      00000201 
  20      FB0E0D00 
  20      01010101 
  21              	.Ltext0:
  22              		.cfi_sections	.debug_frame
  23              		.section	.text.NEOMOTE_1_RX_RTS_n_Write,"ax",%progbits
  24              		.align	2
  25              		.global	NEOMOTE_1_RX_RTS_n_Write
  26              		.thumb
  27              		.thumb_func
  28              		.type	NEOMOTE_1_RX_RTS_n_Write, %function
  29              	NEOMOTE_1_RX_RTS_n_Write:
  30              	.LFB0:
  31              		.file 1 ".\\Generated_Source\\PSoC5\\NEOMOTE_1_RX_RTS_n.c"
   1:.\Generated_Source\PSoC5/NEOMOTE_1_RX_RTS_n.c **** /*******************************************************************************
   2:.\Generated_Source\PSoC5/NEOMOTE_1_RX_RTS_n.c **** * File Name: NEOMOTE_1_RX_RTS_n.c  
   3:.\Generated_Source\PSoC5/NEOMOTE_1_RX_RTS_n.c **** * Version 1.90
   4:.\Generated_Source\PSoC5/NEOMOTE_1_RX_RTS_n.c **** *
   5:.\Generated_Source\PSoC5/NEOMOTE_1_RX_RTS_n.c **** * Description:
   6:.\Generated_Source\PSoC5/NEOMOTE_1_RX_RTS_n.c **** *  This file contains API to enable firmware control of a Pins component.
   7:.\Generated_Source\PSoC5/NEOMOTE_1_RX_RTS_n.c **** *
   8:.\Generated_Source\PSoC5/NEOMOTE_1_RX_RTS_n.c **** * Note:
   9:.\Generated_Source\PSoC5/NEOMOTE_1_RX_RTS_n.c **** *
  10:.\Generated_Source\PSoC5/NEOMOTE_1_RX_RTS_n.c **** ********************************************************************************
  11:.\Generated_Source\PSoC5/NEOMOTE_1_RX_RTS_n.c **** * Copyright 2008-2012, Cypress Semiconductor Corporation.  All rights reserved.
  12:.\Generated_Source\PSoC5/NEOMOTE_1_RX_RTS_n.c **** * You may use this file only in accordance with the license, terms, conditions, 
  13:.\Generated_Source\PSoC5/NEOMOTE_1_RX_RTS_n.c **** * disclaimers, and limitations in the end user license agreement accompanying 
  14:.\Generated_Source\PSoC5/NEOMOTE_1_RX_RTS_n.c **** * the software package with which this file was provided.
  15:.\Generated_Source\PSoC5/NEOMOTE_1_RX_RTS_n.c **** *******************************************************************************/
  16:.\Generated_Source\PSoC5/NEOMOTE_1_RX_RTS_n.c **** 
  17:.\Generated_Source\PSoC5/NEOMOTE_1_RX_RTS_n.c **** #include "cytypes.h"
  18:.\Generated_Source\PSoC5/NEOMOTE_1_RX_RTS_n.c **** #include "NEOMOTE_1_RX_RTS_n.h"
  19:.\Generated_Source\PSoC5/NEOMOTE_1_RX_RTS_n.c **** 
  20:.\Generated_Source\PSoC5/NEOMOTE_1_RX_RTS_n.c **** /* APIs are not generated for P15[7:6] on PSoC 5 */
  21:.\Generated_Source\PSoC5/NEOMOTE_1_RX_RTS_n.c **** #if !(CY_PSOC5A &&\
  22:.\Generated_Source\PSoC5/NEOMOTE_1_RX_RTS_n.c **** 	 NEOMOTE_1_RX_RTS_n__PORT == 15 && ((NEOMOTE_1_RX_RTS_n__MASK & 0xC0) != 0))
ARM GAS  C:\Users\karunmj\AppData\Local\Temp\ccqEUaBl.s 			page 2


  23:.\Generated_Source\PSoC5/NEOMOTE_1_RX_RTS_n.c **** 
  24:.\Generated_Source\PSoC5/NEOMOTE_1_RX_RTS_n.c **** 
  25:.\Generated_Source\PSoC5/NEOMOTE_1_RX_RTS_n.c **** /*******************************************************************************
  26:.\Generated_Source\PSoC5/NEOMOTE_1_RX_RTS_n.c **** * Function Name: NEOMOTE_1_RX_RTS_n_Write
  27:.\Generated_Source\PSoC5/NEOMOTE_1_RX_RTS_n.c **** ********************************************************************************
  28:.\Generated_Source\PSoC5/NEOMOTE_1_RX_RTS_n.c **** *
  29:.\Generated_Source\PSoC5/NEOMOTE_1_RX_RTS_n.c **** * Summary:
  30:.\Generated_Source\PSoC5/NEOMOTE_1_RX_RTS_n.c **** *  Assign a new value to the digital port's data output register.  
  31:.\Generated_Source\PSoC5/NEOMOTE_1_RX_RTS_n.c **** *
  32:.\Generated_Source\PSoC5/NEOMOTE_1_RX_RTS_n.c **** * Parameters:  
  33:.\Generated_Source\PSoC5/NEOMOTE_1_RX_RTS_n.c **** *  prtValue:  The value to be assigned to the Digital Port. 
  34:.\Generated_Source\PSoC5/NEOMOTE_1_RX_RTS_n.c **** *
  35:.\Generated_Source\PSoC5/NEOMOTE_1_RX_RTS_n.c **** * Return: 
  36:.\Generated_Source\PSoC5/NEOMOTE_1_RX_RTS_n.c **** *  None
  37:.\Generated_Source\PSoC5/NEOMOTE_1_RX_RTS_n.c **** *  
  38:.\Generated_Source\PSoC5/NEOMOTE_1_RX_RTS_n.c **** *******************************************************************************/
  39:.\Generated_Source\PSoC5/NEOMOTE_1_RX_RTS_n.c **** void NEOMOTE_1_RX_RTS_n_Write(uint8 value) 
  40:.\Generated_Source\PSoC5/NEOMOTE_1_RX_RTS_n.c **** {
  32              		.loc 1 40 0
  33              		.cfi_startproc
  34              		@ args = 0, pretend = 0, frame = 16
  35              		@ frame_needed = 1, uses_anonymous_args = 0
  36              		@ link register save eliminated.
  37 0000 80B4     		push	{r7}
  38              	.LCFI0:
  39              		.cfi_def_cfa_offset 4
  40 0002 85B0     		sub	sp, sp, #20
  41              	.LCFI1:
  42              		.cfi_def_cfa_offset 24
  43 0004 00AF     		add	r7, sp, #0
  44              		.cfi_offset 7, -4
  45              	.LCFI2:
  46              		.cfi_def_cfa_register 7
  47 0006 0346     		mov	r3, r0
  48 0008 FB71     		strb	r3, [r7, #7]
  41:.\Generated_Source\PSoC5/NEOMOTE_1_RX_RTS_n.c ****     uint8 staticBits = (NEOMOTE_1_RX_RTS_n_DR & (uint8)(~NEOMOTE_1_RX_RTS_n_MASK));
  49              		.loc 1 41 0
  50 000a 45F20013 		movw	r3, #:lower16:1073762560
  51 000e C4F20003 		movt	r3, #:upper16:1073762560
  52 0012 1B78     		ldrb	r3, [r3, #0]
  53 0014 DBB2     		uxtb	r3, r3
  54 0016 23F00103 		bic	r3, r3, #1
  55 001a FB73     		strb	r3, [r7, #15]
  42:.\Generated_Source\PSoC5/NEOMOTE_1_RX_RTS_n.c ****     NEOMOTE_1_RX_RTS_n_DR = staticBits | ((uint8)(value << NEOMOTE_1_RX_RTS_n_SHIFT) & NEOMOTE_1_RX
  56              		.loc 1 42 0
  57 001c 45F20013 		movw	r3, #:lower16:1073762560
  58 0020 C4F20003 		movt	r3, #:upper16:1073762560
  59 0024 FA79     		ldrb	r2, [r7, #7]	@ zero_extendqisi2
  60 0026 02F00102 		and	r2, r2, #1
  61 002a F97B     		ldrb	r1, [r7, #15]
  62 002c 42EA0102 		orr	r2, r2, r1
  63 0030 D2B2     		uxtb	r2, r2
  64 0032 1A70     		strb	r2, [r3, #0]
  43:.\Generated_Source\PSoC5/NEOMOTE_1_RX_RTS_n.c **** }
  65              		.loc 1 43 0
  66 0034 07F11407 		add	r7, r7, #20
  67 0038 BD46     		mov	sp, r7
ARM GAS  C:\Users\karunmj\AppData\Local\Temp\ccqEUaBl.s 			page 3


  68 003a 80BC     		pop	{r7}
  69 003c 7047     		bx	lr
  70              		.cfi_endproc
  71              	.LFE0:
  72              		.size	NEOMOTE_1_RX_RTS_n_Write, .-NEOMOTE_1_RX_RTS_n_Write
  73 003e 00BF     		.section	.text.NEOMOTE_1_RX_RTS_n_SetDriveMode,"ax",%progbits
  74              		.align	2
  75              		.global	NEOMOTE_1_RX_RTS_n_SetDriveMode
  76              		.thumb
  77              		.thumb_func
  78              		.type	NEOMOTE_1_RX_RTS_n_SetDriveMode, %function
  79              	NEOMOTE_1_RX_RTS_n_SetDriveMode:
  80              	.LFB1:
  44:.\Generated_Source\PSoC5/NEOMOTE_1_RX_RTS_n.c **** 
  45:.\Generated_Source\PSoC5/NEOMOTE_1_RX_RTS_n.c **** 
  46:.\Generated_Source\PSoC5/NEOMOTE_1_RX_RTS_n.c **** /*******************************************************************************
  47:.\Generated_Source\PSoC5/NEOMOTE_1_RX_RTS_n.c **** * Function Name: NEOMOTE_1_RX_RTS_n_SetDriveMode
  48:.\Generated_Source\PSoC5/NEOMOTE_1_RX_RTS_n.c **** ********************************************************************************
  49:.\Generated_Source\PSoC5/NEOMOTE_1_RX_RTS_n.c **** *
  50:.\Generated_Source\PSoC5/NEOMOTE_1_RX_RTS_n.c **** * Summary:
  51:.\Generated_Source\PSoC5/NEOMOTE_1_RX_RTS_n.c **** *  Change the drive mode on the pins of the port.
  52:.\Generated_Source\PSoC5/NEOMOTE_1_RX_RTS_n.c **** * 
  53:.\Generated_Source\PSoC5/NEOMOTE_1_RX_RTS_n.c **** * Parameters:  
  54:.\Generated_Source\PSoC5/NEOMOTE_1_RX_RTS_n.c **** *  mode:  Change the pins to this drive mode.
  55:.\Generated_Source\PSoC5/NEOMOTE_1_RX_RTS_n.c **** *
  56:.\Generated_Source\PSoC5/NEOMOTE_1_RX_RTS_n.c **** * Return: 
  57:.\Generated_Source\PSoC5/NEOMOTE_1_RX_RTS_n.c **** *  None
  58:.\Generated_Source\PSoC5/NEOMOTE_1_RX_RTS_n.c **** *
  59:.\Generated_Source\PSoC5/NEOMOTE_1_RX_RTS_n.c **** *******************************************************************************/
  60:.\Generated_Source\PSoC5/NEOMOTE_1_RX_RTS_n.c **** void NEOMOTE_1_RX_RTS_n_SetDriveMode(uint8 mode) 
  61:.\Generated_Source\PSoC5/NEOMOTE_1_RX_RTS_n.c **** {
  81              		.loc 1 61 0
  82              		.cfi_startproc
  83              		@ args = 0, pretend = 0, frame = 8
  84              		@ frame_needed = 1, uses_anonymous_args = 0
  85              		@ link register save eliminated.
  86 0000 80B4     		push	{r7}
  87              	.LCFI3:
  88              		.cfi_def_cfa_offset 4
  89 0002 83B0     		sub	sp, sp, #12
  90              	.LCFI4:
  91              		.cfi_def_cfa_offset 16
  92 0004 00AF     		add	r7, sp, #0
  93              		.cfi_offset 7, -4
  94              	.LCFI5:
  95              		.cfi_def_cfa_register 7
  96 0006 0346     		mov	r3, r0
  97 0008 FB71     		strb	r3, [r7, #7]
  62:.\Generated_Source\PSoC5/NEOMOTE_1_RX_RTS_n.c **** 	CyPins_SetPinDriveMode(NEOMOTE_1_RX_RTS_n_0, mode);
  98              		.loc 1 62 0
  99 000a 45F20003 		movw	r3, #:lower16:1073762304
 100 000e C4F20003 		movt	r3, #:upper16:1073762304
 101 0012 45F20002 		movw	r2, #:lower16:1073762304
 102 0016 C4F20002 		movt	r2, #:upper16:1073762304
 103 001a 1278     		ldrb	r2, [r2, #0]
 104 001c D2B2     		uxtb	r2, r2
 105 001e D1B2     		uxtb	r1, r2
ARM GAS  C:\Users\karunmj\AppData\Local\Temp\ccqEUaBl.s 			page 4


 106 0020 01F0F101 		and	r1, r1, #241
 107 0024 FA79     		ldrb	r2, [r7, #7]	@ zero_extendqisi2
 108 0026 D2B2     		uxtb	r2, r2
 109 0028 02F00E02 		and	r2, r2, #14
 110 002c 41EA0202 		orr	r2, r1, r2
 111 0030 D2B2     		uxtb	r2, r2
 112 0032 D2B2     		uxtb	r2, r2
 113 0034 1A70     		strb	r2, [r3, #0]
  63:.\Generated_Source\PSoC5/NEOMOTE_1_RX_RTS_n.c **** }
 114              		.loc 1 63 0
 115 0036 07F10C07 		add	r7, r7, #12
 116 003a BD46     		mov	sp, r7
 117 003c 80BC     		pop	{r7}
 118 003e 7047     		bx	lr
 119              		.cfi_endproc
 120              	.LFE1:
 121              		.size	NEOMOTE_1_RX_RTS_n_SetDriveMode, .-NEOMOTE_1_RX_RTS_n_SetDriveMode
 122              		.section	.text.NEOMOTE_1_RX_RTS_n_Read,"ax",%progbits
 123              		.align	2
 124              		.global	NEOMOTE_1_RX_RTS_n_Read
 125              		.thumb
 126              		.thumb_func
 127              		.type	NEOMOTE_1_RX_RTS_n_Read, %function
 128              	NEOMOTE_1_RX_RTS_n_Read:
 129              	.LFB2:
  64:.\Generated_Source\PSoC5/NEOMOTE_1_RX_RTS_n.c **** 
  65:.\Generated_Source\PSoC5/NEOMOTE_1_RX_RTS_n.c **** 
  66:.\Generated_Source\PSoC5/NEOMOTE_1_RX_RTS_n.c **** /*******************************************************************************
  67:.\Generated_Source\PSoC5/NEOMOTE_1_RX_RTS_n.c **** * Function Name: NEOMOTE_1_RX_RTS_n_Read
  68:.\Generated_Source\PSoC5/NEOMOTE_1_RX_RTS_n.c **** ********************************************************************************
  69:.\Generated_Source\PSoC5/NEOMOTE_1_RX_RTS_n.c **** *
  70:.\Generated_Source\PSoC5/NEOMOTE_1_RX_RTS_n.c **** * Summary:
  71:.\Generated_Source\PSoC5/NEOMOTE_1_RX_RTS_n.c **** *  Read the current value on the pins of the Digital Port in right justified 
  72:.\Generated_Source\PSoC5/NEOMOTE_1_RX_RTS_n.c **** *  form.
  73:.\Generated_Source\PSoC5/NEOMOTE_1_RX_RTS_n.c **** *
  74:.\Generated_Source\PSoC5/NEOMOTE_1_RX_RTS_n.c **** * Parameters:  
  75:.\Generated_Source\PSoC5/NEOMOTE_1_RX_RTS_n.c **** *  None
  76:.\Generated_Source\PSoC5/NEOMOTE_1_RX_RTS_n.c **** *
  77:.\Generated_Source\PSoC5/NEOMOTE_1_RX_RTS_n.c **** * Return: 
  78:.\Generated_Source\PSoC5/NEOMOTE_1_RX_RTS_n.c **** *  Returns the current value of the Digital Port as a right justified number
  79:.\Generated_Source\PSoC5/NEOMOTE_1_RX_RTS_n.c **** *  
  80:.\Generated_Source\PSoC5/NEOMOTE_1_RX_RTS_n.c **** * Note:
  81:.\Generated_Source\PSoC5/NEOMOTE_1_RX_RTS_n.c **** *  Macro NEOMOTE_1_RX_RTS_n_ReadPS calls this function. 
  82:.\Generated_Source\PSoC5/NEOMOTE_1_RX_RTS_n.c **** *  
  83:.\Generated_Source\PSoC5/NEOMOTE_1_RX_RTS_n.c **** *******************************************************************************/
  84:.\Generated_Source\PSoC5/NEOMOTE_1_RX_RTS_n.c **** uint8 NEOMOTE_1_RX_RTS_n_Read(void) 
  85:.\Generated_Source\PSoC5/NEOMOTE_1_RX_RTS_n.c **** {
 130              		.loc 1 85 0
 131              		.cfi_startproc
 132              		@ args = 0, pretend = 0, frame = 0
 133              		@ frame_needed = 1, uses_anonymous_args = 0
 134              		@ link register save eliminated.
 135 0000 80B4     		push	{r7}
 136              	.LCFI6:
 137              		.cfi_def_cfa_offset 4
 138 0002 00AF     		add	r7, sp, #0
 139              		.cfi_offset 7, -4
ARM GAS  C:\Users\karunmj\AppData\Local\Temp\ccqEUaBl.s 			page 5


 140              	.LCFI7:
 141              		.cfi_def_cfa_register 7
  86:.\Generated_Source\PSoC5/NEOMOTE_1_RX_RTS_n.c ****     return (NEOMOTE_1_RX_RTS_n_PS & NEOMOTE_1_RX_RTS_n_MASK) >> NEOMOTE_1_RX_RTS_n_SHIFT;
 142              		.loc 1 86 0
 143 0004 45F20113 		movw	r3, #:lower16:1073762561
 144 0008 C4F20003 		movt	r3, #:upper16:1073762561
 145 000c 1B78     		ldrb	r3, [r3, #0]
 146 000e DBB2     		uxtb	r3, r3
 147 0010 03F00103 		and	r3, r3, #1
  87:.\Generated_Source\PSoC5/NEOMOTE_1_RX_RTS_n.c **** }
 148              		.loc 1 87 0
 149 0014 1846     		mov	r0, r3
 150 0016 BD46     		mov	sp, r7
 151 0018 80BC     		pop	{r7}
 152 001a 7047     		bx	lr
 153              		.cfi_endproc
 154              	.LFE2:
 155              		.size	NEOMOTE_1_RX_RTS_n_Read, .-NEOMOTE_1_RX_RTS_n_Read
 156              		.section	.text.NEOMOTE_1_RX_RTS_n_ReadDataReg,"ax",%progbits
 157              		.align	2
 158              		.global	NEOMOTE_1_RX_RTS_n_ReadDataReg
 159              		.thumb
 160              		.thumb_func
 161              		.type	NEOMOTE_1_RX_RTS_n_ReadDataReg, %function
 162              	NEOMOTE_1_RX_RTS_n_ReadDataReg:
 163              	.LFB3:
  88:.\Generated_Source\PSoC5/NEOMOTE_1_RX_RTS_n.c **** 
  89:.\Generated_Source\PSoC5/NEOMOTE_1_RX_RTS_n.c **** 
  90:.\Generated_Source\PSoC5/NEOMOTE_1_RX_RTS_n.c **** /*******************************************************************************
  91:.\Generated_Source\PSoC5/NEOMOTE_1_RX_RTS_n.c **** * Function Name: NEOMOTE_1_RX_RTS_n_ReadDataReg
  92:.\Generated_Source\PSoC5/NEOMOTE_1_RX_RTS_n.c **** ********************************************************************************
  93:.\Generated_Source\PSoC5/NEOMOTE_1_RX_RTS_n.c **** *
  94:.\Generated_Source\PSoC5/NEOMOTE_1_RX_RTS_n.c **** * Summary:
  95:.\Generated_Source\PSoC5/NEOMOTE_1_RX_RTS_n.c **** *  Read the current value assigned to a Digital Port's data output register
  96:.\Generated_Source\PSoC5/NEOMOTE_1_RX_RTS_n.c **** *
  97:.\Generated_Source\PSoC5/NEOMOTE_1_RX_RTS_n.c **** * Parameters:  
  98:.\Generated_Source\PSoC5/NEOMOTE_1_RX_RTS_n.c **** *  None 
  99:.\Generated_Source\PSoC5/NEOMOTE_1_RX_RTS_n.c **** *
 100:.\Generated_Source\PSoC5/NEOMOTE_1_RX_RTS_n.c **** * Return: 
 101:.\Generated_Source\PSoC5/NEOMOTE_1_RX_RTS_n.c **** *  Returns the current value assigned to the Digital Port's data output register
 102:.\Generated_Source\PSoC5/NEOMOTE_1_RX_RTS_n.c **** *  
 103:.\Generated_Source\PSoC5/NEOMOTE_1_RX_RTS_n.c **** *******************************************************************************/
 104:.\Generated_Source\PSoC5/NEOMOTE_1_RX_RTS_n.c **** uint8 NEOMOTE_1_RX_RTS_n_ReadDataReg(void) 
 105:.\Generated_Source\PSoC5/NEOMOTE_1_RX_RTS_n.c **** {
 164              		.loc 1 105 0
 165              		.cfi_startproc
 166              		@ args = 0, pretend = 0, frame = 0
 167              		@ frame_needed = 1, uses_anonymous_args = 0
 168              		@ link register save eliminated.
 169 0000 80B4     		push	{r7}
 170              	.LCFI8:
 171              		.cfi_def_cfa_offset 4
 172 0002 00AF     		add	r7, sp, #0
 173              		.cfi_offset 7, -4
 174              	.LCFI9:
 175              		.cfi_def_cfa_register 7
 106:.\Generated_Source\PSoC5/NEOMOTE_1_RX_RTS_n.c ****     return (NEOMOTE_1_RX_RTS_n_DR & NEOMOTE_1_RX_RTS_n_MASK) >> NEOMOTE_1_RX_RTS_n_SHIFT;
ARM GAS  C:\Users\karunmj\AppData\Local\Temp\ccqEUaBl.s 			page 6


 176              		.loc 1 106 0
 177 0004 45F20013 		movw	r3, #:lower16:1073762560
 178 0008 C4F20003 		movt	r3, #:upper16:1073762560
 179 000c 1B78     		ldrb	r3, [r3, #0]
 180 000e DBB2     		uxtb	r3, r3
 181 0010 03F00103 		and	r3, r3, #1
 107:.\Generated_Source\PSoC5/NEOMOTE_1_RX_RTS_n.c **** }
 182              		.loc 1 107 0
 183 0014 1846     		mov	r0, r3
 184 0016 BD46     		mov	sp, r7
 185 0018 80BC     		pop	{r7}
 186 001a 7047     		bx	lr
 187              		.cfi_endproc
 188              	.LFE3:
 189              		.size	NEOMOTE_1_RX_RTS_n_ReadDataReg, .-NEOMOTE_1_RX_RTS_n_ReadDataReg
 190              		.section	.text.NEOMOTE_1_RX_RTS_n_ClearInterrupt,"ax",%progbits
 191              		.align	2
 192              		.global	NEOMOTE_1_RX_RTS_n_ClearInterrupt
 193              		.thumb
 194              		.thumb_func
 195              		.type	NEOMOTE_1_RX_RTS_n_ClearInterrupt, %function
 196              	NEOMOTE_1_RX_RTS_n_ClearInterrupt:
 197              	.LFB4:
 108:.\Generated_Source\PSoC5/NEOMOTE_1_RX_RTS_n.c **** 
 109:.\Generated_Source\PSoC5/NEOMOTE_1_RX_RTS_n.c **** 
 110:.\Generated_Source\PSoC5/NEOMOTE_1_RX_RTS_n.c **** /* If Interrupts Are Enabled for this Pins component */ 
 111:.\Generated_Source\PSoC5/NEOMOTE_1_RX_RTS_n.c **** #if defined(NEOMOTE_1_RX_RTS_n_INTSTAT) 
 112:.\Generated_Source\PSoC5/NEOMOTE_1_RX_RTS_n.c **** 
 113:.\Generated_Source\PSoC5/NEOMOTE_1_RX_RTS_n.c ****     /*******************************************************************************
 114:.\Generated_Source\PSoC5/NEOMOTE_1_RX_RTS_n.c ****     * Function Name: NEOMOTE_1_RX_RTS_n_ClearInterrupt
 115:.\Generated_Source\PSoC5/NEOMOTE_1_RX_RTS_n.c ****     ********************************************************************************
 116:.\Generated_Source\PSoC5/NEOMOTE_1_RX_RTS_n.c ****     * Summary:
 117:.\Generated_Source\PSoC5/NEOMOTE_1_RX_RTS_n.c ****     *  Clears any active interrupts attached to port and returns the value of the 
 118:.\Generated_Source\PSoC5/NEOMOTE_1_RX_RTS_n.c ****     *  interrupt status register.
 119:.\Generated_Source\PSoC5/NEOMOTE_1_RX_RTS_n.c ****     *
 120:.\Generated_Source\PSoC5/NEOMOTE_1_RX_RTS_n.c ****     * Parameters:  
 121:.\Generated_Source\PSoC5/NEOMOTE_1_RX_RTS_n.c ****     *  None 
 122:.\Generated_Source\PSoC5/NEOMOTE_1_RX_RTS_n.c ****     *
 123:.\Generated_Source\PSoC5/NEOMOTE_1_RX_RTS_n.c ****     * Return: 
 124:.\Generated_Source\PSoC5/NEOMOTE_1_RX_RTS_n.c ****     *  Returns the value of the interrupt status register
 125:.\Generated_Source\PSoC5/NEOMOTE_1_RX_RTS_n.c ****     *  
 126:.\Generated_Source\PSoC5/NEOMOTE_1_RX_RTS_n.c ****     *******************************************************************************/
 127:.\Generated_Source\PSoC5/NEOMOTE_1_RX_RTS_n.c ****     uint8 NEOMOTE_1_RX_RTS_n_ClearInterrupt(void) 
 128:.\Generated_Source\PSoC5/NEOMOTE_1_RX_RTS_n.c ****     {
 198              		.loc 1 128 0
 199              		.cfi_startproc
 200              		@ args = 0, pretend = 0, frame = 0
 201              		@ frame_needed = 1, uses_anonymous_args = 0
 202              		@ link register save eliminated.
 203 0000 80B4     		push	{r7}
 204              	.LCFI10:
 205              		.cfi_def_cfa_offset 4
 206 0002 00AF     		add	r7, sp, #0
 207              		.cfi_offset 7, -4
 208              	.LCFI11:
 209              		.cfi_def_cfa_register 7
 129:.\Generated_Source\PSoC5/NEOMOTE_1_RX_RTS_n.c ****         return (NEOMOTE_1_RX_RTS_n_INTSTAT & NEOMOTE_1_RX_RTS_n_MASK) >> NEOMOTE_1_RX_RTS_n_SHIFT;
ARM GAS  C:\Users\karunmj\AppData\Local\Temp\ccqEUaBl.s 			page 7


 210              		.loc 1 129 0
 211 0004 44F28053 		movw	r3, #:lower16:1073759616
 212 0008 C4F20003 		movt	r3, #:upper16:1073759616
 213 000c 1B78     		ldrb	r3, [r3, #0]
 214 000e DBB2     		uxtb	r3, r3
 215 0010 03F00103 		and	r3, r3, #1
 130:.\Generated_Source\PSoC5/NEOMOTE_1_RX_RTS_n.c ****     }
 216              		.loc 1 130 0
 217 0014 1846     		mov	r0, r3
 218 0016 BD46     		mov	sp, r7
 219 0018 80BC     		pop	{r7}
 220 001a 7047     		bx	lr
 221              		.cfi_endproc
 222              	.LFE4:
 223              		.size	NEOMOTE_1_RX_RTS_n_ClearInterrupt, .-NEOMOTE_1_RX_RTS_n_ClearInterrupt
 224              		.text
 225              	.Letext0: