ARM GAS  C:\Users\karunmj\AppData\Local\Temp\ccdWoMNb.s 			page 1


   1              		.syntax unified
   2              		.cpu cortex-m3
   3              		.fpu softvfp
   4              		.eabi_attribute 20, 1
   5              		.eabi_attribute 21, 1
   6              		.eabi_attribute 23, 3
   7              		.eabi_attribute 24, 1
   8              		.eabi_attribute 25, 1
   9              		.eabi_attribute 26, 1
  10              		.eabi_attribute 30, 6
  11              		.eabi_attribute 18, 4
  12              		.thumb
  13              		.file	"NEOMOTE_1_UART_MOTE_PM.c"
  20 0000 E1000000 		.text
  20      02008800 
  20      00000201 
  20      FB0E0D00 
  20      01010101 
  21              	.Ltext0:
  22              		.cfi_sections	.debug_frame
  23              		.bss
  24              		.align	2
  25              	NEOMOTE_1_UART_MOTE_backup:
  26 0000 000000   		.space	3
  27 0003 00       		.section	.text.NEOMOTE_1_UART_MOTE_SaveConfig,"ax",%progbits
  28              		.align	2
  29              		.global	NEOMOTE_1_UART_MOTE_SaveConfig
  30              		.thumb
  31              		.thumb_func
  32              		.type	NEOMOTE_1_UART_MOTE_SaveConfig, %function
  33              	NEOMOTE_1_UART_MOTE_SaveConfig:
  34              	.LFB0:
  35              		.file 1 ".\\Generated_Source\\PSoC5\\NEOMOTE_1_UART_MOTE_PM.c"
   1:.\Generated_Source\PSoC5/NEOMOTE_1_UART_MOTE_PM.c **** /*******************************************************************************
   2:.\Generated_Source\PSoC5/NEOMOTE_1_UART_MOTE_PM.c **** * File Name: NEOMOTE_1_UART_MOTE_PM.c
   3:.\Generated_Source\PSoC5/NEOMOTE_1_UART_MOTE_PM.c **** * Version 2.30
   4:.\Generated_Source\PSoC5/NEOMOTE_1_UART_MOTE_PM.c **** *
   5:.\Generated_Source\PSoC5/NEOMOTE_1_UART_MOTE_PM.c **** * Description:
   6:.\Generated_Source\PSoC5/NEOMOTE_1_UART_MOTE_PM.c **** *  This file provides Sleep/WakeUp APIs functionality.
   7:.\Generated_Source\PSoC5/NEOMOTE_1_UART_MOTE_PM.c **** *
   8:.\Generated_Source\PSoC5/NEOMOTE_1_UART_MOTE_PM.c **** * Note:
   9:.\Generated_Source\PSoC5/NEOMOTE_1_UART_MOTE_PM.c **** *
  10:.\Generated_Source\PSoC5/NEOMOTE_1_UART_MOTE_PM.c **** ********************************************************************************
  11:.\Generated_Source\PSoC5/NEOMOTE_1_UART_MOTE_PM.c **** * Copyright 2008-2012, Cypress Semiconductor Corporation.  All rights reserved.
  12:.\Generated_Source\PSoC5/NEOMOTE_1_UART_MOTE_PM.c **** * You may use this file only in accordance with the license, terms, conditions,
  13:.\Generated_Source\PSoC5/NEOMOTE_1_UART_MOTE_PM.c **** * disclaimers, and limitations in the end user license agreement accompanying
  14:.\Generated_Source\PSoC5/NEOMOTE_1_UART_MOTE_PM.c **** * the software package with which this file was provided.
  15:.\Generated_Source\PSoC5/NEOMOTE_1_UART_MOTE_PM.c **** *******************************************************************************/
  16:.\Generated_Source\PSoC5/NEOMOTE_1_UART_MOTE_PM.c **** 
  17:.\Generated_Source\PSoC5/NEOMOTE_1_UART_MOTE_PM.c **** #include "NEOMOTE_1_UART_MOTE.h"
  18:.\Generated_Source\PSoC5/NEOMOTE_1_UART_MOTE_PM.c **** 
ARM GAS  C:\Users\karunmj\AppData\Local\Temp\ccdWoMNb.s 			page 2


  19:.\Generated_Source\PSoC5/NEOMOTE_1_UART_MOTE_PM.c **** 
  20:.\Generated_Source\PSoC5/NEOMOTE_1_UART_MOTE_PM.c **** /***************************************
  21:.\Generated_Source\PSoC5/NEOMOTE_1_UART_MOTE_PM.c **** * Local data allocation
  22:.\Generated_Source\PSoC5/NEOMOTE_1_UART_MOTE_PM.c **** ***************************************/
  23:.\Generated_Source\PSoC5/NEOMOTE_1_UART_MOTE_PM.c **** 
  24:.\Generated_Source\PSoC5/NEOMOTE_1_UART_MOTE_PM.c **** static NEOMOTE_1_UART_MOTE_BACKUP_STRUCT  NEOMOTE_1_UART_MOTE_backup =
  25:.\Generated_Source\PSoC5/NEOMOTE_1_UART_MOTE_PM.c **** {
  26:.\Generated_Source\PSoC5/NEOMOTE_1_UART_MOTE_PM.c ****     /* enableState - disabled */
  27:.\Generated_Source\PSoC5/NEOMOTE_1_UART_MOTE_PM.c ****     0u,
  28:.\Generated_Source\PSoC5/NEOMOTE_1_UART_MOTE_PM.c **** };
  29:.\Generated_Source\PSoC5/NEOMOTE_1_UART_MOTE_PM.c **** 
  30:.\Generated_Source\PSoC5/NEOMOTE_1_UART_MOTE_PM.c **** 
  31:.\Generated_Source\PSoC5/NEOMOTE_1_UART_MOTE_PM.c **** 
  32:.\Generated_Source\PSoC5/NEOMOTE_1_UART_MOTE_PM.c **** /*******************************************************************************
  33:.\Generated_Source\PSoC5/NEOMOTE_1_UART_MOTE_PM.c **** * Function Name: NEOMOTE_1_UART_MOTE_SaveConfig
  34:.\Generated_Source\PSoC5/NEOMOTE_1_UART_MOTE_PM.c **** ********************************************************************************
  35:.\Generated_Source\PSoC5/NEOMOTE_1_UART_MOTE_PM.c **** *
  36:.\Generated_Source\PSoC5/NEOMOTE_1_UART_MOTE_PM.c **** * Summary:
  37:.\Generated_Source\PSoC5/NEOMOTE_1_UART_MOTE_PM.c **** *  Saves the current user configuration.
  38:.\Generated_Source\PSoC5/NEOMOTE_1_UART_MOTE_PM.c **** *
  39:.\Generated_Source\PSoC5/NEOMOTE_1_UART_MOTE_PM.c **** * Parameters:
  40:.\Generated_Source\PSoC5/NEOMOTE_1_UART_MOTE_PM.c **** *  None.
  41:.\Generated_Source\PSoC5/NEOMOTE_1_UART_MOTE_PM.c **** *
  42:.\Generated_Source\PSoC5/NEOMOTE_1_UART_MOTE_PM.c **** * Return:
  43:.\Generated_Source\PSoC5/NEOMOTE_1_UART_MOTE_PM.c **** *  None.
  44:.\Generated_Source\PSoC5/NEOMOTE_1_UART_MOTE_PM.c **** *
  45:.\Generated_Source\PSoC5/NEOMOTE_1_UART_MOTE_PM.c **** * Global Variables:
  46:.\Generated_Source\PSoC5/NEOMOTE_1_UART_MOTE_PM.c **** *  NEOMOTE_1_UART_MOTE_backup - modified when non-retention registers are saved.
  47:.\Generated_Source\PSoC5/NEOMOTE_1_UART_MOTE_PM.c **** *
  48:.\Generated_Source\PSoC5/NEOMOTE_1_UART_MOTE_PM.c **** * Reentrant:
  49:.\Generated_Source\PSoC5/NEOMOTE_1_UART_MOTE_PM.c **** *  No.
  50:.\Generated_Source\PSoC5/NEOMOTE_1_UART_MOTE_PM.c **** *
  51:.\Generated_Source\PSoC5/NEOMOTE_1_UART_MOTE_PM.c **** *******************************************************************************/
  52:.\Generated_Source\PSoC5/NEOMOTE_1_UART_MOTE_PM.c **** void NEOMOTE_1_UART_MOTE_SaveConfig(void)
  53:.\Generated_Source\PSoC5/NEOMOTE_1_UART_MOTE_PM.c **** {
  36              		.loc 1 53 0
  37              		.cfi_startproc
  38              		@ args = 0, pretend = 0, frame = 0
  39              		@ frame_needed = 1, uses_anonymous_args = 0
  40              		@ link register save eliminated.
  41 0000 80B4     		push	{r7}
  42              	.LCFI0:
  43              		.cfi_def_cfa_offset 4
  44 0002 00AF     		add	r7, sp, #0
  45              		.cfi_offset 7, -4
  46              	.LCFI1:
  47              		.cfi_def_cfa_register 7
  54:.\Generated_Source\PSoC5/NEOMOTE_1_UART_MOTE_PM.c ****     #if (CY_UDB_V0)
  55:.\Generated_Source\PSoC5/NEOMOTE_1_UART_MOTE_PM.c **** 
  56:.\Generated_Source\PSoC5/NEOMOTE_1_UART_MOTE_PM.c ****         #if(NEOMOTE_1_UART_MOTE_CONTROL_REG_REMOVED == 0u)
  57:.\Generated_Source\PSoC5/NEOMOTE_1_UART_MOTE_PM.c ****             NEOMOTE_1_UART_MOTE_backup.cr = NEOMOTE_1_UART_MOTE_CONTROL_REG;
  58:.\Generated_Source\PSoC5/NEOMOTE_1_UART_MOTE_PM.c ****         #endif /* End NEOMOTE_1_UART_MOTE_CONTROL_REG_REMOVED */
  59:.\Generated_Source\PSoC5/NEOMOTE_1_UART_MOTE_PM.c **** 
  60:.\Generated_Source\PSoC5/NEOMOTE_1_UART_MOTE_PM.c ****         #if( (NEOMOTE_1_UART_MOTE_RX_ENABLED) || (NEOMOTE_1_UART_MOTE_HD_ENABLED) )
  61:.\Generated_Source\PSoC5/NEOMOTE_1_UART_MOTE_PM.c ****             NEOMOTE_1_UART_MOTE_backup.rx_period = NEOMOTE_1_UART_MOTE_RXBITCTR_PERIOD_REG;
  62:.\Generated_Source\PSoC5/NEOMOTE_1_UART_MOTE_PM.c ****             NEOMOTE_1_UART_MOTE_backup.rx_mask = NEOMOTE_1_UART_MOTE_RXSTATUS_MASK_REG;
  63:.\Generated_Source\PSoC5/NEOMOTE_1_UART_MOTE_PM.c ****             #if (NEOMOTE_1_UART_MOTE_RXHW_ADDRESS_ENABLED)
ARM GAS  C:\Users\karunmj\AppData\Local\Temp\ccdWoMNb.s 			page 3


  64:.\Generated_Source\PSoC5/NEOMOTE_1_UART_MOTE_PM.c ****                 NEOMOTE_1_UART_MOTE_backup.rx_addr1 = NEOMOTE_1_UART_MOTE_RXADDRESS1_REG;
  65:.\Generated_Source\PSoC5/NEOMOTE_1_UART_MOTE_PM.c ****                 NEOMOTE_1_UART_MOTE_backup.rx_addr2 = NEOMOTE_1_UART_MOTE_RXADDRESS2_REG;
  66:.\Generated_Source\PSoC5/NEOMOTE_1_UART_MOTE_PM.c ****             #endif /* End NEOMOTE_1_UART_MOTE_RXHW_ADDRESS_ENABLED */
  67:.\Generated_Source\PSoC5/NEOMOTE_1_UART_MOTE_PM.c ****         #endif /* End NEOMOTE_1_UART_MOTE_RX_ENABLED | NEOMOTE_1_UART_MOTE_HD_ENABLED*/
  68:.\Generated_Source\PSoC5/NEOMOTE_1_UART_MOTE_PM.c **** 
  69:.\Generated_Source\PSoC5/NEOMOTE_1_UART_MOTE_PM.c ****         #if(NEOMOTE_1_UART_MOTE_TX_ENABLED)
  70:.\Generated_Source\PSoC5/NEOMOTE_1_UART_MOTE_PM.c ****             #if(NEOMOTE_1_UART_MOTE_TXCLKGEN_DP)
  71:.\Generated_Source\PSoC5/NEOMOTE_1_UART_MOTE_PM.c ****                 NEOMOTE_1_UART_MOTE_backup.tx_clk_ctr = NEOMOTE_1_UART_MOTE_TXBITCLKGEN_CTR_REG;
  72:.\Generated_Source\PSoC5/NEOMOTE_1_UART_MOTE_PM.c ****                 NEOMOTE_1_UART_MOTE_backup.tx_clk_compl = NEOMOTE_1_UART_MOTE_TXBITCLKTX_COMPLETE_R
  73:.\Generated_Source\PSoC5/NEOMOTE_1_UART_MOTE_PM.c ****             #else
  74:.\Generated_Source\PSoC5/NEOMOTE_1_UART_MOTE_PM.c ****                 NEOMOTE_1_UART_MOTE_backup.tx_period = NEOMOTE_1_UART_MOTE_TXBITCTR_PERIOD_REG;
  75:.\Generated_Source\PSoC5/NEOMOTE_1_UART_MOTE_PM.c ****             #endif /*End NEOMOTE_1_UART_MOTE_TXCLKGEN_DP */
  76:.\Generated_Source\PSoC5/NEOMOTE_1_UART_MOTE_PM.c ****             NEOMOTE_1_UART_MOTE_backup.tx_mask = NEOMOTE_1_UART_MOTE_TXSTATUS_MASK_REG;
  77:.\Generated_Source\PSoC5/NEOMOTE_1_UART_MOTE_PM.c ****         #endif /*End NEOMOTE_1_UART_MOTE_TX_ENABLED */
  78:.\Generated_Source\PSoC5/NEOMOTE_1_UART_MOTE_PM.c **** 
  79:.\Generated_Source\PSoC5/NEOMOTE_1_UART_MOTE_PM.c **** 
  80:.\Generated_Source\PSoC5/NEOMOTE_1_UART_MOTE_PM.c ****     #else /* CY_UDB_V1 */
  81:.\Generated_Source\PSoC5/NEOMOTE_1_UART_MOTE_PM.c **** 
  82:.\Generated_Source\PSoC5/NEOMOTE_1_UART_MOTE_PM.c ****         #if(NEOMOTE_1_UART_MOTE_CONTROL_REG_REMOVED == 0u)
  83:.\Generated_Source\PSoC5/NEOMOTE_1_UART_MOTE_PM.c ****             NEOMOTE_1_UART_MOTE_backup.cr = NEOMOTE_1_UART_MOTE_CONTROL_REG;
  84:.\Generated_Source\PSoC5/NEOMOTE_1_UART_MOTE_PM.c ****         #endif /* End NEOMOTE_1_UART_MOTE_CONTROL_REG_REMOVED */
  85:.\Generated_Source\PSoC5/NEOMOTE_1_UART_MOTE_PM.c **** 
  86:.\Generated_Source\PSoC5/NEOMOTE_1_UART_MOTE_PM.c ****     #endif  /* End CY_UDB_V0 */
  87:.\Generated_Source\PSoC5/NEOMOTE_1_UART_MOTE_PM.c **** }
  48              		.loc 1 87 0
  49 0004 BD46     		mov	sp, r7
  50 0006 80BC     		pop	{r7}
  51 0008 7047     		bx	lr
  52              		.cfi_endproc
  53              	.LFE0:
  54              		.size	NEOMOTE_1_UART_MOTE_SaveConfig, .-NEOMOTE_1_UART_MOTE_SaveConfig
  55 000a 00BF     		.section	.text.NEOMOTE_1_UART_MOTE_RestoreConfig,"ax",%progbits
  56              		.align	2
  57              		.global	NEOMOTE_1_UART_MOTE_RestoreConfig
  58              		.thumb
  59              		.thumb_func
  60              		.type	NEOMOTE_1_UART_MOTE_RestoreConfig, %function
  61              	NEOMOTE_1_UART_MOTE_RestoreConfig:
  62              	.LFB1:
  88:.\Generated_Source\PSoC5/NEOMOTE_1_UART_MOTE_PM.c **** 
  89:.\Generated_Source\PSoC5/NEOMOTE_1_UART_MOTE_PM.c **** 
  90:.\Generated_Source\PSoC5/NEOMOTE_1_UART_MOTE_PM.c **** /*******************************************************************************
  91:.\Generated_Source\PSoC5/NEOMOTE_1_UART_MOTE_PM.c **** * Function Name: NEOMOTE_1_UART_MOTE_RestoreConfig
  92:.\Generated_Source\PSoC5/NEOMOTE_1_UART_MOTE_PM.c **** ********************************************************************************
  93:.\Generated_Source\PSoC5/NEOMOTE_1_UART_MOTE_PM.c **** *
  94:.\Generated_Source\PSoC5/NEOMOTE_1_UART_MOTE_PM.c **** * Summary:
  95:.\Generated_Source\PSoC5/NEOMOTE_1_UART_MOTE_PM.c **** *  Restores the current user configuration.
  96:.\Generated_Source\PSoC5/NEOMOTE_1_UART_MOTE_PM.c **** *
  97:.\Generated_Source\PSoC5/NEOMOTE_1_UART_MOTE_PM.c **** * Parameters:
  98:.\Generated_Source\PSoC5/NEOMOTE_1_UART_MOTE_PM.c **** *  None.
  99:.\Generated_Source\PSoC5/NEOMOTE_1_UART_MOTE_PM.c **** *
 100:.\Generated_Source\PSoC5/NEOMOTE_1_UART_MOTE_PM.c **** * Return:
 101:.\Generated_Source\PSoC5/NEOMOTE_1_UART_MOTE_PM.c **** *  None.
 102:.\Generated_Source\PSoC5/NEOMOTE_1_UART_MOTE_PM.c **** *
 103:.\Generated_Source\PSoC5/NEOMOTE_1_UART_MOTE_PM.c **** * Global Variables:
 104:.\Generated_Source\PSoC5/NEOMOTE_1_UART_MOTE_PM.c **** *  NEOMOTE_1_UART_MOTE_backup - used when non-retention registers are restored.
 105:.\Generated_Source\PSoC5/NEOMOTE_1_UART_MOTE_PM.c **** *
ARM GAS  C:\Users\karunmj\AppData\Local\Temp\ccdWoMNb.s 			page 4


 106:.\Generated_Source\PSoC5/NEOMOTE_1_UART_MOTE_PM.c **** * Reentrant:
 107:.\Generated_Source\PSoC5/NEOMOTE_1_UART_MOTE_PM.c **** *  No.
 108:.\Generated_Source\PSoC5/NEOMOTE_1_UART_MOTE_PM.c **** *
 109:.\Generated_Source\PSoC5/NEOMOTE_1_UART_MOTE_PM.c **** *******************************************************************************/
 110:.\Generated_Source\PSoC5/NEOMOTE_1_UART_MOTE_PM.c **** void NEOMOTE_1_UART_MOTE_RestoreConfig(void)
 111:.\Generated_Source\PSoC5/NEOMOTE_1_UART_MOTE_PM.c **** {
  63              		.loc 1 111 0
  64              		.cfi_startproc
  65              		@ args = 0, pretend = 0, frame = 0
  66              		@ frame_needed = 1, uses_anonymous_args = 0
  67              		@ link register save eliminated.
  68 0000 80B4     		push	{r7}
  69              	.LCFI2:
  70              		.cfi_def_cfa_offset 4
  71 0002 00AF     		add	r7, sp, #0
  72              		.cfi_offset 7, -4
  73              	.LCFI3:
  74              		.cfi_def_cfa_register 7
 112:.\Generated_Source\PSoC5/NEOMOTE_1_UART_MOTE_PM.c **** 
 113:.\Generated_Source\PSoC5/NEOMOTE_1_UART_MOTE_PM.c ****     #if (CY_UDB_V0)
 114:.\Generated_Source\PSoC5/NEOMOTE_1_UART_MOTE_PM.c **** 
 115:.\Generated_Source\PSoC5/NEOMOTE_1_UART_MOTE_PM.c ****         #if(NEOMOTE_1_UART_MOTE_CONTROL_REG_REMOVED == 0u)
 116:.\Generated_Source\PSoC5/NEOMOTE_1_UART_MOTE_PM.c ****             NEOMOTE_1_UART_MOTE_CONTROL_REG = NEOMOTE_1_UART_MOTE_backup.cr;
 117:.\Generated_Source\PSoC5/NEOMOTE_1_UART_MOTE_PM.c ****         #endif /* End NEOMOTE_1_UART_MOTE_CONTROL_REG_REMOVED */
 118:.\Generated_Source\PSoC5/NEOMOTE_1_UART_MOTE_PM.c **** 
 119:.\Generated_Source\PSoC5/NEOMOTE_1_UART_MOTE_PM.c ****         #if( (NEOMOTE_1_UART_MOTE_RX_ENABLED) || (NEOMOTE_1_UART_MOTE_HD_ENABLED) )
 120:.\Generated_Source\PSoC5/NEOMOTE_1_UART_MOTE_PM.c ****             NEOMOTE_1_UART_MOTE_RXBITCTR_PERIOD_REG = NEOMOTE_1_UART_MOTE_backup.rx_period;
 121:.\Generated_Source\PSoC5/NEOMOTE_1_UART_MOTE_PM.c ****             NEOMOTE_1_UART_MOTE_RXSTATUS_MASK_REG = NEOMOTE_1_UART_MOTE_backup.rx_mask;
 122:.\Generated_Source\PSoC5/NEOMOTE_1_UART_MOTE_PM.c ****             #if (NEOMOTE_1_UART_MOTE_RXHW_ADDRESS_ENABLED)
 123:.\Generated_Source\PSoC5/NEOMOTE_1_UART_MOTE_PM.c ****                 NEOMOTE_1_UART_MOTE_RXADDRESS1_REG = NEOMOTE_1_UART_MOTE_backup.rx_addr1;
 124:.\Generated_Source\PSoC5/NEOMOTE_1_UART_MOTE_PM.c ****                 NEOMOTE_1_UART_MOTE_RXADDRESS2_REG = NEOMOTE_1_UART_MOTE_backup.rx_addr2;
 125:.\Generated_Source\PSoC5/NEOMOTE_1_UART_MOTE_PM.c ****             #endif /* End NEOMOTE_1_UART_MOTE_RXHW_ADDRESS_ENABLED */
 126:.\Generated_Source\PSoC5/NEOMOTE_1_UART_MOTE_PM.c ****         #endif  /* End (NEOMOTE_1_UART_MOTE_RX_ENABLED) || (NEOMOTE_1_UART_MOTE_HD_ENABLED) */
 127:.\Generated_Source\PSoC5/NEOMOTE_1_UART_MOTE_PM.c **** 
 128:.\Generated_Source\PSoC5/NEOMOTE_1_UART_MOTE_PM.c ****         #if(NEOMOTE_1_UART_MOTE_TX_ENABLED)
 129:.\Generated_Source\PSoC5/NEOMOTE_1_UART_MOTE_PM.c ****             #if(NEOMOTE_1_UART_MOTE_TXCLKGEN_DP)
 130:.\Generated_Source\PSoC5/NEOMOTE_1_UART_MOTE_PM.c ****                 NEOMOTE_1_UART_MOTE_TXBITCLKGEN_CTR_REG = NEOMOTE_1_UART_MOTE_backup.tx_clk_ctr;
 131:.\Generated_Source\PSoC5/NEOMOTE_1_UART_MOTE_PM.c ****                 NEOMOTE_1_UART_MOTE_TXBITCLKTX_COMPLETE_REG = NEOMOTE_1_UART_MOTE_backup.tx_clk_com
 132:.\Generated_Source\PSoC5/NEOMOTE_1_UART_MOTE_PM.c ****             #else
 133:.\Generated_Source\PSoC5/NEOMOTE_1_UART_MOTE_PM.c ****                 NEOMOTE_1_UART_MOTE_TXBITCTR_PERIOD_REG = NEOMOTE_1_UART_MOTE_backup.tx_period;
 134:.\Generated_Source\PSoC5/NEOMOTE_1_UART_MOTE_PM.c ****             #endif /*End NEOMOTE_1_UART_MOTE_TXCLKGEN_DP */
 135:.\Generated_Source\PSoC5/NEOMOTE_1_UART_MOTE_PM.c ****             NEOMOTE_1_UART_MOTE_TXSTATUS_MASK_REG = NEOMOTE_1_UART_MOTE_backup.tx_mask;
 136:.\Generated_Source\PSoC5/NEOMOTE_1_UART_MOTE_PM.c ****         #endif /*End NEOMOTE_1_UART_MOTE_TX_ENABLED */
 137:.\Generated_Source\PSoC5/NEOMOTE_1_UART_MOTE_PM.c **** 
 138:.\Generated_Source\PSoC5/NEOMOTE_1_UART_MOTE_PM.c ****     #else /* CY_UDB_V1 */
 139:.\Generated_Source\PSoC5/NEOMOTE_1_UART_MOTE_PM.c **** 
 140:.\Generated_Source\PSoC5/NEOMOTE_1_UART_MOTE_PM.c ****         #if(NEOMOTE_1_UART_MOTE_CONTROL_REG_REMOVED == 0u)
 141:.\Generated_Source\PSoC5/NEOMOTE_1_UART_MOTE_PM.c ****             NEOMOTE_1_UART_MOTE_CONTROL_REG = NEOMOTE_1_UART_MOTE_backup.cr;
 142:.\Generated_Source\PSoC5/NEOMOTE_1_UART_MOTE_PM.c ****         #endif /* End NEOMOTE_1_UART_MOTE_CONTROL_REG_REMOVED */
 143:.\Generated_Source\PSoC5/NEOMOTE_1_UART_MOTE_PM.c **** 
 144:.\Generated_Source\PSoC5/NEOMOTE_1_UART_MOTE_PM.c ****     #endif  /* End CY_UDB_V0 */
 145:.\Generated_Source\PSoC5/NEOMOTE_1_UART_MOTE_PM.c **** }
  75              		.loc 1 145 0
  76 0004 BD46     		mov	sp, r7
  77 0006 80BC     		pop	{r7}
  78 0008 7047     		bx	lr
  79              		.cfi_endproc
ARM GAS  C:\Users\karunmj\AppData\Local\Temp\ccdWoMNb.s 			page 5


  80              	.LFE1:
  81              		.size	NEOMOTE_1_UART_MOTE_RestoreConfig, .-NEOMOTE_1_UART_MOTE_RestoreConfig
  82 000a 00BF     		.section	.text.NEOMOTE_1_UART_MOTE_Sleep,"ax",%progbits
  83              		.align	2
  84              		.global	NEOMOTE_1_UART_MOTE_Sleep
  85              		.thumb
  86              		.thumb_func
  87              		.type	NEOMOTE_1_UART_MOTE_Sleep, %function
  88              	NEOMOTE_1_UART_MOTE_Sleep:
  89              	.LFB2:
 146:.\Generated_Source\PSoC5/NEOMOTE_1_UART_MOTE_PM.c **** 
 147:.\Generated_Source\PSoC5/NEOMOTE_1_UART_MOTE_PM.c **** 
 148:.\Generated_Source\PSoC5/NEOMOTE_1_UART_MOTE_PM.c **** /*******************************************************************************
 149:.\Generated_Source\PSoC5/NEOMOTE_1_UART_MOTE_PM.c **** * Function Name: NEOMOTE_1_UART_MOTE_Sleep
 150:.\Generated_Source\PSoC5/NEOMOTE_1_UART_MOTE_PM.c **** ********************************************************************************
 151:.\Generated_Source\PSoC5/NEOMOTE_1_UART_MOTE_PM.c **** *
 152:.\Generated_Source\PSoC5/NEOMOTE_1_UART_MOTE_PM.c **** * Summary:
 153:.\Generated_Source\PSoC5/NEOMOTE_1_UART_MOTE_PM.c **** *  Stops and saves the user configuration. Should be called
 154:.\Generated_Source\PSoC5/NEOMOTE_1_UART_MOTE_PM.c **** *  just prior to entering sleep.
 155:.\Generated_Source\PSoC5/NEOMOTE_1_UART_MOTE_PM.c **** *
 156:.\Generated_Source\PSoC5/NEOMOTE_1_UART_MOTE_PM.c **** *
 157:.\Generated_Source\PSoC5/NEOMOTE_1_UART_MOTE_PM.c **** * Parameters:
 158:.\Generated_Source\PSoC5/NEOMOTE_1_UART_MOTE_PM.c **** *  None.
 159:.\Generated_Source\PSoC5/NEOMOTE_1_UART_MOTE_PM.c **** *
 160:.\Generated_Source\PSoC5/NEOMOTE_1_UART_MOTE_PM.c **** * Return:
 161:.\Generated_Source\PSoC5/NEOMOTE_1_UART_MOTE_PM.c **** *  None.
 162:.\Generated_Source\PSoC5/NEOMOTE_1_UART_MOTE_PM.c **** *
 163:.\Generated_Source\PSoC5/NEOMOTE_1_UART_MOTE_PM.c **** * Global Variables:
 164:.\Generated_Source\PSoC5/NEOMOTE_1_UART_MOTE_PM.c **** *  NEOMOTE_1_UART_MOTE_backup - modified when non-retention registers are saved.
 165:.\Generated_Source\PSoC5/NEOMOTE_1_UART_MOTE_PM.c **** *
 166:.\Generated_Source\PSoC5/NEOMOTE_1_UART_MOTE_PM.c **** * Reentrant:
 167:.\Generated_Source\PSoC5/NEOMOTE_1_UART_MOTE_PM.c **** *  No.
 168:.\Generated_Source\PSoC5/NEOMOTE_1_UART_MOTE_PM.c **** *
 169:.\Generated_Source\PSoC5/NEOMOTE_1_UART_MOTE_PM.c **** *******************************************************************************/
 170:.\Generated_Source\PSoC5/NEOMOTE_1_UART_MOTE_PM.c **** void NEOMOTE_1_UART_MOTE_Sleep(void)
 171:.\Generated_Source\PSoC5/NEOMOTE_1_UART_MOTE_PM.c **** {
  90              		.loc 1 171 0
  91              		.cfi_startproc
  92              		@ args = 0, pretend = 0, frame = 0
  93              		@ frame_needed = 1, uses_anonymous_args = 0
  94 0000 80B5     		push	{r7, lr}
  95              	.LCFI4:
  96              		.cfi_def_cfa_offset 8
  97 0002 00AF     		add	r7, sp, #0
  98              		.cfi_offset 14, -4
  99              		.cfi_offset 7, -8
 100              	.LCFI5:
 101              		.cfi_def_cfa_register 7
 172:.\Generated_Source\PSoC5/NEOMOTE_1_UART_MOTE_PM.c **** 
 173:.\Generated_Source\PSoC5/NEOMOTE_1_UART_MOTE_PM.c ****     #if(NEOMOTE_1_UART_MOTE_RX_ENABLED || NEOMOTE_1_UART_MOTE_HD_ENABLED)
 174:.\Generated_Source\PSoC5/NEOMOTE_1_UART_MOTE_PM.c ****         if((NEOMOTE_1_UART_MOTE_RXSTATUS_ACTL_REG  & NEOMOTE_1_UART_MOTE_INT_ENABLE) != 0u)
 102              		.loc 1 174 0
 103 0004 46F29B43 		movw	r3, #:lower16:1073767579
 104 0008 C4F20003 		movt	r3, #:upper16:1073767579
 105 000c 1B78     		ldrb	r3, [r3, #0]
 106 000e DBB2     		uxtb	r3, r3
 107 0010 03F01003 		and	r3, r3, #16
ARM GAS  C:\Users\karunmj\AppData\Local\Temp\ccdWoMNb.s 			page 6


 108 0014 002B     		cmp	r3, #0
 109 0016 07D0     		beq	.L6
 175:.\Generated_Source\PSoC5/NEOMOTE_1_UART_MOTE_PM.c ****         {
 176:.\Generated_Source\PSoC5/NEOMOTE_1_UART_MOTE_PM.c ****             NEOMOTE_1_UART_MOTE_backup.enableState = 1u;
 110              		.loc 1 176 0
 111 0018 40F20003 		movw	r3, #:lower16:NEOMOTE_1_UART_MOTE_backup
 112 001c C0F20003 		movt	r3, #:upper16:NEOMOTE_1_UART_MOTE_backup
 113 0020 4FF00102 		mov	r2, #1
 114 0024 1A70     		strb	r2, [r3, #0]
 115 0026 06E0     		b	.L7
 116              	.L6:
 177:.\Generated_Source\PSoC5/NEOMOTE_1_UART_MOTE_PM.c ****         }
 178:.\Generated_Source\PSoC5/NEOMOTE_1_UART_MOTE_PM.c ****         else
 179:.\Generated_Source\PSoC5/NEOMOTE_1_UART_MOTE_PM.c ****         {
 180:.\Generated_Source\PSoC5/NEOMOTE_1_UART_MOTE_PM.c ****             NEOMOTE_1_UART_MOTE_backup.enableState = 0u;
 117              		.loc 1 180 0
 118 0028 40F20003 		movw	r3, #:lower16:NEOMOTE_1_UART_MOTE_backup
 119 002c C0F20003 		movt	r3, #:upper16:NEOMOTE_1_UART_MOTE_backup
 120 0030 4FF00002 		mov	r2, #0
 121 0034 1A70     		strb	r2, [r3, #0]
 122              	.L7:
 181:.\Generated_Source\PSoC5/NEOMOTE_1_UART_MOTE_PM.c ****         }
 182:.\Generated_Source\PSoC5/NEOMOTE_1_UART_MOTE_PM.c ****     #else
 183:.\Generated_Source\PSoC5/NEOMOTE_1_UART_MOTE_PM.c ****         if((NEOMOTE_1_UART_MOTE_TXSTATUS_ACTL_REG  & NEOMOTE_1_UART_MOTE_INT_ENABLE) !=0u)
 184:.\Generated_Source\PSoC5/NEOMOTE_1_UART_MOTE_PM.c ****         {
 185:.\Generated_Source\PSoC5/NEOMOTE_1_UART_MOTE_PM.c ****             NEOMOTE_1_UART_MOTE_backup.enableState = 1u;
 186:.\Generated_Source\PSoC5/NEOMOTE_1_UART_MOTE_PM.c ****         }
 187:.\Generated_Source\PSoC5/NEOMOTE_1_UART_MOTE_PM.c ****         else
 188:.\Generated_Source\PSoC5/NEOMOTE_1_UART_MOTE_PM.c ****         {
 189:.\Generated_Source\PSoC5/NEOMOTE_1_UART_MOTE_PM.c ****             NEOMOTE_1_UART_MOTE_backup.enableState = 0u;
 190:.\Generated_Source\PSoC5/NEOMOTE_1_UART_MOTE_PM.c ****         }
 191:.\Generated_Source\PSoC5/NEOMOTE_1_UART_MOTE_PM.c ****     #endif /* End NEOMOTE_1_UART_MOTE_RX_ENABLED || NEOMOTE_1_UART_MOTE_HD_ENABLED*/
 192:.\Generated_Source\PSoC5/NEOMOTE_1_UART_MOTE_PM.c **** 
 193:.\Generated_Source\PSoC5/NEOMOTE_1_UART_MOTE_PM.c ****     NEOMOTE_1_UART_MOTE_Stop();
 123              		.loc 1 193 0
 124 0036 FFF7FEFF 		bl	NEOMOTE_1_UART_MOTE_Stop
 194:.\Generated_Source\PSoC5/NEOMOTE_1_UART_MOTE_PM.c ****     NEOMOTE_1_UART_MOTE_SaveConfig();
 125              		.loc 1 194 0
 126 003a FFF7FEFF 		bl	NEOMOTE_1_UART_MOTE_SaveConfig
 195:.\Generated_Source\PSoC5/NEOMOTE_1_UART_MOTE_PM.c **** }
 127              		.loc 1 195 0
 128 003e 80BD     		pop	{r7, pc}
 129              		.cfi_endproc
 130              	.LFE2:
 131              		.size	NEOMOTE_1_UART_MOTE_Sleep, .-NEOMOTE_1_UART_MOTE_Sleep
 132              		.section	.text.NEOMOTE_1_UART_MOTE_Wakeup,"ax",%progbits
 133              		.align	2
 134              		.global	NEOMOTE_1_UART_MOTE_Wakeup
 135              		.thumb
 136              		.thumb_func
 137              		.type	NEOMOTE_1_UART_MOTE_Wakeup, %function
 138              	NEOMOTE_1_UART_MOTE_Wakeup:
 139              	.LFB3:
 196:.\Generated_Source\PSoC5/NEOMOTE_1_UART_MOTE_PM.c **** 
 197:.\Generated_Source\PSoC5/NEOMOTE_1_UART_MOTE_PM.c **** 
 198:.\Generated_Source\PSoC5/NEOMOTE_1_UART_MOTE_PM.c **** /*******************************************************************************
 199:.\Generated_Source\PSoC5/NEOMOTE_1_UART_MOTE_PM.c **** * Function Name: NEOMOTE_1_UART_MOTE_Wakeup
ARM GAS  C:\Users\karunmj\AppData\Local\Temp\ccdWoMNb.s 			page 7


 200:.\Generated_Source\PSoC5/NEOMOTE_1_UART_MOTE_PM.c **** ********************************************************************************
 201:.\Generated_Source\PSoC5/NEOMOTE_1_UART_MOTE_PM.c **** *
 202:.\Generated_Source\PSoC5/NEOMOTE_1_UART_MOTE_PM.c **** * Summary:
 203:.\Generated_Source\PSoC5/NEOMOTE_1_UART_MOTE_PM.c **** *  Restores and enables the user configuration. Should be called
 204:.\Generated_Source\PSoC5/NEOMOTE_1_UART_MOTE_PM.c **** *  just after awaking from sleep.
 205:.\Generated_Source\PSoC5/NEOMOTE_1_UART_MOTE_PM.c **** *
 206:.\Generated_Source\PSoC5/NEOMOTE_1_UART_MOTE_PM.c **** * Parameters:
 207:.\Generated_Source\PSoC5/NEOMOTE_1_UART_MOTE_PM.c **** *  None.
 208:.\Generated_Source\PSoC5/NEOMOTE_1_UART_MOTE_PM.c **** *
 209:.\Generated_Source\PSoC5/NEOMOTE_1_UART_MOTE_PM.c **** * Return:
 210:.\Generated_Source\PSoC5/NEOMOTE_1_UART_MOTE_PM.c **** *  None.
 211:.\Generated_Source\PSoC5/NEOMOTE_1_UART_MOTE_PM.c **** *
 212:.\Generated_Source\PSoC5/NEOMOTE_1_UART_MOTE_PM.c **** * Global Variables:
 213:.\Generated_Source\PSoC5/NEOMOTE_1_UART_MOTE_PM.c **** *  NEOMOTE_1_UART_MOTE_backup - used when non-retention registers are restored.
 214:.\Generated_Source\PSoC5/NEOMOTE_1_UART_MOTE_PM.c **** *
 215:.\Generated_Source\PSoC5/NEOMOTE_1_UART_MOTE_PM.c **** * Reentrant:
 216:.\Generated_Source\PSoC5/NEOMOTE_1_UART_MOTE_PM.c **** *  No.
 217:.\Generated_Source\PSoC5/NEOMOTE_1_UART_MOTE_PM.c **** *
 218:.\Generated_Source\PSoC5/NEOMOTE_1_UART_MOTE_PM.c **** *******************************************************************************/
 219:.\Generated_Source\PSoC5/NEOMOTE_1_UART_MOTE_PM.c **** void NEOMOTE_1_UART_MOTE_Wakeup(void)
 220:.\Generated_Source\PSoC5/NEOMOTE_1_UART_MOTE_PM.c **** {
 140              		.loc 1 220 0
 141              		.cfi_startproc
 142              		@ args = 0, pretend = 0, frame = 0
 143              		@ frame_needed = 1, uses_anonymous_args = 0
 144 0000 80B5     		push	{r7, lr}
 145              	.LCFI6:
 146              		.cfi_def_cfa_offset 8
 147 0002 00AF     		add	r7, sp, #0
 148              		.cfi_offset 14, -4
 149              		.cfi_offset 7, -8
 150              	.LCFI7:
 151              		.cfi_def_cfa_register 7
 221:.\Generated_Source\PSoC5/NEOMOTE_1_UART_MOTE_PM.c ****     NEOMOTE_1_UART_MOTE_RestoreConfig();
 152              		.loc 1 221 0
 153 0004 FFF7FEFF 		bl	NEOMOTE_1_UART_MOTE_RestoreConfig
 222:.\Generated_Source\PSoC5/NEOMOTE_1_UART_MOTE_PM.c ****     #if( (NEOMOTE_1_UART_MOTE_RX_ENABLED) || (NEOMOTE_1_UART_MOTE_HD_ENABLED) )
 223:.\Generated_Source\PSoC5/NEOMOTE_1_UART_MOTE_PM.c ****         NEOMOTE_1_UART_MOTE_ClearRxBuffer();
 154              		.loc 1 223 0
 155 0008 FFF7FEFF 		bl	NEOMOTE_1_UART_MOTE_ClearRxBuffer
 224:.\Generated_Source\PSoC5/NEOMOTE_1_UART_MOTE_PM.c ****     #endif /* End (NEOMOTE_1_UART_MOTE_RX_ENABLED) || (NEOMOTE_1_UART_MOTE_HD_ENABLED) */
 225:.\Generated_Source\PSoC5/NEOMOTE_1_UART_MOTE_PM.c ****     #if(NEOMOTE_1_UART_MOTE_TX_ENABLED || NEOMOTE_1_UART_MOTE_HD_ENABLED)
 226:.\Generated_Source\PSoC5/NEOMOTE_1_UART_MOTE_PM.c ****         NEOMOTE_1_UART_MOTE_ClearTxBuffer();
 156              		.loc 1 226 0
 157 000c FFF7FEFF 		bl	NEOMOTE_1_UART_MOTE_ClearTxBuffer
 227:.\Generated_Source\PSoC5/NEOMOTE_1_UART_MOTE_PM.c ****     #endif /* End NEOMOTE_1_UART_MOTE_TX_ENABLED || NEOMOTE_1_UART_MOTE_HD_ENABLED */
 228:.\Generated_Source\PSoC5/NEOMOTE_1_UART_MOTE_PM.c **** 
 229:.\Generated_Source\PSoC5/NEOMOTE_1_UART_MOTE_PM.c ****     if(NEOMOTE_1_UART_MOTE_backup.enableState != 0u)
 158              		.loc 1 229 0
 159 0010 40F20003 		movw	r3, #:lower16:NEOMOTE_1_UART_MOTE_backup
 160 0014 C0F20003 		movt	r3, #:upper16:NEOMOTE_1_UART_MOTE_backup
 161 0018 1B78     		ldrb	r3, [r3, #0]	@ zero_extendqisi2
 162 001a 002B     		cmp	r3, #0
 163 001c 01D0     		beq	.L11
 230:.\Generated_Source\PSoC5/NEOMOTE_1_UART_MOTE_PM.c ****     {
 231:.\Generated_Source\PSoC5/NEOMOTE_1_UART_MOTE_PM.c ****         NEOMOTE_1_UART_MOTE_Enable();
 164              		.loc 1 231 0
ARM GAS  C:\Users\karunmj\AppData\Local\Temp\ccdWoMNb.s 			page 8


 165 001e FFF7FEFF 		bl	NEOMOTE_1_UART_MOTE_Enable
 166              	.L11:
 232:.\Generated_Source\PSoC5/NEOMOTE_1_UART_MOTE_PM.c ****     }
 233:.\Generated_Source\PSoC5/NEOMOTE_1_UART_MOTE_PM.c **** }
 167              		.loc 1 233 0
 168 0022 80BD     		pop	{r7, pc}
 169              		.cfi_endproc
 170              	.LFE3:
 171              		.size	NEOMOTE_1_UART_MOTE_Wakeup, .-NEOMOTE_1_UART_MOTE_Wakeup
 172              		.text
 173              	.Letext0: