ARM GAS  C:\Users\karunmj\AppData\Local\Temp\ccrpJ305.s 			page 1


   1              		.syntax unified
   2              		.cpu cortex-m3
   3              		.fpu softvfp
   4              		.eabi_attribute 20, 1
   5              		.eabi_attribute 21, 1
   6              		.eabi_attribute 23, 3
   7              		.eabi_attribute 24, 1
   8              		.eabi_attribute 25, 1
   9              		.eabi_attribute 26, 1
  10              		.eabi_attribute 30, 6
  11              		.eabi_attribute 18, 4
  12              		.thumb
  13              		.file	"NEOMOTE_1_RTC_Int2.c"
  20 0000 B9000000 		.text
  20      02006B00 
  20      00000201 
  20      FB0E0D00 
  20      01010101 
  21              	.Ltext0:
  22              		.cfi_sections	.debug_frame
  23              		.section	.text.NEOMOTE_1_RTC_Int2_Write,"ax",%progbits
  24              		.align	2
  25              		.global	NEOMOTE_1_RTC_Int2_Write
  26              		.thumb
  27              		.thumb_func
  28              		.type	NEOMOTE_1_RTC_Int2_Write, %function
  29              	NEOMOTE_1_RTC_Int2_Write:
  30              	.LFB0:
  31              		.file 1 ".\\Generated_Source\\PSoC5\\NEOMOTE_1_RTC_Int2.c"
   1:.\Generated_Source\PSoC5/NEOMOTE_1_RTC_Int2.c **** /*******************************************************************************
   2:.\Generated_Source\PSoC5/NEOMOTE_1_RTC_Int2.c **** * File Name: NEOMOTE_1_RTC_Int2.c  
   3:.\Generated_Source\PSoC5/NEOMOTE_1_RTC_Int2.c **** * Version 1.90
   4:.\Generated_Source\PSoC5/NEOMOTE_1_RTC_Int2.c **** *
   5:.\Generated_Source\PSoC5/NEOMOTE_1_RTC_Int2.c **** * Description:
   6:.\Generated_Source\PSoC5/NEOMOTE_1_RTC_Int2.c **** *  This file contains API to enable firmware control of a Pins component.
   7:.\Generated_Source\PSoC5/NEOMOTE_1_RTC_Int2.c **** *
   8:.\Generated_Source\PSoC5/NEOMOTE_1_RTC_Int2.c **** * Note:
   9:.\Generated_Source\PSoC5/NEOMOTE_1_RTC_Int2.c **** *
  10:.\Generated_Source\PSoC5/NEOMOTE_1_RTC_Int2.c **** ********************************************************************************
  11:.\Generated_Source\PSoC5/NEOMOTE_1_RTC_Int2.c **** * Copyright 2008-2012, Cypress Semiconductor Corporation.  All rights reserved.
  12:.\Generated_Source\PSoC5/NEOMOTE_1_RTC_Int2.c **** * You may use this file only in accordance with the license, terms, conditions, 
  13:.\Generated_Source\PSoC5/NEOMOTE_1_RTC_Int2.c **** * disclaimers, and limitations in the end user license agreement accompanying 
  14:.\Generated_Source\PSoC5/NEOMOTE_1_RTC_Int2.c **** * the software package with which this file was provided.
  15:.\Generated_Source\PSoC5/NEOMOTE_1_RTC_Int2.c **** *******************************************************************************/
  16:.\Generated_Source\PSoC5/NEOMOTE_1_RTC_Int2.c **** 
  17:.\Generated_Source\PSoC5/NEOMOTE_1_RTC_Int2.c **** #include "cytypes.h"
  18:.\Generated_Source\PSoC5/NEOMOTE_1_RTC_Int2.c **** #include "NEOMOTE_1_RTC_Int2.h"
  19:.\Generated_Source\PSoC5/NEOMOTE_1_RTC_Int2.c **** 
  20:.\Generated_Source\PSoC5/NEOMOTE_1_RTC_Int2.c **** /* APIs are not generated for P15[7:6] on PSoC 5 */
  21:.\Generated_Source\PSoC5/NEOMOTE_1_RTC_Int2.c **** #if !(CY_PSOC5A &&\
  22:.\Generated_Source\PSoC5/NEOMOTE_1_RTC_Int2.c **** 	 NEOMOTE_1_RTC_Int2__PORT == 15 && ((NEOMOTE_1_RTC_Int2__MASK & 0xC0) != 0))
ARM GAS  C:\Users\karunmj\AppData\Local\Temp\ccrpJ305.s 			page 2


  23:.\Generated_Source\PSoC5/NEOMOTE_1_RTC_Int2.c **** 
  24:.\Generated_Source\PSoC5/NEOMOTE_1_RTC_Int2.c **** 
  25:.\Generated_Source\PSoC5/NEOMOTE_1_RTC_Int2.c **** /*******************************************************************************
  26:.\Generated_Source\PSoC5/NEOMOTE_1_RTC_Int2.c **** * Function Name: NEOMOTE_1_RTC_Int2_Write
  27:.\Generated_Source\PSoC5/NEOMOTE_1_RTC_Int2.c **** ********************************************************************************
  28:.\Generated_Source\PSoC5/NEOMOTE_1_RTC_Int2.c **** *
  29:.\Generated_Source\PSoC5/NEOMOTE_1_RTC_Int2.c **** * Summary:
  30:.\Generated_Source\PSoC5/NEOMOTE_1_RTC_Int2.c **** *  Assign a new value to the digital port's data output register.  
  31:.\Generated_Source\PSoC5/NEOMOTE_1_RTC_Int2.c **** *
  32:.\Generated_Source\PSoC5/NEOMOTE_1_RTC_Int2.c **** * Parameters:  
  33:.\Generated_Source\PSoC5/NEOMOTE_1_RTC_Int2.c **** *  prtValue:  The value to be assigned to the Digital Port. 
  34:.\Generated_Source\PSoC5/NEOMOTE_1_RTC_Int2.c **** *
  35:.\Generated_Source\PSoC5/NEOMOTE_1_RTC_Int2.c **** * Return: 
  36:.\Generated_Source\PSoC5/NEOMOTE_1_RTC_Int2.c **** *  None
  37:.\Generated_Source\PSoC5/NEOMOTE_1_RTC_Int2.c **** *  
  38:.\Generated_Source\PSoC5/NEOMOTE_1_RTC_Int2.c **** *******************************************************************************/
  39:.\Generated_Source\PSoC5/NEOMOTE_1_RTC_Int2.c **** void NEOMOTE_1_RTC_Int2_Write(uint8 value) 
  40:.\Generated_Source\PSoC5/NEOMOTE_1_RTC_Int2.c **** {
  32              		.loc 1 40 0
  33              		.cfi_startproc
  34              		@ args = 0, pretend = 0, frame = 16
  35              		@ frame_needed = 1, uses_anonymous_args = 0
  36              		@ link register save eliminated.
  37 0000 80B4     		push	{r7}
  38              	.LCFI0:
  39              		.cfi_def_cfa_offset 4
  40 0002 85B0     		sub	sp, sp, #20
  41              	.LCFI1:
  42              		.cfi_def_cfa_offset 24
  43 0004 00AF     		add	r7, sp, #0
  44              		.cfi_offset 7, -4
  45              	.LCFI2:
  46              		.cfi_def_cfa_register 7
  47 0006 0346     		mov	r3, r0
  48 0008 FB71     		strb	r3, [r7, #7]
  41:.\Generated_Source\PSoC5/NEOMOTE_1_RTC_Int2.c ****     uint8 staticBits = (NEOMOTE_1_RTC_Int2_DR & (uint8)(~NEOMOTE_1_RTC_Int2_MASK));
  49              		.loc 1 41 0
  50 000a 45F21013 		movw	r3, #:lower16:1073762576
  51 000e C4F20003 		movt	r3, #:upper16:1073762576
  52 0012 1B78     		ldrb	r3, [r3, #0]
  53 0014 DBB2     		uxtb	r3, r3
  54 0016 03F07F03 		and	r3, r3, #127
  55 001a FB73     		strb	r3, [r7, #15]
  42:.\Generated_Source\PSoC5/NEOMOTE_1_RTC_Int2.c ****     NEOMOTE_1_RTC_Int2_DR = staticBits | ((uint8)(value << NEOMOTE_1_RTC_Int2_SHIFT) & NEOMOTE_1_RT
  56              		.loc 1 42 0
  57 001c 45F21013 		movw	r3, #:lower16:1073762576
  58 0020 C4F20003 		movt	r3, #:upper16:1073762576
  59 0024 FA79     		ldrb	r2, [r7, #7]
  60 0026 4FEAC212 		lsl	r2, r2, #7
  61 002a D1B2     		uxtb	r1, r2
  62 002c FA7B     		ldrb	r2, [r7, #15]
  63 002e 41EA0202 		orr	r2, r1, r2
  64 0032 D2B2     		uxtb	r2, r2
  65 0034 1A70     		strb	r2, [r3, #0]
  43:.\Generated_Source\PSoC5/NEOMOTE_1_RTC_Int2.c **** }
  66              		.loc 1 43 0
  67 0036 07F11407 		add	r7, r7, #20
ARM GAS  C:\Users\karunmj\AppData\Local\Temp\ccrpJ305.s 			page 3


  68 003a BD46     		mov	sp, r7
  69 003c 80BC     		pop	{r7}
  70 003e 7047     		bx	lr
  71              		.cfi_endproc
  72              	.LFE0:
  73              		.size	NEOMOTE_1_RTC_Int2_Write, .-NEOMOTE_1_RTC_Int2_Write
  74              		.section	.text.NEOMOTE_1_RTC_Int2_SetDriveMode,"ax",%progbits
  75              		.align	2
  76              		.global	NEOMOTE_1_RTC_Int2_SetDriveMode
  77              		.thumb
  78              		.thumb_func
  79              		.type	NEOMOTE_1_RTC_Int2_SetDriveMode, %function
  80              	NEOMOTE_1_RTC_Int2_SetDriveMode:
  81              	.LFB1:
  44:.\Generated_Source\PSoC5/NEOMOTE_1_RTC_Int2.c **** 
  45:.\Generated_Source\PSoC5/NEOMOTE_1_RTC_Int2.c **** 
  46:.\Generated_Source\PSoC5/NEOMOTE_1_RTC_Int2.c **** /*******************************************************************************
  47:.\Generated_Source\PSoC5/NEOMOTE_1_RTC_Int2.c **** * Function Name: NEOMOTE_1_RTC_Int2_SetDriveMode
  48:.\Generated_Source\PSoC5/NEOMOTE_1_RTC_Int2.c **** ********************************************************************************
  49:.\Generated_Source\PSoC5/NEOMOTE_1_RTC_Int2.c **** *
  50:.\Generated_Source\PSoC5/NEOMOTE_1_RTC_Int2.c **** * Summary:
  51:.\Generated_Source\PSoC5/NEOMOTE_1_RTC_Int2.c **** *  Change the drive mode on the pins of the port.
  52:.\Generated_Source\PSoC5/NEOMOTE_1_RTC_Int2.c **** * 
  53:.\Generated_Source\PSoC5/NEOMOTE_1_RTC_Int2.c **** * Parameters:  
  54:.\Generated_Source\PSoC5/NEOMOTE_1_RTC_Int2.c **** *  mode:  Change the pins to this drive mode.
  55:.\Generated_Source\PSoC5/NEOMOTE_1_RTC_Int2.c **** *
  56:.\Generated_Source\PSoC5/NEOMOTE_1_RTC_Int2.c **** * Return: 
  57:.\Generated_Source\PSoC5/NEOMOTE_1_RTC_Int2.c **** *  None
  58:.\Generated_Source\PSoC5/NEOMOTE_1_RTC_Int2.c **** *
  59:.\Generated_Source\PSoC5/NEOMOTE_1_RTC_Int2.c **** *******************************************************************************/
  60:.\Generated_Source\PSoC5/NEOMOTE_1_RTC_Int2.c **** void NEOMOTE_1_RTC_Int2_SetDriveMode(uint8 mode) 
  61:.\Generated_Source\PSoC5/NEOMOTE_1_RTC_Int2.c **** {
  82              		.loc 1 61 0
  83              		.cfi_startproc
  84              		@ args = 0, pretend = 0, frame = 8
  85              		@ frame_needed = 1, uses_anonymous_args = 0
  86              		@ link register save eliminated.
  87 0000 80B4     		push	{r7}
  88              	.LCFI3:
  89              		.cfi_def_cfa_offset 4
  90 0002 83B0     		sub	sp, sp, #12
  91              	.LCFI4:
  92              		.cfi_def_cfa_offset 16
  93 0004 00AF     		add	r7, sp, #0
  94              		.cfi_offset 7, -4
  95              	.LCFI5:
  96              		.cfi_def_cfa_register 7
  97 0006 0346     		mov	r3, r0
  98 0008 FB71     		strb	r3, [r7, #7]
  62:.\Generated_Source\PSoC5/NEOMOTE_1_RTC_Int2.c **** 	CyPins_SetPinDriveMode(NEOMOTE_1_RTC_Int2_0, mode);
  99              		.loc 1 62 0
 100 000a 45F20F03 		movw	r3, #:lower16:1073762319
 101 000e C4F20003 		movt	r3, #:upper16:1073762319
 102 0012 45F20F02 		movw	r2, #:lower16:1073762319
 103 0016 C4F20002 		movt	r2, #:upper16:1073762319
 104 001a 1278     		ldrb	r2, [r2, #0]
 105 001c D2B2     		uxtb	r2, r2
ARM GAS  C:\Users\karunmj\AppData\Local\Temp\ccrpJ305.s 			page 4


 106 001e D1B2     		uxtb	r1, r2
 107 0020 01F0F101 		and	r1, r1, #241
 108 0024 FA79     		ldrb	r2, [r7, #7]	@ zero_extendqisi2
 109 0026 D2B2     		uxtb	r2, r2
 110 0028 02F00E02 		and	r2, r2, #14
 111 002c 41EA0202 		orr	r2, r1, r2
 112 0030 D2B2     		uxtb	r2, r2
 113 0032 D2B2     		uxtb	r2, r2
 114 0034 1A70     		strb	r2, [r3, #0]
  63:.\Generated_Source\PSoC5/NEOMOTE_1_RTC_Int2.c **** }
 115              		.loc 1 63 0
 116 0036 07F10C07 		add	r7, r7, #12
 117 003a BD46     		mov	sp, r7
 118 003c 80BC     		pop	{r7}
 119 003e 7047     		bx	lr
 120              		.cfi_endproc
 121              	.LFE1:
 122              		.size	NEOMOTE_1_RTC_Int2_SetDriveMode, .-NEOMOTE_1_RTC_Int2_SetDriveMode
 123              		.section	.text.NEOMOTE_1_RTC_Int2_Read,"ax",%progbits
 124              		.align	2
 125              		.global	NEOMOTE_1_RTC_Int2_Read
 126              		.thumb
 127              		.thumb_func
 128              		.type	NEOMOTE_1_RTC_Int2_Read, %function
 129              	NEOMOTE_1_RTC_Int2_Read:
 130              	.LFB2:
  64:.\Generated_Source\PSoC5/NEOMOTE_1_RTC_Int2.c **** 
  65:.\Generated_Source\PSoC5/NEOMOTE_1_RTC_Int2.c **** 
  66:.\Generated_Source\PSoC5/NEOMOTE_1_RTC_Int2.c **** /*******************************************************************************
  67:.\Generated_Source\PSoC5/NEOMOTE_1_RTC_Int2.c **** * Function Name: NEOMOTE_1_RTC_Int2_Read
  68:.\Generated_Source\PSoC5/NEOMOTE_1_RTC_Int2.c **** ********************************************************************************
  69:.\Generated_Source\PSoC5/NEOMOTE_1_RTC_Int2.c **** *
  70:.\Generated_Source\PSoC5/NEOMOTE_1_RTC_Int2.c **** * Summary:
  71:.\Generated_Source\PSoC5/NEOMOTE_1_RTC_Int2.c **** *  Read the current value on the pins of the Digital Port in right justified 
  72:.\Generated_Source\PSoC5/NEOMOTE_1_RTC_Int2.c **** *  form.
  73:.\Generated_Source\PSoC5/NEOMOTE_1_RTC_Int2.c **** *
  74:.\Generated_Source\PSoC5/NEOMOTE_1_RTC_Int2.c **** * Parameters:  
  75:.\Generated_Source\PSoC5/NEOMOTE_1_RTC_Int2.c **** *  None
  76:.\Generated_Source\PSoC5/NEOMOTE_1_RTC_Int2.c **** *
  77:.\Generated_Source\PSoC5/NEOMOTE_1_RTC_Int2.c **** * Return: 
  78:.\Generated_Source\PSoC5/NEOMOTE_1_RTC_Int2.c **** *  Returns the current value of the Digital Port as a right justified number
  79:.\Generated_Source\PSoC5/NEOMOTE_1_RTC_Int2.c **** *  
  80:.\Generated_Source\PSoC5/NEOMOTE_1_RTC_Int2.c **** * Note:
  81:.\Generated_Source\PSoC5/NEOMOTE_1_RTC_Int2.c **** *  Macro NEOMOTE_1_RTC_Int2_ReadPS calls this function. 
  82:.\Generated_Source\PSoC5/NEOMOTE_1_RTC_Int2.c **** *  
  83:.\Generated_Source\PSoC5/NEOMOTE_1_RTC_Int2.c **** *******************************************************************************/
  84:.\Generated_Source\PSoC5/NEOMOTE_1_RTC_Int2.c **** uint8 NEOMOTE_1_RTC_Int2_Read(void) 
  85:.\Generated_Source\PSoC5/NEOMOTE_1_RTC_Int2.c **** {
 131              		.loc 1 85 0
 132              		.cfi_startproc
 133              		@ args = 0, pretend = 0, frame = 0
 134              		@ frame_needed = 1, uses_anonymous_args = 0
 135              		@ link register save eliminated.
 136 0000 80B4     		push	{r7}
 137              	.LCFI6:
 138              		.cfi_def_cfa_offset 4
 139 0002 00AF     		add	r7, sp, #0
ARM GAS  C:\Users\karunmj\AppData\Local\Temp\ccrpJ305.s 			page 5


 140              		.cfi_offset 7, -4
 141              	.LCFI7:
 142              		.cfi_def_cfa_register 7
  86:.\Generated_Source\PSoC5/NEOMOTE_1_RTC_Int2.c ****     return (NEOMOTE_1_RTC_Int2_PS & NEOMOTE_1_RTC_Int2_MASK) >> NEOMOTE_1_RTC_Int2_SHIFT;
 143              		.loc 1 86 0
 144 0004 45F21113 		movw	r3, #:lower16:1073762577
 145 0008 C4F20003 		movt	r3, #:upper16:1073762577
 146 000c 1B78     		ldrb	r3, [r3, #0]
 147 000e DBB2     		uxtb	r3, r3
 148 0010 4FEAD313 		lsr	r3, r3, #7
 149 0014 DBB2     		uxtb	r3, r3
  87:.\Generated_Source\PSoC5/NEOMOTE_1_RTC_Int2.c **** }
 150              		.loc 1 87 0
 151 0016 1846     		mov	r0, r3
 152 0018 BD46     		mov	sp, r7
 153 001a 80BC     		pop	{r7}
 154 001c 7047     		bx	lr
 155              		.cfi_endproc
 156              	.LFE2:
 157              		.size	NEOMOTE_1_RTC_Int2_Read, .-NEOMOTE_1_RTC_Int2_Read
 158 001e 00BF     		.section	.text.NEOMOTE_1_RTC_Int2_ReadDataReg,"ax",%progbits
 159              		.align	2
 160              		.global	NEOMOTE_1_RTC_Int2_ReadDataReg
 161              		.thumb
 162              		.thumb_func
 163              		.type	NEOMOTE_1_RTC_Int2_ReadDataReg, %function
 164              	NEOMOTE_1_RTC_Int2_ReadDataReg:
 165              	.LFB3:
  88:.\Generated_Source\PSoC5/NEOMOTE_1_RTC_Int2.c **** 
  89:.\Generated_Source\PSoC5/NEOMOTE_1_RTC_Int2.c **** 
  90:.\Generated_Source\PSoC5/NEOMOTE_1_RTC_Int2.c **** /*******************************************************************************
  91:.\Generated_Source\PSoC5/NEOMOTE_1_RTC_Int2.c **** * Function Name: NEOMOTE_1_RTC_Int2_ReadDataReg
  92:.\Generated_Source\PSoC5/NEOMOTE_1_RTC_Int2.c **** ********************************************************************************
  93:.\Generated_Source\PSoC5/NEOMOTE_1_RTC_Int2.c **** *
  94:.\Generated_Source\PSoC5/NEOMOTE_1_RTC_Int2.c **** * Summary:
  95:.\Generated_Source\PSoC5/NEOMOTE_1_RTC_Int2.c **** *  Read the current value assigned to a Digital Port's data output register
  96:.\Generated_Source\PSoC5/NEOMOTE_1_RTC_Int2.c **** *
  97:.\Generated_Source\PSoC5/NEOMOTE_1_RTC_Int2.c **** * Parameters:  
  98:.\Generated_Source\PSoC5/NEOMOTE_1_RTC_Int2.c **** *  None 
  99:.\Generated_Source\PSoC5/NEOMOTE_1_RTC_Int2.c **** *
 100:.\Generated_Source\PSoC5/NEOMOTE_1_RTC_Int2.c **** * Return: 
 101:.\Generated_Source\PSoC5/NEOMOTE_1_RTC_Int2.c **** *  Returns the current value assigned to the Digital Port's data output register
 102:.\Generated_Source\PSoC5/NEOMOTE_1_RTC_Int2.c **** *  
 103:.\Generated_Source\PSoC5/NEOMOTE_1_RTC_Int2.c **** *******************************************************************************/
 104:.\Generated_Source\PSoC5/NEOMOTE_1_RTC_Int2.c **** uint8 NEOMOTE_1_RTC_Int2_ReadDataReg(void) 
 105:.\Generated_Source\PSoC5/NEOMOTE_1_RTC_Int2.c **** {
 166              		.loc 1 105 0
 167              		.cfi_startproc
 168              		@ args = 0, pretend = 0, frame = 0
 169              		@ frame_needed = 1, uses_anonymous_args = 0
 170              		@ link register save eliminated.
 171 0000 80B4     		push	{r7}
 172              	.LCFI8:
 173              		.cfi_def_cfa_offset 4
 174 0002 00AF     		add	r7, sp, #0
 175              		.cfi_offset 7, -4
 176              	.LCFI9:
ARM GAS  C:\Users\karunmj\AppData\Local\Temp\ccrpJ305.s 			page 6


 177              		.cfi_def_cfa_register 7
 106:.\Generated_Source\PSoC5/NEOMOTE_1_RTC_Int2.c ****     return (NEOMOTE_1_RTC_Int2_DR & NEOMOTE_1_RTC_Int2_MASK) >> NEOMOTE_1_RTC_Int2_SHIFT;
 178              		.loc 1 106 0
 179 0004 45F21013 		movw	r3, #:lower16:1073762576
 180 0008 C4F20003 		movt	r3, #:upper16:1073762576
 181 000c 1B78     		ldrb	r3, [r3, #0]
 182 000e DBB2     		uxtb	r3, r3
 183 0010 4FEAD313 		lsr	r3, r3, #7
 184 0014 DBB2     		uxtb	r3, r3
 107:.\Generated_Source\PSoC5/NEOMOTE_1_RTC_Int2.c **** }
 185              		.loc 1 107 0
 186 0016 1846     		mov	r0, r3
 187 0018 BD46     		mov	sp, r7
 188 001a 80BC     		pop	{r7}
 189 001c 7047     		bx	lr
 190              		.cfi_endproc
 191              	.LFE3:
 192              		.size	NEOMOTE_1_RTC_Int2_ReadDataReg, .-NEOMOTE_1_RTC_Int2_ReadDataReg
 193 001e 00BF     		.text
 194              	.Letext0: