ARM GAS  C:\Users\karunmj\AppData\Local\Temp\ccwPGOm2.s 			page 1


   1              		.syntax unified
   2              		.cpu cortex-m3
   3              		.fpu softvfp
   4              		.eabi_attribute 20, 1
   5              		.eabi_attribute 21, 1
   6              		.eabi_attribute 23, 3
   7              		.eabi_attribute 24, 1
   8              		.eabi_attribute 25, 1
   9              		.eabi_attribute 26, 1
  10              		.eabi_attribute 30, 6
  11              		.eabi_attribute 18, 4
  12              		.thumb
  13              		.file	"NEOMOTE_1_I2C_0_MASTER.c"
  20 0000 FE010000 		.text
  20      02008800 
  20      00000201 
  20      FB0E0D00 
  20      01010101 
  21              	.Ltext0:
  22              		.cfi_sections	.debug_frame
  23              		.comm	NEOMOTE_1_I2C_0_mstrStatus,1,1
  24              		.comm	NEOMOTE_1_I2C_0_mstrControl,1,1
  25              		.comm	NEOMOTE_1_I2C_0_mstrRdBufPtr,4,4
  26              		.comm	NEOMOTE_1_I2C_0_mstrRdBufSize,1,1
  27              		.comm	NEOMOTE_1_I2C_0_mstrRdBufIndex,1,1
  28              		.comm	NEOMOTE_1_I2C_0_mstrWrBufPtr,4,4
  29              		.comm	NEOMOTE_1_I2C_0_mstrWrBufSize,1,1
  30              		.comm	NEOMOTE_1_I2C_0_mstrWrBufIndex,1,1
  31              		.section	.text.NEOMOTE_1_I2C_0_MasterWriteBuf,"ax",%progbits
  32              		.align	2
  33              		.global	NEOMOTE_1_I2C_0_MasterWriteBuf
  34              		.thumb
  35              		.thumb_func
  36              		.type	NEOMOTE_1_I2C_0_MasterWriteBuf, %function
  37              	NEOMOTE_1_I2C_0_MasterWriteBuf:
  38              	.LFB0:
  39              		.file 1 ".\\Generated_Source\\PSoC5\\NEOMOTE_1_I2C_0_MASTER.c"
   1:.\Generated_Source\PSoC5/NEOMOTE_1_I2C_0_MASTER.c **** /*******************************************************************************
   2:.\Generated_Source\PSoC5/NEOMOTE_1_I2C_0_MASTER.c **** * File Name: NEOMOTE_1_I2C_0_MASTER.c
   3:.\Generated_Source\PSoC5/NEOMOTE_1_I2C_0_MASTER.c **** * Version 3.30
   4:.\Generated_Source\PSoC5/NEOMOTE_1_I2C_0_MASTER.c **** *
   5:.\Generated_Source\PSoC5/NEOMOTE_1_I2C_0_MASTER.c **** * Description:
   6:.\Generated_Source\PSoC5/NEOMOTE_1_I2C_0_MASTER.c **** *  This file provides the source code of APIs for the I2C component Master mode.
   7:.\Generated_Source\PSoC5/NEOMOTE_1_I2C_0_MASTER.c **** *
   8:.\Generated_Source\PSoC5/NEOMOTE_1_I2C_0_MASTER.c **** * Note:
   9:.\Generated_Source\PSoC5/NEOMOTE_1_I2C_0_MASTER.c **** *
  10:.\Generated_Source\PSoC5/NEOMOTE_1_I2C_0_MASTER.c **** *******************************************************************************
  11:.\Generated_Source\PSoC5/NEOMOTE_1_I2C_0_MASTER.c **** * Copyright 2012, Cypress Semiconductor Corporation.  All rights reserved.
  12:.\Generated_Source\PSoC5/NEOMOTE_1_I2C_0_MASTER.c **** * You may use this file only in accordance with the license, terms, conditions,
  13:.\Generated_Source\PSoC5/NEOMOTE_1_I2C_0_MASTER.c **** * disclaimers, and limitations in the end user license agreement accompanying
  14:.\Generated_Source\PSoC5/NEOMOTE_1_I2C_0_MASTER.c **** * the software package with which this file was provided.
ARM GAS  C:\Users\karunmj\AppData\Local\Temp\ccwPGOm2.s 			page 2


  15:.\Generated_Source\PSoC5/NEOMOTE_1_I2C_0_MASTER.c **** *******************************************************************************/
  16:.\Generated_Source\PSoC5/NEOMOTE_1_I2C_0_MASTER.c **** 
  17:.\Generated_Source\PSoC5/NEOMOTE_1_I2C_0_MASTER.c **** #include "NEOMOTE_1_I2C_0_PVT.h"
  18:.\Generated_Source\PSoC5/NEOMOTE_1_I2C_0_MASTER.c **** 
  19:.\Generated_Source\PSoC5/NEOMOTE_1_I2C_0_MASTER.c **** #if(NEOMOTE_1_I2C_0_MODE_MASTER_ENABLED)
  20:.\Generated_Source\PSoC5/NEOMOTE_1_I2C_0_MASTER.c **** 
  21:.\Generated_Source\PSoC5/NEOMOTE_1_I2C_0_MASTER.c **** /**********************************
  22:.\Generated_Source\PSoC5/NEOMOTE_1_I2C_0_MASTER.c **** *      System variables
  23:.\Generated_Source\PSoC5/NEOMOTE_1_I2C_0_MASTER.c **** **********************************/
  24:.\Generated_Source\PSoC5/NEOMOTE_1_I2C_0_MASTER.c **** 
  25:.\Generated_Source\PSoC5/NEOMOTE_1_I2C_0_MASTER.c **** volatile uint8 NEOMOTE_1_I2C_0_mstrStatus;     /* Master Status byte  */
  26:.\Generated_Source\PSoC5/NEOMOTE_1_I2C_0_MASTER.c **** volatile uint8 NEOMOTE_1_I2C_0_mstrControl;    /* Master Control byte */
  27:.\Generated_Source\PSoC5/NEOMOTE_1_I2C_0_MASTER.c **** 
  28:.\Generated_Source\PSoC5/NEOMOTE_1_I2C_0_MASTER.c **** /* Transmit buffer variables */
  29:.\Generated_Source\PSoC5/NEOMOTE_1_I2C_0_MASTER.c **** volatile uint8 * NEOMOTE_1_I2C_0_mstrRdBufPtr;     /* Pointer to Master Read buffer */
  30:.\Generated_Source\PSoC5/NEOMOTE_1_I2C_0_MASTER.c **** volatile uint8   NEOMOTE_1_I2C_0_mstrRdBufSize;    /* Master Read buffer size       */
  31:.\Generated_Source\PSoC5/NEOMOTE_1_I2C_0_MASTER.c **** volatile uint8   NEOMOTE_1_I2C_0_mstrRdBufIndex;   /* Master Read buffer Index      */
  32:.\Generated_Source\PSoC5/NEOMOTE_1_I2C_0_MASTER.c **** 
  33:.\Generated_Source\PSoC5/NEOMOTE_1_I2C_0_MASTER.c **** /* Receive buffer variables */
  34:.\Generated_Source\PSoC5/NEOMOTE_1_I2C_0_MASTER.c **** volatile uint8 * NEOMOTE_1_I2C_0_mstrWrBufPtr;     /* Pointer to Master Write buffer */
  35:.\Generated_Source\PSoC5/NEOMOTE_1_I2C_0_MASTER.c **** volatile uint8   NEOMOTE_1_I2C_0_mstrWrBufSize;    /* Master Write buffer size       */
  36:.\Generated_Source\PSoC5/NEOMOTE_1_I2C_0_MASTER.c **** volatile uint8   NEOMOTE_1_I2C_0_mstrWrBufIndex;   /* Master Write buffer Index      */
  37:.\Generated_Source\PSoC5/NEOMOTE_1_I2C_0_MASTER.c **** 
  38:.\Generated_Source\PSoC5/NEOMOTE_1_I2C_0_MASTER.c **** 
  39:.\Generated_Source\PSoC5/NEOMOTE_1_I2C_0_MASTER.c **** /*******************************************************************************
  40:.\Generated_Source\PSoC5/NEOMOTE_1_I2C_0_MASTER.c **** * Function Name: NEOMOTE_1_I2C_0_MasterWriteBuf
  41:.\Generated_Source\PSoC5/NEOMOTE_1_I2C_0_MASTER.c **** ********************************************************************************
  42:.\Generated_Source\PSoC5/NEOMOTE_1_I2C_0_MASTER.c **** *
  43:.\Generated_Source\PSoC5/NEOMOTE_1_I2C_0_MASTER.c **** * Summary:
  44:.\Generated_Source\PSoC5/NEOMOTE_1_I2C_0_MASTER.c **** *  Automatically writes an entire buffer of data to a slave device. Once the
  45:.\Generated_Source\PSoC5/NEOMOTE_1_I2C_0_MASTER.c **** *  data transfer is initiated by this function, further data transfer is handled
  46:.\Generated_Source\PSoC5/NEOMOTE_1_I2C_0_MASTER.c **** *  by the included ISR in byte by byte mode.
  47:.\Generated_Source\PSoC5/NEOMOTE_1_I2C_0_MASTER.c **** *
  48:.\Generated_Source\PSoC5/NEOMOTE_1_I2C_0_MASTER.c **** * Parameters:
  49:.\Generated_Source\PSoC5/NEOMOTE_1_I2C_0_MASTER.c **** *  slaveAddr: 7-bit slave address.
  50:.\Generated_Source\PSoC5/NEOMOTE_1_I2C_0_MASTER.c **** *  xferData:  Pointer to buffer of data to be sent.
  51:.\Generated_Source\PSoC5/NEOMOTE_1_I2C_0_MASTER.c **** *  cnt:       Size of buffer to send.
  52:.\Generated_Source\PSoC5/NEOMOTE_1_I2C_0_MASTER.c **** *  mode:      Transfer mode defines: start or restart condition generation at
  53:.\Generated_Source\PSoC5/NEOMOTE_1_I2C_0_MASTER.c **** *             begin of the transfer and complete the transfer or halt before
  54:.\Generated_Source\PSoC5/NEOMOTE_1_I2C_0_MASTER.c **** *             generating a stop.
  55:.\Generated_Source\PSoC5/NEOMOTE_1_I2C_0_MASTER.c **** *
  56:.\Generated_Source\PSoC5/NEOMOTE_1_I2C_0_MASTER.c **** * Return:
  57:.\Generated_Source\PSoC5/NEOMOTE_1_I2C_0_MASTER.c **** *  Status error - zero means no errors.
  58:.\Generated_Source\PSoC5/NEOMOTE_1_I2C_0_MASTER.c **** *
  59:.\Generated_Source\PSoC5/NEOMOTE_1_I2C_0_MASTER.c **** * Side Effects:
  60:.\Generated_Source\PSoC5/NEOMOTE_1_I2C_0_MASTER.c **** *  The included ISR will start transfer after start or restart condition will
  61:.\Generated_Source\PSoC5/NEOMOTE_1_I2C_0_MASTER.c **** *  be generated.
  62:.\Generated_Source\PSoC5/NEOMOTE_1_I2C_0_MASTER.c **** *
  63:.\Generated_Source\PSoC5/NEOMOTE_1_I2C_0_MASTER.c **** * Global variables:
  64:.\Generated_Source\PSoC5/NEOMOTE_1_I2C_0_MASTER.c **** *  NEOMOTE_1_I2C_0_mstrStatus  - used to store current status of I2C Master.
  65:.\Generated_Source\PSoC5/NEOMOTE_1_I2C_0_MASTER.c **** *  NEOMOTE_1_I2C_0_state       - used to store current state of software FSM.
  66:.\Generated_Source\PSoC5/NEOMOTE_1_I2C_0_MASTER.c **** *  NEOMOTE_1_I2C_0_mstrControl - used to control master end of transaction with
  67:.\Generated_Source\PSoC5/NEOMOTE_1_I2C_0_MASTER.c **** *  or without the Stop generation.
  68:.\Generated_Source\PSoC5/NEOMOTE_1_I2C_0_MASTER.c **** *  NEOMOTE_1_I2C_0_mstrWrBufPtr - used to store pointer to master write buffer.
  69:.\Generated_Source\PSoC5/NEOMOTE_1_I2C_0_MASTER.c **** *  NEOMOTE_1_I2C_0_mstrWrBufIndex - used to current index within master write
  70:.\Generated_Source\PSoC5/NEOMOTE_1_I2C_0_MASTER.c **** *  buffer.
  71:.\Generated_Source\PSoC5/NEOMOTE_1_I2C_0_MASTER.c **** *  NEOMOTE_1_I2C_0_mstrWrBufSize - used to store master write buffer size.
ARM GAS  C:\Users\karunmj\AppData\Local\Temp\ccwPGOm2.s 			page 3


  72:.\Generated_Source\PSoC5/NEOMOTE_1_I2C_0_MASTER.c **** *
  73:.\Generated_Source\PSoC5/NEOMOTE_1_I2C_0_MASTER.c **** * Reentrant:
  74:.\Generated_Source\PSoC5/NEOMOTE_1_I2C_0_MASTER.c **** *  No
  75:.\Generated_Source\PSoC5/NEOMOTE_1_I2C_0_MASTER.c **** *
  76:.\Generated_Source\PSoC5/NEOMOTE_1_I2C_0_MASTER.c **** *******************************************************************************/
  77:.\Generated_Source\PSoC5/NEOMOTE_1_I2C_0_MASTER.c **** uint8 NEOMOTE_1_I2C_0_MasterWriteBuf(uint8 slaveAddress, uint8 * wrData, uint8 cnt, uint8 mode)
  78:.\Generated_Source\PSoC5/NEOMOTE_1_I2C_0_MASTER.c ****       
  79:.\Generated_Source\PSoC5/NEOMOTE_1_I2C_0_MASTER.c **** {
  40              		.loc 1 79 0
  41              		.cfi_startproc
  42              		@ args = 0, pretend = 0, frame = 24
  43              		@ frame_needed = 1, uses_anonymous_args = 0
  44              		@ link register save eliminated.
  45 0000 80B4     		push	{r7}
  46              	.LCFI0:
  47              		.cfi_def_cfa_offset 4
  48 0002 87B0     		sub	sp, sp, #28
  49              	.LCFI1:
  50              		.cfi_def_cfa_offset 32
  51 0004 00AF     		add	r7, sp, #0
  52              		.cfi_offset 7, -4
  53              	.LCFI2:
  54              		.cfi_def_cfa_register 7
  55 0006 B960     		str	r1, [r7, #8]
  56 0008 0146     		mov	r1, r0
  57 000a F973     		strb	r1, [r7, #15]
  58 000c FA71     		strb	r2, [r7, #7]
  59 000e BB71     		strb	r3, [r7, #6]
  80:.\Generated_Source\PSoC5/NEOMOTE_1_I2C_0_MASTER.c ****     uint8 errStatus;
  81:.\Generated_Source\PSoC5/NEOMOTE_1_I2C_0_MASTER.c **** 
  82:.\Generated_Source\PSoC5/NEOMOTE_1_I2C_0_MASTER.c ****     errStatus = NEOMOTE_1_I2C_0_MSTR_NOT_READY;
  60              		.loc 1 82 0
  61 0010 4FF00203 		mov	r3, #2
  62 0014 FB75     		strb	r3, [r7, #23]
  83:.\Generated_Source\PSoC5/NEOMOTE_1_I2C_0_MASTER.c **** 
  84:.\Generated_Source\PSoC5/NEOMOTE_1_I2C_0_MASTER.c ****     if(NULL != wrData)
  63              		.loc 1 84 0
  64 0016 BB68     		ldr	r3, [r7, #8]
  65 0018 002B     		cmp	r3, #0
  66 001a 00F09780 		beq	.L2
  85:.\Generated_Source\PSoC5/NEOMOTE_1_I2C_0_MASTER.c ****     {
  86:.\Generated_Source\PSoC5/NEOMOTE_1_I2C_0_MASTER.c ****         /* Check I2C state before transfer: valid are IDLE or HALT */
  87:.\Generated_Source\PSoC5/NEOMOTE_1_I2C_0_MASTER.c ****         if(NEOMOTE_1_I2C_0_SM_IDLE == NEOMOTE_1_I2C_0_state)
  67              		.loc 1 87 0
  68 001e 40F20003 		movw	r3, #:lower16:NEOMOTE_1_I2C_0_state
  69 0022 C0F20003 		movt	r3, #:upper16:NEOMOTE_1_I2C_0_state
  70 0026 1B78     		ldrb	r3, [r3, #0]
  71 0028 DBB2     		uxtb	r3, r3
  72 002a 102B     		cmp	r3, #16
  73 002c 11D1     		bne	.L3
  88:.\Generated_Source\PSoC5/NEOMOTE_1_I2C_0_MASTER.c ****         {
  89:.\Generated_Source\PSoC5/NEOMOTE_1_I2C_0_MASTER.c ****             /* Check if free: Master is ready to transaction */
  90:.\Generated_Source\PSoC5/NEOMOTE_1_I2C_0_MASTER.c ****             if(NEOMOTE_1_I2C_0_CHECK_BUS_FREE(NEOMOTE_1_I2C_0_MCSR_REG))
  74              		.loc 1 90 0
  75 002e 44F6D913 		movw	r3, #:lower16:1073760729
  76 0032 C4F20003 		movt	r3, #:upper16:1073760729
  77 0036 1B78     		ldrb	r3, [r3, #0]
ARM GAS  C:\Users\karunmj\AppData\Local\Temp\ccwPGOm2.s 			page 4


  78 0038 DBB2     		uxtb	r3, r3
  79 003a 03F00803 		and	r3, r3, #8
  80 003e 002B     		cmp	r3, #0
  81 0040 03D1     		bne	.L4
  91:.\Generated_Source\PSoC5/NEOMOTE_1_I2C_0_MASTER.c ****             {
  92:.\Generated_Source\PSoC5/NEOMOTE_1_I2C_0_MASTER.c ****                 errStatus = NEOMOTE_1_I2C_0_MSTR_NO_ERROR;
  82              		.loc 1 92 0
  83 0042 4FF00003 		mov	r3, #0
  84 0046 FB75     		strb	r3, [r7, #23]
  93:.\Generated_Source\PSoC5/NEOMOTE_1_I2C_0_MASTER.c ****             }
  94:.\Generated_Source\PSoC5/NEOMOTE_1_I2C_0_MASTER.c ****             else
  95:.\Generated_Source\PSoC5/NEOMOTE_1_I2C_0_MASTER.c ****             {
  96:.\Generated_Source\PSoC5/NEOMOTE_1_I2C_0_MASTER.c ****                 errStatus = NEOMOTE_1_I2C_0_MSTR_BUS_BUSY;
  85              		.loc 1 96 0
  86 0048 23E0     		b	.L6
  87              	.L4:
  88 004a 4FF00103 		mov	r3, #1
  89 004e FB75     		strb	r3, [r7, #23]
  90 0050 1FE0     		b	.L6
  91              	.L3:
  97:.\Generated_Source\PSoC5/NEOMOTE_1_I2C_0_MASTER.c ****             }
  98:.\Generated_Source\PSoC5/NEOMOTE_1_I2C_0_MASTER.c ****         }
  99:.\Generated_Source\PSoC5/NEOMOTE_1_I2C_0_MASTER.c ****         else if(NEOMOTE_1_I2C_0_SM_MSTR_HALT == NEOMOTE_1_I2C_0_state)
  92              		.loc 1 99 0
  93 0052 40F20003 		movw	r3, #:lower16:NEOMOTE_1_I2C_0_state
  94 0056 C0F20003 		movt	r3, #:upper16:NEOMOTE_1_I2C_0_state
  95 005a 1B78     		ldrb	r3, [r3, #0]
  96 005c DBB2     		uxtb	r3, r3
  97 005e 602B     		cmp	r3, #96
  98 0060 17D1     		bne	.L6
 100:.\Generated_Source\PSoC5/NEOMOTE_1_I2C_0_MASTER.c ****         {
 101:.\Generated_Source\PSoC5/NEOMOTE_1_I2C_0_MASTER.c ****             errStatus = NEOMOTE_1_I2C_0_MSTR_NO_ERROR;
  99              		.loc 1 101 0
 100 0062 4FF00003 		mov	r3, #0
 101 0066 FB75     		strb	r3, [r7, #23]
 102:.\Generated_Source\PSoC5/NEOMOTE_1_I2C_0_MASTER.c **** 
 103:.\Generated_Source\PSoC5/NEOMOTE_1_I2C_0_MASTER.c ****             CyIntClearPending(NEOMOTE_1_I2C_0_ISR_NUMBER);
 102              		.loc 1 103 0
 103 0068 4EF28023 		movw	r3, #:lower16:-536812928
 104 006c CEF20003 		movt	r3, #:upper16:-536812928
 105 0070 4FF40042 		mov	r2, #32768
 106 0074 1A60     		str	r2, [r3, #0]
 104:.\Generated_Source\PSoC5/NEOMOTE_1_I2C_0_MASTER.c ****             NEOMOTE_1_I2C_0_mstrStatus &= ((uint8) ~NEOMOTE_1_I2C_0_MSTAT_XFER_HALT);
 107              		.loc 1 104 0
 108 0076 40F20003 		movw	r3, #:lower16:NEOMOTE_1_I2C_0_mstrStatus
 109 007a C0F20003 		movt	r3, #:upper16:NEOMOTE_1_I2C_0_mstrStatus
 110 007e 1B78     		ldrb	r3, [r3, #0]
 111 0080 DBB2     		uxtb	r3, r3
 112 0082 1A46     		mov	r2, r3
 113 0084 02F0F702 		and	r2, r2, #247
 114 0088 40F20003 		movw	r3, #:lower16:NEOMOTE_1_I2C_0_mstrStatus
 115 008c C0F20003 		movt	r3, #:upper16:NEOMOTE_1_I2C_0_mstrStatus
 116 0090 1A70     		strb	r2, [r3, #0]
 117              	.L6:
 105:.\Generated_Source\PSoC5/NEOMOTE_1_I2C_0_MASTER.c ****         }
 106:.\Generated_Source\PSoC5/NEOMOTE_1_I2C_0_MASTER.c ****         else
 107:.\Generated_Source\PSoC5/NEOMOTE_1_I2C_0_MASTER.c ****         {
ARM GAS  C:\Users\karunmj\AppData\Local\Temp\ccwPGOm2.s 			page 5


 108:.\Generated_Source\PSoC5/NEOMOTE_1_I2C_0_MASTER.c ****             /* errStatus = NEOMOTE_1_I2C_0_MSTR_NOT_READY was send before */
 109:.\Generated_Source\PSoC5/NEOMOTE_1_I2C_0_MASTER.c ****         }
 110:.\Generated_Source\PSoC5/NEOMOTE_1_I2C_0_MASTER.c **** 
 111:.\Generated_Source\PSoC5/NEOMOTE_1_I2C_0_MASTER.c ****         if(NEOMOTE_1_I2C_0_MSTR_NO_ERROR == errStatus)
 118              		.loc 1 111 0
 119 0092 FB7D     		ldrb	r3, [r7, #23]	@ zero_extendqisi2
 120 0094 002B     		cmp	r3, #0
 121 0096 59D1     		bne	.L2
 112:.\Generated_Source\PSoC5/NEOMOTE_1_I2C_0_MASTER.c ****         {
 113:.\Generated_Source\PSoC5/NEOMOTE_1_I2C_0_MASTER.c ****             NEOMOTE_1_I2C_0_state    = NEOMOTE_1_I2C_0_SM_MSTR_WR_ADDR;
 122              		.loc 1 113 0
 123 0098 40F20003 		movw	r3, #:lower16:NEOMOTE_1_I2C_0_state
 124 009c C0F20003 		movt	r3, #:upper16:NEOMOTE_1_I2C_0_state
 125 00a0 4FF04502 		mov	r2, #69
 126 00a4 1A70     		strb	r2, [r3, #0]
 114:.\Generated_Source\PSoC5/NEOMOTE_1_I2C_0_MASTER.c ****             NEOMOTE_1_I2C_0_DATA_REG = ((uint8) (slaveAddress << NEOMOTE_1_I2C_0_SLAVE_ADDR_SHIFT))
 127              		.loc 1 114 0
 128 00a6 44F6D813 		movw	r3, #:lower16:1073760728
 129 00aa C4F20003 		movt	r3, #:upper16:1073760728
 130 00ae FA7B     		ldrb	r2, [r7, #15]
 131 00b0 4FEA4202 		lsl	r2, r2, #1
 132 00b4 D2B2     		uxtb	r2, r2
 133 00b6 1A70     		strb	r2, [r3, #0]
 115:.\Generated_Source\PSoC5/NEOMOTE_1_I2C_0_MASTER.c **** 
 116:.\Generated_Source\PSoC5/NEOMOTE_1_I2C_0_MASTER.c ****             NEOMOTE_1_I2C_0_mstrWrBufIndex = 0u;
 134              		.loc 1 116 0
 135 00b8 40F20003 		movw	r3, #:lower16:NEOMOTE_1_I2C_0_mstrWrBufIndex
 136 00bc C0F20003 		movt	r3, #:upper16:NEOMOTE_1_I2C_0_mstrWrBufIndex
 137 00c0 4FF00002 		mov	r2, #0
 138 00c4 1A70     		strb	r2, [r3, #0]
 117:.\Generated_Source\PSoC5/NEOMOTE_1_I2C_0_MASTER.c ****             NEOMOTE_1_I2C_0_mstrWrBufSize  = cnt;
 139              		.loc 1 117 0
 140 00c6 40F20003 		movw	r3, #:lower16:NEOMOTE_1_I2C_0_mstrWrBufSize
 141 00ca C0F20003 		movt	r3, #:upper16:NEOMOTE_1_I2C_0_mstrWrBufSize
 142 00ce FA79     		ldrb	r2, [r7, #7]
 143 00d0 1A70     		strb	r2, [r3, #0]
 118:.\Generated_Source\PSoC5/NEOMOTE_1_I2C_0_MASTER.c ****             NEOMOTE_1_I2C_0_mstrWrBufPtr   = (volatile uint8 *) wrData;
 144              		.loc 1 118 0
 145 00d2 BA68     		ldr	r2, [r7, #8]
 146 00d4 40F20003 		movw	r3, #:lower16:NEOMOTE_1_I2C_0_mstrWrBufPtr
 147 00d8 C0F20003 		movt	r3, #:upper16:NEOMOTE_1_I2C_0_mstrWrBufPtr
 148 00dc 1A60     		str	r2, [r3, #0]
 119:.\Generated_Source\PSoC5/NEOMOTE_1_I2C_0_MASTER.c **** 
 120:.\Generated_Source\PSoC5/NEOMOTE_1_I2C_0_MASTER.c ****             NEOMOTE_1_I2C_0_mstrControl = mode;    /* Save transaction mode */
 149              		.loc 1 120 0
 150 00de 40F20003 		movw	r3, #:lower16:NEOMOTE_1_I2C_0_mstrControl
 151 00e2 C0F20003 		movt	r3, #:upper16:NEOMOTE_1_I2C_0_mstrControl
 152 00e6 BA79     		ldrb	r2, [r7, #6]
 153 00e8 1A70     		strb	r2, [r3, #0]
 121:.\Generated_Source\PSoC5/NEOMOTE_1_I2C_0_MASTER.c **** 
 122:.\Generated_Source\PSoC5/NEOMOTE_1_I2C_0_MASTER.c ****             /* Generate a Start or ReStart depends on mode */
 123:.\Generated_Source\PSoC5/NEOMOTE_1_I2C_0_MASTER.c ****             if(NEOMOTE_1_I2C_0_CHECK_RESTART(mode))
 154              		.loc 1 123 0
 155 00ea BB79     		ldrb	r3, [r7, #6]	@ zero_extendqisi2
 156 00ec 03F00103 		and	r3, r3, #1
 157 00f0 DBB2     		uxtb	r3, r3
 158 00f2 002B     		cmp	r3, #0
ARM GAS  C:\Users\karunmj\AppData\Local\Temp\ccwPGOm2.s 			page 6


 159 00f4 0ED0     		beq	.L7
 124:.\Generated_Source\PSoC5/NEOMOTE_1_I2C_0_MASTER.c ****             {
 125:.\Generated_Source\PSoC5/NEOMOTE_1_I2C_0_MASTER.c ****                 NEOMOTE_1_I2C_0_GENERATE_RESTART;
 160              		.loc 1 125 0
 161 00f6 44F6D913 		movw	r3, #:lower16:1073760729
 162 00fa C4F20003 		movt	r3, #:upper16:1073760729
 163 00fe 4FF01202 		mov	r2, #18
 164 0102 1A70     		strb	r2, [r3, #0]
 165 0104 44F6D713 		movw	r3, #:lower16:1073760727
 166 0108 C4F20003 		movt	r3, #:upper16:1073760727
 167 010c 4FF00402 		mov	r2, #4
 168 0110 1A70     		strb	r2, [r3, #0]
 169 0112 06E0     		b	.L8
 170              	.L7:
 126:.\Generated_Source\PSoC5/NEOMOTE_1_I2C_0_MASTER.c ****             }
 127:.\Generated_Source\PSoC5/NEOMOTE_1_I2C_0_MASTER.c ****             else
 128:.\Generated_Source\PSoC5/NEOMOTE_1_I2C_0_MASTER.c ****             {
 129:.\Generated_Source\PSoC5/NEOMOTE_1_I2C_0_MASTER.c ****                 NEOMOTE_1_I2C_0_GENERATE_START;
 171              		.loc 1 129 0
 172 0114 44F6D913 		movw	r3, #:lower16:1073760729
 173 0118 C4F20003 		movt	r3, #:upper16:1073760729
 174 011c 4FF00102 		mov	r2, #1
 175 0120 1A70     		strb	r2, [r3, #0]
 176              	.L8:
 130:.\Generated_Source\PSoC5/NEOMOTE_1_I2C_0_MASTER.c ****             }
 131:.\Generated_Source\PSoC5/NEOMOTE_1_I2C_0_MASTER.c **** 
 132:.\Generated_Source\PSoC5/NEOMOTE_1_I2C_0_MASTER.c ****             NEOMOTE_1_I2C_0_mstrStatus &= ((uint8) ~NEOMOTE_1_I2C_0_MSTAT_WR_CMPLT);
 177              		.loc 1 132 0
 178 0122 40F20003 		movw	r3, #:lower16:NEOMOTE_1_I2C_0_mstrStatus
 179 0126 C0F20003 		movt	r3, #:upper16:NEOMOTE_1_I2C_0_mstrStatus
 180 012a 1B78     		ldrb	r3, [r3, #0]
 181 012c DBB2     		uxtb	r3, r3
 182 012e 1A46     		mov	r2, r3
 183 0130 02F0FD02 		and	r2, r2, #253
 184 0134 40F20003 		movw	r3, #:lower16:NEOMOTE_1_I2C_0_mstrStatus
 185 0138 C0F20003 		movt	r3, #:upper16:NEOMOTE_1_I2C_0_mstrStatus
 186 013c 1A70     		strb	r2, [r3, #0]
 133:.\Generated_Source\PSoC5/NEOMOTE_1_I2C_0_MASTER.c **** 
 134:.\Generated_Source\PSoC5/NEOMOTE_1_I2C_0_MASTER.c ****             NEOMOTE_1_I2C_0_EnableInt();   /* Enable intr to complete transfer */
 187              		.loc 1 134 0
 188 013e 4EF20013 		movw	r3, #:lower16:-536813312
 189 0142 CEF20003 		movt	r3, #:upper16:-536813312
 190 0146 4FF40042 		mov	r2, #32768
 191 014a 1A60     		str	r2, [r3, #0]
 192              	.L2:
 135:.\Generated_Source\PSoC5/NEOMOTE_1_I2C_0_MASTER.c ****         }
 136:.\Generated_Source\PSoC5/NEOMOTE_1_I2C_0_MASTER.c ****     }
 137:.\Generated_Source\PSoC5/NEOMOTE_1_I2C_0_MASTER.c **** 
 138:.\Generated_Source\PSoC5/NEOMOTE_1_I2C_0_MASTER.c ****     return(errStatus);
 193              		.loc 1 138 0
 194 014c FB7D     		ldrb	r3, [r7, #23]	@ zero_extendqisi2
 139:.\Generated_Source\PSoC5/NEOMOTE_1_I2C_0_MASTER.c **** }
 195              		.loc 1 139 0
 196 014e 1846     		mov	r0, r3
 197 0150 07F11C07 		add	r7, r7, #28
 198 0154 BD46     		mov	sp, r7
 199 0156 80BC     		pop	{r7}
ARM GAS  C:\Users\karunmj\AppData\Local\Temp\ccwPGOm2.s 			page 7


 200 0158 7047     		bx	lr
 201              		.cfi_endproc
 202              	.LFE0:
 203              		.size	NEOMOTE_1_I2C_0_MasterWriteBuf, .-NEOMOTE_1_I2C_0_MasterWriteBuf
 204 015a 00BF     		.section	.text.NEOMOTE_1_I2C_0_MasterReadBuf,"ax",%progbits
 205              		.align	2
 206              		.global	NEOMOTE_1_I2C_0_MasterReadBuf
 207              		.thumb
 208              		.thumb_func
 209              		.type	NEOMOTE_1_I2C_0_MasterReadBuf, %function
 210              	NEOMOTE_1_I2C_0_MasterReadBuf:
 211              	.LFB1:
 140:.\Generated_Source\PSoC5/NEOMOTE_1_I2C_0_MASTER.c **** 
 141:.\Generated_Source\PSoC5/NEOMOTE_1_I2C_0_MASTER.c **** 
 142:.\Generated_Source\PSoC5/NEOMOTE_1_I2C_0_MASTER.c **** /*******************************************************************************
 143:.\Generated_Source\PSoC5/NEOMOTE_1_I2C_0_MASTER.c **** * Function Name: NEOMOTE_1_I2C_0_MasterReadBuf
 144:.\Generated_Source\PSoC5/NEOMOTE_1_I2C_0_MASTER.c **** ********************************************************************************
 145:.\Generated_Source\PSoC5/NEOMOTE_1_I2C_0_MASTER.c **** *
 146:.\Generated_Source\PSoC5/NEOMOTE_1_I2C_0_MASTER.c **** * Summary:
 147:.\Generated_Source\PSoC5/NEOMOTE_1_I2C_0_MASTER.c **** *  Automatically writes an entire buffer of data to a slave device. Once the
 148:.\Generated_Source\PSoC5/NEOMOTE_1_I2C_0_MASTER.c **** *  data transfer is initiated by this function, further data transfer is handled
 149:.\Generated_Source\PSoC5/NEOMOTE_1_I2C_0_MASTER.c **** *  by the included ISR in byte by byte mode.
 150:.\Generated_Source\PSoC5/NEOMOTE_1_I2C_0_MASTER.c **** *
 151:.\Generated_Source\PSoC5/NEOMOTE_1_I2C_0_MASTER.c **** * Parameters:
 152:.\Generated_Source\PSoC5/NEOMOTE_1_I2C_0_MASTER.c **** *  slaveAddr: 7-bit slave address.
 153:.\Generated_Source\PSoC5/NEOMOTE_1_I2C_0_MASTER.c **** *  xferData:  Pointer to buffer where to put data from slave.
 154:.\Generated_Source\PSoC5/NEOMOTE_1_I2C_0_MASTER.c **** *  cnt:       Size of buffer to read.
 155:.\Generated_Source\PSoC5/NEOMOTE_1_I2C_0_MASTER.c **** *  mode:      Transfer mode defines: start or restart condition generation at
 156:.\Generated_Source\PSoC5/NEOMOTE_1_I2C_0_MASTER.c **** *             begin of the transfer and complete the transfer or halt before
 157:.\Generated_Source\PSoC5/NEOMOTE_1_I2C_0_MASTER.c **** *             generating a stop.
 158:.\Generated_Source\PSoC5/NEOMOTE_1_I2C_0_MASTER.c **** *
 159:.\Generated_Source\PSoC5/NEOMOTE_1_I2C_0_MASTER.c **** * Return:
 160:.\Generated_Source\PSoC5/NEOMOTE_1_I2C_0_MASTER.c **** *  Status error - zero means no errors.
 161:.\Generated_Source\PSoC5/NEOMOTE_1_I2C_0_MASTER.c **** *
 162:.\Generated_Source\PSoC5/NEOMOTE_1_I2C_0_MASTER.c **** * Side Effects:
 163:.\Generated_Source\PSoC5/NEOMOTE_1_I2C_0_MASTER.c **** *  The included ISR will start transfer after start or restart condition will
 164:.\Generated_Source\PSoC5/NEOMOTE_1_I2C_0_MASTER.c **** *  be generated.
 165:.\Generated_Source\PSoC5/NEOMOTE_1_I2C_0_MASTER.c **** *
 166:.\Generated_Source\PSoC5/NEOMOTE_1_I2C_0_MASTER.c **** * Global variables:
 167:.\Generated_Source\PSoC5/NEOMOTE_1_I2C_0_MASTER.c **** *  NEOMOTE_1_I2C_0_mstrStatus  - used to store current status of I2C Master.
 168:.\Generated_Source\PSoC5/NEOMOTE_1_I2C_0_MASTER.c **** *  NEOMOTE_1_I2C_0_state       - used to store current state of software FSM.
 169:.\Generated_Source\PSoC5/NEOMOTE_1_I2C_0_MASTER.c **** *  NEOMOTE_1_I2C_0_mstrControl - used to control master end of transaction with
 170:.\Generated_Source\PSoC5/NEOMOTE_1_I2C_0_MASTER.c **** *  or without the Stop generation.
 171:.\Generated_Source\PSoC5/NEOMOTE_1_I2C_0_MASTER.c **** *  NEOMOTE_1_I2C_0_mstrRdBufPtr - used to store pointer to master write buffer.
 172:.\Generated_Source\PSoC5/NEOMOTE_1_I2C_0_MASTER.c **** *  NEOMOTE_1_I2C_0_mstrRdBufIndex - used to current index within master write
 173:.\Generated_Source\PSoC5/NEOMOTE_1_I2C_0_MASTER.c **** *  buffer.
 174:.\Generated_Source\PSoC5/NEOMOTE_1_I2C_0_MASTER.c **** *  NEOMOTE_1_I2C_0_mstrRdBufSize - used to store master write buffer size.
 175:.\Generated_Source\PSoC5/NEOMOTE_1_I2C_0_MASTER.c **** *
 176:.\Generated_Source\PSoC5/NEOMOTE_1_I2C_0_MASTER.c **** * Reentrant:
 177:.\Generated_Source\PSoC5/NEOMOTE_1_I2C_0_MASTER.c **** *  No
 178:.\Generated_Source\PSoC5/NEOMOTE_1_I2C_0_MASTER.c **** *
 179:.\Generated_Source\PSoC5/NEOMOTE_1_I2C_0_MASTER.c **** *******************************************************************************/
 180:.\Generated_Source\PSoC5/NEOMOTE_1_I2C_0_MASTER.c **** uint8 NEOMOTE_1_I2C_0_MasterReadBuf(uint8 slaveAddress, uint8 * rdData, uint8 cnt, uint8 mode)
 181:.\Generated_Source\PSoC5/NEOMOTE_1_I2C_0_MASTER.c ****       
 182:.\Generated_Source\PSoC5/NEOMOTE_1_I2C_0_MASTER.c **** {
 212              		.loc 1 182 0
 213              		.cfi_startproc
ARM GAS  C:\Users\karunmj\AppData\Local\Temp\ccwPGOm2.s 			page 8


 214              		@ args = 0, pretend = 0, frame = 24
 215              		@ frame_needed = 1, uses_anonymous_args = 0
 216              		@ link register save eliminated.
 217 0000 80B4     		push	{r7}
 218              	.LCFI3:
 219              		.cfi_def_cfa_offset 4
 220 0002 87B0     		sub	sp, sp, #28
 221              	.LCFI4:
 222              		.cfi_def_cfa_offset 32
 223 0004 00AF     		add	r7, sp, #0
 224              		.cfi_offset 7, -4
 225              	.LCFI5:
 226              		.cfi_def_cfa_register 7
 227 0006 B960     		str	r1, [r7, #8]
 228 0008 0146     		mov	r1, r0
 229 000a F973     		strb	r1, [r7, #15]
 230 000c FA71     		strb	r2, [r7, #7]
 231 000e BB71     		strb	r3, [r7, #6]
 183:.\Generated_Source\PSoC5/NEOMOTE_1_I2C_0_MASTER.c ****     uint8 errStatus;
 184:.\Generated_Source\PSoC5/NEOMOTE_1_I2C_0_MASTER.c **** 
 185:.\Generated_Source\PSoC5/NEOMOTE_1_I2C_0_MASTER.c ****     errStatus = NEOMOTE_1_I2C_0_MSTR_NOT_READY;
 232              		.loc 1 185 0
 233 0010 4FF00203 		mov	r3, #2
 234 0014 FB75     		strb	r3, [r7, #23]
 186:.\Generated_Source\PSoC5/NEOMOTE_1_I2C_0_MASTER.c **** 
 187:.\Generated_Source\PSoC5/NEOMOTE_1_I2C_0_MASTER.c ****     if(NULL != rdData)
 235              		.loc 1 187 0
 236 0016 BB68     		ldr	r3, [r7, #8]
 237 0018 002B     		cmp	r3, #0
 238 001a 00F09A80 		beq	.L11
 188:.\Generated_Source\PSoC5/NEOMOTE_1_I2C_0_MASTER.c ****     {
 189:.\Generated_Source\PSoC5/NEOMOTE_1_I2C_0_MASTER.c ****         /* Check I2C state before transfer: valid are IDLE or HALT */
 190:.\Generated_Source\PSoC5/NEOMOTE_1_I2C_0_MASTER.c ****         if(NEOMOTE_1_I2C_0_SM_IDLE == NEOMOTE_1_I2C_0_state)
 239              		.loc 1 190 0
 240 001e 40F20003 		movw	r3, #:lower16:NEOMOTE_1_I2C_0_state
 241 0022 C0F20003 		movt	r3, #:upper16:NEOMOTE_1_I2C_0_state
 242 0026 1B78     		ldrb	r3, [r3, #0]
 243 0028 DBB2     		uxtb	r3, r3
 244 002a 102B     		cmp	r3, #16
 245 002c 11D1     		bne	.L12
 191:.\Generated_Source\PSoC5/NEOMOTE_1_I2C_0_MASTER.c ****         {
 192:.\Generated_Source\PSoC5/NEOMOTE_1_I2C_0_MASTER.c ****             /* Check if free: Master is ready to transaction */
 193:.\Generated_Source\PSoC5/NEOMOTE_1_I2C_0_MASTER.c ****             if(NEOMOTE_1_I2C_0_CHECK_BUS_FREE(NEOMOTE_1_I2C_0_MCSR_REG))
 246              		.loc 1 193 0
 247 002e 44F6D913 		movw	r3, #:lower16:1073760729
 248 0032 C4F20003 		movt	r3, #:upper16:1073760729
 249 0036 1B78     		ldrb	r3, [r3, #0]
 250 0038 DBB2     		uxtb	r3, r3
 251 003a 03F00803 		and	r3, r3, #8
 252 003e 002B     		cmp	r3, #0
 253 0040 03D1     		bne	.L13
 194:.\Generated_Source\PSoC5/NEOMOTE_1_I2C_0_MASTER.c ****             {
 195:.\Generated_Source\PSoC5/NEOMOTE_1_I2C_0_MASTER.c ****                 errStatus = NEOMOTE_1_I2C_0_MSTR_NO_ERROR;
 254              		.loc 1 195 0
 255 0042 4FF00003 		mov	r3, #0
 256 0046 FB75     		strb	r3, [r7, #23]
 196:.\Generated_Source\PSoC5/NEOMOTE_1_I2C_0_MASTER.c ****             }
ARM GAS  C:\Users\karunmj\AppData\Local\Temp\ccwPGOm2.s 			page 9


 197:.\Generated_Source\PSoC5/NEOMOTE_1_I2C_0_MASTER.c ****             else
 198:.\Generated_Source\PSoC5/NEOMOTE_1_I2C_0_MASTER.c ****             {
 199:.\Generated_Source\PSoC5/NEOMOTE_1_I2C_0_MASTER.c ****                 errStatus = NEOMOTE_1_I2C_0_MSTR_BUS_BUSY;
 257              		.loc 1 199 0
 258 0048 23E0     		b	.L15
 259              	.L13:
 260 004a 4FF00103 		mov	r3, #1
 261 004e FB75     		strb	r3, [r7, #23]
 262 0050 1FE0     		b	.L15
 263              	.L12:
 200:.\Generated_Source\PSoC5/NEOMOTE_1_I2C_0_MASTER.c ****             }
 201:.\Generated_Source\PSoC5/NEOMOTE_1_I2C_0_MASTER.c ****         }
 202:.\Generated_Source\PSoC5/NEOMOTE_1_I2C_0_MASTER.c ****         else if(NEOMOTE_1_I2C_0_SM_MSTR_HALT == NEOMOTE_1_I2C_0_state)
 264              		.loc 1 202 0
 265 0052 40F20003 		movw	r3, #:lower16:NEOMOTE_1_I2C_0_state
 266 0056 C0F20003 		movt	r3, #:upper16:NEOMOTE_1_I2C_0_state
 267 005a 1B78     		ldrb	r3, [r3, #0]
 268 005c DBB2     		uxtb	r3, r3
 269 005e 602B     		cmp	r3, #96
 270 0060 17D1     		bne	.L15
 203:.\Generated_Source\PSoC5/NEOMOTE_1_I2C_0_MASTER.c ****         {
 204:.\Generated_Source\PSoC5/NEOMOTE_1_I2C_0_MASTER.c ****             errStatus = NEOMOTE_1_I2C_0_MSTR_NO_ERROR;
 271              		.loc 1 204 0
 272 0062 4FF00003 		mov	r3, #0
 273 0066 FB75     		strb	r3, [r7, #23]
 205:.\Generated_Source\PSoC5/NEOMOTE_1_I2C_0_MASTER.c **** 
 206:.\Generated_Source\PSoC5/NEOMOTE_1_I2C_0_MASTER.c ****             CyIntClearPending(NEOMOTE_1_I2C_0_ISR_NUMBER);
 274              		.loc 1 206 0
 275 0068 4EF28023 		movw	r3, #:lower16:-536812928
 276 006c CEF20003 		movt	r3, #:upper16:-536812928
 277 0070 4FF40042 		mov	r2, #32768
 278 0074 1A60     		str	r2, [r3, #0]
 207:.\Generated_Source\PSoC5/NEOMOTE_1_I2C_0_MASTER.c ****             NEOMOTE_1_I2C_0_mstrStatus &= ((uint8) ~NEOMOTE_1_I2C_0_MSTAT_XFER_HALT);
 279              		.loc 1 207 0
 280 0076 40F20003 		movw	r3, #:lower16:NEOMOTE_1_I2C_0_mstrStatus
 281 007a C0F20003 		movt	r3, #:upper16:NEOMOTE_1_I2C_0_mstrStatus
 282 007e 1B78     		ldrb	r3, [r3, #0]
 283 0080 DBB2     		uxtb	r3, r3
 284 0082 1A46     		mov	r2, r3
 285 0084 02F0F702 		and	r2, r2, #247
 286 0088 40F20003 		movw	r3, #:lower16:NEOMOTE_1_I2C_0_mstrStatus
 287 008c C0F20003 		movt	r3, #:upper16:NEOMOTE_1_I2C_0_mstrStatus
 288 0090 1A70     		strb	r2, [r3, #0]
 289              	.L15:
 208:.\Generated_Source\PSoC5/NEOMOTE_1_I2C_0_MASTER.c ****         }
 209:.\Generated_Source\PSoC5/NEOMOTE_1_I2C_0_MASTER.c ****         else
 210:.\Generated_Source\PSoC5/NEOMOTE_1_I2C_0_MASTER.c ****         {
 211:.\Generated_Source\PSoC5/NEOMOTE_1_I2C_0_MASTER.c ****             /* errStatus = NEOMOTE_1_I2C_0_MSTR_NOT_READY was send before */
 212:.\Generated_Source\PSoC5/NEOMOTE_1_I2C_0_MASTER.c ****         }
 213:.\Generated_Source\PSoC5/NEOMOTE_1_I2C_0_MASTER.c **** 
 214:.\Generated_Source\PSoC5/NEOMOTE_1_I2C_0_MASTER.c ****         if(NEOMOTE_1_I2C_0_MSTR_NO_ERROR == errStatus)
 290              		.loc 1 214 0
 291 0092 FB7D     		ldrb	r3, [r7, #23]	@ zero_extendqisi2
 292 0094 002B     		cmp	r3, #0
 293 0096 5CD1     		bne	.L11
 215:.\Generated_Source\PSoC5/NEOMOTE_1_I2C_0_MASTER.c ****         {
 216:.\Generated_Source\PSoC5/NEOMOTE_1_I2C_0_MASTER.c ****             NEOMOTE_1_I2C_0_state    = NEOMOTE_1_I2C_0_SM_MSTR_RD_ADDR;
ARM GAS  C:\Users\karunmj\AppData\Local\Temp\ccwPGOm2.s 			page 10


 294              		.loc 1 216 0
 295 0098 40F20003 		movw	r3, #:lower16:NEOMOTE_1_I2C_0_state
 296 009c C0F20003 		movt	r3, #:upper16:NEOMOTE_1_I2C_0_state
 297 00a0 4FF04902 		mov	r2, #73
 298 00a4 1A70     		strb	r2, [r3, #0]
 217:.\Generated_Source\PSoC5/NEOMOTE_1_I2C_0_MASTER.c ****             NEOMOTE_1_I2C_0_DATA_REG = (((uint8) (slaveAddress << NEOMOTE_1_I2C_0_SLAVE_ADDR_SHIFT)
 299              		.loc 1 217 0
 300 00a6 44F6D813 		movw	r3, #:lower16:1073760728
 301 00aa C4F20003 		movt	r3, #:upper16:1073760728
 302 00ae FA7B     		ldrb	r2, [r7, #15]
 303 00b0 4FEA4202 		lsl	r2, r2, #1
 304 00b4 D2B2     		uxtb	r2, r2
 305 00b6 42F00102 		orr	r2, r2, #1
 306 00ba D2B2     		uxtb	r2, r2
 307 00bc 1A70     		strb	r2, [r3, #0]
 218:.\Generated_Source\PSoC5/NEOMOTE_1_I2C_0_MASTER.c ****                                                    NEOMOTE_1_I2C_0_READ_FLAG);
 219:.\Generated_Source\PSoC5/NEOMOTE_1_I2C_0_MASTER.c **** 
 220:.\Generated_Source\PSoC5/NEOMOTE_1_I2C_0_MASTER.c ****             NEOMOTE_1_I2C_0_mstrRdBufIndex  = 0u;
 308              		.loc 1 220 0
 309 00be 40F20003 		movw	r3, #:lower16:NEOMOTE_1_I2C_0_mstrRdBufIndex
 310 00c2 C0F20003 		movt	r3, #:upper16:NEOMOTE_1_I2C_0_mstrRdBufIndex
 311 00c6 4FF00002 		mov	r2, #0
 312 00ca 1A70     		strb	r2, [r3, #0]
 221:.\Generated_Source\PSoC5/NEOMOTE_1_I2C_0_MASTER.c ****             NEOMOTE_1_I2C_0_mstrRdBufSize   = cnt;
 313              		.loc 1 221 0
 314 00cc 40F20003 		movw	r3, #:lower16:NEOMOTE_1_I2C_0_mstrRdBufSize
 315 00d0 C0F20003 		movt	r3, #:upper16:NEOMOTE_1_I2C_0_mstrRdBufSize
 316 00d4 FA79     		ldrb	r2, [r7, #7]
 317 00d6 1A70     		strb	r2, [r3, #0]
 222:.\Generated_Source\PSoC5/NEOMOTE_1_I2C_0_MASTER.c ****             NEOMOTE_1_I2C_0_mstrRdBufPtr    = (volatile uint8 *) rdData;
 318              		.loc 1 222 0
 319 00d8 BA68     		ldr	r2, [r7, #8]
 320 00da 40F20003 		movw	r3, #:lower16:NEOMOTE_1_I2C_0_mstrRdBufPtr
 321 00de C0F20003 		movt	r3, #:upper16:NEOMOTE_1_I2C_0_mstrRdBufPtr
 322 00e2 1A60     		str	r2, [r3, #0]
 223:.\Generated_Source\PSoC5/NEOMOTE_1_I2C_0_MASTER.c **** 
 224:.\Generated_Source\PSoC5/NEOMOTE_1_I2C_0_MASTER.c ****             NEOMOTE_1_I2C_0_mstrControl = mode;    /* Save transaction mode */
 323              		.loc 1 224 0
 324 00e4 40F20003 		movw	r3, #:lower16:NEOMOTE_1_I2C_0_mstrControl
 325 00e8 C0F20003 		movt	r3, #:upper16:NEOMOTE_1_I2C_0_mstrControl
 326 00ec BA79     		ldrb	r2, [r7, #6]
 327 00ee 1A70     		strb	r2, [r3, #0]
 225:.\Generated_Source\PSoC5/NEOMOTE_1_I2C_0_MASTER.c **** 
 226:.\Generated_Source\PSoC5/NEOMOTE_1_I2C_0_MASTER.c ****             /* Generate a Start or ReStart depends on mode */
 227:.\Generated_Source\PSoC5/NEOMOTE_1_I2C_0_MASTER.c ****             if(NEOMOTE_1_I2C_0_CHECK_RESTART(mode))
 328              		.loc 1 227 0
 329 00f0 BB79     		ldrb	r3, [r7, #6]	@ zero_extendqisi2
 330 00f2 03F00103 		and	r3, r3, #1
 331 00f6 DBB2     		uxtb	r3, r3
 332 00f8 002B     		cmp	r3, #0
 333 00fa 0ED0     		beq	.L16
 228:.\Generated_Source\PSoC5/NEOMOTE_1_I2C_0_MASTER.c ****             {
 229:.\Generated_Source\PSoC5/NEOMOTE_1_I2C_0_MASTER.c ****                 NEOMOTE_1_I2C_0_GENERATE_RESTART;
 334              		.loc 1 229 0
 335 00fc 44F6D913 		movw	r3, #:lower16:1073760729
 336 0100 C4F20003 		movt	r3, #:upper16:1073760729
 337 0104 4FF01202 		mov	r2, #18
ARM GAS  C:\Users\karunmj\AppData\Local\Temp\ccwPGOm2.s 			page 11


 338 0108 1A70     		strb	r2, [r3, #0]
 339 010a 44F6D713 		movw	r3, #:lower16:1073760727
 340 010e C4F20003 		movt	r3, #:upper16:1073760727
 341 0112 4FF00402 		mov	r2, #4
 342 0116 1A70     		strb	r2, [r3, #0]
 343 0118 06E0     		b	.L17
 344              	.L16:
 230:.\Generated_Source\PSoC5/NEOMOTE_1_I2C_0_MASTER.c ****             }
 231:.\Generated_Source\PSoC5/NEOMOTE_1_I2C_0_MASTER.c ****             else
 232:.\Generated_Source\PSoC5/NEOMOTE_1_I2C_0_MASTER.c ****             {
 233:.\Generated_Source\PSoC5/NEOMOTE_1_I2C_0_MASTER.c ****                 NEOMOTE_1_I2C_0_GENERATE_START;
 345              		.loc 1 233 0
 346 011a 44F6D913 		movw	r3, #:lower16:1073760729
 347 011e C4F20003 		movt	r3, #:upper16:1073760729
 348 0122 4FF00102 		mov	r2, #1
 349 0126 1A70     		strb	r2, [r3, #0]
 350              	.L17:
 234:.\Generated_Source\PSoC5/NEOMOTE_1_I2C_0_MASTER.c ****             }
 235:.\Generated_Source\PSoC5/NEOMOTE_1_I2C_0_MASTER.c **** 
 236:.\Generated_Source\PSoC5/NEOMOTE_1_I2C_0_MASTER.c ****             NEOMOTE_1_I2C_0_mstrStatus &= ((uint8) ~NEOMOTE_1_I2C_0_MSTAT_RD_CMPLT);
 351              		.loc 1 236 0
 352 0128 40F20003 		movw	r3, #:lower16:NEOMOTE_1_I2C_0_mstrStatus
 353 012c C0F20003 		movt	r3, #:upper16:NEOMOTE_1_I2C_0_mstrStatus
 354 0130 1B78     		ldrb	r3, [r3, #0]
 355 0132 DBB2     		uxtb	r3, r3
 356 0134 1A46     		mov	r2, r3
 357 0136 02F0FE02 		and	r2, r2, #254
 358 013a 40F20003 		movw	r3, #:lower16:NEOMOTE_1_I2C_0_mstrStatus
 359 013e C0F20003 		movt	r3, #:upper16:NEOMOTE_1_I2C_0_mstrStatus
 360 0142 1A70     		strb	r2, [r3, #0]
 237:.\Generated_Source\PSoC5/NEOMOTE_1_I2C_0_MASTER.c **** 
 238:.\Generated_Source\PSoC5/NEOMOTE_1_I2C_0_MASTER.c ****             NEOMOTE_1_I2C_0_EnableInt();   /* Enable intr to complete transfer */
 361              		.loc 1 238 0
 362 0144 4EF20013 		movw	r3, #:lower16:-536813312
 363 0148 CEF20003 		movt	r3, #:upper16:-536813312
 364 014c 4FF40042 		mov	r2, #32768
 365 0150 1A60     		str	r2, [r3, #0]
 366              	.L11:
 239:.\Generated_Source\PSoC5/NEOMOTE_1_I2C_0_MASTER.c ****         }
 240:.\Generated_Source\PSoC5/NEOMOTE_1_I2C_0_MASTER.c ****     }
 241:.\Generated_Source\PSoC5/NEOMOTE_1_I2C_0_MASTER.c **** 
 242:.\Generated_Source\PSoC5/NEOMOTE_1_I2C_0_MASTER.c ****     return(errStatus);
 367              		.loc 1 242 0
 368 0152 FB7D     		ldrb	r3, [r7, #23]	@ zero_extendqisi2
 243:.\Generated_Source\PSoC5/NEOMOTE_1_I2C_0_MASTER.c **** }
 369              		.loc 1 243 0
 370 0154 1846     		mov	r0, r3
 371 0156 07F11C07 		add	r7, r7, #28
 372 015a BD46     		mov	sp, r7
 373 015c 80BC     		pop	{r7}
 374 015e 7047     		bx	lr
 375              		.cfi_endproc
 376              	.LFE1:
 377              		.size	NEOMOTE_1_I2C_0_MasterReadBuf, .-NEOMOTE_1_I2C_0_MasterReadBuf
 378              		.section	.text.NEOMOTE_1_I2C_0_MasterSendStart,"ax",%progbits
 379              		.align	2
 380              		.global	NEOMOTE_1_I2C_0_MasterSendStart
ARM GAS  C:\Users\karunmj\AppData\Local\Temp\ccwPGOm2.s 			page 12


 381              		.thumb
 382              		.thumb_func
 383              		.type	NEOMOTE_1_I2C_0_MasterSendStart, %function
 384              	NEOMOTE_1_I2C_0_MasterSendStart:
 385              	.LFB2:
 244:.\Generated_Source\PSoC5/NEOMOTE_1_I2C_0_MASTER.c **** 
 245:.\Generated_Source\PSoC5/NEOMOTE_1_I2C_0_MASTER.c **** 
 246:.\Generated_Source\PSoC5/NEOMOTE_1_I2C_0_MASTER.c **** /*******************************************************************************
 247:.\Generated_Source\PSoC5/NEOMOTE_1_I2C_0_MASTER.c **** * Function Name: NEOMOTE_1_I2C_0_MasterSendStart
 248:.\Generated_Source\PSoC5/NEOMOTE_1_I2C_0_MASTER.c **** ********************************************************************************
 249:.\Generated_Source\PSoC5/NEOMOTE_1_I2C_0_MASTER.c **** *
 250:.\Generated_Source\PSoC5/NEOMOTE_1_I2C_0_MASTER.c **** * Summary:
 251:.\Generated_Source\PSoC5/NEOMOTE_1_I2C_0_MASTER.c **** *  Generates Start condition and sends slave address with read/write bit.
 252:.\Generated_Source\PSoC5/NEOMOTE_1_I2C_0_MASTER.c **** *
 253:.\Generated_Source\PSoC5/NEOMOTE_1_I2C_0_MASTER.c **** * Parameters:
 254:.\Generated_Source\PSoC5/NEOMOTE_1_I2C_0_MASTER.c **** *  slaveAddress:  7-bit slave address.
 255:.\Generated_Source\PSoC5/NEOMOTE_1_I2C_0_MASTER.c **** *  R_nW:          Zero, send write command, non-zero send read command.
 256:.\Generated_Source\PSoC5/NEOMOTE_1_I2C_0_MASTER.c **** *
 257:.\Generated_Source\PSoC5/NEOMOTE_1_I2C_0_MASTER.c **** * Return:
 258:.\Generated_Source\PSoC5/NEOMOTE_1_I2C_0_MASTER.c **** *  Status error - zero means no errors.
 259:.\Generated_Source\PSoC5/NEOMOTE_1_I2C_0_MASTER.c **** *
 260:.\Generated_Source\PSoC5/NEOMOTE_1_I2C_0_MASTER.c **** * Side Effects:
 261:.\Generated_Source\PSoC5/NEOMOTE_1_I2C_0_MASTER.c **** *  This function is entered without a 'byte complete' bit set in the I2C_CSR
 262:.\Generated_Source\PSoC5/NEOMOTE_1_I2C_0_MASTER.c **** *  register. It does not exit until it will be set.
 263:.\Generated_Source\PSoC5/NEOMOTE_1_I2C_0_MASTER.c **** *
 264:.\Generated_Source\PSoC5/NEOMOTE_1_I2C_0_MASTER.c **** * Global variables:
 265:.\Generated_Source\PSoC5/NEOMOTE_1_I2C_0_MASTER.c **** *  NEOMOTE_1_I2C_0_state - used to store current state of software FSM.
 266:.\Generated_Source\PSoC5/NEOMOTE_1_I2C_0_MASTER.c **** *
 267:.\Generated_Source\PSoC5/NEOMOTE_1_I2C_0_MASTER.c **** * Reentrant:
 268:.\Generated_Source\PSoC5/NEOMOTE_1_I2C_0_MASTER.c **** *  No
 269:.\Generated_Source\PSoC5/NEOMOTE_1_I2C_0_MASTER.c **** *
 270:.\Generated_Source\PSoC5/NEOMOTE_1_I2C_0_MASTER.c **** *******************************************************************************/
 271:.\Generated_Source\PSoC5/NEOMOTE_1_I2C_0_MASTER.c **** uint8 NEOMOTE_1_I2C_0_MasterSendStart(uint8 slaveAddress, uint8 R_nW)
 272:.\Generated_Source\PSoC5/NEOMOTE_1_I2C_0_MASTER.c ****       
 273:.\Generated_Source\PSoC5/NEOMOTE_1_I2C_0_MASTER.c **** {
 386              		.loc 1 273 0
 387              		.cfi_startproc
 388              		@ args = 0, pretend = 0, frame = 16
 389              		@ frame_needed = 1, uses_anonymous_args = 0
 390              		@ link register save eliminated.
 391 0000 80B4     		push	{r7}
 392              	.LCFI6:
 393              		.cfi_def_cfa_offset 4
 394 0002 85B0     		sub	sp, sp, #20
 395              	.LCFI7:
 396              		.cfi_def_cfa_offset 24
 397 0004 00AF     		add	r7, sp, #0
 398              		.cfi_offset 7, -4
 399              	.LCFI8:
 400              		.cfi_def_cfa_register 7
 401 0006 0246     		mov	r2, r0
 402 0008 0B46     		mov	r3, r1
 403 000a FA71     		strb	r2, [r7, #7]
 404 000c BB71     		strb	r3, [r7, #6]
 274:.\Generated_Source\PSoC5/NEOMOTE_1_I2C_0_MASTER.c ****     uint8 errStatus;
 275:.\Generated_Source\PSoC5/NEOMOTE_1_I2C_0_MASTER.c **** 
 276:.\Generated_Source\PSoC5/NEOMOTE_1_I2C_0_MASTER.c ****     errStatus = NEOMOTE_1_I2C_0_MSTR_NOT_READY;
ARM GAS  C:\Users\karunmj\AppData\Local\Temp\ccwPGOm2.s 			page 13


 405              		.loc 1 276 0
 406 000e 4FF00203 		mov	r3, #2
 407 0012 FB73     		strb	r3, [r7, #15]
 277:.\Generated_Source\PSoC5/NEOMOTE_1_I2C_0_MASTER.c **** 
 278:.\Generated_Source\PSoC5/NEOMOTE_1_I2C_0_MASTER.c ****     /* If IDLE, check if bus is free */
 279:.\Generated_Source\PSoC5/NEOMOTE_1_I2C_0_MASTER.c ****     if(NEOMOTE_1_I2C_0_SM_IDLE == NEOMOTE_1_I2C_0_state)
 408              		.loc 1 279 0
 409 0014 40F20003 		movw	r3, #:lower16:NEOMOTE_1_I2C_0_state
 410 0018 C0F20003 		movt	r3, #:upper16:NEOMOTE_1_I2C_0_state
 411 001c 1B78     		ldrb	r3, [r3, #0]
 412 001e DBB2     		uxtb	r3, r3
 413 0020 102B     		cmp	r3, #16
 414 0022 5DD1     		bne	.L20
 280:.\Generated_Source\PSoC5/NEOMOTE_1_I2C_0_MASTER.c ****     {
 281:.\Generated_Source\PSoC5/NEOMOTE_1_I2C_0_MASTER.c ****         /* If bus is free, generate Start condition */
 282:.\Generated_Source\PSoC5/NEOMOTE_1_I2C_0_MASTER.c ****         if(NEOMOTE_1_I2C_0_CHECK_BUS_FREE(NEOMOTE_1_I2C_0_MCSR_REG))
 415              		.loc 1 282 0
 416 0024 44F6D913 		movw	r3, #:lower16:1073760729
 417 0028 C4F20003 		movt	r3, #:upper16:1073760729
 418 002c 1B78     		ldrb	r3, [r3, #0]
 419 002e DBB2     		uxtb	r3, r3
 420 0030 03F00803 		and	r3, r3, #8
 421 0034 002B     		cmp	r3, #0
 422 0036 50D1     		bne	.L21
 283:.\Generated_Source\PSoC5/NEOMOTE_1_I2C_0_MASTER.c ****         {
 284:.\Generated_Source\PSoC5/NEOMOTE_1_I2C_0_MASTER.c ****             NEOMOTE_1_I2C_0_DisableInt();  /* Disable ISR for Manual functions */
 423              		.loc 1 284 0
 424 0038 4EF28013 		movw	r3, #:lower16:-536813184
 425 003c CEF20003 		movt	r3, #:upper16:-536813184
 426 0040 4FF40042 		mov	r2, #32768
 427 0044 1A60     		str	r2, [r3, #0]
 285:.\Generated_Source\PSoC5/NEOMOTE_1_I2C_0_MASTER.c **** 
 286:.\Generated_Source\PSoC5/NEOMOTE_1_I2C_0_MASTER.c ****             slaveAddress = ((uint8) (slaveAddress << NEOMOTE_1_I2C_0_SLAVE_ADDR_SHIFT)); /* Set Add
 428              		.loc 1 286 0
 429 0046 FB79     		ldrb	r3, [r7, #7]
 430 0048 4FEA4303 		lsl	r3, r3, #1
 431 004c FB71     		strb	r3, [r7, #7]
 287:.\Generated_Source\PSoC5/NEOMOTE_1_I2C_0_MASTER.c ****             if(0u != R_nW)                                      /* Set the Read/Write flag */
 432              		.loc 1 287 0
 433 004e BB79     		ldrb	r3, [r7, #6]	@ zero_extendqisi2
 434 0050 002B     		cmp	r3, #0
 435 0052 0BD0     		beq	.L22
 288:.\Generated_Source\PSoC5/NEOMOTE_1_I2C_0_MASTER.c ****             {
 289:.\Generated_Source\PSoC5/NEOMOTE_1_I2C_0_MASTER.c ****                 slaveAddress |= NEOMOTE_1_I2C_0_READ_FLAG;
 436              		.loc 1 289 0
 437 0054 FB79     		ldrb	r3, [r7, #7]
 438 0056 43F00103 		orr	r3, r3, #1
 439 005a FB71     		strb	r3, [r7, #7]
 290:.\Generated_Source\PSoC5/NEOMOTE_1_I2C_0_MASTER.c ****                 NEOMOTE_1_I2C_0_state = NEOMOTE_1_I2C_0_SM_MSTR_RD_ADDR;
 440              		.loc 1 290 0
 441 005c 40F20003 		movw	r3, #:lower16:NEOMOTE_1_I2C_0_state
 442 0060 C0F20003 		movt	r3, #:upper16:NEOMOTE_1_I2C_0_state
 443 0064 4FF04902 		mov	r2, #73
 444 0068 1A70     		strb	r2, [r3, #0]
 445 006a 06E0     		b	.L23
 446              	.L22:
 291:.\Generated_Source\PSoC5/NEOMOTE_1_I2C_0_MASTER.c ****             }
ARM GAS  C:\Users\karunmj\AppData\Local\Temp\ccwPGOm2.s 			page 14


 292:.\Generated_Source\PSoC5/NEOMOTE_1_I2C_0_MASTER.c ****             else
 293:.\Generated_Source\PSoC5/NEOMOTE_1_I2C_0_MASTER.c ****             {
 294:.\Generated_Source\PSoC5/NEOMOTE_1_I2C_0_MASTER.c ****                 NEOMOTE_1_I2C_0_state = NEOMOTE_1_I2C_0_SM_MSTR_WR_ADDR;
 447              		.loc 1 294 0
 448 006c 40F20003 		movw	r3, #:lower16:NEOMOTE_1_I2C_0_state
 449 0070 C0F20003 		movt	r3, #:upper16:NEOMOTE_1_I2C_0_state
 450 0074 4FF04502 		mov	r2, #69
 451 0078 1A70     		strb	r2, [r3, #0]
 452              	.L23:
 295:.\Generated_Source\PSoC5/NEOMOTE_1_I2C_0_MASTER.c ****             }
 296:.\Generated_Source\PSoC5/NEOMOTE_1_I2C_0_MASTER.c ****             NEOMOTE_1_I2C_0_DATA_REG = slaveAddress;   /* Write address to data reg */
 453              		.loc 1 296 0
 454 007a 44F6D813 		movw	r3, #:lower16:1073760728
 455 007e C4F20003 		movt	r3, #:upper16:1073760728
 456 0082 FA79     		ldrb	r2, [r7, #7]
 457 0084 1A70     		strb	r2, [r3, #0]
 297:.\Generated_Source\PSoC5/NEOMOTE_1_I2C_0_MASTER.c **** 
 298:.\Generated_Source\PSoC5/NEOMOTE_1_I2C_0_MASTER.c **** 
 299:.\Generated_Source\PSoC5/NEOMOTE_1_I2C_0_MASTER.c ****             NEOMOTE_1_I2C_0_GENERATE_START;
 458              		.loc 1 299 0
 459 0086 44F6D913 		movw	r3, #:lower16:1073760729
 460 008a C4F20003 		movt	r3, #:upper16:1073760729
 461 008e 4FF00102 		mov	r2, #1
 462 0092 1A70     		strb	r2, [r3, #0]
 463              	.L24:
 300:.\Generated_Source\PSoC5/NEOMOTE_1_I2C_0_MASTER.c ****             while(NEOMOTE_1_I2C_0_WAIT_BYTE_COMPLETE(NEOMOTE_1_I2C_0_CSR_REG))
 464              		.loc 1 300 0
 465 0094 44F6D713 		movw	r3, #:lower16:1073760727
 466 0098 C4F20003 		movt	r3, #:upper16:1073760727
 467 009c 1B78     		ldrb	r3, [r3, #0]
 468 009e DBB2     		uxtb	r3, r3
 469 00a0 03F00103 		and	r3, r3, #1
 470 00a4 002B     		cmp	r3, #0
 471 00a6 F5D0     		beq	.L24
 301:.\Generated_Source\PSoC5/NEOMOTE_1_I2C_0_MASTER.c ****             {
 302:.\Generated_Source\PSoC5/NEOMOTE_1_I2C_0_MASTER.c ****                 ; /* Wait for the address to be transfered */
 303:.\Generated_Source\PSoC5/NEOMOTE_1_I2C_0_MASTER.c ****             }
 304:.\Generated_Source\PSoC5/NEOMOTE_1_I2C_0_MASTER.c **** 
 305:.\Generated_Source\PSoC5/NEOMOTE_1_I2C_0_MASTER.c ****             #if(NEOMOTE_1_I2C_0_MODE_MULTI_MASTER_SLAVE_ENABLED)
 306:.\Generated_Source\PSoC5/NEOMOTE_1_I2C_0_MASTER.c ****                 if(NEOMOTE_1_I2C_0_CHECK_START_GEN(NEOMOTE_1_I2C_0_MCSR_REG))
 307:.\Generated_Source\PSoC5/NEOMOTE_1_I2C_0_MASTER.c ****                 {
 308:.\Generated_Source\PSoC5/NEOMOTE_1_I2C_0_MASTER.c ****                     NEOMOTE_1_I2C_0_CLEAR_START_GEN;
 309:.\Generated_Source\PSoC5/NEOMOTE_1_I2C_0_MASTER.c **** 
 310:.\Generated_Source\PSoC5/NEOMOTE_1_I2C_0_MASTER.c ****                     /* Start condition was not generated: reset FSM to IDLE */
 311:.\Generated_Source\PSoC5/NEOMOTE_1_I2C_0_MASTER.c ****                     NEOMOTE_1_I2C_0_state = NEOMOTE_1_I2C_0_SM_IDLE;
 312:.\Generated_Source\PSoC5/NEOMOTE_1_I2C_0_MASTER.c ****                     errStatus = NEOMOTE_1_I2C_0_MSTR_ERR_ABORT_START_GEN;
 313:.\Generated_Source\PSoC5/NEOMOTE_1_I2C_0_MASTER.c ****                 }
 314:.\Generated_Source\PSoC5/NEOMOTE_1_I2C_0_MASTER.c ****                 else
 315:.\Generated_Source\PSoC5/NEOMOTE_1_I2C_0_MASTER.c ****             #endif /* (NEOMOTE_1_I2C_0_MODE_MULTI_MASTER_SLAVE_ENABLED) */
 316:.\Generated_Source\PSoC5/NEOMOTE_1_I2C_0_MASTER.c **** 
 317:.\Generated_Source\PSoC5/NEOMOTE_1_I2C_0_MASTER.c ****             #if(NEOMOTE_1_I2C_0_MODE_MULTI_MASTER_ENABLED)
 318:.\Generated_Source\PSoC5/NEOMOTE_1_I2C_0_MASTER.c **** 
 319:.\Generated_Source\PSoC5/NEOMOTE_1_I2C_0_MASTER.c ****                 if(NEOMOTE_1_I2C_0_CHECK_LOST_ARB(NEOMOTE_1_I2C_0_CSR_REG))
 320:.\Generated_Source\PSoC5/NEOMOTE_1_I2C_0_MASTER.c ****                 {
 321:.\Generated_Source\PSoC5/NEOMOTE_1_I2C_0_MASTER.c ****                     NEOMOTE_1_I2C_0_BUS_RELEASE;
 322:.\Generated_Source\PSoC5/NEOMOTE_1_I2C_0_MASTER.c **** 
 323:.\Generated_Source\PSoC5/NEOMOTE_1_I2C_0_MASTER.c ****                     /* Master lost arbitrage: reset FSM to IDLE */
ARM GAS  C:\Users\karunmj\AppData\Local\Temp\ccwPGOm2.s 			page 15


 324:.\Generated_Source\PSoC5/NEOMOTE_1_I2C_0_MASTER.c ****                     NEOMOTE_1_I2C_0_state = NEOMOTE_1_I2C_0_SM_IDLE;
 325:.\Generated_Source\PSoC5/NEOMOTE_1_I2C_0_MASTER.c ****                     errStatus = NEOMOTE_1_I2C_0_MSTR_ERR_ARB_LOST;
 326:.\Generated_Source\PSoC5/NEOMOTE_1_I2C_0_MASTER.c ****                 }
 327:.\Generated_Source\PSoC5/NEOMOTE_1_I2C_0_MASTER.c ****                 else
 328:.\Generated_Source\PSoC5/NEOMOTE_1_I2C_0_MASTER.c ****             #endif /* (NEOMOTE_1_I2C_0_MODE_MULTI_MASTER_ENABLED) */
 329:.\Generated_Source\PSoC5/NEOMOTE_1_I2C_0_MASTER.c **** 
 330:.\Generated_Source\PSoC5/NEOMOTE_1_I2C_0_MASTER.c ****                 if(NEOMOTE_1_I2C_0_CHECK_ADDR_NAK(NEOMOTE_1_I2C_0_CSR_REG))
 472              		.loc 1 330 0
 473 00a8 44F6D713 		movw	r3, #:lower16:1073760727
 474 00ac C4F20003 		movt	r3, #:upper16:1073760727
 475 00b0 1B78     		ldrb	r3, [r3, #0]
 476 00b2 DBB2     		uxtb	r3, r3
 477 00b4 03F00A03 		and	r3, r3, #10
 478 00b8 0A2B     		cmp	r3, #10
 479 00ba 0AD1     		bne	.L25
 331:.\Generated_Source\PSoC5/NEOMOTE_1_I2C_0_MASTER.c ****                 {
 332:.\Generated_Source\PSoC5/NEOMOTE_1_I2C_0_MASTER.c ****                     /* Address has been NACKed: reset FSM to IDLE */
 333:.\Generated_Source\PSoC5/NEOMOTE_1_I2C_0_MASTER.c ****                     NEOMOTE_1_I2C_0_state = NEOMOTE_1_I2C_0_SM_IDLE;
 480              		.loc 1 333 0
 481 00bc 40F20003 		movw	r3, #:lower16:NEOMOTE_1_I2C_0_state
 482 00c0 C0F20003 		movt	r3, #:upper16:NEOMOTE_1_I2C_0_state
 483 00c4 4FF01002 		mov	r2, #16
 484 00c8 1A70     		strb	r2, [r3, #0]
 334:.\Generated_Source\PSoC5/NEOMOTE_1_I2C_0_MASTER.c ****                     errStatus = NEOMOTE_1_I2C_0_MSTR_ERR_LB_NAK;
 485              		.loc 1 334 0
 486 00ca 4FF00303 		mov	r3, #3
 487 00ce FB73     		strb	r3, [r7, #15]
 335:.\Generated_Source\PSoC5/NEOMOTE_1_I2C_0_MASTER.c ****                 }
 336:.\Generated_Source\PSoC5/NEOMOTE_1_I2C_0_MASTER.c ****                 else
 337:.\Generated_Source\PSoC5/NEOMOTE_1_I2C_0_MASTER.c ****                 {
 338:.\Generated_Source\PSoC5/NEOMOTE_1_I2C_0_MASTER.c ****                     /* Start was sent witout errors */
 339:.\Generated_Source\PSoC5/NEOMOTE_1_I2C_0_MASTER.c ****                     errStatus = NEOMOTE_1_I2C_0_MSTR_NO_ERROR;
 488              		.loc 1 339 0
 489 00d0 06E0     		b	.L20
 490              	.L25:
 491 00d2 4FF00003 		mov	r3, #0
 492 00d6 FB73     		strb	r3, [r7, #15]
 493 00d8 02E0     		b	.L20
 494              	.L21:
 340:.\Generated_Source\PSoC5/NEOMOTE_1_I2C_0_MASTER.c ****                 }
 341:.\Generated_Source\PSoC5/NEOMOTE_1_I2C_0_MASTER.c ****         }
 342:.\Generated_Source\PSoC5/NEOMOTE_1_I2C_0_MASTER.c ****         else
 343:.\Generated_Source\PSoC5/NEOMOTE_1_I2C_0_MASTER.c ****         {
 344:.\Generated_Source\PSoC5/NEOMOTE_1_I2C_0_MASTER.c ****             errStatus = NEOMOTE_1_I2C_0_MSTR_BUS_BUSY; /* Bus is busy */
 495              		.loc 1 344 0
 496 00da 4FF00103 		mov	r3, #1
 497 00de FB73     		strb	r3, [r7, #15]
 498              	.L20:
 345:.\Generated_Source\PSoC5/NEOMOTE_1_I2C_0_MASTER.c ****         }
 346:.\Generated_Source\PSoC5/NEOMOTE_1_I2C_0_MASTER.c ****     }
 347:.\Generated_Source\PSoC5/NEOMOTE_1_I2C_0_MASTER.c **** 
 348:.\Generated_Source\PSoC5/NEOMOTE_1_I2C_0_MASTER.c ****     return(errStatus);
 499              		.loc 1 348 0
 500 00e0 FB7B     		ldrb	r3, [r7, #15]	@ zero_extendqisi2
 349:.\Generated_Source\PSoC5/NEOMOTE_1_I2C_0_MASTER.c **** }
 501              		.loc 1 349 0
 502 00e2 1846     		mov	r0, r3
ARM GAS  C:\Users\karunmj\AppData\Local\Temp\ccwPGOm2.s 			page 16


 503 00e4 07F11407 		add	r7, r7, #20
 504 00e8 BD46     		mov	sp, r7
 505 00ea 80BC     		pop	{r7}
 506 00ec 7047     		bx	lr
 507              		.cfi_endproc
 508              	.LFE2:
 509              		.size	NEOMOTE_1_I2C_0_MasterSendStart, .-NEOMOTE_1_I2C_0_MasterSendStart
 510 00ee 00BF     		.section	.text.NEOMOTE_1_I2C_0_MasterSendRestart,"ax",%progbits
 511              		.align	2
 512              		.global	NEOMOTE_1_I2C_0_MasterSendRestart
 513              		.thumb
 514              		.thumb_func
 515              		.type	NEOMOTE_1_I2C_0_MasterSendRestart, %function
 516              	NEOMOTE_1_I2C_0_MasterSendRestart:
 517              	.LFB3:
 350:.\Generated_Source\PSoC5/NEOMOTE_1_I2C_0_MASTER.c **** 
 351:.\Generated_Source\PSoC5/NEOMOTE_1_I2C_0_MASTER.c **** 
 352:.\Generated_Source\PSoC5/NEOMOTE_1_I2C_0_MASTER.c **** /*******************************************************************************
 353:.\Generated_Source\PSoC5/NEOMOTE_1_I2C_0_MASTER.c **** * Function Name: NEOMOTE_1_I2C_0_MasterSendRestart
 354:.\Generated_Source\PSoC5/NEOMOTE_1_I2C_0_MASTER.c **** ********************************************************************************
 355:.\Generated_Source\PSoC5/NEOMOTE_1_I2C_0_MASTER.c **** *
 356:.\Generated_Source\PSoC5/NEOMOTE_1_I2C_0_MASTER.c **** * Summary:
 357:.\Generated_Source\PSoC5/NEOMOTE_1_I2C_0_MASTER.c **** *  Generates ReStart condition and sends slave address with read/write bit.
 358:.\Generated_Source\PSoC5/NEOMOTE_1_I2C_0_MASTER.c **** *
 359:.\Generated_Source\PSoC5/NEOMOTE_1_I2C_0_MASTER.c **** * Parameters:
 360:.\Generated_Source\PSoC5/NEOMOTE_1_I2C_0_MASTER.c **** *  slaveAddress:  7-bit slave address.
 361:.\Generated_Source\PSoC5/NEOMOTE_1_I2C_0_MASTER.c **** *  R_nW:          Zero, send write command, non-zero send read command.
 362:.\Generated_Source\PSoC5/NEOMOTE_1_I2C_0_MASTER.c **** *
 363:.\Generated_Source\PSoC5/NEOMOTE_1_I2C_0_MASTER.c **** * Return:
 364:.\Generated_Source\PSoC5/NEOMOTE_1_I2C_0_MASTER.c **** *  Status error - zero means no errors.
 365:.\Generated_Source\PSoC5/NEOMOTE_1_I2C_0_MASTER.c **** *
 366:.\Generated_Source\PSoC5/NEOMOTE_1_I2C_0_MASTER.c **** * Side Effects:
 367:.\Generated_Source\PSoC5/NEOMOTE_1_I2C_0_MASTER.c **** *  This function is entered without a 'byte complete' bit set in the I2C_CSR
 368:.\Generated_Source\PSoC5/NEOMOTE_1_I2C_0_MASTER.c **** *  register. It does not exit until it will be set.
 369:.\Generated_Source\PSoC5/NEOMOTE_1_I2C_0_MASTER.c **** *
 370:.\Generated_Source\PSoC5/NEOMOTE_1_I2C_0_MASTER.c **** * Global variables:
 371:.\Generated_Source\PSoC5/NEOMOTE_1_I2C_0_MASTER.c **** *  NEOMOTE_1_I2C_0_state - used to store current state of software FSM.
 372:.\Generated_Source\PSoC5/NEOMOTE_1_I2C_0_MASTER.c **** *
 373:.\Generated_Source\PSoC5/NEOMOTE_1_I2C_0_MASTER.c **** * Reentrant:
 374:.\Generated_Source\PSoC5/NEOMOTE_1_I2C_0_MASTER.c **** *  No
 375:.\Generated_Source\PSoC5/NEOMOTE_1_I2C_0_MASTER.c **** *
 376:.\Generated_Source\PSoC5/NEOMOTE_1_I2C_0_MASTER.c **** *******************************************************************************/
 377:.\Generated_Source\PSoC5/NEOMOTE_1_I2C_0_MASTER.c **** uint8 NEOMOTE_1_I2C_0_MasterSendRestart(uint8 slaveAddress, uint8 R_nW)
 378:.\Generated_Source\PSoC5/NEOMOTE_1_I2C_0_MASTER.c ****       
 379:.\Generated_Source\PSoC5/NEOMOTE_1_I2C_0_MASTER.c **** {
 518              		.loc 1 379 0
 519              		.cfi_startproc
 520              		@ args = 0, pretend = 0, frame = 16
 521              		@ frame_needed = 1, uses_anonymous_args = 0
 522              		@ link register save eliminated.
 523 0000 80B4     		push	{r7}
 524              	.LCFI9:
 525              		.cfi_def_cfa_offset 4
 526 0002 85B0     		sub	sp, sp, #20
 527              	.LCFI10:
 528              		.cfi_def_cfa_offset 24
 529 0004 00AF     		add	r7, sp, #0
ARM GAS  C:\Users\karunmj\AppData\Local\Temp\ccwPGOm2.s 			page 17


 530              		.cfi_offset 7, -4
 531              	.LCFI11:
 532              		.cfi_def_cfa_register 7
 533 0006 0246     		mov	r2, r0
 534 0008 0B46     		mov	r3, r1
 535 000a FA71     		strb	r2, [r7, #7]
 536 000c BB71     		strb	r3, [r7, #6]
 380:.\Generated_Source\PSoC5/NEOMOTE_1_I2C_0_MASTER.c ****     uint8 errStatus;
 381:.\Generated_Source\PSoC5/NEOMOTE_1_I2C_0_MASTER.c **** 
 382:.\Generated_Source\PSoC5/NEOMOTE_1_I2C_0_MASTER.c ****     errStatus = NEOMOTE_1_I2C_0_MSTR_NOT_READY;
 537              		.loc 1 382 0
 538 000e 4FF00203 		mov	r3, #2
 539 0012 FB73     		strb	r3, [r7, #15]
 383:.\Generated_Source\PSoC5/NEOMOTE_1_I2C_0_MASTER.c **** 
 384:.\Generated_Source\PSoC5/NEOMOTE_1_I2C_0_MASTER.c ****     /* Check if START condition was generated */
 385:.\Generated_Source\PSoC5/NEOMOTE_1_I2C_0_MASTER.c ****     if(NEOMOTE_1_I2C_0_CHECK_MASTER_MODE(NEOMOTE_1_I2C_0_MCSR_REG))
 540              		.loc 1 385 0
 541 0014 44F6D913 		movw	r3, #:lower16:1073760729
 542 0018 C4F20003 		movt	r3, #:upper16:1073760729
 543 001c 1B78     		ldrb	r3, [r3, #0]
 544 001e DBB2     		uxtb	r3, r3
 545 0020 03F00403 		and	r3, r3, #4
 546 0024 002B     		cmp	r3, #0
 547 0026 4FD0     		beq	.L29
 386:.\Generated_Source\PSoC5/NEOMOTE_1_I2C_0_MASTER.c ****     {
 387:.\Generated_Source\PSoC5/NEOMOTE_1_I2C_0_MASTER.c ****         slaveAddress = ((uint8) (slaveAddress << NEOMOTE_1_I2C_0_SLAVE_ADDR_SHIFT)); /* Set Address
 548              		.loc 1 387 0
 549 0028 FB79     		ldrb	r3, [r7, #7]
 550 002a 4FEA4303 		lsl	r3, r3, #1
 551 002e FB71     		strb	r3, [r7, #7]
 388:.\Generated_Source\PSoC5/NEOMOTE_1_I2C_0_MASTER.c ****         if(0u != R_nW)  /* Set the Read/Write flag */
 552              		.loc 1 388 0
 553 0030 BB79     		ldrb	r3, [r7, #6]	@ zero_extendqisi2
 554 0032 002B     		cmp	r3, #0
 555 0034 0BD0     		beq	.L30
 389:.\Generated_Source\PSoC5/NEOMOTE_1_I2C_0_MASTER.c ****         {
 390:.\Generated_Source\PSoC5/NEOMOTE_1_I2C_0_MASTER.c ****             slaveAddress |= NEOMOTE_1_I2C_0_READ_FLAG;
 556              		.loc 1 390 0
 557 0036 FB79     		ldrb	r3, [r7, #7]
 558 0038 43F00103 		orr	r3, r3, #1
 559 003c FB71     		strb	r3, [r7, #7]
 391:.\Generated_Source\PSoC5/NEOMOTE_1_I2C_0_MASTER.c ****             NEOMOTE_1_I2C_0_state = NEOMOTE_1_I2C_0_SM_MSTR_RD_ADDR;
 560              		.loc 1 391 0
 561 003e 40F20003 		movw	r3, #:lower16:NEOMOTE_1_I2C_0_state
 562 0042 C0F20003 		movt	r3, #:upper16:NEOMOTE_1_I2C_0_state
 563 0046 4FF04902 		mov	r2, #73
 564 004a 1A70     		strb	r2, [r3, #0]
 565 004c 06E0     		b	.L31
 566              	.L30:
 392:.\Generated_Source\PSoC5/NEOMOTE_1_I2C_0_MASTER.c ****         }
 393:.\Generated_Source\PSoC5/NEOMOTE_1_I2C_0_MASTER.c ****         else
 394:.\Generated_Source\PSoC5/NEOMOTE_1_I2C_0_MASTER.c ****         {
 395:.\Generated_Source\PSoC5/NEOMOTE_1_I2C_0_MASTER.c ****             NEOMOTE_1_I2C_0_state = NEOMOTE_1_I2C_0_SM_MSTR_WR_ADDR;
 567              		.loc 1 395 0
 568 004e 40F20003 		movw	r3, #:lower16:NEOMOTE_1_I2C_0_state
 569 0052 C0F20003 		movt	r3, #:upper16:NEOMOTE_1_I2C_0_state
 570 0056 4FF04502 		mov	r2, #69
ARM GAS  C:\Users\karunmj\AppData\Local\Temp\ccwPGOm2.s 			page 18


 571 005a 1A70     		strb	r2, [r3, #0]
 572              	.L31:
 396:.\Generated_Source\PSoC5/NEOMOTE_1_I2C_0_MASTER.c ****         }
 397:.\Generated_Source\PSoC5/NEOMOTE_1_I2C_0_MASTER.c ****         NEOMOTE_1_I2C_0_DATA_REG = slaveAddress;    /* Write address to data reg */
 573              		.loc 1 397 0
 574 005c 44F6D813 		movw	r3, #:lower16:1073760728
 575 0060 C4F20003 		movt	r3, #:upper16:1073760728
 576 0064 FA79     		ldrb	r2, [r7, #7]
 577 0066 1A70     		strb	r2, [r3, #0]
 398:.\Generated_Source\PSoC5/NEOMOTE_1_I2C_0_MASTER.c **** 
 399:.\Generated_Source\PSoC5/NEOMOTE_1_I2C_0_MASTER.c **** 
 400:.\Generated_Source\PSoC5/NEOMOTE_1_I2C_0_MASTER.c ****         NEOMOTE_1_I2C_0_GENERATE_RESTART_MANUAL;
 578              		.loc 1 400 0
 579 0068 44F6D913 		movw	r3, #:lower16:1073760729
 580 006c C4F20003 		movt	r3, #:upper16:1073760729
 581 0070 4FF01202 		mov	r2, #18
 582 0074 1A70     		strb	r2, [r3, #0]
 583 0076 44F6D713 		movw	r3, #:lower16:1073760727
 584 007a C4F20003 		movt	r3, #:upper16:1073760727
 585 007e 4FF00402 		mov	r2, #4
 586 0082 1A70     		strb	r2, [r3, #0]
 587              	.L32:
 401:.\Generated_Source\PSoC5/NEOMOTE_1_I2C_0_MASTER.c ****         while(NEOMOTE_1_I2C_0_WAIT_BYTE_COMPLETE(NEOMOTE_1_I2C_0_CSR_REG))
 588              		.loc 1 401 0
 589 0084 44F6D713 		movw	r3, #:lower16:1073760727
 590 0088 C4F20003 		movt	r3, #:upper16:1073760727
 591 008c 1B78     		ldrb	r3, [r3, #0]
 592 008e DBB2     		uxtb	r3, r3
 593 0090 03F00103 		and	r3, r3, #1
 594 0094 002B     		cmp	r3, #0
 595 0096 F5D0     		beq	.L32
 402:.\Generated_Source\PSoC5/NEOMOTE_1_I2C_0_MASTER.c ****         {
 403:.\Generated_Source\PSoC5/NEOMOTE_1_I2C_0_MASTER.c ****             ; /* Wait for the address to be transfered */
 404:.\Generated_Source\PSoC5/NEOMOTE_1_I2C_0_MASTER.c ****         }
 405:.\Generated_Source\PSoC5/NEOMOTE_1_I2C_0_MASTER.c **** 
 406:.\Generated_Source\PSoC5/NEOMOTE_1_I2C_0_MASTER.c ****         #if(NEOMOTE_1_I2C_0_MODE_MULTI_MASTER_ENABLED)
 407:.\Generated_Source\PSoC5/NEOMOTE_1_I2C_0_MASTER.c ****             if(NEOMOTE_1_I2C_0_CHECK_LOST_ARB(NEOMOTE_1_I2C_0_CSR_REG))
 408:.\Generated_Source\PSoC5/NEOMOTE_1_I2C_0_MASTER.c ****             {
 409:.\Generated_Source\PSoC5/NEOMOTE_1_I2C_0_MASTER.c ****                 NEOMOTE_1_I2C_0_BUS_RELEASE;
 410:.\Generated_Source\PSoC5/NEOMOTE_1_I2C_0_MASTER.c **** 
 411:.\Generated_Source\PSoC5/NEOMOTE_1_I2C_0_MASTER.c ****                 /* Master lost arbitrage: reset FSM to IDLE */
 412:.\Generated_Source\PSoC5/NEOMOTE_1_I2C_0_MASTER.c ****                 NEOMOTE_1_I2C_0_state = NEOMOTE_1_I2C_0_SM_IDLE;
 413:.\Generated_Source\PSoC5/NEOMOTE_1_I2C_0_MASTER.c ****                 errStatus = NEOMOTE_1_I2C_0_MSTR_ERR_ARB_LOST;
 414:.\Generated_Source\PSoC5/NEOMOTE_1_I2C_0_MASTER.c ****             }
 415:.\Generated_Source\PSoC5/NEOMOTE_1_I2C_0_MASTER.c ****             else
 416:.\Generated_Source\PSoC5/NEOMOTE_1_I2C_0_MASTER.c ****         #endif /* (NEOMOTE_1_I2C_0_MODE_MULTI_MASTER_ENABLED) */
 417:.\Generated_Source\PSoC5/NEOMOTE_1_I2C_0_MASTER.c **** 
 418:.\Generated_Source\PSoC5/NEOMOTE_1_I2C_0_MASTER.c ****             if(NEOMOTE_1_I2C_0_CHECK_ADDR_NAK(NEOMOTE_1_I2C_0_CSR_REG))
 596              		.loc 1 418 0
 597 0098 44F6D713 		movw	r3, #:lower16:1073760727
 598 009c C4F20003 		movt	r3, #:upper16:1073760727
 599 00a0 1B78     		ldrb	r3, [r3, #0]
 600 00a2 DBB2     		uxtb	r3, r3
 601 00a4 03F00A03 		and	r3, r3, #10
 602 00a8 0A2B     		cmp	r3, #10
 603 00aa 0AD1     		bne	.L33
 419:.\Generated_Source\PSoC5/NEOMOTE_1_I2C_0_MASTER.c ****             {
ARM GAS  C:\Users\karunmj\AppData\Local\Temp\ccwPGOm2.s 			page 19


 420:.\Generated_Source\PSoC5/NEOMOTE_1_I2C_0_MASTER.c ****                 /* Address has been NACKed: reset FSM to IDLE */
 421:.\Generated_Source\PSoC5/NEOMOTE_1_I2C_0_MASTER.c ****                 NEOMOTE_1_I2C_0_state = NEOMOTE_1_I2C_0_SM_IDLE;
 604              		.loc 1 421 0
 605 00ac 40F20003 		movw	r3, #:lower16:NEOMOTE_1_I2C_0_state
 606 00b0 C0F20003 		movt	r3, #:upper16:NEOMOTE_1_I2C_0_state
 607 00b4 4FF01002 		mov	r2, #16
 608 00b8 1A70     		strb	r2, [r3, #0]
 422:.\Generated_Source\PSoC5/NEOMOTE_1_I2C_0_MASTER.c ****                 errStatus = NEOMOTE_1_I2C_0_MSTR_ERR_LB_NAK;
 609              		.loc 1 422 0
 610 00ba 4FF00303 		mov	r3, #3
 611 00be FB73     		strb	r3, [r7, #15]
 612 00c0 02E0     		b	.L29
 613              	.L33:
 423:.\Generated_Source\PSoC5/NEOMOTE_1_I2C_0_MASTER.c ****             }
 424:.\Generated_Source\PSoC5/NEOMOTE_1_I2C_0_MASTER.c ****             else
 425:.\Generated_Source\PSoC5/NEOMOTE_1_I2C_0_MASTER.c ****             {
 426:.\Generated_Source\PSoC5/NEOMOTE_1_I2C_0_MASTER.c ****                 /* ReStart was sent witout errors */
 427:.\Generated_Source\PSoC5/NEOMOTE_1_I2C_0_MASTER.c ****                 errStatus = NEOMOTE_1_I2C_0_MSTR_NO_ERROR;
 614              		.loc 1 427 0
 615 00c2 4FF00003 		mov	r3, #0
 616 00c6 FB73     		strb	r3, [r7, #15]
 617              	.L29:
 428:.\Generated_Source\PSoC5/NEOMOTE_1_I2C_0_MASTER.c ****             }
 429:.\Generated_Source\PSoC5/NEOMOTE_1_I2C_0_MASTER.c ****     }
 430:.\Generated_Source\PSoC5/NEOMOTE_1_I2C_0_MASTER.c **** 
 431:.\Generated_Source\PSoC5/NEOMOTE_1_I2C_0_MASTER.c ****     return(errStatus);
 618              		.loc 1 431 0
 619 00c8 FB7B     		ldrb	r3, [r7, #15]	@ zero_extendqisi2
 432:.\Generated_Source\PSoC5/NEOMOTE_1_I2C_0_MASTER.c **** }
 620              		.loc 1 432 0
 621 00ca 1846     		mov	r0, r3
 622 00cc 07F11407 		add	r7, r7, #20
 623 00d0 BD46     		mov	sp, r7
 624 00d2 80BC     		pop	{r7}
 625 00d4 7047     		bx	lr
 626              		.cfi_endproc
 627              	.LFE3:
 628              		.size	NEOMOTE_1_I2C_0_MasterSendRestart, .-NEOMOTE_1_I2C_0_MasterSendRestart
 629 00d6 00BF     		.section	.text.NEOMOTE_1_I2C_0_MasterSendStop,"ax",%progbits
 630              		.align	2
 631              		.global	NEOMOTE_1_I2C_0_MasterSendStop
 632              		.thumb
 633              		.thumb_func
 634              		.type	NEOMOTE_1_I2C_0_MasterSendStop, %function
 635              	NEOMOTE_1_I2C_0_MasterSendStop:
 636              	.LFB4:
 433:.\Generated_Source\PSoC5/NEOMOTE_1_I2C_0_MASTER.c **** 
 434:.\Generated_Source\PSoC5/NEOMOTE_1_I2C_0_MASTER.c **** 
 435:.\Generated_Source\PSoC5/NEOMOTE_1_I2C_0_MASTER.c **** /*******************************************************************************
 436:.\Generated_Source\PSoC5/NEOMOTE_1_I2C_0_MASTER.c **** * Function Name: NEOMOTE_1_I2C_0_MasterSendStop
 437:.\Generated_Source\PSoC5/NEOMOTE_1_I2C_0_MASTER.c **** ********************************************************************************
 438:.\Generated_Source\PSoC5/NEOMOTE_1_I2C_0_MASTER.c **** *
 439:.\Generated_Source\PSoC5/NEOMOTE_1_I2C_0_MASTER.c **** * Summary:
 440:.\Generated_Source\PSoC5/NEOMOTE_1_I2C_0_MASTER.c **** *  Generates I2C Stop condition on bus. Function do nothing if Start or Restart
 441:.\Generated_Source\PSoC5/NEOMOTE_1_I2C_0_MASTER.c **** *  condition was failed before call this function.
 442:.\Generated_Source\PSoC5/NEOMOTE_1_I2C_0_MASTER.c **** *
 443:.\Generated_Source\PSoC5/NEOMOTE_1_I2C_0_MASTER.c **** * Parameters:
ARM GAS  C:\Users\karunmj\AppData\Local\Temp\ccwPGOm2.s 			page 20


 444:.\Generated_Source\PSoC5/NEOMOTE_1_I2C_0_MASTER.c **** *  None
 445:.\Generated_Source\PSoC5/NEOMOTE_1_I2C_0_MASTER.c **** *
 446:.\Generated_Source\PSoC5/NEOMOTE_1_I2C_0_MASTER.c **** * Return:
 447:.\Generated_Source\PSoC5/NEOMOTE_1_I2C_0_MASTER.c **** *  Status error - zero means no errors.
 448:.\Generated_Source\PSoC5/NEOMOTE_1_I2C_0_MASTER.c **** *
 449:.\Generated_Source\PSoC5/NEOMOTE_1_I2C_0_MASTER.c **** * Side Effects:
 450:.\Generated_Source\PSoC5/NEOMOTE_1_I2C_0_MASTER.c **** *  The Stop generation is required to complete transaction.
 451:.\Generated_Source\PSoC5/NEOMOTE_1_I2C_0_MASTER.c **** *  This function does not wait whileStop condition will be generated.
 452:.\Generated_Source\PSoC5/NEOMOTE_1_I2C_0_MASTER.c **** *
 453:.\Generated_Source\PSoC5/NEOMOTE_1_I2C_0_MASTER.c **** * Global variables:
 454:.\Generated_Source\PSoC5/NEOMOTE_1_I2C_0_MASTER.c **** *  NEOMOTE_1_I2C_0_state - used to store current state of software FSM.
 455:.\Generated_Source\PSoC5/NEOMOTE_1_I2C_0_MASTER.c **** *
 456:.\Generated_Source\PSoC5/NEOMOTE_1_I2C_0_MASTER.c **** * Reentrant:
 457:.\Generated_Source\PSoC5/NEOMOTE_1_I2C_0_MASTER.c **** *  No
 458:.\Generated_Source\PSoC5/NEOMOTE_1_I2C_0_MASTER.c **** *
 459:.\Generated_Source\PSoC5/NEOMOTE_1_I2C_0_MASTER.c **** *******************************************************************************/
 460:.\Generated_Source\PSoC5/NEOMOTE_1_I2C_0_MASTER.c **** uint8 NEOMOTE_1_I2C_0_MasterSendStop(void) 
 461:.\Generated_Source\PSoC5/NEOMOTE_1_I2C_0_MASTER.c **** {
 637              		.loc 1 461 0
 638              		.cfi_startproc
 639              		@ args = 0, pretend = 0, frame = 8
 640              		@ frame_needed = 1, uses_anonymous_args = 0
 641              		@ link register save eliminated.
 642 0000 80B4     		push	{r7}
 643              	.LCFI12:
 644              		.cfi_def_cfa_offset 4
 645 0002 83B0     		sub	sp, sp, #12
 646              	.LCFI13:
 647              		.cfi_def_cfa_offset 16
 648 0004 00AF     		add	r7, sp, #0
 649              		.cfi_offset 7, -4
 650              	.LCFI14:
 651              		.cfi_def_cfa_register 7
 462:.\Generated_Source\PSoC5/NEOMOTE_1_I2C_0_MASTER.c ****     uint8 errStatus;
 463:.\Generated_Source\PSoC5/NEOMOTE_1_I2C_0_MASTER.c **** 
 464:.\Generated_Source\PSoC5/NEOMOTE_1_I2C_0_MASTER.c ****     errStatus = NEOMOTE_1_I2C_0_MSTR_NOT_READY;
 652              		.loc 1 464 0
 653 0006 4FF00203 		mov	r3, #2
 654 000a FB71     		strb	r3, [r7, #7]
 465:.\Generated_Source\PSoC5/NEOMOTE_1_I2C_0_MASTER.c **** 
 466:.\Generated_Source\PSoC5/NEOMOTE_1_I2C_0_MASTER.c ****     /* Check if START condition was generated */
 467:.\Generated_Source\PSoC5/NEOMOTE_1_I2C_0_MASTER.c ****     if(NEOMOTE_1_I2C_0_CHECK_MASTER_MODE(NEOMOTE_1_I2C_0_MCSR_REG))
 655              		.loc 1 467 0
 656 000c 44F6D913 		movw	r3, #:lower16:1073760729
 657 0010 C4F20003 		movt	r3, #:upper16:1073760729
 658 0014 1B78     		ldrb	r3, [r3, #0]
 659 0016 DBB2     		uxtb	r3, r3
 660 0018 03F00403 		and	r3, r3, #4
 661 001c 002B     		cmp	r3, #0
 662 001e 21D0     		beq	.L36
 468:.\Generated_Source\PSoC5/NEOMOTE_1_I2C_0_MASTER.c ****     {
 469:.\Generated_Source\PSoC5/NEOMOTE_1_I2C_0_MASTER.c ****         NEOMOTE_1_I2C_0_GENERATE_STOP_MANUAL;              /* Generate STOP */
 663              		.loc 1 469 0
 664 0020 44F6D913 		movw	r3, #:lower16:1073760729
 665 0024 C4F20003 		movt	r3, #:upper16:1073760729
 666 0028 4FF01002 		mov	r2, #16
 667 002c 1A70     		strb	r2, [r3, #0]
ARM GAS  C:\Users\karunmj\AppData\Local\Temp\ccwPGOm2.s 			page 21


 668 002e 44F6D713 		movw	r3, #:lower16:1073760727
 669 0032 C4F20003 		movt	r3, #:upper16:1073760727
 670 0036 4FF00402 		mov	r2, #4
 671 003a 1A70     		strb	r2, [r3, #0]
 470:.\Generated_Source\PSoC5/NEOMOTE_1_I2C_0_MASTER.c ****         NEOMOTE_1_I2C_0_state = NEOMOTE_1_I2C_0_SM_IDLE;  /* Reset state to IDLE */
 672              		.loc 1 470 0
 673 003c 40F20003 		movw	r3, #:lower16:NEOMOTE_1_I2C_0_state
 674 0040 C0F20003 		movt	r3, #:upper16:NEOMOTE_1_I2C_0_state
 675 0044 4FF01002 		mov	r2, #16
 676 0048 1A70     		strb	r2, [r3, #0]
 677              	.L37:
 471:.\Generated_Source\PSoC5/NEOMOTE_1_I2C_0_MASTER.c **** 
 472:.\Generated_Source\PSoC5/NEOMOTE_1_I2C_0_MASTER.c ****         while(NEOMOTE_1_I2C_0_WAIT_STOP_COMPLETE(NEOMOTE_1_I2C_0_CSR_REG))
 678              		.loc 1 472 0
 679 004a 44F6D713 		movw	r3, #:lower16:1073760727
 680 004e C4F20003 		movt	r3, #:upper16:1073760727
 681 0052 1B78     		ldrb	r3, [r3, #0]
 682 0054 DBB2     		uxtb	r3, r3
 683 0056 03F02103 		and	r3, r3, #33
 684 005a 002B     		cmp	r3, #0
 685 005c F5D0     		beq	.L37
 473:.\Generated_Source\PSoC5/NEOMOTE_1_I2C_0_MASTER.c ****         {
 474:.\Generated_Source\PSoC5/NEOMOTE_1_I2C_0_MASTER.c ****             ; /* Wait for Stop to be generated */
 475:.\Generated_Source\PSoC5/NEOMOTE_1_I2C_0_MASTER.c ****         }
 476:.\Generated_Source\PSoC5/NEOMOTE_1_I2C_0_MASTER.c **** 
 477:.\Generated_Source\PSoC5/NEOMOTE_1_I2C_0_MASTER.c ****         errStatus = NEOMOTE_1_I2C_0_MSTR_NO_ERROR;
 686              		.loc 1 477 0
 687 005e 4FF00003 		mov	r3, #0
 688 0062 FB71     		strb	r3, [r7, #7]
 689              	.L36:
 478:.\Generated_Source\PSoC5/NEOMOTE_1_I2C_0_MASTER.c ****         #if(NEOMOTE_1_I2C_0_MODE_MULTI_MASTER_ENABLED)
 479:.\Generated_Source\PSoC5/NEOMOTE_1_I2C_0_MASTER.c ****             if(NEOMOTE_1_I2C_0_CHECK_LOST_ARB(NEOMOTE_1_I2C_0_CSR_REG))
 480:.\Generated_Source\PSoC5/NEOMOTE_1_I2C_0_MASTER.c ****             {
 481:.\Generated_Source\PSoC5/NEOMOTE_1_I2C_0_MASTER.c ****                 NEOMOTE_1_I2C_0_BUS_RELEASE;
 482:.\Generated_Source\PSoC5/NEOMOTE_1_I2C_0_MASTER.c **** 
 483:.\Generated_Source\PSoC5/NEOMOTE_1_I2C_0_MASTER.c ****                 /* NACK was generated by enother instead Stop */
 484:.\Generated_Source\PSoC5/NEOMOTE_1_I2C_0_MASTER.c ****                 errStatus = NEOMOTE_1_I2C_0_MSTR_ERR_ARB_LOST;
 485:.\Generated_Source\PSoC5/NEOMOTE_1_I2C_0_MASTER.c ****             }
 486:.\Generated_Source\PSoC5/NEOMOTE_1_I2C_0_MASTER.c ****         #endif /* (NEOMOTE_1_I2C_0_MODE_MULTI_MASTER_ENABLED) */
 487:.\Generated_Source\PSoC5/NEOMOTE_1_I2C_0_MASTER.c ****     }
 488:.\Generated_Source\PSoC5/NEOMOTE_1_I2C_0_MASTER.c **** 
 489:.\Generated_Source\PSoC5/NEOMOTE_1_I2C_0_MASTER.c ****     return(errStatus);
 690              		.loc 1 489 0
 691 0064 FB79     		ldrb	r3, [r7, #7]	@ zero_extendqisi2
 490:.\Generated_Source\PSoC5/NEOMOTE_1_I2C_0_MASTER.c **** }
 692              		.loc 1 490 0
 693 0066 1846     		mov	r0, r3
 694 0068 07F10C07 		add	r7, r7, #12
 695 006c BD46     		mov	sp, r7
 696 006e 80BC     		pop	{r7}
 697 0070 7047     		bx	lr
 698              		.cfi_endproc
 699              	.LFE4:
 700              		.size	NEOMOTE_1_I2C_0_MasterSendStop, .-NEOMOTE_1_I2C_0_MasterSendStop
 701 0072 00BF     		.section	.text.NEOMOTE_1_I2C_0_MasterWriteByte,"ax",%progbits
 702              		.align	2
 703              		.global	NEOMOTE_1_I2C_0_MasterWriteByte
ARM GAS  C:\Users\karunmj\AppData\Local\Temp\ccwPGOm2.s 			page 22


 704              		.thumb
 705              		.thumb_func
 706              		.type	NEOMOTE_1_I2C_0_MasterWriteByte, %function
 707              	NEOMOTE_1_I2C_0_MasterWriteByte:
 708              	.LFB5:
 491:.\Generated_Source\PSoC5/NEOMOTE_1_I2C_0_MASTER.c **** 
 492:.\Generated_Source\PSoC5/NEOMOTE_1_I2C_0_MASTER.c **** 
 493:.\Generated_Source\PSoC5/NEOMOTE_1_I2C_0_MASTER.c **** /*******************************************************************************
 494:.\Generated_Source\PSoC5/NEOMOTE_1_I2C_0_MASTER.c **** * Function Name: NEOMOTE_1_I2C_0_MasterWriteByte
 495:.\Generated_Source\PSoC5/NEOMOTE_1_I2C_0_MASTER.c **** ********************************************************************************
 496:.\Generated_Source\PSoC5/NEOMOTE_1_I2C_0_MASTER.c **** *
 497:.\Generated_Source\PSoC5/NEOMOTE_1_I2C_0_MASTER.c **** * Summary:
 498:.\Generated_Source\PSoC5/NEOMOTE_1_I2C_0_MASTER.c **** *  Sends one byte to a slave. A valid Start or ReStart condition must be
 499:.\Generated_Source\PSoC5/NEOMOTE_1_I2C_0_MASTER.c **** *  generated before this call this function. Function do nothing if Start or
 500:.\Generated_Source\PSoC5/NEOMOTE_1_I2C_0_MASTER.c **** *  Restart condition was failed before call this function.
 501:.\Generated_Source\PSoC5/NEOMOTE_1_I2C_0_MASTER.c **** *
 502:.\Generated_Source\PSoC5/NEOMOTE_1_I2C_0_MASTER.c **** * Parameters:
 503:.\Generated_Source\PSoC5/NEOMOTE_1_I2C_0_MASTER.c **** *  data:  The data byte to send to the slave.
 504:.\Generated_Source\PSoC5/NEOMOTE_1_I2C_0_MASTER.c **** *
 505:.\Generated_Source\PSoC5/NEOMOTE_1_I2C_0_MASTER.c **** * Return:
 506:.\Generated_Source\PSoC5/NEOMOTE_1_I2C_0_MASTER.c **** *  Status error - zero means no errors.
 507:.\Generated_Source\PSoC5/NEOMOTE_1_I2C_0_MASTER.c **** *
 508:.\Generated_Source\PSoC5/NEOMOTE_1_I2C_0_MASTER.c **** * Side Effects:
 509:.\Generated_Source\PSoC5/NEOMOTE_1_I2C_0_MASTER.c **** *  This function is entered without a 'byte complete' bit set in the I2C_CSR
 510:.\Generated_Source\PSoC5/NEOMOTE_1_I2C_0_MASTER.c **** *  register. It does not exit until it will be set.
 511:.\Generated_Source\PSoC5/NEOMOTE_1_I2C_0_MASTER.c **** *
 512:.\Generated_Source\PSoC5/NEOMOTE_1_I2C_0_MASTER.c **** * Global variables:
 513:.\Generated_Source\PSoC5/NEOMOTE_1_I2C_0_MASTER.c **** *  NEOMOTE_1_I2C_0_state - used to store current state of software FSM.
 514:.\Generated_Source\PSoC5/NEOMOTE_1_I2C_0_MASTER.c **** *
 515:.\Generated_Source\PSoC5/NEOMOTE_1_I2C_0_MASTER.c **** *******************************************************************************/
 516:.\Generated_Source\PSoC5/NEOMOTE_1_I2C_0_MASTER.c **** uint8 NEOMOTE_1_I2C_0_MasterWriteByte(uint8 theByte) 
 517:.\Generated_Source\PSoC5/NEOMOTE_1_I2C_0_MASTER.c **** {
 709              		.loc 1 517 0
 710              		.cfi_startproc
 711              		@ args = 0, pretend = 0, frame = 16
 712              		@ frame_needed = 1, uses_anonymous_args = 0
 713              		@ link register save eliminated.
 714 0000 80B4     		push	{r7}
 715              	.LCFI15:
 716              		.cfi_def_cfa_offset 4
 717 0002 85B0     		sub	sp, sp, #20
 718              	.LCFI16:
 719              		.cfi_def_cfa_offset 24
 720 0004 00AF     		add	r7, sp, #0
 721              		.cfi_offset 7, -4
 722              	.LCFI17:
 723              		.cfi_def_cfa_register 7
 724 0006 0346     		mov	r3, r0
 725 0008 FB71     		strb	r3, [r7, #7]
 518:.\Generated_Source\PSoC5/NEOMOTE_1_I2C_0_MASTER.c ****     uint8 errStatus;
 519:.\Generated_Source\PSoC5/NEOMOTE_1_I2C_0_MASTER.c **** 
 520:.\Generated_Source\PSoC5/NEOMOTE_1_I2C_0_MASTER.c ****     errStatus = NEOMOTE_1_I2C_0_MSTR_NOT_READY;
 726              		.loc 1 520 0
 727 000a 4FF00203 		mov	r3, #2
 728 000e FB73     		strb	r3, [r7, #15]
 521:.\Generated_Source\PSoC5/NEOMOTE_1_I2C_0_MASTER.c **** 
 522:.\Generated_Source\PSoC5/NEOMOTE_1_I2C_0_MASTER.c ****     /* Check if START condition was generated */
ARM GAS  C:\Users\karunmj\AppData\Local\Temp\ccwPGOm2.s 			page 23


 523:.\Generated_Source\PSoC5/NEOMOTE_1_I2C_0_MASTER.c ****     if(NEOMOTE_1_I2C_0_CHECK_MASTER_MODE(NEOMOTE_1_I2C_0_MCSR_REG))
 729              		.loc 1 523 0
 730 0010 44F6D913 		movw	r3, #:lower16:1073760729
 731 0014 C4F20003 		movt	r3, #:upper16:1073760729
 732 0018 1B78     		ldrb	r3, [r3, #0]
 733 001a DBB2     		uxtb	r3, r3
 734 001c 03F00403 		and	r3, r3, #4
 735 0020 002B     		cmp	r3, #0
 736 0022 3CD0     		beq	.L40
 524:.\Generated_Source\PSoC5/NEOMOTE_1_I2C_0_MASTER.c ****     {
 525:.\Generated_Source\PSoC5/NEOMOTE_1_I2C_0_MASTER.c ****         NEOMOTE_1_I2C_0_DATA_REG = theByte;                        /* Write DATA register */
 737              		.loc 1 525 0
 738 0024 44F6D813 		movw	r3, #:lower16:1073760728
 739 0028 C4F20003 		movt	r3, #:upper16:1073760728
 740 002c FA79     		ldrb	r2, [r7, #7]
 741 002e 1A70     		strb	r2, [r3, #0]
 526:.\Generated_Source\PSoC5/NEOMOTE_1_I2C_0_MASTER.c ****         NEOMOTE_1_I2C_0_TRANSMIT_DATA_MANUAL;                      /* Set transmit mode */
 742              		.loc 1 526 0
 743 0030 44F6D713 		movw	r3, #:lower16:1073760727
 744 0034 C4F20003 		movt	r3, #:upper16:1073760727
 745 0038 4FF00402 		mov	r2, #4
 746 003c 1A70     		strb	r2, [r3, #0]
 527:.\Generated_Source\PSoC5/NEOMOTE_1_I2C_0_MASTER.c ****         NEOMOTE_1_I2C_0_state = NEOMOTE_1_I2C_0_SM_MSTR_WR_DATA;  /* Set state WR_DATA */
 747              		.loc 1 527 0
 748 003e 40F20003 		movw	r3, #:lower16:NEOMOTE_1_I2C_0_state
 749 0042 C0F20003 		movt	r3, #:upper16:NEOMOTE_1_I2C_0_state
 750 0046 4FF04602 		mov	r2, #70
 751 004a 1A70     		strb	r2, [r3, #0]
 752              	.L41:
 528:.\Generated_Source\PSoC5/NEOMOTE_1_I2C_0_MASTER.c **** 
 529:.\Generated_Source\PSoC5/NEOMOTE_1_I2C_0_MASTER.c ****         /* Make sure the last byte has been transfered first */
 530:.\Generated_Source\PSoC5/NEOMOTE_1_I2C_0_MASTER.c ****         while(NEOMOTE_1_I2C_0_WAIT_BYTE_COMPLETE(NEOMOTE_1_I2C_0_CSR_REG))
 753              		.loc 1 530 0
 754 004c 44F6D713 		movw	r3, #:lower16:1073760727
 755 0050 C4F20003 		movt	r3, #:upper16:1073760727
 756 0054 1B78     		ldrb	r3, [r3, #0]
 757 0056 DBB2     		uxtb	r3, r3
 758 0058 03F00103 		and	r3, r3, #1
 759 005c 002B     		cmp	r3, #0
 760 005e F5D0     		beq	.L41
 531:.\Generated_Source\PSoC5/NEOMOTE_1_I2C_0_MASTER.c ****         {
 532:.\Generated_Source\PSoC5/NEOMOTE_1_I2C_0_MASTER.c ****             ; /* Wait for byte to be written */
 533:.\Generated_Source\PSoC5/NEOMOTE_1_I2C_0_MASTER.c ****         }
 534:.\Generated_Source\PSoC5/NEOMOTE_1_I2C_0_MASTER.c **** 
 535:.\Generated_Source\PSoC5/NEOMOTE_1_I2C_0_MASTER.c ****         #if(NEOMOTE_1_I2C_0_MODE_MULTI_MASTER_ENABLED)
 536:.\Generated_Source\PSoC5/NEOMOTE_1_I2C_0_MASTER.c ****             if(NEOMOTE_1_I2C_0_CHECK_LOST_ARB(NEOMOTE_1_I2C_0_CSR_REG))
 537:.\Generated_Source\PSoC5/NEOMOTE_1_I2C_0_MASTER.c ****             {
 538:.\Generated_Source\PSoC5/NEOMOTE_1_I2C_0_MASTER.c ****                 NEOMOTE_1_I2C_0_BUS_RELEASE;
 539:.\Generated_Source\PSoC5/NEOMOTE_1_I2C_0_MASTER.c **** 
 540:.\Generated_Source\PSoC5/NEOMOTE_1_I2C_0_MASTER.c ****                 /* Master lost arbitrage: reset FSM to IDLE */
 541:.\Generated_Source\PSoC5/NEOMOTE_1_I2C_0_MASTER.c ****                 NEOMOTE_1_I2C_0_state = NEOMOTE_1_I2C_0_SM_IDLE;
 542:.\Generated_Source\PSoC5/NEOMOTE_1_I2C_0_MASTER.c ****                 errStatus = NEOMOTE_1_I2C_0_MSTR_ERR_ARB_LOST;
 543:.\Generated_Source\PSoC5/NEOMOTE_1_I2C_0_MASTER.c ****             }
 544:.\Generated_Source\PSoC5/NEOMOTE_1_I2C_0_MASTER.c ****             /* Check LRB bit */
 545:.\Generated_Source\PSoC5/NEOMOTE_1_I2C_0_MASTER.c ****             else
 546:.\Generated_Source\PSoC5/NEOMOTE_1_I2C_0_MASTER.c ****         #endif /* (NEOMOTE_1_I2C_0_MODE_MULTI_MASTER_ENABLED) */
 547:.\Generated_Source\PSoC5/NEOMOTE_1_I2C_0_MASTER.c **** 
ARM GAS  C:\Users\karunmj\AppData\Local\Temp\ccwPGOm2.s 			page 24


 548:.\Generated_Source\PSoC5/NEOMOTE_1_I2C_0_MASTER.c ****             if(NEOMOTE_1_I2C_0_CHECK_DATA_ACK(NEOMOTE_1_I2C_0_CSR_REG))
 761              		.loc 1 548 0
 762 0060 44F6D713 		movw	r3, #:lower16:1073760727
 763 0064 C4F20003 		movt	r3, #:upper16:1073760727
 764 0068 1B78     		ldrb	r3, [r3, #0]
 765 006a DBB2     		uxtb	r3, r3
 766 006c 03F00203 		and	r3, r3, #2
 767 0070 002B     		cmp	r3, #0
 768 0072 0AD1     		bne	.L42
 549:.\Generated_Source\PSoC5/NEOMOTE_1_I2C_0_MASTER.c ****             {
 550:.\Generated_Source\PSoC5/NEOMOTE_1_I2C_0_MASTER.c ****                 NEOMOTE_1_I2C_0_state = NEOMOTE_1_I2C_0_SM_MSTR_HALT;     /* Set state to HALT */
 769              		.loc 1 550 0
 770 0074 40F20003 		movw	r3, #:lower16:NEOMOTE_1_I2C_0_state
 771 0078 C0F20003 		movt	r3, #:upper16:NEOMOTE_1_I2C_0_state
 772 007c 4FF06002 		mov	r2, #96
 773 0080 1A70     		strb	r2, [r3, #0]
 551:.\Generated_Source\PSoC5/NEOMOTE_1_I2C_0_MASTER.c ****                 errStatus = NEOMOTE_1_I2C_0_MSTR_NO_ERROR;                 /* The LRB was ACKed */
 774              		.loc 1 551 0
 775 0082 4FF00003 		mov	r3, #0
 776 0086 FB73     		strb	r3, [r7, #15]
 777 0088 09E0     		b	.L40
 778              	.L42:
 552:.\Generated_Source\PSoC5/NEOMOTE_1_I2C_0_MASTER.c ****             }
 553:.\Generated_Source\PSoC5/NEOMOTE_1_I2C_0_MASTER.c ****             else
 554:.\Generated_Source\PSoC5/NEOMOTE_1_I2C_0_MASTER.c ****             {
 555:.\Generated_Source\PSoC5/NEOMOTE_1_I2C_0_MASTER.c ****                 NEOMOTE_1_I2C_0_state = NEOMOTE_1_I2C_0_SM_MSTR_HALT;     /* Set state to HALT */
 779              		.loc 1 555 0
 780 008a 40F20003 		movw	r3, #:lower16:NEOMOTE_1_I2C_0_state
 781 008e C0F20003 		movt	r3, #:upper16:NEOMOTE_1_I2C_0_state
 782 0092 4FF06002 		mov	r2, #96
 783 0096 1A70     		strb	r2, [r3, #0]
 556:.\Generated_Source\PSoC5/NEOMOTE_1_I2C_0_MASTER.c ****                 errStatus = NEOMOTE_1_I2C_0_MSTR_ERR_LB_NAK;               /* The LRB was NACKed */
 784              		.loc 1 556 0
 785 0098 4FF00303 		mov	r3, #3
 786 009c FB73     		strb	r3, [r7, #15]
 787              	.L40:
 557:.\Generated_Source\PSoC5/NEOMOTE_1_I2C_0_MASTER.c ****             }
 558:.\Generated_Source\PSoC5/NEOMOTE_1_I2C_0_MASTER.c ****     }
 559:.\Generated_Source\PSoC5/NEOMOTE_1_I2C_0_MASTER.c **** 
 560:.\Generated_Source\PSoC5/NEOMOTE_1_I2C_0_MASTER.c ****     return(errStatus);
 788              		.loc 1 560 0
 789 009e FB7B     		ldrb	r3, [r7, #15]	@ zero_extendqisi2
 561:.\Generated_Source\PSoC5/NEOMOTE_1_I2C_0_MASTER.c **** }
 790              		.loc 1 561 0
 791 00a0 1846     		mov	r0, r3
 792 00a2 07F11407 		add	r7, r7, #20
 793 00a6 BD46     		mov	sp, r7
 794 00a8 80BC     		pop	{r7}
 795 00aa 7047     		bx	lr
 796              		.cfi_endproc
 797              	.LFE5:
 798              		.size	NEOMOTE_1_I2C_0_MasterWriteByte, .-NEOMOTE_1_I2C_0_MasterWriteByte
 799              		.section	.text.NEOMOTE_1_I2C_0_MasterReadByte,"ax",%progbits
 800              		.align	2
 801              		.global	NEOMOTE_1_I2C_0_MasterReadByte
 802              		.thumb
 803              		.thumb_func
ARM GAS  C:\Users\karunmj\AppData\Local\Temp\ccwPGOm2.s 			page 25


 804              		.type	NEOMOTE_1_I2C_0_MasterReadByte, %function
 805              	NEOMOTE_1_I2C_0_MasterReadByte:
 806              	.LFB6:
 562:.\Generated_Source\PSoC5/NEOMOTE_1_I2C_0_MASTER.c **** 
 563:.\Generated_Source\PSoC5/NEOMOTE_1_I2C_0_MASTER.c **** 
 564:.\Generated_Source\PSoC5/NEOMOTE_1_I2C_0_MASTER.c **** /*******************************************************************************
 565:.\Generated_Source\PSoC5/NEOMOTE_1_I2C_0_MASTER.c **** * Function Name: NEOMOTE_1_I2C_0_MasterReadByte
 566:.\Generated_Source\PSoC5/NEOMOTE_1_I2C_0_MASTER.c **** ********************************************************************************
 567:.\Generated_Source\PSoC5/NEOMOTE_1_I2C_0_MASTER.c **** *
 568:.\Generated_Source\PSoC5/NEOMOTE_1_I2C_0_MASTER.c **** * Summary:
 569:.\Generated_Source\PSoC5/NEOMOTE_1_I2C_0_MASTER.c **** *  Reads one byte from a slave and ACK or NACK the transfer. A valid Start or
 570:.\Generated_Source\PSoC5/NEOMOTE_1_I2C_0_MASTER.c **** *  ReStart condition must be generated before this call this function. Function
 571:.\Generated_Source\PSoC5/NEOMOTE_1_I2C_0_MASTER.c **** *  do nothing if Start or Restart condition was failed before call this
 572:.\Generated_Source\PSoC5/NEOMOTE_1_I2C_0_MASTER.c **** *  function.
 573:.\Generated_Source\PSoC5/NEOMOTE_1_I2C_0_MASTER.c **** *
 574:.\Generated_Source\PSoC5/NEOMOTE_1_I2C_0_MASTER.c **** * Parameters:
 575:.\Generated_Source\PSoC5/NEOMOTE_1_I2C_0_MASTER.c **** *  acknNack:  Zero, response with NACK, if non-zero response with ACK.
 576:.\Generated_Source\PSoC5/NEOMOTE_1_I2C_0_MASTER.c **** *
 577:.\Generated_Source\PSoC5/NEOMOTE_1_I2C_0_MASTER.c **** * Return:
 578:.\Generated_Source\PSoC5/NEOMOTE_1_I2C_0_MASTER.c **** *  Byte read from slave.
 579:.\Generated_Source\PSoC5/NEOMOTE_1_I2C_0_MASTER.c **** *
 580:.\Generated_Source\PSoC5/NEOMOTE_1_I2C_0_MASTER.c **** * Side Effects:
 581:.\Generated_Source\PSoC5/NEOMOTE_1_I2C_0_MASTER.c **** *  This function is entered without a 'byte complete' bit set in the I2C_CSR
 582:.\Generated_Source\PSoC5/NEOMOTE_1_I2C_0_MASTER.c **** *  register. It does not exit until it will be set.
 583:.\Generated_Source\PSoC5/NEOMOTE_1_I2C_0_MASTER.c **** *
 584:.\Generated_Source\PSoC5/NEOMOTE_1_I2C_0_MASTER.c **** * Global variables:
 585:.\Generated_Source\PSoC5/NEOMOTE_1_I2C_0_MASTER.c **** *  NEOMOTE_1_I2C_0_state - used to store current state of software FSM.
 586:.\Generated_Source\PSoC5/NEOMOTE_1_I2C_0_MASTER.c **** *
 587:.\Generated_Source\PSoC5/NEOMOTE_1_I2C_0_MASTER.c **** * Reentrant:
 588:.\Generated_Source\PSoC5/NEOMOTE_1_I2C_0_MASTER.c **** *  No
 589:.\Generated_Source\PSoC5/NEOMOTE_1_I2C_0_MASTER.c **** *
 590:.\Generated_Source\PSoC5/NEOMOTE_1_I2C_0_MASTER.c **** *******************************************************************************/
 591:.\Generated_Source\PSoC5/NEOMOTE_1_I2C_0_MASTER.c **** uint8 NEOMOTE_1_I2C_0_MasterReadByte(uint8 acknNak) 
 592:.\Generated_Source\PSoC5/NEOMOTE_1_I2C_0_MASTER.c **** {
 807              		.loc 1 592 0
 808              		.cfi_startproc
 809              		@ args = 0, pretend = 0, frame = 16
 810              		@ frame_needed = 1, uses_anonymous_args = 0
 811              		@ link register save eliminated.
 812 0000 80B4     		push	{r7}
 813              	.LCFI18:
 814              		.cfi_def_cfa_offset 4
 815 0002 85B0     		sub	sp, sp, #20
 816              	.LCFI19:
 817              		.cfi_def_cfa_offset 24
 818 0004 00AF     		add	r7, sp, #0
 819              		.cfi_offset 7, -4
 820              	.LCFI20:
 821              		.cfi_def_cfa_register 7
 822 0006 0346     		mov	r3, r0
 823 0008 FB71     		strb	r3, [r7, #7]
 593:.\Generated_Source\PSoC5/NEOMOTE_1_I2C_0_MASTER.c ****     uint8 theByte;
 594:.\Generated_Source\PSoC5/NEOMOTE_1_I2C_0_MASTER.c **** 
 595:.\Generated_Source\PSoC5/NEOMOTE_1_I2C_0_MASTER.c ****     theByte = 0u;
 824              		.loc 1 595 0
 825 000a 4FF00003 		mov	r3, #0
 826 000e FB73     		strb	r3, [r7, #15]
ARM GAS  C:\Users\karunmj\AppData\Local\Temp\ccwPGOm2.s 			page 26


 596:.\Generated_Source\PSoC5/NEOMOTE_1_I2C_0_MASTER.c **** 
 597:.\Generated_Source\PSoC5/NEOMOTE_1_I2C_0_MASTER.c ****     /* Check if START condition was generated */
 598:.\Generated_Source\PSoC5/NEOMOTE_1_I2C_0_MASTER.c ****     if(NEOMOTE_1_I2C_0_CHECK_MASTER_MODE(NEOMOTE_1_I2C_0_MCSR_REG))
 827              		.loc 1 598 0
 828 0010 44F6D913 		movw	r3, #:lower16:1073760729
 829 0014 C4F20003 		movt	r3, #:upper16:1073760729
 830 0018 1B78     		ldrb	r3, [r3, #0]
 831 001a DBB2     		uxtb	r3, r3
 832 001c 03F00403 		and	r3, r3, #4
 833 0020 002B     		cmp	r3, #0
 834 0022 37D0     		beq	.L45
 599:.\Generated_Source\PSoC5/NEOMOTE_1_I2C_0_MASTER.c ****     {
 600:.\Generated_Source\PSoC5/NEOMOTE_1_I2C_0_MASTER.c ****         /* When address phase need release the bus and receive the byte, then decide ACK or NACK */
 601:.\Generated_Source\PSoC5/NEOMOTE_1_I2C_0_MASTER.c ****         if(NEOMOTE_1_I2C_0_SM_MSTR_RD_ADDR == NEOMOTE_1_I2C_0_state)
 835              		.loc 1 601 0
 836 0024 40F20003 		movw	r3, #:lower16:NEOMOTE_1_I2C_0_state
 837 0028 C0F20003 		movt	r3, #:upper16:NEOMOTE_1_I2C_0_state
 838 002c 1B78     		ldrb	r3, [r3, #0]
 839 002e DBB2     		uxtb	r3, r3
 840 0030 492B     		cmp	r3, #73
 841 0032 0DD1     		bne	.L46
 602:.\Generated_Source\PSoC5/NEOMOTE_1_I2C_0_MASTER.c ****         {
 603:.\Generated_Source\PSoC5/NEOMOTE_1_I2C_0_MASTER.c ****             NEOMOTE_1_I2C_0_state = NEOMOTE_1_I2C_0_SM_MSTR_RD_DATA;
 842              		.loc 1 603 0
 843 0034 40F20003 		movw	r3, #:lower16:NEOMOTE_1_I2C_0_state
 844 0038 C0F20003 		movt	r3, #:upper16:NEOMOTE_1_I2C_0_state
 845 003c 4FF04A02 		mov	r2, #74
 846 0040 1A70     		strb	r2, [r3, #0]
 604:.\Generated_Source\PSoC5/NEOMOTE_1_I2C_0_MASTER.c ****             NEOMOTE_1_I2C_0_READY_TO_READ_MANUAL;
 847              		.loc 1 604 0
 848 0042 44F6D713 		movw	r3, #:lower16:1073760727
 849 0046 C4F20003 		movt	r3, #:upper16:1073760727
 850 004a 4FF00002 		mov	r2, #0
 851 004e 1A70     		strb	r2, [r3, #0]
 852              	.L46:
 605:.\Generated_Source\PSoC5/NEOMOTE_1_I2C_0_MASTER.c ****         }
 606:.\Generated_Source\PSoC5/NEOMOTE_1_I2C_0_MASTER.c **** 
 607:.\Generated_Source\PSoC5/NEOMOTE_1_I2C_0_MASTER.c ****         while(NEOMOTE_1_I2C_0_WAIT_BYTE_COMPLETE(NEOMOTE_1_I2C_0_CSR_REG))
 853              		.loc 1 607 0
 854 0050 44F6D713 		movw	r3, #:lower16:1073760727
 855 0054 C4F20003 		movt	r3, #:upper16:1073760727
 856 0058 1B78     		ldrb	r3, [r3, #0]
 857 005a DBB2     		uxtb	r3, r3
 858 005c 03F00103 		and	r3, r3, #1
 859 0060 002B     		cmp	r3, #0
 860 0062 F5D0     		beq	.L46
 608:.\Generated_Source\PSoC5/NEOMOTE_1_I2C_0_MASTER.c ****         {
 609:.\Generated_Source\PSoC5/NEOMOTE_1_I2C_0_MASTER.c ****             ; /* Wait for byte to be read */
 610:.\Generated_Source\PSoC5/NEOMOTE_1_I2C_0_MASTER.c ****         }
 611:.\Generated_Source\PSoC5/NEOMOTE_1_I2C_0_MASTER.c **** 
 612:.\Generated_Source\PSoC5/NEOMOTE_1_I2C_0_MASTER.c ****         theByte = NEOMOTE_1_I2C_0_DATA_REG;
 861              		.loc 1 612 0
 862 0064 44F6D813 		movw	r3, #:lower16:1073760728
 863 0068 C4F20003 		movt	r3, #:upper16:1073760728
 864 006c 1B78     		ldrb	r3, [r3, #0]
 865 006e FB73     		strb	r3, [r7, #15]
 613:.\Generated_Source\PSoC5/NEOMOTE_1_I2C_0_MASTER.c **** 
ARM GAS  C:\Users\karunmj\AppData\Local\Temp\ccwPGOm2.s 			page 27


 614:.\Generated_Source\PSoC5/NEOMOTE_1_I2C_0_MASTER.c ****         /* Now if the ACK flag was set, ACK the data which will release the bus and
 615:.\Generated_Source\PSoC5/NEOMOTE_1_I2C_0_MASTER.c ****            start the next byte in otherwise do NOTHING to the CSR reg.
 616:.\Generated_Source\PSoC5/NEOMOTE_1_I2C_0_MASTER.c ****            This will allow the calling routine to generate a repeat start or
 617:.\Generated_Source\PSoC5/NEOMOTE_1_I2C_0_MASTER.c ****            stop depending on it's preference. */
 618:.\Generated_Source\PSoC5/NEOMOTE_1_I2C_0_MASTER.c ****         if(acknNak != 0u)   /* Do ACK */
 866              		.loc 1 618 0
 867 0070 FB79     		ldrb	r3, [r7, #7]	@ zero_extendqisi2
 868 0072 002B     		cmp	r3, #0
 869 0074 07D0     		beq	.L47
 619:.\Generated_Source\PSoC5/NEOMOTE_1_I2C_0_MASTER.c ****         {
 620:.\Generated_Source\PSoC5/NEOMOTE_1_I2C_0_MASTER.c ****             NEOMOTE_1_I2C_0_ACK_AND_RECEIVE_MANUAL;
 870              		.loc 1 620 0
 871 0076 44F6D713 		movw	r3, #:lower16:1073760727
 872 007a C4F20003 		movt	r3, #:upper16:1073760727
 873 007e 4FF01002 		mov	r2, #16
 874 0082 1A70     		strb	r2, [r3, #0]
 875 0084 06E0     		b	.L45
 876              	.L47:
 621:.\Generated_Source\PSoC5/NEOMOTE_1_I2C_0_MASTER.c ****         }
 622:.\Generated_Source\PSoC5/NEOMOTE_1_I2C_0_MASTER.c ****         else                /* Do NACK */
 623:.\Generated_Source\PSoC5/NEOMOTE_1_I2C_0_MASTER.c ****         {
 624:.\Generated_Source\PSoC5/NEOMOTE_1_I2C_0_MASTER.c ****             /* Do nothing to be able work with ReStart */
 625:.\Generated_Source\PSoC5/NEOMOTE_1_I2C_0_MASTER.c ****             NEOMOTE_1_I2C_0_state = NEOMOTE_1_I2C_0_SM_MSTR_HALT;
 877              		.loc 1 625 0
 878 0086 40F20003 		movw	r3, #:lower16:NEOMOTE_1_I2C_0_state
 879 008a C0F20003 		movt	r3, #:upper16:NEOMOTE_1_I2C_0_state
 880 008e 4FF06002 		mov	r2, #96
 881 0092 1A70     		strb	r2, [r3, #0]
 882              	.L45:
 626:.\Generated_Source\PSoC5/NEOMOTE_1_I2C_0_MASTER.c ****         }
 627:.\Generated_Source\PSoC5/NEOMOTE_1_I2C_0_MASTER.c ****     }
 628:.\Generated_Source\PSoC5/NEOMOTE_1_I2C_0_MASTER.c **** 
 629:.\Generated_Source\PSoC5/NEOMOTE_1_I2C_0_MASTER.c ****     return(theByte);
 883              		.loc 1 629 0
 884 0094 FB7B     		ldrb	r3, [r7, #15]	@ zero_extendqisi2
 630:.\Generated_Source\PSoC5/NEOMOTE_1_I2C_0_MASTER.c **** }
 885              		.loc 1 630 0
 886 0096 1846     		mov	r0, r3
 887 0098 07F11407 		add	r7, r7, #20
 888 009c BD46     		mov	sp, r7
 889 009e 80BC     		pop	{r7}
 890 00a0 7047     		bx	lr
 891              		.cfi_endproc
 892              	.LFE6:
 893              		.size	NEOMOTE_1_I2C_0_MasterReadByte, .-NEOMOTE_1_I2C_0_MasterReadByte
 894 00a2 00BF     		.section	.text.NEOMOTE_1_I2C_0_MasterStatus,"ax",%progbits
 895              		.align	2
 896              		.global	NEOMOTE_1_I2C_0_MasterStatus
 897              		.thumb
 898              		.thumb_func
 899              		.type	NEOMOTE_1_I2C_0_MasterStatus, %function
 900              	NEOMOTE_1_I2C_0_MasterStatus:
 901              	.LFB7:
 631:.\Generated_Source\PSoC5/NEOMOTE_1_I2C_0_MASTER.c **** 
 632:.\Generated_Source\PSoC5/NEOMOTE_1_I2C_0_MASTER.c **** 
 633:.\Generated_Source\PSoC5/NEOMOTE_1_I2C_0_MASTER.c **** /*******************************************************************************
 634:.\Generated_Source\PSoC5/NEOMOTE_1_I2C_0_MASTER.c **** * Function Name: NEOMOTE_1_I2C_0_MasterStatus
ARM GAS  C:\Users\karunmj\AppData\Local\Temp\ccwPGOm2.s 			page 28


 635:.\Generated_Source\PSoC5/NEOMOTE_1_I2C_0_MASTER.c **** ********************************************************************************
 636:.\Generated_Source\PSoC5/NEOMOTE_1_I2C_0_MASTER.c **** *
 637:.\Generated_Source\PSoC5/NEOMOTE_1_I2C_0_MASTER.c **** * Summary:
 638:.\Generated_Source\PSoC5/NEOMOTE_1_I2C_0_MASTER.c **** *  Returns the master's communication status.
 639:.\Generated_Source\PSoC5/NEOMOTE_1_I2C_0_MASTER.c **** *
 640:.\Generated_Source\PSoC5/NEOMOTE_1_I2C_0_MASTER.c **** * Parameters:
 641:.\Generated_Source\PSoC5/NEOMOTE_1_I2C_0_MASTER.c **** *  None
 642:.\Generated_Source\PSoC5/NEOMOTE_1_I2C_0_MASTER.c **** *
 643:.\Generated_Source\PSoC5/NEOMOTE_1_I2C_0_MASTER.c **** * Return:
 644:.\Generated_Source\PSoC5/NEOMOTE_1_I2C_0_MASTER.c **** *  Current status of I2C master.
 645:.\Generated_Source\PSoC5/NEOMOTE_1_I2C_0_MASTER.c **** *
 646:.\Generated_Source\PSoC5/NEOMOTE_1_I2C_0_MASTER.c **** * Global variables:
 647:.\Generated_Source\PSoC5/NEOMOTE_1_I2C_0_MASTER.c **** *  NEOMOTE_1_I2C_0_mstrStatus - used to store current status of I2C Master.
 648:.\Generated_Source\PSoC5/NEOMOTE_1_I2C_0_MASTER.c **** *
 649:.\Generated_Source\PSoC5/NEOMOTE_1_I2C_0_MASTER.c **** *******************************************************************************/
 650:.\Generated_Source\PSoC5/NEOMOTE_1_I2C_0_MASTER.c **** uint8 NEOMOTE_1_I2C_0_MasterStatus(void) 
 651:.\Generated_Source\PSoC5/NEOMOTE_1_I2C_0_MASTER.c **** {
 902              		.loc 1 651 0
 903              		.cfi_startproc
 904              		@ args = 0, pretend = 0, frame = 8
 905              		@ frame_needed = 1, uses_anonymous_args = 0
 906              		@ link register save eliminated.
 907 0000 80B4     		push	{r7}
 908              	.LCFI21:
 909              		.cfi_def_cfa_offset 4
 910 0002 83B0     		sub	sp, sp, #12
 911              	.LCFI22:
 912              		.cfi_def_cfa_offset 16
 913 0004 00AF     		add	r7, sp, #0
 914              		.cfi_offset 7, -4
 915              	.LCFI23:
 916              		.cfi_def_cfa_register 7
 652:.\Generated_Source\PSoC5/NEOMOTE_1_I2C_0_MASTER.c ****     uint8 status;
 653:.\Generated_Source\PSoC5/NEOMOTE_1_I2C_0_MASTER.c **** 
 654:.\Generated_Source\PSoC5/NEOMOTE_1_I2C_0_MASTER.c ****     status = NEOMOTE_1_I2C_0_mstrStatus;
 917              		.loc 1 654 0
 918 0006 40F20003 		movw	r3, #:lower16:NEOMOTE_1_I2C_0_mstrStatus
 919 000a C0F20003 		movt	r3, #:upper16:NEOMOTE_1_I2C_0_mstrStatus
 920 000e 1B78     		ldrb	r3, [r3, #0]
 921 0010 FB71     		strb	r3, [r7, #7]
 655:.\Generated_Source\PSoC5/NEOMOTE_1_I2C_0_MASTER.c **** 
 656:.\Generated_Source\PSoC5/NEOMOTE_1_I2C_0_MASTER.c ****     /* When in Master state only transaction is in progress */
 657:.\Generated_Source\PSoC5/NEOMOTE_1_I2C_0_MASTER.c ****     if(NEOMOTE_1_I2C_0_CHECK_SM_MASTER)
 922              		.loc 1 657 0
 923 0012 40F20003 		movw	r3, #:lower16:NEOMOTE_1_I2C_0_state
 924 0016 C0F20003 		movt	r3, #:upper16:NEOMOTE_1_I2C_0_state
 925 001a 1B78     		ldrb	r3, [r3, #0]
 926 001c DBB2     		uxtb	r3, r3
 927 001e 03F04003 		and	r3, r3, #64
 928 0022 002B     		cmp	r3, #0
 929 0024 03D0     		beq	.L50
 658:.\Generated_Source\PSoC5/NEOMOTE_1_I2C_0_MASTER.c ****     {
 659:.\Generated_Source\PSoC5/NEOMOTE_1_I2C_0_MASTER.c ****         /* Add transaction in progress activity to master status */
 660:.\Generated_Source\PSoC5/NEOMOTE_1_I2C_0_MASTER.c ****         status |= NEOMOTE_1_I2C_0_MSTAT_XFER_INP;
 930              		.loc 1 660 0
 931 0026 FB79     		ldrb	r3, [r7, #7]
 932 0028 43F00403 		orr	r3, r3, #4
ARM GAS  C:\Users\karunmj\AppData\Local\Temp\ccwPGOm2.s 			page 29


 933 002c FB71     		strb	r3, [r7, #7]
 934              	.L50:
 661:.\Generated_Source\PSoC5/NEOMOTE_1_I2C_0_MASTER.c ****     }
 662:.\Generated_Source\PSoC5/NEOMOTE_1_I2C_0_MASTER.c ****     else
 663:.\Generated_Source\PSoC5/NEOMOTE_1_I2C_0_MASTER.c ****     {
 664:.\Generated_Source\PSoC5/NEOMOTE_1_I2C_0_MASTER.c ****         /* Current master status is valid */
 665:.\Generated_Source\PSoC5/NEOMOTE_1_I2C_0_MASTER.c ****     }
 666:.\Generated_Source\PSoC5/NEOMOTE_1_I2C_0_MASTER.c **** 
 667:.\Generated_Source\PSoC5/NEOMOTE_1_I2C_0_MASTER.c ****     return(status);
 935              		.loc 1 667 0
 936 002e FB79     		ldrb	r3, [r7, #7]	@ zero_extendqisi2
 668:.\Generated_Source\PSoC5/NEOMOTE_1_I2C_0_MASTER.c **** }
 937              		.loc 1 668 0
 938 0030 1846     		mov	r0, r3
 939 0032 07F10C07 		add	r7, r7, #12
 940 0036 BD46     		mov	sp, r7
 941 0038 80BC     		pop	{r7}
 942 003a 7047     		bx	lr
 943              		.cfi_endproc
 944              	.LFE7:
 945              		.size	NEOMOTE_1_I2C_0_MasterStatus, .-NEOMOTE_1_I2C_0_MasterStatus
 946              		.section	.text.NEOMOTE_1_I2C_0_MasterClearStatus,"ax",%progbits
 947              		.align	2
 948              		.global	NEOMOTE_1_I2C_0_MasterClearStatus
 949              		.thumb
 950              		.thumb_func
 951              		.type	NEOMOTE_1_I2C_0_MasterClearStatus, %function
 952              	NEOMOTE_1_I2C_0_MasterClearStatus:
 953              	.LFB8:
 669:.\Generated_Source\PSoC5/NEOMOTE_1_I2C_0_MASTER.c **** 
 670:.\Generated_Source\PSoC5/NEOMOTE_1_I2C_0_MASTER.c **** 
 671:.\Generated_Source\PSoC5/NEOMOTE_1_I2C_0_MASTER.c **** /*******************************************************************************
 672:.\Generated_Source\PSoC5/NEOMOTE_1_I2C_0_MASTER.c **** * Function Name: NEOMOTE_1_I2C_0_MasterClearStatus
 673:.\Generated_Source\PSoC5/NEOMOTE_1_I2C_0_MASTER.c **** ********************************************************************************
 674:.\Generated_Source\PSoC5/NEOMOTE_1_I2C_0_MASTER.c **** *
 675:.\Generated_Source\PSoC5/NEOMOTE_1_I2C_0_MASTER.c **** * Summary:
 676:.\Generated_Source\PSoC5/NEOMOTE_1_I2C_0_MASTER.c **** *  Clears all status flags and returns the master status.
 677:.\Generated_Source\PSoC5/NEOMOTE_1_I2C_0_MASTER.c **** *
 678:.\Generated_Source\PSoC5/NEOMOTE_1_I2C_0_MASTER.c **** * Parameters:
 679:.\Generated_Source\PSoC5/NEOMOTE_1_I2C_0_MASTER.c **** *  None
 680:.\Generated_Source\PSoC5/NEOMOTE_1_I2C_0_MASTER.c **** *
 681:.\Generated_Source\PSoC5/NEOMOTE_1_I2C_0_MASTER.c **** * Return:
 682:.\Generated_Source\PSoC5/NEOMOTE_1_I2C_0_MASTER.c **** *  Current status of I2C master.
 683:.\Generated_Source\PSoC5/NEOMOTE_1_I2C_0_MASTER.c **** *
 684:.\Generated_Source\PSoC5/NEOMOTE_1_I2C_0_MASTER.c **** * Global variables:
 685:.\Generated_Source\PSoC5/NEOMOTE_1_I2C_0_MASTER.c **** *  NEOMOTE_1_I2C_0_mstrStatus - used to store current status of I2C Master.
 686:.\Generated_Source\PSoC5/NEOMOTE_1_I2C_0_MASTER.c **** *
 687:.\Generated_Source\PSoC5/NEOMOTE_1_I2C_0_MASTER.c **** * Reentrant:
 688:.\Generated_Source\PSoC5/NEOMOTE_1_I2C_0_MASTER.c **** *  No
 689:.\Generated_Source\PSoC5/NEOMOTE_1_I2C_0_MASTER.c **** *
 690:.\Generated_Source\PSoC5/NEOMOTE_1_I2C_0_MASTER.c **** *******************************************************************************/
 691:.\Generated_Source\PSoC5/NEOMOTE_1_I2C_0_MASTER.c **** uint8 NEOMOTE_1_I2C_0_MasterClearStatus(void) 
 692:.\Generated_Source\PSoC5/NEOMOTE_1_I2C_0_MASTER.c **** {
 954              		.loc 1 692 0
 955              		.cfi_startproc
 956              		@ args = 0, pretend = 0, frame = 8
 957              		@ frame_needed = 1, uses_anonymous_args = 0
ARM GAS  C:\Users\karunmj\AppData\Local\Temp\ccwPGOm2.s 			page 30


 958              		@ link register save eliminated.
 959 0000 80B4     		push	{r7}
 960              	.LCFI24:
 961              		.cfi_def_cfa_offset 4
 962 0002 83B0     		sub	sp, sp, #12
 963              	.LCFI25:
 964              		.cfi_def_cfa_offset 16
 965 0004 00AF     		add	r7, sp, #0
 966              		.cfi_offset 7, -4
 967              	.LCFI26:
 968              		.cfi_def_cfa_register 7
 693:.\Generated_Source\PSoC5/NEOMOTE_1_I2C_0_MASTER.c ****     /* Current master status */
 694:.\Generated_Source\PSoC5/NEOMOTE_1_I2C_0_MASTER.c ****     uint8 status;
 695:.\Generated_Source\PSoC5/NEOMOTE_1_I2C_0_MASTER.c **** 
 696:.\Generated_Source\PSoC5/NEOMOTE_1_I2C_0_MASTER.c ****     /* Read and clear master status */
 697:.\Generated_Source\PSoC5/NEOMOTE_1_I2C_0_MASTER.c ****     status = NEOMOTE_1_I2C_0_mstrStatus;
 969              		.loc 1 697 0
 970 0006 40F20003 		movw	r3, #:lower16:NEOMOTE_1_I2C_0_mstrStatus
 971 000a C0F20003 		movt	r3, #:upper16:NEOMOTE_1_I2C_0_mstrStatus
 972 000e 1B78     		ldrb	r3, [r3, #0]
 973 0010 FB71     		strb	r3, [r7, #7]
 698:.\Generated_Source\PSoC5/NEOMOTE_1_I2C_0_MASTER.c ****     NEOMOTE_1_I2C_0_mstrStatus = NEOMOTE_1_I2C_0_MSTAT_CLEAR;
 974              		.loc 1 698 0
 975 0012 40F20003 		movw	r3, #:lower16:NEOMOTE_1_I2C_0_mstrStatus
 976 0016 C0F20003 		movt	r3, #:upper16:NEOMOTE_1_I2C_0_mstrStatus
 977 001a 4FF00002 		mov	r2, #0
 978 001e 1A70     		strb	r2, [r3, #0]
 699:.\Generated_Source\PSoC5/NEOMOTE_1_I2C_0_MASTER.c **** 
 700:.\Generated_Source\PSoC5/NEOMOTE_1_I2C_0_MASTER.c ****     return(status);
 979              		.loc 1 700 0
 980 0020 FB79     		ldrb	r3, [r7, #7]	@ zero_extendqisi2
 701:.\Generated_Source\PSoC5/NEOMOTE_1_I2C_0_MASTER.c **** }
 981              		.loc 1 701 0
 982 0022 1846     		mov	r0, r3
 983 0024 07F10C07 		add	r7, r7, #12
 984 0028 BD46     		mov	sp, r7
 985 002a 80BC     		pop	{r7}
 986 002c 7047     		bx	lr
 987              		.cfi_endproc
 988              	.LFE8:
 989              		.size	NEOMOTE_1_I2C_0_MasterClearStatus, .-NEOMOTE_1_I2C_0_MasterClearStatus
 990 002e 00BF     		.section	.text.NEOMOTE_1_I2C_0_MasterGetReadBufSize,"ax",%progbits
 991              		.align	2
 992              		.global	NEOMOTE_1_I2C_0_MasterGetReadBufSize
 993              		.thumb
 994              		.thumb_func
 995              		.type	NEOMOTE_1_I2C_0_MasterGetReadBufSize, %function
 996              	NEOMOTE_1_I2C_0_MasterGetReadBufSize:
 997              	.LFB9:
 702:.\Generated_Source\PSoC5/NEOMOTE_1_I2C_0_MASTER.c **** 
 703:.\Generated_Source\PSoC5/NEOMOTE_1_I2C_0_MASTER.c **** 
 704:.\Generated_Source\PSoC5/NEOMOTE_1_I2C_0_MASTER.c **** /*******************************************************************************
 705:.\Generated_Source\PSoC5/NEOMOTE_1_I2C_0_MASTER.c **** * Function Name: NEOMOTE_1_I2C_0_MasterGetReadBufSize
 706:.\Generated_Source\PSoC5/NEOMOTE_1_I2C_0_MASTER.c **** ********************************************************************************
 707:.\Generated_Source\PSoC5/NEOMOTE_1_I2C_0_MASTER.c **** *
 708:.\Generated_Source\PSoC5/NEOMOTE_1_I2C_0_MASTER.c **** * Summary:
 709:.\Generated_Source\PSoC5/NEOMOTE_1_I2C_0_MASTER.c **** *  Returns the amount of bytes that has been transferred with an
ARM GAS  C:\Users\karunmj\AppData\Local\Temp\ccwPGOm2.s 			page 31


 710:.\Generated_Source\PSoC5/NEOMOTE_1_I2C_0_MASTER.c **** *  I2C_MasterReadBuf command.
 711:.\Generated_Source\PSoC5/NEOMOTE_1_I2C_0_MASTER.c **** *
 712:.\Generated_Source\PSoC5/NEOMOTE_1_I2C_0_MASTER.c **** * Parameters:
 713:.\Generated_Source\PSoC5/NEOMOTE_1_I2C_0_MASTER.c **** *  None
 714:.\Generated_Source\PSoC5/NEOMOTE_1_I2C_0_MASTER.c **** *
 715:.\Generated_Source\PSoC5/NEOMOTE_1_I2C_0_MASTER.c **** * Return:
 716:.\Generated_Source\PSoC5/NEOMOTE_1_I2C_0_MASTER.c **** *  Byte count of transfer. If the transfer is not yet complete, it will return
 717:.\Generated_Source\PSoC5/NEOMOTE_1_I2C_0_MASTER.c **** *  the byte count transferred so far.
 718:.\Generated_Source\PSoC5/NEOMOTE_1_I2C_0_MASTER.c **** *
 719:.\Generated_Source\PSoC5/NEOMOTE_1_I2C_0_MASTER.c **** * Global variables:
 720:.\Generated_Source\PSoC5/NEOMOTE_1_I2C_0_MASTER.c **** *  NEOMOTE_1_I2C_0_mstrRdBufIndex - used to current index within master read
 721:.\Generated_Source\PSoC5/NEOMOTE_1_I2C_0_MASTER.c **** *  buffer.
 722:.\Generated_Source\PSoC5/NEOMOTE_1_I2C_0_MASTER.c **** *
 723:.\Generated_Source\PSoC5/NEOMOTE_1_I2C_0_MASTER.c **** *******************************************************************************/
 724:.\Generated_Source\PSoC5/NEOMOTE_1_I2C_0_MASTER.c **** uint8 NEOMOTE_1_I2C_0_MasterGetReadBufSize(void) 
 725:.\Generated_Source\PSoC5/NEOMOTE_1_I2C_0_MASTER.c **** {
 998              		.loc 1 725 0
 999              		.cfi_startproc
 1000              		@ args = 0, pretend = 0, frame = 0
 1001              		@ frame_needed = 1, uses_anonymous_args = 0
 1002              		@ link register save eliminated.
 1003 0000 80B4     		push	{r7}
 1004              	.LCFI27:
 1005              		.cfi_def_cfa_offset 4
 1006 0002 00AF     		add	r7, sp, #0
 1007              		.cfi_offset 7, -4
 1008              	.LCFI28:
 1009              		.cfi_def_cfa_register 7
 726:.\Generated_Source\PSoC5/NEOMOTE_1_I2C_0_MASTER.c ****     return(NEOMOTE_1_I2C_0_mstrRdBufIndex);
 1010              		.loc 1 726 0
 1011 0004 40F20003 		movw	r3, #:lower16:NEOMOTE_1_I2C_0_mstrRdBufIndex
 1012 0008 C0F20003 		movt	r3, #:upper16:NEOMOTE_1_I2C_0_mstrRdBufIndex
 1013 000c 1B78     		ldrb	r3, [r3, #0]
 1014 000e DBB2     		uxtb	r3, r3
 727:.\Generated_Source\PSoC5/NEOMOTE_1_I2C_0_MASTER.c **** }
 1015              		.loc 1 727 0
 1016 0010 1846     		mov	r0, r3
 1017 0012 BD46     		mov	sp, r7
 1018 0014 80BC     		pop	{r7}
 1019 0016 7047     		bx	lr
 1020              		.cfi_endproc
 1021              	.LFE9:
 1022              		.size	NEOMOTE_1_I2C_0_MasterGetReadBufSize, .-NEOMOTE_1_I2C_0_MasterGetReadBufSize
 1023              		.section	.text.NEOMOTE_1_I2C_0_MasterGetWriteBufSize,"ax",%progbits
 1024              		.align	2
 1025              		.global	NEOMOTE_1_I2C_0_MasterGetWriteBufSize
 1026              		.thumb
 1027              		.thumb_func
 1028              		.type	NEOMOTE_1_I2C_0_MasterGetWriteBufSize, %function
 1029              	NEOMOTE_1_I2C_0_MasterGetWriteBufSize:
 1030              	.LFB10:
 728:.\Generated_Source\PSoC5/NEOMOTE_1_I2C_0_MASTER.c **** 
 729:.\Generated_Source\PSoC5/NEOMOTE_1_I2C_0_MASTER.c **** 
 730:.\Generated_Source\PSoC5/NEOMOTE_1_I2C_0_MASTER.c **** /*******************************************************************************
 731:.\Generated_Source\PSoC5/NEOMOTE_1_I2C_0_MASTER.c **** * Function Name: NEOMOTE_1_I2C_0_MasterGetWriteBufSize
 732:.\Generated_Source\PSoC5/NEOMOTE_1_I2C_0_MASTER.c **** ********************************************************************************
 733:.\Generated_Source\PSoC5/NEOMOTE_1_I2C_0_MASTER.c **** *
ARM GAS  C:\Users\karunmj\AppData\Local\Temp\ccwPGOm2.s 			page 32


 734:.\Generated_Source\PSoC5/NEOMOTE_1_I2C_0_MASTER.c **** * Summary:
 735:.\Generated_Source\PSoC5/NEOMOTE_1_I2C_0_MASTER.c **** *  Returns the amount of bytes that has been transferred with an
 736:.\Generated_Source\PSoC5/NEOMOTE_1_I2C_0_MASTER.c **** *  I2C_MasterWriteBuf command.
 737:.\Generated_Source\PSoC5/NEOMOTE_1_I2C_0_MASTER.c **** *
 738:.\Generated_Source\PSoC5/NEOMOTE_1_I2C_0_MASTER.c **** * Parameters:
 739:.\Generated_Source\PSoC5/NEOMOTE_1_I2C_0_MASTER.c **** *  None
 740:.\Generated_Source\PSoC5/NEOMOTE_1_I2C_0_MASTER.c **** *
 741:.\Generated_Source\PSoC5/NEOMOTE_1_I2C_0_MASTER.c **** * Return:
 742:.\Generated_Source\PSoC5/NEOMOTE_1_I2C_0_MASTER.c **** *  Byte count of transfer. If the transfer is not yet complete, it will return
 743:.\Generated_Source\PSoC5/NEOMOTE_1_I2C_0_MASTER.c **** *  the byte count transferred so far.
 744:.\Generated_Source\PSoC5/NEOMOTE_1_I2C_0_MASTER.c **** *
 745:.\Generated_Source\PSoC5/NEOMOTE_1_I2C_0_MASTER.c **** * Global variables:
 746:.\Generated_Source\PSoC5/NEOMOTE_1_I2C_0_MASTER.c **** *  NEOMOTE_1_I2C_0_mstrWrBufIndex - used to current index within master write
 747:.\Generated_Source\PSoC5/NEOMOTE_1_I2C_0_MASTER.c **** *  buffer.
 748:.\Generated_Source\PSoC5/NEOMOTE_1_I2C_0_MASTER.c **** *
 749:.\Generated_Source\PSoC5/NEOMOTE_1_I2C_0_MASTER.c **** *******************************************************************************/
 750:.\Generated_Source\PSoC5/NEOMOTE_1_I2C_0_MASTER.c **** uint8 NEOMOTE_1_I2C_0_MasterGetWriteBufSize(void) 
 751:.\Generated_Source\PSoC5/NEOMOTE_1_I2C_0_MASTER.c **** {
 1031              		.loc 1 751 0
 1032              		.cfi_startproc
 1033              		@ args = 0, pretend = 0, frame = 0
 1034              		@ frame_needed = 1, uses_anonymous_args = 0
 1035              		@ link register save eliminated.
 1036 0000 80B4     		push	{r7}
 1037              	.LCFI29:
 1038              		.cfi_def_cfa_offset 4
 1039 0002 00AF     		add	r7, sp, #0
 1040              		.cfi_offset 7, -4
 1041              	.LCFI30:
 1042              		.cfi_def_cfa_register 7
 752:.\Generated_Source\PSoC5/NEOMOTE_1_I2C_0_MASTER.c ****     return(NEOMOTE_1_I2C_0_mstrWrBufIndex);
 1043              		.loc 1 752 0
 1044 0004 40F20003 		movw	r3, #:lower16:NEOMOTE_1_I2C_0_mstrWrBufIndex
 1045 0008 C0F20003 		movt	r3, #:upper16:NEOMOTE_1_I2C_0_mstrWrBufIndex
 1046 000c 1B78     		ldrb	r3, [r3, #0]
 1047 000e DBB2     		uxtb	r3, r3
 753:.\Generated_Source\PSoC5/NEOMOTE_1_I2C_0_MASTER.c **** }
 1048              		.loc 1 753 0
 1049 0010 1846     		mov	r0, r3
 1050 0012 BD46     		mov	sp, r7
 1051 0014 80BC     		pop	{r7}
 1052 0016 7047     		bx	lr
 1053              		.cfi_endproc
 1054              	.LFE10:
 1055              		.size	NEOMOTE_1_I2C_0_MasterGetWriteBufSize, .-NEOMOTE_1_I2C_0_MasterGetWriteBufSize
 1056              		.section	.text.NEOMOTE_1_I2C_0_MasterClearReadBuf,"ax",%progbits
 1057              		.align	2
 1058              		.global	NEOMOTE_1_I2C_0_MasterClearReadBuf
 1059              		.thumb
 1060              		.thumb_func
 1061              		.type	NEOMOTE_1_I2C_0_MasterClearReadBuf, %function
 1062              	NEOMOTE_1_I2C_0_MasterClearReadBuf:
 1063              	.LFB11:
 754:.\Generated_Source\PSoC5/NEOMOTE_1_I2C_0_MASTER.c **** 
 755:.\Generated_Source\PSoC5/NEOMOTE_1_I2C_0_MASTER.c **** 
 756:.\Generated_Source\PSoC5/NEOMOTE_1_I2C_0_MASTER.c **** /*******************************************************************************
 757:.\Generated_Source\PSoC5/NEOMOTE_1_I2C_0_MASTER.c **** * Function Name: NEOMOTE_1_I2C_0_MasterClearReadBuf
ARM GAS  C:\Users\karunmj\AppData\Local\Temp\ccwPGOm2.s 			page 33


 758:.\Generated_Source\PSoC5/NEOMOTE_1_I2C_0_MASTER.c **** ********************************************************************************
 759:.\Generated_Source\PSoC5/NEOMOTE_1_I2C_0_MASTER.c **** *
 760:.\Generated_Source\PSoC5/NEOMOTE_1_I2C_0_MASTER.c **** * Summary:
 761:.\Generated_Source\PSoC5/NEOMOTE_1_I2C_0_MASTER.c **** *  Resets the read buffer pointer back to the first byte in the buffer.
 762:.\Generated_Source\PSoC5/NEOMOTE_1_I2C_0_MASTER.c **** *
 763:.\Generated_Source\PSoC5/NEOMOTE_1_I2C_0_MASTER.c **** * Parameters:
 764:.\Generated_Source\PSoC5/NEOMOTE_1_I2C_0_MASTER.c **** *  None
 765:.\Generated_Source\PSoC5/NEOMOTE_1_I2C_0_MASTER.c **** *
 766:.\Generated_Source\PSoC5/NEOMOTE_1_I2C_0_MASTER.c **** * Return:
 767:.\Generated_Source\PSoC5/NEOMOTE_1_I2C_0_MASTER.c **** *  None
 768:.\Generated_Source\PSoC5/NEOMOTE_1_I2C_0_MASTER.c **** *
 769:.\Generated_Source\PSoC5/NEOMOTE_1_I2C_0_MASTER.c **** * Global variables:
 770:.\Generated_Source\PSoC5/NEOMOTE_1_I2C_0_MASTER.c **** *  NEOMOTE_1_I2C_0_mstrRdBufIndex - used to current index within master read
 771:.\Generated_Source\PSoC5/NEOMOTE_1_I2C_0_MASTER.c **** *   buffer.
 772:.\Generated_Source\PSoC5/NEOMOTE_1_I2C_0_MASTER.c **** *  NEOMOTE_1_I2C_0_mstrStatus - used to store current status of I2C Master.
 773:.\Generated_Source\PSoC5/NEOMOTE_1_I2C_0_MASTER.c **** *
 774:.\Generated_Source\PSoC5/NEOMOTE_1_I2C_0_MASTER.c **** * Reentrant:
 775:.\Generated_Source\PSoC5/NEOMOTE_1_I2C_0_MASTER.c **** *  No
 776:.\Generated_Source\PSoC5/NEOMOTE_1_I2C_0_MASTER.c **** *
 777:.\Generated_Source\PSoC5/NEOMOTE_1_I2C_0_MASTER.c **** *******************************************************************************/
 778:.\Generated_Source\PSoC5/NEOMOTE_1_I2C_0_MASTER.c **** void NEOMOTE_1_I2C_0_MasterClearReadBuf(void) 
 779:.\Generated_Source\PSoC5/NEOMOTE_1_I2C_0_MASTER.c **** {
 1064              		.loc 1 779 0
 1065              		.cfi_startproc
 1066              		@ args = 0, pretend = 0, frame = 0
 1067              		@ frame_needed = 1, uses_anonymous_args = 0
 1068              		@ link register save eliminated.
 1069 0000 80B4     		push	{r7}
 1070              	.LCFI31:
 1071              		.cfi_def_cfa_offset 4
 1072 0002 00AF     		add	r7, sp, #0
 1073              		.cfi_offset 7, -4
 1074              	.LCFI32:
 1075              		.cfi_def_cfa_register 7
 780:.\Generated_Source\PSoC5/NEOMOTE_1_I2C_0_MASTER.c ****     NEOMOTE_1_I2C_0_mstrRdBufIndex = 0u;
 1076              		.loc 1 780 0
 1077 0004 40F20003 		movw	r3, #:lower16:NEOMOTE_1_I2C_0_mstrRdBufIndex
 1078 0008 C0F20003 		movt	r3, #:upper16:NEOMOTE_1_I2C_0_mstrRdBufIndex
 1079 000c 4FF00002 		mov	r2, #0
 1080 0010 1A70     		strb	r2, [r3, #0]
 781:.\Generated_Source\PSoC5/NEOMOTE_1_I2C_0_MASTER.c ****     NEOMOTE_1_I2C_0_mstrStatus    &= ((uint8) ~NEOMOTE_1_I2C_0_MSTAT_RD_CMPLT);
 1081              		.loc 1 781 0
 1082 0012 40F20003 		movw	r3, #:lower16:NEOMOTE_1_I2C_0_mstrStatus
 1083 0016 C0F20003 		movt	r3, #:upper16:NEOMOTE_1_I2C_0_mstrStatus
 1084 001a 1B78     		ldrb	r3, [r3, #0]
 1085 001c DBB2     		uxtb	r3, r3
 1086 001e 1A46     		mov	r2, r3
 1087 0020 02F0FE02 		and	r2, r2, #254
 1088 0024 40F20003 		movw	r3, #:lower16:NEOMOTE_1_I2C_0_mstrStatus
 1089 0028 C0F20003 		movt	r3, #:upper16:NEOMOTE_1_I2C_0_mstrStatus
 1090 002c 1A70     		strb	r2, [r3, #0]
 782:.\Generated_Source\PSoC5/NEOMOTE_1_I2C_0_MASTER.c **** }
 1091              		.loc 1 782 0
 1092 002e BD46     		mov	sp, r7
 1093 0030 80BC     		pop	{r7}
 1094 0032 7047     		bx	lr
 1095              		.cfi_endproc
ARM GAS  C:\Users\karunmj\AppData\Local\Temp\ccwPGOm2.s 			page 34


 1096              	.LFE11:
 1097              		.size	NEOMOTE_1_I2C_0_MasterClearReadBuf, .-NEOMOTE_1_I2C_0_MasterClearReadBuf
 1098              		.section	.text.NEOMOTE_1_I2C_0_MasterClearWriteBuf,"ax",%progbits
 1099              		.align	2
 1100              		.global	NEOMOTE_1_I2C_0_MasterClearWriteBuf
 1101              		.thumb
 1102              		.thumb_func
 1103              		.type	NEOMOTE_1_I2C_0_MasterClearWriteBuf, %function
 1104              	NEOMOTE_1_I2C_0_MasterClearWriteBuf:
 1105              	.LFB12:
 783:.\Generated_Source\PSoC5/NEOMOTE_1_I2C_0_MASTER.c **** 
 784:.\Generated_Source\PSoC5/NEOMOTE_1_I2C_0_MASTER.c **** 
 785:.\Generated_Source\PSoC5/NEOMOTE_1_I2C_0_MASTER.c **** /*******************************************************************************
 786:.\Generated_Source\PSoC5/NEOMOTE_1_I2C_0_MASTER.c **** * Function Name: NEOMOTE_1_I2C_0_MasterClearWriteBuf
 787:.\Generated_Source\PSoC5/NEOMOTE_1_I2C_0_MASTER.c **** ********************************************************************************
 788:.\Generated_Source\PSoC5/NEOMOTE_1_I2C_0_MASTER.c **** *
 789:.\Generated_Source\PSoC5/NEOMOTE_1_I2C_0_MASTER.c **** * Summary:
 790:.\Generated_Source\PSoC5/NEOMOTE_1_I2C_0_MASTER.c **** *  Resets the write buffer pointer back to the first byte in the buffer.
 791:.\Generated_Source\PSoC5/NEOMOTE_1_I2C_0_MASTER.c **** *
 792:.\Generated_Source\PSoC5/NEOMOTE_1_I2C_0_MASTER.c **** * Parameters:
 793:.\Generated_Source\PSoC5/NEOMOTE_1_I2C_0_MASTER.c **** *  None
 794:.\Generated_Source\PSoC5/NEOMOTE_1_I2C_0_MASTER.c **** *
 795:.\Generated_Source\PSoC5/NEOMOTE_1_I2C_0_MASTER.c **** * Return:
 796:.\Generated_Source\PSoC5/NEOMOTE_1_I2C_0_MASTER.c **** *  None
 797:.\Generated_Source\PSoC5/NEOMOTE_1_I2C_0_MASTER.c **** *
 798:.\Generated_Source\PSoC5/NEOMOTE_1_I2C_0_MASTER.c **** * Global variables:
 799:.\Generated_Source\PSoC5/NEOMOTE_1_I2C_0_MASTER.c **** *  NEOMOTE_1_I2C_0_mstrRdBufIndex - used to current index within master read
 800:.\Generated_Source\PSoC5/NEOMOTE_1_I2C_0_MASTER.c **** *   buffer.
 801:.\Generated_Source\PSoC5/NEOMOTE_1_I2C_0_MASTER.c **** *  NEOMOTE_1_I2C_0_mstrStatus - used to store current status of I2C Master.
 802:.\Generated_Source\PSoC5/NEOMOTE_1_I2C_0_MASTER.c **** *
 803:.\Generated_Source\PSoC5/NEOMOTE_1_I2C_0_MASTER.c **** * Reentrant:
 804:.\Generated_Source\PSoC5/NEOMOTE_1_I2C_0_MASTER.c **** *  No
 805:.\Generated_Source\PSoC5/NEOMOTE_1_I2C_0_MASTER.c **** *
 806:.\Generated_Source\PSoC5/NEOMOTE_1_I2C_0_MASTER.c **** *******************************************************************************/
 807:.\Generated_Source\PSoC5/NEOMOTE_1_I2C_0_MASTER.c **** void NEOMOTE_1_I2C_0_MasterClearWriteBuf(void) 
 808:.\Generated_Source\PSoC5/NEOMOTE_1_I2C_0_MASTER.c **** {
 1106              		.loc 1 808 0
 1107              		.cfi_startproc
 1108              		@ args = 0, pretend = 0, frame = 0
 1109              		@ frame_needed = 1, uses_anonymous_args = 0
 1110              		@ link register save eliminated.
 1111 0000 80B4     		push	{r7}
 1112              	.LCFI33:
 1113              		.cfi_def_cfa_offset 4
 1114 0002 00AF     		add	r7, sp, #0
 1115              		.cfi_offset 7, -4
 1116              	.LCFI34:
 1117              		.cfi_def_cfa_register 7
 809:.\Generated_Source\PSoC5/NEOMOTE_1_I2C_0_MASTER.c ****     NEOMOTE_1_I2C_0_mstrWrBufIndex = 0u;
 1118              		.loc 1 809 0
 1119 0004 40F20003 		movw	r3, #:lower16:NEOMOTE_1_I2C_0_mstrWrBufIndex
 1120 0008 C0F20003 		movt	r3, #:upper16:NEOMOTE_1_I2C_0_mstrWrBufIndex
 1121 000c 4FF00002 		mov	r2, #0
 1122 0010 1A70     		strb	r2, [r3, #0]
 810:.\Generated_Source\PSoC5/NEOMOTE_1_I2C_0_MASTER.c ****     NEOMOTE_1_I2C_0_mstrStatus    &= ((uint8) ~NEOMOTE_1_I2C_0_MSTAT_WR_CMPLT);
 1123              		.loc 1 810 0
 1124 0012 40F20003 		movw	r3, #:lower16:NEOMOTE_1_I2C_0_mstrStatus
ARM GAS  C:\Users\karunmj\AppData\Local\Temp\ccwPGOm2.s 			page 35


 1125 0016 C0F20003 		movt	r3, #:upper16:NEOMOTE_1_I2C_0_mstrStatus
 1126 001a 1B78     		ldrb	r3, [r3, #0]
 1127 001c DBB2     		uxtb	r3, r3
 1128 001e 1A46     		mov	r2, r3
 1129 0020 02F0FD02 		and	r2, r2, #253
 1130 0024 40F20003 		movw	r3, #:lower16:NEOMOTE_1_I2C_0_mstrStatus
 1131 0028 C0F20003 		movt	r3, #:upper16:NEOMOTE_1_I2C_0_mstrStatus
 1132 002c 1A70     		strb	r2, [r3, #0]
 811:.\Generated_Source\PSoC5/NEOMOTE_1_I2C_0_MASTER.c **** }
 1133              		.loc 1 811 0
 1134 002e BD46     		mov	sp, r7
 1135 0030 80BC     		pop	{r7}
 1136 0032 7047     		bx	lr
 1137              		.cfi_endproc
 1138              	.LFE12:
 1139              		.size	NEOMOTE_1_I2C_0_MasterClearWriteBuf, .-NEOMOTE_1_I2C_0_MasterClearWriteBuf
 1140              		.section	.text.NEOMOTE_1_I2C_0_Workaround,"ax",%progbits
 1141              		.align	2
 1142              		.global	NEOMOTE_1_I2C_0_Workaround
 1143              		.thumb
 1144              		.thumb_func
 1145              		.type	NEOMOTE_1_I2C_0_Workaround, %function
 1146              	NEOMOTE_1_I2C_0_Workaround:
 1147              	.LFB13:
 812:.\Generated_Source\PSoC5/NEOMOTE_1_I2C_0_MASTER.c **** 
 813:.\Generated_Source\PSoC5/NEOMOTE_1_I2C_0_MASTER.c **** 
 814:.\Generated_Source\PSoC5/NEOMOTE_1_I2C_0_MASTER.c **** /*******************************************************************************
 815:.\Generated_Source\PSoC5/NEOMOTE_1_I2C_0_MASTER.c **** * Function Name: NEOMOTE_1_I2C_0_Workaround
 816:.\Generated_Source\PSoC5/NEOMOTE_1_I2C_0_MASTER.c **** ********************************************************************************
 817:.\Generated_Source\PSoC5/NEOMOTE_1_I2C_0_MASTER.c **** *
 818:.\Generated_Source\PSoC5/NEOMOTE_1_I2C_0_MASTER.c **** * Summary:
 819:.\Generated_Source\PSoC5/NEOMOTE_1_I2C_0_MASTER.c **** *  Do nothing. This fake fuction use as workaround for CDT 78083.
 820:.\Generated_Source\PSoC5/NEOMOTE_1_I2C_0_MASTER.c **** *
 821:.\Generated_Source\PSoC5/NEOMOTE_1_I2C_0_MASTER.c **** * Parameters:
 822:.\Generated_Source\PSoC5/NEOMOTE_1_I2C_0_MASTER.c **** *  None
 823:.\Generated_Source\PSoC5/NEOMOTE_1_I2C_0_MASTER.c **** *
 824:.\Generated_Source\PSoC5/NEOMOTE_1_I2C_0_MASTER.c **** * Return:
 825:.\Generated_Source\PSoC5/NEOMOTE_1_I2C_0_MASTER.c **** *  None
 826:.\Generated_Source\PSoC5/NEOMOTE_1_I2C_0_MASTER.c **** *
 827:.\Generated_Source\PSoC5/NEOMOTE_1_I2C_0_MASTER.c **** * Reentrant:
 828:.\Generated_Source\PSoC5/NEOMOTE_1_I2C_0_MASTER.c **** *  No
 829:.\Generated_Source\PSoC5/NEOMOTE_1_I2C_0_MASTER.c **** *
 830:.\Generated_Source\PSoC5/NEOMOTE_1_I2C_0_MASTER.c **** *******************************************************************************/
 831:.\Generated_Source\PSoC5/NEOMOTE_1_I2C_0_MASTER.c **** void NEOMOTE_1_I2C_0_Workaround(void) 
 832:.\Generated_Source\PSoC5/NEOMOTE_1_I2C_0_MASTER.c **** {
 1148              		.loc 1 832 0
 1149              		.cfi_startproc
 1150              		@ args = 0, pretend = 0, frame = 0
 1151              		@ frame_needed = 1, uses_anonymous_args = 0
 1152              		@ link register save eliminated.
 1153 0000 80B4     		push	{r7}
 1154              	.LCFI35:
 1155              		.cfi_def_cfa_offset 4
 1156 0002 00AF     		add	r7, sp, #0
 1157              		.cfi_offset 7, -4
 1158              	.LCFI36:
 1159              		.cfi_def_cfa_register 7
ARM GAS  C:\Users\karunmj\AppData\Local\Temp\ccwPGOm2.s 			page 36


 833:.\Generated_Source\PSoC5/NEOMOTE_1_I2C_0_MASTER.c ****     /* Does nothing */
 834:.\Generated_Source\PSoC5/NEOMOTE_1_I2C_0_MASTER.c **** }
 1160              		.loc 1 834 0
 1161 0004 BD46     		mov	sp, r7
 1162 0006 80BC     		pop	{r7}
 1163 0008 7047     		bx	lr
 1164              		.cfi_endproc
 1165              	.LFE13:
 1166              		.size	NEOMOTE_1_I2C_0_Workaround, .-NEOMOTE_1_I2C_0_Workaround
 1167 000a 00BF     		.text
 1168              	.Letext0: