ARM GAS  C:\Users\karunmj\AppData\Local\Temp\ccht7lPv.s 			page 1


   1              		.syntax unified
   2              		.cpu cortex-m3
   3              		.fpu softvfp
   4              		.eabi_attribute 20, 1
   5              		.eabi_attribute 21, 1
   6              		.eabi_attribute 23, 3
   7              		.eabi_attribute 24, 1
   8              		.eabi_attribute 25, 1
   9              		.eabi_attribute 26, 1
  10              		.eabi_attribute 30, 6
  11              		.eabi_attribute 18, 4
  12              		.thumb
  13              		.file	"packet.c"
  14              		.section	.debug_abbrev,"",%progbits
  15              	.Ldebug_abbrev0:
  16              		.section	.debug_info,"",%progbits
  17              	.Ldebug_info0:
  18              		.section	.debug_line,"",%progbits
  19              	.Ldebug_line0:
  20 0000 C0000000 		.text
  20      02005500 
  20      00000201 
  20      FB0E0D00 
  20      01010101 
  21              	.Ltext0:
  22              		.cfi_sections	.debug_frame
  23              		.comm	error_str,4,4
  24              		.section	.rodata
  25              		.align	2
  26              	.LC0:
  27 0000 2573206E 		.ascii	"%s not found in packet: \012%s\000"
  27      6F742066 
  27      6F756E64 
  27      20696E20 
  27      7061636B 
  28              		.align	2
  29              	.LC1:
  30 001c 5A2C00   		.ascii	"Z,\000"
  31 001f 00       		.align	2
  32              	.LC2:
  33 0020 275A2C27 		.ascii	"'Z,' not found in packet: \012%s\000"
  33      206E6F74 
  33      20666F75 
  33      6E642069 
  33      6E207061 
  34 003e 0000     		.align	2
  35              	.LC3:
  36 0040 270D2720 		.ascii	"'\015' not found in packet: \012%s\000"
  36      6E6F7420 
  36      666F756E 
  36      6420696E 
  36      20706163 
  37 005d 000000   		.section	.text.packet_get_value,"ax",%progbits
  38              		.align	2
  39              		.global	packet_get_value
  40              		.thumb
  41              		.thumb_func
ARM GAS  C:\Users\karunmj\AppData\Local\Temp\ccht7lPv.s 			page 2


  42              		.type	packet_get_value, %function
  43              	packet_get_value:
  44              	.LFB29:
  45              		.file 1 ".\\packet.c"
   1:.\packet.c    **** /* ========================================
   2:.\packet.c    ****  *
   3:.\packet.c    ****  * Copyright YOUR COMPANY, THE YEAR
   4:.\packet.c    ****  * All Rights Reserved
   5:.\packet.c    ****  * UNPUBLISHED, LICENSED SOFTWARE.
   6:.\packet.c    ****  *
   7:.\packet.c    ****  * CONFIDENTIAL AND PROPRIETARY INFORMATION
   8:.\packet.c    ****  * WHICH IS THE PROPERTY OF your company.
   9:.\packet.c    ****  *
  10:.\packet.c    ****  * ========================================
  11:.\packet.c    **** */
  12:.\packet.c    **** #include "packet.h"
  13:.\packet.c    **** #include "debug.h"
  14:.\packet.c    **** 
  15:.\packet.c    **** char* error_str;
  16:.\packet.c    **** 
  17:.\packet.c    **** /*
  18:.\packet.c    **** Searches Xively packet for name and returns the associated value
  19:.\packet.c    **** as a char array.
  20:.\packet.c    **** Returns 1 if successful, and 0 if there was an error.
  21:.\packet.c    **** */
  22:.\packet.c    **** uint8 packet_get_value(char* packet, char* name, char* value) {
  46              		.loc 1 22 0
  47              		.cfi_startproc
  48              		@ args = 0, pretend = 0, frame = 24
  49              		@ frame_needed = 1, uses_anonymous_args = 0
  50 0000 80B5     		push	{r7, lr}
  51              	.LCFI0:
  52              		.cfi_def_cfa_offset 8
  53 0002 86B0     		sub	sp, sp, #24
  54              	.LCFI1:
  55              		.cfi_def_cfa_offset 32
  56 0004 00AF     		add	r7, sp, #0
  57              		.cfi_offset 14, -4
  58              		.cfi_offset 7, -8
  59              	.LCFI2:
  60              		.cfi_def_cfa_register 7
  61 0006 F860     		str	r0, [r7, #12]
  62 0008 B960     		str	r1, [r7, #8]
  63 000a 7A60     		str	r2, [r7, #4]
  23:.\packet.c    ****     char *a, *b;
  24:.\packet.c    ****     
  25:.\packet.c    ****     // Find the first occurence of "name" in "packet"
  26:.\packet.c    ****     a = strstr(packet,name);
  64              		.loc 1 26 0
  65 000c F868     		ldr	r0, [r7, #12]
  66 000e B968     		ldr	r1, [r7, #8]
  67 0010 FFF7FEFF 		bl	strstr
  68 0014 0346     		mov	r3, r0
  69 0016 3B61     		str	r3, [r7, #16]
  27:.\packet.c    ****     if (a == NULL) {
  70              		.loc 1 27 0
  71 0018 3B69     		ldr	r3, [r7, #16]
ARM GAS  C:\Users\karunmj\AppData\Local\Temp\ccht7lPv.s 			page 3


  72 001a 002B     		cmp	r3, #0
  73 001c 18D1     		bne	.L2
  28:.\packet.c    ****         sprintf(error_str, "%s not found in packet: \n%s", name, packet);
  74              		.loc 1 28 0
  75 001e 40F20003 		movw	r3, #:lower16:error_str
  76 0022 C0F20003 		movt	r3, #:upper16:error_str
  77 0026 1B68     		ldr	r3, [r3, #0]
  78 0028 1846     		mov	r0, r3
  79 002a 40F20001 		movw	r1, #:lower16:.LC0
  80 002e C0F20001 		movt	r1, #:upper16:.LC0
  81 0032 BA68     		ldr	r2, [r7, #8]
  82 0034 FB68     		ldr	r3, [r7, #12]
  83 0036 FFF7FEFF 		bl	sprintf
  29:.\packet.c    ****         debug_write( error_str );
  84              		.loc 1 29 0
  85 003a 40F20003 		movw	r3, #:lower16:error_str
  86 003e C0F20003 		movt	r3, #:upper16:error_str
  87 0042 1B68     		ldr	r3, [r3, #0]
  88 0044 1846     		mov	r0, r3
  89 0046 FFF7FEFF 		bl	debug_write
  30:.\packet.c    ****         return 0u;
  90              		.loc 1 30 0
  91 004a 4FF00003 		mov	r3, #0
  92 004e 52E0     		b	.L3
  93              	.L2:
  31:.\packet.c    ****     }
  32:.\packet.c    ****     
  33:.\packet.c    ****     // Move the pointer to the timestamp after the first occurence of "name"
  34:.\packet.c    ****     // This marks where the value is
  35:.\packet.c    ****     a = strstr(a,"Z,")+strlen("Z,");
  94              		.loc 1 35 0
  95 0050 3869     		ldr	r0, [r7, #16]
  96 0052 40F20001 		movw	r1, #:lower16:.LC1
  97 0056 C0F20001 		movt	r1, #:upper16:.LC1
  98 005a FFF7FEFF 		bl	strstr
  99 005e 0346     		mov	r3, r0
 100 0060 03F10203 		add	r3, r3, #2
 101 0064 3B61     		str	r3, [r7, #16]
  36:.\packet.c    ****     if (a == NULL) {
 102              		.loc 1 36 0
 103 0066 3B69     		ldr	r3, [r7, #16]
 104 0068 002B     		cmp	r3, #0
 105 006a 17D1     		bne	.L4
  37:.\packet.c    ****         sprintf(error_str, "'Z,' not found in packet: \n%s", packet);
 106              		.loc 1 37 0
 107 006c 40F20003 		movw	r3, #:lower16:error_str
 108 0070 C0F20003 		movt	r3, #:upper16:error_str
 109 0074 1B68     		ldr	r3, [r3, #0]
 110 0076 1846     		mov	r0, r3
 111 0078 40F20001 		movw	r1, #:lower16:.LC2
 112 007c C0F20001 		movt	r1, #:upper16:.LC2
 113 0080 FA68     		ldr	r2, [r7, #12]
 114 0082 FFF7FEFF 		bl	sprintf
  38:.\packet.c    ****         debug_write( error_str );
 115              		.loc 1 38 0
 116 0086 40F20003 		movw	r3, #:lower16:error_str
 117 008a C0F20003 		movt	r3, #:upper16:error_str
ARM GAS  C:\Users\karunmj\AppData\Local\Temp\ccht7lPv.s 			page 4


 118 008e 1B68     		ldr	r3, [r3, #0]
 119 0090 1846     		mov	r0, r3
 120 0092 FFF7FEFF 		bl	debug_write
  39:.\packet.c    ****         return 0u;
 121              		.loc 1 39 0
 122 0096 4FF00003 		mov	r3, #0
 123 009a 2CE0     		b	.L3
 124              	.L4:
  40:.\packet.c    ****     }
  41:.\packet.c    ****     
  42:.\packet.c    ****     // Find the carriage return, marking the end of the value
  43:.\packet.c    ****     b = strstr(a,"\n");
 125              		.loc 1 43 0
 126 009c 3869     		ldr	r0, [r7, #16]
 127 009e 4FF00A01 		mov	r1, #10
 128 00a2 FFF7FEFF 		bl	strchr
 129 00a6 0346     		mov	r3, r0
 130 00a8 7B61     		str	r3, [r7, #20]
  44:.\packet.c    ****     if (b == NULL) {
 131              		.loc 1 44 0
 132 00aa 7B69     		ldr	r3, [r7, #20]
 133 00ac 002B     		cmp	r3, #0
 134 00ae 17D1     		bne	.L5
  45:.\packet.c    ****         sprintf(error_str, "'\r' not found in packet: \n%s", packet);
 135              		.loc 1 45 0
 136 00b0 40F20003 		movw	r3, #:lower16:error_str
 137 00b4 C0F20003 		movt	r3, #:upper16:error_str
 138 00b8 1B68     		ldr	r3, [r3, #0]
 139 00ba 1846     		mov	r0, r3
 140 00bc 40F20001 		movw	r1, #:lower16:.LC3
 141 00c0 C0F20001 		movt	r1, #:upper16:.LC3
 142 00c4 FA68     		ldr	r2, [r7, #12]
 143 00c6 FFF7FEFF 		bl	sprintf
  46:.\packet.c    ****         debug_write( error_str );
 144              		.loc 1 46 0
 145 00ca 40F20003 		movw	r3, #:lower16:error_str
 146 00ce C0F20003 		movt	r3, #:upper16:error_str
 147 00d2 1B68     		ldr	r3, [r3, #0]
 148 00d4 1846     		mov	r0, r3
 149 00d6 FFF7FEFF 		bl	debug_write
  47:.\packet.c    ****         return 0u;
 150              		.loc 1 47 0
 151 00da 4FF00003 		mov	r3, #0
 152 00de 0AE0     		b	.L3
 153              	.L5:
  48:.\packet.c    ****     }
  49:.\packet.c    ****     
  50:.\packet.c    ****     strncpy(value,a,b-a);   
 154              		.loc 1 50 0
 155 00e0 7A69     		ldr	r2, [r7, #20]
 156 00e2 3B69     		ldr	r3, [r7, #16]
 157 00e4 C3EB0203 		rsb	r3, r3, r2
 158 00e8 7868     		ldr	r0, [r7, #4]
 159 00ea 3969     		ldr	r1, [r7, #16]
 160 00ec 1A46     		mov	r2, r3
 161 00ee FFF7FEFF 		bl	strncpy
  51:.\packet.c    ****     return 1u;
ARM GAS  C:\Users\karunmj\AppData\Local\Temp\ccht7lPv.s 			page 5


 162              		.loc 1 51 0
 163 00f2 4FF00103 		mov	r3, #1
 164              	.L3:
  52:.\packet.c    **** }
 165              		.loc 1 52 0
 166 00f6 1846     		mov	r0, r3
 167 00f8 07F11807 		add	r7, r7, #24
 168 00fc BD46     		mov	sp, r7
 169 00fe 80BD     		pop	{r7, pc}
 170              		.cfi_endproc
 171              	.LFE29:
 172              		.size	packet_get_value, .-packet_get_value
 173              		.section	.text.packet_get_uint8,"ax",%progbits
 174              		.align	2
 175              		.global	packet_get_uint8
 176              		.thumb
 177              		.thumb_func
 178              		.type	packet_get_uint8, %function
 179              	packet_get_uint8:
 180              	.LFB30:
  53:.\packet.c    **** 
  54:.\packet.c    **** /*
  55:.\packet.c    **** Searches Xively packet for name and returns the associated value
  56:.\packet.c    **** as uint32.
  57:.\packet.c    **** Returns 1 if successful, and 0 if there was an error.
  58:.\packet.c    **** */
  59:.\packet.c    **** uint8 packet_get_uint8(char* packet, char* name, uint8* value) {
 181              		.loc 1 59 0
 182              		.cfi_startproc
 183              		@ args = 0, pretend = 0, frame = 40
 184              		@ frame_needed = 1, uses_anonymous_args = 0
 185 0000 80B5     		push	{r7, lr}
 186              	.LCFI3:
 187              		.cfi_def_cfa_offset 8
 188 0002 8AB0     		sub	sp, sp, #40
 189              	.LCFI4:
 190              		.cfi_def_cfa_offset 48
 191 0004 00AF     		add	r7, sp, #0
 192              		.cfi_offset 14, -4
 193              		.cfi_offset 7, -8
 194              	.LCFI5:
 195              		.cfi_def_cfa_register 7
 196 0006 F860     		str	r0, [r7, #12]
 197 0008 B960     		str	r1, [r7, #8]
 198 000a 7A60     		str	r2, [r7, #4]
  60:.\packet.c    ****     char value_str[20] = {0}; // uint8 is at most 3 digits long
 199              		.loc 1 60 0
 200 000c 07F11403 		add	r3, r7, #20
 201 0010 4FF00002 		mov	r2, #0
 202 0014 1A60     		str	r2, [r3, #0]
 203 0016 03F10403 		add	r3, r3, #4
 204 001a 4FF00002 		mov	r2, #0
 205 001e 1A60     		str	r2, [r3, #0]
 206 0020 03F10403 		add	r3, r3, #4
 207 0024 4FF00002 		mov	r2, #0
 208 0028 1A60     		str	r2, [r3, #0]
 209 002a 03F10403 		add	r3, r3, #4
ARM GAS  C:\Users\karunmj\AppData\Local\Temp\ccht7lPv.s 			page 6


 210 002e 4FF00002 		mov	r2, #0
 211 0032 1A60     		str	r2, [r3, #0]
 212 0034 03F10403 		add	r3, r3, #4
 213 0038 4FF00002 		mov	r2, #0
 214 003c 1A60     		str	r2, [r3, #0]
 215 003e 03F10403 		add	r3, r3, #4
  61:.\packet.c    ****     
  62:.\packet.c    ****     if( packet_get_value(packet, name, value_str) ){
 216              		.loc 1 62 0
 217 0042 07F11403 		add	r3, r7, #20
 218 0046 F868     		ldr	r0, [r7, #12]
 219 0048 B968     		ldr	r1, [r7, #8]
 220 004a 1A46     		mov	r2, r3
 221 004c FFF7FEFF 		bl	packet_get_value
 222 0050 0346     		mov	r3, r0
 223 0052 002B     		cmp	r3, #0
 224 0054 0FD0     		beq	.L8
  63:.\packet.c    ****         *value = (uint8) strtol(value_str,(char **) NULL, 10); // Base 10
 225              		.loc 1 63 0
 226 0056 07F11403 		add	r3, r7, #20
 227 005a 1846     		mov	r0, r3
 228 005c 4FF00001 		mov	r1, #0
 229 0060 4FF00A02 		mov	r2, #10
 230 0064 FFF7FEFF 		bl	strtol
 231 0068 0346     		mov	r3, r0
 232 006a DAB2     		uxtb	r2, r3
 233 006c 7B68     		ldr	r3, [r7, #4]
 234 006e 1A70     		strb	r2, [r3, #0]
  64:.\packet.c    ****         // http://www.cplusplus.com/reference/cstdlib/strtol/
  65:.\packet.c    ****         return 1u;
 235              		.loc 1 65 0
 236 0070 4FF00103 		mov	r3, #1
 237 0074 17E0     		b	.L9
 238              	.L8:
  66:.\packet.c    ****     }
  67:.\packet.c    ****         
  68:.\packet.c    ****     sprintf(error_str, "%s not found in packet: \n%s", name, packet);
 239              		.loc 1 68 0
 240 0076 40F20003 		movw	r3, #:lower16:error_str
 241 007a C0F20003 		movt	r3, #:upper16:error_str
 242 007e 1B68     		ldr	r3, [r3, #0]
 243 0080 1846     		mov	r0, r3
 244 0082 40F20001 		movw	r1, #:lower16:.LC0
 245 0086 C0F20001 		movt	r1, #:upper16:.LC0
 246 008a BA68     		ldr	r2, [r7, #8]
 247 008c FB68     		ldr	r3, [r7, #12]
 248 008e FFF7FEFF 		bl	sprintf
  69:.\packet.c    ****     debug_write( error_str );
 249              		.loc 1 69 0
 250 0092 40F20003 		movw	r3, #:lower16:error_str
 251 0096 C0F20003 		movt	r3, #:upper16:error_str
 252 009a 1B68     		ldr	r3, [r3, #0]
 253 009c 1846     		mov	r0, r3
 254 009e FFF7FEFF 		bl	debug_write
  70:.\packet.c    ****     return 0u;
 255              		.loc 1 70 0
 256 00a2 4FF00003 		mov	r3, #0
ARM GAS  C:\Users\karunmj\AppData\Local\Temp\ccht7lPv.s 			page 7


 257              	.L9:
  71:.\packet.c    **** }
 258              		.loc 1 71 0
 259 00a6 1846     		mov	r0, r3
 260 00a8 07F12807 		add	r7, r7, #40
 261 00ac BD46     		mov	sp, r7
 262 00ae 80BD     		pop	{r7, pc}
 263              		.cfi_endproc
 264              	.LFE30:
 265              		.size	packet_get_uint8, .-packet_get_uint8
 266              		.section	.text.packet_get_uint32,"ax",%progbits
 267              		.align	2
 268              		.global	packet_get_uint32
 269              		.thumb
 270              		.thumb_func
 271              		.type	packet_get_uint32, %function
 272              	packet_get_uint32:
 273              	.LFB31:
  72:.\packet.c    **** 
  73:.\packet.c    **** /*
  74:.\packet.c    **** Searches Xively packet for name and returns the associated value
  75:.\packet.c    **** as uint32.
  76:.\packet.c    **** Returns 1 if successful, and 0 if there was an error.
  77:.\packet.c    **** */
  78:.\packet.c    **** uint8 packet_get_uint32(char* packet, char* name, uint32* value) {
 274              		.loc 1 78 0
 275              		.cfi_startproc
 276              		@ args = 0, pretend = 0, frame = 40
 277              		@ frame_needed = 1, uses_anonymous_args = 0
 278 0000 80B5     		push	{r7, lr}
 279              	.LCFI6:
 280              		.cfi_def_cfa_offset 8
 281 0002 8AB0     		sub	sp, sp, #40
 282              	.LCFI7:
 283              		.cfi_def_cfa_offset 48
 284 0004 00AF     		add	r7, sp, #0
 285              		.cfi_offset 14, -4
 286              		.cfi_offset 7, -8
 287              	.LCFI8:
 288              		.cfi_def_cfa_register 7
 289 0006 F860     		str	r0, [r7, #12]
 290 0008 B960     		str	r1, [r7, #8]
 291 000a 7A60     		str	r2, [r7, #4]
  79:.\packet.c    ****     char value_str[20] = {0}; // uint32 is at most 10 digits long
 292              		.loc 1 79 0
 293 000c 07F11403 		add	r3, r7, #20
 294 0010 4FF00002 		mov	r2, #0
 295 0014 1A60     		str	r2, [r3, #0]
 296 0016 03F10403 		add	r3, r3, #4
 297 001a 4FF00002 		mov	r2, #0
 298 001e 1A60     		str	r2, [r3, #0]
 299 0020 03F10403 		add	r3, r3, #4
 300 0024 4FF00002 		mov	r2, #0
 301 0028 1A60     		str	r2, [r3, #0]
 302 002a 03F10403 		add	r3, r3, #4
 303 002e 4FF00002 		mov	r2, #0
 304 0032 1A60     		str	r2, [r3, #0]
ARM GAS  C:\Users\karunmj\AppData\Local\Temp\ccht7lPv.s 			page 8


 305 0034 03F10403 		add	r3, r3, #4
 306 0038 4FF00002 		mov	r2, #0
 307 003c 1A60     		str	r2, [r3, #0]
 308 003e 03F10403 		add	r3, r3, #4
  80:.\packet.c    ****     
  81:.\packet.c    ****     if( packet_get_value(packet, name, value_str) ){
 309              		.loc 1 81 0
 310 0042 07F11403 		add	r3, r7, #20
 311 0046 F868     		ldr	r0, [r7, #12]
 312 0048 B968     		ldr	r1, [r7, #8]
 313 004a 1A46     		mov	r2, r3
 314 004c FFF7FEFF 		bl	packet_get_value
 315 0050 0346     		mov	r3, r0
 316 0052 002B     		cmp	r3, #0
 317 0054 0FD0     		beq	.L12
  82:.\packet.c    ****         *value = (uint32) strtol(value_str,(char **) NULL, 10); // Base 10
 318              		.loc 1 82 0
 319 0056 07F11403 		add	r3, r7, #20
 320 005a 1846     		mov	r0, r3
 321 005c 4FF00001 		mov	r1, #0
 322 0060 4FF00A02 		mov	r2, #10
 323 0064 FFF7FEFF 		bl	strtol
 324 0068 0346     		mov	r3, r0
 325 006a 1A46     		mov	r2, r3
 326 006c 7B68     		ldr	r3, [r7, #4]
 327 006e 1A60     		str	r2, [r3, #0]
  83:.\packet.c    ****         // http://www.cplusplus.com/reference/cstdlib/strtol/
  84:.\packet.c    ****         return 1u;
 328              		.loc 1 84 0
 329 0070 4FF00103 		mov	r3, #1
 330 0074 17E0     		b	.L13
 331              	.L12:
  85:.\packet.c    ****     }
  86:.\packet.c    ****         
  87:.\packet.c    ****     sprintf(error_str, "%s not found in packet: \n%s", name, packet);
 332              		.loc 1 87 0
 333 0076 40F20003 		movw	r3, #:lower16:error_str
 334 007a C0F20003 		movt	r3, #:upper16:error_str
 335 007e 1B68     		ldr	r3, [r3, #0]
 336 0080 1846     		mov	r0, r3
 337 0082 40F20001 		movw	r1, #:lower16:.LC0
 338 0086 C0F20001 		movt	r1, #:upper16:.LC0
 339 008a BA68     		ldr	r2, [r7, #8]
 340 008c FB68     		ldr	r3, [r7, #12]
 341 008e FFF7FEFF 		bl	sprintf
  88:.\packet.c    ****     debug_write( error_str );
 342              		.loc 1 88 0
 343 0092 40F20003 		movw	r3, #:lower16:error_str
 344 0096 C0F20003 		movt	r3, #:upper16:error_str
 345 009a 1B68     		ldr	r3, [r3, #0]
 346 009c 1846     		mov	r0, r3
 347 009e FFF7FEFF 		bl	debug_write
  89:.\packet.c    ****     return 0u;
 348              		.loc 1 89 0
 349 00a2 4FF00003 		mov	r3, #0
 350              	.L13:
  90:.\packet.c    **** }
ARM GAS  C:\Users\karunmj\AppData\Local\Temp\ccht7lPv.s 			page 9


 351              		.loc 1 90 0
 352 00a6 1846     		mov	r0, r3
 353 00a8 07F12807 		add	r7, r7, #40
 354 00ac BD46     		mov	sp, r7
 355 00ae 80BD     		pop	{r7, pc}
 356              		.cfi_endproc
 357              	.LFE31:
 358              		.size	packet_get_uint32, .-packet_get_uint32
 359              		.section	.text.clear_packet,"ax",%progbits
 360              		.align	2
 361              		.global	clear_packet
 362              		.thumb
 363              		.thumb_func
 364              		.type	clear_packet, %function
 365              	clear_packet:
 366              	.LFB32:
  91:.\packet.c    **** 
  92:.\packet.c    **** 
  93:.\packet.c    **** uint8 clear_packet(char* packet){
 367              		.loc 1 93 0
 368              		.cfi_startproc
 369              		@ args = 0, pretend = 0, frame = 8
 370              		@ frame_needed = 1, uses_anonymous_args = 0
 371 0000 80B5     		push	{r7, lr}
 372              	.LCFI9:
 373              		.cfi_def_cfa_offset 8
 374 0002 82B0     		sub	sp, sp, #8
 375              	.LCFI10:
 376              		.cfi_def_cfa_offset 16
 377 0004 00AF     		add	r7, sp, #0
 378              		.cfi_offset 14, -4
 379              		.cfi_offset 7, -8
 380              	.LCFI11:
 381              		.cfi_def_cfa_register 7
 382 0006 7860     		str	r0, [r7, #4]
  94:.\packet.c    **** 
  95:.\packet.c    ****     memset(packet,0,sizeof(packet));
 383              		.loc 1 95 0
 384 0008 7868     		ldr	r0, [r7, #4]
 385 000a 4FF00001 		mov	r1, #0
 386 000e 4FF00402 		mov	r2, #4
 387 0012 FFF7FEFF 		bl	memset
  96:.\packet.c    ****     return 1u;
 388              		.loc 1 96 0
 389 0016 4FF00103 		mov	r3, #1
  97:.\packet.c    **** }
 390              		.loc 1 97 0
 391 001a 1846     		mov	r0, r3
 392 001c 07F10807 		add	r7, r7, #8
 393 0020 BD46     		mov	sp, r7
 394 0022 80BD     		pop	{r7, pc}
 395              		.cfi_endproc
 396              	.LFE32:
 397              		.size	clear_packet, .-clear_packet
 398              		.text
 399              	.Letext0:
 400              		.section	.debug_loc,"",%progbits
ARM GAS  C:\Users\karunmj\AppData\Local\Temp\ccht7lPv.s 			page 10


 401              	.Ldebug_loc0:
 402              	.LLST0:
 403 0000 00000000 		.4byte	.LFB29
 404 0004 02000000 		.4byte	.LCFI0
 405 0008 0100     		.2byte	0x1
 406 000a 5D       		.byte	0x5d
 407 000b 02000000 		.4byte	.LCFI0
 408 000f 04000000 		.4byte	.LCFI1
 409 0013 0200     		.2byte	0x2
 410 0015 7D       		.byte	0x7d
 411 0016 08       		.sleb128 8
 412 0017 04000000 		.4byte	.LCFI1
 413 001b 06000000 		.4byte	.LCFI2
 414 001f 0200     		.2byte	0x2
 415 0021 7D       		.byte	0x7d
 416 0022 20       		.sleb128 32
 417 0023 06000000 		.4byte	.LCFI2
 418 0027 00010000 		.4byte	.LFE29
 419 002b 0200     		.2byte	0x2
 420 002d 77       		.byte	0x77
 421 002e 20       		.sleb128 32
 422 002f 00000000 		.4byte	0x0
 423 0033 00000000 		.4byte	0x0
 424              	.LLST1:
 425 0037 00000000 		.4byte	.LFB30
 426 003b 02000000 		.4byte	.LCFI3
 427 003f 0100     		.2byte	0x1
 428 0041 5D       		.byte	0x5d
 429 0042 02000000 		.4byte	.LCFI3
 430 0046 04000000 		.4byte	.LCFI4
 431 004a 0200     		.2byte	0x2
 432 004c 7D       		.byte	0x7d
 433 004d 08       		.sleb128 8
 434 004e 04000000 		.4byte	.LCFI4
 435 0052 06000000 		.4byte	.LCFI5
 436 0056 0200     		.2byte	0x2
 437 0058 7D       		.byte	0x7d
 438 0059 30       		.sleb128 48
 439 005a 06000000 		.4byte	.LCFI5
 440 005e B0000000 		.4byte	.LFE30
 441 0062 0200     		.2byte	0x2
 442 0064 77       		.byte	0x77
 443 0065 30       		.sleb128 48
 444 0066 00000000 		.4byte	0x0
 445 006a 00000000 		.4byte	0x0
 446              	.LLST2:
 447 006e 00000000 		.4byte	.LFB31
 448 0072 02000000 		.4byte	.LCFI6
 449 0076 0100     		.2byte	0x1
 450 0078 5D       		.byte	0x5d
 451 0079 02000000 		.4byte	.LCFI6
 452 007d 04000000 		.4byte	.LCFI7
 453 0081 0200     		.2byte	0x2
 454 0083 7D       		.byte	0x7d
 455 0084 08       		.sleb128 8
 456 0085 04000000 		.4byte	.LCFI7
 457 0089 06000000 		.4byte	.LCFI8
ARM GAS  C:\Users\karunmj\AppData\Local\Temp\ccht7lPv.s 			page 11


 458 008d 0200     		.2byte	0x2
 459 008f 7D       		.byte	0x7d
 460 0090 30       		.sleb128 48
 461 0091 06000000 		.4byte	.LCFI8
 462 0095 B0000000 		.4byte	.LFE31
 463 0099 0200     		.2byte	0x2
 464 009b 77       		.byte	0x77
 465 009c 30       		.sleb128 48
 466 009d 00000000 		.4byte	0x0
 467 00a1 00000000 		.4byte	0x0
 468              	.LLST3:
 469 00a5 00000000 		.4byte	.LFB32
 470 00a9 02000000 		.4byte	.LCFI9
 471 00ad 0100     		.2byte	0x1
 472 00af 5D       		.byte	0x5d
 473 00b0 02000000 		.4byte	.LCFI9
 474 00b4 04000000 		.4byte	.LCFI10
 475 00b8 0200     		.2byte	0x2
 476 00ba 7D       		.byte	0x7d
 477 00bb 08       		.sleb128 8
 478 00bc 04000000 		.4byte	.LCFI10
 479 00c0 06000000 		.4byte	.LCFI11
 480 00c4 0200     		.2byte	0x2
 481 00c6 7D       		.byte	0x7d
 482 00c7 10       		.sleb128 16
 483 00c8 06000000 		.4byte	.LCFI11
 484 00cc 24000000 		.4byte	.LFE32
 485 00d0 0200     		.2byte	0x2
 486 00d2 77       		.byte	0x77
 487 00d3 10       		.sleb128 16
 488 00d4 00000000 		.4byte	0x0
 489 00d8 00000000 		.4byte	0x0
 490              		.file 2 "./Generated_Source/PSoC5/cytypes.h"
 491              		.file 3 "./Generated_Source/PSoC5/core_cm3.h"
 492              		.section	.debug_info
 493 0000 19020000 		.4byte	0x219
 494 0004 0200     		.2byte	0x2
 495 0006 00000000 		.4byte	.Ldebug_abbrev0
 496 000a 04       		.byte	0x4
 497 000b 01       		.uleb128 0x1
 498 000c CF000000 		.4byte	.LASF24
 499 0010 01       		.byte	0x1
 500 0011 EC000000 		.4byte	.LASF25
 501 0015 10000000 		.4byte	.LASF26
 502 0019 00000000 		.4byte	0x0
 503 001d 00000000 		.4byte	0x0
 504 0021 00000000 		.4byte	.Ldebug_ranges0+0x0
 505 0025 00000000 		.4byte	.Ldebug_line0
 506 0029 02       		.uleb128 0x2
 507 002a 01       		.byte	0x1
 508 002b 06       		.byte	0x6
 509 002c 31010000 		.4byte	.LASF0
 510 0030 02       		.uleb128 0x2
 511 0031 01       		.byte	0x1
 512 0032 08       		.byte	0x8
 513 0033 66000000 		.4byte	.LASF1
 514 0037 02       		.uleb128 0x2
ARM GAS  C:\Users\karunmj\AppData\Local\Temp\ccht7lPv.s 			page 12


 515 0038 02       		.byte	0x2
 516 0039 05       		.byte	0x5
 517 003a 66010000 		.4byte	.LASF2
 518 003e 02       		.uleb128 0x2
 519 003f 02       		.byte	0x2
 520 0040 07       		.byte	0x7
 521 0041 B5000000 		.4byte	.LASF3
 522 0045 02       		.uleb128 0x2
 523 0046 04       		.byte	0x4
 524 0047 05       		.byte	0x5
 525 0048 06010000 		.4byte	.LASF4
 526 004c 02       		.uleb128 0x2
 527 004d 04       		.byte	0x4
 528 004e 07       		.byte	0x7
 529 004f 7A000000 		.4byte	.LASF5
 530 0053 02       		.uleb128 0x2
 531 0054 08       		.byte	0x8
 532 0055 05       		.byte	0x5
 533 0056 16010000 		.4byte	.LASF6
 534 005a 02       		.uleb128 0x2
 535 005b 08       		.byte	0x8
 536 005c 07       		.byte	0x7
 537 005d 91000000 		.4byte	.LASF7
 538 0061 03       		.uleb128 0x3
 539 0062 04       		.byte	0x4
 540 0063 05       		.byte	0x5
 541 0064 696E7400 		.ascii	"int\000"
 542 0068 02       		.uleb128 0x2
 543 0069 04       		.byte	0x4
 544 006a 07       		.byte	0x7
 545 006b 70010000 		.4byte	.LASF8
 546 006f 04       		.uleb128 0x4
 547 0070 74000000 		.4byte	.LASF9
 548 0074 02       		.byte	0x2
 549 0075 4C       		.byte	0x4c
 550 0076 30000000 		.4byte	0x30
 551 007a 04       		.uleb128 0x4
 552 007b 5F000000 		.4byte	.LASF10
 553 007f 02       		.byte	0x2
 554 0080 4E       		.byte	0x4e
 555 0081 4C000000 		.4byte	0x4c
 556 0085 02       		.uleb128 0x2
 557 0086 04       		.byte	0x4
 558 0087 04       		.byte	0x4
 559 0088 60010000 		.4byte	.LASF11
 560 008c 02       		.uleb128 0x2
 561 008d 08       		.byte	0x8
 562 008e 04       		.byte	0x4
 563 008f 0F010000 		.4byte	.LASF12
 564 0093 02       		.uleb128 0x2
 565 0094 01       		.byte	0x1
 566 0095 08       		.byte	0x8
 567 0096 F7000000 		.4byte	.LASF13
 568 009a 05       		.uleb128 0x5
 569 009b 04       		.byte	0x4
 570 009c 07       		.byte	0x7
 571 009d 06       		.uleb128 0x6
ARM GAS  C:\Users\karunmj\AppData\Local\Temp\ccht7lPv.s 			page 13


 572 009e 04       		.byte	0x4
 573 009f 93000000 		.4byte	0x93
 574 00a3 07       		.uleb128 0x7
 575 00a4 01       		.byte	0x1
 576 00a5 3D010000 		.4byte	.LASF17
 577 00a9 01       		.byte	0x1
 578 00aa 16       		.byte	0x16
 579 00ab 01       		.byte	0x1
 580 00ac 6F000000 		.4byte	0x6f
 581 00b0 00000000 		.4byte	.LFB29
 582 00b4 00010000 		.4byte	.LFE29
 583 00b8 00000000 		.4byte	.LLST0
 584 00bc 03010000 		.4byte	0x103
 585 00c0 08       		.uleb128 0x8
 586 00c1 C8000000 		.4byte	.LASF14
 587 00c5 01       		.byte	0x1
 588 00c6 16       		.byte	0x16
 589 00c7 9D000000 		.4byte	0x9d
 590 00cb 02       		.byte	0x2
 591 00cc 91       		.byte	0x91
 592 00cd 6C       		.sleb128 -20
 593 00ce 08       		.uleb128 0x8
 594 00cf 8C000000 		.4byte	.LASF15
 595 00d3 01       		.byte	0x1
 596 00d4 16       		.byte	0x16
 597 00d5 9D000000 		.4byte	0x9d
 598 00d9 02       		.byte	0x2
 599 00da 91       		.byte	0x91
 600 00db 68       		.sleb128 -24
 601 00dc 08       		.uleb128 0x8
 602 00dd 0A000000 		.4byte	.LASF16
 603 00e1 01       		.byte	0x1
 604 00e2 16       		.byte	0x16
 605 00e3 9D000000 		.4byte	0x9d
 606 00e7 02       		.byte	0x2
 607 00e8 91       		.byte	0x91
 608 00e9 64       		.sleb128 -28
 609 00ea 09       		.uleb128 0x9
 610 00eb 6100     		.ascii	"a\000"
 611 00ed 01       		.byte	0x1
 612 00ee 17       		.byte	0x17
 613 00ef 9D000000 		.4byte	0x9d
 614 00f3 02       		.byte	0x2
 615 00f4 91       		.byte	0x91
 616 00f5 70       		.sleb128 -16
 617 00f6 09       		.uleb128 0x9
 618 00f7 6200     		.ascii	"b\000"
 619 00f9 01       		.byte	0x1
 620 00fa 17       		.byte	0x17
 621 00fb 9D000000 		.4byte	0x9d
 622 00ff 02       		.byte	0x2
 623 0100 91       		.byte	0x91
 624 0101 74       		.sleb128 -12
 625 0102 00       		.byte	0x0
 626 0103 07       		.uleb128 0x7
 627 0104 01       		.byte	0x1
 628 0105 DB000000 		.4byte	.LASF18
ARM GAS  C:\Users\karunmj\AppData\Local\Temp\ccht7lPv.s 			page 14


 629 0109 01       		.byte	0x1
 630 010a 3B       		.byte	0x3b
 631 010b 01       		.byte	0x1
 632 010c 6F000000 		.4byte	0x6f
 633 0110 00000000 		.4byte	.LFB30
 634 0114 B0000000 		.4byte	.LFE30
 635 0118 37000000 		.4byte	.LLST1
 636 011c 59010000 		.4byte	0x159
 637 0120 08       		.uleb128 0x8
 638 0121 C8000000 		.4byte	.LASF14
 639 0125 01       		.byte	0x1
 640 0126 3B       		.byte	0x3b
 641 0127 9D000000 		.4byte	0x9d
 642 012b 02       		.byte	0x2
 643 012c 91       		.byte	0x91
 644 012d 5C       		.sleb128 -36
 645 012e 08       		.uleb128 0x8
 646 012f 8C000000 		.4byte	.LASF15
 647 0133 01       		.byte	0x1
 648 0134 3B       		.byte	0x3b
 649 0135 9D000000 		.4byte	0x9d
 650 0139 02       		.byte	0x2
 651 013a 91       		.byte	0x91
 652 013b 58       		.sleb128 -40
 653 013c 08       		.uleb128 0x8
 654 013d 0A000000 		.4byte	.LASF16
 655 0141 01       		.byte	0x1
 656 0142 3B       		.byte	0x3b
 657 0143 59010000 		.4byte	0x159
 658 0147 02       		.byte	0x2
 659 0148 91       		.byte	0x91
 660 0149 54       		.sleb128 -44
 661 014a 0A       		.uleb128 0xa
 662 014b 00000000 		.4byte	.LASF19
 663 014f 01       		.byte	0x1
 664 0150 3C       		.byte	0x3c
 665 0151 5F010000 		.4byte	0x15f
 666 0155 02       		.byte	0x2
 667 0156 91       		.byte	0x91
 668 0157 64       		.sleb128 -28
 669 0158 00       		.byte	0x0
 670 0159 06       		.uleb128 0x6
 671 015a 04       		.byte	0x4
 672 015b 6F000000 		.4byte	0x6f
 673 015f 0B       		.uleb128 0xb
 674 0160 93000000 		.4byte	0x93
 675 0164 6F010000 		.4byte	0x16f
 676 0168 0C       		.uleb128 0xc
 677 0169 9A000000 		.4byte	0x9a
 678 016d 13       		.byte	0x13
 679 016e 00       		.byte	0x0
 680 016f 07       		.uleb128 0x7
 681 0170 01       		.byte	0x1
 682 0171 4E010000 		.4byte	.LASF20
 683 0175 01       		.byte	0x1
 684 0176 4E       		.byte	0x4e
 685 0177 01       		.byte	0x1
ARM GAS  C:\Users\karunmj\AppData\Local\Temp\ccht7lPv.s 			page 15


 686 0178 6F000000 		.4byte	0x6f
 687 017c 00000000 		.4byte	.LFB31
 688 0180 B0000000 		.4byte	.LFE31
 689 0184 6E000000 		.4byte	.LLST2
 690 0188 C5010000 		.4byte	0x1c5
 691 018c 08       		.uleb128 0x8
 692 018d C8000000 		.4byte	.LASF14
 693 0191 01       		.byte	0x1
 694 0192 4E       		.byte	0x4e
 695 0193 9D000000 		.4byte	0x9d
 696 0197 02       		.byte	0x2
 697 0198 91       		.byte	0x91
 698 0199 5C       		.sleb128 -36
 699 019a 08       		.uleb128 0x8
 700 019b 8C000000 		.4byte	.LASF15
 701 019f 01       		.byte	0x1
 702 01a0 4E       		.byte	0x4e
 703 01a1 9D000000 		.4byte	0x9d
 704 01a5 02       		.byte	0x2
 705 01a6 91       		.byte	0x91
 706 01a7 58       		.sleb128 -40
 707 01a8 08       		.uleb128 0x8
 708 01a9 0A000000 		.4byte	.LASF16
 709 01ad 01       		.byte	0x1
 710 01ae 4E       		.byte	0x4e
 711 01af C5010000 		.4byte	0x1c5
 712 01b3 02       		.byte	0x2
 713 01b4 91       		.byte	0x91
 714 01b5 54       		.sleb128 -44
 715 01b6 0A       		.uleb128 0xa
 716 01b7 00000000 		.4byte	.LASF19
 717 01bb 01       		.byte	0x1
 718 01bc 4F       		.byte	0x4f
 719 01bd 5F010000 		.4byte	0x15f
 720 01c1 02       		.byte	0x2
 721 01c2 91       		.byte	0x91
 722 01c3 64       		.sleb128 -28
 723 01c4 00       		.byte	0x0
 724 01c5 06       		.uleb128 0x6
 725 01c6 04       		.byte	0x4
 726 01c7 7A000000 		.4byte	0x7a
 727 01cb 07       		.uleb128 0x7
 728 01cc 01       		.byte	0x1
 729 01cd A8000000 		.4byte	.LASF21
 730 01d1 01       		.byte	0x1
 731 01d2 5D       		.byte	0x5d
 732 01d3 01       		.byte	0x1
 733 01d4 6F000000 		.4byte	0x6f
 734 01d8 00000000 		.4byte	.LFB32
 735 01dc 24000000 		.4byte	.LFE32
 736 01e0 A5000000 		.4byte	.LLST3
 737 01e4 F7010000 		.4byte	0x1f7
 738 01e8 08       		.uleb128 0x8
 739 01e9 C8000000 		.4byte	.LASF14
 740 01ed 01       		.byte	0x1
 741 01ee 5D       		.byte	0x5d
 742 01ef 9D000000 		.4byte	0x9d
ARM GAS  C:\Users\karunmj\AppData\Local\Temp\ccht7lPv.s 			page 16


 743 01f3 02       		.byte	0x2
 744 01f4 91       		.byte	0x91
 745 01f5 74       		.sleb128 -12
 746 01f6 00       		.byte	0x0
 747 01f7 0D       		.uleb128 0xd
 748 01f8 24010000 		.4byte	.LASF22
 749 01fc 03       		.byte	0x3
 750 01fd CE06     		.2byte	0x6ce
 751 01ff 05020000 		.4byte	0x205
 752 0203 01       		.byte	0x1
 753 0204 01       		.byte	0x1
 754 0205 0E       		.uleb128 0xe
 755 0206 61000000 		.4byte	0x61
 756 020a 0F       		.uleb128 0xf
 757 020b FC000000 		.4byte	.LASF23
 758 020f 01       		.byte	0x1
 759 0210 0F       		.byte	0xf
 760 0211 9D000000 		.4byte	0x9d
 761 0215 01       		.byte	0x1
 762 0216 05       		.byte	0x5
 763 0217 03       		.byte	0x3
 764 0218 00000000 		.4byte	error_str
 765 021c 00       		.byte	0x0
 766              		.section	.debug_abbrev
 767 0000 01       		.uleb128 0x1
 768 0001 11       		.uleb128 0x11
 769 0002 01       		.byte	0x1
 770 0003 25       		.uleb128 0x25
 771 0004 0E       		.uleb128 0xe
 772 0005 13       		.uleb128 0x13
 773 0006 0B       		.uleb128 0xb
 774 0007 03       		.uleb128 0x3
 775 0008 0E       		.uleb128 0xe
 776 0009 1B       		.uleb128 0x1b
 777 000a 0E       		.uleb128 0xe
 778 000b 11       		.uleb128 0x11
 779 000c 01       		.uleb128 0x1
 780 000d 52       		.uleb128 0x52
 781 000e 01       		.uleb128 0x1
 782 000f 55       		.uleb128 0x55
 783 0010 06       		.uleb128 0x6
 784 0011 10       		.uleb128 0x10
 785 0012 06       		.uleb128 0x6
 786 0013 00       		.byte	0x0
 787 0014 00       		.byte	0x0
 788 0015 02       		.uleb128 0x2
 789 0016 24       		.uleb128 0x24
 790 0017 00       		.byte	0x0
 791 0018 0B       		.uleb128 0xb
 792 0019 0B       		.uleb128 0xb
 793 001a 3E       		.uleb128 0x3e
 794 001b 0B       		.uleb128 0xb
 795 001c 03       		.uleb128 0x3
 796 001d 0E       		.uleb128 0xe
 797 001e 00       		.byte	0x0
 798 001f 00       		.byte	0x0
 799 0020 03       		.uleb128 0x3
ARM GAS  C:\Users\karunmj\AppData\Local\Temp\ccht7lPv.s 			page 17


 800 0021 24       		.uleb128 0x24
 801 0022 00       		.byte	0x0
 802 0023 0B       		.uleb128 0xb
 803 0024 0B       		.uleb128 0xb
 804 0025 3E       		.uleb128 0x3e
 805 0026 0B       		.uleb128 0xb
 806 0027 03       		.uleb128 0x3
 807 0028 08       		.uleb128 0x8
 808 0029 00       		.byte	0x0
 809 002a 00       		.byte	0x0
 810 002b 04       		.uleb128 0x4
 811 002c 16       		.uleb128 0x16
 812 002d 00       		.byte	0x0
 813 002e 03       		.uleb128 0x3
 814 002f 0E       		.uleb128 0xe
 815 0030 3A       		.uleb128 0x3a
 816 0031 0B       		.uleb128 0xb
 817 0032 3B       		.uleb128 0x3b
 818 0033 0B       		.uleb128 0xb
 819 0034 49       		.uleb128 0x49
 820 0035 13       		.uleb128 0x13
 821 0036 00       		.byte	0x0
 822 0037 00       		.byte	0x0
 823 0038 05       		.uleb128 0x5
 824 0039 24       		.uleb128 0x24
 825 003a 00       		.byte	0x0
 826 003b 0B       		.uleb128 0xb
 827 003c 0B       		.uleb128 0xb
 828 003d 3E       		.uleb128 0x3e
 829 003e 0B       		.uleb128 0xb
 830 003f 00       		.byte	0x0
 831 0040 00       		.byte	0x0
 832 0041 06       		.uleb128 0x6
 833 0042 0F       		.uleb128 0xf
 834 0043 00       		.byte	0x0
 835 0044 0B       		.uleb128 0xb
 836 0045 0B       		.uleb128 0xb
 837 0046 49       		.uleb128 0x49
 838 0047 13       		.uleb128 0x13
 839 0048 00       		.byte	0x0
 840 0049 00       		.byte	0x0
 841 004a 07       		.uleb128 0x7
 842 004b 2E       		.uleb128 0x2e
 843 004c 01       		.byte	0x1
 844 004d 3F       		.uleb128 0x3f
 845 004e 0C       		.uleb128 0xc
 846 004f 03       		.uleb128 0x3
 847 0050 0E       		.uleb128 0xe
 848 0051 3A       		.uleb128 0x3a
 849 0052 0B       		.uleb128 0xb
 850 0053 3B       		.uleb128 0x3b
 851 0054 0B       		.uleb128 0xb
 852 0055 27       		.uleb128 0x27
 853 0056 0C       		.uleb128 0xc
 854 0057 49       		.uleb128 0x49
 855 0058 13       		.uleb128 0x13
 856 0059 11       		.uleb128 0x11
ARM GAS  C:\Users\karunmj\AppData\Local\Temp\ccht7lPv.s 			page 18


 857 005a 01       		.uleb128 0x1
 858 005b 12       		.uleb128 0x12
 859 005c 01       		.uleb128 0x1
 860 005d 40       		.uleb128 0x40
 861 005e 06       		.uleb128 0x6
 862 005f 01       		.uleb128 0x1
 863 0060 13       		.uleb128 0x13
 864 0061 00       		.byte	0x0
 865 0062 00       		.byte	0x0
 866 0063 08       		.uleb128 0x8
 867 0064 05       		.uleb128 0x5
 868 0065 00       		.byte	0x0
 869 0066 03       		.uleb128 0x3
 870 0067 0E       		.uleb128 0xe
 871 0068 3A       		.uleb128 0x3a
 872 0069 0B       		.uleb128 0xb
 873 006a 3B       		.uleb128 0x3b
 874 006b 0B       		.uleb128 0xb
 875 006c 49       		.uleb128 0x49
 876 006d 13       		.uleb128 0x13
 877 006e 02       		.uleb128 0x2
 878 006f 0A       		.uleb128 0xa
 879 0070 00       		.byte	0x0
 880 0071 00       		.byte	0x0
 881 0072 09       		.uleb128 0x9
 882 0073 34       		.uleb128 0x34
 883 0074 00       		.byte	0x0
 884 0075 03       		.uleb128 0x3
 885 0076 08       		.uleb128 0x8
 886 0077 3A       		.uleb128 0x3a
 887 0078 0B       		.uleb128 0xb
 888 0079 3B       		.uleb128 0x3b
 889 007a 0B       		.uleb128 0xb
 890 007b 49       		.uleb128 0x49
 891 007c 13       		.uleb128 0x13
 892 007d 02       		.uleb128 0x2
 893 007e 0A       		.uleb128 0xa
 894 007f 00       		.byte	0x0
 895 0080 00       		.byte	0x0
 896 0081 0A       		.uleb128 0xa
 897 0082 34       		.uleb128 0x34
 898 0083 00       		.byte	0x0
 899 0084 03       		.uleb128 0x3
 900 0085 0E       		.uleb128 0xe
 901 0086 3A       		.uleb128 0x3a
 902 0087 0B       		.uleb128 0xb
 903 0088 3B       		.uleb128 0x3b
 904 0089 0B       		.uleb128 0xb
 905 008a 49       		.uleb128 0x49
 906 008b 13       		.uleb128 0x13
 907 008c 02       		.uleb128 0x2
 908 008d 0A       		.uleb128 0xa
 909 008e 00       		.byte	0x0
 910 008f 00       		.byte	0x0
 911 0090 0B       		.uleb128 0xb
 912 0091 01       		.uleb128 0x1
 913 0092 01       		.byte	0x1
ARM GAS  C:\Users\karunmj\AppData\Local\Temp\ccht7lPv.s 			page 19


 914 0093 49       		.uleb128 0x49
 915 0094 13       		.uleb128 0x13
 916 0095 01       		.uleb128 0x1
 917 0096 13       		.uleb128 0x13
 918 0097 00       		.byte	0x0
 919 0098 00       		.byte	0x0
 920 0099 0C       		.uleb128 0xc
 921 009a 21       		.uleb128 0x21
 922 009b 00       		.byte	0x0
 923 009c 49       		.uleb128 0x49
 924 009d 13       		.uleb128 0x13
 925 009e 2F       		.uleb128 0x2f
 926 009f 0B       		.uleb128 0xb
 927 00a0 00       		.byte	0x0
 928 00a1 00       		.byte	0x0
 929 00a2 0D       		.uleb128 0xd
 930 00a3 34       		.uleb128 0x34
 931 00a4 00       		.byte	0x0
 932 00a5 03       		.uleb128 0x3
 933 00a6 0E       		.uleb128 0xe
 934 00a7 3A       		.uleb128 0x3a
 935 00a8 0B       		.uleb128 0xb
 936 00a9 3B       		.uleb128 0x3b
 937 00aa 05       		.uleb128 0x5
 938 00ab 49       		.uleb128 0x49
 939 00ac 13       		.uleb128 0x13
 940 00ad 3F       		.uleb128 0x3f
 941 00ae 0C       		.uleb128 0xc
 942 00af 3C       		.uleb128 0x3c
 943 00b0 0C       		.uleb128 0xc
 944 00b1 00       		.byte	0x0
 945 00b2 00       		.byte	0x0
 946 00b3 0E       		.uleb128 0xe
 947 00b4 35       		.uleb128 0x35
 948 00b5 00       		.byte	0x0
 949 00b6 49       		.uleb128 0x49
 950 00b7 13       		.uleb128 0x13
 951 00b8 00       		.byte	0x0
 952 00b9 00       		.byte	0x0
 953 00ba 0F       		.uleb128 0xf
 954 00bb 34       		.uleb128 0x34
 955 00bc 00       		.byte	0x0
 956 00bd 03       		.uleb128 0x3
 957 00be 0E       		.uleb128 0xe
 958 00bf 3A       		.uleb128 0x3a
 959 00c0 0B       		.uleb128 0xb
 960 00c1 3B       		.uleb128 0x3b
 961 00c2 0B       		.uleb128 0xb
 962 00c3 49       		.uleb128 0x49
 963 00c4 13       		.uleb128 0x13
 964 00c5 3F       		.uleb128 0x3f
 965 00c6 0C       		.uleb128 0xc
 966 00c7 02       		.uleb128 0x2
 967 00c8 0A       		.uleb128 0xa
 968 00c9 00       		.byte	0x0
 969 00ca 00       		.byte	0x0
 970 00cb 00       		.byte	0x0
ARM GAS  C:\Users\karunmj\AppData\Local\Temp\ccht7lPv.s 			page 20


 971              		.section	.debug_pubnames,"",%progbits
 972 0000 6D000000 		.4byte	0x6d
 973 0004 0200     		.2byte	0x2
 974 0006 00000000 		.4byte	.Ldebug_info0
 975 000a 1D020000 		.4byte	0x21d
 976 000e A3000000 		.4byte	0xa3
 977 0012 7061636B 		.ascii	"packet_get_value\000"
 977      65745F67 
 977      65745F76 
 977      616C7565 
 977      00
 978 0023 03010000 		.4byte	0x103
 979 0027 7061636B 		.ascii	"packet_get_uint8\000"
 979      65745F67 
 979      65745F75 
 979      696E7438 
 979      00
 980 0038 6F010000 		.4byte	0x16f
 981 003c 7061636B 		.ascii	"packet_get_uint32\000"
 981      65745F67 
 981      65745F75 
 981      696E7433 
 981      3200
 982 004e CB010000 		.4byte	0x1cb
 983 0052 636C6561 		.ascii	"clear_packet\000"
 983      725F7061 
 983      636B6574 
 983      00
 984 005f 0A020000 		.4byte	0x20a
 985 0063 6572726F 		.ascii	"error_str\000"
 985      725F7374 
 985      7200
 986 006d 00000000 		.4byte	0x0
 987              		.section	.debug_aranges,"",%progbits
 988 0000 34000000 		.4byte	0x34
 989 0004 0200     		.2byte	0x2
 990 0006 00000000 		.4byte	.Ldebug_info0
 991 000a 04       		.byte	0x4
 992 000b 00       		.byte	0x0
 993 000c 0000     		.2byte	0x0
 994 000e 0000     		.2byte	0x0
 995 0010 00000000 		.4byte	.LFB29
 996 0014 00010000 		.4byte	.LFE29-.LFB29
 997 0018 00000000 		.4byte	.LFB30
 998 001c B0000000 		.4byte	.LFE30-.LFB30
 999 0020 00000000 		.4byte	.LFB31
 1000 0024 B0000000 		.4byte	.LFE31-.LFB31
 1001 0028 00000000 		.4byte	.LFB32
 1002 002c 24000000 		.4byte	.LFE32-.LFB32
 1003 0030 00000000 		.4byte	0x0
 1004 0034 00000000 		.4byte	0x0
 1005              		.section	.debug_ranges,"",%progbits
 1006              	.Ldebug_ranges0:
 1007 0000 00000000 		.4byte	.Ltext0
 1008 0004 00000000 		.4byte	.Letext0
 1009 0008 00000000 		.4byte	.LFB29
 1010 000c 00010000 		.4byte	.LFE29
ARM GAS  C:\Users\karunmj\AppData\Local\Temp\ccht7lPv.s 			page 21


 1011 0010 00000000 		.4byte	.LFB30
 1012 0014 B0000000 		.4byte	.LFE30
 1013 0018 00000000 		.4byte	.LFB31
 1014 001c B0000000 		.4byte	.LFE31
 1015 0020 00000000 		.4byte	.LFB32
 1016 0024 24000000 		.4byte	.LFE32
 1017 0028 00000000 		.4byte	0x0
 1018 002c 00000000 		.4byte	0x0
 1019              		.section	.debug_str,"MS",%progbits,1
 1020              	.LASF19:
 1021 0000 76616C75 		.ascii	"value_str\000"
 1021      655F7374 
 1021      7200
 1022              	.LASF16:
 1023 000a 76616C75 		.ascii	"value\000"
 1023      6500
 1024              	.LASF26:
 1025 0010 433A5C55 		.ascii	"C:\\Users\\karunmj\\Documents\\GitHub\\m2m\\hardwar"
 1025      73657273 
 1025      5C6B6172 
 1025      756E6D6A 
 1025      5C446F63 
 1026 003d 655C7073 		.ascii	"e\\psoc5\\PSoC_Datalogger_SMS.cydsn\000"
 1026      6F63355C 
 1026      50536F43 
 1026      5F446174 
 1026      616C6F67 
 1027              	.LASF10:
 1028 005f 75696E74 		.ascii	"uint32\000"
 1028      333200
 1029              	.LASF1:
 1030 0066 756E7369 		.ascii	"unsigned char\000"
 1030      676E6564 
 1030      20636861 
 1030      7200
 1031              	.LASF9:
 1032 0074 75696E74 		.ascii	"uint8\000"
 1032      3800
 1033              	.LASF5:
 1034 007a 6C6F6E67 		.ascii	"long unsigned int\000"
 1034      20756E73 
 1034      69676E65 
 1034      6420696E 
 1034      7400
 1035              	.LASF15:
 1036 008c 6E616D65 		.ascii	"name\000"
 1036      00
 1037              	.LASF7:
 1038 0091 6C6F6E67 		.ascii	"long long unsigned int\000"
 1038      206C6F6E 
 1038      6720756E 
 1038      7369676E 
 1038      65642069 
 1039              	.LASF21:
 1040 00a8 636C6561 		.ascii	"clear_packet\000"
 1040      725F7061 
 1040      636B6574 
ARM GAS  C:\Users\karunmj\AppData\Local\Temp\ccht7lPv.s 			page 22


 1040      00
 1041              	.LASF3:
 1042 00b5 73686F72 		.ascii	"short unsigned int\000"
 1042      7420756E 
 1042      7369676E 
 1042      65642069 
 1042      6E7400
 1043              	.LASF14:
 1044 00c8 7061636B 		.ascii	"packet\000"
 1044      657400
 1045              	.LASF24:
 1046 00cf 474E5520 		.ascii	"GNU C 4.4.1\000"
 1046      4320342E 
 1046      342E3100 
 1047              	.LASF18:
 1048 00db 7061636B 		.ascii	"packet_get_uint8\000"
 1048      65745F67 
 1048      65745F75 
 1048      696E7438 
 1048      00
 1049              	.LASF25:
 1050 00ec 2E5C7061 		.ascii	".\\packet.c\000"
 1050      636B6574 
 1050      2E6300
 1051              	.LASF13:
 1052 00f7 63686172 		.ascii	"char\000"
 1052      00
 1053              	.LASF23:
 1054 00fc 6572726F 		.ascii	"error_str\000"
 1054      725F7374 
 1054      7200
 1055              	.LASF4:
 1056 0106 6C6F6E67 		.ascii	"long int\000"
 1056      20696E74 
 1056      00
 1057              	.LASF12:
 1058 010f 646F7562 		.ascii	"double\000"
 1058      6C6500
 1059              	.LASF6:
 1060 0116 6C6F6E67 		.ascii	"long long int\000"
 1060      206C6F6E 
 1060      6720696E 
 1060      7400
 1061              	.LASF22:
 1062 0124 49544D5F 		.ascii	"ITM_RxBuffer\000"
 1062      52784275 
 1062      66666572 
 1062      00
 1063              	.LASF0:
 1064 0131 7369676E 		.ascii	"signed char\000"
 1064      65642063 
 1064      68617200 
 1065              	.LASF17:
 1066 013d 7061636B 		.ascii	"packet_get_value\000"
 1066      65745F67 
 1066      65745F76 
 1066      616C7565 
ARM GAS  C:\Users\karunmj\AppData\Local\Temp\ccht7lPv.s 			page 23


 1066      00
 1067              	.LASF20:
 1068 014e 7061636B 		.ascii	"packet_get_uint32\000"
 1068      65745F67 
 1068      65745F75 
 1068      696E7433 
 1068      3200
 1069              	.LASF11:
 1070 0160 666C6F61 		.ascii	"float\000"
 1070      7400
 1071              	.LASF2:
 1072 0166 73686F72 		.ascii	"short int\000"
 1072      7420696E 
 1072      7400
 1073              	.LASF8:
 1074 0170 756E7369 		.ascii	"unsigned int\000"
 1074      676E6564 
 1074      20696E74 
 1074      00
 1075              		.ident	"GCC: (Sourcery G++ Lite 2010q1-188) 4.4.1"
