ARM GAS  C:\Users\karunmj\AppData\Local\Temp\ccEpx3pH.s 			page 1


   1              		.syntax unified
   2              		.cpu cortex-m3
   3              		.fpu softvfp
   4              		.eabi_attribute 20, 1
   5              		.eabi_attribute 21, 1
   6              		.eabi_attribute 23, 3
   7              		.eabi_attribute 24, 1
   8              		.eabi_attribute 25, 1
   9              		.eabi_attribute 26, 1
  10              		.eabi_attribute 30, 6
  11              		.eabi_attribute 18, 4
  12              		.thumb
  13              		.file	"packet.c"
  20 0000 C0000000 		.text
  20      02005500 
  20      00000201 
  20      FB0E0D00 
  20      01010101 
  21              	.Ltext0:
  22              		.cfi_sections	.debug_frame
  23              		.comm	error_str,4,4
  24              		.section	.rodata
  25              		.align	2
  26              	.LC0:
  27 0000 2573206E 		.ascii	"%s not found in packet: \012%s\000"
  27      6F742066 
  27      6F756E64 
  27      20696E20 
  27      7061636B 
  28              		.align	2
  29              	.LC1:
  30 001c 5A2C00   		.ascii	"Z,\000"
  31 001f 00       		.align	2
  32              	.LC2:
  33 0020 275A2C27 		.ascii	"'Z,' not found in packet: \012%s\000"
  33      206E6F74 
  33      20666F75 
  33      6E642069 
  33      6E207061 
  34 003e 0000     		.align	2
  35              	.LC3:
  36 0040 270D2720 		.ascii	"'\015' not found in packet: \012%s\000"
  36      6E6F7420 
  36      666F756E 
  36      6420696E 
  36      20706163 
  37 005d 000000   		.section	.text.packet_get_value,"ax",%progbits
  38              		.align	2
  39              		.global	packet_get_value
  40              		.thumb
  41              		.thumb_func
ARM GAS  C:\Users\karunmj\AppData\Local\Temp\ccEpx3pH.s 			page 2


  42              		.type	packet_get_value, %function
  43              	packet_get_value:
  44              	.LFB29:
  45              		.file 1 ".\\packet.c"
   1:.\packet.c    **** /* ========================================
   2:.\packet.c    ****  *
   3:.\packet.c    ****  * Copyright YOUR COMPANY, THE YEAR
   4:.\packet.c    ****  * All Rights Reserved
   5:.\packet.c    ****  * UNPUBLISHED, LICENSED SOFTWARE.
   6:.\packet.c    ****  *
   7:.\packet.c    ****  * CONFIDENTIAL AND PROPRIETARY INFORMATION
   8:.\packet.c    ****  * WHICH IS THE PROPERTY OF your company.
   9:.\packet.c    ****  *
  10:.\packet.c    ****  * ========================================
  11:.\packet.c    **** */
  12:.\packet.c    **** #include "packet.h"
  13:.\packet.c    **** #include "debug.h"
  14:.\packet.c    **** 
  15:.\packet.c    **** char* error_str;
  16:.\packet.c    **** 
  17:.\packet.c    **** /*
  18:.\packet.c    **** Searches Xively packet for name and returns the associated value
  19:.\packet.c    **** as a char array.
  20:.\packet.c    **** Returns 1 if successful, and 0 if there was an error.
  21:.\packet.c    **** */
  22:.\packet.c    **** uint8 packet_get_value(char* packet, char* name, char* value) {
  46              		.loc 1 22 0
  47              		.cfi_startproc
  48              		@ args = 0, pretend = 0, frame = 24
  49              		@ frame_needed = 1, uses_anonymous_args = 0
  50 0000 80B5     		push	{r7, lr}
  51              	.LCFI0:
  52              		.cfi_def_cfa_offset 8
  53 0002 86B0     		sub	sp, sp, #24
  54              	.LCFI1:
  55              		.cfi_def_cfa_offset 32
  56 0004 00AF     		add	r7, sp, #0
  57              		.cfi_offset 14, -4
  58              		.cfi_offset 7, -8
  59              	.LCFI2:
  60              		.cfi_def_cfa_register 7
  61 0006 F860     		str	r0, [r7, #12]
  62 0008 B960     		str	r1, [r7, #8]
  63 000a 7A60     		str	r2, [r7, #4]
  23:.\packet.c    ****     char *a, *b;
  24:.\packet.c    ****     
  25:.\packet.c    ****     // Find the first occurence of "name" in "packet"
  26:.\packet.c    ****     a = strstr(packet,name);
  64              		.loc 1 26 0
  65 000c F868     		ldr	r0, [r7, #12]
  66 000e B968     		ldr	r1, [r7, #8]
  67 0010 FFF7FEFF 		bl	strstr
  68 0014 0346     		mov	r3, r0
  69 0016 3B61     		str	r3, [r7, #16]
  27:.\packet.c    ****     if (a == NULL) {
  70              		.loc 1 27 0
  71 0018 3B69     		ldr	r3, [r7, #16]
ARM GAS  C:\Users\karunmj\AppData\Local\Temp\ccEpx3pH.s 			page 3


  72 001a 002B     		cmp	r3, #0
  73 001c 18D1     		bne	.L2
  28:.\packet.c    ****         sprintf(error_str, "%s not found in packet: \n%s", name, packet);
  74              		.loc 1 28 0
  75 001e 40F20003 		movw	r3, #:lower16:error_str
  76 0022 C0F20003 		movt	r3, #:upper16:error_str
  77 0026 1B68     		ldr	r3, [r3, #0]
  78 0028 1846     		mov	r0, r3
  79 002a 40F20001 		movw	r1, #:lower16:.LC0
  80 002e C0F20001 		movt	r1, #:upper16:.LC0
  81 0032 BA68     		ldr	r2, [r7, #8]
  82 0034 FB68     		ldr	r3, [r7, #12]
  83 0036 FFF7FEFF 		bl	sprintf
  29:.\packet.c    ****         debug_write( error_str );
  84              		.loc 1 29 0
  85 003a 40F20003 		movw	r3, #:lower16:error_str
  86 003e C0F20003 		movt	r3, #:upper16:error_str
  87 0042 1B68     		ldr	r3, [r3, #0]
  88 0044 1846     		mov	r0, r3
  89 0046 FFF7FEFF 		bl	debug_write
  30:.\packet.c    ****         return 0u;
  90              		.loc 1 30 0
  91 004a 4FF00003 		mov	r3, #0
  92 004e 52E0     		b	.L3
  93              	.L2:
  31:.\packet.c    ****     }
  32:.\packet.c    ****     
  33:.\packet.c    ****     // Move the pointer to the timestamp after the first occurence of "name"
  34:.\packet.c    ****     // This marks where the value is
  35:.\packet.c    ****     a = strstr(a,"Z,")+strlen("Z,");
  94              		.loc 1 35 0
  95 0050 3869     		ldr	r0, [r7, #16]
  96 0052 40F20001 		movw	r1, #:lower16:.LC1
  97 0056 C0F20001 		movt	r1, #:upper16:.LC1
  98 005a FFF7FEFF 		bl	strstr
  99 005e 0346     		mov	r3, r0
 100 0060 03F10203 		add	r3, r3, #2
 101 0064 3B61     		str	r3, [r7, #16]
  36:.\packet.c    ****     if (a == NULL) {
 102              		.loc 1 36 0
 103 0066 3B69     		ldr	r3, [r7, #16]
 104 0068 002B     		cmp	r3, #0
 105 006a 17D1     		bne	.L4
  37:.\packet.c    ****         sprintf(error_str, "'Z,' not found in packet: \n%s", packet);
 106              		.loc 1 37 0
 107 006c 40F20003 		movw	r3, #:lower16:error_str
 108 0070 C0F20003 		movt	r3, #:upper16:error_str
 109 0074 1B68     		ldr	r3, [r3, #0]
 110 0076 1846     		mov	r0, r3
 111 0078 40F20001 		movw	r1, #:lower16:.LC2
 112 007c C0F20001 		movt	r1, #:upper16:.LC2
 113 0080 FA68     		ldr	r2, [r7, #12]
 114 0082 FFF7FEFF 		bl	sprintf
  38:.\packet.c    ****         debug_write( error_str );
 115              		.loc 1 38 0
 116 0086 40F20003 		movw	r3, #:lower16:error_str
 117 008a C0F20003 		movt	r3, #:upper16:error_str
ARM GAS  C:\Users\karunmj\AppData\Local\Temp\ccEpx3pH.s 			page 4


 118 008e 1B68     		ldr	r3, [r3, #0]
 119 0090 1846     		mov	r0, r3
 120 0092 FFF7FEFF 		bl	debug_write
  39:.\packet.c    ****         return 0u;
 121              		.loc 1 39 0
 122 0096 4FF00003 		mov	r3, #0
 123 009a 2CE0     		b	.L3
 124              	.L4:
  40:.\packet.c    ****     }
  41:.\packet.c    ****     
  42:.\packet.c    ****     // Find the carriage return, marking the end of the value
  43:.\packet.c    ****     b = strstr(a,"\n");
 125              		.loc 1 43 0
 126 009c 3869     		ldr	r0, [r7, #16]
 127 009e 4FF00A01 		mov	r1, #10
 128 00a2 FFF7FEFF 		bl	strchr
 129 00a6 0346     		mov	r3, r0
 130 00a8 7B61     		str	r3, [r7, #20]
  44:.\packet.c    ****     if (b == NULL) {
 131              		.loc 1 44 0
 132 00aa 7B69     		ldr	r3, [r7, #20]
 133 00ac 002B     		cmp	r3, #0
 134 00ae 17D1     		bne	.L5
  45:.\packet.c    ****         sprintf(error_str, "'\r' not found in packet: \n%s", packet);
 135              		.loc 1 45 0
 136 00b0 40F20003 		movw	r3, #:lower16:error_str
 137 00b4 C0F20003 		movt	r3, #:upper16:error_str
 138 00b8 1B68     		ldr	r3, [r3, #0]
 139 00ba 1846     		mov	r0, r3
 140 00bc 40F20001 		movw	r1, #:lower16:.LC3
 141 00c0 C0F20001 		movt	r1, #:upper16:.LC3
 142 00c4 FA68     		ldr	r2, [r7, #12]
 143 00c6 FFF7FEFF 		bl	sprintf
  46:.\packet.c    ****         debug_write( error_str );
 144              		.loc 1 46 0
 145 00ca 40F20003 		movw	r3, #:lower16:error_str
 146 00ce C0F20003 		movt	r3, #:upper16:error_str
 147 00d2 1B68     		ldr	r3, [r3, #0]
 148 00d4 1846     		mov	r0, r3
 149 00d6 FFF7FEFF 		bl	debug_write
  47:.\packet.c    ****         return 0u;
 150              		.loc 1 47 0
 151 00da 4FF00003 		mov	r3, #0
 152 00de 0AE0     		b	.L3
 153              	.L5:
  48:.\packet.c    ****     }
  49:.\packet.c    ****     
  50:.\packet.c    ****     strncpy(value,a,b-a);   
 154              		.loc 1 50 0
 155 00e0 7A69     		ldr	r2, [r7, #20]
 156 00e2 3B69     		ldr	r3, [r7, #16]
 157 00e4 C3EB0203 		rsb	r3, r3, r2
 158 00e8 7868     		ldr	r0, [r7, #4]
 159 00ea 3969     		ldr	r1, [r7, #16]
 160 00ec 1A46     		mov	r2, r3
 161 00ee FFF7FEFF 		bl	strncpy
  51:.\packet.c    ****     return 1u;
ARM GAS  C:\Users\karunmj\AppData\Local\Temp\ccEpx3pH.s 			page 5


 162              		.loc 1 51 0
 163 00f2 4FF00103 		mov	r3, #1
 164              	.L3:
  52:.\packet.c    **** }
 165              		.loc 1 52 0
 166 00f6 1846     		mov	r0, r3
 167 00f8 07F11807 		add	r7, r7, #24
 168 00fc BD46     		mov	sp, r7
 169 00fe 80BD     		pop	{r7, pc}
 170              		.cfi_endproc
 171              	.LFE29:
 172              		.size	packet_get_value, .-packet_get_value
 173              		.section	.text.packet_get_uint8,"ax",%progbits
 174              		.align	2
 175              		.global	packet_get_uint8
 176              		.thumb
 177              		.thumb_func
 178              		.type	packet_get_uint8, %function
 179              	packet_get_uint8:
 180              	.LFB30:
  53:.\packet.c    **** 
  54:.\packet.c    **** /*
  55:.\packet.c    **** Searches Xively packet for name and returns the associated value
  56:.\packet.c    **** as uint32.
  57:.\packet.c    **** Returns 1 if successful, and 0 if there was an error.
  58:.\packet.c    **** */
  59:.\packet.c    **** uint8 packet_get_uint8(char* packet, char* name, uint8* value) {
 181              		.loc 1 59 0
 182              		.cfi_startproc
 183              		@ args = 0, pretend = 0, frame = 40
 184              		@ frame_needed = 1, uses_anonymous_args = 0
 185 0000 80B5     		push	{r7, lr}
 186              	.LCFI3:
 187              		.cfi_def_cfa_offset 8
 188 0002 8AB0     		sub	sp, sp, #40
 189              	.LCFI4:
 190              		.cfi_def_cfa_offset 48
 191 0004 00AF     		add	r7, sp, #0
 192              		.cfi_offset 14, -4
 193              		.cfi_offset 7, -8
 194              	.LCFI5:
 195              		.cfi_def_cfa_register 7
 196 0006 F860     		str	r0, [r7, #12]
 197 0008 B960     		str	r1, [r7, #8]
 198 000a 7A60     		str	r2, [r7, #4]
  60:.\packet.c    ****     char value_str[20] = {0}; // uint8 is at most 3 digits long
 199              		.loc 1 60 0
 200 000c 07F11403 		add	r3, r7, #20
 201 0010 4FF00002 		mov	r2, #0
 202 0014 1A60     		str	r2, [r3, #0]
 203 0016 03F10403 		add	r3, r3, #4
 204 001a 4FF00002 		mov	r2, #0
 205 001e 1A60     		str	r2, [r3, #0]
 206 0020 03F10403 		add	r3, r3, #4
 207 0024 4FF00002 		mov	r2, #0
 208 0028 1A60     		str	r2, [r3, #0]
 209 002a 03F10403 		add	r3, r3, #4
ARM GAS  C:\Users\karunmj\AppData\Local\Temp\ccEpx3pH.s 			page 6


 210 002e 4FF00002 		mov	r2, #0
 211 0032 1A60     		str	r2, [r3, #0]
 212 0034 03F10403 		add	r3, r3, #4
 213 0038 4FF00002 		mov	r2, #0
 214 003c 1A60     		str	r2, [r3, #0]
 215 003e 03F10403 		add	r3, r3, #4
  61:.\packet.c    ****     
  62:.\packet.c    ****     if( packet_get_value(packet, name, value_str) ){
 216              		.loc 1 62 0
 217 0042 07F11403 		add	r3, r7, #20
 218 0046 F868     		ldr	r0, [r7, #12]
 219 0048 B968     		ldr	r1, [r7, #8]
 220 004a 1A46     		mov	r2, r3
 221 004c FFF7FEFF 		bl	packet_get_value
 222 0050 0346     		mov	r3, r0
 223 0052 002B     		cmp	r3, #0
 224 0054 0FD0     		beq	.L8
  63:.\packet.c    ****         *value = (uint8) strtol(value_str,(char **) NULL, 10); // Base 10
 225              		.loc 1 63 0
 226 0056 07F11403 		add	r3, r7, #20
 227 005a 1846     		mov	r0, r3
 228 005c 4FF00001 		mov	r1, #0
 229 0060 4FF00A02 		mov	r2, #10
 230 0064 FFF7FEFF 		bl	strtol
 231 0068 0346     		mov	r3, r0
 232 006a DAB2     		uxtb	r2, r3
 233 006c 7B68     		ldr	r3, [r7, #4]
 234 006e 1A70     		strb	r2, [r3, #0]
  64:.\packet.c    ****         // http://www.cplusplus.com/reference/cstdlib/strtol/
  65:.\packet.c    ****         return 1u;
 235              		.loc 1 65 0
 236 0070 4FF00103 		mov	r3, #1
 237 0074 17E0     		b	.L9
 238              	.L8:
  66:.\packet.c    ****     }
  67:.\packet.c    ****         
  68:.\packet.c    ****     sprintf(error_str, "%s not found in packet: \n%s", name, packet);
 239              		.loc 1 68 0
 240 0076 40F20003 		movw	r3, #:lower16:error_str
 241 007a C0F20003 		movt	r3, #:upper16:error_str
 242 007e 1B68     		ldr	r3, [r3, #0]
 243 0080 1846     		mov	r0, r3
 244 0082 40F20001 		movw	r1, #:lower16:.LC0
 245 0086 C0F20001 		movt	r1, #:upper16:.LC0
 246 008a BA68     		ldr	r2, [r7, #8]
 247 008c FB68     		ldr	r3, [r7, #12]
 248 008e FFF7FEFF 		bl	sprintf
  69:.\packet.c    ****     debug_write( error_str );
 249              		.loc 1 69 0
 250 0092 40F20003 		movw	r3, #:lower16:error_str
 251 0096 C0F20003 		movt	r3, #:upper16:error_str
 252 009a 1B68     		ldr	r3, [r3, #0]
 253 009c 1846     		mov	r0, r3
 254 009e FFF7FEFF 		bl	debug_write
  70:.\packet.c    ****     return 0u;
 255              		.loc 1 70 0
 256 00a2 4FF00003 		mov	r3, #0
ARM GAS  C:\Users\karunmj\AppData\Local\Temp\ccEpx3pH.s 			page 7


 257              	.L9:
  71:.\packet.c    **** }
 258              		.loc 1 71 0
 259 00a6 1846     		mov	r0, r3
 260 00a8 07F12807 		add	r7, r7, #40
 261 00ac BD46     		mov	sp, r7
 262 00ae 80BD     		pop	{r7, pc}
 263              		.cfi_endproc
 264              	.LFE30:
 265              		.size	packet_get_uint8, .-packet_get_uint8
 266              		.section	.text.packet_get_uint32,"ax",%progbits
 267              		.align	2
 268              		.global	packet_get_uint32
 269              		.thumb
 270              		.thumb_func
 271              		.type	packet_get_uint32, %function
 272              	packet_get_uint32:
 273              	.LFB31:
  72:.\packet.c    **** 
  73:.\packet.c    **** /*
  74:.\packet.c    **** Searches Xively packet for name and returns the associated value
  75:.\packet.c    **** as uint32.
  76:.\packet.c    **** Returns 1 if successful, and 0 if there was an error.
  77:.\packet.c    **** */
  78:.\packet.c    **** uint8 packet_get_uint32(char* packet, char* name, uint32* value) {
 274              		.loc 1 78 0
 275              		.cfi_startproc
 276              		@ args = 0, pretend = 0, frame = 40
 277              		@ frame_needed = 1, uses_anonymous_args = 0
 278 0000 80B5     		push	{r7, lr}
 279              	.LCFI6:
 280              		.cfi_def_cfa_offset 8
 281 0002 8AB0     		sub	sp, sp, #40
 282              	.LCFI7:
 283              		.cfi_def_cfa_offset 48
 284 0004 00AF     		add	r7, sp, #0
 285              		.cfi_offset 14, -4
 286              		.cfi_offset 7, -8
 287              	.LCFI8:
 288              		.cfi_def_cfa_register 7
 289 0006 F860     		str	r0, [r7, #12]
 290 0008 B960     		str	r1, [r7, #8]
 291 000a 7A60     		str	r2, [r7, #4]
  79:.\packet.c    ****     char value_str[20] = {0}; // uint32 is at most 10 digits long
 292              		.loc 1 79 0
 293 000c 07F11403 		add	r3, r7, #20
 294 0010 4FF00002 		mov	r2, #0
 295 0014 1A60     		str	r2, [r3, #0]
 296 0016 03F10403 		add	r3, r3, #4
 297 001a 4FF00002 		mov	r2, #0
 298 001e 1A60     		str	r2, [r3, #0]
 299 0020 03F10403 		add	r3, r3, #4
 300 0024 4FF00002 		mov	r2, #0
 301 0028 1A60     		str	r2, [r3, #0]
 302 002a 03F10403 		add	r3, r3, #4
 303 002e 4FF00002 		mov	r2, #0
 304 0032 1A60     		str	r2, [r3, #0]
ARM GAS  C:\Users\karunmj\AppData\Local\Temp\ccEpx3pH.s 			page 8


 305 0034 03F10403 		add	r3, r3, #4
 306 0038 4FF00002 		mov	r2, #0
 307 003c 1A60     		str	r2, [r3, #0]
 308 003e 03F10403 		add	r3, r3, #4
  80:.\packet.c    ****     
  81:.\packet.c    ****     if( packet_get_value(packet, name, value_str) ){
 309              		.loc 1 81 0
 310 0042 07F11403 		add	r3, r7, #20
 311 0046 F868     		ldr	r0, [r7, #12]
 312 0048 B968     		ldr	r1, [r7, #8]
 313 004a 1A46     		mov	r2, r3
 314 004c FFF7FEFF 		bl	packet_get_value
 315 0050 0346     		mov	r3, r0
 316 0052 002B     		cmp	r3, #0
 317 0054 10D0     		beq	.L12
  82:.\packet.c    ****         *value = (uint32) strtol(value_str,(char **) NULL, 10); // Base 10
 318              		.loc 1 82 0
 319 0056 07F11403 		add	r3, r7, #20
 320 005a 1846     		mov	r0, r3
 321 005c 4FF00001 		mov	r1, #0
 322 0060 4FF00A02 		mov	r2, #10
 323 0064 FFF7FEFF 		bl	strtol
 324 0068 0346     		mov	r3, r0
 325 006a 1A46     		mov	r2, r3
 326 006c 7B68     		ldr	r3, [r7, #4]
 327 006e 1A60     		str	r2, [r3, #0]
  83:.\packet.c    ****         // http://www.cplusplus.com/reference/cstdlib/strtol/
  84:.\packet.c    ****         return 1u;
 328              		.loc 1 84 0
 329 0070 4FF00103 		mov	r3, #1
  85:.\packet.c    ****     }
  86:.\packet.c    ****         
  87:.\packet.c    ****     sprintf(error_str, "%s not found in packet: \n%s", name, packet);
  88:.\packet.c    ****     debug_write( error_str );
  89:.\packet.c    **** }
 330              		.loc 1 89 0
 331 0074 1846     		mov	r0, r3
 332 0076 15E0     		b	.L13
 333              	.L12:
 334              		.loc 1 87 0
 335 0078 40F20003 		movw	r3, #:lower16:error_str
 336 007c C0F20003 		movt	r3, #:upper16:error_str
 337 0080 1B68     		ldr	r3, [r3, #0]
 338 0082 1846     		mov	r0, r3
 339 0084 40F20001 		movw	r1, #:lower16:.LC0
 340 0088 C0F20001 		movt	r1, #:upper16:.LC0
 341 008c BA68     		ldr	r2, [r7, #8]
 342 008e FB68     		ldr	r3, [r7, #12]
 343 0090 FFF7FEFF 		bl	sprintf
 344              		.loc 1 88 0
 345 0094 40F20003 		movw	r3, #:lower16:error_str
 346 0098 C0F20003 		movt	r3, #:upper16:error_str
 347 009c 1B68     		ldr	r3, [r3, #0]
 348 009e 1846     		mov	r0, r3
 349 00a0 FFF7FEFF 		bl	debug_write
 350              	.L13:
 351              		.loc 1 89 0
ARM GAS  C:\Users\karunmj\AppData\Local\Temp\ccEpx3pH.s 			page 9


 352 00a4 07F12807 		add	r7, r7, #40
 353 00a8 BD46     		mov	sp, r7
 354 00aa 80BD     		pop	{r7, pc}
 355              		.cfi_endproc
 356              	.LFE31:
 357              		.size	packet_get_uint32, .-packet_get_uint32
 358              		.section	.text.clear_packet,"ax",%progbits
 359              		.align	2
 360              		.global	clear_packet
 361              		.thumb
 362              		.thumb_func
 363              		.type	clear_packet, %function
 364              	clear_packet:
 365              	.LFB32:
  90:.\packet.c    **** 
  91:.\packet.c    **** 
  92:.\packet.c    **** uint8 clear_packet(char* packet){
 366              		.loc 1 92 0
 367              		.cfi_startproc
 368              		@ args = 0, pretend = 0, frame = 8
 369              		@ frame_needed = 1, uses_anonymous_args = 0
 370 0000 80B5     		push	{r7, lr}
 371              	.LCFI9:
 372              		.cfi_def_cfa_offset 8
 373 0002 82B0     		sub	sp, sp, #8
 374              	.LCFI10:
 375              		.cfi_def_cfa_offset 16
 376 0004 00AF     		add	r7, sp, #0
 377              		.cfi_offset 14, -4
 378              		.cfi_offset 7, -8
 379              	.LCFI11:
 380              		.cfi_def_cfa_register 7
 381 0006 7860     		str	r0, [r7, #4]
  93:.\packet.c    **** 
  94:.\packet.c    ****     memset(packet,0,sizeof(packet));
 382              		.loc 1 94 0
 383 0008 7868     		ldr	r0, [r7, #4]
 384 000a 4FF00001 		mov	r1, #0
 385 000e 4FF00402 		mov	r2, #4
 386 0012 FFF7FEFF 		bl	memset
  95:.\packet.c    ****     return 1u;
 387              		.loc 1 95 0
 388 0016 4FF00103 		mov	r3, #1
  96:.\packet.c    **** }
 389              		.loc 1 96 0
 390 001a 1846     		mov	r0, r3
 391 001c 07F10807 		add	r7, r7, #8
 392 0020 BD46     		mov	sp, r7
 393 0022 80BD     		pop	{r7, pc}
 394              		.cfi_endproc
 395              	.LFE32:
 396              		.size	clear_packet, .-clear_packet
 397              		.text
 398              	.Letext0: