ARM GAS  C:\Users\karunmj\AppData\Local\Temp\ccVXJ4li.s 			page 1


   1              		.syntax unified
   2              		.cpu cortex-m3
   3              		.fpu softvfp
   4              		.eabi_attribute 20, 1
   5              		.eabi_attribute 21, 1
   6              		.eabi_attribute 23, 3
   7              		.eabi_attribute 24, 1
   8              		.eabi_attribute 25, 1
   9              		.eabi_attribute 26, 1
  10              		.eabi_attribute 30, 6
  11              		.eabi_attribute 18, 4
  12              		.thumb
  13              		.file	"sleep.c"
  20 0000 9D000000 		.text
  20      02004700 
  20      00000201 
  20      FB0E0D00 
  20      01010101 
  21              	.Ltext0:
  22              		.cfi_sections	.debug_frame
  23              		.section	.text.Components_Sleep,"ax",%progbits
  24              		.align	2
  25              		.global	Components_Sleep
  26              		.thumb
  27              		.thumb_func
  28              		.type	Components_Sleep, %function
  29              	Components_Sleep:
  30              	.LFB29:
  31              		.file 1 ".\\sleep.c"
   1:.\sleep.c     **** /* ========================================
   2:.\sleep.c     ****  *
   3:.\sleep.c     ****  * Copyright YOUR COMPANY, THE YEAR
   4:.\sleep.c     ****  * All Rights Reserved
   5:.\sleep.c     ****  * UNPUBLISHED, LICENSED SOFTWARE.
   6:.\sleep.c     ****  *
   7:.\sleep.c     ****  * CONFIDENTIAL AND PROPRIETARY INFORMATION
   8:.\sleep.c     ****  * WHICH IS THE PROPERTY OF your company.
   9:.\sleep.c     ****  *
  10:.\sleep.c     ****  * ========================================
  11:.\sleep.c     **** */
  12:.\sleep.c     **** 
  13:.\sleep.c     **** /* [] END OF FILE */
  14:.\sleep.c     **** 
  15:.\sleep.c     **** #include <device.h>
  16:.\sleep.c     **** #include "sleep.h"
  17:.\sleep.c     **** 
  18:.\sleep.c     **** 
  19:.\sleep.c     **** void Components_Sleep(){
  32              		.loc 1 19 0
  33              		.cfi_startproc
  34              		@ args = 0, pretend = 0, frame = 0
ARM GAS  C:\Users\karunmj\AppData\Local\Temp\ccVXJ4li.s 			page 2


  35              		@ frame_needed = 1, uses_anonymous_args = 0
  36 0000 80B5     		push	{r7, lr}
  37              	.LCFI0:
  38              		.cfi_def_cfa_offset 8
  39 0002 00AF     		add	r7, sp, #0
  40              		.cfi_offset 14, -4
  41              		.cfi_offset 7, -8
  42              	.LCFI1:
  43              		.cfi_def_cfa_register 7
  20:.\sleep.c     ****     uart_Sleep();
  44              		.loc 1 20 0
  45 0004 FFF7FEFF 		bl	uart_Sleep
  21:.\sleep.c     ****     uart_ultrasonic_Sleep();
  46              		.loc 1 21 0
  47 0008 FFF7FEFF 		bl	uart_ultrasonic_Sleep
  22:.\sleep.c     ****     uart_solinst_Sleep();
  48              		.loc 1 22 0
  49 000c FFF7FEFF 		bl	uart_solinst_Sleep
  23:.\sleep.c     ****     emFile_1_Sleep();
  50              		.loc 1 23 0
  51 0010 FFF7FEFF 		bl	emFile_1_Sleep
  24:.\sleep.c     ****      NeoRTC_Sleep();
  52              		.loc 1 24 0
  53 0014 FFF7FEFF 		bl	NeoRTC_Sleep
  25:.\sleep.c     **** }
  54              		.loc 1 25 0
  55 0018 80BD     		pop	{r7, pc}
  56              		.cfi_endproc
  57              	.LFE29:
  58              		.size	Components_Sleep, .-Components_Sleep
  59 001a 00BF     		.section	.text.Components_Wakeup,"ax",%progbits
  60              		.align	2
  61              		.global	Components_Wakeup
  62              		.thumb
  63              		.thumb_func
  64              		.type	Components_Wakeup, %function
  65              	Components_Wakeup:
  66              	.LFB30:
  26:.\sleep.c     **** 
  27:.\sleep.c     **** void Components_Wakeup(){
  67              		.loc 1 27 0
  68              		.cfi_startproc
  69              		@ args = 0, pretend = 0, frame = 0
  70              		@ frame_needed = 1, uses_anonymous_args = 0
  71 0000 80B5     		push	{r7, lr}
  72              	.LCFI2:
  73              		.cfi_def_cfa_offset 8
  74 0002 00AF     		add	r7, sp, #0
  75              		.cfi_offset 14, -4
  76              		.cfi_offset 7, -8
  77              	.LCFI3:
  78              		.cfi_def_cfa_register 7
  28:.\sleep.c     ****     uart_Wakeup();
  79              		.loc 1 28 0
  80 0004 FFF7FEFF 		bl	uart_Wakeup
  29:.\sleep.c     ****     uart_ultrasonic_Wakeup();
  81              		.loc 1 29 0
ARM GAS  C:\Users\karunmj\AppData\Local\Temp\ccVXJ4li.s 			page 3


  82 0008 FFF7FEFF 		bl	uart_ultrasonic_Wakeup
  30:.\sleep.c     ****     uart_solinst_Wakeup();
  83              		.loc 1 30 0
  84 000c FFF7FEFF 		bl	uart_solinst_Wakeup
  31:.\sleep.c     ****     emFile_1_Wakeup();
  85              		.loc 1 31 0
  86 0010 FFF7FEFF 		bl	emFile_1_Wakeup
  32:.\sleep.c     ****     NeoRTC_Wakeup();
  87              		.loc 1 32 0
  88 0014 FFF7FEFF 		bl	NeoRTC_Wakeup
  33:.\sleep.c     **** }
  89              		.loc 1 33 0
  90 0018 80BD     		pop	{r7, pc}
  91              		.cfi_endproc
  92              	.LFE30:
  93              		.size	Components_Wakeup, .-Components_Wakeup
  94 001a 00BF     		.section	.text.Goto_Low_Power_Mode,"ax",%progbits
  95              		.align	2
  96              		.global	Goto_Low_Power_Mode
  97              		.thumb
  98              		.thumb_func
  99              		.type	Goto_Low_Power_Mode, %function
 100              	Goto_Low_Power_Mode:
 101              	.LFB31:
  34:.\sleep.c     **** 
  35:.\sleep.c     **** void Goto_Low_Power_Mode(){
 102              		.loc 1 35 0
 103              		.cfi_startproc
 104              		@ args = 0, pretend = 0, frame = 0
 105              		@ frame_needed = 1, uses_anonymous_args = 0
 106 0000 80B5     		push	{r7, lr}
 107              	.LCFI4:
 108              		.cfi_def_cfa_offset 8
 109 0002 00AF     		add	r7, sp, #0
 110              		.cfi_offset 14, -4
 111              		.cfi_offset 7, -8
 112              	.LCFI5:
 113              		.cfi_def_cfa_register 7
  36:.\sleep.c     ****     Components_Sleep(); //define this function somewhere and put all of your hardware components in
 114              		.loc 1 36 0
 115 0004 FFF7FEFF 		bl	Components_Sleep
  37:.\sleep.c     **** 	CyPmSaveClocks();
 116              		.loc 1 37 0
 117 0008 FFF7FEFF 		bl	CyPmSaveClocks
  38:.\sleep.c     ****     #if(CY_PSOC5LP)
  39:.\sleep.c     **** 	    CyPmSleep(PM_SLEEP_TIME_NONE, PM_SLEEP_SRC_CTW);
  40:.\sleep.c     ****     #else
  41:.\sleep.c     ****         CyPmSleep(PM_SLEEP_TIME_NONE, PM_SLEEP_SRC_NONE);
 118              		.loc 1 41 0
 119 000c 4FF00000 		mov	r0, #0
 120 0010 4FF00001 		mov	r1, #0
 121 0014 FFF7FEFF 		bl	CyPmSleep
  42:.\sleep.c     ****     #endif
  43:.\sleep.c     **** 
  44:.\sleep.c     **** 	CyPmRestoreClocks();
 122              		.loc 1 44 0
 123 0018 FFF7FEFF 		bl	CyPmRestoreClocks
ARM GAS  C:\Users\karunmj\AppData\Local\Temp\ccVXJ4li.s 			page 4


  45:.\sleep.c     **** 	Components_Wakeup(); //wakeup each component -- once again, define yourself
 124              		.loc 1 45 0
 125 001c FFF7FEFF 		bl	Components_Wakeup
  46:.\sleep.c     **** }
 126              		.loc 1 46 0
 127 0020 80BD     		pop	{r7, pc}
 128              		.cfi_endproc
 129              	.LFE31:
 130              		.size	Goto_Low_Power_Mode, .-Goto_Low_Power_Mode
 131 0022 00BF     		.section	.text.sleepTimerWake_INT,"ax",%progbits
 132              		.align	2
 133              		.global	sleepTimerWake_INT
 134              		.thumb
 135              		.thumb_func
 136              		.type	sleepTimerWake_INT, %function
 137              	sleepTimerWake_INT:
 138              	.LFB32:
  47:.\sleep.c     **** 
  48:.\sleep.c     **** CY_ISR(sleepTimerWake_INT){
 139              		.loc 1 48 0
 140              		.cfi_startproc
 141              		@ args = 0, pretend = 0, frame = 0
 142              		@ frame_needed = 1, uses_anonymous_args = 0
 143 0000 80B5     		push	{r7, lr}
 144              	.LCFI6:
 145              		.cfi_def_cfa_offset 8
 146 0002 00AF     		add	r7, sp, #0
 147              		.cfi_offset 14, -4
 148              		.cfi_offset 7, -8
 149              	.LCFI7:
 150              		.cfi_def_cfa_register 7
  49:.\sleep.c     ****         SleepTimer_GetStatus();
 151              		.loc 1 49 0
 152 0004 FFF7FEFF 		bl	SleepTimer_GetStatus
  50:.\sleep.c     **** }
 153              		.loc 1 50 0
 154 0008 80BD     		pop	{r7, pc}
 155              		.cfi_endproc
 156              	.LFE32:
 157              		.size	sleepTimerWake_INT, .-sleepTimerWake_INT
 158 000a 00BF     		.text
 159              	.Letext0: