ARM GAS  C:\Users\karunmj\AppData\Local\Temp\ccfJuUhb.s 			page 1


   1              		.syntax unified
   2              		.cpu cortex-m3
   3              		.fpu softvfp
   4              		.eabi_attribute 20, 1
   5              		.eabi_attribute 21, 1
   6              		.eabi_attribute 23, 3
   7              		.eabi_attribute 24, 1
   8              		.eabi_attribute 25, 1
   9              		.eabi_attribute 26, 1
  10              		.eabi_attribute 30, 6
  11              		.eabi_attribute 18, 4
  12              		.thumb
  13              		.file	"slre.c"
  14              		.section	.debug_abbrev,"",%progbits
  15              	.Ldebug_abbrev0:
  16              		.section	.debug_info,"",%progbits
  17              	.Ldebug_info0:
  18              		.section	.debug_line,"",%progbits
  19              	.Ldebug_line0:
  20 0000 FE040000 		.text
  20      02002702 
  20      00000201 
  20      FB0E0D00 
  20      01010101 
  21              	.Ltext0:
  22              		.cfi_sections	.debug_frame
  23              		.section	.rodata
  24              		.align	2
  25              	.LC0:
  26 0000 454E4400 		.ascii	"END\000"
  27              		.align	2
  28              	.LC1:
  29 0004 00       		.ascii	"\000"
  30 0005 000000   		.align	2
  31              	.LC2:
  32 0008 4252414E 		.ascii	"BRANCH\000"
  32      434800
  33 000f 00       		.align	2
  34              	.LC3:
  35 0010 6F6F00   		.ascii	"oo\000"
  36 0013 00       		.align	2
  37              	.LC4:
  38 0014 414E5900 		.ascii	"ANY\000"
  39              		.align	2
  40              	.LC5:
  41 0018 45584143 		.ascii	"EXACT\000"
  41      5400
  42 001e 0000     		.align	2
  43              	.LC6:
  44 0020 6400     		.ascii	"d\000"
  45 0022 0000     		.align	2
  46              	.LC7:
  47 0024 414E594F 		.ascii	"ANYOF\000"
  47      4600
  48 002a 0000     		.align	2
  49              	.LC8:
  50 002c 4400     		.ascii	"D\000"
ARM GAS  C:\Users\karunmj\AppData\Local\Temp\ccfJuUhb.s 			page 2


  51 002e 0000     		.align	2
  52              	.LC9:
  53 0030 414E5942 		.ascii	"ANYBUT\000"
  53      555400
  54 0037 00       		.align	2
  55              	.LC10:
  56 0038 4F50454E 		.ascii	"OPEN \000"
  56      2000
  57 003e 0000     		.align	2
  58              	.LC11:
  59 0040 6900     		.ascii	"i\000"
  60 0042 0000     		.align	2
  61              	.LC12:
  62 0044 434C4F53 		.ascii	"CLOSE\000"
  62      4500
  63 004a 0000     		.align	2
  64              	.LC13:
  65 004c 424F4C00 		.ascii	"BOL\000"
  66              		.align	2
  67              	.LC14:
  68 0050 454F4C00 		.ascii	"EOL\000"
  69              		.align	2
  70              	.LC15:
  71 0054 53544152 		.ascii	"STAR\000"
  71      00
  72 0059 000000   		.align	2
  73              	.LC16:
  74 005c 6F00     		.ascii	"o\000"
  75 005e 0000     		.align	2
  76              	.LC17:
  77 0060 504C5553 		.ascii	"PLUS\000"
  77      00
  78 0065 000000   		.align	2
  79              	.LC18:
  80 0068 53544152 		.ascii	"STARQ\000"
  80      5100
  81 006e 0000     		.align	2
  82              	.LC19:
  83 0070 504C5553 		.ascii	"PLUSQ\000"
  83      5100
  84 0076 0000     		.align	2
  85              	.LC20:
  86 0078 51554553 		.ascii	"QUEST\000"
  86      5400
  87 007e 0000     		.align	2
  88              	.LC21:
  89 0080 53504143 		.ascii	"SPACE\000"
  89      4500
  90 0086 0000     		.align	2
  91              	.LC22:
  92 0088 4E4F4E53 		.ascii	"NONSPACE\000"
  92      50414345 
  92      00
  93 0091 000000   		.align	2
  94              	.LC23:
  95 0094 44494749 		.ascii	"DIGIT\000"
  95      5400
ARM GAS  C:\Users\karunmj\AppData\Local\Temp\ccfJuUhb.s 			page 3


  96              		.data
  97              		.align	2
  98              		.type	opcodes, %object
  99              		.size	opcodes, 216
 100              	opcodes:
 101 0000 00000000 		.word	.LC0
 102 0004 00000000 		.word	0
 103 0008 04000000 		.word	.LC1
 104 000c 08000000 		.word	.LC2
 105 0010 02000000 		.word	2
 106 0014 10000000 		.word	.LC3
 107 0018 14000000 		.word	.LC4
 108 001c 00000000 		.word	0
 109 0020 04000000 		.word	.LC1
 110 0024 18000000 		.word	.LC5
 111 0028 02000000 		.word	2
 112 002c 20000000 		.word	.LC6
 113 0030 24000000 		.word	.LC7
 114 0034 02000000 		.word	2
 115 0038 2C000000 		.word	.LC8
 116 003c 30000000 		.word	.LC9
 117 0040 02000000 		.word	2
 118 0044 2C000000 		.word	.LC8
 119 0048 38000000 		.word	.LC10
 120 004c 01000000 		.word	1
 121 0050 40000000 		.word	.LC11
 122 0054 44000000 		.word	.LC12
 123 0058 01000000 		.word	1
 124 005c 40000000 		.word	.LC11
 125 0060 4C000000 		.word	.LC13
 126 0064 00000000 		.word	0
 127 0068 04000000 		.word	.LC1
 128 006c 50000000 		.word	.LC14
 129 0070 00000000 		.word	0
 130 0074 04000000 		.word	.LC1
 131 0078 54000000 		.word	.LC15
 132 007c 01000000 		.word	1
 133 0080 5C000000 		.word	.LC16
 134 0084 60000000 		.word	.LC17
 135 0088 01000000 		.word	1
 136 008c 5C000000 		.word	.LC16
 137 0090 68000000 		.word	.LC18
 138 0094 01000000 		.word	1
 139 0098 5C000000 		.word	.LC16
 140 009c 70000000 		.word	.LC19
 141 00a0 01000000 		.word	1
 142 00a4 5C000000 		.word	.LC16
 143 00a8 78000000 		.word	.LC20
 144 00ac 01000000 		.word	1
 145 00b0 5C000000 		.word	.LC16
 146 00b4 80000000 		.word	.LC21
 147 00b8 00000000 		.word	0
 148 00bc 04000000 		.word	.LC1
 149 00c0 88000000 		.word	.LC22
 150 00c4 00000000 		.word	0
 151 00c8 04000000 		.word	.LC1
 152 00cc 94000000 		.word	.LC23
ARM GAS  C:\Users\karunmj\AppData\Local\Temp\ccfJuUhb.s 			page 4


 153 00d0 00000000 		.word	0
 154 00d4 04000000 		.word	.LC1
 155              		.section	.rodata
 156 009a 0000     		.align	2
 157              	.LC24:
 158 009c 7C2E5E24 		.ascii	"|.^$*+?()[\\\000"
 158      2A2B3F28 
 158      295B5C00 
 159              		.data
 160              		.align	2
 161              		.type	meta_chars, %object
 162              		.size	meta_chars, 4
 163              	meta_chars:
 164 00d8 9C000000 		.word	.LC24
 165              		.section	.rodata
 166              		.align	2
 167              	.LC25:
 168 00a8 5C782530 		.ascii	"\\x%02x\000"
 168      327800
 169              		.section	.text.print_character_set,"ax",%progbits
 170              		.align	2
 171              		.thumb
 172              		.thumb_func
 173              		.type	print_character_set, %function
 174              	print_character_set:
 175              	.LFB0:
 176              		.file 1 ".\\slre.c"
   1:.\slre.c      **** /* ========================================
   2:.\slre.c      ****  *
   3:.\slre.c      ****  * Copyright YOUR COMPANY, THE YEAR
   4:.\slre.c      ****  * All Rights Reserved
   5:.\slre.c      ****  * UNPUBLISHED, LICENSED SOFTWARE.
   6:.\slre.c      ****  *
   7:.\slre.c      ****  * CONFIDENTIAL AND PROPRIETARY INFORMATION
   8:.\slre.c      ****  * WHICH IS THE PROPERTY OF your company.
   9:.\slre.c      ****  *
  10:.\slre.c      ****  * ========================================
  11:.\slre.c      **** */
  12:.\slre.c      **** 
  13:.\slre.c      **** /* [] END OF FILE */
  14:.\slre.c      **** 
  15:.\slre.c      **** /*
  16:.\slre.c      ****  * Copyright (c) 2004-2005 Sergey Lyubka <valenok@gmail.com>
  17:.\slre.c      ****  * All rights reserved
  18:.\slre.c      ****  *
  19:.\slre.c      ****  * "THE BEER-WARE LICENSE" (Revision 42):
  20:.\slre.c      ****  * Sergey Lyubka wrote this file.  As long as you retain this notice you
  21:.\slre.c      ****  * can do whatever you want with this stuff. If we meet some day, and you think
  22:.\slre.c      ****  * this stuff is worth it, you can buy me a beer in return.
  23:.\slre.c      ****  */
  24:.\slre.c      **** 
  25:.\slre.c      **** #include <stdio.h>
  26:.\slre.c      **** #include <assert.h>
  27:.\slre.c      **** #include <ctype.h>
  28:.\slre.c      **** #include <stdlib.h>
  29:.\slre.c      **** #include <string.h>
  30:.\slre.c      **** #include <errno.h>
ARM GAS  C:\Users\karunmj\AppData\Local\Temp\ccfJuUhb.s 			page 5


  31:.\slre.c      **** 
  32:.\slre.c      **** #include "slre.h"
  33:.\slre.c      **** 
  34:.\slre.c      **** enum {END, BRANCH, ANY, EXACT, ANYOF, ANYBUT, OPEN, CLOSE, BOL, EOL,
  35:.\slre.c      **** 	STAR, PLUS, STARQ, PLUSQ, QUEST, SPACE, NONSPACE, DIGIT};
  36:.\slre.c      **** 
  37:.\slre.c      **** static struct {
  38:.\slre.c      **** 	const char	*name;
  39:.\slre.c      **** 	int		narg;
  40:.\slre.c      **** 	const char	*flags;	
  41:.\slre.c      **** } opcodes[] = {
  42:.\slre.c      **** 	{"END",		0, ""},		/* End of code block or program	*/
  43:.\slre.c      **** 	{"BRANCH",	2, "oo"},	/* Alternative operator, "|"	*/
  44:.\slre.c      **** 	{"ANY",		0, ""},		/* Match any character, "."	*/
  45:.\slre.c      **** 	{"EXACT",	2, "d"},	/* Match exact string		*/
  46:.\slre.c      **** 	{"ANYOF",	2, "D"},	/* Match any from set, "[]"	*/
  47:.\slre.c      **** 	{"ANYBUT",	2, "D"},	/* Match any but from set, "[^]"*/
  48:.\slre.c      **** 	{"OPEN ",	1, "i"},	/* Capture start, "("		*/
  49:.\slre.c      **** 	{"CLOSE",	1, "i"},	/* Capture end, ")"		*/
  50:.\slre.c      **** 	{"BOL",		0, ""},		/* Beginning of string, "^"	*/
  51:.\slre.c      **** 	{"EOL",		0, ""},		/* End of string, "$"		*/
  52:.\slre.c      **** 	{"STAR",	1, "o"},	/* Match zero or more times "*"	*/
  53:.\slre.c      **** 	{"PLUS",	1, "o"},	/* Match one or more times, "+"	*/
  54:.\slre.c      **** 	{"STARQ",	1, "o"},	/* Non-greedy STAR,  "*?"	*/
  55:.\slre.c      **** 	{"PLUSQ",	1, "o"},	/* Non-greedy PLUS, "+?"	*/
  56:.\slre.c      **** 	{"QUEST",	1, "o"},	/* Match zero or one time, "?"	*/
  57:.\slre.c      **** 	{"SPACE",	0, ""},		/* Match whitespace, "\s"	*/
  58:.\slre.c      **** 	{"NONSPACE",	0, ""},		/* Match non-space, "\S"	*/
  59:.\slre.c      **** 	{"DIGIT",	0, ""}		/* Match digit, "\d"		*/
  60:.\slre.c      **** };
  61:.\slre.c      **** 
  62:.\slre.c      **** /*
  63:.\slre.c      ****  * Commands and operands are all unsigned char (1 byte long). All code offsets
  64:.\slre.c      ****  * are relative to current address, and positive (always point forward). Data
  65:.\slre.c      ****  * offsets are absolute. Commands with operands:
  66:.\slre.c      ****  *
  67:.\slre.c      ****  * BRANCH offset1 offset2
  68:.\slre.c      ****  *	Try to match the code block that follows the BRANCH instruction
  69:.\slre.c      ****  *	(code block ends with END). If no match, try to match code block that
  70:.\slre.c      ****  *	starts at offset1. If either of these match, jump to offset2.
  71:.\slre.c      ****  *
  72:.\slre.c      ****  * EXACT data_offset data_length
  73:.\slre.c      ****  *	Try to match exact string. String is recorded in data section from
  74:.\slre.c      ****  *	data_offset, and has length data_length.
  75:.\slre.c      ****  *
  76:.\slre.c      ****  * OPEN capture_number
  77:.\slre.c      ****  * CLOSE capture_number
  78:.\slre.c      ****  *	If the user have passed 'struct cap' array for captures, OPEN
  79:.\slre.c      ****  *	records the beginning of the matched substring (cap->ptr), CLOSE
  80:.\slre.c      ****  *	sets the length (cap->len) for respective capture_number.
  81:.\slre.c      ****  *
  82:.\slre.c      ****  * STAR code_offset
  83:.\slre.c      ****  * PLUS code_offset
  84:.\slre.c      ****  * QUEST code_offset
  85:.\slre.c      ****  *	*, +, ?, respectively. Try to gobble as much as possible from the
  86:.\slre.c      ****  *	matched buffer, until code block that follows these instructions
  87:.\slre.c      ****  *	matches. When the longest possible string is matched,
ARM GAS  C:\Users\karunmj\AppData\Local\Temp\ccfJuUhb.s 			page 6


  88:.\slre.c      ****  *	jump to code_offset
  89:.\slre.c      ****  *
  90:.\slre.c      ****  * STARQ, PLUSQ are non-greedy versions of STAR and PLUS.
  91:.\slre.c      ****  */
  92:.\slre.c      **** 
  93:.\slre.c      **** static const char *meta_chars = "|.^$*+?()[\\";
  94:.\slre.c      **** 
  95:.\slre.c      **** static void
  96:.\slre.c      **** print_character_set(FILE *fp, const unsigned char *p, int len)
  97:.\slre.c      **** {
 177              		.loc 1 97 0
 178              		.cfi_startproc
 179              		@ args = 0, pretend = 0, frame = 24
 180              		@ frame_needed = 1, uses_anonymous_args = 0
 181 0000 80B5     		push	{r7, lr}
 182              	.LCFI0:
 183              		.cfi_def_cfa_offset 8
 184 0002 86B0     		sub	sp, sp, #24
 185              	.LCFI1:
 186              		.cfi_def_cfa_offset 32
 187 0004 00AF     		add	r7, sp, #0
 188              		.cfi_offset 14, -4
 189              		.cfi_offset 7, -8
 190              	.LCFI2:
 191              		.cfi_def_cfa_register 7
 192 0006 F860     		str	r0, [r7, #12]
 193 0008 B960     		str	r1, [r7, #8]
 194 000a 7A60     		str	r2, [r7, #4]
  98:.\slre.c      **** 	int	i;
  99:.\slre.c      **** 
 100:.\slre.c      **** 	for (i = 0; i < len; i++) {
 195              		.loc 1 100 0
 196 000c 4FF00003 		mov	r3, #0
 197 0010 7B61     		str	r3, [r7, #20]
 198 0012 64E0     		b	.L2
 199              	.L9:
 101:.\slre.c      **** 		if (i > 0)
 200              		.loc 1 101 0
 201 0014 7B69     		ldr	r3, [r7, #20]
 202 0016 002B     		cmp	r3, #0
 203 0018 04DD     		ble	.L3
 102:.\slre.c      **** 			(void) fputc(',', fp);
 204              		.loc 1 102 0
 205 001a 4FF02C00 		mov	r0, #44
 206 001e F968     		ldr	r1, [r7, #12]
 207 0020 FFF7FEFF 		bl	fputc
 208              	.L3:
 103:.\slre.c      **** 		if (p[i] == 0) {
 209              		.loc 1 103 0
 210 0024 7A69     		ldr	r2, [r7, #20]
 211 0026 BB68     		ldr	r3, [r7, #8]
 212 0028 1344     		add	r3, r2, r3
 213 002a 1B78     		ldrb	r3, [r3, #0]	@ zero_extendqisi2
 214 002c 002B     		cmp	r3, #0
 215 002e 2CD1     		bne	.L4
 104:.\slre.c      **** 			i++;
 216              		.loc 1 104 0
ARM GAS  C:\Users\karunmj\AppData\Local\Temp\ccfJuUhb.s 			page 7


 217 0030 7B69     		ldr	r3, [r7, #20]
 218 0032 03F10103 		add	r3, r3, #1
 219 0036 7B61     		str	r3, [r7, #20]
 105:.\slre.c      **** 			if (p[i] == 0)
 220              		.loc 1 105 0
 221 0038 7A69     		ldr	r2, [r7, #20]
 222 003a BB68     		ldr	r3, [r7, #8]
 223 003c 1344     		add	r3, r2, r3
 224 003e 1B78     		ldrb	r3, [r3, #0]	@ zero_extendqisi2
 225 0040 002B     		cmp	r3, #0
 226 0042 0CD1     		bne	.L5
 106:.\slre.c      **** 				(void) fprintf(fp, "\\x%02x", p[i]);
 227              		.loc 1 106 0
 228 0044 7A69     		ldr	r2, [r7, #20]
 229 0046 BB68     		ldr	r3, [r7, #8]
 230 0048 1344     		add	r3, r2, r3
 231 004a 1B78     		ldrb	r3, [r3, #0]	@ zero_extendqisi2
 232 004c F868     		ldr	r0, [r7, #12]
 233 004e 40F20001 		movw	r1, #:lower16:.LC25
 234 0052 C0F20001 		movt	r1, #:upper16:.LC25
 235 0056 1A46     		mov	r2, r3
 236 0058 FFF7FEFF 		bl	fprintf
 107:.\slre.c      **** 			else
 108:.\slre.c      **** 				(void) fprintf(fp, "%s", opcodes[p[i]].name);
 237              		.loc 1 108 0
 238 005c 3BE0     		b	.L7
 239              	.L5:
 240 005e 7A69     		ldr	r2, [r7, #20]
 241 0060 BB68     		ldr	r3, [r7, #8]
 242 0062 1344     		add	r3, r2, r3
 243 0064 1B78     		ldrb	r3, [r3, #0]	@ zero_extendqisi2
 244 0066 1946     		mov	r1, r3
 245 0068 40F20002 		movw	r2, #:lower16:opcodes
 246 006c C0F20002 		movt	r2, #:upper16:opcodes
 247 0070 0B46     		mov	r3, r1
 248 0072 4FEA4303 		lsl	r3, r3, #1
 249 0076 0B44     		add	r3, r3, r1
 250 0078 4FEA8303 		lsl	r3, r3, #2
 251 007c 1344     		add	r3, r3, r2
 252 007e 1B68     		ldr	r3, [r3, #0]
 253 0080 1846     		mov	r0, r3
 254 0082 F968     		ldr	r1, [r7, #12]
 255 0084 FFF7FEFF 		bl	fputs
 256 0088 25E0     		b	.L7
 257              	.L4:
 109:.\slre.c      **** 		} else if (isprint(p[i])) {
 258              		.loc 1 109 0
 259 008a 40F20003 		movw	r3, #:lower16:__ctype_ptr__
 260 008e C0F20003 		movt	r3, #:upper16:__ctype_ptr__
 261 0092 1A68     		ldr	r2, [r3, #0]
 262 0094 7969     		ldr	r1, [r7, #20]
 263 0096 BB68     		ldr	r3, [r7, #8]
 264 0098 0B44     		add	r3, r1, r3
 265 009a 1B78     		ldrb	r3, [r3, #0]	@ zero_extendqisi2
 266 009c 03F10103 		add	r3, r3, #1
 267 00a0 1344     		add	r3, r2, r3
 268 00a2 1B78     		ldrb	r3, [r3, #0]	@ zero_extendqisi2
ARM GAS  C:\Users\karunmj\AppData\Local\Temp\ccfJuUhb.s 			page 8


 269 00a4 03F09703 		and	r3, r3, #151
 270 00a8 002B     		cmp	r3, #0
 271 00aa 08D0     		beq	.L8
 110:.\slre.c      **** 			(void) fputc(p[i], fp);
 272              		.loc 1 110 0
 273 00ac 7A69     		ldr	r2, [r7, #20]
 274 00ae BB68     		ldr	r3, [r7, #8]
 275 00b0 1344     		add	r3, r2, r3
 276 00b2 1B78     		ldrb	r3, [r3, #0]	@ zero_extendqisi2
 277 00b4 1846     		mov	r0, r3
 278 00b6 F968     		ldr	r1, [r7, #12]
 279 00b8 FFF7FEFF 		bl	fputc
 280 00bc 0BE0     		b	.L7
 281              	.L8:
 111:.\slre.c      **** 		} else {
 112:.\slre.c      **** 			(void) fprintf(fp,"\\x%02x", p[i]);
 282              		.loc 1 112 0
 283 00be 7A69     		ldr	r2, [r7, #20]
 284 00c0 BB68     		ldr	r3, [r7, #8]
 285 00c2 1344     		add	r3, r2, r3
 286 00c4 1B78     		ldrb	r3, [r3, #0]	@ zero_extendqisi2
 287 00c6 F868     		ldr	r0, [r7, #12]
 288 00c8 40F20001 		movw	r1, #:lower16:.LC25
 289 00cc C0F20001 		movt	r1, #:upper16:.LC25
 290 00d0 1A46     		mov	r2, r3
 291 00d2 FFF7FEFF 		bl	fprintf
 292              	.L7:
 293              		.loc 1 100 0
 294 00d6 7B69     		ldr	r3, [r7, #20]
 295 00d8 03F10103 		add	r3, r3, #1
 296 00dc 7B61     		str	r3, [r7, #20]
 297              	.L2:
 298 00de 7A69     		ldr	r2, [r7, #20]
 299 00e0 7B68     		ldr	r3, [r7, #4]
 300 00e2 9A42     		cmp	r2, r3
 301 00e4 96DB     		blt	.L9
 113:.\slre.c      **** 		}
 114:.\slre.c      **** 	}
 115:.\slre.c      **** }
 302              		.loc 1 115 0
 303 00e6 07F11807 		add	r7, r7, #24
 304 00ea BD46     		mov	sp, r7
 305 00ec 80BD     		pop	{r7, pc}
 306              		.cfi_endproc
 307              	.LFE0:
 308              		.size	print_character_set, .-print_character_set
 309 00ee 00BF     		.section	.rodata
 310 00af 00       		.align	2
 311              	.LC26:
 312 00b0 25336420 		.ascii	"%3d %s \000"
 312      25732000 
 313              		.align	2
 314              	.LC27:
 315 00b8 25642000 		.ascii	"%d \000"
 316              		.section	.text.slre_dump,"ax",%progbits
 317              		.align	2
 318              		.global	slre_dump
ARM GAS  C:\Users\karunmj\AppData\Local\Temp\ccfJuUhb.s 			page 9


 319              		.thumb
 320              		.thumb_func
 321              		.type	slre_dump, %function
 322              	slre_dump:
 323              	.LFB1:
 116:.\slre.c      **** 
 117:.\slre.c      **** void
 118:.\slre.c      **** slre_dump(const struct slre *r, FILE *fp)
 119:.\slre.c      **** {
 324              		.loc 1 119 0
 325              		.cfi_startproc
 326              		@ args = 0, pretend = 0, frame = 32
 327              		@ frame_needed = 1, uses_anonymous_args = 0
 328 0000 80B5     		push	{r7, lr}
 329              	.LCFI3:
 330              		.cfi_def_cfa_offset 8
 331 0002 88B0     		sub	sp, sp, #32
 332              	.LCFI4:
 333              		.cfi_def_cfa_offset 40
 334 0004 00AF     		add	r7, sp, #0
 335              		.cfi_offset 14, -4
 336              		.cfi_offset 7, -8
 337              	.LCFI5:
 338              		.cfi_def_cfa_register 7
 339 0006 7860     		str	r0, [r7, #4]
 340 0008 3960     		str	r1, [r7, #0]
 120:.\slre.c      **** 	int	i, j, ch, op, pc;
 121:.\slre.c      **** 
 122:.\slre.c      **** 	for (pc = 0; pc < r->code_size; pc++) {
 341              		.loc 1 122 0
 342 000a 4FF00003 		mov	r3, #0
 343 000e FB61     		str	r3, [r7, #28]
 344 0010 E5E0     		b	.L12
 345              	.L25:
 123:.\slre.c      **** 
 124:.\slre.c      **** 		op = r->code[pc];
 346              		.loc 1 124 0
 347 0012 FB69     		ldr	r3, [r7, #28]
 348 0014 7A68     		ldr	r2, [r7, #4]
 349 0016 D35C     		ldrb	r3, [r2, r3]	@ zero_extendqisi2
 350 0018 BB61     		str	r3, [r7, #24]
 125:.\slre.c      **** 		(void) fprintf(fp, "%3d %s ", pc, opcodes[op].name);
 351              		.loc 1 125 0
 352 001a B969     		ldr	r1, [r7, #24]
 353 001c 40F20002 		movw	r2, #:lower16:opcodes
 354 0020 C0F20002 		movt	r2, #:upper16:opcodes
 355 0024 0B46     		mov	r3, r1
 356 0026 4FEA4303 		lsl	r3, r3, #1
 357 002a 0B44     		add	r3, r3, r1
 358 002c 4FEA8303 		lsl	r3, r3, #2
 359 0030 1344     		add	r3, r3, r2
 360 0032 1B68     		ldr	r3, [r3, #0]
 361 0034 3868     		ldr	r0, [r7, #0]
 362 0036 40F20001 		movw	r1, #:lower16:.LC26
 363 003a C0F20001 		movt	r1, #:upper16:.LC26
 364 003e FA69     		ldr	r2, [r7, #28]
 365 0040 FFF7FEFF 		bl	fprintf
ARM GAS  C:\Users\karunmj\AppData\Local\Temp\ccfJuUhb.s 			page 10


 126:.\slre.c      **** 
 127:.\slre.c      **** 		for (i = 0; opcodes[op].flags[i] != '\0'; i++)
 366              		.loc 1 127 0
 367 0044 4FF00003 		mov	r3, #0
 368 0048 FB60     		str	r3, [r7, #12]
 369 004a AAE0     		b	.L13
 370              	.L24:
 128:.\slre.c      **** 			switch (opcodes[op].flags[i]) {
 371              		.loc 1 128 0
 372 004c B969     		ldr	r1, [r7, #24]
 373 004e 40F20002 		movw	r2, #:lower16:opcodes
 374 0052 C0F20002 		movt	r2, #:upper16:opcodes
 375 0056 0B46     		mov	r3, r1
 376 0058 4FEA4303 		lsl	r3, r3, #1
 377 005c 0B44     		add	r3, r3, r1
 378 005e 4FEA8303 		lsl	r3, r3, #2
 379 0062 1344     		add	r3, r3, r2
 380 0064 03F10803 		add	r3, r3, #8
 381 0068 1A68     		ldr	r2, [r3, #0]
 382 006a FB68     		ldr	r3, [r7, #12]
 383 006c 1344     		add	r3, r2, r3
 384 006e 1B78     		ldrb	r3, [r3, #0]	@ zero_extendqisi2
 385 0070 642B     		cmp	r3, #100
 386 0072 4BD0     		beq	.L16
 387 0074 642B     		cmp	r3, #100
 388 0076 02DC     		bgt	.L19
 389 0078 442B     		cmp	r3, #68
 390 007a 2FD0     		beq	.L15
 391 007c 8DE0     		b	.L14
 392              	.L19:
 393 007e 692B     		cmp	r3, #105
 394 0080 02D0     		beq	.L17
 395 0082 6F2B     		cmp	r3, #111
 396 0084 12D0     		beq	.L18
 397 0086 88E0     		b	.L14
 398              	.L17:
 129:.\slre.c      **** 			case 'i':
 130:.\slre.c      **** 				(void) fprintf(fp, "%d ", r->code[pc + 1]);
 399              		.loc 1 130 0
 400 0088 FB69     		ldr	r3, [r7, #28]
 401 008a 03F10103 		add	r3, r3, #1
 402 008e 7A68     		ldr	r2, [r7, #4]
 403 0090 D35C     		ldrb	r3, [r2, r3]	@ zero_extendqisi2
 404 0092 3868     		ldr	r0, [r7, #0]
 405 0094 40F20001 		movw	r1, #:lower16:.LC27
 406 0098 C0F20001 		movt	r1, #:upper16:.LC27
 407 009c 1A46     		mov	r2, r3
 408 009e FFF7FEFF 		bl	fprintf
 131:.\slre.c      **** 				pc++;
 409              		.loc 1 131 0
 410 00a2 FB69     		ldr	r3, [r7, #28]
 411 00a4 03F10103 		add	r3, r3, #1
 412 00a8 FB61     		str	r3, [r7, #28]
 132:.\slre.c      **** 				break;
 413              		.loc 1 132 0
 414 00aa 76E0     		b	.L14
 415              	.L18:
ARM GAS  C:\Users\karunmj\AppData\Local\Temp\ccfJuUhb.s 			page 11


 133:.\slre.c      **** 			case 'o':
 134:.\slre.c      **** 				(void) fprintf(fp, "%d ",
 135:.\slre.c      **** 				    pc + r->code[pc + 1] - i);
 416              		.loc 1 135 0
 417 00ac FB69     		ldr	r3, [r7, #28]
 418 00ae 03F10103 		add	r3, r3, #1
 419 00b2 7A68     		ldr	r2, [r7, #4]
 420 00b4 D35C     		ldrb	r3, [r2, r3]	@ zero_extendqisi2
 421 00b6 1A46     		mov	r2, r3
 422 00b8 FB69     		ldr	r3, [r7, #28]
 423 00ba 1A44     		add	r2, r2, r3
 424              		.loc 1 134 0
 425 00bc FB68     		ldr	r3, [r7, #12]
 426 00be C3EB0203 		rsb	r3, r3, r2
 427 00c2 3868     		ldr	r0, [r7, #0]
 428 00c4 40F20001 		movw	r1, #:lower16:.LC27
 429 00c8 C0F20001 		movt	r1, #:upper16:.LC27
 430 00cc 1A46     		mov	r2, r3
 431 00ce FFF7FEFF 		bl	fprintf
 136:.\slre.c      **** 				pc++;
 432              		.loc 1 136 0
 433 00d2 FB69     		ldr	r3, [r7, #28]
 434 00d4 03F10103 		add	r3, r3, #1
 435 00d8 FB61     		str	r3, [r7, #28]
 137:.\slre.c      **** 				break;
 436              		.loc 1 137 0
 437 00da 5EE0     		b	.L14
 438              	.L15:
 138:.\slre.c      **** 			case 'D':
 139:.\slre.c      **** 				print_character_set(fp, r->data +
 439              		.loc 1 139 0
 440 00dc 7B68     		ldr	r3, [r7, #4]
 441 00de 03F58072 		add	r2, r3, #256
 140:.\slre.c      **** 				    r->code[pc + 1], r->code[pc + 2]);
 442              		.loc 1 140 0
 443 00e2 FB69     		ldr	r3, [r7, #28]
 444 00e4 03F10103 		add	r3, r3, #1
 445 00e8 7968     		ldr	r1, [r7, #4]
 446 00ea CB5C     		ldrb	r3, [r1, r3]	@ zero_extendqisi2
 447              		.loc 1 139 0
 448 00ec 1A44     		add	r2, r2, r3
 449              		.loc 1 140 0
 450 00ee FB69     		ldr	r3, [r7, #28]
 451 00f0 03F10203 		add	r3, r3, #2
 452 00f4 7968     		ldr	r1, [r7, #4]
 453 00f6 CB5C     		ldrb	r3, [r1, r3]	@ zero_extendqisi2
 454              		.loc 1 139 0
 455 00f8 3868     		ldr	r0, [r7, #0]
 456 00fa 1146     		mov	r1, r2
 457 00fc 1A46     		mov	r2, r3
 458 00fe FFF7FEFF 		bl	print_character_set
 141:.\slre.c      **** 				pc += 2;
 459              		.loc 1 141 0
 460 0102 FB69     		ldr	r3, [r7, #28]
 461 0104 03F10203 		add	r3, r3, #2
 462 0108 FB61     		str	r3, [r7, #28]
 142:.\slre.c      **** 				break;
ARM GAS  C:\Users\karunmj\AppData\Local\Temp\ccfJuUhb.s 			page 12


 463              		.loc 1 142 0
 464 010a 46E0     		b	.L14
 465              	.L16:
 143:.\slre.c      **** 			case 'd':
 144:.\slre.c      **** 				(void) fputc('"', fp);
 466              		.loc 1 144 0
 467 010c 4FF02200 		mov	r0, #34
 468 0110 3968     		ldr	r1, [r7, #0]
 469 0112 FFF7FEFF 		bl	fputc
 145:.\slre.c      **** 				for (j = 0; j < r->code[pc + 2]; j++) {
 470              		.loc 1 145 0
 471 0116 4FF00003 		mov	r3, #0
 472 011a 3B61     		str	r3, [r7, #16]
 473 011c 2BE0     		b	.L20
 474              	.L23:
 146:.\slre.c      **** 					ch = r->data[r->code[pc + 1] + j];
 475              		.loc 1 146 0
 476 011e FB69     		ldr	r3, [r7, #28]
 477 0120 03F10103 		add	r3, r3, #1
 478 0124 7A68     		ldr	r2, [r7, #4]
 479 0126 D35C     		ldrb	r3, [r2, r3]	@ zero_extendqisi2
 480 0128 1A46     		mov	r2, r3
 481 012a 3B69     		ldr	r3, [r7, #16]
 482 012c 1A44     		add	r2, r2, r3
 483 012e 7B68     		ldr	r3, [r7, #4]
 484 0130 1344     		add	r3, r2, r3
 485 0132 93F80031 		ldrb	r3, [r3, #256]	@ zero_extendqisi2
 486 0136 7B61     		str	r3, [r7, #20]
 147:.\slre.c      **** 					if (isprint(ch))
 487              		.loc 1 147 0
 488 0138 40F20003 		movw	r3, #:lower16:__ctype_ptr__
 489 013c C0F20003 		movt	r3, #:upper16:__ctype_ptr__
 490 0140 1A68     		ldr	r2, [r3, #0]
 491 0142 7B69     		ldr	r3, [r7, #20]
 492 0144 03F10103 		add	r3, r3, #1
 493 0148 1344     		add	r3, r2, r3
 494 014a 1B78     		ldrb	r3, [r3, #0]	@ zero_extendqisi2
 495 014c 03F09703 		and	r3, r3, #151
 496 0150 002B     		cmp	r3, #0
 497 0152 04D0     		beq	.L21
 148:.\slre.c      **** 						(void) fputc(ch, fp);
 498              		.loc 1 148 0
 499 0154 7869     		ldr	r0, [r7, #20]
 500 0156 3968     		ldr	r1, [r7, #0]
 501 0158 FFF7FEFF 		bl	fputc
 502 015c 07E0     		b	.L22
 503              	.L21:
 149:.\slre.c      **** 					else
 150:.\slre.c      **** 						(void) fprintf(fp,"\\x%02x",ch);
 504              		.loc 1 150 0
 505 015e 3868     		ldr	r0, [r7, #0]
 506 0160 40F20001 		movw	r1, #:lower16:.LC25
 507 0164 C0F20001 		movt	r1, #:upper16:.LC25
 508 0168 7A69     		ldr	r2, [r7, #20]
 509 016a FFF7FEFF 		bl	fprintf
 510              	.L22:
 511              		.loc 1 145 0
ARM GAS  C:\Users\karunmj\AppData\Local\Temp\ccfJuUhb.s 			page 13


 512 016e 3B69     		ldr	r3, [r7, #16]
 513 0170 03F10103 		add	r3, r3, #1
 514 0174 3B61     		str	r3, [r7, #16]
 515              	.L20:
 516 0176 FB69     		ldr	r3, [r7, #28]
 517 0178 03F10203 		add	r3, r3, #2
 518 017c 7A68     		ldr	r2, [r7, #4]
 519 017e D35C     		ldrb	r3, [r2, r3]	@ zero_extendqisi2
 520 0180 1A46     		mov	r2, r3
 521 0182 3B69     		ldr	r3, [r7, #16]
 522 0184 9A42     		cmp	r2, r3
 523 0186 CADC     		bgt	.L23
 151:.\slre.c      **** 				}
 152:.\slre.c      **** 				(void) fputc('"', fp);
 524              		.loc 1 152 0
 525 0188 4FF02200 		mov	r0, #34
 526 018c 3968     		ldr	r1, [r7, #0]
 527 018e FFF7FEFF 		bl	fputc
 153:.\slre.c      **** 				pc += 2;
 528              		.loc 1 153 0
 529 0192 FB69     		ldr	r3, [r7, #28]
 530 0194 03F10203 		add	r3, r3, #2
 531 0198 FB61     		str	r3, [r7, #28]
 532              	.L14:
 533              		.loc 1 127 0
 534 019a FB68     		ldr	r3, [r7, #12]
 535 019c 03F10103 		add	r3, r3, #1
 536 01a0 FB60     		str	r3, [r7, #12]
 537              	.L13:
 538 01a2 B969     		ldr	r1, [r7, #24]
 539 01a4 40F20002 		movw	r2, #:lower16:opcodes
 540 01a8 C0F20002 		movt	r2, #:upper16:opcodes
 541 01ac 0B46     		mov	r3, r1
 542 01ae 4FEA4303 		lsl	r3, r3, #1
 543 01b2 0B44     		add	r3, r3, r1
 544 01b4 4FEA8303 		lsl	r3, r3, #2
 545 01b8 1344     		add	r3, r3, r2
 546 01ba 03F10803 		add	r3, r3, #8
 547 01be 1A68     		ldr	r2, [r3, #0]
 548 01c0 FB68     		ldr	r3, [r7, #12]
 549 01c2 1344     		add	r3, r2, r3
 550 01c4 1B78     		ldrb	r3, [r3, #0]	@ zero_extendqisi2
 551 01c6 002B     		cmp	r3, #0
 552 01c8 7FF440AF 		bne	.L24
 154:.\slre.c      **** 				break;
 155:.\slre.c      **** 			}
 156:.\slre.c      **** 
 157:.\slre.c      **** 		(void) fputc('\n', fp);
 553              		.loc 1 157 0
 554 01cc 4FF00A00 		mov	r0, #10
 555 01d0 3968     		ldr	r1, [r7, #0]
 556 01d2 FFF7FEFF 		bl	fputc
 557              		.loc 1 122 0
 558 01d6 FB69     		ldr	r3, [r7, #28]
 559 01d8 03F10103 		add	r3, r3, #1
 560 01dc FB61     		str	r3, [r7, #28]
 561              	.L12:
ARM GAS  C:\Users\karunmj\AppData\Local\Temp\ccfJuUhb.s 			page 14


 562 01de 7B68     		ldr	r3, [r7, #4]
 563 01e0 D3F80022 		ldr	r2, [r3, #512]
 564 01e4 FB69     		ldr	r3, [r7, #28]
 565 01e6 9A42     		cmp	r2, r3
 566 01e8 3FF713AF 		bgt	.L25
 158:.\slre.c      **** 	}
 159:.\slre.c      **** }
 567              		.loc 1 159 0
 568 01ec 07F12007 		add	r7, r7, #32
 569 01f0 BD46     		mov	sp, r7
 570 01f2 80BD     		pop	{r7, pc}
 571              		.cfi_endproc
 572              	.LFE1:
 573              		.size	slre_dump, .-slre_dump
 574              		.section	.rodata
 575              		.align	2
 576              	.LC28:
 577 00bc 2E5C736C 		.ascii	".\\slre.c\000"
 577      72652E63 
 577      00
 578 00c5 000000   		.align	2
 579              	.LC29:
 580 00c8 6F666673 		.ascii	"offset < r->code_size\000"
 580      6574203C 
 580      20722D3E 
 580      636F6465 
 580      5F73697A 
 581 00de 0000     		.align	2
 582              	.LC30:
 583 00e0 4A756D70 		.ascii	"Jump offset is too big\000"
 583      206F6666 
 583      73657420 
 583      69732074 
 583      6F6F2062 
 584              		.section	.text.set_jump_offset,"ax",%progbits
 585              		.align	2
 586              		.thumb
 587              		.thumb_func
 588              		.type	set_jump_offset, %function
 589              	set_jump_offset:
 590              	.LFB2:
 160:.\slre.c      **** 
 161:.\slre.c      **** static void
 162:.\slre.c      **** set_jump_offset(struct slre *r, int pc, int offset)
 163:.\slre.c      **** {
 591              		.loc 1 163 0
 592              		.cfi_startproc
 593              		@ args = 0, pretend = 0, frame = 16
 594              		@ frame_needed = 1, uses_anonymous_args = 0
 595 0000 80B5     		push	{r7, lr}
 596              	.LCFI6:
 597              		.cfi_def_cfa_offset 8
 598 0002 84B0     		sub	sp, sp, #16
 599              	.LCFI7:
 600              		.cfi_def_cfa_offset 24
 601 0004 00AF     		add	r7, sp, #0
 602              		.cfi_offset 14, -4
ARM GAS  C:\Users\karunmj\AppData\Local\Temp\ccfJuUhb.s 			page 15


 603              		.cfi_offset 7, -8
 604              	.LCFI8:
 605              		.cfi_def_cfa_register 7
 606 0006 F860     		str	r0, [r7, #12]
 607 0008 B960     		str	r1, [r7, #8]
 608 000a 7A60     		str	r2, [r7, #4]
 164:.\slre.c      **** 	assert(offset < r->code_size);
 609              		.loc 1 164 0
 610 000c FB68     		ldr	r3, [r7, #12]
 611 000e D3F80022 		ldr	r2, [r3, #512]
 612 0012 7B68     		ldr	r3, [r7, #4]
 613 0014 9A42     		cmp	r2, r3
 614 0016 0FDC     		bgt	.L28
 615 0018 40F20000 		movw	r0, #:lower16:.LC28
 616 001c C0F20000 		movt	r0, #:upper16:.LC28
 617 0020 4FF0A401 		mov	r1, #164
 618 0024 40F20002 		movw	r2, #:lower16:__FUNCTION__.2917
 619 0028 C0F20002 		movt	r2, #:upper16:__FUNCTION__.2917
 620 002c 40F20003 		movw	r3, #:lower16:.LC29
 621 0030 C0F20003 		movt	r3, #:upper16:.LC29
 622 0034 FFF7FEFF 		bl	__assert_func
 623              	.L28:
 165:.\slre.c      **** 
 166:.\slre.c      **** 	if (r->code_size - offset > 0xff) {
 624              		.loc 1 166 0
 625 0038 FB68     		ldr	r3, [r7, #12]
 626 003a D3F80022 		ldr	r2, [r3, #512]
 627 003e 7B68     		ldr	r3, [r7, #4]
 628 0040 C3EB0203 		rsb	r3, r3, r2
 629 0044 FF2B     		cmp	r3, #255
 630 0046 07DD     		ble	.L29
 167:.\slre.c      **** 		r->err_str = "Jump offset is too big";
 631              		.loc 1 167 0
 632 0048 FA68     		ldr	r2, [r7, #12]
 633 004a 40F20003 		movw	r3, #:lower16:.LC30
 634 004e C0F20003 		movt	r3, #:upper16:.LC30
 635 0052 C2F81032 		str	r3, [r2, #528]
 636 0056 0BE0     		b	.L31
 637              	.L29:
 168:.\slre.c      **** 	} else {
 169:.\slre.c      **** 		r->code[pc] = (unsigned char) (r->code_size - offset);
 638              		.loc 1 169 0
 639 0058 BB68     		ldr	r3, [r7, #8]
 640 005a FA68     		ldr	r2, [r7, #12]
 641 005c D2F80022 		ldr	r2, [r2, #512]
 642 0060 D1B2     		uxtb	r1, r2
 643 0062 7A68     		ldr	r2, [r7, #4]
 644 0064 D2B2     		uxtb	r2, r2
 645 0066 C2EB0102 		rsb	r2, r2, r1
 646 006a D1B2     		uxtb	r1, r2
 647 006c FA68     		ldr	r2, [r7, #12]
 648 006e D154     		strb	r1, [r2, r3]
 649              	.L31:
 170:.\slre.c      **** 	}
 171:.\slre.c      **** }
 650              		.loc 1 171 0
 651 0070 07F11007 		add	r7, r7, #16
ARM GAS  C:\Users\karunmj\AppData\Local\Temp\ccfJuUhb.s 			page 16


 652 0074 BD46     		mov	sp, r7
 653 0076 80BD     		pop	{r7, pc}
 654              		.cfi_endproc
 655              	.LFE2:
 656              		.size	set_jump_offset, .-set_jump_offset
 657              		.section	.rodata
 658 00f7 00       		.align	2
 659              	.LC31:
 660 00f8 52452069 		.ascii	"RE is too long (code overflow)\000"
 660      7320746F 
 660      6F206C6F 
 660      6E672028 
 660      636F6465 
 661              		.section	.text.emit,"ax",%progbits
 662              		.align	2
 663              		.thumb
 664              		.thumb_func
 665              		.type	emit, %function
 666              	emit:
 667              	.LFB3:
 172:.\slre.c      **** 
 173:.\slre.c      **** static void
 174:.\slre.c      **** emit(struct slre *r, int code)
 175:.\slre.c      **** {
 668              		.loc 1 175 0
 669              		.cfi_startproc
 670              		@ args = 0, pretend = 0, frame = 8
 671              		@ frame_needed = 1, uses_anonymous_args = 0
 672              		@ link register save eliminated.
 673 0000 80B4     		push	{r7}
 674              	.LCFI9:
 675              		.cfi_def_cfa_offset 4
 676 0002 83B0     		sub	sp, sp, #12
 677              	.LCFI10:
 678              		.cfi_def_cfa_offset 16
 679 0004 00AF     		add	r7, sp, #0
 680              		.cfi_offset 7, -4
 681              	.LCFI11:
 682              		.cfi_def_cfa_register 7
 683 0006 7860     		str	r0, [r7, #4]
 684 0008 3960     		str	r1, [r7, #0]
 176:.\slre.c      **** 	if (r->code_size >= (int) (sizeof(r->code) / sizeof(r->code[0])))
 685              		.loc 1 176 0
 686 000a 7B68     		ldr	r3, [r7, #4]
 687 000c D3F80032 		ldr	r3, [r3, #512]
 688 0010 FF2B     		cmp	r3, #255
 689 0012 07DD     		ble	.L33
 177:.\slre.c      **** 		r->err_str = "RE is too long (code overflow)";
 690              		.loc 1 177 0
 691 0014 7A68     		ldr	r2, [r7, #4]
 692 0016 40F20003 		movw	r3, #:lower16:.LC31
 693 001a C0F20003 		movt	r3, #:upper16:.LC31
 694 001e C2F81032 		str	r3, [r2, #528]
 695 0022 0BE0     		b	.L35
 696              	.L33:
 178:.\slre.c      **** 	else
 179:.\slre.c      **** 		r->code[r->code_size++] = (unsigned char) code;
ARM GAS  C:\Users\karunmj\AppData\Local\Temp\ccfJuUhb.s 			page 17


 697              		.loc 1 179 0
 698 0024 7B68     		ldr	r3, [r7, #4]
 699 0026 D3F80032 		ldr	r3, [r3, #512]
 700 002a 3A68     		ldr	r2, [r7, #0]
 701 002c D1B2     		uxtb	r1, r2
 702 002e 7A68     		ldr	r2, [r7, #4]
 703 0030 D154     		strb	r1, [r2, r3]
 704 0032 03F10102 		add	r2, r3, #1
 705 0036 7B68     		ldr	r3, [r7, #4]
 706 0038 C3F80022 		str	r2, [r3, #512]
 707              	.L35:
 180:.\slre.c      **** }
 708              		.loc 1 180 0
 709 003c 07F10C07 		add	r7, r7, #12
 710 0040 BD46     		mov	sp, r7
 711 0042 80BC     		pop	{r7}
 712 0044 7047     		bx	lr
 713              		.cfi_endproc
 714              	.LFE3:
 715              		.size	emit, .-emit
 716 0046 00BF     		.section	.rodata
 717 0117 00       		.align	2
 718              	.LC32:
 719 0118 52452069 		.ascii	"RE is too long (data overflow)\000"
 719      7320746F 
 719      6F206C6F 
 719      6E672028 
 719      64617461 
 720              		.section	.text.store_char_in_data,"ax",%progbits
 721              		.align	2
 722              		.thumb
 723              		.thumb_func
 724              		.type	store_char_in_data, %function
 725              	store_char_in_data:
 726              	.LFB4:
 181:.\slre.c      **** 
 182:.\slre.c      **** static void
 183:.\slre.c      **** store_char_in_data(struct slre *r, int ch)
 184:.\slre.c      **** {
 727              		.loc 1 184 0
 728              		.cfi_startproc
 729              		@ args = 0, pretend = 0, frame = 8
 730              		@ frame_needed = 1, uses_anonymous_args = 0
 731              		@ link register save eliminated.
 732 0000 80B4     		push	{r7}
 733              	.LCFI12:
 734              		.cfi_def_cfa_offset 4
 735 0002 83B0     		sub	sp, sp, #12
 736              	.LCFI13:
 737              		.cfi_def_cfa_offset 16
 738 0004 00AF     		add	r7, sp, #0
 739              		.cfi_offset 7, -4
 740              	.LCFI14:
 741              		.cfi_def_cfa_register 7
 742 0006 7860     		str	r0, [r7, #4]
 743 0008 3960     		str	r1, [r7, #0]
 185:.\slre.c      **** 	if (r->data_size >= (int) sizeof(r->data))
ARM GAS  C:\Users\karunmj\AppData\Local\Temp\ccfJuUhb.s 			page 18


 744              		.loc 1 185 0
 745 000a 7B68     		ldr	r3, [r7, #4]
 746 000c D3F80432 		ldr	r3, [r3, #516]
 747 0010 FF2B     		cmp	r3, #255
 748 0012 07DD     		ble	.L37
 186:.\slre.c      **** 		r->err_str = "RE is too long (data overflow)";
 749              		.loc 1 186 0
 750 0014 7A68     		ldr	r2, [r7, #4]
 751 0016 40F20003 		movw	r3, #:lower16:.LC32
 752 001a C0F20003 		movt	r3, #:upper16:.LC32
 753 001e C2F81032 		str	r3, [r2, #528]
 754 0022 0DE0     		b	.L39
 755              	.L37:
 187:.\slre.c      **** 	else
 188:.\slre.c      **** 		r->data[r->data_size++] = ch;
 756              		.loc 1 188 0
 757 0024 7B68     		ldr	r3, [r7, #4]
 758 0026 D3F80432 		ldr	r3, [r3, #516]
 759 002a 3A68     		ldr	r2, [r7, #0]
 760 002c D1B2     		uxtb	r1, r2
 761 002e 7A68     		ldr	r2, [r7, #4]
 762 0030 1A44     		add	r2, r3, r2
 763 0032 82F80011 		strb	r1, [r2, #256]
 764 0036 03F10102 		add	r2, r3, #1
 765 003a 7B68     		ldr	r3, [r7, #4]
 766 003c C3F80422 		str	r2, [r3, #516]
 767              	.L39:
 189:.\slre.c      **** }
 768              		.loc 1 189 0
 769 0040 07F10C07 		add	r7, r7, #12
 770 0044 BD46     		mov	sp, r7
 771 0046 80BC     		pop	{r7}
 772 0048 7047     		bx	lr
 773              		.cfi_endproc
 774              	.LFE4:
 775              		.size	store_char_in_data, .-store_char_in_data
 776 004a 00BF     		.section	.text.exact,"ax",%progbits
 777              		.align	2
 778              		.thumb
 779              		.thumb_func
 780              		.type	exact, %function
 781              	exact:
 782              	.LFB5:
 190:.\slre.c      **** 
 191:.\slre.c      **** static void
 192:.\slre.c      **** exact(struct slre *r, const char **re)
 193:.\slre.c      **** {
 783              		.loc 1 193 0
 784              		.cfi_startproc
 785              		@ args = 0, pretend = 0, frame = 16
 786              		@ frame_needed = 1, uses_anonymous_args = 0
 787 0000 80B5     		push	{r7, lr}
 788              	.LCFI15:
 789              		.cfi_def_cfa_offset 8
 790 0002 84B0     		sub	sp, sp, #16
 791              	.LCFI16:
 792              		.cfi_def_cfa_offset 24
ARM GAS  C:\Users\karunmj\AppData\Local\Temp\ccfJuUhb.s 			page 19


 793 0004 00AF     		add	r7, sp, #0
 794              		.cfi_offset 14, -4
 795              		.cfi_offset 7, -8
 796              	.LCFI17:
 797              		.cfi_def_cfa_register 7
 798 0006 7860     		str	r0, [r7, #4]
 799 0008 3960     		str	r1, [r7, #0]
 194:.\slre.c      **** 	int	old_data_size = r->data_size;
 800              		.loc 1 194 0
 801 000a 7B68     		ldr	r3, [r7, #4]
 802 000c D3F80432 		ldr	r3, [r3, #516]
 803 0010 FB60     		str	r3, [r7, #12]
 195:.\slre.c      **** 
 196:.\slre.c      **** 	while (**re != '\0' && (strchr(meta_chars, **re)) == NULL)
 804              		.loc 1 196 0
 805 0012 0AE0     		b	.L41
 806              	.L43:
 197:.\slre.c      **** 		store_char_in_data(r, *(*re)++);
 807              		.loc 1 197 0
 808 0014 3B68     		ldr	r3, [r7, #0]
 809 0016 1B68     		ldr	r3, [r3, #0]
 810 0018 1A78     		ldrb	r2, [r3, #0]	@ zero_extendqisi2
 811 001a 03F10101 		add	r1, r3, #1
 812 001e 3B68     		ldr	r3, [r7, #0]
 813 0020 1960     		str	r1, [r3, #0]
 814 0022 7868     		ldr	r0, [r7, #4]
 815 0024 1146     		mov	r1, r2
 816 0026 FFF7FEFF 		bl	store_char_in_data
 817              	.L41:
 818              		.loc 1 196 0
 819 002a 3B68     		ldr	r3, [r7, #0]
 820 002c 1B68     		ldr	r3, [r3, #0]
 821 002e 1B78     		ldrb	r3, [r3, #0]	@ zero_extendqisi2
 822 0030 002B     		cmp	r3, #0
 823 0032 0ED0     		beq	.L42
 824 0034 40F20003 		movw	r3, #:lower16:meta_chars
 825 0038 C0F20003 		movt	r3, #:upper16:meta_chars
 826 003c 1A68     		ldr	r2, [r3, #0]
 827 003e 3B68     		ldr	r3, [r7, #0]
 828 0040 1B68     		ldr	r3, [r3, #0]
 829 0042 1B78     		ldrb	r3, [r3, #0]	@ zero_extendqisi2
 830 0044 1046     		mov	r0, r2
 831 0046 1946     		mov	r1, r3
 832 0048 FFF7FEFF 		bl	strchr
 833 004c 0346     		mov	r3, r0
 834 004e 002B     		cmp	r3, #0
 835 0050 E0D0     		beq	.L43
 836              	.L42:
 198:.\slre.c      **** 
 199:.\slre.c      **** 	emit(r, EXACT);
 837              		.loc 1 199 0
 838 0052 7868     		ldr	r0, [r7, #4]
 839 0054 4FF00301 		mov	r1, #3
 840 0058 FFF7FEFF 		bl	emit
 200:.\slre.c      **** 	emit(r, old_data_size);
 841              		.loc 1 200 0
 842 005c 7868     		ldr	r0, [r7, #4]
ARM GAS  C:\Users\karunmj\AppData\Local\Temp\ccfJuUhb.s 			page 20


 843 005e F968     		ldr	r1, [r7, #12]
 844 0060 FFF7FEFF 		bl	emit
 201:.\slre.c      **** 	emit(r, r->data_size - old_data_size);
 845              		.loc 1 201 0
 846 0064 7B68     		ldr	r3, [r7, #4]
 847 0066 D3F80422 		ldr	r2, [r3, #516]
 848 006a FB68     		ldr	r3, [r7, #12]
 849 006c C3EB0203 		rsb	r3, r3, r2
 850 0070 7868     		ldr	r0, [r7, #4]
 851 0072 1946     		mov	r1, r3
 852 0074 FFF7FEFF 		bl	emit
 202:.\slre.c      **** }
 853              		.loc 1 202 0
 854 0078 07F11007 		add	r7, r7, #16
 855 007c BD46     		mov	sp, r7
 856 007e 80BD     		pop	{r7, pc}
 857              		.cfi_endproc
 858              	.LFE5:
 859              		.size	exact, .-exact
 860              		.section	.text.get_escape_char,"ax",%progbits
 861              		.align	2
 862              		.thumb
 863              		.thumb_func
 864              		.type	get_escape_char, %function
 865              	get_escape_char:
 866              	.LFB6:
 203:.\slre.c      **** 
 204:.\slre.c      **** static int
 205:.\slre.c      **** get_escape_char(const char **re)
 206:.\slre.c      **** {
 867              		.loc 1 206 0
 868              		.cfi_startproc
 869              		@ args = 0, pretend = 0, frame = 16
 870              		@ frame_needed = 1, uses_anonymous_args = 0
 871              		@ link register save eliminated.
 872 0000 80B4     		push	{r7}
 873              	.LCFI18:
 874              		.cfi_def_cfa_offset 4
 875 0002 85B0     		sub	sp, sp, #20
 876              	.LCFI19:
 877              		.cfi_def_cfa_offset 24
 878 0004 00AF     		add	r7, sp, #0
 879              		.cfi_offset 7, -4
 880              	.LCFI20:
 881              		.cfi_def_cfa_register 7
 882 0006 7860     		str	r0, [r7, #4]
 207:.\slre.c      **** 	int	res;
 208:.\slre.c      **** 
 209:.\slre.c      **** 	switch (*(*re)++) {
 883              		.loc 1 209 0
 884 0008 7B68     		ldr	r3, [r7, #4]
 885 000a 1B68     		ldr	r3, [r3, #0]
 886 000c 1A78     		ldrb	r2, [r3, #0]	@ zero_extendqisi2
 887 000e 03F10101 		add	r1, r3, #1
 888 0012 7B68     		ldr	r3, [r7, #4]
 889 0014 1960     		str	r1, [r3, #0]
 890 0016 A2F13003 		sub	r3, r2, #48
ARM GAS  C:\Users\karunmj\AppData\Local\Temp\ccfJuUhb.s 			page 21


 891 001a 442B     		cmp	r3, #68
 892 001c 00F2AA80 		bhi	.L46
 893 0020 01A2     		adr	r2, .L54
 894 0022 52F823F0 		ldr	pc, [r2, r3, lsl #2]
 895 0026 00BF     		.align	2
 896              	.L54:
 897 0028 55010000 		.word	.L47+1
 898 002c 75010000 		.word	.L46+1
 899 0030 75010000 		.word	.L46+1
 900 0034 75010000 		.word	.L46+1
 901 0038 75010000 		.word	.L46+1
 902 003c 75010000 		.word	.L46+1
 903 0040 75010000 		.word	.L46+1
 904 0044 75010000 		.word	.L46+1
 905 0048 75010000 		.word	.L46+1
 906 004c 75010000 		.word	.L46+1
 907 0050 75010000 		.word	.L46+1
 908 0054 75010000 		.word	.L46+1
 909 0058 75010000 		.word	.L46+1
 910 005c 75010000 		.word	.L46+1
 911 0060 75010000 		.word	.L46+1
 912 0064 75010000 		.word	.L46+1
 913 0068 75010000 		.word	.L46+1
 914 006c 75010000 		.word	.L46+1
 915 0070 75010000 		.word	.L46+1
 916 0074 75010000 		.word	.L46+1
 917 0078 75010000 		.word	.L46+1
 918 007c 75010000 		.word	.L46+1
 919 0080 75010000 		.word	.L46+1
 920 0084 75010000 		.word	.L46+1
 921 0088 75010000 		.word	.L46+1
 922 008c 75010000 		.word	.L46+1
 923 0090 75010000 		.word	.L46+1
 924 0094 75010000 		.word	.L46+1
 925 0098 75010000 		.word	.L46+1
 926 009c 75010000 		.word	.L46+1
 927 00a0 75010000 		.word	.L46+1
 928 00a4 75010000 		.word	.L46+1
 929 00a8 75010000 		.word	.L46+1
 930 00ac 75010000 		.word	.L46+1
 931 00b0 75010000 		.word	.L46+1
 932 00b4 5D010000 		.word	.L48+1
 933 00b8 75010000 		.word	.L46+1
 934 00bc 75010000 		.word	.L46+1
 935 00c0 75010000 		.word	.L46+1
 936 00c4 75010000 		.word	.L46+1
 937 00c8 75010000 		.word	.L46+1
 938 00cc 75010000 		.word	.L46+1
 939 00d0 75010000 		.word	.L46+1
 940 00d4 75010000 		.word	.L46+1
 941 00d8 75010000 		.word	.L46+1
 942 00dc 75010000 		.word	.L46+1
 943 00e0 75010000 		.word	.L46+1
 944 00e4 75010000 		.word	.L46+1
 945 00e8 75010000 		.word	.L46+1
 946 00ec 75010000 		.word	.L46+1
 947 00f0 75010000 		.word	.L46+1
ARM GAS  C:\Users\karunmj\AppData\Local\Temp\ccfJuUhb.s 			page 22


 948 00f4 75010000 		.word	.L46+1
 949 00f8 6D010000 		.word	.L49+1
 950 00fc 75010000 		.word	.L46+1
 951 0100 75010000 		.word	.L46+1
 952 0104 75010000 		.word	.L46+1
 953 0108 75010000 		.word	.L46+1
 954 010c 75010000 		.word	.L46+1
 955 0110 75010000 		.word	.L46+1
 956 0114 75010000 		.word	.L46+1
 957 0118 75010000 		.word	.L46+1
 958 011c 75010000 		.word	.L46+1
 959 0120 3D010000 		.word	.L50+1
 960 0124 75010000 		.word	.L46+1
 961 0128 75010000 		.word	.L46+1
 962 012c 75010000 		.word	.L46+1
 963 0130 45010000 		.word	.L51+1
 964 0134 65010000 		.word	.L52+1
 965 0138 4D010000 		.word	.L53+1
 966              	.L50:
 210:.\slre.c      **** 	case 'n':	res = '\n';		break;
 967              		.loc 1 210 0
 968 013c 4FF00A03 		mov	r3, #10
 969 0140 FB60     		str	r3, [r7, #12]
 970 0142 1DE0     		b	.L55
 971              	.L51:
 211:.\slre.c      **** 	case 'r':	res = '\r';		break;
 972              		.loc 1 211 0
 973 0144 4FF00D03 		mov	r3, #13
 974 0148 FB60     		str	r3, [r7, #12]
 975 014a 19E0     		b	.L55
 976              	.L53:
 212:.\slre.c      **** 	case 't':	res = '\t';		break;
 977              		.loc 1 212 0
 978 014c 4FF00903 		mov	r3, #9
 979 0150 FB60     		str	r3, [r7, #12]
 980 0152 15E0     		b	.L55
 981              	.L47:
 213:.\slre.c      **** 	case '0':	res = 0;		break;
 982              		.loc 1 213 0
 983 0154 4FF00003 		mov	r3, #0
 984 0158 FB60     		str	r3, [r7, #12]
 985 015a 11E0     		b	.L55
 986              	.L48:
 214:.\slre.c      **** 	case 'S':	res = NONSPACE << 8;	break;
 987              		.loc 1 214 0
 988 015c 4FF48053 		mov	r3, #4096
 989 0160 FB60     		str	r3, [r7, #12]
 990 0162 0DE0     		b	.L55
 991              	.L52:
 215:.\slre.c      **** 	case 's':	res = SPACE << 8;	break;
 992              		.loc 1 215 0
 993 0164 4FF47063 		mov	r3, #3840
 994 0168 FB60     		str	r3, [r7, #12]
 995 016a 09E0     		b	.L55
 996              	.L49:
 216:.\slre.c      **** 	case 'd':	res = DIGIT << 8;	break;
 997              		.loc 1 216 0
ARM GAS  C:\Users\karunmj\AppData\Local\Temp\ccfJuUhb.s 			page 23


 998 016c 4FF48853 		mov	r3, #4352
 999 0170 FB60     		str	r3, [r7, #12]
 1000 0172 05E0     		b	.L55
 1001              	.L46:
 217:.\slre.c      **** 	default:	res = (*re)[-1];	break;
 1002              		.loc 1 217 0
 1003 0174 7B68     		ldr	r3, [r7, #4]
 1004 0176 1B68     		ldr	r3, [r3, #0]
 1005 0178 03F1FF33 		add	r3, r3, #-1
 1006 017c 1B78     		ldrb	r3, [r3, #0]	@ zero_extendqisi2
 1007 017e FB60     		str	r3, [r7, #12]
 1008              	.L55:
 218:.\slre.c      **** 	}
 219:.\slre.c      **** 
 220:.\slre.c      **** 	return (res);
 1009              		.loc 1 220 0
 1010 0180 FB68     		ldr	r3, [r7, #12]
 221:.\slre.c      **** }
 1011              		.loc 1 221 0
 1012 0182 1846     		mov	r0, r3
 1013 0184 07F11407 		add	r7, r7, #20
 1014 0188 BD46     		mov	sp, r7
 1015 018a 80BC     		pop	{r7}
 1016 018c 7047     		bx	lr
 1017              		.cfi_endproc
 1018              	.LFE6:
 1019              		.size	get_escape_char, .-get_escape_char
 1020 018e 00BF     		.section	.rodata
 1021 0137 00       		.align	2
 1022              	.LC33:
 1023 0138 4E6F2063 		.ascii	"No closing ']' bracket\000"
 1023      6C6F7369 
 1023      6E672027 
 1023      5D272062 
 1023      7261636B 
 1024              		.section	.text.anyof,"ax",%progbits
 1025              		.align	2
 1026              		.thumb
 1027              		.thumb_func
 1028              		.type	anyof, %function
 1029              	anyof:
 1030              	.LFB7:
 222:.\slre.c      **** 
 223:.\slre.c      **** static void
 224:.\slre.c      **** anyof(struct slre *r, const char **re)
 225:.\slre.c      **** {
 1031              		.loc 1 225 0
 1032              		.cfi_startproc
 1033              		@ args = 0, pretend = 0, frame = 24
 1034              		@ frame_needed = 1, uses_anonymous_args = 0
 1035 0000 80B5     		push	{r7, lr}
 1036              	.LCFI21:
 1037              		.cfi_def_cfa_offset 8
 1038 0002 86B0     		sub	sp, sp, #24
 1039              	.LCFI22:
 1040              		.cfi_def_cfa_offset 32
 1041 0004 00AF     		add	r7, sp, #0
ARM GAS  C:\Users\karunmj\AppData\Local\Temp\ccfJuUhb.s 			page 24


 1042              		.cfi_offset 14, -4
 1043              		.cfi_offset 7, -8
 1044              	.LCFI23:
 1045              		.cfi_def_cfa_register 7
 1046 0006 7860     		str	r0, [r7, #4]
 1047 0008 3960     		str	r1, [r7, #0]
 226:.\slre.c      **** 	int	esc, old_data_size = r->data_size, op = ANYOF;
 1048              		.loc 1 226 0
 1049 000a 7B68     		ldr	r3, [r7, #4]
 1050 000c D3F80432 		ldr	r3, [r3, #516]
 1051 0010 3B61     		str	r3, [r7, #16]
 1052 0012 4FF00403 		mov	r3, #4
 1053 0016 7B61     		str	r3, [r7, #20]
 227:.\slre.c      **** 
 228:.\slre.c      **** 	if (**re == '^') {
 1054              		.loc 1 228 0
 1055 0018 3B68     		ldr	r3, [r7, #0]
 1056 001a 1B68     		ldr	r3, [r3, #0]
 1057 001c 1B78     		ldrb	r3, [r3, #0]	@ zero_extendqisi2
 1058 001e 5E2B     		cmp	r3, #94
 1059 0020 4DD1     		bne	.L69
 229:.\slre.c      **** 		op = ANYBUT;
 1060              		.loc 1 229 0
 1061 0022 4FF00503 		mov	r3, #5
 1062 0026 7B61     		str	r3, [r7, #20]
 230:.\slre.c      **** 		(*re)++;
 1063              		.loc 1 230 0
 1064 0028 3B68     		ldr	r3, [r7, #0]
 1065 002a 1B68     		ldr	r3, [r3, #0]
 1066 002c 03F10102 		add	r2, r3, #1
 1067 0030 3B68     		ldr	r3, [r7, #0]
 1068 0032 1A60     		str	r2, [r3, #0]
 231:.\slre.c      **** 	}
 232:.\slre.c      **** 
 233:.\slre.c      **** 	while (**re != '\0')
 1069              		.loc 1 233 0
 1070 0034 44E0     		b	.L59
 1071              	.L66:
 234:.\slre.c      **** 
 235:.\slre.c      **** 		switch (*(*re)++) {
 1072              		.loc 1 235 0
 1073 0036 3B68     		ldr	r3, [r7, #0]
 1074 0038 1A68     		ldr	r2, [r3, #0]
 1075 003a 1378     		ldrb	r3, [r2, #0]	@ zero_extendqisi2
 1076 003c 02F10101 		add	r1, r2, #1
 1077 0040 3A68     		ldr	r2, [r7, #0]
 1078 0042 1160     		str	r1, [r2, #0]
 1079 0044 5C2B     		cmp	r3, #92
 1080 0046 14D0     		beq	.L61
 1081 0048 5D2B     		cmp	r3, #93
 1082 004a 2ED1     		bne	.L68
 1083              	.L62:
 236:.\slre.c      **** 		case ']':
 237:.\slre.c      **** 			emit(r, op);
 1084              		.loc 1 237 0
 1085 004c 7868     		ldr	r0, [r7, #4]
 1086 004e 7969     		ldr	r1, [r7, #20]
ARM GAS  C:\Users\karunmj\AppData\Local\Temp\ccfJuUhb.s 			page 25


 1087 0050 FFF7FEFF 		bl	emit
 238:.\slre.c      **** 			emit(r, old_data_size);
 1088              		.loc 1 238 0
 1089 0054 7868     		ldr	r0, [r7, #4]
 1090 0056 3969     		ldr	r1, [r7, #16]
 1091 0058 FFF7FEFF 		bl	emit
 239:.\slre.c      **** 			emit(r, r->data_size - old_data_size);
 1092              		.loc 1 239 0
 1093 005c 7B68     		ldr	r3, [r7, #4]
 1094 005e D3F80422 		ldr	r2, [r3, #516]
 1095 0062 3B69     		ldr	r3, [r7, #16]
 1096 0064 C3EB0203 		rsb	r3, r3, r2
 1097 0068 7868     		ldr	r0, [r7, #4]
 1098 006a 1946     		mov	r1, r3
 1099 006c FFF7FEFF 		bl	emit
 240:.\slre.c      **** 			return;
 1100              		.loc 1 240 0
 1101 0070 32E0     		b	.L67
 1102              	.L61:
 241:.\slre.c      **** 			/* NOTREACHED */
 242:.\slre.c      **** 			break;
 243:.\slre.c      **** 		case '\\':
 244:.\slre.c      **** 			esc = get_escape_char(re);
 1103              		.loc 1 244 0
 1104 0072 3868     		ldr	r0, [r7, #0]
 1105 0074 FFF7FEFF 		bl	get_escape_char
 1106 0078 0346     		mov	r3, r0
 1107 007a FB60     		str	r3, [r7, #12]
 245:.\slre.c      **** 			if ((esc & 0xff) == 0) {
 1108              		.loc 1 245 0
 1109 007c FB68     		ldr	r3, [r7, #12]
 1110 007e 03F0FF03 		and	r3, r3, #255
 1111 0082 002B     		cmp	r3, #0
 1112 0084 0CD1     		bne	.L64
 246:.\slre.c      **** 				store_char_in_data(r, 0);
 1113              		.loc 1 246 0
 1114 0086 7868     		ldr	r0, [r7, #4]
 1115 0088 4FF00001 		mov	r1, #0
 1116 008c FFF7FEFF 		bl	store_char_in_data
 247:.\slre.c      **** 				store_char_in_data(r, esc >> 8);
 1117              		.loc 1 247 0
 1118 0090 FB68     		ldr	r3, [r7, #12]
 1119 0092 4FEA2323 		asr	r3, r3, #8
 1120 0096 7868     		ldr	r0, [r7, #4]
 1121 0098 1946     		mov	r1, r3
 1122 009a FFF7FEFF 		bl	store_char_in_data
 248:.\slre.c      **** 			} else {
 249:.\slre.c      **** 				store_char_in_data(r, esc);
 250:.\slre.c      **** 			}
 251:.\slre.c      **** 			break;
 1123              		.loc 1 251 0
 1124 009e 0FE0     		b	.L59
 1125              	.L64:
 1126              		.loc 1 249 0
 1127 00a0 7868     		ldr	r0, [r7, #4]
 1128 00a2 F968     		ldr	r1, [r7, #12]
 1129 00a4 FFF7FEFF 		bl	store_char_in_data
ARM GAS  C:\Users\karunmj\AppData\Local\Temp\ccfJuUhb.s 			page 26


 1130              		.loc 1 251 0
 1131 00a8 0AE0     		b	.L59
 1132              	.L68:
 252:.\slre.c      **** 		default:
 253:.\slre.c      **** 			store_char_in_data(r, (*re)[-1]);
 1133              		.loc 1 253 0
 1134 00aa 3B68     		ldr	r3, [r7, #0]
 1135 00ac 1B68     		ldr	r3, [r3, #0]
 1136 00ae 03F1FF33 		add	r3, r3, #-1
 1137 00b2 1B78     		ldrb	r3, [r3, #0]	@ zero_extendqisi2
 1138 00b4 7868     		ldr	r0, [r7, #4]
 1139 00b6 1946     		mov	r1, r3
 1140 00b8 FFF7FEFF 		bl	store_char_in_data
 1141 00bc 00E0     		b	.L59
 1142              	.L69:
 1143              		.loc 1 233 0
 1144 00be 00BF     		nop
 1145              	.L59:
 1146 00c0 3B68     		ldr	r3, [r7, #0]
 1147 00c2 1B68     		ldr	r3, [r3, #0]
 1148 00c4 1B78     		ldrb	r3, [r3, #0]	@ zero_extendqisi2
 1149 00c6 002B     		cmp	r3, #0
 1150 00c8 B5D1     		bne	.L66
 254:.\slre.c      **** 			break;
 255:.\slre.c      **** 		}
 256:.\slre.c      **** 
 257:.\slre.c      **** 	r->err_str = "No closing ']' bracket";
 1151              		.loc 1 257 0
 1152 00ca 7A68     		ldr	r2, [r7, #4]
 1153 00cc 40F20003 		movw	r3, #:lower16:.LC33
 1154 00d0 C0F20003 		movt	r3, #:upper16:.LC33
 1155 00d4 C2F81032 		str	r3, [r2, #528]
 1156              	.L67:
 258:.\slre.c      **** }
 1157              		.loc 1 258 0
 1158 00d8 07F11807 		add	r7, r7, #24
 1159 00dc BD46     		mov	sp, r7
 1160 00de 80BD     		pop	{r7, pc}
 1161              		.cfi_endproc
 1162              	.LFE7:
 1163              		.size	anyof, .-anyof
 1164              		.section	.text.relocate,"ax",%progbits
 1165              		.align	2
 1166              		.thumb
 1167              		.thumb_func
 1168              		.type	relocate, %function
 1169              	relocate:
 1170              	.LFB8:
 259:.\slre.c      **** 
 260:.\slre.c      **** static void
 261:.\slre.c      **** relocate(struct slre *r, int begin, int shift)
 262:.\slre.c      **** {
 1171              		.loc 1 262 0
 1172              		.cfi_startproc
 1173              		@ args = 0, pretend = 0, frame = 16
 1174              		@ frame_needed = 1, uses_anonymous_args = 0
 1175 0000 80B5     		push	{r7, lr}
ARM GAS  C:\Users\karunmj\AppData\Local\Temp\ccfJuUhb.s 			page 27


 1176              	.LCFI24:
 1177              		.cfi_def_cfa_offset 8
 1178 0002 84B0     		sub	sp, sp, #16
 1179              	.LCFI25:
 1180              		.cfi_def_cfa_offset 24
 1181 0004 00AF     		add	r7, sp, #0
 1182              		.cfi_offset 14, -4
 1183              		.cfi_offset 7, -8
 1184              	.LCFI26:
 1185              		.cfi_def_cfa_register 7
 1186 0006 F860     		str	r0, [r7, #12]
 1187 0008 B960     		str	r1, [r7, #8]
 1188 000a 7A60     		str	r2, [r7, #4]
 263:.\slre.c      **** 	emit(r, END);
 1189              		.loc 1 263 0
 1190 000c F868     		ldr	r0, [r7, #12]
 1191 000e 4FF00001 		mov	r1, #0
 1192 0012 FFF7FEFF 		bl	emit
 264:.\slre.c      **** 	memmove(r->code + begin + shift, r->code + begin, r->code_size - begin);
 1193              		.loc 1 264 0
 1194 0016 FA68     		ldr	r2, [r7, #12]
 1195 0018 B968     		ldr	r1, [r7, #8]
 1196 001a 7B68     		ldr	r3, [r7, #4]
 1197 001c 0B44     		add	r3, r1, r3
 1198 001e 02EB0301 		add	r1, r2, r3
 1199 0022 FA68     		ldr	r2, [r7, #12]
 1200 0024 BB68     		ldr	r3, [r7, #8]
 1201 0026 1A44     		add	r2, r2, r3
 1202 0028 FB68     		ldr	r3, [r7, #12]
 1203 002a D3F80002 		ldr	r0, [r3, #512]
 1204 002e BB68     		ldr	r3, [r7, #8]
 1205 0030 C3EB0003 		rsb	r3, r3, r0
 1206 0034 0846     		mov	r0, r1
 1207 0036 1146     		mov	r1, r2
 1208 0038 1A46     		mov	r2, r3
 1209 003a FFF7FEFF 		bl	memmove
 265:.\slre.c      **** 	r->code_size += shift;
 1210              		.loc 1 265 0
 1211 003e FB68     		ldr	r3, [r7, #12]
 1212 0040 D3F80022 		ldr	r2, [r3, #512]
 1213 0044 7B68     		ldr	r3, [r7, #4]
 1214 0046 1A44     		add	r2, r2, r3
 1215 0048 FB68     		ldr	r3, [r7, #12]
 1216 004a C3F80022 		str	r2, [r3, #512]
 266:.\slre.c      **** }
 1217              		.loc 1 266 0
 1218 004e 07F11007 		add	r7, r7, #16
 1219 0052 BD46     		mov	sp, r7
 1220 0054 80BD     		pop	{r7, pc}
 1221              		.cfi_endproc
 1222              	.LFE8:
 1223              		.size	relocate, .-relocate
 1224 0056 00BF     		.section	.text.quantifier,"ax",%progbits
 1225              		.align	2
 1226              		.thumb
 1227              		.thumb_func
 1228              		.type	quantifier, %function
ARM GAS  C:\Users\karunmj\AppData\Local\Temp\ccfJuUhb.s 			page 28


 1229              	quantifier:
 1230              	.LFB9:
 267:.\slre.c      **** 
 268:.\slre.c      **** static void
 269:.\slre.c      **** quantifier(struct slre *r, int prev, int op)
 270:.\slre.c      **** {
 1231              		.loc 1 270 0
 1232              		.cfi_startproc
 1233              		@ args = 0, pretend = 0, frame = 16
 1234              		@ frame_needed = 1, uses_anonymous_args = 0
 1235 0000 80B5     		push	{r7, lr}
 1236              	.LCFI27:
 1237              		.cfi_def_cfa_offset 8
 1238 0002 84B0     		sub	sp, sp, #16
 1239              	.LCFI28:
 1240              		.cfi_def_cfa_offset 24
 1241 0004 00AF     		add	r7, sp, #0
 1242              		.cfi_offset 14, -4
 1243              		.cfi_offset 7, -8
 1244              	.LCFI29:
 1245              		.cfi_def_cfa_register 7
 1246 0006 F860     		str	r0, [r7, #12]
 1247 0008 B960     		str	r1, [r7, #8]
 1248 000a 7A60     		str	r2, [r7, #4]
 271:.\slre.c      **** 	if (r->code[prev] == EXACT && r->code[prev + 2] > 1) {
 1249              		.loc 1 271 0
 1250 000c BB68     		ldr	r3, [r7, #8]
 1251 000e FA68     		ldr	r2, [r7, #12]
 1252 0010 D35C     		ldrb	r3, [r2, r3]	@ zero_extendqisi2
 1253 0012 032B     		cmp	r3, #3
 1254 0014 30D1     		bne	.L73
 1255 0016 BB68     		ldr	r3, [r7, #8]
 1256 0018 03F10203 		add	r3, r3, #2
 1257 001c FA68     		ldr	r2, [r7, #12]
 1258 001e D35C     		ldrb	r3, [r2, r3]	@ zero_extendqisi2
 1259 0020 012B     		cmp	r3, #1
 1260 0022 29D9     		bls	.L73
 272:.\slre.c      **** 		r->code[prev + 2]--;
 1261              		.loc 1 272 0
 1262 0024 BB68     		ldr	r3, [r7, #8]
 1263 0026 03F10203 		add	r3, r3, #2
 1264 002a FA68     		ldr	r2, [r7, #12]
 1265 002c D25C     		ldrb	r2, [r2, r3]	@ zero_extendqisi2
 1266 002e 02F1FF32 		add	r2, r2, #-1
 1267 0032 D1B2     		uxtb	r1, r2
 1268 0034 FA68     		ldr	r2, [r7, #12]
 1269 0036 D154     		strb	r1, [r2, r3]
 273:.\slre.c      **** 		emit(r, EXACT);
 1270              		.loc 1 273 0
 1271 0038 F868     		ldr	r0, [r7, #12]
 1272 003a 4FF00301 		mov	r1, #3
 1273 003e FFF7FEFF 		bl	emit
 274:.\slre.c      **** 		emit(r, r->code[prev + 1] + r->code[prev + 2]);
 1274              		.loc 1 274 0
 1275 0042 BB68     		ldr	r3, [r7, #8]
 1276 0044 03F10103 		add	r3, r3, #1
 1277 0048 FA68     		ldr	r2, [r7, #12]
ARM GAS  C:\Users\karunmj\AppData\Local\Temp\ccfJuUhb.s 			page 29


 1278 004a D35C     		ldrb	r3, [r2, r3]	@ zero_extendqisi2
 1279 004c 1A46     		mov	r2, r3
 1280 004e BB68     		ldr	r3, [r7, #8]
 1281 0050 03F10203 		add	r3, r3, #2
 1282 0054 F968     		ldr	r1, [r7, #12]
 1283 0056 CB5C     		ldrb	r3, [r1, r3]	@ zero_extendqisi2
 1284 0058 1344     		add	r3, r2, r3
 1285 005a F868     		ldr	r0, [r7, #12]
 1286 005c 1946     		mov	r1, r3
 1287 005e FFF7FEFF 		bl	emit
 275:.\slre.c      **** 		emit(r, 1);
 1288              		.loc 1 275 0
 1289 0062 F868     		ldr	r0, [r7, #12]
 1290 0064 4FF00101 		mov	r1, #1
 1291 0068 FFF7FEFF 		bl	emit
 276:.\slre.c      **** 		prev = r->code_size - 3;
 1292              		.loc 1 276 0
 1293 006c FB68     		ldr	r3, [r7, #12]
 1294 006e D3F80032 		ldr	r3, [r3, #512]
 1295 0072 A3F10303 		sub	r3, r3, #3
 1296 0076 BB60     		str	r3, [r7, #8]
 1297              	.L73:
 277:.\slre.c      **** 	}
 278:.\slre.c      **** 	relocate(r, prev, 2);
 1298              		.loc 1 278 0
 1299 0078 F868     		ldr	r0, [r7, #12]
 1300 007a B968     		ldr	r1, [r7, #8]
 1301 007c 4FF00202 		mov	r2, #2
 1302 0080 FFF7FEFF 		bl	relocate
 279:.\slre.c      **** 	r->code[prev] = op;
 1303              		.loc 1 279 0
 1304 0084 BB68     		ldr	r3, [r7, #8]
 1305 0086 7A68     		ldr	r2, [r7, #4]
 1306 0088 D1B2     		uxtb	r1, r2
 1307 008a FA68     		ldr	r2, [r7, #12]
 1308 008c D154     		strb	r1, [r2, r3]
 280:.\slre.c      **** 	set_jump_offset(r, prev + 1, prev);
 1309              		.loc 1 280 0
 1310 008e BB68     		ldr	r3, [r7, #8]
 1311 0090 03F10103 		add	r3, r3, #1
 1312 0094 F868     		ldr	r0, [r7, #12]
 1313 0096 1946     		mov	r1, r3
 1314 0098 BA68     		ldr	r2, [r7, #8]
 1315 009a FFF7FEFF 		bl	set_jump_offset
 281:.\slre.c      **** }
 1316              		.loc 1 281 0
 1317 009e 07F11007 		add	r7, r7, #16
 1318 00a2 BD46     		mov	sp, r7
 1319 00a4 80BD     		pop	{r7, pc}
 1320              		.cfi_endproc
 1321              	.LFE9:
 1322              		.size	quantifier, .-quantifier
 1323 00a6 00BF     		.section	.text.exact_one_char,"ax",%progbits
 1324              		.align	2
 1325              		.thumb
 1326              		.thumb_func
 1327              		.type	exact_one_char, %function
ARM GAS  C:\Users\karunmj\AppData\Local\Temp\ccfJuUhb.s 			page 30


 1328              	exact_one_char:
 1329              	.LFB10:
 282:.\slre.c      **** 
 283:.\slre.c      **** static void
 284:.\slre.c      **** exact_one_char(struct slre *r, int ch)
 285:.\slre.c      **** {
 1330              		.loc 1 285 0
 1331              		.cfi_startproc
 1332              		@ args = 0, pretend = 0, frame = 8
 1333              		@ frame_needed = 1, uses_anonymous_args = 0
 1334 0000 80B5     		push	{r7, lr}
 1335              	.LCFI30:
 1336              		.cfi_def_cfa_offset 8
 1337 0002 82B0     		sub	sp, sp, #8
 1338              	.LCFI31:
 1339              		.cfi_def_cfa_offset 16
 1340 0004 00AF     		add	r7, sp, #0
 1341              		.cfi_offset 14, -4
 1342              		.cfi_offset 7, -8
 1343              	.LCFI32:
 1344              		.cfi_def_cfa_register 7
 1345 0006 7860     		str	r0, [r7, #4]
 1346 0008 3960     		str	r1, [r7, #0]
 286:.\slre.c      **** 	emit(r, EXACT);
 1347              		.loc 1 286 0
 1348 000a 7868     		ldr	r0, [r7, #4]
 1349 000c 4FF00301 		mov	r1, #3
 1350 0010 FFF7FEFF 		bl	emit
 287:.\slre.c      **** 	emit(r, r->data_size);
 1351              		.loc 1 287 0
 1352 0014 7B68     		ldr	r3, [r7, #4]
 1353 0016 D3F80432 		ldr	r3, [r3, #516]
 1354 001a 7868     		ldr	r0, [r7, #4]
 1355 001c 1946     		mov	r1, r3
 1356 001e FFF7FEFF 		bl	emit
 288:.\slre.c      **** 	emit(r, 1);
 1357              		.loc 1 288 0
 1358 0022 7868     		ldr	r0, [r7, #4]
 1359 0024 4FF00101 		mov	r1, #1
 1360 0028 FFF7FEFF 		bl	emit
 289:.\slre.c      **** 	store_char_in_data(r, ch);
 1361              		.loc 1 289 0
 1362 002c 7868     		ldr	r0, [r7, #4]
 1363 002e 3968     		ldr	r1, [r7, #0]
 1364 0030 FFF7FEFF 		bl	store_char_in_data
 290:.\slre.c      **** }
 1365              		.loc 1 290 0
 1366 0034 07F10807 		add	r7, r7, #8
 1367 0038 BD46     		mov	sp, r7
 1368 003a 80BD     		pop	{r7, pc}
 1369              		.cfi_endproc
 1370              	.LFE10:
 1371              		.size	exact_one_char, .-exact_one_char
 1372              		.section	.text.fixup_branch,"ax",%progbits
 1373              		.align	2
 1374              		.thumb
 1375              		.thumb_func
ARM GAS  C:\Users\karunmj\AppData\Local\Temp\ccfJuUhb.s 			page 31


 1376              		.type	fixup_branch, %function
 1377              	fixup_branch:
 1378              	.LFB11:
 291:.\slre.c      **** 
 292:.\slre.c      **** static void
 293:.\slre.c      **** fixup_branch(struct slre *r, int fixup)
 294:.\slre.c      **** {
 1379              		.loc 1 294 0
 1380              		.cfi_startproc
 1381              		@ args = 0, pretend = 0, frame = 8
 1382              		@ frame_needed = 1, uses_anonymous_args = 0
 1383 0000 80B5     		push	{r7, lr}
 1384              	.LCFI33:
 1385              		.cfi_def_cfa_offset 8
 1386 0002 82B0     		sub	sp, sp, #8
 1387              	.LCFI34:
 1388              		.cfi_def_cfa_offset 16
 1389 0004 00AF     		add	r7, sp, #0
 1390              		.cfi_offset 14, -4
 1391              		.cfi_offset 7, -8
 1392              	.LCFI35:
 1393              		.cfi_def_cfa_register 7
 1394 0006 7860     		str	r0, [r7, #4]
 1395 0008 3960     		str	r1, [r7, #0]
 295:.\slre.c      **** 	if (fixup > 0) {
 1396              		.loc 1 295 0
 1397 000a 3B68     		ldr	r3, [r7, #0]
 1398 000c 002B     		cmp	r3, #0
 1399 000e 0CDD     		ble	.L79
 296:.\slre.c      **** 		emit(r, END);
 1400              		.loc 1 296 0
 1401 0010 7868     		ldr	r0, [r7, #4]
 1402 0012 4FF00001 		mov	r1, #0
 1403 0016 FFF7FEFF 		bl	emit
 297:.\slre.c      **** 		set_jump_offset(r, fixup, fixup - 2);
 1404              		.loc 1 297 0
 1405 001a 3B68     		ldr	r3, [r7, #0]
 1406 001c A3F10203 		sub	r3, r3, #2
 1407 0020 7868     		ldr	r0, [r7, #4]
 1408 0022 3968     		ldr	r1, [r7, #0]
 1409 0024 1A46     		mov	r2, r3
 1410 0026 FFF7FEFF 		bl	set_jump_offset
 1411              	.L79:
 298:.\slre.c      **** 	}
 299:.\slre.c      **** }
 1412              		.loc 1 299 0
 1413 002a 07F10807 		add	r7, r7, #8
 1414 002e BD46     		mov	sp, r7
 1415 0030 80BD     		pop	{r7, pc}
 1416              		.cfi_endproc
 1417              	.LFE11:
 1418              		.size	fixup_branch, .-fixup_branch
 1419 0032 00BF     		.section	.rodata
 1420 014f 00       		.align	2
 1421              	.LC34:
 1422 0150 4E6F2063 		.ascii	"No closing bracket\000"
 1422      6C6F7369 
ARM GAS  C:\Users\karunmj\AppData\Local\Temp\ccfJuUhb.s 			page 32


 1422      6E672062 
 1422      7261636B 
 1422      657400
 1423 0163 00       		.align	2
 1424              	.LC35:
 1425 0164 556E6261 		.ascii	"Unbalanced brackets\000"
 1425      6C616E63 
 1425      65642062 
 1425      7261636B 
 1425      65747300 
 1426              		.section	.text.compile,"ax",%progbits
 1427              		.align	2
 1428              		.thumb
 1429              		.thumb_func
 1430              		.type	compile, %function
 1431              	compile:
 1432              	.LFB12:
 300:.\slre.c      **** 
 301:.\slre.c      **** static void
 302:.\slre.c      **** compile(struct slre *r, const char **re)
 303:.\slre.c      **** {
 1433              		.loc 1 303 0
 1434              		.cfi_startproc
 1435              		@ args = 0, pretend = 0, frame = 40
 1436              		@ frame_needed = 1, uses_anonymous_args = 0
 1437 0000 80B5     		push	{r7, lr}
 1438              	.LCFI36:
 1439              		.cfi_def_cfa_offset 8
 1440 0002 8AB0     		sub	sp, sp, #40
 1441              	.LCFI37:
 1442              		.cfi_def_cfa_offset 48
 1443 0004 00AF     		add	r7, sp, #0
 1444              		.cfi_offset 14, -4
 1445              		.cfi_offset 7, -8
 1446              	.LCFI38:
 1447              		.cfi_def_cfa_register 7
 1448 0006 7860     		str	r0, [r7, #4]
 1449 0008 3960     		str	r1, [r7, #0]
 304:.\slre.c      **** 	int	op, esc, branch_start, last_op, fixup, cap_no, level;
 305:.\slre.c      **** 
 306:.\slre.c      **** 	fixup = 0;
 1450              		.loc 1 306 0
 1451 000a 4FF00003 		mov	r3, #0
 1452 000e FB61     		str	r3, [r7, #28]
 307:.\slre.c      **** 	level = r->num_caps;
 1453              		.loc 1 307 0
 1454 0010 7B68     		ldr	r3, [r7, #4]
 1455 0012 D3F80832 		ldr	r3, [r3, #520]
 1456 0016 7B62     		str	r3, [r7, #36]
 308:.\slre.c      **** 	branch_start = last_op = r->code_size;
 1457              		.loc 1 308 0
 1458 0018 7B68     		ldr	r3, [r7, #4]
 1459 001a D3F80032 		ldr	r3, [r3, #512]
 1460 001e BB61     		str	r3, [r7, #24]
 1461 0020 BB69     		ldr	r3, [r7, #24]
 1462 0022 7B61     		str	r3, [r7, #20]
 1463              	.L107:
ARM GAS  C:\Users\karunmj\AppData\Local\Temp\ccfJuUhb.s 			page 33


 309:.\slre.c      **** 
 310:.\slre.c      **** 	for (;;)
 311:.\slre.c      **** 		switch (*(*re)++) {
 1464              		.loc 1 311 0
 1465 0024 3B68     		ldr	r3, [r7, #0]
 1466 0026 1A68     		ldr	r2, [r3, #0]
 1467 0028 1378     		ldrb	r3, [r2, #0]	@ zero_extendqisi2
 1468 002a 02F10101 		add	r1, r2, #1
 1469 002e 3A68     		ldr	r2, [r7, #0]
 1470 0030 1160     		str	r1, [r2, #0]
 1471 0032 2E2B     		cmp	r3, #46
 1472 0034 34D0     		beq	.L87
 1473 0036 2E2B     		cmp	r3, #46
 1474 0038 0FDC     		bgt	.L93
 1475 003a 292B     		cmp	r3, #41
 1476 003c 00F09B80 		beq	.L85
 1477 0040 292B     		cmp	r3, #41
 1478 0042 06DC     		bgt	.L94
 1479 0044 242B     		cmp	r3, #36
 1480 0046 25D0     		beq	.L83
 1481 0048 282B     		cmp	r3, #40
 1482 004a 57D0     		beq	.L84
 1483 004c 002B     		cmp	r3, #0
 1484 004e 14D0     		beq	.L82
 1485 0050 F5E0     		b	.L81
 1486              	.L94:
 1487 0052 2B2B     		cmp	r3, #43
 1488 0054 00F3F380 		bgt	.L81
 1489 0058 A2E0     		b	.L109
 1490              	.L93:
 1491 005a 5C2B     		cmp	r3, #92
 1492 005c 33D0     		beq	.L90
 1493 005e 5C2B     		cmp	r3, #92
 1494 0060 05DC     		bgt	.L95
 1495 0062 3F2B     		cmp	r3, #63
 1496 0064 00F0C380 		beq	.L88
 1497 0068 5B2B     		cmp	r3, #91
 1498 006a 23D0     		beq	.L89
 1499 006c E7E0     		b	.L81
 1500              	.L95:
 1501 006e 5E2B     		cmp	r3, #94
 1502 0070 0AD0     		beq	.L91
 1503 0072 7C2B     		cmp	r3, #124
 1504 0074 00F0C280 		beq	.L92
 1505 0078 E1E0     		b	.L81
 1506              	.L82:
 312:.\slre.c      **** 		case '\0':
 313:.\slre.c      **** 			(*re)--;
 1507              		.loc 1 313 0
 1508 007a 3B68     		ldr	r3, [r7, #0]
 1509 007c 1B68     		ldr	r3, [r3, #0]
 1510 007e 03F1FF32 		add	r2, r3, #-1
 1511 0082 3B68     		ldr	r3, [r7, #0]
 1512 0084 1A60     		str	r2, [r3, #0]
 314:.\slre.c      **** 			return;
 1513              		.loc 1 314 0
 1514 0086 EBE0     		b	.L108
ARM GAS  C:\Users\karunmj\AppData\Local\Temp\ccfJuUhb.s 			page 34


 1515              	.L91:
 315:.\slre.c      **** 			/* NOTREACHED */
 316:.\slre.c      **** 			break;
 317:.\slre.c      **** 		case '^':
 318:.\slre.c      **** 			emit(r, BOL);
 1516              		.loc 1 318 0
 1517 0088 7868     		ldr	r0, [r7, #4]
 1518 008a 4FF00801 		mov	r1, #8
 1519 008e FFF7FEFF 		bl	emit
 319:.\slre.c      **** 			break;
 1520              		.loc 1 319 0
 1521 0092 E3E0     		b	.L97
 1522              	.L83:
 320:.\slre.c      **** 		case '$':
 321:.\slre.c      **** 			emit(r, EOL);
 1523              		.loc 1 321 0
 1524 0094 7868     		ldr	r0, [r7, #4]
 1525 0096 4FF00901 		mov	r1, #9
 1526 009a FFF7FEFF 		bl	emit
 322:.\slre.c      **** 			break;
 1527              		.loc 1 322 0
 1528 009e DDE0     		b	.L97
 1529              	.L87:
 323:.\slre.c      **** 		case '.':
 324:.\slre.c      **** 			last_op = r->code_size;
 1530              		.loc 1 324 0
 1531 00a0 7B68     		ldr	r3, [r7, #4]
 1532 00a2 D3F80032 		ldr	r3, [r3, #512]
 1533 00a6 BB61     		str	r3, [r7, #24]
 325:.\slre.c      **** 			emit(r, ANY);
 1534              		.loc 1 325 0
 1535 00a8 7868     		ldr	r0, [r7, #4]
 1536 00aa 4FF00201 		mov	r1, #2
 1537 00ae FFF7FEFF 		bl	emit
 326:.\slre.c      **** 			break;
 1538              		.loc 1 326 0
 1539 00b2 D3E0     		b	.L97
 1540              	.L89:
 327:.\slre.c      **** 		case '[':
 328:.\slre.c      **** 			last_op = r->code_size;
 1541              		.loc 1 328 0
 1542 00b4 7B68     		ldr	r3, [r7, #4]
 1543 00b6 D3F80032 		ldr	r3, [r3, #512]
 1544 00ba BB61     		str	r3, [r7, #24]
 329:.\slre.c      **** 			anyof(r, re);
 1545              		.loc 1 329 0
 1546 00bc 7868     		ldr	r0, [r7, #4]
 1547 00be 3968     		ldr	r1, [r7, #0]
 1548 00c0 FFF7FEFF 		bl	anyof
 330:.\slre.c      **** 			break;
 1549              		.loc 1 330 0
 1550 00c4 CAE0     		b	.L97
 1551              	.L90:
 331:.\slre.c      **** 		case '\\':
 332:.\slre.c      **** 			last_op = r->code_size;
 1552              		.loc 1 332 0
 1553 00c6 7B68     		ldr	r3, [r7, #4]
ARM GAS  C:\Users\karunmj\AppData\Local\Temp\ccfJuUhb.s 			page 35


 1554 00c8 D3F80032 		ldr	r3, [r3, #512]
 1555 00cc BB61     		str	r3, [r7, #24]
 333:.\slre.c      **** 			esc = get_escape_char(re);
 1556              		.loc 1 333 0
 1557 00ce 3868     		ldr	r0, [r7, #0]
 1558 00d0 FFF7FEFF 		bl	get_escape_char
 1559 00d4 0346     		mov	r3, r0
 1560 00d6 3B61     		str	r3, [r7, #16]
 334:.\slre.c      **** 			if (esc & 0xff00) {
 1561              		.loc 1 334 0
 1562 00d8 3B69     		ldr	r3, [r7, #16]
 1563 00da 03F47F43 		and	r3, r3, #65280
 1564 00de 002B     		cmp	r3, #0
 1565 00e0 07D0     		beq	.L98
 335:.\slre.c      **** 				emit(r, esc >> 8);
 1566              		.loc 1 335 0
 1567 00e2 3B69     		ldr	r3, [r7, #16]
 1568 00e4 4FEA2323 		asr	r3, r3, #8
 1569 00e8 7868     		ldr	r0, [r7, #4]
 1570 00ea 1946     		mov	r1, r3
 1571 00ec FFF7FEFF 		bl	emit
 1572 00f0 03E0     		b	.L99
 1573              	.L98:
 336:.\slre.c      **** 			} else {
 337:.\slre.c      **** 				exact_one_char(r, esc);
 1574              		.loc 1 337 0
 1575 00f2 7868     		ldr	r0, [r7, #4]
 1576 00f4 3969     		ldr	r1, [r7, #16]
 1577 00f6 FFF7FEFF 		bl	exact_one_char
 1578              	.L99:
 338:.\slre.c      **** 			}
 339:.\slre.c      **** 			break;
 1579              		.loc 1 339 0
 1580 00fa AFE0     		b	.L97
 1581              	.L84:
 340:.\slre.c      **** 		case '(':
 341:.\slre.c      **** 			last_op = r->code_size;
 1582              		.loc 1 341 0
 1583 00fc 7B68     		ldr	r3, [r7, #4]
 1584 00fe D3F80032 		ldr	r3, [r3, #512]
 1585 0102 BB61     		str	r3, [r7, #24]
 342:.\slre.c      **** 			cap_no = ++r->num_caps;
 1586              		.loc 1 342 0
 1587 0104 7B68     		ldr	r3, [r7, #4]
 1588 0106 D3F80832 		ldr	r3, [r3, #520]
 1589 010a 03F10102 		add	r2, r3, #1
 1590 010e 7B68     		ldr	r3, [r7, #4]
 1591 0110 C3F80822 		str	r2, [r3, #520]
 1592 0114 7B68     		ldr	r3, [r7, #4]
 1593 0116 D3F80832 		ldr	r3, [r3, #520]
 1594 011a 3B62     		str	r3, [r7, #32]
 343:.\slre.c      **** 			emit(r, OPEN);
 1595              		.loc 1 343 0
 1596 011c 7868     		ldr	r0, [r7, #4]
 1597 011e 4FF00601 		mov	r1, #6
 1598 0122 FFF7FEFF 		bl	emit
 344:.\slre.c      **** 			emit(r, cap_no);
ARM GAS  C:\Users\karunmj\AppData\Local\Temp\ccfJuUhb.s 			page 36


 1599              		.loc 1 344 0
 1600 0126 7868     		ldr	r0, [r7, #4]
 1601 0128 396A     		ldr	r1, [r7, #32]
 1602 012a FFF7FEFF 		bl	emit
 345:.\slre.c      **** 
 346:.\slre.c      **** 			compile(r, re);
 1603              		.loc 1 346 0
 1604 012e 7868     		ldr	r0, [r7, #4]
 1605 0130 3968     		ldr	r1, [r7, #0]
 1606 0132 FFF765FF 		bl	compile
 347:.\slre.c      **** 			if (*(*re)++ != ')') {
 1607              		.loc 1 347 0
 1608 0136 3B68     		ldr	r3, [r7, #0]
 1609 0138 1B68     		ldr	r3, [r3, #0]
 1610 013a 1A78     		ldrb	r2, [r3, #0]	@ zero_extendqisi2
 1611 013c 292A     		cmp	r2, #41
 1612 013e 0CBF     		ite	eq
 1613 0140 0022     		moveq	r2, #0
 1614 0142 0122     		movne	r2, #1
 1615 0144 D2B2     		uxtb	r2, r2
 1616 0146 03F10101 		add	r1, r3, #1
 1617 014a 3B68     		ldr	r3, [r7, #0]
 1618 014c 1960     		str	r1, [r3, #0]
 1619 014e 002A     		cmp	r2, #0
 1620 0150 07D0     		beq	.L100
 348:.\slre.c      **** 				r->err_str = "No closing bracket";
 1621              		.loc 1 348 0
 1622 0152 7A68     		ldr	r2, [r7, #4]
 1623 0154 40F20003 		movw	r3, #:lower16:.LC34
 1624 0158 C0F20003 		movt	r3, #:upper16:.LC34
 1625 015c C2F81032 		str	r3, [r2, #528]
 349:.\slre.c      **** 				return;
 1626              		.loc 1 349 0
 1627 0160 7EE0     		b	.L108
 1628              	.L100:
 350:.\slre.c      **** 			}
 351:.\slre.c      **** 
 352:.\slre.c      **** 			emit(r, CLOSE);
 1629              		.loc 1 352 0
 1630 0162 7868     		ldr	r0, [r7, #4]
 1631 0164 4FF00701 		mov	r1, #7
 1632 0168 FFF7FEFF 		bl	emit
 353:.\slre.c      **** 			emit(r, cap_no);
 1633              		.loc 1 353 0
 1634 016c 7868     		ldr	r0, [r7, #4]
 1635 016e 396A     		ldr	r1, [r7, #32]
 1636 0170 FFF7FEFF 		bl	emit
 354:.\slre.c      **** 			break;
 1637              		.loc 1 354 0
 1638 0174 72E0     		b	.L97
 1639              	.L85:
 355:.\slre.c      **** 		case ')':
 356:.\slre.c      **** 			(*re)--;
 1640              		.loc 1 356 0
 1641 0176 3B68     		ldr	r3, [r7, #0]
 1642 0178 1B68     		ldr	r3, [r3, #0]
 1643 017a 03F1FF32 		add	r2, r3, #-1
ARM GAS  C:\Users\karunmj\AppData\Local\Temp\ccfJuUhb.s 			page 37


 1644 017e 3B68     		ldr	r3, [r7, #0]
 1645 0180 1A60     		str	r2, [r3, #0]
 357:.\slre.c      **** 			fixup_branch(r, fixup);
 1646              		.loc 1 357 0
 1647 0182 7868     		ldr	r0, [r7, #4]
 1648 0184 F969     		ldr	r1, [r7, #28]
 1649 0186 FFF7FEFF 		bl	fixup_branch
 358:.\slre.c      **** 			if (level == 0) {
 1650              		.loc 1 358 0
 1651 018a 7B6A     		ldr	r3, [r7, #36]
 1652 018c 002B     		cmp	r3, #0
 1653 018e 66D1     		bne	.L110
 359:.\slre.c      **** 				r->err_str = "Unbalanced brackets";
 1654              		.loc 1 359 0
 1655 0190 7A68     		ldr	r2, [r7, #4]
 1656 0192 40F20003 		movw	r3, #:lower16:.LC35
 1657 0196 C0F20003 		movt	r3, #:upper16:.LC35
 1658 019a C2F81032 		str	r3, [r2, #528]
 360:.\slre.c      **** 				return;
 1659              		.loc 1 360 0
 1660 019e 5FE0     		b	.L108
 1661              	.L109:
 361:.\slre.c      **** 			}
 362:.\slre.c      **** 			return;
 363:.\slre.c      **** 			/* NOTREACHED */
 364:.\slre.c      **** 			break;
 365:.\slre.c      **** 		case '+':
 366:.\slre.c      **** 		case '*':
 367:.\slre.c      **** 			op = (*re)[-1] == '*' ? STAR: PLUS;
 1662              		.loc 1 367 0
 1663 01a0 3B68     		ldr	r3, [r7, #0]
 1664 01a2 1B68     		ldr	r3, [r3, #0]
 1665 01a4 03F1FF33 		add	r3, r3, #-1
 1666 01a8 1B78     		ldrb	r3, [r3, #0]	@ zero_extendqisi2
 1667 01aa 2A2B     		cmp	r3, #42
 1668 01ac 02D1     		bne	.L102
 1669 01ae 4FF00A03 		mov	r3, #10
 1670 01b2 01E0     		b	.L103
 1671              	.L102:
 1672 01b4 4FF00B03 		mov	r3, #11
 1673              	.L103:
 1674 01b8 FB60     		str	r3, [r7, #12]
 368:.\slre.c      **** 			if (**re == '?') {
 1675              		.loc 1 368 0
 1676 01ba 3B68     		ldr	r3, [r7, #0]
 1677 01bc 1B68     		ldr	r3, [r3, #0]
 1678 01be 1B78     		ldrb	r3, [r3, #0]	@ zero_extendqisi2
 1679 01c0 3F2B     		cmp	r3, #63
 1680 01c2 0ED1     		bne	.L104
 369:.\slre.c      **** 				(*re)++;
 1681              		.loc 1 369 0
 1682 01c4 3B68     		ldr	r3, [r7, #0]
 1683 01c6 1B68     		ldr	r3, [r3, #0]
 1684 01c8 03F10102 		add	r2, r3, #1
 1685 01cc 3B68     		ldr	r3, [r7, #0]
 1686 01ce 1A60     		str	r2, [r3, #0]
 370:.\slre.c      **** 				op = op == STAR ? STARQ : PLUSQ;
ARM GAS  C:\Users\karunmj\AppData\Local\Temp\ccfJuUhb.s 			page 38


 1687              		.loc 1 370 0
 1688 01d0 FB68     		ldr	r3, [r7, #12]
 1689 01d2 0A2B     		cmp	r3, #10
 1690 01d4 02D1     		bne	.L105
 1691 01d6 4FF00C03 		mov	r3, #12
 1692 01da 01E0     		b	.L106
 1693              	.L105:
 1694 01dc 4FF00D03 		mov	r3, #13
 1695              	.L106:
 1696 01e0 FB60     		str	r3, [r7, #12]
 1697              	.L104:
 371:.\slre.c      **** 			}
 372:.\slre.c      **** 			quantifier(r, last_op, op);
 1698              		.loc 1 372 0
 1699 01e2 7868     		ldr	r0, [r7, #4]
 1700 01e4 B969     		ldr	r1, [r7, #24]
 1701 01e6 FA68     		ldr	r2, [r7, #12]
 1702 01e8 FFF7FEFF 		bl	quantifier
 373:.\slre.c      **** 			break;
 1703              		.loc 1 373 0
 1704 01ec 36E0     		b	.L97
 1705              	.L88:
 374:.\slre.c      **** 		case '?':
 375:.\slre.c      **** 			quantifier(r, last_op, QUEST);
 1706              		.loc 1 375 0
 1707 01ee 7868     		ldr	r0, [r7, #4]
 1708 01f0 B969     		ldr	r1, [r7, #24]
 1709 01f2 4FF00E02 		mov	r2, #14
 1710 01f6 FFF7FEFF 		bl	quantifier
 376:.\slre.c      **** 			break;
 1711              		.loc 1 376 0
 1712 01fa 2FE0     		b	.L97
 1713              	.L92:
 377:.\slre.c      **** 		case '|':
 378:.\slre.c      **** 			fixup_branch(r, fixup);
 1714              		.loc 1 378 0
 1715 01fc 7868     		ldr	r0, [r7, #4]
 1716 01fe F969     		ldr	r1, [r7, #28]
 1717 0200 FFF7FEFF 		bl	fixup_branch
 379:.\slre.c      **** 			relocate(r, branch_start, 3);
 1718              		.loc 1 379 0
 1719 0204 7868     		ldr	r0, [r7, #4]
 1720 0206 7969     		ldr	r1, [r7, #20]
 1721 0208 4FF00302 		mov	r2, #3
 1722 020c FFF7FEFF 		bl	relocate
 380:.\slre.c      **** 			r->code[branch_start] = BRANCH;
 1723              		.loc 1 380 0
 1724 0210 7B69     		ldr	r3, [r7, #20]
 1725 0212 7A68     		ldr	r2, [r7, #4]
 1726 0214 4FF00101 		mov	r1, #1
 1727 0218 D154     		strb	r1, [r2, r3]
 381:.\slre.c      **** 			set_jump_offset(r, branch_start + 1, branch_start);
 1728              		.loc 1 381 0
 1729 021a 7B69     		ldr	r3, [r7, #20]
 1730 021c 03F10103 		add	r3, r3, #1
 1731 0220 7868     		ldr	r0, [r7, #4]
 1732 0222 1946     		mov	r1, r3
ARM GAS  C:\Users\karunmj\AppData\Local\Temp\ccfJuUhb.s 			page 39


 1733 0224 7A69     		ldr	r2, [r7, #20]
 1734 0226 FFF7FEFF 		bl	set_jump_offset
 382:.\slre.c      **** 			fixup = branch_start + 2;
 1735              		.loc 1 382 0
 1736 022a 7B69     		ldr	r3, [r7, #20]
 1737 022c 03F10203 		add	r3, r3, #2
 1738 0230 FB61     		str	r3, [r7, #28]
 383:.\slre.c      **** 			r->code[fixup] = 0xff;
 1739              		.loc 1 383 0
 1740 0232 FB69     		ldr	r3, [r7, #28]
 1741 0234 7A68     		ldr	r2, [r7, #4]
 1742 0236 4FF0FF31 		mov	r1, #-1
 1743 023a D154     		strb	r1, [r2, r3]
 384:.\slre.c      **** 			break;
 1744              		.loc 1 384 0
 1745 023c 0EE0     		b	.L97
 1746              	.L81:
 385:.\slre.c      **** 		default:
 386:.\slre.c      **** 			(*re)--;
 1747              		.loc 1 386 0
 1748 023e 3B68     		ldr	r3, [r7, #0]
 1749 0240 1B68     		ldr	r3, [r3, #0]
 1750 0242 03F1FF32 		add	r2, r3, #-1
 1751 0246 3B68     		ldr	r3, [r7, #0]
 1752 0248 1A60     		str	r2, [r3, #0]
 387:.\slre.c      **** 			last_op = r->code_size;
 1753              		.loc 1 387 0
 1754 024a 7B68     		ldr	r3, [r7, #4]
 1755 024c D3F80032 		ldr	r3, [r3, #512]
 1756 0250 BB61     		str	r3, [r7, #24]
 388:.\slre.c      **** 			exact(r, re);
 1757              		.loc 1 388 0
 1758 0252 7868     		ldr	r0, [r7, #4]
 1759 0254 3968     		ldr	r1, [r7, #0]
 1760 0256 FFF7FEFF 		bl	exact
 389:.\slre.c      **** 			break;
 390:.\slre.c      **** 		}
 1761              		.loc 1 390 0
 1762 025a E3E6     		b	.L107
 1763              	.L97:
 1764 025c E2E6     		b	.L107
 1765              	.L110:
 1766              		.loc 1 362 0
 1767 025e 00BF     		nop
 1768              	.L108:
 391:.\slre.c      **** }
 1769              		.loc 1 391 0
 1770 0260 07F12807 		add	r7, r7, #40
 1771 0264 BD46     		mov	sp, r7
 1772 0266 80BD     		pop	{r7, pc}
 1773              		.cfi_endproc
 1774              	.LFE12:
 1775              		.size	compile, .-compile
 1776              		.section	.text.slre_compile,"ax",%progbits
 1777              		.align	2
 1778              		.global	slre_compile
 1779              		.thumb
ARM GAS  C:\Users\karunmj\AppData\Local\Temp\ccfJuUhb.s 			page 40


 1780              		.thumb_func
 1781              		.type	slre_compile, %function
 1782              	slre_compile:
 1783              	.LFB13:
 392:.\slre.c      **** 
 393:.\slre.c      **** int
 394:.\slre.c      **** slre_compile(struct slre *r, const char *re)
 395:.\slre.c      **** {
 1784              		.loc 1 395 0
 1785              		.cfi_startproc
 1786              		@ args = 0, pretend = 0, frame = 8
 1787              		@ frame_needed = 1, uses_anonymous_args = 0
 1788 0000 80B5     		push	{r7, lr}
 1789              	.LCFI39:
 1790              		.cfi_def_cfa_offset 8
 1791 0002 82B0     		sub	sp, sp, #8
 1792              	.LCFI40:
 1793              		.cfi_def_cfa_offset 16
 1794 0004 00AF     		add	r7, sp, #0
 1795              		.cfi_offset 14, -4
 1796              		.cfi_offset 7, -8
 1797              	.LCFI41:
 1798              		.cfi_def_cfa_register 7
 1799 0006 7860     		str	r0, [r7, #4]
 1800 0008 3960     		str	r1, [r7, #0]
 396:.\slre.c      **** 	r->err_str = NULL;
 1801              		.loc 1 396 0
 1802 000a 7B68     		ldr	r3, [r7, #4]
 1803 000c 4FF00002 		mov	r2, #0
 1804 0010 C3F81022 		str	r2, [r3, #528]
 397:.\slre.c      **** 	r->code_size = r->data_size = r->num_caps = r->anchored = 0;
 1805              		.loc 1 397 0
 1806 0014 7B68     		ldr	r3, [r7, #4]
 1807 0016 4FF00002 		mov	r2, #0
 1808 001a C3F80C22 		str	r2, [r3, #524]
 1809 001e 7B68     		ldr	r3, [r7, #4]
 1810 0020 D3F80C22 		ldr	r2, [r3, #524]
 1811 0024 7B68     		ldr	r3, [r7, #4]
 1812 0026 C3F80822 		str	r2, [r3, #520]
 1813 002a 7B68     		ldr	r3, [r7, #4]
 1814 002c D3F80822 		ldr	r2, [r3, #520]
 1815 0030 7B68     		ldr	r3, [r7, #4]
 1816 0032 C3F80422 		str	r2, [r3, #516]
 1817 0036 7B68     		ldr	r3, [r7, #4]
 1818 0038 D3F80422 		ldr	r2, [r3, #516]
 1819 003c 7B68     		ldr	r3, [r7, #4]
 1820 003e C3F80022 		str	r2, [r3, #512]
 398:.\slre.c      **** 
 399:.\slre.c      **** 	if (*re == '^')
 1821              		.loc 1 399 0
 1822 0042 3B68     		ldr	r3, [r7, #0]
 1823 0044 1B78     		ldrb	r3, [r3, #0]	@ zero_extendqisi2
 1824 0046 5E2B     		cmp	r3, #94
 1825 0048 07D1     		bne	.L112
 400:.\slre.c      **** 		r->anchored++;
 1826              		.loc 1 400 0
 1827 004a 7B68     		ldr	r3, [r7, #4]
ARM GAS  C:\Users\karunmj\AppData\Local\Temp\ccfJuUhb.s 			page 41


 1828 004c D3F80C32 		ldr	r3, [r3, #524]
 1829 0050 03F10102 		add	r2, r3, #1
 1830 0054 7B68     		ldr	r3, [r7, #4]
 1831 0056 C3F80C22 		str	r2, [r3, #524]
 1832              	.L112:
 401:.\slre.c      **** 
 402:.\slre.c      **** 	emit(r, OPEN);	/* This will capture what matches full RE */
 1833              		.loc 1 402 0
 1834 005a 7868     		ldr	r0, [r7, #4]
 1835 005c 4FF00601 		mov	r1, #6
 1836 0060 FFF7FEFF 		bl	emit
 403:.\slre.c      **** 	emit(r, 0);
 1837              		.loc 1 403 0
 1838 0064 7868     		ldr	r0, [r7, #4]
 1839 0066 4FF00001 		mov	r1, #0
 1840 006a FFF7FEFF 		bl	emit
 404:.\slre.c      **** 
 405:.\slre.c      **** 	while (*re != '\0')
 1841              		.loc 1 405 0
 1842 006e 04E0     		b	.L113
 1843              	.L114:
 406:.\slre.c      **** 		compile(r, &re);
 1844              		.loc 1 406 0
 1845 0070 3B46     		mov	r3, r7
 1846 0072 7868     		ldr	r0, [r7, #4]
 1847 0074 1946     		mov	r1, r3
 1848 0076 FFF7FEFF 		bl	compile
 1849              	.L113:
 1850              		.loc 1 405 0
 1851 007a 3B68     		ldr	r3, [r7, #0]
 1852 007c 1B78     		ldrb	r3, [r3, #0]	@ zero_extendqisi2
 1853 007e 002B     		cmp	r3, #0
 1854 0080 F6D1     		bne	.L114
 407:.\slre.c      **** 
 408:.\slre.c      **** 	if (r->code[2] == BRANCH)
 1855              		.loc 1 408 0
 1856 0082 7B68     		ldr	r3, [r7, #4]
 1857 0084 9B78     		ldrb	r3, [r3, #2]	@ zero_extendqisi2
 1858 0086 012B     		cmp	r3, #1
 1859 0088 04D1     		bne	.L115
 409:.\slre.c      **** 		fixup_branch(r, 4);
 1860              		.loc 1 409 0
 1861 008a 7868     		ldr	r0, [r7, #4]
 1862 008c 4FF00401 		mov	r1, #4
 1863 0090 FFF7FEFF 		bl	fixup_branch
 1864              	.L115:
 410:.\slre.c      **** 
 411:.\slre.c      **** 	emit(r, CLOSE);
 1865              		.loc 1 411 0
 1866 0094 7868     		ldr	r0, [r7, #4]
 1867 0096 4FF00701 		mov	r1, #7
 1868 009a FFF7FEFF 		bl	emit
 412:.\slre.c      **** 	emit(r, 0);
 1869              		.loc 1 412 0
 1870 009e 7868     		ldr	r0, [r7, #4]
 1871 00a0 4FF00001 		mov	r1, #0
 1872 00a4 FFF7FEFF 		bl	emit
ARM GAS  C:\Users\karunmj\AppData\Local\Temp\ccfJuUhb.s 			page 42


 413:.\slre.c      **** 	emit(r, END);
 1873              		.loc 1 413 0
 1874 00a8 7868     		ldr	r0, [r7, #4]
 1875 00aa 4FF00001 		mov	r1, #0
 1876 00ae FFF7FEFF 		bl	emit
 414:.\slre.c      **** 
 415:.\slre.c      **** 	return (r->err_str == NULL ? 1 : 0);
 1877              		.loc 1 415 0
 1878 00b2 7B68     		ldr	r3, [r7, #4]
 1879 00b4 D3F81032 		ldr	r3, [r3, #528]
 1880 00b8 002B     		cmp	r3, #0
 1881 00ba 14BF     		ite	ne
 1882 00bc 0023     		movne	r3, #0
 1883 00be 0123     		moveq	r3, #1
 416:.\slre.c      **** }
 1884              		.loc 1 416 0
 1885 00c0 1846     		mov	r0, r3
 1886 00c2 07F10807 		add	r7, r7, #8
 1887 00c6 BD46     		mov	sp, r7
 1888 00c8 80BD     		pop	{r7, pc}
 1889              		.cfi_endproc
 1890              	.LFE13:
 1891              		.size	slre_compile, .-slre_compile
 1892 00ca 00BF     		.section	.text.loop_greedy,"ax",%progbits
 1893              		.align	2
 1894              		.thumb
 1895              		.thumb_func
 1896              		.type	loop_greedy, %function
 1897              	loop_greedy:
 1898              	.LFB14:
 417:.\slre.c      **** 
 418:.\slre.c      **** static int match(const struct slre *, int,
 419:.\slre.c      **** 		const char *, int, int *, struct cap *);
 420:.\slre.c      **** 
 421:.\slre.c      **** static void
 422:.\slre.c      **** loop_greedy(const struct slre *r, int pc, const char *s, int len, int *ofs)
 423:.\slre.c      **** {
 1899              		.loc 1 423 0
 1900              		.cfi_startproc
 1901              		@ args = 4, pretend = 0, frame = 24
 1902              		@ frame_needed = 1, uses_anonymous_args = 0
 1903 0000 80B5     		push	{r7, lr}
 1904              	.LCFI42:
 1905              		.cfi_def_cfa_offset 8
 1906 0002 88B0     		sub	sp, sp, #32
 1907              	.LCFI43:
 1908              		.cfi_def_cfa_offset 40
 1909 0004 02AF     		add	r7, sp, #8
 1910              		.cfi_offset 14, -4
 1911              		.cfi_offset 7, -8
 1912              	.LCFI44:
 1913              		.cfi_def_cfa 7, 32
 1914 0006 F860     		str	r0, [r7, #12]
 1915 0008 B960     		str	r1, [r7, #8]
 1916 000a 7A60     		str	r2, [r7, #4]
 1917 000c 3B60     		str	r3, [r7, #0]
 424:.\slre.c      **** 	int	saved_offset, matched_offset;
ARM GAS  C:\Users\karunmj\AppData\Local\Temp\ccfJuUhb.s 			page 43


 425:.\slre.c      **** 
 426:.\slre.c      **** 	saved_offset = matched_offset = *ofs;
 1918              		.loc 1 426 0
 1919 000e 3B6A     		ldr	r3, [r7, #32]
 1920 0010 1B68     		ldr	r3, [r3, #0]
 1921 0012 7B61     		str	r3, [r7, #20]
 1922 0014 7B69     		ldr	r3, [r7, #20]
 1923 0016 3B61     		str	r3, [r7, #16]
 427:.\slre.c      **** 
 428:.\slre.c      **** 	while (match(r, pc + 2, s, len, ofs, NULL)) {
 1924              		.loc 1 428 0
 1925 0018 1DE0     		b	.L118
 1926              	.L120:
 429:.\slre.c      **** 		saved_offset = *ofs;
 1927              		.loc 1 429 0
 1928 001a 3B6A     		ldr	r3, [r7, #32]
 1929 001c 1B68     		ldr	r3, [r3, #0]
 1930 001e 3B61     		str	r3, [r7, #16]
 430:.\slre.c      **** 		if (match(r, pc + r->code[pc + 1], s, len, ofs, NULL))
 1931              		.loc 1 430 0
 1932 0020 BB68     		ldr	r3, [r7, #8]
 1933 0022 03F10103 		add	r3, r3, #1
 1934 0026 FA68     		ldr	r2, [r7, #12]
 1935 0028 D35C     		ldrb	r3, [r2, r3]	@ zero_extendqisi2
 1936 002a 1A46     		mov	r2, r3
 1937 002c BB68     		ldr	r3, [r7, #8]
 1938 002e 1344     		add	r3, r2, r3
 1939 0030 3A6A     		ldr	r2, [r7, #32]
 1940 0032 0092     		str	r2, [sp, #0]
 1941 0034 4FF00002 		mov	r2, #0
 1942 0038 0192     		str	r2, [sp, #4]
 1943 003a F868     		ldr	r0, [r7, #12]
 1944 003c 1946     		mov	r1, r3
 1945 003e 7A68     		ldr	r2, [r7, #4]
 1946 0040 3B68     		ldr	r3, [r7, #0]
 1947 0042 FFF7FEFF 		bl	match
 1948 0046 0346     		mov	r3, r0
 1949 0048 002B     		cmp	r3, #0
 1950 004a 01D0     		beq	.L119
 431:.\slre.c      **** 			matched_offset = saved_offset;
 1951              		.loc 1 431 0
 1952 004c 3B69     		ldr	r3, [r7, #16]
 1953 004e 7B61     		str	r3, [r7, #20]
 1954              	.L119:
 432:.\slre.c      **** 		*ofs = saved_offset;
 1955              		.loc 1 432 0
 1956 0050 3B6A     		ldr	r3, [r7, #32]
 1957 0052 3A69     		ldr	r2, [r7, #16]
 1958 0054 1A60     		str	r2, [r3, #0]
 1959              	.L118:
 1960              		.loc 1 428 0
 1961 0056 BB68     		ldr	r3, [r7, #8]
 1962 0058 03F10203 		add	r3, r3, #2
 1963 005c 3A6A     		ldr	r2, [r7, #32]
 1964 005e 0092     		str	r2, [sp, #0]
 1965 0060 4FF00002 		mov	r2, #0
 1966 0064 0192     		str	r2, [sp, #4]
ARM GAS  C:\Users\karunmj\AppData\Local\Temp\ccfJuUhb.s 			page 44


 1967 0066 F868     		ldr	r0, [r7, #12]
 1968 0068 1946     		mov	r1, r3
 1969 006a 7A68     		ldr	r2, [r7, #4]
 1970 006c 3B68     		ldr	r3, [r7, #0]
 1971 006e FFF7FEFF 		bl	match
 1972 0072 0346     		mov	r3, r0
 1973 0074 002B     		cmp	r3, #0
 1974 0076 D0D1     		bne	.L120
 433:.\slre.c      **** 	}
 434:.\slre.c      **** 
 435:.\slre.c      **** 	*ofs = matched_offset;
 1975              		.loc 1 435 0
 1976 0078 3B6A     		ldr	r3, [r7, #32]
 1977 007a 7A69     		ldr	r2, [r7, #20]
 1978 007c 1A60     		str	r2, [r3, #0]
 436:.\slre.c      **** }
 1979              		.loc 1 436 0
 1980 007e 07F11807 		add	r7, r7, #24
 1981 0082 BD46     		mov	sp, r7
 1982 0084 80BD     		pop	{r7, pc}
 1983              		.cfi_endproc
 1984              	.LFE14:
 1985              		.size	loop_greedy, .-loop_greedy
 1986 0086 00BF     		.section	.text.loop_non_greedy,"ax",%progbits
 1987              		.align	2
 1988              		.thumb
 1989              		.thumb_func
 1990              		.type	loop_non_greedy, %function
 1991              	loop_non_greedy:
 1992              	.LFB15:
 437:.\slre.c      **** 
 438:.\slre.c      **** static void
 439:.\slre.c      **** loop_non_greedy(const struct slre *r, int pc, const char *s,int len, int *ofs)
 440:.\slre.c      **** {
 1993              		.loc 1 440 0
 1994              		.cfi_startproc
 1995              		@ args = 4, pretend = 0, frame = 24
 1996              		@ frame_needed = 1, uses_anonymous_args = 0
 1997 0000 80B5     		push	{r7, lr}
 1998              	.LCFI45:
 1999              		.cfi_def_cfa_offset 8
 2000 0002 88B0     		sub	sp, sp, #32
 2001              	.LCFI46:
 2002              		.cfi_def_cfa_offset 40
 2003 0004 02AF     		add	r7, sp, #8
 2004              		.cfi_offset 14, -4
 2005              		.cfi_offset 7, -8
 2006              	.LCFI47:
 2007              		.cfi_def_cfa 7, 32
 2008 0006 F860     		str	r0, [r7, #12]
 2009 0008 B960     		str	r1, [r7, #8]
 2010 000a 7A60     		str	r2, [r7, #4]
 2011 000c 3B60     		str	r3, [r7, #0]
 441:.\slre.c      **** 	int	saved_offset = *ofs;
 2012              		.loc 1 441 0
 2013 000e 3B6A     		ldr	r3, [r7, #32]
 2014 0010 1B68     		ldr	r3, [r3, #0]
ARM GAS  C:\Users\karunmj\AppData\Local\Temp\ccfJuUhb.s 			page 45


 2015 0012 7B61     		str	r3, [r7, #20]
 442:.\slre.c      **** 
 443:.\slre.c      **** 	while (match(r, pc + 2, s, len, ofs, NULL)) {
 2016              		.loc 1 443 0
 2017 0014 18E0     		b	.L123
 2018              	.L125:
 444:.\slre.c      **** 		saved_offset = *ofs;
 2019              		.loc 1 444 0
 2020 0016 3B6A     		ldr	r3, [r7, #32]
 2021 0018 1B68     		ldr	r3, [r3, #0]
 2022 001a 7B61     		str	r3, [r7, #20]
 445:.\slre.c      **** 		if (match(r, pc + r->code[pc + 1], s, len, ofs, NULL))
 2023              		.loc 1 445 0
 2024 001c BB68     		ldr	r3, [r7, #8]
 2025 001e 03F10103 		add	r3, r3, #1
 2026 0022 FA68     		ldr	r2, [r7, #12]
 2027 0024 D35C     		ldrb	r3, [r2, r3]	@ zero_extendqisi2
 2028 0026 1A46     		mov	r2, r3
 2029 0028 BB68     		ldr	r3, [r7, #8]
 2030 002a 1344     		add	r3, r2, r3
 2031 002c 3A6A     		ldr	r2, [r7, #32]
 2032 002e 0092     		str	r2, [sp, #0]
 2033 0030 4FF00002 		mov	r2, #0
 2034 0034 0192     		str	r2, [sp, #4]
 2035 0036 F868     		ldr	r0, [r7, #12]
 2036 0038 1946     		mov	r1, r3
 2037 003a 7A68     		ldr	r2, [r7, #4]
 2038 003c 3B68     		ldr	r3, [r7, #0]
 2039 003e FFF7FEFF 		bl	match
 2040 0042 0346     		mov	r3, r0
 2041 0044 002B     		cmp	r3, #0
 2042 0046 11D1     		bne	.L127
 2043              	.L123:
 2044              		.loc 1 443 0
 2045 0048 BB68     		ldr	r3, [r7, #8]
 2046 004a 03F10203 		add	r3, r3, #2
 2047 004e 3A6A     		ldr	r2, [r7, #32]
 2048 0050 0092     		str	r2, [sp, #0]
 2049 0052 4FF00002 		mov	r2, #0
 2050 0056 0192     		str	r2, [sp, #4]
 2051 0058 F868     		ldr	r0, [r7, #12]
 2052 005a 1946     		mov	r1, r3
 2053 005c 7A68     		ldr	r2, [r7, #4]
 2054 005e 3B68     		ldr	r3, [r7, #0]
 2055 0060 FFF7FEFF 		bl	match
 2056 0064 0346     		mov	r3, r0
 2057 0066 002B     		cmp	r3, #0
 2058 0068 D5D1     		bne	.L125
 2059 006a 00E0     		b	.L124
 2060              	.L127:
 446:.\slre.c      **** 			break;
 2061              		.loc 1 446 0
 2062 006c 00BF     		nop
 2063              	.L124:
 447:.\slre.c      **** 	}
 448:.\slre.c      **** 
 449:.\slre.c      **** 	*ofs = saved_offset;
ARM GAS  C:\Users\karunmj\AppData\Local\Temp\ccfJuUhb.s 			page 46


 2064              		.loc 1 449 0
 2065 006e 3B6A     		ldr	r3, [r7, #32]
 2066 0070 7A69     		ldr	r2, [r7, #20]
 2067 0072 1A60     		str	r2, [r3, #0]
 450:.\slre.c      **** }
 2068              		.loc 1 450 0
 2069 0074 07F11807 		add	r7, r7, #24
 2070 0078 BD46     		mov	sp, r7
 2071 007a 80BD     		pop	{r7, pc}
 2072              		.cfi_endproc
 2073              	.LFE15:
 2074              		.size	loop_non_greedy, .-loop_non_greedy
 2075              		.section	.text.is_any_of,"ax",%progbits
 2076              		.align	2
 2077              		.thumb
 2078              		.thumb_func
 2079              		.type	is_any_of, %function
 2080              	is_any_of:
 2081              	.LFB16:
 451:.\slre.c      **** 
 452:.\slre.c      **** static int
 453:.\slre.c      **** is_any_of(const unsigned char *p, int len, const char *s, int *ofs)
 454:.\slre.c      **** {
 2082              		.loc 1 454 0
 2083              		.cfi_startproc
 2084              		@ args = 0, pretend = 0, frame = 24
 2085              		@ frame_needed = 1, uses_anonymous_args = 0
 2086              		@ link register save eliminated.
 2087 0000 80B4     		push	{r7}
 2088              	.LCFI48:
 2089              		.cfi_def_cfa_offset 4
 2090 0002 87B0     		sub	sp, sp, #28
 2091              	.LCFI49:
 2092              		.cfi_def_cfa_offset 32
 2093 0004 00AF     		add	r7, sp, #0
 2094              		.cfi_offset 7, -4
 2095              	.LCFI50:
 2096              		.cfi_def_cfa_register 7
 2097 0006 F860     		str	r0, [r7, #12]
 2098 0008 B960     		str	r1, [r7, #8]
 2099 000a 7A60     		str	r2, [r7, #4]
 2100 000c 3B60     		str	r3, [r7, #0]
 455:.\slre.c      **** 	int	i, ch;
 456:.\slre.c      **** 
 457:.\slre.c      **** 	ch = s[*ofs];
 2101              		.loc 1 457 0
 2102 000e 3B68     		ldr	r3, [r7, #0]
 2103 0010 1B68     		ldr	r3, [r3, #0]
 2104 0012 1A46     		mov	r2, r3
 2105 0014 7B68     		ldr	r3, [r7, #4]
 2106 0016 1344     		add	r3, r2, r3
 2107 0018 1B78     		ldrb	r3, [r3, #0]	@ zero_extendqisi2
 2108 001a 7B61     		str	r3, [r7, #20]
 458:.\slre.c      **** 
 459:.\slre.c      **** 	for (i = 0; i < len; i++)
 2109              		.loc 1 459 0
 2110 001c 4FF00003 		mov	r3, #0
ARM GAS  C:\Users\karunmj\AppData\Local\Temp\ccfJuUhb.s 			page 47


 2111 0020 3B61     		str	r3, [r7, #16]
 2112 0022 14E0     		b	.L129
 2113              	.L132:
 460:.\slre.c      **** 		if (p[i] == ch) {
 2114              		.loc 1 460 0
 2115 0024 3A69     		ldr	r2, [r7, #16]
 2116 0026 FB68     		ldr	r3, [r7, #12]
 2117 0028 1344     		add	r3, r2, r3
 2118 002a 1B78     		ldrb	r3, [r3, #0]	@ zero_extendqisi2
 2119 002c 1A46     		mov	r2, r3
 2120 002e 7B69     		ldr	r3, [r7, #20]
 2121 0030 9A42     		cmp	r2, r3
 2122 0032 08D1     		bne	.L130
 461:.\slre.c      **** 			(*ofs)++;
 2123              		.loc 1 461 0
 2124 0034 3B68     		ldr	r3, [r7, #0]
 2125 0036 1B68     		ldr	r3, [r3, #0]
 2126 0038 03F10102 		add	r2, r3, #1
 2127 003c 3B68     		ldr	r3, [r7, #0]
 2128 003e 1A60     		str	r2, [r3, #0]
 462:.\slre.c      **** 			return (1);
 2129              		.loc 1 462 0
 2130 0040 4FF00103 		mov	r3, #1
 2131 0044 09E0     		b	.L131
 2132              	.L130:
 2133              		.loc 1 459 0
 2134 0046 3B69     		ldr	r3, [r7, #16]
 2135 0048 03F10103 		add	r3, r3, #1
 2136 004c 3B61     		str	r3, [r7, #16]
 2137              	.L129:
 2138 004e 3A69     		ldr	r2, [r7, #16]
 2139 0050 BB68     		ldr	r3, [r7, #8]
 2140 0052 9A42     		cmp	r2, r3
 2141 0054 E6DB     		blt	.L132
 463:.\slre.c      **** 		}
 464:.\slre.c      **** 
 465:.\slre.c      **** 	return (0);
 2142              		.loc 1 465 0
 2143 0056 4FF00003 		mov	r3, #0
 2144              	.L131:
 466:.\slre.c      **** }
 2145              		.loc 1 466 0
 2146 005a 1846     		mov	r0, r3
 2147 005c 07F11C07 		add	r7, r7, #28
 2148 0060 BD46     		mov	sp, r7
 2149 0062 80BC     		pop	{r7}
 2150 0064 7047     		bx	lr
 2151              		.cfi_endproc
 2152              	.LFE16:
 2153              		.size	is_any_of, .-is_any_of
 2154 0066 00BF     		.section	.text.is_any_but,"ax",%progbits
 2155              		.align	2
 2156              		.thumb
 2157              		.thumb_func
 2158              		.type	is_any_but, %function
 2159              	is_any_but:
 2160              	.LFB17:
ARM GAS  C:\Users\karunmj\AppData\Local\Temp\ccfJuUhb.s 			page 48


 467:.\slre.c      **** 
 468:.\slre.c      **** static int
 469:.\slre.c      **** is_any_but(const unsigned char *p, int len, const char *s, int *ofs)
 470:.\slre.c      **** {
 2161              		.loc 1 470 0
 2162              		.cfi_startproc
 2163              		@ args = 0, pretend = 0, frame = 24
 2164              		@ frame_needed = 1, uses_anonymous_args = 0
 2165              		@ link register save eliminated.
 2166 0000 80B4     		push	{r7}
 2167              	.LCFI51:
 2168              		.cfi_def_cfa_offset 4
 2169 0002 87B0     		sub	sp, sp, #28
 2170              	.LCFI52:
 2171              		.cfi_def_cfa_offset 32
 2172 0004 00AF     		add	r7, sp, #0
 2173              		.cfi_offset 7, -4
 2174              	.LCFI53:
 2175              		.cfi_def_cfa_register 7
 2176 0006 F860     		str	r0, [r7, #12]
 2177 0008 B960     		str	r1, [r7, #8]
 2178 000a 7A60     		str	r2, [r7, #4]
 2179 000c 3B60     		str	r3, [r7, #0]
 471:.\slre.c      **** 	int	i, ch;
 472:.\slre.c      **** 
 473:.\slre.c      **** 	ch = s[*ofs];
 2180              		.loc 1 473 0
 2181 000e 3B68     		ldr	r3, [r7, #0]
 2182 0010 1B68     		ldr	r3, [r3, #0]
 2183 0012 1A46     		mov	r2, r3
 2184 0014 7B68     		ldr	r3, [r7, #4]
 2185 0016 1344     		add	r3, r2, r3
 2186 0018 1B78     		ldrb	r3, [r3, #0]	@ zero_extendqisi2
 2187 001a 7B61     		str	r3, [r7, #20]
 474:.\slre.c      **** 
 475:.\slre.c      **** 	for (i = 0; i < len; i++)
 2188              		.loc 1 475 0
 2189 001c 4FF00003 		mov	r3, #0
 2190 0020 3B61     		str	r3, [r7, #16]
 2191 0022 0EE0     		b	.L135
 2192              	.L138:
 476:.\slre.c      **** 		if (p[i] == ch)
 2193              		.loc 1 476 0
 2194 0024 3A69     		ldr	r2, [r7, #16]
 2195 0026 FB68     		ldr	r3, [r7, #12]
 2196 0028 1344     		add	r3, r2, r3
 2197 002a 1B78     		ldrb	r3, [r3, #0]	@ zero_extendqisi2
 2198 002c 1A46     		mov	r2, r3
 2199 002e 7B69     		ldr	r3, [r7, #20]
 2200 0030 9A42     		cmp	r2, r3
 2201 0032 02D1     		bne	.L136
 477:.\slre.c      **** 			return (0);
 2202              		.loc 1 477 0
 2203 0034 4FF00003 		mov	r3, #0
 2204 0038 0FE0     		b	.L137
 2205              	.L136:
 2206              		.loc 1 475 0
ARM GAS  C:\Users\karunmj\AppData\Local\Temp\ccfJuUhb.s 			page 49


 2207 003a 3B69     		ldr	r3, [r7, #16]
 2208 003c 03F10103 		add	r3, r3, #1
 2209 0040 3B61     		str	r3, [r7, #16]
 2210              	.L135:
 2211 0042 3A69     		ldr	r2, [r7, #16]
 2212 0044 BB68     		ldr	r3, [r7, #8]
 2213 0046 9A42     		cmp	r2, r3
 2214 0048 ECDB     		blt	.L138
 478:.\slre.c      **** 
 479:.\slre.c      **** 	(*ofs)++;
 2215              		.loc 1 479 0
 2216 004a 3B68     		ldr	r3, [r7, #0]
 2217 004c 1B68     		ldr	r3, [r3, #0]
 2218 004e 03F10102 		add	r2, r3, #1
 2219 0052 3B68     		ldr	r3, [r7, #0]
 2220 0054 1A60     		str	r2, [r3, #0]
 480:.\slre.c      **** 	return (1);
 2221              		.loc 1 480 0
 2222 0056 4FF00103 		mov	r3, #1
 2223              	.L137:
 481:.\slre.c      **** }
 2224              		.loc 1 481 0
 2225 005a 1846     		mov	r0, r3
 2226 005c 07F11C07 		add	r7, r7, #28
 2227 0060 BD46     		mov	sp, r7
 2228 0062 80BC     		pop	{r7}
 2229 0064 7047     		bx	lr
 2230              		.cfi_endproc
 2231              	.LFE17:
 2232              		.size	is_any_but, .-is_any_but
 2233 0066 00BF     		.section	.rodata
 2234              		.align	2
 2235              	.LC36:
 2236 0178 7063203C 		.ascii	"pc < r->code_size\000"
 2236      20722D3E 
 2236      636F6465 
 2236      5F73697A 
 2236      6500
 2237 018a 0000     		.align	2
 2238              	.LC37:
 2239 018c 7063203C 		.ascii	"pc < (int) (sizeof(r->code) / sizeof(r->code[0]))\000"
 2239      2028696E 
 2239      74292028 
 2239      73697A65 
 2239      6F662872 
 2240 01be 0000     		.align	2
 2241              	.LC38:
 2242 01c0 756E6B6E 		.ascii	"unknown cmd (%d) at %d\012\000"
 2242      6F776E20 
 2242      636D6420 
 2242      28256429 
 2242      20617420 
 2243              		.align	2
 2244              	.LC39:
 2245 01d8 3000     		.ascii	"0\000"
 2246              		.section	.text.match,"ax",%progbits
 2247              		.align	2
ARM GAS  C:\Users\karunmj\AppData\Local\Temp\ccfJuUhb.s 			page 50


 2248              		.thumb
 2249              		.thumb_func
 2250              		.type	match, %function
 2251              	match:
 2252              	.LFB18:
 482:.\slre.c      **** 
 483:.\slre.c      **** static int
 484:.\slre.c      **** match(const struct slre *r, int pc, const char *s, int len,
 485:.\slre.c      **** 		int *ofs, struct cap *caps)
 486:.\slre.c      **** {
 2253              		.loc 1 486 0
 2254              		.cfi_startproc
 2255              		@ args = 8, pretend = 0, frame = 32
 2256              		@ frame_needed = 1, uses_anonymous_args = 0
 2257 0000 80B5     		push	{r7, lr}
 2258              	.LCFI54:
 2259              		.cfi_def_cfa_offset 8
 2260 0002 8AB0     		sub	sp, sp, #40
 2261              	.LCFI55:
 2262              		.cfi_def_cfa_offset 48
 2263 0004 02AF     		add	r7, sp, #8
 2264              		.cfi_offset 14, -4
 2265              		.cfi_offset 7, -8
 2266              	.LCFI56:
 2267              		.cfi_def_cfa 7, 40
 2268 0006 F860     		str	r0, [r7, #12]
 2269 0008 B960     		str	r1, [r7, #8]
 2270 000a 7A60     		str	r2, [r7, #4]
 2271 000c 3B60     		str	r3, [r7, #0]
 487:.\slre.c      **** 	int	n, saved_offset, res = 1;
 2272              		.loc 1 487 0
 2273 000e 4FF00103 		mov	r3, #1
 2274 0012 FB61     		str	r3, [r7, #28]
 488:.\slre.c      **** 
 489:.\slre.c      **** 	while (res && r->code[pc] != END) {
 2275              		.loc 1 489 0
 2276 0014 A2E2     		b	.L141
 2277              	.L178:
 490:.\slre.c      **** 
 491:.\slre.c      **** 		assert(pc < r->code_size);
 2278              		.loc 1 491 0
 2279 0016 FB68     		ldr	r3, [r7, #12]
 2280 0018 D3F80022 		ldr	r2, [r3, #512]
 2281 001c BB68     		ldr	r3, [r7, #8]
 2282 001e 9A42     		cmp	r2, r3
 2283 0020 0FDC     		bgt	.L142
 2284 0022 40F20000 		movw	r0, #:lower16:.LC28
 2285 0026 C0F20000 		movt	r0, #:upper16:.LC28
 2286 002a 40F2EB11 		movw	r1, #491
 2287 002e 40F20002 		movw	r2, #:lower16:__FUNCTION__.3293
 2288 0032 C0F20002 		movt	r2, #:upper16:__FUNCTION__.3293
 2289 0036 40F20003 		movw	r3, #:lower16:.LC36
 2290 003a C0F20003 		movt	r3, #:upper16:.LC36
 2291 003e FFF7FEFF 		bl	__assert_func
 2292              	.L142:
 492:.\slre.c      **** 		assert(pc < (int) (sizeof(r->code) / sizeof(r->code[0])));
 2293              		.loc 1 492 0
ARM GAS  C:\Users\karunmj\AppData\Local\Temp\ccfJuUhb.s 			page 51


 2294 0042 BB68     		ldr	r3, [r7, #8]
 2295 0044 FF2B     		cmp	r3, #255
 2296 0046 0FDD     		ble	.L143
 2297 0048 40F20000 		movw	r0, #:lower16:.LC28
 2298 004c C0F20000 		movt	r0, #:upper16:.LC28
 2299 0050 4FF4F671 		mov	r1, #492
 2300 0054 40F20002 		movw	r2, #:lower16:__FUNCTION__.3293
 2301 0058 C0F20002 		movt	r2, #:upper16:__FUNCTION__.3293
 2302 005c 40F20003 		movw	r3, #:lower16:.LC37
 2303 0060 C0F20003 		movt	r3, #:upper16:.LC37
 2304 0064 FFF7FEFF 		bl	__assert_func
 2305              	.L143:
 493:.\slre.c      **** 
 494:.\slre.c      **** 		switch (r->code[pc]) {
 2306              		.loc 1 494 0
 2307 0068 BB68     		ldr	r3, [r7, #8]
 2308 006a FA68     		ldr	r2, [r7, #12]
 2309 006c D35C     		ldrb	r3, [r2, r3]	@ zero_extendqisi2
 2310 006e 112B     		cmp	r3, #17
 2311 0070 00F25682 		bhi	.L144
 2312 0074 01A2     		adr	r2, .L163
 2313 0076 52F823F0 		ldr	pc, [r2, r3, lsl #2]
 2314 007a 00BF     		.align	2
 2315              	.L163:
 2316 007c 17050000 		.word	.L145+1
 2317 0080 C5000000 		.word	.L146+1
 2318 0084 B7030000 		.word	.L147+1
 2319 0088 2F010000 		.word	.L148+1
 2320 008c E3030000 		.word	.L149+1
 2321 0090 29040000 		.word	.L150+1
 2322 0094 A1040000 		.word	.L151+1
 2323 0098 CF040000 		.word	.L152+1
 2324 009c 6F040000 		.word	.L153+1
 2325 00a0 87040000 		.word	.L154+1
 2326 00a4 E1010000 		.word	.L155+1
 2327 00a8 31020000 		.word	.L156+1
 2328 00ac 09020000 		.word	.L157+1
 2329 00b0 79020000 		.word	.L158+1
 2330 00b4 9D010000 		.word	.L159+1
 2331 00b8 C1020000 		.word	.L160+1
 2332 00bc 13030000 		.word	.L161+1
 2333 00c0 65030000 		.word	.L162+1
 2334              	.L146:
 495:.\slre.c      **** 		case BRANCH:
 496:.\slre.c      **** 			saved_offset = *ofs;
 2335              		.loc 1 496 0
 2336 00c4 BB6A     		ldr	r3, [r7, #40]
 2337 00c6 1B68     		ldr	r3, [r3, #0]
 2338 00c8 BB61     		str	r3, [r7, #24]
 497:.\slre.c      **** 			res = match(r, pc + 3, s, len, ofs, caps);
 2339              		.loc 1 497 0
 2340 00ca BB68     		ldr	r3, [r7, #8]
 2341 00cc 03F10303 		add	r3, r3, #3
 2342 00d0 BA6A     		ldr	r2, [r7, #40]
 2343 00d2 0092     		str	r2, [sp, #0]
 2344 00d4 FA6A     		ldr	r2, [r7, #44]
 2345 00d6 0192     		str	r2, [sp, #4]
ARM GAS  C:\Users\karunmj\AppData\Local\Temp\ccfJuUhb.s 			page 52


 2346 00d8 F868     		ldr	r0, [r7, #12]
 2347 00da 1946     		mov	r1, r3
 2348 00dc 7A68     		ldr	r2, [r7, #4]
 2349 00de 3B68     		ldr	r3, [r7, #0]
 2350 00e0 FFF78EFF 		bl	match
 2351 00e4 0346     		mov	r3, r0
 2352 00e6 FB61     		str	r3, [r7, #28]
 498:.\slre.c      **** 			if (res == 0) {
 2353              		.loc 1 498 0
 2354 00e8 FB69     		ldr	r3, [r7, #28]
 2355 00ea 002B     		cmp	r3, #0
 2356 00ec 16D1     		bne	.L164
 499:.\slre.c      **** 				*ofs = saved_offset;
 2357              		.loc 1 499 0
 2358 00ee BB6A     		ldr	r3, [r7, #40]
 2359 00f0 BA69     		ldr	r2, [r7, #24]
 2360 00f2 1A60     		str	r2, [r3, #0]
 500:.\slre.c      **** 				res = match(r, pc + r->code[pc + 1],
 2361              		.loc 1 500 0
 2362 00f4 BB68     		ldr	r3, [r7, #8]
 2363 00f6 03F10103 		add	r3, r3, #1
 2364 00fa FA68     		ldr	r2, [r7, #12]
 2365 00fc D35C     		ldrb	r3, [r2, r3]	@ zero_extendqisi2
 2366 00fe 1A46     		mov	r2, r3
 2367 0100 BB68     		ldr	r3, [r7, #8]
 2368 0102 1344     		add	r3, r2, r3
 2369 0104 BA6A     		ldr	r2, [r7, #40]
 2370 0106 0092     		str	r2, [sp, #0]
 2371 0108 FA6A     		ldr	r2, [r7, #44]
 2372 010a 0192     		str	r2, [sp, #4]
 2373 010c F868     		ldr	r0, [r7, #12]
 2374 010e 1946     		mov	r1, r3
 2375 0110 7A68     		ldr	r2, [r7, #4]
 2376 0112 3B68     		ldr	r3, [r7, #0]
 2377 0114 FFF774FF 		bl	match
 2378 0118 0346     		mov	r3, r0
 2379 011a FB61     		str	r3, [r7, #28]
 2380              	.L164:
 501:.\slre.c      **** 				    s, len, ofs, caps);
 502:.\slre.c      **** 			}
 503:.\slre.c      **** 			pc += r->code[pc + 2]; 
 2381              		.loc 1 503 0
 2382 011c BB68     		ldr	r3, [r7, #8]
 2383 011e 03F10203 		add	r3, r3, #2
 2384 0122 FA68     		ldr	r2, [r7, #12]
 2385 0124 D35C     		ldrb	r3, [r2, r3]	@ zero_extendqisi2
 2386 0126 BA68     		ldr	r2, [r7, #8]
 2387 0128 1344     		add	r3, r2, r3
 2388 012a BB60     		str	r3, [r7, #8]
 504:.\slre.c      **** 			break;
 2389              		.loc 1 504 0
 2390 012c 16E2     		b	.L141
 2391              	.L148:
 505:.\slre.c      **** 		case EXACT:
 506:.\slre.c      **** 			res = 0;
 2392              		.loc 1 506 0
 2393 012e 4FF00003 		mov	r3, #0
ARM GAS  C:\Users\karunmj\AppData\Local\Temp\ccfJuUhb.s 			page 53


 2394 0132 FB61     		str	r3, [r7, #28]
 507:.\slre.c      **** 			n = r->code[pc + 2];	/* String length */
 2395              		.loc 1 507 0
 2396 0134 BB68     		ldr	r3, [r7, #8]
 2397 0136 03F10203 		add	r3, r3, #2
 2398 013a FA68     		ldr	r2, [r7, #12]
 2399 013c D35C     		ldrb	r3, [r2, r3]	@ zero_extendqisi2
 2400 013e 7B61     		str	r3, [r7, #20]
 508:.\slre.c      **** 			if (n <= len - *ofs && !memcmp(s + *ofs, r->data +
 2401              		.loc 1 508 0
 2402 0140 BB6A     		ldr	r3, [r7, #40]
 2403 0142 1B68     		ldr	r3, [r3, #0]
 2404 0144 3A68     		ldr	r2, [r7, #0]
 2405 0146 C3EB0202 		rsb	r2, r3, r2
 2406 014a 7B69     		ldr	r3, [r7, #20]
 2407 014c 9A42     		cmp	r2, r3
 2408 014e 20DB     		blt	.L165
 2409 0150 BB6A     		ldr	r3, [r7, #40]
 2410 0152 1B68     		ldr	r3, [r3, #0]
 2411 0154 1A46     		mov	r2, r3
 2412 0156 7B68     		ldr	r3, [r7, #4]
 2413 0158 02EB0301 		add	r1, r2, r3
 2414 015c FB68     		ldr	r3, [r7, #12]
 2415 015e 03F58072 		add	r2, r3, #256
 509:.\slre.c      **** 			    r->code[pc + 1], n)) {
 2416              		.loc 1 509 0
 2417 0162 BB68     		ldr	r3, [r7, #8]
 2418 0164 03F10103 		add	r3, r3, #1
 2419 0168 F868     		ldr	r0, [r7, #12]
 2420 016a C35C     		ldrb	r3, [r0, r3]	@ zero_extendqisi2
 2421              		.loc 1 508 0
 2422 016c 1A44     		add	r2, r2, r3
 2423 016e 7B69     		ldr	r3, [r7, #20]
 2424 0170 0846     		mov	r0, r1
 2425 0172 1146     		mov	r1, r2
 2426 0174 1A46     		mov	r2, r3
 2427 0176 FFF7FEFF 		bl	memcmp
 2428 017a 0346     		mov	r3, r0
 2429 017c 002B     		cmp	r3, #0
 2430 017e 08D1     		bne	.L165
 510:.\slre.c      **** 				(*ofs) += n;
 2431              		.loc 1 510 0
 2432 0180 BB6A     		ldr	r3, [r7, #40]
 2433 0182 1A68     		ldr	r2, [r3, #0]
 2434 0184 7B69     		ldr	r3, [r7, #20]
 2435 0186 1A44     		add	r2, r2, r3
 2436 0188 BB6A     		ldr	r3, [r7, #40]
 2437 018a 1A60     		str	r2, [r3, #0]
 511:.\slre.c      **** 				res = 1;
 2438              		.loc 1 511 0
 2439 018c 4FF00103 		mov	r3, #1
 2440 0190 FB61     		str	r3, [r7, #28]
 2441              	.L165:
 512:.\slre.c      **** 			}
 513:.\slre.c      **** 			pc += 3;
 2442              		.loc 1 513 0
 2443 0192 BB68     		ldr	r3, [r7, #8]
ARM GAS  C:\Users\karunmj\AppData\Local\Temp\ccfJuUhb.s 			page 54


 2444 0194 03F10303 		add	r3, r3, #3
 2445 0198 BB60     		str	r3, [r7, #8]
 514:.\slre.c      **** 			break;
 2446              		.loc 1 514 0
 2447 019a DFE1     		b	.L141
 2448              	.L159:
 515:.\slre.c      **** 		case QUEST:
 516:.\slre.c      **** 			res = 1;
 2449              		.loc 1 516 0
 2450 019c 4FF00103 		mov	r3, #1
 2451 01a0 FB61     		str	r3, [r7, #28]
 517:.\slre.c      **** 			saved_offset = *ofs;
 2452              		.loc 1 517 0
 2453 01a2 BB6A     		ldr	r3, [r7, #40]
 2454 01a4 1B68     		ldr	r3, [r3, #0]
 2455 01a6 BB61     		str	r3, [r7, #24]
 518:.\slre.c      **** 			if (!match(r, pc + 2, s, len, ofs, caps))
 2456              		.loc 1 518 0
 2457 01a8 BB68     		ldr	r3, [r7, #8]
 2458 01aa 03F10203 		add	r3, r3, #2
 2459 01ae BA6A     		ldr	r2, [r7, #40]
 2460 01b0 0092     		str	r2, [sp, #0]
 2461 01b2 FA6A     		ldr	r2, [r7, #44]
 2462 01b4 0192     		str	r2, [sp, #4]
 2463 01b6 F868     		ldr	r0, [r7, #12]
 2464 01b8 1946     		mov	r1, r3
 2465 01ba 7A68     		ldr	r2, [r7, #4]
 2466 01bc 3B68     		ldr	r3, [r7, #0]
 2467 01be FFF71FFF 		bl	match
 2468 01c2 0346     		mov	r3, r0
 2469 01c4 002B     		cmp	r3, #0
 2470 01c6 02D1     		bne	.L166
 519:.\slre.c      **** 				*ofs = saved_offset;
 2471              		.loc 1 519 0
 2472 01c8 BB6A     		ldr	r3, [r7, #40]
 2473 01ca BA69     		ldr	r2, [r7, #24]
 2474 01cc 1A60     		str	r2, [r3, #0]
 2475              	.L166:
 520:.\slre.c      **** 			pc += r->code[pc + 1];
 2476              		.loc 1 520 0
 2477 01ce BB68     		ldr	r3, [r7, #8]
 2478 01d0 03F10103 		add	r3, r3, #1
 2479 01d4 FA68     		ldr	r2, [r7, #12]
 2480 01d6 D35C     		ldrb	r3, [r2, r3]	@ zero_extendqisi2
 2481 01d8 BA68     		ldr	r2, [r7, #8]
 2482 01da 1344     		add	r3, r2, r3
 2483 01dc BB60     		str	r3, [r7, #8]
 521:.\slre.c      **** 			break;
 2484              		.loc 1 521 0
 2485 01de BDE1     		b	.L141
 2486              	.L155:
 522:.\slre.c      **** 		case STAR:
 523:.\slre.c      **** 			res = 1;
 2487              		.loc 1 523 0
 2488 01e0 4FF00103 		mov	r3, #1
 2489 01e4 FB61     		str	r3, [r7, #28]
 524:.\slre.c      **** 			loop_greedy(r, pc, s, len, ofs);
ARM GAS  C:\Users\karunmj\AppData\Local\Temp\ccfJuUhb.s 			page 55


 2490              		.loc 1 524 0
 2491 01e6 BB6A     		ldr	r3, [r7, #40]
 2492 01e8 0093     		str	r3, [sp, #0]
 2493 01ea F868     		ldr	r0, [r7, #12]
 2494 01ec B968     		ldr	r1, [r7, #8]
 2495 01ee 7A68     		ldr	r2, [r7, #4]
 2496 01f0 3B68     		ldr	r3, [r7, #0]
 2497 01f2 FFF7FEFF 		bl	loop_greedy
 525:.\slre.c      **** 			pc += r->code[pc + 1];
 2498              		.loc 1 525 0
 2499 01f6 BB68     		ldr	r3, [r7, #8]
 2500 01f8 03F10103 		add	r3, r3, #1
 2501 01fc FA68     		ldr	r2, [r7, #12]
 2502 01fe D35C     		ldrb	r3, [r2, r3]	@ zero_extendqisi2
 2503 0200 BA68     		ldr	r2, [r7, #8]
 2504 0202 1344     		add	r3, r2, r3
 2505 0204 BB60     		str	r3, [r7, #8]
 526:.\slre.c      **** 			break;
 2506              		.loc 1 526 0
 2507 0206 A9E1     		b	.L141
 2508              	.L157:
 527:.\slre.c      **** 		case STARQ:
 528:.\slre.c      **** 			res = 1;
 2509              		.loc 1 528 0
 2510 0208 4FF00103 		mov	r3, #1
 2511 020c FB61     		str	r3, [r7, #28]
 529:.\slre.c      **** 			loop_non_greedy(r, pc, s, len, ofs);
 2512              		.loc 1 529 0
 2513 020e BB6A     		ldr	r3, [r7, #40]
 2514 0210 0093     		str	r3, [sp, #0]
 2515 0212 F868     		ldr	r0, [r7, #12]
 2516 0214 B968     		ldr	r1, [r7, #8]
 2517 0216 7A68     		ldr	r2, [r7, #4]
 2518 0218 3B68     		ldr	r3, [r7, #0]
 2519 021a FFF7FEFF 		bl	loop_non_greedy
 530:.\slre.c      **** 			pc += r->code[pc + 1];
 2520              		.loc 1 530 0
 2521 021e BB68     		ldr	r3, [r7, #8]
 2522 0220 03F10103 		add	r3, r3, #1
 2523 0224 FA68     		ldr	r2, [r7, #12]
 2524 0226 D35C     		ldrb	r3, [r2, r3]	@ zero_extendqisi2
 2525 0228 BA68     		ldr	r2, [r7, #8]
 2526 022a 1344     		add	r3, r2, r3
 2527 022c BB60     		str	r3, [r7, #8]
 531:.\slre.c      **** 			break;
 2528              		.loc 1 531 0
 2529 022e 95E1     		b	.L141
 2530              	.L156:
 532:.\slre.c      **** 		case PLUS:
 533:.\slre.c      **** 			if ((res = match(r, pc + 2, s, len, ofs, caps)) == 0)
 2531              		.loc 1 533 0
 2532 0230 BB68     		ldr	r3, [r7, #8]
 2533 0232 03F10203 		add	r3, r3, #2
 2534 0236 BA6A     		ldr	r2, [r7, #40]
 2535 0238 0092     		str	r2, [sp, #0]
 2536 023a FA6A     		ldr	r2, [r7, #44]
 2537 023c 0192     		str	r2, [sp, #4]
ARM GAS  C:\Users\karunmj\AppData\Local\Temp\ccfJuUhb.s 			page 56


 2538 023e F868     		ldr	r0, [r7, #12]
 2539 0240 1946     		mov	r1, r3
 2540 0242 7A68     		ldr	r2, [r7, #4]
 2541 0244 3B68     		ldr	r3, [r7, #0]
 2542 0246 FFF7DBFE 		bl	match
 2543 024a 0346     		mov	r3, r0
 2544 024c FB61     		str	r3, [r7, #28]
 2545 024e FB69     		ldr	r3, [r7, #28]
 2546 0250 002B     		cmp	r3, #0
 2547 0252 00F08081 		beq	.L180
 2548              	.L167:
 534:.\slre.c      **** 				break;
 535:.\slre.c      **** 
 536:.\slre.c      **** 			loop_greedy(r, pc, s, len, ofs);
 2549              		.loc 1 536 0
 2550 0256 BB6A     		ldr	r3, [r7, #40]
 2551 0258 0093     		str	r3, [sp, #0]
 2552 025a F868     		ldr	r0, [r7, #12]
 2553 025c B968     		ldr	r1, [r7, #8]
 2554 025e 7A68     		ldr	r2, [r7, #4]
 2555 0260 3B68     		ldr	r3, [r7, #0]
 2556 0262 FFF7FEFF 		bl	loop_greedy
 537:.\slre.c      **** 			pc += r->code[pc + 1];
 2557              		.loc 1 537 0
 2558 0266 BB68     		ldr	r3, [r7, #8]
 2559 0268 03F10103 		add	r3, r3, #1
 2560 026c FA68     		ldr	r2, [r7, #12]
 2561 026e D35C     		ldrb	r3, [r2, r3]	@ zero_extendqisi2
 2562 0270 BA68     		ldr	r2, [r7, #8]
 2563 0272 1344     		add	r3, r2, r3
 2564 0274 BB60     		str	r3, [r7, #8]
 538:.\slre.c      **** 			break;
 2565              		.loc 1 538 0
 2566 0276 71E1     		b	.L141
 2567              	.L158:
 539:.\slre.c      **** 		case PLUSQ:
 540:.\slre.c      **** 			if ((res = match(r, pc + 2, s, len, ofs, caps)) == 0)
 2568              		.loc 1 540 0
 2569 0278 BB68     		ldr	r3, [r7, #8]
 2570 027a 03F10203 		add	r3, r3, #2
 2571 027e BA6A     		ldr	r2, [r7, #40]
 2572 0280 0092     		str	r2, [sp, #0]
 2573 0282 FA6A     		ldr	r2, [r7, #44]
 2574 0284 0192     		str	r2, [sp, #4]
 2575 0286 F868     		ldr	r0, [r7, #12]
 2576 0288 1946     		mov	r1, r3
 2577 028a 7A68     		ldr	r2, [r7, #4]
 2578 028c 3B68     		ldr	r3, [r7, #0]
 2579 028e FFF7B7FE 		bl	match
 2580 0292 0346     		mov	r3, r0
 2581 0294 FB61     		str	r3, [r7, #28]
 2582 0296 FB69     		ldr	r3, [r7, #28]
 2583 0298 002B     		cmp	r3, #0
 2584 029a 00F05E81 		beq	.L181
 2585              	.L168:
 541:.\slre.c      **** 				break;
 542:.\slre.c      **** 
ARM GAS  C:\Users\karunmj\AppData\Local\Temp\ccfJuUhb.s 			page 57


 543:.\slre.c      **** 			loop_non_greedy(r, pc, s, len, ofs);
 2586              		.loc 1 543 0
 2587 029e BB6A     		ldr	r3, [r7, #40]
 2588 02a0 0093     		str	r3, [sp, #0]
 2589 02a2 F868     		ldr	r0, [r7, #12]
 2590 02a4 B968     		ldr	r1, [r7, #8]
 2591 02a6 7A68     		ldr	r2, [r7, #4]
 2592 02a8 3B68     		ldr	r3, [r7, #0]
 2593 02aa FFF7FEFF 		bl	loop_non_greedy
 544:.\slre.c      **** 			pc += r->code[pc + 1];
 2594              		.loc 1 544 0
 2595 02ae BB68     		ldr	r3, [r7, #8]
 2596 02b0 03F10103 		add	r3, r3, #1
 2597 02b4 FA68     		ldr	r2, [r7, #12]
 2598 02b6 D35C     		ldrb	r3, [r2, r3]	@ zero_extendqisi2
 2599 02b8 BA68     		ldr	r2, [r7, #8]
 2600 02ba 1344     		add	r3, r2, r3
 2601 02bc BB60     		str	r3, [r7, #8]
 545:.\slre.c      **** 			break;
 2602              		.loc 1 545 0
 2603 02be 4DE1     		b	.L141
 2604              	.L160:
 546:.\slre.c      **** 		case SPACE:
 547:.\slre.c      **** 			res = 0;
 2605              		.loc 1 547 0
 2606 02c0 4FF00003 		mov	r3, #0
 2607 02c4 FB61     		str	r3, [r7, #28]
 548:.\slre.c      **** 			if (*ofs < len && isspace(((unsigned char *)s)[*ofs])) {
 2608              		.loc 1 548 0
 2609 02c6 BB6A     		ldr	r3, [r7, #40]
 2610 02c8 1A68     		ldr	r2, [r3, #0]
 2611 02ca 3B68     		ldr	r3, [r7, #0]
 2612 02cc 9A42     		cmp	r2, r3
 2613 02ce 1BDA     		bge	.L169
 2614 02d0 40F20003 		movw	r3, #:lower16:__ctype_ptr__
 2615 02d4 C0F20003 		movt	r3, #:upper16:__ctype_ptr__
 2616 02d8 1A68     		ldr	r2, [r3, #0]
 2617 02da BB6A     		ldr	r3, [r7, #40]
 2618 02dc 1B68     		ldr	r3, [r3, #0]
 2619 02de 1946     		mov	r1, r3
 2620 02e0 7B68     		ldr	r3, [r7, #4]
 2621 02e2 0B44     		add	r3, r1, r3
 2622 02e4 1B78     		ldrb	r3, [r3, #0]	@ zero_extendqisi2
 2623 02e6 03F10103 		add	r3, r3, #1
 2624 02ea 1344     		add	r3, r2, r3
 2625 02ec 1B78     		ldrb	r3, [r3, #0]	@ zero_extendqisi2
 2626 02ee 03F00803 		and	r3, r3, #8
 2627 02f2 002B     		cmp	r3, #0
 2628 02f4 08D0     		beq	.L169
 549:.\slre.c      **** 				(*ofs)++;
 2629              		.loc 1 549 0
 2630 02f6 BB6A     		ldr	r3, [r7, #40]
 2631 02f8 1B68     		ldr	r3, [r3, #0]
 2632 02fa 03F10102 		add	r2, r3, #1
 2633 02fe BB6A     		ldr	r3, [r7, #40]
 2634 0300 1A60     		str	r2, [r3, #0]
 550:.\slre.c      **** 				res = 1;
ARM GAS  C:\Users\karunmj\AppData\Local\Temp\ccfJuUhb.s 			page 58


 2635              		.loc 1 550 0
 2636 0302 4FF00103 		mov	r3, #1
 2637 0306 FB61     		str	r3, [r7, #28]
 2638              	.L169:
 551:.\slre.c      **** 			}
 552:.\slre.c      **** 			pc++;
 2639              		.loc 1 552 0
 2640 0308 BB68     		ldr	r3, [r7, #8]
 2641 030a 03F10103 		add	r3, r3, #1
 2642 030e BB60     		str	r3, [r7, #8]
 553:.\slre.c      **** 			break;
 2643              		.loc 1 553 0
 2644 0310 24E1     		b	.L141
 2645              	.L161:
 554:.\slre.c      **** 		case NONSPACE:
 555:.\slre.c      **** 			res = 0;
 2646              		.loc 1 555 0
 2647 0312 4FF00003 		mov	r3, #0
 2648 0316 FB61     		str	r3, [r7, #28]
 556:.\slre.c      **** 			if (*ofs <len && !isspace(((unsigned char *)s)[*ofs])) {
 2649              		.loc 1 556 0
 2650 0318 BB6A     		ldr	r3, [r7, #40]
 2651 031a 1A68     		ldr	r2, [r3, #0]
 2652 031c 3B68     		ldr	r3, [r7, #0]
 2653 031e 9A42     		cmp	r2, r3
 2654 0320 1BDA     		bge	.L170
 2655 0322 40F20003 		movw	r3, #:lower16:__ctype_ptr__
 2656 0326 C0F20003 		movt	r3, #:upper16:__ctype_ptr__
 2657 032a 1A68     		ldr	r2, [r3, #0]
 2658 032c BB6A     		ldr	r3, [r7, #40]
 2659 032e 1B68     		ldr	r3, [r3, #0]
 2660 0330 1946     		mov	r1, r3
 2661 0332 7B68     		ldr	r3, [r7, #4]
 2662 0334 0B44     		add	r3, r1, r3
 2663 0336 1B78     		ldrb	r3, [r3, #0]	@ zero_extendqisi2
 2664 0338 03F10103 		add	r3, r3, #1
 2665 033c 1344     		add	r3, r2, r3
 2666 033e 1B78     		ldrb	r3, [r3, #0]	@ zero_extendqisi2
 2667 0340 03F00803 		and	r3, r3, #8
 2668 0344 002B     		cmp	r3, #0
 2669 0346 08D1     		bne	.L170
 557:.\slre.c      **** 				(*ofs)++;
 2670              		.loc 1 557 0
 2671 0348 BB6A     		ldr	r3, [r7, #40]
 2672 034a 1B68     		ldr	r3, [r3, #0]
 2673 034c 03F10102 		add	r2, r3, #1
 2674 0350 BB6A     		ldr	r3, [r7, #40]
 2675 0352 1A60     		str	r2, [r3, #0]
 558:.\slre.c      **** 				res = 1;
 2676              		.loc 1 558 0
 2677 0354 4FF00103 		mov	r3, #1
 2678 0358 FB61     		str	r3, [r7, #28]
 2679              	.L170:
 559:.\slre.c      **** 			}
 560:.\slre.c      **** 			pc++;
 2680              		.loc 1 560 0
 2681 035a BB68     		ldr	r3, [r7, #8]
ARM GAS  C:\Users\karunmj\AppData\Local\Temp\ccfJuUhb.s 			page 59


 2682 035c 03F10103 		add	r3, r3, #1
 2683 0360 BB60     		str	r3, [r7, #8]
 561:.\slre.c      **** 			break;
 2684              		.loc 1 561 0
 2685 0362 FBE0     		b	.L141
 2686              	.L162:
 562:.\slre.c      **** 		case DIGIT:
 563:.\slre.c      **** 			res = 0;
 2687              		.loc 1 563 0
 2688 0364 4FF00003 		mov	r3, #0
 2689 0368 FB61     		str	r3, [r7, #28]
 564:.\slre.c      **** 			if (*ofs < len && isdigit(((unsigned char *)s)[*ofs])) {
 2690              		.loc 1 564 0
 2691 036a BB6A     		ldr	r3, [r7, #40]
 2692 036c 1A68     		ldr	r2, [r3, #0]
 2693 036e 3B68     		ldr	r3, [r7, #0]
 2694 0370 9A42     		cmp	r2, r3
 2695 0372 1BDA     		bge	.L171
 2696 0374 40F20003 		movw	r3, #:lower16:__ctype_ptr__
 2697 0378 C0F20003 		movt	r3, #:upper16:__ctype_ptr__
 2698 037c 1A68     		ldr	r2, [r3, #0]
 2699 037e BB6A     		ldr	r3, [r7, #40]
 2700 0380 1B68     		ldr	r3, [r3, #0]
 2701 0382 1946     		mov	r1, r3
 2702 0384 7B68     		ldr	r3, [r7, #4]
 2703 0386 0B44     		add	r3, r1, r3
 2704 0388 1B78     		ldrb	r3, [r3, #0]	@ zero_extendqisi2
 2705 038a 03F10103 		add	r3, r3, #1
 2706 038e 1344     		add	r3, r2, r3
 2707 0390 1B78     		ldrb	r3, [r3, #0]	@ zero_extendqisi2
 2708 0392 03F00403 		and	r3, r3, #4
 2709 0396 002B     		cmp	r3, #0
 2710 0398 08D0     		beq	.L171
 565:.\slre.c      **** 				(*ofs)++;
 2711              		.loc 1 565 0
 2712 039a BB6A     		ldr	r3, [r7, #40]
 2713 039c 1B68     		ldr	r3, [r3, #0]
 2714 039e 03F10102 		add	r2, r3, #1
 2715 03a2 BB6A     		ldr	r3, [r7, #40]
 2716 03a4 1A60     		str	r2, [r3, #0]
 566:.\slre.c      **** 				res = 1;
 2717              		.loc 1 566 0
 2718 03a6 4FF00103 		mov	r3, #1
 2719 03aa FB61     		str	r3, [r7, #28]
 2720              	.L171:
 567:.\slre.c      **** 			}
 568:.\slre.c      **** 			pc++;
 2721              		.loc 1 568 0
 2722 03ac BB68     		ldr	r3, [r7, #8]
 2723 03ae 03F10103 		add	r3, r3, #1
 2724 03b2 BB60     		str	r3, [r7, #8]
 569:.\slre.c      **** 			break;
 2725              		.loc 1 569 0
 2726 03b4 D2E0     		b	.L141
 2727              	.L147:
 570:.\slre.c      **** 		case ANY:
 571:.\slre.c      **** 			res = 0;
ARM GAS  C:\Users\karunmj\AppData\Local\Temp\ccfJuUhb.s 			page 60


 2728              		.loc 1 571 0
 2729 03b6 4FF00003 		mov	r3, #0
 2730 03ba FB61     		str	r3, [r7, #28]
 572:.\slre.c      **** 			if (*ofs < len) {
 2731              		.loc 1 572 0
 2732 03bc BB6A     		ldr	r3, [r7, #40]
 2733 03be 1A68     		ldr	r2, [r3, #0]
 2734 03c0 3B68     		ldr	r3, [r7, #0]
 2735 03c2 9A42     		cmp	r2, r3
 2736 03c4 08DA     		bge	.L172
 573:.\slre.c      **** 				(*ofs)++;
 2737              		.loc 1 573 0
 2738 03c6 BB6A     		ldr	r3, [r7, #40]
 2739 03c8 1B68     		ldr	r3, [r3, #0]
 2740 03ca 03F10102 		add	r2, r3, #1
 2741 03ce BB6A     		ldr	r3, [r7, #40]
 2742 03d0 1A60     		str	r2, [r3, #0]
 574:.\slre.c      **** 				res = 1;
 2743              		.loc 1 574 0
 2744 03d2 4FF00103 		mov	r3, #1
 2745 03d6 FB61     		str	r3, [r7, #28]
 2746              	.L172:
 575:.\slre.c      **** 			}
 576:.\slre.c      **** 			pc++;
 2747              		.loc 1 576 0
 2748 03d8 BB68     		ldr	r3, [r7, #8]
 2749 03da 03F10103 		add	r3, r3, #1
 2750 03de BB60     		str	r3, [r7, #8]
 577:.\slre.c      **** 			break;
 2751              		.loc 1 577 0
 2752 03e0 BCE0     		b	.L141
 2753              	.L149:
 578:.\slre.c      **** 		case ANYOF:
 579:.\slre.c      **** 			res = 0;
 2754              		.loc 1 579 0
 2755 03e2 4FF00003 		mov	r3, #0
 2756 03e6 FB61     		str	r3, [r7, #28]
 580:.\slre.c      **** 			if (*ofs < len)
 2757              		.loc 1 580 0
 2758 03e8 BB6A     		ldr	r3, [r7, #40]
 2759 03ea 1A68     		ldr	r2, [r3, #0]
 2760 03ec 3B68     		ldr	r3, [r7, #0]
 2761 03ee 9A42     		cmp	r2, r3
 2762 03f0 15DA     		bge	.L173
 581:.\slre.c      **** 				res = is_any_of(r->data + r->code[pc + 1],
 2763              		.loc 1 581 0
 2764 03f2 FB68     		ldr	r3, [r7, #12]
 2765 03f4 03F58072 		add	r2, r3, #256
 2766 03f8 BB68     		ldr	r3, [r7, #8]
 2767 03fa 03F10103 		add	r3, r3, #1
 2768 03fe F968     		ldr	r1, [r7, #12]
 2769 0400 CB5C     		ldrb	r3, [r1, r3]	@ zero_extendqisi2
 2770 0402 1A44     		add	r2, r2, r3
 582:.\slre.c      **** 					r->code[pc + 2], s, ofs);
 2771              		.loc 1 582 0
 2772 0404 BB68     		ldr	r3, [r7, #8]
 2773 0406 03F10203 		add	r3, r3, #2
ARM GAS  C:\Users\karunmj\AppData\Local\Temp\ccfJuUhb.s 			page 61


 2774 040a F968     		ldr	r1, [r7, #12]
 2775 040c CB5C     		ldrb	r3, [r1, r3]	@ zero_extendqisi2
 2776              		.loc 1 581 0
 2777 040e 1046     		mov	r0, r2
 2778 0410 1946     		mov	r1, r3
 2779 0412 7A68     		ldr	r2, [r7, #4]
 2780 0414 BB6A     		ldr	r3, [r7, #40]
 2781 0416 FFF7FEFF 		bl	is_any_of
 2782 041a 0346     		mov	r3, r0
 2783 041c FB61     		str	r3, [r7, #28]
 2784              	.L173:
 583:.\slre.c      **** 			pc += 3;
 2785              		.loc 1 583 0
 2786 041e BB68     		ldr	r3, [r7, #8]
 2787 0420 03F10303 		add	r3, r3, #3
 2788 0424 BB60     		str	r3, [r7, #8]
 584:.\slre.c      **** 			break;
 2789              		.loc 1 584 0
 2790 0426 99E0     		b	.L141
 2791              	.L150:
 585:.\slre.c      **** 		case ANYBUT:
 586:.\slre.c      **** 			res = 0;
 2792              		.loc 1 586 0
 2793 0428 4FF00003 		mov	r3, #0
 2794 042c FB61     		str	r3, [r7, #28]
 587:.\slre.c      **** 			if (*ofs < len)
 2795              		.loc 1 587 0
 2796 042e BB6A     		ldr	r3, [r7, #40]
 2797 0430 1A68     		ldr	r2, [r3, #0]
 2798 0432 3B68     		ldr	r3, [r7, #0]
 2799 0434 9A42     		cmp	r2, r3
 2800 0436 15DA     		bge	.L174
 588:.\slre.c      **** 				res = is_any_but(r->data + r->code[pc + 1],
 2801              		.loc 1 588 0
 2802 0438 FB68     		ldr	r3, [r7, #12]
 2803 043a 03F58072 		add	r2, r3, #256
 2804 043e BB68     		ldr	r3, [r7, #8]
 2805 0440 03F10103 		add	r3, r3, #1
 2806 0444 F968     		ldr	r1, [r7, #12]
 2807 0446 CB5C     		ldrb	r3, [r1, r3]	@ zero_extendqisi2
 2808 0448 1A44     		add	r2, r2, r3
 589:.\slre.c      **** 					r->code[pc + 2], s, ofs);
 2809              		.loc 1 589 0
 2810 044a BB68     		ldr	r3, [r7, #8]
 2811 044c 03F10203 		add	r3, r3, #2
 2812 0450 F968     		ldr	r1, [r7, #12]
 2813 0452 CB5C     		ldrb	r3, [r1, r3]	@ zero_extendqisi2
 2814              		.loc 1 588 0
 2815 0454 1046     		mov	r0, r2
 2816 0456 1946     		mov	r1, r3
 2817 0458 7A68     		ldr	r2, [r7, #4]
 2818 045a BB6A     		ldr	r3, [r7, #40]
 2819 045c FFF7FEFF 		bl	is_any_but
 2820 0460 0346     		mov	r3, r0
 2821 0462 FB61     		str	r3, [r7, #28]
 2822              	.L174:
 590:.\slre.c      **** 			pc += 3;
ARM GAS  C:\Users\karunmj\AppData\Local\Temp\ccfJuUhb.s 			page 62


 2823              		.loc 1 590 0
 2824 0464 BB68     		ldr	r3, [r7, #8]
 2825 0466 03F10303 		add	r3, r3, #3
 2826 046a BB60     		str	r3, [r7, #8]
 591:.\slre.c      **** 			break;
 2827              		.loc 1 591 0
 2828 046c 76E0     		b	.L141
 2829              	.L153:
 592:.\slre.c      **** 		case BOL:
 593:.\slre.c      **** 			res = *ofs == 0 ? 1 : 0;
 2830              		.loc 1 593 0
 2831 046e BB6A     		ldr	r3, [r7, #40]
 2832 0470 1B68     		ldr	r3, [r3, #0]
 2833 0472 002B     		cmp	r3, #0
 2834 0474 14BF     		ite	ne
 2835 0476 0023     		movne	r3, #0
 2836 0478 0123     		moveq	r3, #1
 2837 047a FB61     		str	r3, [r7, #28]
 594:.\slre.c      **** 			pc++;
 2838              		.loc 1 594 0
 2839 047c BB68     		ldr	r3, [r7, #8]
 2840 047e 03F10103 		add	r3, r3, #1
 2841 0482 BB60     		str	r3, [r7, #8]
 595:.\slre.c      **** 			break;
 2842              		.loc 1 595 0
 2843 0484 6AE0     		b	.L141
 2844              	.L154:
 596:.\slre.c      **** 		case EOL:
 597:.\slre.c      **** 			res = *ofs == len ? 1 : 0;
 2845              		.loc 1 597 0
 2846 0486 BB6A     		ldr	r3, [r7, #40]
 2847 0488 1A68     		ldr	r2, [r3, #0]
 2848 048a 3B68     		ldr	r3, [r7, #0]
 2849 048c 9A42     		cmp	r2, r3
 2850 048e 14BF     		ite	ne
 2851 0490 0023     		movne	r3, #0
 2852 0492 0123     		moveq	r3, #1
 2853 0494 FB61     		str	r3, [r7, #28]
 598:.\slre.c      **** 			pc++;
 2854              		.loc 1 598 0
 2855 0496 BB68     		ldr	r3, [r7, #8]
 2856 0498 03F10103 		add	r3, r3, #1
 2857 049c BB60     		str	r3, [r7, #8]
 599:.\slre.c      **** 			break;
 2858              		.loc 1 599 0
 2859 049e 5DE0     		b	.L141
 2860              	.L151:
 600:.\slre.c      **** 		case OPEN:
 601:.\slre.c      **** 			if (caps != NULL)
 2861              		.loc 1 601 0
 2862 04a0 FB6A     		ldr	r3, [r7, #44]
 2863 04a2 002B     		cmp	r3, #0
 2864 04a4 0ED0     		beq	.L175
 602:.\slre.c      **** 				caps[r->code[pc + 1]].ptr = s + *ofs;
 2865              		.loc 1 602 0
 2866 04a6 BB68     		ldr	r3, [r7, #8]
 2867 04a8 03F10103 		add	r3, r3, #1
ARM GAS  C:\Users\karunmj\AppData\Local\Temp\ccfJuUhb.s 			page 63


 2868 04ac FA68     		ldr	r2, [r7, #12]
 2869 04ae D35C     		ldrb	r3, [r2, r3]	@ zero_extendqisi2
 2870 04b0 4FEAC302 		lsl	r2, r3, #3
 2871 04b4 FB6A     		ldr	r3, [r7, #44]
 2872 04b6 1344     		add	r3, r2, r3
 2873 04b8 BA6A     		ldr	r2, [r7, #40]
 2874 04ba 1268     		ldr	r2, [r2, #0]
 2875 04bc 1146     		mov	r1, r2
 2876 04be 7A68     		ldr	r2, [r7, #4]
 2877 04c0 0A44     		add	r2, r1, r2
 2878 04c2 1A60     		str	r2, [r3, #0]
 2879              	.L175:
 603:.\slre.c      **** 			pc += 2;
 2880              		.loc 1 603 0
 2881 04c4 BB68     		ldr	r3, [r7, #8]
 2882 04c6 03F10203 		add	r3, r3, #2
 2883 04ca BB60     		str	r3, [r7, #8]
 604:.\slre.c      **** 			break;
 2884              		.loc 1 604 0
 2885 04cc 46E0     		b	.L141
 2886              	.L152:
 605:.\slre.c      **** 		case CLOSE:
 606:.\slre.c      **** 			if (caps != NULL)
 2887              		.loc 1 606 0
 2888 04ce FB6A     		ldr	r3, [r7, #44]
 2889 04d0 002B     		cmp	r3, #0
 2890 04d2 1BD0     		beq	.L176
 607:.\slre.c      **** 				caps[r->code[pc + 1]].len = (s + *ofs) -
 2891              		.loc 1 607 0
 2892 04d4 BB68     		ldr	r3, [r7, #8]
 2893 04d6 03F10103 		add	r3, r3, #1
 2894 04da FA68     		ldr	r2, [r7, #12]
 2895 04dc D35C     		ldrb	r3, [r2, r3]	@ zero_extendqisi2
 2896 04de 4FEAC302 		lsl	r2, r3, #3
 2897 04e2 FB6A     		ldr	r3, [r7, #44]
 2898 04e4 1344     		add	r3, r2, r3
 2899 04e6 BA6A     		ldr	r2, [r7, #40]
 2900 04e8 1268     		ldr	r2, [r2, #0]
 2901 04ea 1146     		mov	r1, r2
 2902 04ec 7A68     		ldr	r2, [r7, #4]
 2903 04ee 0A44     		add	r2, r1, r2
 2904 04f0 1146     		mov	r1, r2
 608:.\slre.c      **** 				    caps[r->code[pc + 1]].ptr;
 2905              		.loc 1 608 0
 2906 04f2 BA68     		ldr	r2, [r7, #8]
 2907 04f4 02F10102 		add	r2, r2, #1
 2908 04f8 F868     		ldr	r0, [r7, #12]
 2909 04fa 825C     		ldrb	r2, [r0, r2]	@ zero_extendqisi2
 2910 04fc 4FEAC200 		lsl	r0, r2, #3
 2911 0500 FA6A     		ldr	r2, [r7, #44]
 2912 0502 0244     		add	r2, r0, r2
 2913              		.loc 1 607 0
 2914 0504 1268     		ldr	r2, [r2, #0]
 2915 0506 C2EB0102 		rsb	r2, r2, r1
 2916 050a 5A60     		str	r2, [r3, #4]
 2917              	.L176:
 609:.\slre.c      **** 			pc += 2;
ARM GAS  C:\Users\karunmj\AppData\Local\Temp\ccfJuUhb.s 			page 64


 2918              		.loc 1 609 0
 2919 050c BB68     		ldr	r3, [r7, #8]
 2920 050e 03F10203 		add	r3, r3, #2
 2921 0512 BB60     		str	r3, [r7, #8]
 610:.\slre.c      **** 			break;
 2922              		.loc 1 610 0
 2923 0514 22E0     		b	.L141
 2924              	.L145:
 611:.\slre.c      **** 		case END:
 612:.\slre.c      **** 			pc++;
 2925              		.loc 1 612 0
 2926 0516 BB68     		ldr	r3, [r7, #8]
 2927 0518 03F10103 		add	r3, r3, #1
 2928 051c BB60     		str	r3, [r7, #8]
 613:.\slre.c      **** 			break;
 2929              		.loc 1 613 0
 2930 051e 1DE0     		b	.L141
 2931              	.L144:
 614:.\slre.c      **** 		default:
 615:.\slre.c      **** 			printf("unknown cmd (%d) at %d\n", r->code[pc], pc);
 2932              		.loc 1 615 0
 2933 0520 BB68     		ldr	r3, [r7, #8]
 2934 0522 FA68     		ldr	r2, [r7, #12]
 2935 0524 D35C     		ldrb	r3, [r2, r3]	@ zero_extendqisi2
 2936 0526 40F20000 		movw	r0, #:lower16:.LC38
 2937 052a C0F20000 		movt	r0, #:upper16:.LC38
 2938 052e 1946     		mov	r1, r3
 2939 0530 BA68     		ldr	r2, [r7, #8]
 2940 0532 FFF7FEFF 		bl	printf
 616:.\slre.c      **** 			assert(0);
 2941              		.loc 1 616 0
 2942 0536 40F20000 		movw	r0, #:lower16:.LC28
 2943 053a C0F20000 		movt	r0, #:upper16:.LC28
 2944 053e 4FF41A71 		mov	r1, #616
 2945 0542 40F20002 		movw	r2, #:lower16:__FUNCTION__.3293
 2946 0546 C0F20002 		movt	r2, #:upper16:__FUNCTION__.3293
 2947 054a 40F20003 		movw	r3, #:lower16:.LC39
 2948 054e C0F20003 		movt	r3, #:upper16:.LC39
 2949 0552 FFF7FEFF 		bl	__assert_func
 2950              	.L180:
 2951              		.loc 1 534 0
 2952 0556 00BF     		nop
 2953 0558 00E0     		b	.L141
 2954              	.L181:
 2955              		.loc 1 541 0
 2956 055a 00BF     		nop
 2957              	.L141:
 2958              		.loc 1 489 0
 2959 055c FB69     		ldr	r3, [r7, #28]
 2960 055e 002B     		cmp	r3, #0
 2961 0560 05D0     		beq	.L177
 2962 0562 BB68     		ldr	r3, [r7, #8]
 2963 0564 FA68     		ldr	r2, [r7, #12]
 2964 0566 D35C     		ldrb	r3, [r2, r3]	@ zero_extendqisi2
 2965 0568 002B     		cmp	r3, #0
 2966 056a 7FF454AD 		bne	.L178
 2967              	.L177:
ARM GAS  C:\Users\karunmj\AppData\Local\Temp\ccfJuUhb.s 			page 65


 617:.\slre.c      **** 			break;
 618:.\slre.c      **** 		}
 619:.\slre.c      **** 	}
 620:.\slre.c      **** 
 621:.\slre.c      **** 	return (res);
 2968              		.loc 1 621 0
 2969 056e FB69     		ldr	r3, [r7, #28]
 622:.\slre.c      **** }
 2970              		.loc 1 622 0
 2971 0570 1846     		mov	r0, r3
 2972 0572 07F12007 		add	r7, r7, #32
 2973 0576 BD46     		mov	sp, r7
 2974 0578 80BD     		pop	{r7, pc}
 2975              		.cfi_endproc
 2976              	.LFE18:
 2977              		.size	match, .-match
 2978 057a 00BF     		.section	.text.slre_match,"ax",%progbits
 2979              		.align	2
 2980              		.global	slre_match
 2981              		.thumb
 2982              		.thumb_func
 2983              		.type	slre_match, %function
 2984              	slre_match:
 2985              	.LFB19:
 623:.\slre.c      **** 
 624:.\slre.c      **** int
 625:.\slre.c      **** slre_match(const struct slre *r, const char *buf, int len,
 626:.\slre.c      **** 		struct cap *caps)
 627:.\slre.c      **** {
 2986              		.loc 1 627 0
 2987              		.cfi_startproc
 2988              		@ args = 0, pretend = 0, frame = 32
 2989              		@ frame_needed = 1, uses_anonymous_args = 0
 2990 0000 80B5     		push	{r7, lr}
 2991              	.LCFI57:
 2992              		.cfi_def_cfa_offset 8
 2993 0002 8AB0     		sub	sp, sp, #40
 2994              	.LCFI58:
 2995              		.cfi_def_cfa_offset 48
 2996 0004 02AF     		add	r7, sp, #8
 2997              		.cfi_offset 14, -4
 2998              		.cfi_offset 7, -8
 2999              	.LCFI59:
 3000              		.cfi_def_cfa 7, 40
 3001 0006 F860     		str	r0, [r7, #12]
 3002 0008 B960     		str	r1, [r7, #8]
 3003 000a 7A60     		str	r2, [r7, #4]
 3004 000c 3B60     		str	r3, [r7, #0]
 628:.\slre.c      **** 	int	i, ofs = 0, res = 0;
 3005              		.loc 1 628 0
 3006 000e 4FF00003 		mov	r3, #0
 3007 0012 7B61     		str	r3, [r7, #20]
 3008 0014 4FF00003 		mov	r3, #0
 3009 0018 FB61     		str	r3, [r7, #28]
 629:.\slre.c      **** 
 630:.\slre.c      **** 	if (r->anchored) {
 3010              		.loc 1 630 0
ARM GAS  C:\Users\karunmj\AppData\Local\Temp\ccfJuUhb.s 			page 66


 3011 001a FB68     		ldr	r3, [r7, #12]
 3012 001c D3F80C32 		ldr	r3, [r3, #524]
 3013 0020 002B     		cmp	r3, #0
 3014 0022 0ED0     		beq	.L183
 631:.\slre.c      **** 		res = match(r, 0, buf, len, &ofs, caps);
 3015              		.loc 1 631 0
 3016 0024 07F11403 		add	r3, r7, #20
 3017 0028 0093     		str	r3, [sp, #0]
 3018 002a 3B68     		ldr	r3, [r7, #0]
 3019 002c 0193     		str	r3, [sp, #4]
 3020 002e F868     		ldr	r0, [r7, #12]
 3021 0030 4FF00001 		mov	r1, #0
 3022 0034 BA68     		ldr	r2, [r7, #8]
 3023 0036 7B68     		ldr	r3, [r7, #4]
 3024 0038 FFF7FEFF 		bl	match
 3025 003c 0346     		mov	r3, r0
 3026 003e FB61     		str	r3, [r7, #28]
 3027 0040 1EE0     		b	.L184
 3028              	.L183:
 632:.\slre.c      **** 	} else {
 633:.\slre.c      **** 		for (i = 0; i < len && res == 0; i++) {
 3029              		.loc 1 633 0
 3030 0042 4FF00003 		mov	r3, #0
 3031 0046 BB61     		str	r3, [r7, #24]
 3032 0048 13E0     		b	.L185
 3033              	.L186:
 634:.\slre.c      **** 			ofs = i;
 3034              		.loc 1 634 0
 3035 004a BB69     		ldr	r3, [r7, #24]
 3036 004c 7B61     		str	r3, [r7, #20]
 635:.\slre.c      **** 			res = match(r, 0, buf, len, &ofs, caps);
 3037              		.loc 1 635 0
 3038 004e 07F11403 		add	r3, r7, #20
 3039 0052 0093     		str	r3, [sp, #0]
 3040 0054 3B68     		ldr	r3, [r7, #0]
 3041 0056 0193     		str	r3, [sp, #4]
 3042 0058 F868     		ldr	r0, [r7, #12]
 3043 005a 4FF00001 		mov	r1, #0
 3044 005e BA68     		ldr	r2, [r7, #8]
 3045 0060 7B68     		ldr	r3, [r7, #4]
 3046 0062 FFF7FEFF 		bl	match
 3047 0066 0346     		mov	r3, r0
 3048 0068 FB61     		str	r3, [r7, #28]
 3049              		.loc 1 633 0
 3050 006a BB69     		ldr	r3, [r7, #24]
 3051 006c 03F10103 		add	r3, r3, #1
 3052 0070 BB61     		str	r3, [r7, #24]
 3053              	.L185:
 3054 0072 BA69     		ldr	r2, [r7, #24]
 3055 0074 7B68     		ldr	r3, [r7, #4]
 3056 0076 9A42     		cmp	r2, r3
 3057 0078 02DA     		bge	.L184
 3058 007a FB69     		ldr	r3, [r7, #28]
 3059 007c 002B     		cmp	r3, #0
 3060 007e E4D0     		beq	.L186
 3061              	.L184:
 636:.\slre.c      **** 		}
ARM GAS  C:\Users\karunmj\AppData\Local\Temp\ccfJuUhb.s 			page 67


 637:.\slre.c      **** 	}
 638:.\slre.c      **** 
 639:.\slre.c      **** 	return (res);
 3062              		.loc 1 639 0
 3063 0080 FB69     		ldr	r3, [r7, #28]
 640:.\slre.c      **** }
 3064              		.loc 1 640 0
 3065 0082 1846     		mov	r0, r3
 3066 0084 07F12007 		add	r7, r7, #32
 3067 0088 BD46     		mov	sp, r7
 3068 008a 80BD     		pop	{r7, pc}
 3069              		.cfi_endproc
 3070              	.LFE19:
 3071              		.size	slre_match, .-slre_match
 3072              		.section	.rodata
 3073 01da 0000     		.align	2
 3074              		.type	__FUNCTION__.3293, %object
 3075              		.size	__FUNCTION__.3293, 6
 3076              	__FUNCTION__.3293:
 3077 01dc 6D617463 		.ascii	"match\000"
 3077      6800
 3078 01e2 0000     		.align	2
 3079              		.type	__FUNCTION__.2917, %object
 3080              		.size	__FUNCTION__.2917, 16
 3081              	__FUNCTION__.2917:
 3082 01e4 7365745F 		.ascii	"set_jump_offset\000"
 3082      6A756D70 
 3082      5F6F6666 
 3082      73657400 
 3083              		.text
 3084              	.Letext0:
 3085              		.section	.debug_loc,"",%progbits
 3086              	.Ldebug_loc0:
 3087              	.LLST0:
 3088 0000 00000000 		.4byte	.LFB0
 3089 0004 02000000 		.4byte	.LCFI0
 3090 0008 0100     		.2byte	0x1
 3091 000a 5D       		.byte	0x5d
 3092 000b 02000000 		.4byte	.LCFI0
 3093 000f 04000000 		.4byte	.LCFI1
 3094 0013 0200     		.2byte	0x2
 3095 0015 7D       		.byte	0x7d
 3096 0016 08       		.sleb128 8
 3097 0017 04000000 		.4byte	.LCFI1
 3098 001b 06000000 		.4byte	.LCFI2
 3099 001f 0200     		.2byte	0x2
 3100 0021 7D       		.byte	0x7d
 3101 0022 20       		.sleb128 32
 3102 0023 06000000 		.4byte	.LCFI2
 3103 0027 EE000000 		.4byte	.LFE0
 3104 002b 0200     		.2byte	0x2
 3105 002d 77       		.byte	0x77
 3106 002e 20       		.sleb128 32
 3107 002f 00000000 		.4byte	0x0
 3108 0033 00000000 		.4byte	0x0
 3109              	.LLST1:
 3110 0037 00000000 		.4byte	.LFB1
ARM GAS  C:\Users\karunmj\AppData\Local\Temp\ccfJuUhb.s 			page 68


 3111 003b 02000000 		.4byte	.LCFI3
 3112 003f 0100     		.2byte	0x1
 3113 0041 5D       		.byte	0x5d
 3114 0042 02000000 		.4byte	.LCFI3
 3115 0046 04000000 		.4byte	.LCFI4
 3116 004a 0200     		.2byte	0x2
 3117 004c 7D       		.byte	0x7d
 3118 004d 08       		.sleb128 8
 3119 004e 04000000 		.4byte	.LCFI4
 3120 0052 06000000 		.4byte	.LCFI5
 3121 0056 0200     		.2byte	0x2
 3122 0058 7D       		.byte	0x7d
 3123 0059 28       		.sleb128 40
 3124 005a 06000000 		.4byte	.LCFI5
 3125 005e F4010000 		.4byte	.LFE1
 3126 0062 0200     		.2byte	0x2
 3127 0064 77       		.byte	0x77
 3128 0065 28       		.sleb128 40
 3129 0066 00000000 		.4byte	0x0
 3130 006a 00000000 		.4byte	0x0
 3131              	.LLST2:
 3132 006e 00000000 		.4byte	.LFB2
 3133 0072 02000000 		.4byte	.LCFI6
 3134 0076 0100     		.2byte	0x1
 3135 0078 5D       		.byte	0x5d
 3136 0079 02000000 		.4byte	.LCFI6
 3137 007d 04000000 		.4byte	.LCFI7
 3138 0081 0200     		.2byte	0x2
 3139 0083 7D       		.byte	0x7d
 3140 0084 08       		.sleb128 8
 3141 0085 04000000 		.4byte	.LCFI7
 3142 0089 06000000 		.4byte	.LCFI8
 3143 008d 0200     		.2byte	0x2
 3144 008f 7D       		.byte	0x7d
 3145 0090 18       		.sleb128 24
 3146 0091 06000000 		.4byte	.LCFI8
 3147 0095 78000000 		.4byte	.LFE2
 3148 0099 0200     		.2byte	0x2
 3149 009b 77       		.byte	0x77
 3150 009c 18       		.sleb128 24
 3151 009d 00000000 		.4byte	0x0
 3152 00a1 00000000 		.4byte	0x0
 3153              	.LLST3:
 3154 00a5 00000000 		.4byte	.LFB3
 3155 00a9 02000000 		.4byte	.LCFI9
 3156 00ad 0100     		.2byte	0x1
 3157 00af 5D       		.byte	0x5d
 3158 00b0 02000000 		.4byte	.LCFI9
 3159 00b4 04000000 		.4byte	.LCFI10
 3160 00b8 0200     		.2byte	0x2
 3161 00ba 7D       		.byte	0x7d
 3162 00bb 04       		.sleb128 4
 3163 00bc 04000000 		.4byte	.LCFI10
 3164 00c0 06000000 		.4byte	.LCFI11
 3165 00c4 0200     		.2byte	0x2
 3166 00c6 7D       		.byte	0x7d
 3167 00c7 10       		.sleb128 16
ARM GAS  C:\Users\karunmj\AppData\Local\Temp\ccfJuUhb.s 			page 69


 3168 00c8 06000000 		.4byte	.LCFI11
 3169 00cc 46000000 		.4byte	.LFE3
 3170 00d0 0200     		.2byte	0x2
 3171 00d2 77       		.byte	0x77
 3172 00d3 10       		.sleb128 16
 3173 00d4 00000000 		.4byte	0x0
 3174 00d8 00000000 		.4byte	0x0
 3175              	.LLST4:
 3176 00dc 00000000 		.4byte	.LFB4
 3177 00e0 02000000 		.4byte	.LCFI12
 3178 00e4 0100     		.2byte	0x1
 3179 00e6 5D       		.byte	0x5d
 3180 00e7 02000000 		.4byte	.LCFI12
 3181 00eb 04000000 		.4byte	.LCFI13
 3182 00ef 0200     		.2byte	0x2
 3183 00f1 7D       		.byte	0x7d
 3184 00f2 04       		.sleb128 4
 3185 00f3 04000000 		.4byte	.LCFI13
 3186 00f7 06000000 		.4byte	.LCFI14
 3187 00fb 0200     		.2byte	0x2
 3188 00fd 7D       		.byte	0x7d
 3189 00fe 10       		.sleb128 16
 3190 00ff 06000000 		.4byte	.LCFI14
 3191 0103 4A000000 		.4byte	.LFE4
 3192 0107 0200     		.2byte	0x2
 3193 0109 77       		.byte	0x77
 3194 010a 10       		.sleb128 16
 3195 010b 00000000 		.4byte	0x0
 3196 010f 00000000 		.4byte	0x0
 3197              	.LLST5:
 3198 0113 00000000 		.4byte	.LFB5
 3199 0117 02000000 		.4byte	.LCFI15
 3200 011b 0100     		.2byte	0x1
 3201 011d 5D       		.byte	0x5d
 3202 011e 02000000 		.4byte	.LCFI15
 3203 0122 04000000 		.4byte	.LCFI16
 3204 0126 0200     		.2byte	0x2
 3205 0128 7D       		.byte	0x7d
 3206 0129 08       		.sleb128 8
 3207 012a 04000000 		.4byte	.LCFI16
 3208 012e 06000000 		.4byte	.LCFI17
 3209 0132 0200     		.2byte	0x2
 3210 0134 7D       		.byte	0x7d
 3211 0135 18       		.sleb128 24
 3212 0136 06000000 		.4byte	.LCFI17
 3213 013a 80000000 		.4byte	.LFE5
 3214 013e 0200     		.2byte	0x2
 3215 0140 77       		.byte	0x77
 3216 0141 18       		.sleb128 24
 3217 0142 00000000 		.4byte	0x0
 3218 0146 00000000 		.4byte	0x0
 3219              	.LLST6:
 3220 014a 00000000 		.4byte	.LFB6
 3221 014e 02000000 		.4byte	.LCFI18
 3222 0152 0100     		.2byte	0x1
 3223 0154 5D       		.byte	0x5d
 3224 0155 02000000 		.4byte	.LCFI18
ARM GAS  C:\Users\karunmj\AppData\Local\Temp\ccfJuUhb.s 			page 70


 3225 0159 04000000 		.4byte	.LCFI19
 3226 015d 0200     		.2byte	0x2
 3227 015f 7D       		.byte	0x7d
 3228 0160 04       		.sleb128 4
 3229 0161 04000000 		.4byte	.LCFI19
 3230 0165 06000000 		.4byte	.LCFI20
 3231 0169 0200     		.2byte	0x2
 3232 016b 7D       		.byte	0x7d
 3233 016c 18       		.sleb128 24
 3234 016d 06000000 		.4byte	.LCFI20
 3235 0171 8E010000 		.4byte	.LFE6
 3236 0175 0200     		.2byte	0x2
 3237 0177 77       		.byte	0x77
 3238 0178 18       		.sleb128 24
 3239 0179 00000000 		.4byte	0x0
 3240 017d 00000000 		.4byte	0x0
 3241              	.LLST7:
 3242 0181 00000000 		.4byte	.LFB7
 3243 0185 02000000 		.4byte	.LCFI21
 3244 0189 0100     		.2byte	0x1
 3245 018b 5D       		.byte	0x5d
 3246 018c 02000000 		.4byte	.LCFI21
 3247 0190 04000000 		.4byte	.LCFI22
 3248 0194 0200     		.2byte	0x2
 3249 0196 7D       		.byte	0x7d
 3250 0197 08       		.sleb128 8
 3251 0198 04000000 		.4byte	.LCFI22
 3252 019c 06000000 		.4byte	.LCFI23
 3253 01a0 0200     		.2byte	0x2
 3254 01a2 7D       		.byte	0x7d
 3255 01a3 20       		.sleb128 32
 3256 01a4 06000000 		.4byte	.LCFI23
 3257 01a8 E0000000 		.4byte	.LFE7
 3258 01ac 0200     		.2byte	0x2
 3259 01ae 77       		.byte	0x77
 3260 01af 20       		.sleb128 32
 3261 01b0 00000000 		.4byte	0x0
 3262 01b4 00000000 		.4byte	0x0
 3263              	.LLST8:
 3264 01b8 00000000 		.4byte	.LFB8
 3265 01bc 02000000 		.4byte	.LCFI24
 3266 01c0 0100     		.2byte	0x1
 3267 01c2 5D       		.byte	0x5d
 3268 01c3 02000000 		.4byte	.LCFI24
 3269 01c7 04000000 		.4byte	.LCFI25
 3270 01cb 0200     		.2byte	0x2
 3271 01cd 7D       		.byte	0x7d
 3272 01ce 08       		.sleb128 8
 3273 01cf 04000000 		.4byte	.LCFI25
 3274 01d3 06000000 		.4byte	.LCFI26
 3275 01d7 0200     		.2byte	0x2
 3276 01d9 7D       		.byte	0x7d
 3277 01da 18       		.sleb128 24
 3278 01db 06000000 		.4byte	.LCFI26
 3279 01df 56000000 		.4byte	.LFE8
 3280 01e3 0200     		.2byte	0x2
 3281 01e5 77       		.byte	0x77
ARM GAS  C:\Users\karunmj\AppData\Local\Temp\ccfJuUhb.s 			page 71


 3282 01e6 18       		.sleb128 24
 3283 01e7 00000000 		.4byte	0x0
 3284 01eb 00000000 		.4byte	0x0
 3285              	.LLST9:
 3286 01ef 00000000 		.4byte	.LFB9
 3287 01f3 02000000 		.4byte	.LCFI27
 3288 01f7 0100     		.2byte	0x1
 3289 01f9 5D       		.byte	0x5d
 3290 01fa 02000000 		.4byte	.LCFI27
 3291 01fe 04000000 		.4byte	.LCFI28
 3292 0202 0200     		.2byte	0x2
 3293 0204 7D       		.byte	0x7d
 3294 0205 08       		.sleb128 8
 3295 0206 04000000 		.4byte	.LCFI28
 3296 020a 06000000 		.4byte	.LCFI29
 3297 020e 0200     		.2byte	0x2
 3298 0210 7D       		.byte	0x7d
 3299 0211 18       		.sleb128 24
 3300 0212 06000000 		.4byte	.LCFI29
 3301 0216 A6000000 		.4byte	.LFE9
 3302 021a 0200     		.2byte	0x2
 3303 021c 77       		.byte	0x77
 3304 021d 18       		.sleb128 24
 3305 021e 00000000 		.4byte	0x0
 3306 0222 00000000 		.4byte	0x0
 3307              	.LLST10:
 3308 0226 00000000 		.4byte	.LFB10
 3309 022a 02000000 		.4byte	.LCFI30
 3310 022e 0100     		.2byte	0x1
 3311 0230 5D       		.byte	0x5d
 3312 0231 02000000 		.4byte	.LCFI30
 3313 0235 04000000 		.4byte	.LCFI31
 3314 0239 0200     		.2byte	0x2
 3315 023b 7D       		.byte	0x7d
 3316 023c 08       		.sleb128 8
 3317 023d 04000000 		.4byte	.LCFI31
 3318 0241 06000000 		.4byte	.LCFI32
 3319 0245 0200     		.2byte	0x2
 3320 0247 7D       		.byte	0x7d
 3321 0248 10       		.sleb128 16
 3322 0249 06000000 		.4byte	.LCFI32
 3323 024d 3C000000 		.4byte	.LFE10
 3324 0251 0200     		.2byte	0x2
 3325 0253 77       		.byte	0x77
 3326 0254 10       		.sleb128 16
 3327 0255 00000000 		.4byte	0x0
 3328 0259 00000000 		.4byte	0x0
 3329              	.LLST11:
 3330 025d 00000000 		.4byte	.LFB11
 3331 0261 02000000 		.4byte	.LCFI33
 3332 0265 0100     		.2byte	0x1
 3333 0267 5D       		.byte	0x5d
 3334 0268 02000000 		.4byte	.LCFI33
 3335 026c 04000000 		.4byte	.LCFI34
 3336 0270 0200     		.2byte	0x2
 3337 0272 7D       		.byte	0x7d
 3338 0273 08       		.sleb128 8
ARM GAS  C:\Users\karunmj\AppData\Local\Temp\ccfJuUhb.s 			page 72


 3339 0274 04000000 		.4byte	.LCFI34
 3340 0278 06000000 		.4byte	.LCFI35
 3341 027c 0200     		.2byte	0x2
 3342 027e 7D       		.byte	0x7d
 3343 027f 10       		.sleb128 16
 3344 0280 06000000 		.4byte	.LCFI35
 3345 0284 32000000 		.4byte	.LFE11
 3346 0288 0200     		.2byte	0x2
 3347 028a 77       		.byte	0x77
 3348 028b 10       		.sleb128 16
 3349 028c 00000000 		.4byte	0x0
 3350 0290 00000000 		.4byte	0x0
 3351              	.LLST12:
 3352 0294 00000000 		.4byte	.LFB12
 3353 0298 02000000 		.4byte	.LCFI36
 3354 029c 0100     		.2byte	0x1
 3355 029e 5D       		.byte	0x5d
 3356 029f 02000000 		.4byte	.LCFI36
 3357 02a3 04000000 		.4byte	.LCFI37
 3358 02a7 0200     		.2byte	0x2
 3359 02a9 7D       		.byte	0x7d
 3360 02aa 08       		.sleb128 8
 3361 02ab 04000000 		.4byte	.LCFI37
 3362 02af 06000000 		.4byte	.LCFI38
 3363 02b3 0200     		.2byte	0x2
 3364 02b5 7D       		.byte	0x7d
 3365 02b6 30       		.sleb128 48
 3366 02b7 06000000 		.4byte	.LCFI38
 3367 02bb 68020000 		.4byte	.LFE12
 3368 02bf 0200     		.2byte	0x2
 3369 02c1 77       		.byte	0x77
 3370 02c2 30       		.sleb128 48
 3371 02c3 00000000 		.4byte	0x0
 3372 02c7 00000000 		.4byte	0x0
 3373              	.LLST13:
 3374 02cb 00000000 		.4byte	.LFB13
 3375 02cf 02000000 		.4byte	.LCFI39
 3376 02d3 0100     		.2byte	0x1
 3377 02d5 5D       		.byte	0x5d
 3378 02d6 02000000 		.4byte	.LCFI39
 3379 02da 04000000 		.4byte	.LCFI40
 3380 02de 0200     		.2byte	0x2
 3381 02e0 7D       		.byte	0x7d
 3382 02e1 08       		.sleb128 8
 3383 02e2 04000000 		.4byte	.LCFI40
 3384 02e6 06000000 		.4byte	.LCFI41
 3385 02ea 0200     		.2byte	0x2
 3386 02ec 7D       		.byte	0x7d
 3387 02ed 10       		.sleb128 16
 3388 02ee 06000000 		.4byte	.LCFI41
 3389 02f2 CA000000 		.4byte	.LFE13
 3390 02f6 0200     		.2byte	0x2
 3391 02f8 77       		.byte	0x77
 3392 02f9 10       		.sleb128 16
 3393 02fa 00000000 		.4byte	0x0
 3394 02fe 00000000 		.4byte	0x0
 3395              	.LLST14:
ARM GAS  C:\Users\karunmj\AppData\Local\Temp\ccfJuUhb.s 			page 73


 3396 0302 00000000 		.4byte	.LFB14
 3397 0306 02000000 		.4byte	.LCFI42
 3398 030a 0100     		.2byte	0x1
 3399 030c 5D       		.byte	0x5d
 3400 030d 02000000 		.4byte	.LCFI42
 3401 0311 04000000 		.4byte	.LCFI43
 3402 0315 0200     		.2byte	0x2
 3403 0317 7D       		.byte	0x7d
 3404 0318 08       		.sleb128 8
 3405 0319 04000000 		.4byte	.LCFI43
 3406 031d 06000000 		.4byte	.LCFI44
 3407 0321 0200     		.2byte	0x2
 3408 0323 7D       		.byte	0x7d
 3409 0324 28       		.sleb128 40
 3410 0325 06000000 		.4byte	.LCFI44
 3411 0329 86000000 		.4byte	.LFE14
 3412 032d 0200     		.2byte	0x2
 3413 032f 77       		.byte	0x77
 3414 0330 20       		.sleb128 32
 3415 0331 00000000 		.4byte	0x0
 3416 0335 00000000 		.4byte	0x0
 3417              	.LLST15:
 3418 0339 00000000 		.4byte	.LFB15
 3419 033d 02000000 		.4byte	.LCFI45
 3420 0341 0100     		.2byte	0x1
 3421 0343 5D       		.byte	0x5d
 3422 0344 02000000 		.4byte	.LCFI45
 3423 0348 04000000 		.4byte	.LCFI46
 3424 034c 0200     		.2byte	0x2
 3425 034e 7D       		.byte	0x7d
 3426 034f 08       		.sleb128 8
 3427 0350 04000000 		.4byte	.LCFI46
 3428 0354 06000000 		.4byte	.LCFI47
 3429 0358 0200     		.2byte	0x2
 3430 035a 7D       		.byte	0x7d
 3431 035b 28       		.sleb128 40
 3432 035c 06000000 		.4byte	.LCFI47
 3433 0360 7C000000 		.4byte	.LFE15
 3434 0364 0200     		.2byte	0x2
 3435 0366 77       		.byte	0x77
 3436 0367 20       		.sleb128 32
 3437 0368 00000000 		.4byte	0x0
 3438 036c 00000000 		.4byte	0x0
 3439              	.LLST16:
 3440 0370 00000000 		.4byte	.LFB16
 3441 0374 02000000 		.4byte	.LCFI48
 3442 0378 0100     		.2byte	0x1
 3443 037a 5D       		.byte	0x5d
 3444 037b 02000000 		.4byte	.LCFI48
 3445 037f 04000000 		.4byte	.LCFI49
 3446 0383 0200     		.2byte	0x2
 3447 0385 7D       		.byte	0x7d
 3448 0386 04       		.sleb128 4
 3449 0387 04000000 		.4byte	.LCFI49
 3450 038b 06000000 		.4byte	.LCFI50
 3451 038f 0200     		.2byte	0x2
 3452 0391 7D       		.byte	0x7d
ARM GAS  C:\Users\karunmj\AppData\Local\Temp\ccfJuUhb.s 			page 74


 3453 0392 20       		.sleb128 32
 3454 0393 06000000 		.4byte	.LCFI50
 3455 0397 66000000 		.4byte	.LFE16
 3456 039b 0200     		.2byte	0x2
 3457 039d 77       		.byte	0x77
 3458 039e 20       		.sleb128 32
 3459 039f 00000000 		.4byte	0x0
 3460 03a3 00000000 		.4byte	0x0
 3461              	.LLST17:
 3462 03a7 00000000 		.4byte	.LFB17
 3463 03ab 02000000 		.4byte	.LCFI51
 3464 03af 0100     		.2byte	0x1
 3465 03b1 5D       		.byte	0x5d
 3466 03b2 02000000 		.4byte	.LCFI51
 3467 03b6 04000000 		.4byte	.LCFI52
 3468 03ba 0200     		.2byte	0x2
 3469 03bc 7D       		.byte	0x7d
 3470 03bd 04       		.sleb128 4
 3471 03be 04000000 		.4byte	.LCFI52
 3472 03c2 06000000 		.4byte	.LCFI53
 3473 03c6 0200     		.2byte	0x2
 3474 03c8 7D       		.byte	0x7d
 3475 03c9 20       		.sleb128 32
 3476 03ca 06000000 		.4byte	.LCFI53
 3477 03ce 66000000 		.4byte	.LFE17
 3478 03d2 0200     		.2byte	0x2
 3479 03d4 77       		.byte	0x77
 3480 03d5 20       		.sleb128 32
 3481 03d6 00000000 		.4byte	0x0
 3482 03da 00000000 		.4byte	0x0
 3483              	.LLST18:
 3484 03de 00000000 		.4byte	.LFB18
 3485 03e2 02000000 		.4byte	.LCFI54
 3486 03e6 0100     		.2byte	0x1
 3487 03e8 5D       		.byte	0x5d
 3488 03e9 02000000 		.4byte	.LCFI54
 3489 03ed 04000000 		.4byte	.LCFI55
 3490 03f1 0200     		.2byte	0x2
 3491 03f3 7D       		.byte	0x7d
 3492 03f4 08       		.sleb128 8
 3493 03f5 04000000 		.4byte	.LCFI55
 3494 03f9 06000000 		.4byte	.LCFI56
 3495 03fd 0200     		.2byte	0x2
 3496 03ff 7D       		.byte	0x7d
 3497 0400 30       		.sleb128 48
 3498 0401 06000000 		.4byte	.LCFI56
 3499 0405 7A050000 		.4byte	.LFE18
 3500 0409 0200     		.2byte	0x2
 3501 040b 77       		.byte	0x77
 3502 040c 28       		.sleb128 40
 3503 040d 00000000 		.4byte	0x0
 3504 0411 00000000 		.4byte	0x0
 3505              	.LLST19:
 3506 0415 00000000 		.4byte	.LFB19
 3507 0419 02000000 		.4byte	.LCFI57
 3508 041d 0100     		.2byte	0x1
 3509 041f 5D       		.byte	0x5d
ARM GAS  C:\Users\karunmj\AppData\Local\Temp\ccfJuUhb.s 			page 75


 3510 0420 02000000 		.4byte	.LCFI57
 3511 0424 04000000 		.4byte	.LCFI58
 3512 0428 0200     		.2byte	0x2
 3513 042a 7D       		.byte	0x7d
 3514 042b 08       		.sleb128 8
 3515 042c 04000000 		.4byte	.LCFI58
 3516 0430 06000000 		.4byte	.LCFI59
 3517 0434 0200     		.2byte	0x2
 3518 0436 7D       		.byte	0x7d
 3519 0437 30       		.sleb128 48
 3520 0438 06000000 		.4byte	.LCFI59
 3521 043c 8C000000 		.4byte	.LFE19
 3522 0440 0200     		.2byte	0x2
 3523 0442 77       		.byte	0x77
 3524 0443 28       		.sleb128 40
 3525 0444 00000000 		.4byte	0x0
 3526 0448 00000000 		.4byte	0x0
 3527              		.file 2 "c:\\program files (x86)\\cypress\\psoc creator\\2.2\\psoc creator\\import\\gnu_cs\\arm\\4
 3528              		.file 3 "c:\\program files (x86)\\cypress\\psoc creator\\2.2\\psoc creator\\import\\gnu_cs\\arm\\4
 3529              		.file 4 "c:\\program files (x86)\\cypress\\psoc creator\\2.2\\psoc creator\\import\\gnu_cs\\arm\\4
 3530              		.file 5 "c:\\program files (x86)\\cypress\\psoc creator\\2.2\\psoc creator\\import\\gnu_cs\\arm\\4
 3531              		.file 6 "c:\\program files (x86)\\cypress\\psoc creator\\2.2\\psoc creator\\import\\gnu_cs\\arm\\4
 3532              		.file 7 ".\\/slre.h"
 3533              		.file 8 "c:\\program files (x86)\\cypress\\psoc creator\\2.2\\psoc creator\\import\\gnu_cs\\arm\\4
 3534              		.section	.debug_info
 3535 0000 AC110000 		.4byte	0x11ac
 3536 0004 0200     		.2byte	0x2
 3537 0006 00000000 		.4byte	.Ldebug_abbrev0
 3538 000a 04       		.byte	0x4
 3539 000b 01       		.uleb128 0x1
 3540 000c A8000000 		.4byte	.LASF174
 3541 0010 01       		.byte	0x1
 3542 0011 35000000 		.4byte	.LASF175
 3543 0015 5A040000 		.4byte	.LASF176
 3544 0019 00000000 		.4byte	0x0
 3545 001d 00000000 		.4byte	0x0
 3546 0021 00000000 		.4byte	.Ldebug_ranges0+0x0
 3547 0025 00000000 		.4byte	.Ldebug_line0
 3548 0029 02       		.uleb128 0x2
 3549 002a 04       		.byte	0x4
 3550 002b 07       		.byte	0x7
 3551 002c 74020000 		.4byte	.LASF0
 3552 0030 03       		.uleb128 0x3
 3553 0031 04       		.byte	0x4
 3554 0032 02       		.uleb128 0x2
 3555 0033 01       		.byte	0x1
 3556 0034 06       		.byte	0x6
 3557 0035 E8000000 		.4byte	.LASF1
 3558 0039 02       		.uleb128 0x2
 3559 003a 01       		.byte	0x1
 3560 003b 08       		.byte	0x8
 3561 003c A9040000 		.4byte	.LASF2
 3562 0040 02       		.uleb128 0x2
 3563 0041 02       		.byte	0x2
 3564 0042 05       		.byte	0x5
 3565 0043 BD040000 		.4byte	.LASF3
 3566 0047 02       		.uleb128 0x2
ARM GAS  C:\Users\karunmj\AppData\Local\Temp\ccfJuUhb.s 			page 76


 3567 0048 02       		.byte	0x2
 3568 0049 07       		.byte	0x7
 3569 004a 18030000 		.4byte	.LASF4
 3570 004e 04       		.uleb128 0x4
 3571 004f 04       		.byte	0x4
 3572 0050 05       		.byte	0x5
 3573 0051 696E7400 		.ascii	"int\000"
 3574 0055 02       		.uleb128 0x2
 3575 0056 08       		.byte	0x8
 3576 0057 05       		.byte	0x5
 3577 0058 DA000000 		.4byte	.LASF5
 3578 005c 02       		.uleb128 0x2
 3579 005d 08       		.byte	0x8
 3580 005e 07       		.byte	0x7
 3581 005f 88000000 		.4byte	.LASF6
 3582 0063 05       		.uleb128 0x5
 3583 0064 3B040000 		.4byte	.LASF8
 3584 0068 02       		.byte	0x2
 3585 0069 07       		.byte	0x7
 3586 006a 4E000000 		.4byte	0x4e
 3587 006e 02       		.uleb128 0x2
 3588 006f 04       		.byte	0x4
 3589 0070 05       		.byte	0x5
 3590 0071 4B010000 		.4byte	.LASF7
 3591 0075 05       		.uleb128 0x5
 3592 0076 77050000 		.4byte	.LASF9
 3593 007a 03       		.byte	0x3
 3594 007b 2C       		.byte	0x2c
 3595 007c 6E000000 		.4byte	0x6e
 3596 0080 06       		.uleb128 0x6
 3597 0081 52030000 		.4byte	.LASF10
 3598 0085 04       		.byte	0x4
 3599 0086 6001     		.2byte	0x160
 3600 0088 29000000 		.4byte	0x29
 3601 008c 07       		.uleb128 0x7
 3602 008d 04       		.byte	0x4
 3603 008e 03       		.byte	0x3
 3604 008f 47       		.byte	0x47
 3605 0090 AB000000 		.4byte	0xab
 3606 0094 08       		.uleb128 0x8
 3607 0095 4C030000 		.4byte	.LASF11
 3608 0099 03       		.byte	0x3
 3609 009a 48       		.byte	0x48
 3610 009b 80000000 		.4byte	0x80
 3611 009f 08       		.uleb128 0x8
 3612 00a0 81020000 		.4byte	.LASF12
 3613 00a4 03       		.byte	0x3
 3614 00a5 49       		.byte	0x49
 3615 00a6 AB000000 		.4byte	0xab
 3616 00aa 00       		.byte	0x0
 3617 00ab 09       		.uleb128 0x9
 3618 00ac 39000000 		.4byte	0x39
 3619 00b0 BB000000 		.4byte	0xbb
 3620 00b4 0A       		.uleb128 0xa
 3621 00b5 BB000000 		.4byte	0xbb
 3622 00b9 03       		.byte	0x3
 3623 00ba 00       		.byte	0x0
ARM GAS  C:\Users\karunmj\AppData\Local\Temp\ccfJuUhb.s 			page 77


 3624 00bb 0B       		.uleb128 0xb
 3625 00bc 04       		.byte	0x4
 3626 00bd 07       		.byte	0x7
 3627 00be 0C       		.uleb128 0xc
 3628 00bf 08       		.byte	0x8
 3629 00c0 03       		.byte	0x3
 3630 00c1 44       		.byte	0x44
 3631 00c2 E3000000 		.4byte	0xe3
 3632 00c6 0D       		.uleb128 0xd
 3633 00c7 61050000 		.4byte	.LASF13
 3634 00cb 03       		.byte	0x3
 3635 00cc 45       		.byte	0x45
 3636 00cd 4E000000 		.4byte	0x4e
 3637 00d1 02       		.byte	0x2
 3638 00d2 23       		.byte	0x23
 3639 00d3 00       		.uleb128 0x0
 3640 00d4 0D       		.uleb128 0xd
 3641 00d5 69050000 		.4byte	.LASF14
 3642 00d9 03       		.byte	0x3
 3643 00da 4A       		.byte	0x4a
 3644 00db 8C000000 		.4byte	0x8c
 3645 00df 02       		.byte	0x2
 3646 00e0 23       		.byte	0x23
 3647 00e1 04       		.uleb128 0x4
 3648 00e2 00       		.byte	0x0
 3649 00e3 05       		.uleb128 0x5
 3650 00e4 DF040000 		.4byte	.LASF15
 3651 00e8 03       		.byte	0x3
 3652 00e9 4B       		.byte	0x4b
 3653 00ea BE000000 		.4byte	0xbe
 3654 00ee 05       		.uleb128 0x5
 3655 00ef 13020000 		.4byte	.LASF16
 3656 00f3 03       		.byte	0x3
 3657 00f4 4F       		.byte	0x4f
 3658 00f5 63000000 		.4byte	0x63
 3659 00f9 05       		.uleb128 0x5
 3660 00fa D9050000 		.4byte	.LASF17
 3661 00fe 05       		.byte	0x5
 3662 00ff 15       		.byte	0x15
 3663 0100 04010000 		.4byte	0x104
 3664 0104 02       		.uleb128 0x2
 3665 0105 04       		.byte	0x4
 3666 0106 07       		.byte	0x7
 3667 0107 C3020000 		.4byte	.LASF18
 3668 010b 0E       		.uleb128 0xe
 3669 010c 24020000 		.4byte	.LASF23
 3670 0110 18       		.byte	0x18
 3671 0111 05       		.byte	0x5
 3672 0112 2D       		.byte	0x2d
 3673 0113 6A010000 		.4byte	0x16a
 3674 0117 0D       		.uleb128 0xd
 3675 0118 A5050000 		.4byte	.LASF19
 3676 011c 05       		.byte	0x5
 3677 011d 2E       		.byte	0x2e
 3678 011e 6A010000 		.4byte	0x16a
 3679 0122 02       		.byte	0x2
 3680 0123 23       		.byte	0x23
ARM GAS  C:\Users\karunmj\AppData\Local\Temp\ccfJuUhb.s 			page 78


 3681 0124 00       		.uleb128 0x0
 3682 0125 0F       		.uleb128 0xf
 3683 0126 5F6B00   		.ascii	"_k\000"
 3684 0129 05       		.byte	0x5
 3685 012a 2F       		.byte	0x2f
 3686 012b 4E000000 		.4byte	0x4e
 3687 012f 02       		.byte	0x2
 3688 0130 23       		.byte	0x23
 3689 0131 04       		.uleb128 0x4
 3690 0132 0D       		.uleb128 0xd
 3691 0133 4C050000 		.4byte	.LASF20
 3692 0137 05       		.byte	0x5
 3693 0138 2F       		.byte	0x2f
 3694 0139 4E000000 		.4byte	0x4e
 3695 013d 02       		.byte	0x2
 3696 013e 23       		.byte	0x23
 3697 013f 08       		.uleb128 0x8
 3698 0140 0D       		.uleb128 0xd
 3699 0141 F6010000 		.4byte	.LASF21
 3700 0145 05       		.byte	0x5
 3701 0146 2F       		.byte	0x2f
 3702 0147 4E000000 		.4byte	0x4e
 3703 014b 02       		.byte	0x2
 3704 014c 23       		.byte	0x23
 3705 014d 0C       		.uleb128 0xc
 3706 014e 0D       		.uleb128 0xd
 3707 014f 0A060000 		.4byte	.LASF22
 3708 0153 05       		.byte	0x5
 3709 0154 2F       		.byte	0x2f
 3710 0155 4E000000 		.4byte	0x4e
 3711 0159 02       		.byte	0x2
 3712 015a 23       		.byte	0x23
 3713 015b 10       		.uleb128 0x10
 3714 015c 0F       		.uleb128 0xf
 3715 015d 5F7800   		.ascii	"_x\000"
 3716 0160 05       		.byte	0x5
 3717 0161 30       		.byte	0x30
 3718 0162 70010000 		.4byte	0x170
 3719 0166 02       		.byte	0x2
 3720 0167 23       		.byte	0x23
 3721 0168 14       		.uleb128 0x14
 3722 0169 00       		.byte	0x0
 3723 016a 10       		.uleb128 0x10
 3724 016b 04       		.byte	0x4
 3725 016c 0B010000 		.4byte	0x10b
 3726 0170 09       		.uleb128 0x9
 3727 0171 F9000000 		.4byte	0xf9
 3728 0175 80010000 		.4byte	0x180
 3729 0179 0A       		.uleb128 0xa
 3730 017a BB000000 		.4byte	0xbb
 3731 017e 00       		.byte	0x0
 3732 017f 00       		.byte	0x0
 3733 0180 0E       		.uleb128 0xe
 3734 0181 4F020000 		.4byte	.LASF24
 3735 0185 24       		.byte	0x24
 3736 0186 05       		.byte	0x5
 3737 0187 35       		.byte	0x35
ARM GAS  C:\Users\karunmj\AppData\Local\Temp\ccfJuUhb.s 			page 79


 3738 0188 0B020000 		.4byte	0x20b
 3739 018c 0D       		.uleb128 0xd
 3740 018d D1000000 		.4byte	.LASF25
 3741 0191 05       		.byte	0x5
 3742 0192 36       		.byte	0x36
 3743 0193 4E000000 		.4byte	0x4e
 3744 0197 02       		.byte	0x2
 3745 0198 23       		.byte	0x23
 3746 0199 00       		.uleb128 0x0
 3747 019a 0D       		.uleb128 0xd
 3748 019b 91050000 		.4byte	.LASF26
 3749 019f 05       		.byte	0x5
 3750 01a0 37       		.byte	0x37
 3751 01a1 4E000000 		.4byte	0x4e
 3752 01a5 02       		.byte	0x2
 3753 01a6 23       		.byte	0x23
 3754 01a7 04       		.uleb128 0x4
 3755 01a8 0D       		.uleb128 0xd
 3756 01a9 1E010000 		.4byte	.LASF27
 3757 01ad 05       		.byte	0x5
 3758 01ae 38       		.byte	0x38
 3759 01af 4E000000 		.4byte	0x4e
 3760 01b3 02       		.byte	0x2
 3761 01b4 23       		.byte	0x23
 3762 01b5 08       		.uleb128 0x8
 3763 01b6 0D       		.uleb128 0xd
 3764 01b7 AA060000 		.4byte	.LASF28
 3765 01bb 05       		.byte	0x5
 3766 01bc 39       		.byte	0x39
 3767 01bd 4E000000 		.4byte	0x4e
 3768 01c1 02       		.byte	0x2
 3769 01c2 23       		.byte	0x23
 3770 01c3 0C       		.uleb128 0xc
 3771 01c4 0D       		.uleb128 0xd
 3772 01c5 E5030000 		.4byte	.LASF29
 3773 01c9 05       		.byte	0x5
 3774 01ca 3A       		.byte	0x3a
 3775 01cb 4E000000 		.4byte	0x4e
 3776 01cf 02       		.byte	0x2
 3777 01d0 23       		.byte	0x23
 3778 01d1 10       		.uleb128 0x10
 3779 01d2 0D       		.uleb128 0xd
 3780 01d3 96030000 		.4byte	.LASF30
 3781 01d7 05       		.byte	0x5
 3782 01d8 3B       		.byte	0x3b
 3783 01d9 4E000000 		.4byte	0x4e
 3784 01dd 02       		.byte	0x2
 3785 01de 23       		.byte	0x23
 3786 01df 14       		.uleb128 0x14
 3787 01e0 0D       		.uleb128 0xd
 3788 01e1 0F060000 		.4byte	.LASF31
 3789 01e5 05       		.byte	0x5
 3790 01e6 3C       		.byte	0x3c
 3791 01e7 4E000000 		.4byte	0x4e
 3792 01eb 02       		.byte	0x2
 3793 01ec 23       		.byte	0x23
 3794 01ed 18       		.uleb128 0x18
ARM GAS  C:\Users\karunmj\AppData\Local\Temp\ccfJuUhb.s 			page 80


 3795 01ee 0D       		.uleb128 0xd
 3796 01ef C7040000 		.4byte	.LASF32
 3797 01f3 05       		.byte	0x5
 3798 01f4 3D       		.byte	0x3d
 3799 01f5 4E000000 		.4byte	0x4e
 3800 01f9 02       		.byte	0x2
 3801 01fa 23       		.byte	0x23
 3802 01fb 1C       		.uleb128 0x1c
 3803 01fc 0D       		.uleb128 0xd
 3804 01fd 60060000 		.4byte	.LASF33
 3805 0201 05       		.byte	0x5
 3806 0202 3E       		.byte	0x3e
 3807 0203 4E000000 		.4byte	0x4e
 3808 0207 02       		.byte	0x2
 3809 0208 23       		.byte	0x23
 3810 0209 20       		.uleb128 0x20
 3811 020a 00       		.byte	0x0
 3812 020b 11       		.uleb128 0x11
 3813 020c 2D010000 		.4byte	.LASF34
 3814 0210 0801     		.2byte	0x108
 3815 0212 05       		.byte	0x5
 3816 0213 47       		.byte	0x47
 3817 0214 54020000 		.4byte	0x254
 3818 0218 0D       		.uleb128 0xd
 3819 0219 E4010000 		.4byte	.LASF35
 3820 021d 05       		.byte	0x5
 3821 021e 48       		.byte	0x48
 3822 021f 54020000 		.4byte	0x254
 3823 0223 02       		.byte	0x2
 3824 0224 23       		.byte	0x23
 3825 0225 00       		.uleb128 0x0
 3826 0226 0D       		.uleb128 0xd
 3827 0227 00000000 		.4byte	.LASF36
 3828 022b 05       		.byte	0x5
 3829 022c 49       		.byte	0x49
 3830 022d 54020000 		.4byte	0x254
 3831 0231 03       		.byte	0x3
 3832 0232 23       		.byte	0x23
 3833 0233 8001     		.uleb128 0x80
 3834 0235 0D       		.uleb128 0xd
 3835 0236 BF050000 		.4byte	.LASF37
 3836 023a 05       		.byte	0x5
 3837 023b 4B       		.byte	0x4b
 3838 023c F9000000 		.4byte	0xf9
 3839 0240 03       		.byte	0x3
 3840 0241 23       		.byte	0x23
 3841 0242 8002     		.uleb128 0x100
 3842 0244 0D       		.uleb128 0xd
 3843 0245 68010000 		.4byte	.LASF38
 3844 0249 05       		.byte	0x5
 3845 024a 4E       		.byte	0x4e
 3846 024b F9000000 		.4byte	0xf9
 3847 024f 03       		.byte	0x3
 3848 0250 23       		.byte	0x23
 3849 0251 8402     		.uleb128 0x104
 3850 0253 00       		.byte	0x0
 3851 0254 09       		.uleb128 0x9
ARM GAS  C:\Users\karunmj\AppData\Local\Temp\ccfJuUhb.s 			page 81


 3852 0255 30000000 		.4byte	0x30
 3853 0259 64020000 		.4byte	0x264
 3854 025d 0A       		.uleb128 0xa
 3855 025e BB000000 		.4byte	0xbb
 3856 0262 1F       		.byte	0x1f
 3857 0263 00       		.byte	0x0
 3858 0264 0E       		.uleb128 0xe
 3859 0265 F4030000 		.4byte	.LASF39
 3860 0269 8C       		.byte	0x8c
 3861 026a 05       		.byte	0x5
 3862 026b 52       		.byte	0x52
 3863 026c AA020000 		.4byte	0x2aa
 3864 0270 0D       		.uleb128 0xd
 3865 0271 A5050000 		.4byte	.LASF19
 3866 0275 05       		.byte	0x5
 3867 0276 53       		.byte	0x53
 3868 0277 AA020000 		.4byte	0x2aa
 3869 027b 02       		.byte	0x2
 3870 027c 23       		.byte	0x23
 3871 027d 00       		.uleb128 0x0
 3872 027e 0D       		.uleb128 0xd
 3873 027f 2D050000 		.4byte	.LASF40
 3874 0283 05       		.byte	0x5
 3875 0284 54       		.byte	0x54
 3876 0285 4E000000 		.4byte	0x4e
 3877 0289 02       		.byte	0x2
 3878 028a 23       		.byte	0x23
 3879 028b 04       		.uleb128 0x4
 3880 028c 0D       		.uleb128 0xd
 3881 028d F1010000 		.4byte	.LASF41
 3882 0291 05       		.byte	0x5
 3883 0292 55       		.byte	0x55
 3884 0293 B0020000 		.4byte	0x2b0
 3885 0297 02       		.byte	0x2
 3886 0298 23       		.byte	0x23
 3887 0299 08       		.uleb128 0x8
 3888 029a 0D       		.uleb128 0xd
 3889 029b 54020000 		.4byte	.LASF42
 3890 029f 05       		.byte	0x5
 3891 02a0 56       		.byte	0x56
 3892 02a1 C8020000 		.4byte	0x2c8
 3893 02a5 03       		.byte	0x3
 3894 02a6 23       		.byte	0x23
 3895 02a7 8801     		.uleb128 0x88
 3896 02a9 00       		.byte	0x0
 3897 02aa 10       		.uleb128 0x10
 3898 02ab 04       		.byte	0x4
 3899 02ac 64020000 		.4byte	0x264
 3900 02b0 09       		.uleb128 0x9
 3901 02b1 C2020000 		.4byte	0x2c2
 3902 02b5 C0020000 		.4byte	0x2c0
 3903 02b9 0A       		.uleb128 0xa
 3904 02ba BB000000 		.4byte	0xbb
 3905 02be 1F       		.byte	0x1f
 3906 02bf 00       		.byte	0x0
 3907 02c0 12       		.uleb128 0x12
 3908 02c1 01       		.byte	0x1
ARM GAS  C:\Users\karunmj\AppData\Local\Temp\ccfJuUhb.s 			page 82


 3909 02c2 10       		.uleb128 0x10
 3910 02c3 04       		.byte	0x4
 3911 02c4 C0020000 		.4byte	0x2c0
 3912 02c8 10       		.uleb128 0x10
 3913 02c9 04       		.byte	0x4
 3914 02ca 0B020000 		.4byte	0x20b
 3915 02ce 0E       		.uleb128 0xe
 3916 02cf D1040000 		.4byte	.LASF43
 3917 02d3 08       		.byte	0x8
 3918 02d4 05       		.byte	0x5
 3919 02d5 69       		.byte	0x69
 3920 02d6 F7020000 		.4byte	0x2f7
 3921 02da 0D       		.uleb128 0xd
 3922 02db 18010000 		.4byte	.LASF44
 3923 02df 05       		.byte	0x5
 3924 02e0 6A       		.byte	0x6a
 3925 02e1 F7020000 		.4byte	0x2f7
 3926 02e5 02       		.byte	0x2
 3927 02e6 23       		.byte	0x23
 3928 02e7 00       		.uleb128 0x0
 3929 02e8 0D       		.uleb128 0xd
 3930 02e9 17000000 		.4byte	.LASF45
 3931 02ed 05       		.byte	0x5
 3932 02ee 6B       		.byte	0x6b
 3933 02ef 4E000000 		.4byte	0x4e
 3934 02f3 02       		.byte	0x2
 3935 02f4 23       		.byte	0x23
 3936 02f5 04       		.uleb128 0x4
 3937 02f6 00       		.byte	0x0
 3938 02f7 10       		.uleb128 0x10
 3939 02f8 04       		.byte	0x4
 3940 02f9 39000000 		.4byte	0x39
 3941 02fd 0E       		.uleb128 0xe
 3942 02fe 54050000 		.4byte	.LASF46
 3943 0302 F0       		.byte	0xf0
 3944 0303 05       		.byte	0x5
 3945 0304 25       		.byte	0x25
 3946 0305 76040000 		.4byte	0x476
 3947 0309 13       		.uleb128 0x13
 3948 030a 85050000 		.4byte	.LASF47
 3949 030e 05       		.byte	0x5
 3950 030f 7F01     		.2byte	0x17f
 3951 0311 4E000000 		.4byte	0x4e
 3952 0315 02       		.byte	0x2
 3953 0316 23       		.byte	0x23
 3954 0317 00       		.uleb128 0x0
 3955 0318 13       		.uleb128 0x13
 3956 0319 70010000 		.4byte	.LASF48
 3957 031d 05       		.byte	0x5
 3958 031e 8401     		.2byte	0x184
 3959 0320 E5060000 		.4byte	0x6e5
 3960 0324 02       		.byte	0x2
 3961 0325 23       		.byte	0x23
 3962 0326 04       		.uleb128 0x4
 3963 0327 13       		.uleb128 0x13
 3964 0328 9B020000 		.4byte	.LASF49
 3965 032c 05       		.byte	0x5
ARM GAS  C:\Users\karunmj\AppData\Local\Temp\ccfJuUhb.s 			page 83


 3966 032d 8401     		.2byte	0x184
 3967 032f E5060000 		.4byte	0x6e5
 3968 0333 02       		.byte	0x2
 3969 0334 23       		.byte	0x23
 3970 0335 08       		.uleb128 0x8
 3971 0336 13       		.uleb128 0x13
 3972 0337 1C020000 		.4byte	.LASF50
 3973 033b 05       		.byte	0x5
 3974 033c 8401     		.2byte	0x184
 3975 033e E5060000 		.4byte	0x6e5
 3976 0342 02       		.byte	0x2
 3977 0343 23       		.byte	0x23
 3978 0344 0C       		.uleb128 0xc
 3979 0345 13       		.uleb128 0x13
 3980 0346 28050000 		.4byte	.LASF51
 3981 034a 05       		.byte	0x5
 3982 034b 8601     		.2byte	0x186
 3983 034d 4E000000 		.4byte	0x4e
 3984 0351 02       		.byte	0x2
 3985 0352 23       		.byte	0x23
 3986 0353 10       		.uleb128 0x10
 3987 0354 13       		.uleb128 0x13
 3988 0355 2A000000 		.4byte	.LASF52
 3989 0359 05       		.byte	0x5
 3990 035a 8801     		.2byte	0x188
 3991 035c F5050000 		.4byte	0x5f5
 3992 0360 02       		.byte	0x2
 3993 0361 23       		.byte	0x23
 3994 0362 14       		.uleb128 0x14
 3995 0363 13       		.uleb128 0x13
 3996 0364 FC030000 		.4byte	.LASF53
 3997 0368 05       		.byte	0x5
 3998 0369 8A01     		.2byte	0x18a
 3999 036b 4E000000 		.4byte	0x4e
 4000 036f 02       		.byte	0x2
 4001 0370 23       		.byte	0x23
 4002 0371 18       		.uleb128 0x18
 4003 0372 13       		.uleb128 0x13
 4004 0373 A3020000 		.4byte	.LASF54
 4005 0377 05       		.byte	0x5
 4006 0378 8C01     		.2byte	0x18c
 4007 037a 4E000000 		.4byte	0x4e
 4008 037e 02       		.byte	0x2
 4009 037f 23       		.byte	0x23
 4010 0380 1C       		.uleb128 0x1c
 4011 0381 13       		.uleb128 0x13
 4012 0382 32050000 		.4byte	.LASF55
 4013 0386 05       		.byte	0x5
 4014 0387 8D01     		.2byte	0x18d
 4015 0389 27060000 		.4byte	0x627
 4016 038d 02       		.byte	0x2
 4017 038e 23       		.byte	0x23
 4018 038f 20       		.uleb128 0x20
 4019 0390 14       		.uleb128 0x14
 4020 0391 5F6D7000 		.ascii	"_mp\000"
 4021 0395 05       		.byte	0x5
 4022 0396 8F01     		.2byte	0x18f
ARM GAS  C:\Users\karunmj\AppData\Local\Temp\ccfJuUhb.s 			page 84


 4023 0398 58080000 		.4byte	0x858
 4024 039c 02       		.byte	0x2
 4025 039d 23       		.byte	0x23
 4026 039e 24       		.uleb128 0x24
 4027 039f 13       		.uleb128 0x13
 4028 03a0 42050000 		.4byte	.LASF56
 4029 03a4 05       		.byte	0x5
 4030 03a5 9101     		.2byte	0x191
 4031 03a7 6A080000 		.4byte	0x86a
 4032 03ab 02       		.byte	0x2
 4033 03ac 23       		.byte	0x23
 4034 03ad 28       		.uleb128 0x28
 4035 03ae 13       		.uleb128 0x13
 4036 03af 07040000 		.4byte	.LASF57
 4037 03b3 05       		.byte	0x5
 4038 03b4 9301     		.2byte	0x193
 4039 03b6 4E000000 		.4byte	0x4e
 4040 03ba 02       		.byte	0x2
 4041 03bb 23       		.byte	0x23
 4042 03bc 2C       		.uleb128 0x2c
 4043 03bd 13       		.uleb128 0x13
 4044 03be B5020000 		.4byte	.LASF58
 4045 03c2 05       		.byte	0x5
 4046 03c3 9601     		.2byte	0x196
 4047 03c5 4E000000 		.4byte	0x4e
 4048 03c9 02       		.byte	0x2
 4049 03ca 23       		.byte	0x23
 4050 03cb 30       		.uleb128 0x30
 4051 03cc 13       		.uleb128 0x13
 4052 03cd 9B010000 		.4byte	.LASF59
 4053 03d1 05       		.byte	0x5
 4054 03d2 9701     		.2byte	0x197
 4055 03d4 F5050000 		.4byte	0x5f5
 4056 03d8 02       		.byte	0x2
 4057 03d9 23       		.byte	0x23
 4058 03da 34       		.uleb128 0x34
 4059 03db 13       		.uleb128 0x13
 4060 03dc D5020000 		.4byte	.LASF60
 4061 03e0 05       		.byte	0x5
 4062 03e1 9901     		.2byte	0x199
 4063 03e3 70080000 		.4byte	0x870
 4064 03e7 02       		.byte	0x2
 4065 03e8 23       		.byte	0x23
 4066 03e9 38       		.uleb128 0x38
 4067 03ea 13       		.uleb128 0x13
 4068 03eb 6B060000 		.4byte	.LASF61
 4069 03ef 05       		.byte	0x5
 4070 03f0 9A01     		.2byte	0x19a
 4071 03f2 76080000 		.4byte	0x876
 4072 03f6 02       		.byte	0x2
 4073 03f7 23       		.byte	0x23
 4074 03f8 3C       		.uleb128 0x3c
 4075 03f9 13       		.uleb128 0x13
 4076 03fa 37030000 		.4byte	.LASF62
 4077 03fe 05       		.byte	0x5
 4078 03ff 9B01     		.2byte	0x19b
 4079 0401 F5050000 		.4byte	0x5f5
ARM GAS  C:\Users\karunmj\AppData\Local\Temp\ccfJuUhb.s 			page 85


 4080 0405 02       		.byte	0x2
 4081 0406 23       		.byte	0x23
 4082 0407 40       		.uleb128 0x40
 4083 0408 13       		.uleb128 0x13
 4084 0409 3A060000 		.4byte	.LASF63
 4085 040d 05       		.byte	0x5
 4086 040e 9E01     		.2byte	0x19e
 4087 0410 88080000 		.4byte	0x888
 4088 0414 02       		.byte	0x2
 4089 0415 23       		.byte	0x23
 4090 0416 44       		.uleb128 0x44
 4091 0417 13       		.uleb128 0x13
 4092 0418 F4030000 		.4byte	.LASF39
 4093 041c 05       		.byte	0x5
 4094 041d A101     		.2byte	0x1a1
 4095 041f AA020000 		.4byte	0x2aa
 4096 0423 02       		.byte	0x2
 4097 0424 23       		.byte	0x23
 4098 0425 48       		.uleb128 0x48
 4099 0426 13       		.uleb128 0x13
 4100 0427 43000000 		.4byte	.LASF64
 4101 042b 05       		.byte	0x5
 4102 042c A201     		.2byte	0x1a2
 4103 042e 64020000 		.4byte	0x264
 4104 0432 02       		.byte	0x2
 4105 0433 23       		.byte	0x23
 4106 0434 4C       		.uleb128 0x4c
 4107 0435 13       		.uleb128 0x13
 4108 0436 43010000 		.4byte	.LASF65
 4109 043a 05       		.byte	0x5
 4110 043b A401     		.2byte	0x1a4
 4111 043d A4060000 		.4byte	0x6a4
 4112 0441 03       		.byte	0x3
 4113 0442 23       		.byte	0x23
 4114 0443 D801     		.uleb128 0xd8
 4115 0445 13       		.uleb128 0x13
 4116 0446 28010000 		.4byte	.LASF66
 4117 044a 05       		.byte	0x5
 4118 044b A501     		.2byte	0x1a5
 4119 044d E5060000 		.4byte	0x6e5
 4120 0451 03       		.byte	0x3
 4121 0452 23       		.byte	0x23
 4122 0453 E401     		.uleb128 0xe4
 4123 0455 13       		.uleb128 0x13
 4124 0456 AF030000 		.4byte	.LASF67
 4125 045a 05       		.byte	0x5
 4126 045b A601     		.2byte	0x1a6
 4127 045d 94080000 		.4byte	0x894
 4128 0461 03       		.byte	0x3
 4129 0462 23       		.byte	0x23
 4130 0463 E801     		.uleb128 0xe8
 4131 0465 13       		.uleb128 0x13
 4132 0466 2B030000 		.4byte	.LASF68
 4133 046a 05       		.byte	0x5
 4134 046b A701     		.2byte	0x1a7
 4135 046d F5050000 		.4byte	0x5f5
 4136 0471 03       		.byte	0x3
ARM GAS  C:\Users\karunmj\AppData\Local\Temp\ccfJuUhb.s 			page 86


 4137 0472 23       		.byte	0x23
 4138 0473 EC01     		.uleb128 0xec
 4139 0475 00       		.byte	0x0
 4140 0476 10       		.uleb128 0x10
 4141 0477 04       		.byte	0x4
 4142 0478 FD020000 		.4byte	0x2fd
 4143 047c 0E       		.uleb128 0xe
 4144 047d F3040000 		.4byte	.LASF69
 4145 0481 68       		.byte	0x68
 4146 0482 05       		.byte	0x5
 4147 0483 B3       		.byte	0xb3
 4148 0484 D6050000 		.4byte	0x5d6
 4149 0488 0F       		.uleb128 0xf
 4150 0489 5F7000   		.ascii	"_p\000"
 4151 048c 05       		.byte	0x5
 4152 048d B4       		.byte	0xb4
 4153 048e F7020000 		.4byte	0x2f7
 4154 0492 02       		.byte	0x2
 4155 0493 23       		.byte	0x23
 4156 0494 00       		.uleb128 0x0
 4157 0495 0F       		.uleb128 0xf
 4158 0496 5F7200   		.ascii	"_r\000"
 4159 0499 05       		.byte	0x5
 4160 049a B5       		.byte	0xb5
 4161 049b 4E000000 		.4byte	0x4e
 4162 049f 02       		.byte	0x2
 4163 04a0 23       		.byte	0x23
 4164 04a1 04       		.uleb128 0x4
 4165 04a2 0F       		.uleb128 0xf
 4166 04a3 5F7700   		.ascii	"_w\000"
 4167 04a6 05       		.byte	0x5
 4168 04a7 B6       		.byte	0xb6
 4169 04a8 4E000000 		.4byte	0x4e
 4170 04ac 02       		.byte	0x2
 4171 04ad 23       		.byte	0x23
 4172 04ae 08       		.uleb128 0x8
 4173 04af 0D       		.uleb128 0xd
 4174 04b0 61010000 		.4byte	.LASF70
 4175 04b4 05       		.byte	0x5
 4176 04b5 B7       		.byte	0xb7
 4177 04b6 40000000 		.4byte	0x40
 4178 04ba 02       		.byte	0x2
 4179 04bb 23       		.byte	0x23
 4180 04bc 0C       		.uleb128 0xc
 4181 04bd 0D       		.uleb128 0xd
 4182 04be 04060000 		.4byte	.LASF71
 4183 04c2 05       		.byte	0x5
 4184 04c3 B8       		.byte	0xb8
 4185 04c4 40000000 		.4byte	0x40
 4186 04c8 02       		.byte	0x2
 4187 04c9 23       		.byte	0x23
 4188 04ca 0E       		.uleb128 0xe
 4189 04cb 0F       		.uleb128 0xf
 4190 04cc 5F626600 		.ascii	"_bf\000"
 4191 04d0 05       		.byte	0x5
 4192 04d1 B9       		.byte	0xb9
 4193 04d2 CE020000 		.4byte	0x2ce
ARM GAS  C:\Users\karunmj\AppData\Local\Temp\ccfJuUhb.s 			page 87


 4194 04d6 02       		.byte	0x2
 4195 04d7 23       		.byte	0x23
 4196 04d8 10       		.uleb128 0x10
 4197 04d9 0D       		.uleb128 0xd
 4198 04da 9F000000 		.4byte	.LASF72
 4199 04de 05       		.byte	0x5
 4200 04df BA       		.byte	0xba
 4201 04e0 4E000000 		.4byte	0x4e
 4202 04e4 02       		.byte	0x2
 4203 04e5 23       		.byte	0x23
 4204 04e6 18       		.uleb128 0x18
 4205 04e7 0D       		.uleb128 0xd
 4206 04e8 F7020000 		.4byte	.LASF73
 4207 04ec 05       		.byte	0x5
 4208 04ed BD       		.byte	0xbd
 4209 04ee 76040000 		.4byte	0x476
 4210 04f2 02       		.byte	0x2
 4211 04f3 23       		.byte	0x23
 4212 04f4 1C       		.uleb128 0x1c
 4213 04f5 0D       		.uleb128 0xd
 4214 04f6 3B010000 		.4byte	.LASF74
 4215 04fa 05       		.byte	0x5
 4216 04fb C1       		.byte	0xc1
 4217 04fc 30000000 		.4byte	0x30
 4218 0500 02       		.byte	0x2
 4219 0501 23       		.byte	0x23
 4220 0502 20       		.uleb128 0x20
 4221 0503 0D       		.uleb128 0xd
 4222 0504 34020000 		.4byte	.LASF75
 4223 0508 05       		.byte	0x5
 4224 0509 C3       		.byte	0xc3
 4225 050a 02060000 		.4byte	0x602
 4226 050e 02       		.byte	0x2
 4227 050f 23       		.byte	0x23
 4228 0510 24       		.uleb128 0x24
 4229 0511 0D       		.uleb128 0xd
 4230 0512 8F030000 		.4byte	.LASF76
 4231 0516 05       		.byte	0x5
 4232 0517 C5       		.byte	0xc5
 4233 0518 32060000 		.4byte	0x632
 4234 051c 02       		.byte	0x2
 4235 051d 23       		.byte	0x23
 4236 051e 28       		.uleb128 0x28
 4237 051f 0D       		.uleb128 0xd
 4238 0520 71050000 		.4byte	.LASF77
 4239 0524 05       		.byte	0x5
 4240 0525 C7       		.byte	0xc7
 4241 0526 57060000 		.4byte	0x657
 4242 052a 02       		.byte	0x2
 4243 052b 23       		.byte	0x23
 4244 052c 2C       		.uleb128 0x2c
 4245 052d 0D       		.uleb128 0xd
 4246 052e 7A060000 		.4byte	.LASF78
 4247 0532 05       		.byte	0x5
 4248 0533 C8       		.byte	0xc8
 4249 0534 72060000 		.4byte	0x672
 4250 0538 02       		.byte	0x2
ARM GAS  C:\Users\karunmj\AppData\Local\Temp\ccfJuUhb.s 			page 88


 4251 0539 23       		.byte	0x23
 4252 053a 30       		.uleb128 0x30
 4253 053b 0F       		.uleb128 0xf
 4254 053c 5F756200 		.ascii	"_ub\000"
 4255 0540 05       		.byte	0x5
 4256 0541 CB       		.byte	0xcb
 4257 0542 CE020000 		.4byte	0x2ce
 4258 0546 02       		.byte	0x2
 4259 0547 23       		.byte	0x23
 4260 0548 34       		.uleb128 0x34
 4261 0549 0F       		.uleb128 0xf
 4262 054a 5F757000 		.ascii	"_up\000"
 4263 054e 05       		.byte	0x5
 4264 054f CC       		.byte	0xcc
 4265 0550 F7020000 		.4byte	0x2f7
 4266 0554 02       		.byte	0x2
 4267 0555 23       		.byte	0x23
 4268 0556 3C       		.uleb128 0x3c
 4269 0557 0F       		.uleb128 0xf
 4270 0558 5F757200 		.ascii	"_ur\000"
 4271 055c 05       		.byte	0x5
 4272 055d CD       		.byte	0xcd
 4273 055e 4E000000 		.4byte	0x4e
 4274 0562 02       		.byte	0x2
 4275 0563 23       		.byte	0x23
 4276 0564 40       		.uleb128 0x40
 4277 0565 0D       		.uleb128 0xd
 4278 0566 12010000 		.4byte	.LASF79
 4279 056a 05       		.byte	0x5
 4280 056b D0       		.byte	0xd0
 4281 056c 78060000 		.4byte	0x678
 4282 0570 02       		.byte	0x2
 4283 0571 23       		.byte	0x23
 4284 0572 44       		.uleb128 0x44
 4285 0573 0D       		.uleb128 0xd
 4286 0574 5A060000 		.4byte	.LASF80
 4287 0578 05       		.byte	0x5
 4288 0579 D1       		.byte	0xd1
 4289 057a 88060000 		.4byte	0x688
 4290 057e 02       		.byte	0x2
 4291 057f 23       		.byte	0x23
 4292 0580 47       		.uleb128 0x47
 4293 0581 0F       		.uleb128 0xf
 4294 0582 5F6C6200 		.ascii	"_lb\000"
 4295 0586 05       		.byte	0x5
 4296 0587 D4       		.byte	0xd4
 4297 0588 CE020000 		.4byte	0x2ce
 4298 058c 02       		.byte	0x2
 4299 058d 23       		.byte	0x23
 4300 058e 48       		.uleb128 0x48
 4301 058f 0D       		.uleb128 0xd
 4302 0590 81010000 		.4byte	.LASF81
 4303 0594 05       		.byte	0x5
 4304 0595 D7       		.byte	0xd7
 4305 0596 4E000000 		.4byte	0x4e
 4306 059a 02       		.byte	0x2
 4307 059b 23       		.byte	0x23
ARM GAS  C:\Users\karunmj\AppData\Local\Temp\ccfJuUhb.s 			page 89


 4308 059c 50       		.uleb128 0x50
 4309 059d 0D       		.uleb128 0xd
 4310 059e A3010000 		.4byte	.LASF82
 4311 05a2 05       		.byte	0x5
 4312 05a3 D8       		.byte	0xd8
 4313 05a4 4E000000 		.4byte	0x4e
 4314 05a8 02       		.byte	0x2
 4315 05a9 23       		.byte	0x23
 4316 05aa 54       		.uleb128 0x54
 4317 05ab 0D       		.uleb128 0xd
 4318 05ac 69030000 		.4byte	.LASF83
 4319 05b0 05       		.byte	0x5
 4320 05b1 DF       		.byte	0xdf
 4321 05b2 EE000000 		.4byte	0xee
 4322 05b6 02       		.byte	0x2
 4323 05b7 23       		.byte	0x23
 4324 05b8 58       		.uleb128 0x58
 4325 05b9 0D       		.uleb128 0xd
 4326 05ba 02050000 		.4byte	.LASF84
 4327 05be 05       		.byte	0x5
 4328 05bf E1       		.byte	0xe1
 4329 05c0 E3000000 		.4byte	0xe3
 4330 05c4 02       		.byte	0x2
 4331 05c5 23       		.byte	0x23
 4332 05c6 5C       		.uleb128 0x5c
 4333 05c7 0D       		.uleb128 0xd
 4334 05c8 6F030000 		.4byte	.LASF85
 4335 05cc 05       		.byte	0x5
 4336 05cd E2       		.byte	0xe2
 4337 05ce 4E000000 		.4byte	0x4e
 4338 05d2 02       		.byte	0x2
 4339 05d3 23       		.byte	0x23
 4340 05d4 64       		.uleb128 0x64
 4341 05d5 00       		.byte	0x0
 4342 05d6 15       		.uleb128 0x15
 4343 05d7 01       		.byte	0x1
 4344 05d8 4E000000 		.4byte	0x4e
 4345 05dc F5050000 		.4byte	0x5f5
 4346 05e0 16       		.uleb128 0x16
 4347 05e1 76040000 		.4byte	0x476
 4348 05e5 16       		.uleb128 0x16
 4349 05e6 30000000 		.4byte	0x30
 4350 05ea 16       		.uleb128 0x16
 4351 05eb F5050000 		.4byte	0x5f5
 4352 05ef 16       		.uleb128 0x16
 4353 05f0 4E000000 		.4byte	0x4e
 4354 05f4 00       		.byte	0x0
 4355 05f5 10       		.uleb128 0x10
 4356 05f6 04       		.byte	0x4
 4357 05f7 FB050000 		.4byte	0x5fb
 4358 05fb 02       		.uleb128 0x2
 4359 05fc 01       		.byte	0x1
 4360 05fd 08       		.byte	0x8
 4361 05fe 8C050000 		.4byte	.LASF86
 4362 0602 10       		.uleb128 0x10
 4363 0603 04       		.byte	0x4
 4364 0604 D6050000 		.4byte	0x5d6
ARM GAS  C:\Users\karunmj\AppData\Local\Temp\ccfJuUhb.s 			page 90


 4365 0608 15       		.uleb128 0x15
 4366 0609 01       		.byte	0x1
 4367 060a 4E000000 		.4byte	0x4e
 4368 060e 27060000 		.4byte	0x627
 4369 0612 16       		.uleb128 0x16
 4370 0613 76040000 		.4byte	0x476
 4371 0617 16       		.uleb128 0x16
 4372 0618 30000000 		.4byte	0x30
 4373 061c 16       		.uleb128 0x16
 4374 061d 27060000 		.4byte	0x627
 4375 0621 16       		.uleb128 0x16
 4376 0622 4E000000 		.4byte	0x4e
 4377 0626 00       		.byte	0x0
 4378 0627 10       		.uleb128 0x10
 4379 0628 04       		.byte	0x4
 4380 0629 2D060000 		.4byte	0x62d
 4381 062d 17       		.uleb128 0x17
 4382 062e FB050000 		.4byte	0x5fb
 4383 0632 10       		.uleb128 0x10
 4384 0633 04       		.byte	0x4
 4385 0634 08060000 		.4byte	0x608
 4386 0638 15       		.uleb128 0x15
 4387 0639 01       		.byte	0x1
 4388 063a 75000000 		.4byte	0x75
 4389 063e 57060000 		.4byte	0x657
 4390 0642 16       		.uleb128 0x16
 4391 0643 76040000 		.4byte	0x476
 4392 0647 16       		.uleb128 0x16
 4393 0648 30000000 		.4byte	0x30
 4394 064c 16       		.uleb128 0x16
 4395 064d 75000000 		.4byte	0x75
 4396 0651 16       		.uleb128 0x16
 4397 0652 4E000000 		.4byte	0x4e
 4398 0656 00       		.byte	0x0
 4399 0657 10       		.uleb128 0x10
 4400 0658 04       		.byte	0x4
 4401 0659 38060000 		.4byte	0x638
 4402 065d 15       		.uleb128 0x15
 4403 065e 01       		.byte	0x1
 4404 065f 4E000000 		.4byte	0x4e
 4405 0663 72060000 		.4byte	0x672
 4406 0667 16       		.uleb128 0x16
 4407 0668 76040000 		.4byte	0x476
 4408 066c 16       		.uleb128 0x16
 4409 066d 30000000 		.4byte	0x30
 4410 0671 00       		.byte	0x0
 4411 0672 10       		.uleb128 0x10
 4412 0673 04       		.byte	0x4
 4413 0674 5D060000 		.4byte	0x65d
 4414 0678 09       		.uleb128 0x9
 4415 0679 39000000 		.4byte	0x39
 4416 067d 88060000 		.4byte	0x688
 4417 0681 0A       		.uleb128 0xa
 4418 0682 BB000000 		.4byte	0xbb
 4419 0686 02       		.byte	0x2
 4420 0687 00       		.byte	0x0
 4421 0688 09       		.uleb128 0x9
ARM GAS  C:\Users\karunmj\AppData\Local\Temp\ccfJuUhb.s 			page 91


 4422 0689 39000000 		.4byte	0x39
 4423 068d 98060000 		.4byte	0x698
 4424 0691 0A       		.uleb128 0xa
 4425 0692 BB000000 		.4byte	0xbb
 4426 0696 00       		.byte	0x0
 4427 0697 00       		.byte	0x0
 4428 0698 06       		.uleb128 0x6
 4429 0699 D8040000 		.4byte	.LASF87
 4430 069d 05       		.byte	0x5
 4431 069e 1E01     		.2byte	0x11e
 4432 06a0 7C040000 		.4byte	0x47c
 4433 06a4 18       		.uleb128 0x18
 4434 06a5 19060000 		.4byte	.LASF88
 4435 06a9 0C       		.byte	0xc
 4436 06aa 05       		.byte	0x5
 4437 06ab 2301     		.2byte	0x123
 4438 06ad DF060000 		.4byte	0x6df
 4439 06b1 13       		.uleb128 0x13
 4440 06b2 A5050000 		.4byte	.LASF19
 4441 06b6 05       		.byte	0x5
 4442 06b7 2401     		.2byte	0x124
 4443 06b9 DF060000 		.4byte	0x6df
 4444 06bd 02       		.byte	0x2
 4445 06be 23       		.byte	0x23
 4446 06bf 00       		.uleb128 0x0
 4447 06c0 13       		.uleb128 0x13
 4448 06c1 07030000 		.4byte	.LASF89
 4449 06c5 05       		.byte	0x5
 4450 06c6 2501     		.2byte	0x125
 4451 06c8 4E000000 		.4byte	0x4e
 4452 06cc 02       		.byte	0x2
 4453 06cd 23       		.byte	0x23
 4454 06ce 04       		.uleb128 0x4
 4455 06cf 13       		.uleb128 0x13
 4456 06d0 B7040000 		.4byte	.LASF90
 4457 06d4 05       		.byte	0x5
 4458 06d5 2601     		.2byte	0x126
 4459 06d7 E5060000 		.4byte	0x6e5
 4460 06db 02       		.byte	0x2
 4461 06dc 23       		.byte	0x23
 4462 06dd 08       		.uleb128 0x8
 4463 06de 00       		.byte	0x0
 4464 06df 10       		.uleb128 0x10
 4465 06e0 04       		.byte	0x4
 4466 06e1 A4060000 		.4byte	0x6a4
 4467 06e5 10       		.uleb128 0x10
 4468 06e6 04       		.byte	0x4
 4469 06e7 98060000 		.4byte	0x698
 4470 06eb 18       		.uleb128 0x18
 4471 06ec 22000000 		.4byte	.LASF91
 4472 06f0 18       		.byte	0x18
 4473 06f1 05       		.byte	0x5
 4474 06f2 3E01     		.2byte	0x13e
 4475 06f4 35070000 		.4byte	0x735
 4476 06f8 13       		.uleb128 0x13
 4477 06f9 5B050000 		.4byte	.LASF92
 4478 06fd 05       		.byte	0x5
ARM GAS  C:\Users\karunmj\AppData\Local\Temp\ccfJuUhb.s 			page 92


 4479 06fe 3F01     		.2byte	0x13f
 4480 0700 35070000 		.4byte	0x735
 4481 0704 02       		.byte	0x2
 4482 0705 23       		.byte	0x23
 4483 0706 00       		.uleb128 0x0
 4484 0707 13       		.uleb128 0x13
 4485 0708 9F050000 		.4byte	.LASF93
 4486 070c 05       		.byte	0x5
 4487 070d 4001     		.2byte	0x140
 4488 070f 35070000 		.4byte	0x735
 4489 0713 02       		.byte	0x2
 4490 0714 23       		.byte	0x23
 4491 0715 06       		.uleb128 0x6
 4492 0716 13       		.uleb128 0x13
 4493 0717 D4050000 		.4byte	.LASF94
 4494 071b 05       		.byte	0x5
 4495 071c 4101     		.2byte	0x141
 4496 071e 47000000 		.4byte	0x47
 4497 0722 02       		.byte	0x2
 4498 0723 23       		.byte	0x23
 4499 0724 0C       		.uleb128 0xc
 4500 0725 13       		.uleb128 0x13
 4501 0726 0B050000 		.4byte	.LASF95
 4502 072a 05       		.byte	0x5
 4503 072b 4401     		.2byte	0x144
 4504 072d 5C000000 		.4byte	0x5c
 4505 0731 02       		.byte	0x2
 4506 0732 23       		.byte	0x23
 4507 0733 10       		.uleb128 0x10
 4508 0734 00       		.byte	0x0
 4509 0735 09       		.uleb128 0x9
 4510 0736 47000000 		.4byte	0x47
 4511 073a 45070000 		.4byte	0x745
 4512 073e 0A       		.uleb128 0xa
 4513 073f BB000000 		.4byte	0xbb
 4514 0743 02       		.byte	0x2
 4515 0744 00       		.byte	0x0
 4516 0745 18       		.uleb128 0x18
 4517 0746 5A010000 		.4byte	.LASF96
 4518 074a 10       		.byte	0x10
 4519 074b 05       		.byte	0x5
 4520 074c 6001     		.2byte	0x160
 4521 074e 8F070000 		.4byte	0x78f
 4522 0752 13       		.uleb128 0x13
 4523 0753 44030000 		.4byte	.LASF97
 4524 0757 05       		.byte	0x5
 4525 0758 6201     		.2byte	0x162
 4526 075a 6A010000 		.4byte	0x16a
 4527 075e 02       		.byte	0x2
 4528 075f 23       		.byte	0x23
 4529 0760 00       		.uleb128 0x0
 4530 0761 13       		.uleb128 0x13
 4531 0762 3A020000 		.4byte	.LASF98
 4532 0766 05       		.byte	0x5
 4533 0767 6301     		.2byte	0x163
 4534 0769 4E000000 		.4byte	0x4e
 4535 076d 02       		.byte	0x2
ARM GAS  C:\Users\karunmj\AppData\Local\Temp\ccfJuUhb.s 			page 93


 4536 076e 23       		.byte	0x23
 4537 076f 04       		.uleb128 0x4
 4538 0770 13       		.uleb128 0x13
 4539 0771 A5060000 		.4byte	.LASF99
 4540 0775 05       		.byte	0x5
 4541 0776 6401     		.2byte	0x164
 4542 0778 6A010000 		.4byte	0x16a
 4543 077c 02       		.byte	0x2
 4544 077d 23       		.byte	0x23
 4545 077e 08       		.uleb128 0x8
 4546 077f 13       		.uleb128 0x13
 4547 0780 1E040000 		.4byte	.LASF100
 4548 0784 05       		.byte	0x5
 4549 0785 6501     		.2byte	0x165
 4550 0787 8F070000 		.4byte	0x78f
 4551 078b 02       		.byte	0x2
 4552 078c 23       		.byte	0x23
 4553 078d 0C       		.uleb128 0xc
 4554 078e 00       		.byte	0x0
 4555 078f 10       		.uleb128 0x10
 4556 0790 04       		.byte	0x4
 4557 0791 6A010000 		.4byte	0x16a
 4558 0795 18       		.uleb128 0x18
 4559 0796 C8050000 		.4byte	.LASF101
 4560 079a 50       		.byte	0x50
 4561 079b 05       		.byte	0x5
 4562 079c 6A01     		.2byte	0x16a
 4563 079e 48080000 		.4byte	0x848
 4564 07a2 13       		.uleb128 0x13
 4565 07a3 AB050000 		.4byte	.LASF102
 4566 07a7 05       		.byte	0x5
 4567 07a8 6C01     		.2byte	0x16c
 4568 07aa F5050000 		.4byte	0x5f5
 4569 07ae 02       		.byte	0x2
 4570 07af 23       		.byte	0x23
 4571 07b0 00       		.uleb128 0x0
 4572 07b1 13       		.uleb128 0x13
 4573 07b2 1B050000 		.4byte	.LASF103
 4574 07b6 05       		.byte	0x5
 4575 07b7 6D01     		.2byte	0x16d
 4576 07b9 E3000000 		.4byte	0xe3
 4577 07bd 02       		.byte	0x2
 4578 07be 23       		.byte	0x23
 4579 07bf 04       		.uleb128 0x4
 4580 07c0 13       		.uleb128 0x13
 4581 07c1 C3000000 		.4byte	.LASF104
 4582 07c5 05       		.byte	0x5
 4583 07c6 6E01     		.2byte	0x16e
 4584 07c8 E3000000 		.4byte	0xe3
 4585 07cc 02       		.byte	0x2
 4586 07cd 23       		.byte	0x23
 4587 07ce 0C       		.uleb128 0xc
 4588 07cf 13       		.uleb128 0x13
 4589 07d0 87060000 		.4byte	.LASF105
 4590 07d4 05       		.byte	0x5
 4591 07d5 6F01     		.2byte	0x16f
 4592 07d7 E3000000 		.4byte	0xe3
ARM GAS  C:\Users\karunmj\AppData\Local\Temp\ccfJuUhb.s 			page 94


 4593 07db 02       		.byte	0x2
 4594 07dc 23       		.byte	0x23
 4595 07dd 14       		.uleb128 0x14
 4596 07de 13       		.uleb128 0x13
 4597 07df 30060000 		.4byte	.LASF106
 4598 07e3 05       		.byte	0x5
 4599 07e4 7001     		.2byte	0x170
 4600 07e6 48080000 		.4byte	0x848
 4601 07ea 02       		.byte	0x2
 4602 07eb 23       		.byte	0x23
 4603 07ec 1C       		.uleb128 0x1c
 4604 07ed 13       		.uleb128 0x13
 4605 07ee E1050000 		.4byte	.LASF107
 4606 07f2 05       		.byte	0x5
 4607 07f3 7101     		.2byte	0x171
 4608 07f5 4E000000 		.4byte	0x4e
 4609 07f9 02       		.byte	0x2
 4610 07fa 23       		.byte	0x23
 4611 07fb 24       		.uleb128 0x24
 4612 07fc 13       		.uleb128 0x13
 4613 07fd D6010000 		.4byte	.LASF108
 4614 0801 05       		.byte	0x5
 4615 0802 7201     		.2byte	0x172
 4616 0804 E3000000 		.4byte	0xe3
 4617 0808 02       		.byte	0x2
 4618 0809 23       		.byte	0x23
 4619 080a 28       		.uleb128 0x28
 4620 080b 13       		.uleb128 0x13
 4621 080c B4000000 		.4byte	.LASF109
 4622 0810 05       		.byte	0x5
 4623 0811 7301     		.2byte	0x173
 4624 0813 E3000000 		.4byte	0xe3
 4625 0817 02       		.byte	0x2
 4626 0818 23       		.byte	0x23
 4627 0819 30       		.uleb128 0x30
 4628 081a 13       		.uleb128 0x13
 4629 081b BA010000 		.4byte	.LASF110
 4630 081f 05       		.byte	0x5
 4631 0820 7401     		.2byte	0x174
 4632 0822 E3000000 		.4byte	0xe3
 4633 0826 02       		.byte	0x2
 4634 0827 23       		.byte	0x23
 4635 0828 38       		.uleb128 0x38
 4636 0829 13       		.uleb128 0x13
 4637 082a 68000000 		.4byte	.LASF111
 4638 082e 05       		.byte	0x5
 4639 082f 7501     		.2byte	0x175
 4640 0831 E3000000 		.4byte	0xe3
 4641 0835 02       		.byte	0x2
 4642 0836 23       		.byte	0x23
 4643 0837 40       		.uleb128 0x40
 4644 0838 13       		.uleb128 0x13
 4645 0839 77000000 		.4byte	.LASF112
 4646 083d 05       		.byte	0x5
 4647 083e 7601     		.2byte	0x176
 4648 0840 E3000000 		.4byte	0xe3
 4649 0844 02       		.byte	0x2
ARM GAS  C:\Users\karunmj\AppData\Local\Temp\ccfJuUhb.s 			page 95


 4650 0845 23       		.byte	0x23
 4651 0846 48       		.uleb128 0x48
 4652 0847 00       		.byte	0x0
 4653 0848 09       		.uleb128 0x9
 4654 0849 FB050000 		.4byte	0x5fb
 4655 084d 58080000 		.4byte	0x858
 4656 0851 0A       		.uleb128 0xa
 4657 0852 BB000000 		.4byte	0xbb
 4658 0856 07       		.byte	0x7
 4659 0857 00       		.byte	0x0
 4660 0858 10       		.uleb128 0x10
 4661 0859 04       		.byte	0x4
 4662 085a 45070000 		.4byte	0x745
 4663 085e 19       		.uleb128 0x19
 4664 085f 01       		.byte	0x1
 4665 0860 6A080000 		.4byte	0x86a
 4666 0864 16       		.uleb128 0x16
 4667 0865 76040000 		.4byte	0x476
 4668 0869 00       		.byte	0x0
 4669 086a 10       		.uleb128 0x10
 4670 086b 04       		.byte	0x4
 4671 086c 5E080000 		.4byte	0x85e
 4672 0870 10       		.uleb128 0x10
 4673 0871 04       		.byte	0x4
 4674 0872 EB060000 		.4byte	0x6eb
 4675 0876 10       		.uleb128 0x10
 4676 0877 04       		.byte	0x4
 4677 0878 80010000 		.4byte	0x180
 4678 087c 19       		.uleb128 0x19
 4679 087d 01       		.byte	0x1
 4680 087e 88080000 		.4byte	0x888
 4681 0882 16       		.uleb128 0x16
 4682 0883 4E000000 		.4byte	0x4e
 4683 0887 00       		.byte	0x0
 4684 0888 10       		.uleb128 0x10
 4685 0889 04       		.byte	0x4
 4686 088a 8E080000 		.4byte	0x88e
 4687 088e 10       		.uleb128 0x10
 4688 088f 04       		.byte	0x4
 4689 0890 7C080000 		.4byte	0x87c
 4690 0894 10       		.uleb128 0x10
 4691 0895 04       		.byte	0x4
 4692 0896 95070000 		.4byte	0x795
 4693 089a 05       		.uleb128 0x5
 4694 089b 77030000 		.4byte	.LASF113
 4695 089f 06       		.byte	0x6
 4696 08a0 32       		.byte	0x32
 4697 08a1 98060000 		.4byte	0x698
 4698 08a5 11       		.uleb128 0x11
 4699 08a6 9A050000 		.4byte	.LASF114
 4700 08aa 1402     		.2byte	0x214
 4701 08ac 07       		.byte	0x7
 4702 08ad 44       		.byte	0x44
 4703 08ae 1B090000 		.4byte	0x91b
 4704 08b2 0D       		.uleb128 0xd
 4705 08b3 F3050000 		.4byte	.LASF115
 4706 08b7 07       		.byte	0x7
ARM GAS  C:\Users\karunmj\AppData\Local\Temp\ccfJuUhb.s 			page 96


 4707 08b8 45       		.byte	0x45
 4708 08b9 1B090000 		.4byte	0x91b
 4709 08bd 02       		.byte	0x2
 4710 08be 23       		.byte	0x23
 4711 08bf 00       		.uleb128 0x0
 4712 08c0 0D       		.uleb128 0xd
 4713 08c1 13030000 		.4byte	.LASF116
 4714 08c5 07       		.byte	0x7
 4715 08c6 46       		.byte	0x46
 4716 08c7 1B090000 		.4byte	0x91b
 4717 08cb 03       		.byte	0x3
 4718 08cc 23       		.byte	0x23
 4719 08cd 8002     		.uleb128 0x100
 4720 08cf 0D       		.uleb128 0xd
 4721 08d0 4A060000 		.4byte	.LASF117
 4722 08d4 07       		.byte	0x7
 4723 08d5 47       		.byte	0x47
 4724 08d6 4E000000 		.4byte	0x4e
 4725 08da 03       		.byte	0x3
 4726 08db 23       		.byte	0x23
 4727 08dc 8004     		.uleb128 0x200
 4728 08de 0D       		.uleb128 0xd
 4729 08df 1F060000 		.4byte	.LASF118
 4730 08e3 07       		.byte	0x7
 4731 08e4 48       		.byte	0x48
 4732 08e5 4E000000 		.4byte	0x4e
 4733 08e9 03       		.byte	0x3
 4734 08ea 23       		.byte	0x23
 4735 08eb 8404     		.uleb128 0x204
 4736 08ed 0D       		.uleb128 0xd
 4737 08ee DA020000 		.4byte	.LASF119
 4738 08f2 07       		.byte	0x7
 4739 08f3 49       		.byte	0x49
 4740 08f4 4E000000 		.4byte	0x4e
 4741 08f8 03       		.byte	0x3
 4742 08f9 23       		.byte	0x23
 4743 08fa 8804     		.uleb128 0x208
 4744 08fc 0D       		.uleb128 0xd
 4745 08fd AB010000 		.4byte	.LASF120
 4746 0901 07       		.byte	0x7
 4747 0902 4A       		.byte	0x4a
 4748 0903 4E000000 		.4byte	0x4e
 4749 0907 03       		.byte	0x3
 4750 0908 23       		.byte	0x23
 4751 0909 8C04     		.uleb128 0x20c
 4752 090b 0D       		.uleb128 0xd
 4753 090c FC010000 		.4byte	.LASF121
 4754 0910 07       		.byte	0x7
 4755 0911 4B       		.byte	0x4b
 4756 0912 27060000 		.4byte	0x627
 4757 0916 03       		.byte	0x3
 4758 0917 23       		.byte	0x23
 4759 0918 9004     		.uleb128 0x210
 4760 091a 00       		.byte	0x0
 4761 091b 09       		.uleb128 0x9
 4762 091c 39000000 		.4byte	0x39
 4763 0920 2B090000 		.4byte	0x92b
ARM GAS  C:\Users\karunmj\AppData\Local\Temp\ccfJuUhb.s 			page 97


 4764 0924 0A       		.uleb128 0xa
 4765 0925 BB000000 		.4byte	0xbb
 4766 0929 FF       		.byte	0xff
 4767 092a 00       		.byte	0x0
 4768 092b 1A       		.uleb128 0x1a
 4769 092c 63617000 		.ascii	"cap\000"
 4770 0930 08       		.byte	0x8
 4771 0931 07       		.byte	0x7
 4772 0932 51       		.byte	0x51
 4773 0933 54090000 		.4byte	0x954
 4774 0937 0F       		.uleb128 0xf
 4775 0938 70747200 		.ascii	"ptr\000"
 4776 093c 07       		.byte	0x7
 4777 093d 52       		.byte	0x52
 4778 093e 27060000 		.4byte	0x627
 4779 0942 02       		.byte	0x2
 4780 0943 23       		.byte	0x23
 4781 0944 00       		.uleb128 0x0
 4782 0945 0F       		.uleb128 0xf
 4783 0946 6C656E00 		.ascii	"len\000"
 4784 094a 07       		.byte	0x7
 4785 094b 53       		.byte	0x53
 4786 094c 4E000000 		.4byte	0x4e
 4787 0950 02       		.byte	0x2
 4788 0951 23       		.byte	0x23
 4789 0952 04       		.uleb128 0x4
 4790 0953 00       		.byte	0x0
 4791 0954 1B       		.uleb128 0x1b
 4792 0955 01       		.byte	0x1
 4793 0956 01       		.byte	0x1
 4794 0957 22       		.byte	0x22
 4795 0958 C9090000 		.4byte	0x9c9
 4796 095c 1C       		.uleb128 0x1c
 4797 095d 454E4400 		.ascii	"END\000"
 4798 0961 00       		.sleb128 0
 4799 0962 1D       		.uleb128 0x1d
 4800 0963 29060000 		.4byte	.LASF122
 4801 0967 01       		.sleb128 1
 4802 0968 1C       		.uleb128 0x1c
 4803 0969 414E5900 		.ascii	"ANY\000"
 4804 096d 02       		.sleb128 2
 4805 096e 1D       		.uleb128 0x1d
 4806 096f BD020000 		.4byte	.LASF123
 4807 0973 03       		.sleb128 3
 4808 0974 1D       		.uleb128 0x1d
 4809 0975 01010000 		.4byte	.LASF124
 4810 0979 04       		.sleb128 4
 4811 097a 1D       		.uleb128 0x1d
 4812 097b F0020000 		.4byte	.LASF125
 4813 097f 05       		.sleb128 5
 4814 0980 1D       		.uleb128 0x1d
 4815 0981 C3030000 		.4byte	.LASF126
 4816 0985 06       		.sleb128 6
 4817 0986 1D       		.uleb128 0x1d
 4818 0987 81060000 		.4byte	.LASF127
 4819 098b 07       		.sleb128 7
 4820 098c 1C       		.uleb128 0x1c
ARM GAS  C:\Users\karunmj\AppData\Local\Temp\ccfJuUhb.s 			page 98


 4821 098d 424F4C00 		.ascii	"BOL\000"
 4822 0991 08       		.sleb128 8
 4823 0992 1C       		.uleb128 0x1c
 4824 0993 454F4C00 		.ascii	"EOL\000"
 4825 0997 09       		.sleb128 9
 4826 0998 1D       		.uleb128 0x1d
 4827 0999 EE050000 		.4byte	.LASF128
 4828 099d 0A       		.sleb128 10
 4829 099e 1D       		.uleb128 0x1d
 4830 099f EC010000 		.4byte	.LASF129
 4831 09a3 0B       		.sleb128 11
 4832 09a4 1D       		.uleb128 0x1d
 4833 09a5 EE030000 		.4byte	.LASF130
 4834 09a9 0C       		.sleb128 12
 4835 09aa 1D       		.uleb128 0x1d
 4836 09ab 5C000000 		.4byte	.LASF131
 4837 09af 0D       		.sleb128 13
 4838 09b0 1D       		.uleb128 0x1d
 4839 09b1 28040000 		.4byte	.LASF132
 4840 09b5 0E       		.sleb128 14
 4841 09b6 1D       		.uleb128 0x1d
 4842 09b7 0C000000 		.4byte	.LASF133
 4843 09bb 0F       		.sleb128 15
 4844 09bc 1D       		.uleb128 0x1d
 4845 09bd EA040000 		.4byte	.LASF134
 4846 09c1 10       		.sleb128 16
 4847 09c2 1D       		.uleb128 0x1d
 4848 09c3 62000000 		.4byte	.LASF135
 4849 09c7 11       		.sleb128 17
 4850 09c8 00       		.byte	0x0
 4851 09c9 0C       		.uleb128 0xc
 4852 09ca 0C       		.byte	0xc
 4853 09cb 01       		.byte	0x1
 4854 09cc 25       		.byte	0x25
 4855 09cd FC090000 		.4byte	0x9fc
 4856 09d1 0D       		.uleb128 0xd
 4857 09d2 0E030000 		.4byte	.LASF136
 4858 09d6 01       		.byte	0x1
 4859 09d7 26       		.byte	0x26
 4860 09d8 27060000 		.4byte	0x627
 4861 09dc 02       		.byte	0x2
 4862 09dd 23       		.byte	0x23
 4863 09de 00       		.uleb128 0x0
 4864 09df 0D       		.uleb128 0xd
 4865 09e0 1D000000 		.4byte	.LASF137
 4866 09e4 01       		.byte	0x1
 4867 09e5 27       		.byte	0x27
 4868 09e6 4E000000 		.4byte	0x4e
 4869 09ea 02       		.byte	0x2
 4870 09eb 23       		.byte	0x23
 4871 09ec 04       		.uleb128 0x4
 4872 09ed 0D       		.uleb128 0xd
 4873 09ee 44060000 		.4byte	.LASF138
 4874 09f2 01       		.byte	0x1
 4875 09f3 28       		.byte	0x28
 4876 09f4 27060000 		.4byte	0x627
 4877 09f8 02       		.byte	0x2
ARM GAS  C:\Users\karunmj\AppData\Local\Temp\ccfJuUhb.s 			page 99


 4878 09f9 23       		.byte	0x23
 4879 09fa 08       		.uleb128 0x8
 4880 09fb 00       		.byte	0x0
 4881 09fc 1E       		.uleb128 0x1e
 4882 09fd C8030000 		.4byte	.LASF139
 4883 0a01 01       		.byte	0x1
 4884 0a02 60       		.byte	0x60
 4885 0a03 01       		.byte	0x1
 4886 0a04 00000000 		.4byte	.LFB0
 4887 0a08 EE000000 		.4byte	.LFE0
 4888 0a0c 00000000 		.4byte	.LLST0
 4889 0a10 480A0000 		.4byte	0xa48
 4890 0a14 1F       		.uleb128 0x1f
 4891 0a15 667000   		.ascii	"fp\000"
 4892 0a18 01       		.byte	0x1
 4893 0a19 60       		.byte	0x60
 4894 0a1a 480A0000 		.4byte	0xa48
 4895 0a1e 02       		.byte	0x2
 4896 0a1f 91       		.byte	0x91
 4897 0a20 6C       		.sleb128 -20
 4898 0a21 1F       		.uleb128 0x1f
 4899 0a22 7000     		.ascii	"p\000"
 4900 0a24 01       		.byte	0x1
 4901 0a25 60       		.byte	0x60
 4902 0a26 4E0A0000 		.4byte	0xa4e
 4903 0a2a 02       		.byte	0x2
 4904 0a2b 91       		.byte	0x91
 4905 0a2c 68       		.sleb128 -24
 4906 0a2d 1F       		.uleb128 0x1f
 4907 0a2e 6C656E00 		.ascii	"len\000"
 4908 0a32 01       		.byte	0x1
 4909 0a33 60       		.byte	0x60
 4910 0a34 4E000000 		.4byte	0x4e
 4911 0a38 02       		.byte	0x2
 4912 0a39 91       		.byte	0x91
 4913 0a3a 64       		.sleb128 -28
 4914 0a3b 20       		.uleb128 0x20
 4915 0a3c 6900     		.ascii	"i\000"
 4916 0a3e 01       		.byte	0x1
 4917 0a3f 62       		.byte	0x62
 4918 0a40 4E000000 		.4byte	0x4e
 4919 0a44 02       		.byte	0x2
 4920 0a45 91       		.byte	0x91
 4921 0a46 74       		.sleb128 -12
 4922 0a47 00       		.byte	0x0
 4923 0a48 10       		.uleb128 0x10
 4924 0a49 04       		.byte	0x4
 4925 0a4a 9A080000 		.4byte	0x89a
 4926 0a4e 10       		.uleb128 0x10
 4927 0a4f 04       		.byte	0x4
 4928 0a50 540A0000 		.4byte	0xa54
 4929 0a54 17       		.uleb128 0x17
 4930 0a55 39000000 		.4byte	0x39
 4931 0a59 21       		.uleb128 0x21
 4932 0a5a 01       		.byte	0x1
 4933 0a5b 77010000 		.4byte	.LASF177
 4934 0a5f 01       		.byte	0x1
ARM GAS  C:\Users\karunmj\AppData\Local\Temp\ccfJuUhb.s 			page 100


 4935 0a60 76       		.byte	0x76
 4936 0a61 01       		.byte	0x1
 4937 0a62 00000000 		.4byte	.LFB1
 4938 0a66 F4010000 		.4byte	.LFE1
 4939 0a6a 37000000 		.4byte	.LLST1
 4940 0a6e CB0A0000 		.4byte	0xacb
 4941 0a72 1F       		.uleb128 0x1f
 4942 0a73 7200     		.ascii	"r\000"
 4943 0a75 01       		.byte	0x1
 4944 0a76 76       		.byte	0x76
 4945 0a77 CB0A0000 		.4byte	0xacb
 4946 0a7b 02       		.byte	0x2
 4947 0a7c 91       		.byte	0x91
 4948 0a7d 5C       		.sleb128 -36
 4949 0a7e 1F       		.uleb128 0x1f
 4950 0a7f 667000   		.ascii	"fp\000"
 4951 0a82 01       		.byte	0x1
 4952 0a83 76       		.byte	0x76
 4953 0a84 480A0000 		.4byte	0xa48
 4954 0a88 02       		.byte	0x2
 4955 0a89 91       		.byte	0x91
 4956 0a8a 58       		.sleb128 -40
 4957 0a8b 20       		.uleb128 0x20
 4958 0a8c 6900     		.ascii	"i\000"
 4959 0a8e 01       		.byte	0x1
 4960 0a8f 78       		.byte	0x78
 4961 0a90 4E000000 		.4byte	0x4e
 4962 0a94 02       		.byte	0x2
 4963 0a95 91       		.byte	0x91
 4964 0a96 64       		.sleb128 -28
 4965 0a97 20       		.uleb128 0x20
 4966 0a98 6A00     		.ascii	"j\000"
 4967 0a9a 01       		.byte	0x1
 4968 0a9b 78       		.byte	0x78
 4969 0a9c 4E000000 		.4byte	0x4e
 4970 0aa0 02       		.byte	0x2
 4971 0aa1 91       		.byte	0x91
 4972 0aa2 68       		.sleb128 -24
 4973 0aa3 20       		.uleb128 0x20
 4974 0aa4 636800   		.ascii	"ch\000"
 4975 0aa7 01       		.byte	0x1
 4976 0aa8 78       		.byte	0x78
 4977 0aa9 4E000000 		.4byte	0x4e
 4978 0aad 02       		.byte	0x2
 4979 0aae 91       		.byte	0x91
 4980 0aaf 6C       		.sleb128 -20
 4981 0ab0 20       		.uleb128 0x20
 4982 0ab1 6F7000   		.ascii	"op\000"
 4983 0ab4 01       		.byte	0x1
 4984 0ab5 78       		.byte	0x78
 4985 0ab6 4E000000 		.4byte	0x4e
 4986 0aba 02       		.byte	0x2
 4987 0abb 91       		.byte	0x91
 4988 0abc 70       		.sleb128 -16
 4989 0abd 20       		.uleb128 0x20
 4990 0abe 706300   		.ascii	"pc\000"
 4991 0ac1 01       		.byte	0x1
ARM GAS  C:\Users\karunmj\AppData\Local\Temp\ccfJuUhb.s 			page 101


 4992 0ac2 78       		.byte	0x78
 4993 0ac3 4E000000 		.4byte	0x4e
 4994 0ac7 02       		.byte	0x2
 4995 0ac8 91       		.byte	0x91
 4996 0ac9 74       		.sleb128 -12
 4997 0aca 00       		.byte	0x0
 4998 0acb 10       		.uleb128 0x10
 4999 0acc 04       		.byte	0x4
 5000 0acd D10A0000 		.4byte	0xad1
 5001 0ad1 22       		.uleb128 0x22
 5002 0ad2 9A050000 		.4byte	.LASF114
 5003 0ad6 A5080000 		.4byte	0x8a5
 5004 0ada 1E       		.uleb128 0x1e
 5005 0adb 59030000 		.4byte	.LASF140
 5006 0adf 01       		.byte	0x1
 5007 0ae0 A2       		.byte	0xa2
 5008 0ae1 01       		.byte	0x1
 5009 0ae2 00000000 		.4byte	.LFB2
 5010 0ae6 78000000 		.4byte	.LFE2
 5011 0aea 6E000000 		.4byte	.LLST2
 5012 0aee 2A0B0000 		.4byte	0xb2a
 5013 0af2 1F       		.uleb128 0x1f
 5014 0af3 7200     		.ascii	"r\000"
 5015 0af5 01       		.byte	0x1
 5016 0af6 A2       		.byte	0xa2
 5017 0af7 2A0B0000 		.4byte	0xb2a
 5018 0afb 02       		.byte	0x2
 5019 0afc 91       		.byte	0x91
 5020 0afd 74       		.sleb128 -12
 5021 0afe 1F       		.uleb128 0x1f
 5022 0aff 706300   		.ascii	"pc\000"
 5023 0b02 01       		.byte	0x1
 5024 0b03 A2       		.byte	0xa2
 5025 0b04 4E000000 		.4byte	0x4e
 5026 0b08 02       		.byte	0x2
 5027 0b09 91       		.byte	0x91
 5028 0b0a 70       		.sleb128 -16
 5029 0b0b 23       		.uleb128 0x23
 5030 0b0c B8050000 		.4byte	.LASF141
 5031 0b10 01       		.byte	0x1
 5032 0b11 A2       		.byte	0xa2
 5033 0b12 4E000000 		.4byte	0x4e
 5034 0b16 02       		.byte	0x2
 5035 0b17 91       		.byte	0x91
 5036 0b18 6C       		.sleb128 -20
 5037 0b19 24       		.uleb128 0x24
 5038 0b1a E3020000 		.4byte	.LASF169
 5039 0b1e 400B0000 		.4byte	0xb40
 5040 0b22 01       		.byte	0x1
 5041 0b23 05       		.byte	0x5
 5042 0b24 03       		.byte	0x3
 5043 0b25 E4010000 		.4byte	__FUNCTION__.2917
 5044 0b29 00       		.byte	0x0
 5045 0b2a 10       		.uleb128 0x10
 5046 0b2b 04       		.byte	0x4
 5047 0b2c A5080000 		.4byte	0x8a5
 5048 0b30 09       		.uleb128 0x9
ARM GAS  C:\Users\karunmj\AppData\Local\Temp\ccfJuUhb.s 			page 102


 5049 0b31 FB050000 		.4byte	0x5fb
 5050 0b35 400B0000 		.4byte	0xb40
 5051 0b39 0A       		.uleb128 0xa
 5052 0b3a BB000000 		.4byte	0xbb
 5053 0b3e 0F       		.byte	0xf
 5054 0b3f 00       		.byte	0x0
 5055 0b40 17       		.uleb128 0x17
 5056 0b41 300B0000 		.4byte	0xb30
 5057 0b45 1E       		.uleb128 0x1e
 5058 0b46 16050000 		.4byte	.LASF142
 5059 0b4a 01       		.byte	0x1
 5060 0b4b AE       		.byte	0xae
 5061 0b4c 01       		.byte	0x1
 5062 0b4d 00000000 		.4byte	.LFB3
 5063 0b51 46000000 		.4byte	.LFE3
 5064 0b55 A5000000 		.4byte	.LLST3
 5065 0b59 780B0000 		.4byte	0xb78
 5066 0b5d 1F       		.uleb128 0x1f
 5067 0b5e 7200     		.ascii	"r\000"
 5068 0b60 01       		.byte	0x1
 5069 0b61 AE       		.byte	0xae
 5070 0b62 2A0B0000 		.4byte	0xb2a
 5071 0b66 02       		.byte	0x2
 5072 0b67 91       		.byte	0x91
 5073 0b68 74       		.sleb128 -12
 5074 0b69 23       		.uleb128 0x23
 5075 0b6a F3050000 		.4byte	.LASF115
 5076 0b6e 01       		.byte	0x1
 5077 0b6f AE       		.byte	0xae
 5078 0b70 4E000000 		.4byte	0x4e
 5079 0b74 02       		.byte	0x2
 5080 0b75 91       		.byte	0x91
 5081 0b76 70       		.sleb128 -16
 5082 0b77 00       		.byte	0x0
 5083 0b78 1E       		.uleb128 0x1e
 5084 0b79 7C030000 		.4byte	.LASF143
 5085 0b7d 01       		.byte	0x1
 5086 0b7e B7       		.byte	0xb7
 5087 0b7f 01       		.byte	0x1
 5088 0b80 00000000 		.4byte	.LFB4
 5089 0b84 4A000000 		.4byte	.LFE4
 5090 0b88 DC000000 		.4byte	.LLST4
 5091 0b8c AA0B0000 		.4byte	0xbaa
 5092 0b90 1F       		.uleb128 0x1f
 5093 0b91 7200     		.ascii	"r\000"
 5094 0b93 01       		.byte	0x1
 5095 0b94 B7       		.byte	0xb7
 5096 0b95 2A0B0000 		.4byte	0xb2a
 5097 0b99 02       		.byte	0x2
 5098 0b9a 91       		.byte	0x91
 5099 0b9b 74       		.sleb128 -12
 5100 0b9c 1F       		.uleb128 0x1f
 5101 0b9d 636800   		.ascii	"ch\000"
 5102 0ba0 01       		.byte	0x1
 5103 0ba1 B7       		.byte	0xb7
 5104 0ba2 4E000000 		.4byte	0x4e
 5105 0ba6 02       		.byte	0x2
ARM GAS  C:\Users\karunmj\AppData\Local\Temp\ccfJuUhb.s 			page 103


 5106 0ba7 91       		.byte	0x91
 5107 0ba8 70       		.sleb128 -16
 5108 0ba9 00       		.byte	0x0
 5109 0baa 1E       		.uleb128 0x1e
 5110 0bab 7F050000 		.4byte	.LASF144
 5111 0baf 01       		.byte	0x1
 5112 0bb0 C0       		.byte	0xc0
 5113 0bb1 01       		.byte	0x1
 5114 0bb2 00000000 		.4byte	.LFB5
 5115 0bb6 80000000 		.4byte	.LFE5
 5116 0bba 13010000 		.4byte	.LLST5
 5117 0bbe EA0B0000 		.4byte	0xbea
 5118 0bc2 1F       		.uleb128 0x1f
 5119 0bc3 7200     		.ascii	"r\000"
 5120 0bc5 01       		.byte	0x1
 5121 0bc6 C0       		.byte	0xc0
 5122 0bc7 2A0B0000 		.4byte	0xb2a
 5123 0bcb 02       		.byte	0x2
 5124 0bcc 91       		.byte	0x91
 5125 0bcd 6C       		.sleb128 -20
 5126 0bce 1F       		.uleb128 0x1f
 5127 0bcf 726500   		.ascii	"re\000"
 5128 0bd2 01       		.byte	0x1
 5129 0bd3 C0       		.byte	0xc0
 5130 0bd4 EA0B0000 		.4byte	0xbea
 5131 0bd8 02       		.byte	0x2
 5132 0bd9 91       		.byte	0x91
 5133 0bda 68       		.sleb128 -24
 5134 0bdb 25       		.uleb128 0x25
 5135 0bdc 66020000 		.4byte	.LASF145
 5136 0be0 01       		.byte	0x1
 5137 0be1 C2       		.byte	0xc2
 5138 0be2 4E000000 		.4byte	0x4e
 5139 0be6 02       		.byte	0x2
 5140 0be7 91       		.byte	0x91
 5141 0be8 74       		.sleb128 -12
 5142 0be9 00       		.byte	0x0
 5143 0bea 10       		.uleb128 0x10
 5144 0beb 04       		.byte	0x4
 5145 0bec 27060000 		.4byte	0x627
 5146 0bf0 26       		.uleb128 0x26
 5147 0bf1 4C000000 		.4byte	.LASF164
 5148 0bf5 01       		.byte	0x1
 5149 0bf6 CD       		.byte	0xcd
 5150 0bf7 01       		.byte	0x1
 5151 0bf8 4E000000 		.4byte	0x4e
 5152 0bfc 00000000 		.4byte	.LFB6
 5153 0c00 8E010000 		.4byte	.LFE6
 5154 0c04 4A010000 		.4byte	.LLST6
 5155 0c08 280C0000 		.4byte	0xc28
 5156 0c0c 1F       		.uleb128 0x1f
 5157 0c0d 726500   		.ascii	"re\000"
 5158 0c10 01       		.byte	0x1
 5159 0c11 CD       		.byte	0xcd
 5160 0c12 EA0B0000 		.4byte	0xbea
 5161 0c16 02       		.byte	0x2
 5162 0c17 91       		.byte	0x91
ARM GAS  C:\Users\karunmj\AppData\Local\Temp\ccfJuUhb.s 			page 104


 5163 0c18 6C       		.sleb128 -20
 5164 0c19 20       		.uleb128 0x20
 5165 0c1a 72657300 		.ascii	"res\000"
 5166 0c1e 01       		.byte	0x1
 5167 0c1f CF       		.byte	0xcf
 5168 0c20 4E000000 		.4byte	0x4e
 5169 0c24 02       		.byte	0x2
 5170 0c25 91       		.byte	0x91
 5171 0c26 74       		.sleb128 -12
 5172 0c27 00       		.byte	0x0
 5173 0c28 1E       		.uleb128 0x1e
 5174 0c29 95010000 		.4byte	.LASF146
 5175 0c2d 01       		.byte	0x1
 5176 0c2e E0       		.byte	0xe0
 5177 0c2f 01       		.byte	0x1
 5178 0c30 00000000 		.4byte	.LFB7
 5179 0c34 E0000000 		.4byte	.LFE7
 5180 0c38 81010000 		.4byte	.LLST7
 5181 0c3c 830C0000 		.4byte	0xc83
 5182 0c40 1F       		.uleb128 0x1f
 5183 0c41 7200     		.ascii	"r\000"
 5184 0c43 01       		.byte	0x1
 5185 0c44 E0       		.byte	0xe0
 5186 0c45 2A0B0000 		.4byte	0xb2a
 5187 0c49 02       		.byte	0x2
 5188 0c4a 91       		.byte	0x91
 5189 0c4b 64       		.sleb128 -28
 5190 0c4c 1F       		.uleb128 0x1f
 5191 0c4d 726500   		.ascii	"re\000"
 5192 0c50 01       		.byte	0x1
 5193 0c51 E0       		.byte	0xe0
 5194 0c52 EA0B0000 		.4byte	0xbea
 5195 0c56 02       		.byte	0x2
 5196 0c57 91       		.byte	0x91
 5197 0c58 60       		.sleb128 -32
 5198 0c59 20       		.uleb128 0x20
 5199 0c5a 65736300 		.ascii	"esc\000"
 5200 0c5e 01       		.byte	0x1
 5201 0c5f E2       		.byte	0xe2
 5202 0c60 4E000000 		.4byte	0x4e
 5203 0c64 02       		.byte	0x2
 5204 0c65 91       		.byte	0x91
 5205 0c66 6C       		.sleb128 -20
 5206 0c67 25       		.uleb128 0x25
 5207 0c68 66020000 		.4byte	.LASF145
 5208 0c6c 01       		.byte	0x1
 5209 0c6d E2       		.byte	0xe2
 5210 0c6e 4E000000 		.4byte	0x4e
 5211 0c72 02       		.byte	0x2
 5212 0c73 91       		.byte	0x91
 5213 0c74 70       		.sleb128 -16
 5214 0c75 20       		.uleb128 0x20
 5215 0c76 6F7000   		.ascii	"op\000"
 5216 0c79 01       		.byte	0x1
 5217 0c7a E2       		.byte	0xe2
 5218 0c7b 4E000000 		.4byte	0x4e
 5219 0c7f 02       		.byte	0x2
ARM GAS  C:\Users\karunmj\AppData\Local\Temp\ccfJuUhb.s 			page 105


 5220 0c80 91       		.byte	0x91
 5221 0c81 74       		.sleb128 -12
 5222 0c82 00       		.byte	0x0
 5223 0c83 27       		.uleb128 0x27
 5224 0c84 DC030000 		.4byte	.LASF147
 5225 0c88 01       		.byte	0x1
 5226 0c89 0501     		.2byte	0x105
 5227 0c8b 01       		.byte	0x1
 5228 0c8c 00000000 		.4byte	.LFB8
 5229 0c90 56000000 		.4byte	.LFE8
 5230 0c94 B8010000 		.4byte	.LLST8
 5231 0c98 C80C0000 		.4byte	0xcc8
 5232 0c9c 28       		.uleb128 0x28
 5233 0c9d 7200     		.ascii	"r\000"
 5234 0c9f 01       		.byte	0x1
 5235 0ca0 0501     		.2byte	0x105
 5236 0ca2 2A0B0000 		.4byte	0xb2a
 5237 0ca6 02       		.byte	0x2
 5238 0ca7 91       		.byte	0x91
 5239 0ca8 74       		.sleb128 -12
 5240 0ca9 29       		.uleb128 0x29
 5241 0caa 95020000 		.4byte	.LASF148
 5242 0cae 01       		.byte	0x1
 5243 0caf 0501     		.2byte	0x105
 5244 0cb1 4E000000 		.4byte	0x4e
 5245 0cb5 02       		.byte	0x2
 5246 0cb6 91       		.byte	0x91
 5247 0cb7 70       		.sleb128 -16
 5248 0cb8 29       		.uleb128 0x29
 5249 0cb9 B4010000 		.4byte	.LASF149
 5250 0cbd 01       		.byte	0x1
 5251 0cbe 0501     		.2byte	0x105
 5252 0cc0 4E000000 		.4byte	0x4e
 5253 0cc4 02       		.byte	0x2
 5254 0cc5 91       		.byte	0x91
 5255 0cc6 6C       		.sleb128 -20
 5256 0cc7 00       		.byte	0x0
 5257 0cc8 27       		.uleb128 0x27
 5258 0cc9 8A010000 		.4byte	.LASF150
 5259 0ccd 01       		.byte	0x1
 5260 0cce 0D01     		.2byte	0x10d
 5261 0cd0 01       		.byte	0x1
 5262 0cd1 00000000 		.4byte	.LFB9
 5263 0cd5 A6000000 		.4byte	.LFE9
 5264 0cd9 EF010000 		.4byte	.LLST9
 5265 0cdd 0C0D0000 		.4byte	0xd0c
 5266 0ce1 28       		.uleb128 0x28
 5267 0ce2 7200     		.ascii	"r\000"
 5268 0ce4 01       		.byte	0x1
 5269 0ce5 0D01     		.2byte	0x10d
 5270 0ce7 2A0B0000 		.4byte	0xb2a
 5271 0ceb 02       		.byte	0x2
 5272 0cec 91       		.byte	0x91
 5273 0ced 74       		.sleb128 -12
 5274 0cee 29       		.uleb128 0x29
 5275 0cef 3E000000 		.4byte	.LASF151
 5276 0cf3 01       		.byte	0x1
ARM GAS  C:\Users\karunmj\AppData\Local\Temp\ccfJuUhb.s 			page 106


 5277 0cf4 0D01     		.2byte	0x10d
 5278 0cf6 4E000000 		.4byte	0x4e
 5279 0cfa 02       		.byte	0x2
 5280 0cfb 91       		.byte	0x91
 5281 0cfc 70       		.sleb128 -16
 5282 0cfd 28       		.uleb128 0x28
 5283 0cfe 6F7000   		.ascii	"op\000"
 5284 0d01 01       		.byte	0x1
 5285 0d02 0D01     		.2byte	0x10d
 5286 0d04 4E000000 		.4byte	0x4e
 5287 0d08 02       		.byte	0x2
 5288 0d09 91       		.byte	0x91
 5289 0d0a 6C       		.sleb128 -20
 5290 0d0b 00       		.byte	0x0
 5291 0d0c 27       		.uleb128 0x27
 5292 0d0d 04020000 		.4byte	.LASF152
 5293 0d11 01       		.byte	0x1
 5294 0d12 1C01     		.2byte	0x11c
 5295 0d14 01       		.byte	0x1
 5296 0d15 00000000 		.4byte	.LFB10
 5297 0d19 3C000000 		.4byte	.LFE10
 5298 0d1d 26020000 		.4byte	.LLST10
 5299 0d21 410D0000 		.4byte	0xd41
 5300 0d25 28       		.uleb128 0x28
 5301 0d26 7200     		.ascii	"r\000"
 5302 0d28 01       		.byte	0x1
 5303 0d29 1C01     		.2byte	0x11c
 5304 0d2b 2A0B0000 		.4byte	0xb2a
 5305 0d2f 02       		.byte	0x2
 5306 0d30 91       		.byte	0x91
 5307 0d31 74       		.sleb128 -12
 5308 0d32 28       		.uleb128 0x28
 5309 0d33 636800   		.ascii	"ch\000"
 5310 0d36 01       		.byte	0x1
 5311 0d37 1C01     		.2byte	0x11c
 5312 0d39 4E000000 		.4byte	0x4e
 5313 0d3d 02       		.byte	0x2
 5314 0d3e 91       		.byte	0x91
 5315 0d3f 70       		.sleb128 -16
 5316 0d40 00       		.byte	0x0
 5317 0d41 27       		.uleb128 0x27
 5318 0d42 4D040000 		.4byte	.LASF153
 5319 0d46 01       		.byte	0x1
 5320 0d47 2501     		.2byte	0x125
 5321 0d49 01       		.byte	0x1
 5322 0d4a 00000000 		.4byte	.LFB11
 5323 0d4e 32000000 		.4byte	.LFE11
 5324 0d52 5D020000 		.4byte	.LLST11
 5325 0d56 770D0000 		.4byte	0xd77
 5326 0d5a 28       		.uleb128 0x28
 5327 0d5b 7200     		.ascii	"r\000"
 5328 0d5d 01       		.byte	0x1
 5329 0d5e 2501     		.2byte	0x125
 5330 0d60 2A0B0000 		.4byte	0xb2a
 5331 0d64 02       		.byte	0x2
 5332 0d65 91       		.byte	0x91
 5333 0d66 74       		.sleb128 -12
ARM GAS  C:\Users\karunmj\AppData\Local\Temp\ccfJuUhb.s 			page 107


 5334 0d67 29       		.uleb128 0x29
 5335 0d68 54060000 		.4byte	.LASF154
 5336 0d6c 01       		.byte	0x1
 5337 0d6d 2501     		.2byte	0x125
 5338 0d6f 4E000000 		.4byte	0x4e
 5339 0d73 02       		.byte	0x2
 5340 0d74 91       		.byte	0x91
 5341 0d75 70       		.sleb128 -16
 5342 0d76 00       		.byte	0x0
 5343 0d77 27       		.uleb128 0x27
 5344 0d78 2C020000 		.4byte	.LASF155
 5345 0d7c 01       		.byte	0x1
 5346 0d7d 2E01     		.2byte	0x12e
 5347 0d7f 01       		.byte	0x1
 5348 0d80 00000000 		.4byte	.LFB12
 5349 0d84 68020000 		.4byte	.LFE12
 5350 0d88 94020000 		.4byte	.LLST12
 5351 0d8c 140E0000 		.4byte	0xe14
 5352 0d90 28       		.uleb128 0x28
 5353 0d91 7200     		.ascii	"r\000"
 5354 0d93 01       		.byte	0x1
 5355 0d94 2E01     		.2byte	0x12e
 5356 0d96 2A0B0000 		.4byte	0xb2a
 5357 0d9a 02       		.byte	0x2
 5358 0d9b 91       		.byte	0x91
 5359 0d9c 54       		.sleb128 -44
 5360 0d9d 28       		.uleb128 0x28
 5361 0d9e 726500   		.ascii	"re\000"
 5362 0da1 01       		.byte	0x1
 5363 0da2 2E01     		.2byte	0x12e
 5364 0da4 EA0B0000 		.4byte	0xbea
 5365 0da8 02       		.byte	0x2
 5366 0da9 91       		.byte	0x91
 5367 0daa 50       		.sleb128 -48
 5368 0dab 2A       		.uleb128 0x2a
 5369 0dac 6F7000   		.ascii	"op\000"
 5370 0daf 01       		.byte	0x1
 5371 0db0 3001     		.2byte	0x130
 5372 0db2 4E000000 		.4byte	0x4e
 5373 0db6 02       		.byte	0x2
 5374 0db7 91       		.byte	0x91
 5375 0db8 5C       		.sleb128 -36
 5376 0db9 2A       		.uleb128 0x2a
 5377 0dba 65736300 		.ascii	"esc\000"
 5378 0dbe 01       		.byte	0x1
 5379 0dbf 3001     		.2byte	0x130
 5380 0dc1 4E000000 		.4byte	0x4e
 5381 0dc5 02       		.byte	0x2
 5382 0dc6 91       		.byte	0x91
 5383 0dc7 60       		.sleb128 -32
 5384 0dc8 2B       		.uleb128 0x2b
 5385 0dc9 2E040000 		.4byte	.LASF156
 5386 0dcd 01       		.byte	0x1
 5387 0dce 3001     		.2byte	0x130
 5388 0dd0 4E000000 		.4byte	0x4e
 5389 0dd4 02       		.byte	0x2
 5390 0dd5 91       		.byte	0x91
ARM GAS  C:\Users\karunmj\AppData\Local\Temp\ccfJuUhb.s 			page 108


 5391 0dd6 64       		.sleb128 -28
 5392 0dd7 2B       		.uleb128 0x2b
 5393 0dd8 16040000 		.4byte	.LASF157
 5394 0ddc 01       		.byte	0x1
 5395 0ddd 3001     		.2byte	0x130
 5396 0ddf 4E000000 		.4byte	0x4e
 5397 0de3 02       		.byte	0x2
 5398 0de4 91       		.byte	0x91
 5399 0de5 68       		.sleb128 -24
 5400 0de6 2B       		.uleb128 0x2b
 5401 0de7 54060000 		.4byte	.LASF154
 5402 0deb 01       		.byte	0x1
 5403 0dec 3001     		.2byte	0x130
 5404 0dee 4E000000 		.4byte	0x4e
 5405 0df2 02       		.byte	0x2
 5406 0df3 91       		.byte	0x91
 5407 0df4 6C       		.sleb128 -20
 5408 0df5 2B       		.uleb128 0x2b
 5409 0df6 FB040000 		.4byte	.LASF158
 5410 0dfa 01       		.byte	0x1
 5411 0dfb 3001     		.2byte	0x130
 5412 0dfd 4E000000 		.4byte	0x4e
 5413 0e01 02       		.byte	0x2
 5414 0e02 91       		.byte	0x91
 5415 0e03 70       		.sleb128 -16
 5416 0e04 2B       		.uleb128 0x2b
 5417 0e05 54010000 		.4byte	.LASF159
 5418 0e09 01       		.byte	0x1
 5419 0e0a 3001     		.2byte	0x130
 5420 0e0c 4E000000 		.4byte	0x4e
 5421 0e10 02       		.byte	0x2
 5422 0e11 91       		.byte	0x91
 5423 0e12 74       		.sleb128 -12
 5424 0e13 00       		.byte	0x0
 5425 0e14 2C       		.uleb128 0x2c
 5426 0e15 01       		.byte	0x1
 5427 0e16 88020000 		.4byte	.LASF170
 5428 0e1a 01       		.byte	0x1
 5429 0e1b 8A01     		.2byte	0x18a
 5430 0e1d 01       		.byte	0x1
 5431 0e1e 4E000000 		.4byte	0x4e
 5432 0e22 00000000 		.4byte	.LFB13
 5433 0e26 CA000000 		.4byte	.LFE13
 5434 0e2a CB020000 		.4byte	.LLST13
 5435 0e2e 4E0E0000 		.4byte	0xe4e
 5436 0e32 28       		.uleb128 0x28
 5437 0e33 7200     		.ascii	"r\000"
 5438 0e35 01       		.byte	0x1
 5439 0e36 8A01     		.2byte	0x18a
 5440 0e38 2A0B0000 		.4byte	0xb2a
 5441 0e3c 02       		.byte	0x2
 5442 0e3d 91       		.byte	0x91
 5443 0e3e 74       		.sleb128 -12
 5444 0e3f 28       		.uleb128 0x28
 5445 0e40 726500   		.ascii	"re\000"
 5446 0e43 01       		.byte	0x1
 5447 0e44 8A01     		.2byte	0x18a
ARM GAS  C:\Users\karunmj\AppData\Local\Temp\ccfJuUhb.s 			page 109


 5448 0e46 27060000 		.4byte	0x627
 5449 0e4a 02       		.byte	0x2
 5450 0e4b 91       		.byte	0x91
 5451 0e4c 70       		.sleb128 -16
 5452 0e4d 00       		.byte	0x0
 5453 0e4e 27       		.uleb128 0x27
 5454 0e4f F8050000 		.4byte	.LASF160
 5455 0e53 01       		.byte	0x1
 5456 0e54 A601     		.2byte	0x1a6
 5457 0e56 01       		.byte	0x1
 5458 0e57 00000000 		.4byte	.LFB14
 5459 0e5b 86000000 		.4byte	.LFE14
 5460 0e5f 02030000 		.4byte	.LLST14
 5461 0e63 CC0E0000 		.4byte	0xecc
 5462 0e67 28       		.uleb128 0x28
 5463 0e68 7200     		.ascii	"r\000"
 5464 0e6a 01       		.byte	0x1
 5465 0e6b A601     		.2byte	0x1a6
 5466 0e6d CB0A0000 		.4byte	0xacb
 5467 0e71 02       		.byte	0x2
 5468 0e72 91       		.byte	0x91
 5469 0e73 6C       		.sleb128 -20
 5470 0e74 28       		.uleb128 0x28
 5471 0e75 706300   		.ascii	"pc\000"
 5472 0e78 01       		.byte	0x1
 5473 0e79 A601     		.2byte	0x1a6
 5474 0e7b 4E000000 		.4byte	0x4e
 5475 0e7f 02       		.byte	0x2
 5476 0e80 91       		.byte	0x91
 5477 0e81 68       		.sleb128 -24
 5478 0e82 28       		.uleb128 0x28
 5479 0e83 7300     		.ascii	"s\000"
 5480 0e85 01       		.byte	0x1
 5481 0e86 A601     		.2byte	0x1a6
 5482 0e88 27060000 		.4byte	0x627
 5483 0e8c 02       		.byte	0x2
 5484 0e8d 91       		.byte	0x91
 5485 0e8e 64       		.sleb128 -28
 5486 0e8f 28       		.uleb128 0x28
 5487 0e90 6C656E00 		.ascii	"len\000"
 5488 0e94 01       		.byte	0x1
 5489 0e95 A601     		.2byte	0x1a6
 5490 0e97 4E000000 		.4byte	0x4e
 5491 0e9b 02       		.byte	0x2
 5492 0e9c 91       		.byte	0x91
 5493 0e9d 60       		.sleb128 -32
 5494 0e9e 28       		.uleb128 0x28
 5495 0e9f 6F667300 		.ascii	"ofs\000"
 5496 0ea3 01       		.byte	0x1
 5497 0ea4 A601     		.2byte	0x1a6
 5498 0ea6 CC0E0000 		.4byte	0xecc
 5499 0eaa 02       		.byte	0x2
 5500 0eab 91       		.byte	0x91
 5501 0eac 00       		.sleb128 0
 5502 0ead 2B       		.uleb128 0x2b
 5503 0eae F4000000 		.4byte	.LASF161
 5504 0eb2 01       		.byte	0x1
ARM GAS  C:\Users\karunmj\AppData\Local\Temp\ccfJuUhb.s 			page 110


 5505 0eb3 A801     		.2byte	0x1a8
 5506 0eb5 4E000000 		.4byte	0x4e
 5507 0eb9 02       		.byte	0x2
 5508 0eba 91       		.byte	0x91
 5509 0ebb 70       		.sleb128 -16
 5510 0ebc 2B       		.uleb128 0x2b
 5511 0ebd A0030000 		.4byte	.LASF162
 5512 0ec1 01       		.byte	0x1
 5513 0ec2 A801     		.2byte	0x1a8
 5514 0ec4 4E000000 		.4byte	0x4e
 5515 0ec8 02       		.byte	0x2
 5516 0ec9 91       		.byte	0x91
 5517 0eca 74       		.sleb128 -12
 5518 0ecb 00       		.byte	0x0
 5519 0ecc 10       		.uleb128 0x10
 5520 0ecd 04       		.byte	0x4
 5521 0ece 4E000000 		.4byte	0x4e
 5522 0ed2 27       		.uleb128 0x27
 5523 0ed3 95060000 		.4byte	.LASF163
 5524 0ed7 01       		.byte	0x1
 5525 0ed8 B701     		.2byte	0x1b7
 5526 0eda 01       		.byte	0x1
 5527 0edb 00000000 		.4byte	.LFB15
 5528 0edf 7C000000 		.4byte	.LFE15
 5529 0ee3 39030000 		.4byte	.LLST15
 5530 0ee7 410F0000 		.4byte	0xf41
 5531 0eeb 28       		.uleb128 0x28
 5532 0eec 7200     		.ascii	"r\000"
 5533 0eee 01       		.byte	0x1
 5534 0eef B701     		.2byte	0x1b7
 5535 0ef1 CB0A0000 		.4byte	0xacb
 5536 0ef5 02       		.byte	0x2
 5537 0ef6 91       		.byte	0x91
 5538 0ef7 6C       		.sleb128 -20
 5539 0ef8 28       		.uleb128 0x28
 5540 0ef9 706300   		.ascii	"pc\000"
 5541 0efc 01       		.byte	0x1
 5542 0efd B701     		.2byte	0x1b7
 5543 0eff 4E000000 		.4byte	0x4e
 5544 0f03 02       		.byte	0x2
 5545 0f04 91       		.byte	0x91
 5546 0f05 68       		.sleb128 -24
 5547 0f06 28       		.uleb128 0x28
 5548 0f07 7300     		.ascii	"s\000"
 5549 0f09 01       		.byte	0x1
 5550 0f0a B701     		.2byte	0x1b7
 5551 0f0c 27060000 		.4byte	0x627
 5552 0f10 02       		.byte	0x2
 5553 0f11 91       		.byte	0x91
 5554 0f12 64       		.sleb128 -28
 5555 0f13 28       		.uleb128 0x28
 5556 0f14 6C656E00 		.ascii	"len\000"
 5557 0f18 01       		.byte	0x1
 5558 0f19 B701     		.2byte	0x1b7
 5559 0f1b 4E000000 		.4byte	0x4e
 5560 0f1f 02       		.byte	0x2
 5561 0f20 91       		.byte	0x91
ARM GAS  C:\Users\karunmj\AppData\Local\Temp\ccfJuUhb.s 			page 111


 5562 0f21 60       		.sleb128 -32
 5563 0f22 28       		.uleb128 0x28
 5564 0f23 6F667300 		.ascii	"ofs\000"
 5565 0f27 01       		.byte	0x1
 5566 0f28 B701     		.2byte	0x1b7
 5567 0f2a CC0E0000 		.4byte	0xecc
 5568 0f2e 02       		.byte	0x2
 5569 0f2f 91       		.byte	0x91
 5570 0f30 00       		.sleb128 0
 5571 0f31 2B       		.uleb128 0x2b
 5572 0f32 F4000000 		.4byte	.LASF161
 5573 0f36 01       		.byte	0x1
 5574 0f37 B901     		.2byte	0x1b9
 5575 0f39 4E000000 		.4byte	0x4e
 5576 0f3d 02       		.byte	0x2
 5577 0f3e 91       		.byte	0x91
 5578 0f3f 74       		.sleb128 -12
 5579 0f40 00       		.byte	0x0
 5580 0f41 2D       		.uleb128 0x2d
 5581 0f42 FD020000 		.4byte	.LASF165
 5582 0f46 01       		.byte	0x1
 5583 0f47 C501     		.2byte	0x1c5
 5584 0f49 01       		.byte	0x1
 5585 0f4a 4E000000 		.4byte	0x4e
 5586 0f4e 00000000 		.4byte	.LFB16
 5587 0f52 66000000 		.4byte	.LFE16
 5588 0f56 70030000 		.4byte	.LLST16
 5589 0f5a B20F0000 		.4byte	0xfb2
 5590 0f5e 28       		.uleb128 0x28
 5591 0f5f 7000     		.ascii	"p\000"
 5592 0f61 01       		.byte	0x1
 5593 0f62 C501     		.2byte	0x1c5
 5594 0f64 4E0A0000 		.4byte	0xa4e
 5595 0f68 02       		.byte	0x2
 5596 0f69 91       		.byte	0x91
 5597 0f6a 6C       		.sleb128 -20
 5598 0f6b 28       		.uleb128 0x28
 5599 0f6c 6C656E00 		.ascii	"len\000"
 5600 0f70 01       		.byte	0x1
 5601 0f71 C501     		.2byte	0x1c5
 5602 0f73 4E000000 		.4byte	0x4e
 5603 0f77 02       		.byte	0x2
 5604 0f78 91       		.byte	0x91
 5605 0f79 68       		.sleb128 -24
 5606 0f7a 28       		.uleb128 0x28
 5607 0f7b 7300     		.ascii	"s\000"
 5608 0f7d 01       		.byte	0x1
 5609 0f7e C501     		.2byte	0x1c5
 5610 0f80 27060000 		.4byte	0x627
 5611 0f84 02       		.byte	0x2
 5612 0f85 91       		.byte	0x91
 5613 0f86 64       		.sleb128 -28
 5614 0f87 28       		.uleb128 0x28
 5615 0f88 6F667300 		.ascii	"ofs\000"
 5616 0f8c 01       		.byte	0x1
 5617 0f8d C501     		.2byte	0x1c5
 5618 0f8f CC0E0000 		.4byte	0xecc
ARM GAS  C:\Users\karunmj\AppData\Local\Temp\ccfJuUhb.s 			page 112


 5619 0f93 02       		.byte	0x2
 5620 0f94 91       		.byte	0x91
 5621 0f95 60       		.sleb128 -32
 5622 0f96 2A       		.uleb128 0x2a
 5623 0f97 6900     		.ascii	"i\000"
 5624 0f99 01       		.byte	0x1
 5625 0f9a C701     		.2byte	0x1c7
 5626 0f9c 4E000000 		.4byte	0x4e
 5627 0fa0 02       		.byte	0x2
 5628 0fa1 91       		.byte	0x91
 5629 0fa2 70       		.sleb128 -16
 5630 0fa3 2A       		.uleb128 0x2a
 5631 0fa4 636800   		.ascii	"ch\000"
 5632 0fa7 01       		.byte	0x1
 5633 0fa8 C701     		.2byte	0x1c7
 5634 0faa 4E000000 		.4byte	0x4e
 5635 0fae 02       		.byte	0x2
 5636 0faf 91       		.byte	0x91
 5637 0fb0 74       		.sleb128 -12
 5638 0fb1 00       		.byte	0x0
 5639 0fb2 2D       		.uleb128 0x2d
 5640 0fb3 07010000 		.4byte	.LASF166
 5641 0fb7 01       		.byte	0x1
 5642 0fb8 D501     		.2byte	0x1d5
 5643 0fba 01       		.byte	0x1
 5644 0fbb 4E000000 		.4byte	0x4e
 5645 0fbf 00000000 		.4byte	.LFB17
 5646 0fc3 66000000 		.4byte	.LFE17
 5647 0fc7 A7030000 		.4byte	.LLST17
 5648 0fcb 23100000 		.4byte	0x1023
 5649 0fcf 28       		.uleb128 0x28
 5650 0fd0 7000     		.ascii	"p\000"
 5651 0fd2 01       		.byte	0x1
 5652 0fd3 D501     		.2byte	0x1d5
 5653 0fd5 4E0A0000 		.4byte	0xa4e
 5654 0fd9 02       		.byte	0x2
 5655 0fda 91       		.byte	0x91
 5656 0fdb 6C       		.sleb128 -20
 5657 0fdc 28       		.uleb128 0x28
 5658 0fdd 6C656E00 		.ascii	"len\000"
 5659 0fe1 01       		.byte	0x1
 5660 0fe2 D501     		.2byte	0x1d5
 5661 0fe4 4E000000 		.4byte	0x4e
 5662 0fe8 02       		.byte	0x2
 5663 0fe9 91       		.byte	0x91
 5664 0fea 68       		.sleb128 -24
 5665 0feb 28       		.uleb128 0x28
 5666 0fec 7300     		.ascii	"s\000"
 5667 0fee 01       		.byte	0x1
 5668 0fef D501     		.2byte	0x1d5
 5669 0ff1 27060000 		.4byte	0x627
 5670 0ff5 02       		.byte	0x2
 5671 0ff6 91       		.byte	0x91
 5672 0ff7 64       		.sleb128 -28
 5673 0ff8 28       		.uleb128 0x28
 5674 0ff9 6F667300 		.ascii	"ofs\000"
 5675 0ffd 01       		.byte	0x1
ARM GAS  C:\Users\karunmj\AppData\Local\Temp\ccfJuUhb.s 			page 113


 5676 0ffe D501     		.2byte	0x1d5
 5677 1000 CC0E0000 		.4byte	0xecc
 5678 1004 02       		.byte	0x2
 5679 1005 91       		.byte	0x91
 5680 1006 60       		.sleb128 -32
 5681 1007 2A       		.uleb128 0x2a
 5682 1008 6900     		.ascii	"i\000"
 5683 100a 01       		.byte	0x1
 5684 100b D701     		.2byte	0x1d7
 5685 100d 4E000000 		.4byte	0x4e
 5686 1011 02       		.byte	0x2
 5687 1012 91       		.byte	0x91
 5688 1013 70       		.sleb128 -16
 5689 1014 2A       		.uleb128 0x2a
 5690 1015 636800   		.ascii	"ch\000"
 5691 1018 01       		.byte	0x1
 5692 1019 D701     		.2byte	0x1d7
 5693 101b 4E000000 		.4byte	0x4e
 5694 101f 02       		.byte	0x2
 5695 1020 91       		.byte	0x91
 5696 1021 74       		.sleb128 -12
 5697 1022 00       		.byte	0x0
 5698 1023 2D       		.uleb128 0x2d
 5699 1024 BD030000 		.4byte	.LASF167
 5700 1028 01       		.byte	0x1
 5701 1029 E401     		.2byte	0x1e4
 5702 102b 01       		.byte	0x1
 5703 102c 4E000000 		.4byte	0x4e
 5704 1030 00000000 		.4byte	.LFB18
 5705 1034 7A050000 		.4byte	.LFE18
 5706 1038 DE030000 		.4byte	.LLST18
 5707 103c D1100000 		.4byte	0x10d1
 5708 1040 28       		.uleb128 0x28
 5709 1041 7200     		.ascii	"r\000"
 5710 1043 01       		.byte	0x1
 5711 1044 E401     		.2byte	0x1e4
 5712 1046 CB0A0000 		.4byte	0xacb
 5713 104a 02       		.byte	0x2
 5714 104b 91       		.byte	0x91
 5715 104c 64       		.sleb128 -28
 5716 104d 28       		.uleb128 0x28
 5717 104e 706300   		.ascii	"pc\000"
 5718 1051 01       		.byte	0x1
 5719 1052 E401     		.2byte	0x1e4
 5720 1054 4E000000 		.4byte	0x4e
 5721 1058 02       		.byte	0x2
 5722 1059 91       		.byte	0x91
 5723 105a 60       		.sleb128 -32
 5724 105b 28       		.uleb128 0x28
 5725 105c 7300     		.ascii	"s\000"
 5726 105e 01       		.byte	0x1
 5727 105f E401     		.2byte	0x1e4
 5728 1061 27060000 		.4byte	0x627
 5729 1065 02       		.byte	0x2
 5730 1066 91       		.byte	0x91
 5731 1067 5C       		.sleb128 -36
 5732 1068 28       		.uleb128 0x28
ARM GAS  C:\Users\karunmj\AppData\Local\Temp\ccfJuUhb.s 			page 114


 5733 1069 6C656E00 		.ascii	"len\000"
 5734 106d 01       		.byte	0x1
 5735 106e E401     		.2byte	0x1e4
 5736 1070 4E000000 		.4byte	0x4e
 5737 1074 02       		.byte	0x2
 5738 1075 91       		.byte	0x91
 5739 1076 58       		.sleb128 -40
 5740 1077 28       		.uleb128 0x28
 5741 1078 6F667300 		.ascii	"ofs\000"
 5742 107c 01       		.byte	0x1
 5743 107d E501     		.2byte	0x1e5
 5744 107f CC0E0000 		.4byte	0xecc
 5745 1083 02       		.byte	0x2
 5746 1084 91       		.byte	0x91
 5747 1085 00       		.sleb128 0
 5748 1086 29       		.uleb128 0x29
 5749 1087 12000000 		.4byte	.LASF168
 5750 108b 01       		.byte	0x1
 5751 108c E501     		.2byte	0x1e5
 5752 108e D1100000 		.4byte	0x10d1
 5753 1092 02       		.byte	0x2
 5754 1093 91       		.byte	0x91
 5755 1094 04       		.sleb128 4
 5756 1095 2A       		.uleb128 0x2a
 5757 1096 6E00     		.ascii	"n\000"
 5758 1098 01       		.byte	0x1
 5759 1099 E701     		.2byte	0x1e7
 5760 109b 4E000000 		.4byte	0x4e
 5761 109f 02       		.byte	0x2
 5762 10a0 91       		.byte	0x91
 5763 10a1 6C       		.sleb128 -20
 5764 10a2 2B       		.uleb128 0x2b
 5765 10a3 F4000000 		.4byte	.LASF161
 5766 10a7 01       		.byte	0x1
 5767 10a8 E701     		.2byte	0x1e7
 5768 10aa 4E000000 		.4byte	0x4e
 5769 10ae 02       		.byte	0x2
 5770 10af 91       		.byte	0x91
 5771 10b0 70       		.sleb128 -16
 5772 10b1 2A       		.uleb128 0x2a
 5773 10b2 72657300 		.ascii	"res\000"
 5774 10b6 01       		.byte	0x1
 5775 10b7 E701     		.2byte	0x1e7
 5776 10b9 4E000000 		.4byte	0x4e
 5777 10bd 02       		.byte	0x2
 5778 10be 91       		.byte	0x91
 5779 10bf 74       		.sleb128 -12
 5780 10c0 24       		.uleb128 0x24
 5781 10c1 E3020000 		.4byte	.LASF169
 5782 10c5 E7100000 		.4byte	0x10e7
 5783 10c9 01       		.byte	0x1
 5784 10ca 05       		.byte	0x5
 5785 10cb 03       		.byte	0x3
 5786 10cc DC010000 		.4byte	__FUNCTION__.3293
 5787 10d0 00       		.byte	0x0
 5788 10d1 10       		.uleb128 0x10
 5789 10d2 04       		.byte	0x4
ARM GAS  C:\Users\karunmj\AppData\Local\Temp\ccfJuUhb.s 			page 115


 5790 10d3 2B090000 		.4byte	0x92b
 5791 10d7 09       		.uleb128 0x9
 5792 10d8 FB050000 		.4byte	0x5fb
 5793 10dc E7100000 		.4byte	0x10e7
 5794 10e0 0A       		.uleb128 0xa
 5795 10e1 BB000000 		.4byte	0xbb
 5796 10e5 05       		.byte	0x5
 5797 10e6 00       		.byte	0x0
 5798 10e7 17       		.uleb128 0x17
 5799 10e8 D7100000 		.4byte	0x10d7
 5800 10ec 2C       		.uleb128 0x2c
 5801 10ed 01       		.byte	0x1
 5802 10ee 44020000 		.4byte	.LASF171
 5803 10f2 01       		.byte	0x1
 5804 10f3 7102     		.2byte	0x271
 5805 10f5 01       		.byte	0x1
 5806 10f6 4E000000 		.4byte	0x4e
 5807 10fa 00000000 		.4byte	.LFB19
 5808 10fe 8C000000 		.4byte	.LFE19
 5809 1102 15040000 		.4byte	.LLST19
 5810 1106 70110000 		.4byte	0x1170
 5811 110a 28       		.uleb128 0x28
 5812 110b 7200     		.ascii	"r\000"
 5813 110d 01       		.byte	0x1
 5814 110e 7102     		.2byte	0x271
 5815 1110 CB0A0000 		.4byte	0xacb
 5816 1114 02       		.byte	0x2
 5817 1115 91       		.byte	0x91
 5818 1116 64       		.sleb128 -28
 5819 1117 28       		.uleb128 0x28
 5820 1118 62756600 		.ascii	"buf\000"
 5821 111c 01       		.byte	0x1
 5822 111d 7102     		.2byte	0x271
 5823 111f 27060000 		.4byte	0x627
 5824 1123 02       		.byte	0x2
 5825 1124 91       		.byte	0x91
 5826 1125 60       		.sleb128 -32
 5827 1126 28       		.uleb128 0x28
 5828 1127 6C656E00 		.ascii	"len\000"
 5829 112b 01       		.byte	0x1
 5830 112c 7102     		.2byte	0x271
 5831 112e 4E000000 		.4byte	0x4e
 5832 1132 02       		.byte	0x2
 5833 1133 91       		.byte	0x91
 5834 1134 5C       		.sleb128 -36
 5835 1135 29       		.uleb128 0x29
 5836 1136 12000000 		.4byte	.LASF168
 5837 113a 01       		.byte	0x1
 5838 113b 7202     		.2byte	0x272
 5839 113d D1100000 		.4byte	0x10d1
 5840 1141 02       		.byte	0x2
 5841 1142 91       		.byte	0x91
 5842 1143 58       		.sleb128 -40
 5843 1144 2A       		.uleb128 0x2a
 5844 1145 6900     		.ascii	"i\000"
 5845 1147 01       		.byte	0x1
 5846 1148 7402     		.2byte	0x274
ARM GAS  C:\Users\karunmj\AppData\Local\Temp\ccfJuUhb.s 			page 116


 5847 114a 4E000000 		.4byte	0x4e
 5848 114e 02       		.byte	0x2
 5849 114f 91       		.byte	0x91
 5850 1150 70       		.sleb128 -16
 5851 1151 2A       		.uleb128 0x2a
 5852 1152 6F667300 		.ascii	"ofs\000"
 5853 1156 01       		.byte	0x1
 5854 1157 7402     		.2byte	0x274
 5855 1159 4E000000 		.4byte	0x4e
 5856 115d 02       		.byte	0x2
 5857 115e 91       		.byte	0x91
 5858 115f 6C       		.sleb128 -20
 5859 1160 2A       		.uleb128 0x2a
 5860 1161 72657300 		.ascii	"res\000"
 5861 1165 01       		.byte	0x1
 5862 1166 7402     		.2byte	0x274
 5863 1168 4E000000 		.4byte	0x4e
 5864 116c 02       		.byte	0x2
 5865 116d 91       		.byte	0x91
 5866 116e 74       		.sleb128 -12
 5867 116f 00       		.byte	0x0
 5868 1170 09       		.uleb128 0x9
 5869 1171 C9090000 		.4byte	0x9c9
 5870 1175 80110000 		.4byte	0x1180
 5871 1179 0A       		.uleb128 0xa
 5872 117a BB000000 		.4byte	0xbb
 5873 117e 11       		.byte	0x11
 5874 117f 00       		.byte	0x0
 5875 1180 25       		.uleb128 0x25
 5876 1181 B5030000 		.4byte	.LASF172
 5877 1185 01       		.byte	0x1
 5878 1186 29       		.byte	0x29
 5879 1187 70110000 		.4byte	0x1170
 5880 118b 05       		.byte	0x5
 5881 118c 03       		.byte	0x3
 5882 118d 00000000 		.4byte	opcodes
 5883 1191 25       		.uleb128 0x25
 5884 1192 CB010000 		.4byte	.LASF173
 5885 1196 01       		.byte	0x1
 5886 1197 5D       		.byte	0x5d
 5887 1198 27060000 		.4byte	0x627
 5888 119c 05       		.byte	0x5
 5889 119d 03       		.byte	0x3
 5890 119e D8000000 		.4byte	meta_chars
 5891 11a2 2E       		.uleb128 0x2e
 5892 11a3 B4060000 		.4byte	.LASF178
 5893 11a7 08       		.byte	0x8
 5894 11a8 52       		.byte	0x52
 5895 11a9 27060000 		.4byte	0x627
 5896 11ad 01       		.byte	0x1
 5897 11ae 01       		.byte	0x1
 5898 11af 00       		.byte	0x0
 5899              		.section	.debug_abbrev
 5900 0000 01       		.uleb128 0x1
 5901 0001 11       		.uleb128 0x11
 5902 0002 01       		.byte	0x1
 5903 0003 25       		.uleb128 0x25
ARM GAS  C:\Users\karunmj\AppData\Local\Temp\ccfJuUhb.s 			page 117


 5904 0004 0E       		.uleb128 0xe
 5905 0005 13       		.uleb128 0x13
 5906 0006 0B       		.uleb128 0xb
 5907 0007 03       		.uleb128 0x3
 5908 0008 0E       		.uleb128 0xe
 5909 0009 1B       		.uleb128 0x1b
 5910 000a 0E       		.uleb128 0xe
 5911 000b 11       		.uleb128 0x11
 5912 000c 01       		.uleb128 0x1
 5913 000d 52       		.uleb128 0x52
 5914 000e 01       		.uleb128 0x1
 5915 000f 55       		.uleb128 0x55
 5916 0010 06       		.uleb128 0x6
 5917 0011 10       		.uleb128 0x10
 5918 0012 06       		.uleb128 0x6
 5919 0013 00       		.byte	0x0
 5920 0014 00       		.byte	0x0
 5921 0015 02       		.uleb128 0x2
 5922 0016 24       		.uleb128 0x24
 5923 0017 00       		.byte	0x0
 5924 0018 0B       		.uleb128 0xb
 5925 0019 0B       		.uleb128 0xb
 5926 001a 3E       		.uleb128 0x3e
 5927 001b 0B       		.uleb128 0xb
 5928 001c 03       		.uleb128 0x3
 5929 001d 0E       		.uleb128 0xe
 5930 001e 00       		.byte	0x0
 5931 001f 00       		.byte	0x0
 5932 0020 03       		.uleb128 0x3
 5933 0021 0F       		.uleb128 0xf
 5934 0022 00       		.byte	0x0
 5935 0023 0B       		.uleb128 0xb
 5936 0024 0B       		.uleb128 0xb
 5937 0025 00       		.byte	0x0
 5938 0026 00       		.byte	0x0
 5939 0027 04       		.uleb128 0x4
 5940 0028 24       		.uleb128 0x24
 5941 0029 00       		.byte	0x0
 5942 002a 0B       		.uleb128 0xb
 5943 002b 0B       		.uleb128 0xb
 5944 002c 3E       		.uleb128 0x3e
 5945 002d 0B       		.uleb128 0xb
 5946 002e 03       		.uleb128 0x3
 5947 002f 08       		.uleb128 0x8
 5948 0030 00       		.byte	0x0
 5949 0031 00       		.byte	0x0
 5950 0032 05       		.uleb128 0x5
 5951 0033 16       		.uleb128 0x16
 5952 0034 00       		.byte	0x0
 5953 0035 03       		.uleb128 0x3
 5954 0036 0E       		.uleb128 0xe
 5955 0037 3A       		.uleb128 0x3a
 5956 0038 0B       		.uleb128 0xb
 5957 0039 3B       		.uleb128 0x3b
 5958 003a 0B       		.uleb128 0xb
 5959 003b 49       		.uleb128 0x49
 5960 003c 13       		.uleb128 0x13
ARM GAS  C:\Users\karunmj\AppData\Local\Temp\ccfJuUhb.s 			page 118


 5961 003d 00       		.byte	0x0
 5962 003e 00       		.byte	0x0
 5963 003f 06       		.uleb128 0x6
 5964 0040 16       		.uleb128 0x16
 5965 0041 00       		.byte	0x0
 5966 0042 03       		.uleb128 0x3
 5967 0043 0E       		.uleb128 0xe
 5968 0044 3A       		.uleb128 0x3a
 5969 0045 0B       		.uleb128 0xb
 5970 0046 3B       		.uleb128 0x3b
 5971 0047 05       		.uleb128 0x5
 5972 0048 49       		.uleb128 0x49
 5973 0049 13       		.uleb128 0x13
 5974 004a 00       		.byte	0x0
 5975 004b 00       		.byte	0x0
 5976 004c 07       		.uleb128 0x7
 5977 004d 17       		.uleb128 0x17
 5978 004e 01       		.byte	0x1
 5979 004f 0B       		.uleb128 0xb
 5980 0050 0B       		.uleb128 0xb
 5981 0051 3A       		.uleb128 0x3a
 5982 0052 0B       		.uleb128 0xb
 5983 0053 3B       		.uleb128 0x3b
 5984 0054 0B       		.uleb128 0xb
 5985 0055 01       		.uleb128 0x1
 5986 0056 13       		.uleb128 0x13
 5987 0057 00       		.byte	0x0
 5988 0058 00       		.byte	0x0
 5989 0059 08       		.uleb128 0x8
 5990 005a 0D       		.uleb128 0xd
 5991 005b 00       		.byte	0x0
 5992 005c 03       		.uleb128 0x3
 5993 005d 0E       		.uleb128 0xe
 5994 005e 3A       		.uleb128 0x3a
 5995 005f 0B       		.uleb128 0xb
 5996 0060 3B       		.uleb128 0x3b
 5997 0061 0B       		.uleb128 0xb
 5998 0062 49       		.uleb128 0x49
 5999 0063 13       		.uleb128 0x13
 6000 0064 00       		.byte	0x0
 6001 0065 00       		.byte	0x0
 6002 0066 09       		.uleb128 0x9
 6003 0067 01       		.uleb128 0x1
 6004 0068 01       		.byte	0x1
 6005 0069 49       		.uleb128 0x49
 6006 006a 13       		.uleb128 0x13
 6007 006b 01       		.uleb128 0x1
 6008 006c 13       		.uleb128 0x13
 6009 006d 00       		.byte	0x0
 6010 006e 00       		.byte	0x0
 6011 006f 0A       		.uleb128 0xa
 6012 0070 21       		.uleb128 0x21
 6013 0071 00       		.byte	0x0
 6014 0072 49       		.uleb128 0x49
 6015 0073 13       		.uleb128 0x13
 6016 0074 2F       		.uleb128 0x2f
 6017 0075 0B       		.uleb128 0xb
ARM GAS  C:\Users\karunmj\AppData\Local\Temp\ccfJuUhb.s 			page 119


 6018 0076 00       		.byte	0x0
 6019 0077 00       		.byte	0x0
 6020 0078 0B       		.uleb128 0xb
 6021 0079 24       		.uleb128 0x24
 6022 007a 00       		.byte	0x0
 6023 007b 0B       		.uleb128 0xb
 6024 007c 0B       		.uleb128 0xb
 6025 007d 3E       		.uleb128 0x3e
 6026 007e 0B       		.uleb128 0xb
 6027 007f 00       		.byte	0x0
 6028 0080 00       		.byte	0x0
 6029 0081 0C       		.uleb128 0xc
 6030 0082 13       		.uleb128 0x13
 6031 0083 01       		.byte	0x1
 6032 0084 0B       		.uleb128 0xb
 6033 0085 0B       		.uleb128 0xb
 6034 0086 3A       		.uleb128 0x3a
 6035 0087 0B       		.uleb128 0xb
 6036 0088 3B       		.uleb128 0x3b
 6037 0089 0B       		.uleb128 0xb
 6038 008a 01       		.uleb128 0x1
 6039 008b 13       		.uleb128 0x13
 6040 008c 00       		.byte	0x0
 6041 008d 00       		.byte	0x0
 6042 008e 0D       		.uleb128 0xd
 6043 008f 0D       		.uleb128 0xd
 6044 0090 00       		.byte	0x0
 6045 0091 03       		.uleb128 0x3
 6046 0092 0E       		.uleb128 0xe
 6047 0093 3A       		.uleb128 0x3a
 6048 0094 0B       		.uleb128 0xb
 6049 0095 3B       		.uleb128 0x3b
 6050 0096 0B       		.uleb128 0xb
 6051 0097 49       		.uleb128 0x49
 6052 0098 13       		.uleb128 0x13
 6053 0099 38       		.uleb128 0x38
 6054 009a 0A       		.uleb128 0xa
 6055 009b 00       		.byte	0x0
 6056 009c 00       		.byte	0x0
 6057 009d 0E       		.uleb128 0xe
 6058 009e 13       		.uleb128 0x13
 6059 009f 01       		.byte	0x1
 6060 00a0 03       		.uleb128 0x3
 6061 00a1 0E       		.uleb128 0xe
 6062 00a2 0B       		.uleb128 0xb
 6063 00a3 0B       		.uleb128 0xb
 6064 00a4 3A       		.uleb128 0x3a
 6065 00a5 0B       		.uleb128 0xb
 6066 00a6 3B       		.uleb128 0x3b
 6067 00a7 0B       		.uleb128 0xb
 6068 00a8 01       		.uleb128 0x1
 6069 00a9 13       		.uleb128 0x13
 6070 00aa 00       		.byte	0x0
 6071 00ab 00       		.byte	0x0
 6072 00ac 0F       		.uleb128 0xf
 6073 00ad 0D       		.uleb128 0xd
 6074 00ae 00       		.byte	0x0
ARM GAS  C:\Users\karunmj\AppData\Local\Temp\ccfJuUhb.s 			page 120


 6075 00af 03       		.uleb128 0x3
 6076 00b0 08       		.uleb128 0x8
 6077 00b1 3A       		.uleb128 0x3a
 6078 00b2 0B       		.uleb128 0xb
 6079 00b3 3B       		.uleb128 0x3b
 6080 00b4 0B       		.uleb128 0xb
 6081 00b5 49       		.uleb128 0x49
 6082 00b6 13       		.uleb128 0x13
 6083 00b7 38       		.uleb128 0x38
 6084 00b8 0A       		.uleb128 0xa
 6085 00b9 00       		.byte	0x0
 6086 00ba 00       		.byte	0x0
 6087 00bb 10       		.uleb128 0x10
 6088 00bc 0F       		.uleb128 0xf
 6089 00bd 00       		.byte	0x0
 6090 00be 0B       		.uleb128 0xb
 6091 00bf 0B       		.uleb128 0xb
 6092 00c0 49       		.uleb128 0x49
 6093 00c1 13       		.uleb128 0x13
 6094 00c2 00       		.byte	0x0
 6095 00c3 00       		.byte	0x0
 6096 00c4 11       		.uleb128 0x11
 6097 00c5 13       		.uleb128 0x13
 6098 00c6 01       		.byte	0x1
 6099 00c7 03       		.uleb128 0x3
 6100 00c8 0E       		.uleb128 0xe
 6101 00c9 0B       		.uleb128 0xb
 6102 00ca 05       		.uleb128 0x5
 6103 00cb 3A       		.uleb128 0x3a
 6104 00cc 0B       		.uleb128 0xb
 6105 00cd 3B       		.uleb128 0x3b
 6106 00ce 0B       		.uleb128 0xb
 6107 00cf 01       		.uleb128 0x1
 6108 00d0 13       		.uleb128 0x13
 6109 00d1 00       		.byte	0x0
 6110 00d2 00       		.byte	0x0
 6111 00d3 12       		.uleb128 0x12
 6112 00d4 15       		.uleb128 0x15
 6113 00d5 00       		.byte	0x0
 6114 00d6 27       		.uleb128 0x27
 6115 00d7 0C       		.uleb128 0xc
 6116 00d8 00       		.byte	0x0
 6117 00d9 00       		.byte	0x0
 6118 00da 13       		.uleb128 0x13
 6119 00db 0D       		.uleb128 0xd
 6120 00dc 00       		.byte	0x0
 6121 00dd 03       		.uleb128 0x3
 6122 00de 0E       		.uleb128 0xe
 6123 00df 3A       		.uleb128 0x3a
 6124 00e0 0B       		.uleb128 0xb
 6125 00e1 3B       		.uleb128 0x3b
 6126 00e2 05       		.uleb128 0x5
 6127 00e3 49       		.uleb128 0x49
 6128 00e4 13       		.uleb128 0x13
 6129 00e5 38       		.uleb128 0x38
 6130 00e6 0A       		.uleb128 0xa
 6131 00e7 00       		.byte	0x0
ARM GAS  C:\Users\karunmj\AppData\Local\Temp\ccfJuUhb.s 			page 121


 6132 00e8 00       		.byte	0x0
 6133 00e9 14       		.uleb128 0x14
 6134 00ea 0D       		.uleb128 0xd
 6135 00eb 00       		.byte	0x0
 6136 00ec 03       		.uleb128 0x3
 6137 00ed 08       		.uleb128 0x8
 6138 00ee 3A       		.uleb128 0x3a
 6139 00ef 0B       		.uleb128 0xb
 6140 00f0 3B       		.uleb128 0x3b
 6141 00f1 05       		.uleb128 0x5
 6142 00f2 49       		.uleb128 0x49
 6143 00f3 13       		.uleb128 0x13
 6144 00f4 38       		.uleb128 0x38
 6145 00f5 0A       		.uleb128 0xa
 6146 00f6 00       		.byte	0x0
 6147 00f7 00       		.byte	0x0
 6148 00f8 15       		.uleb128 0x15
 6149 00f9 15       		.uleb128 0x15
 6150 00fa 01       		.byte	0x1
 6151 00fb 27       		.uleb128 0x27
 6152 00fc 0C       		.uleb128 0xc
 6153 00fd 49       		.uleb128 0x49
 6154 00fe 13       		.uleb128 0x13
 6155 00ff 01       		.uleb128 0x1
 6156 0100 13       		.uleb128 0x13
 6157 0101 00       		.byte	0x0
 6158 0102 00       		.byte	0x0
 6159 0103 16       		.uleb128 0x16
 6160 0104 05       		.uleb128 0x5
 6161 0105 00       		.byte	0x0
 6162 0106 49       		.uleb128 0x49
 6163 0107 13       		.uleb128 0x13
 6164 0108 00       		.byte	0x0
 6165 0109 00       		.byte	0x0
 6166 010a 17       		.uleb128 0x17
 6167 010b 26       		.uleb128 0x26
 6168 010c 00       		.byte	0x0
 6169 010d 49       		.uleb128 0x49
 6170 010e 13       		.uleb128 0x13
 6171 010f 00       		.byte	0x0
 6172 0110 00       		.byte	0x0
 6173 0111 18       		.uleb128 0x18
 6174 0112 13       		.uleb128 0x13
 6175 0113 01       		.byte	0x1
 6176 0114 03       		.uleb128 0x3
 6177 0115 0E       		.uleb128 0xe
 6178 0116 0B       		.uleb128 0xb
 6179 0117 0B       		.uleb128 0xb
 6180 0118 3A       		.uleb128 0x3a
 6181 0119 0B       		.uleb128 0xb
 6182 011a 3B       		.uleb128 0x3b
 6183 011b 05       		.uleb128 0x5
 6184 011c 01       		.uleb128 0x1
 6185 011d 13       		.uleb128 0x13
 6186 011e 00       		.byte	0x0
 6187 011f 00       		.byte	0x0
 6188 0120 19       		.uleb128 0x19
ARM GAS  C:\Users\karunmj\AppData\Local\Temp\ccfJuUhb.s 			page 122


 6189 0121 15       		.uleb128 0x15
 6190 0122 01       		.byte	0x1
 6191 0123 27       		.uleb128 0x27
 6192 0124 0C       		.uleb128 0xc
 6193 0125 01       		.uleb128 0x1
 6194 0126 13       		.uleb128 0x13
 6195 0127 00       		.byte	0x0
 6196 0128 00       		.byte	0x0
 6197 0129 1A       		.uleb128 0x1a
 6198 012a 13       		.uleb128 0x13
 6199 012b 01       		.byte	0x1
 6200 012c 03       		.uleb128 0x3
 6201 012d 08       		.uleb128 0x8
 6202 012e 0B       		.uleb128 0xb
 6203 012f 0B       		.uleb128 0xb
 6204 0130 3A       		.uleb128 0x3a
 6205 0131 0B       		.uleb128 0xb
 6206 0132 3B       		.uleb128 0x3b
 6207 0133 0B       		.uleb128 0xb
 6208 0134 01       		.uleb128 0x1
 6209 0135 13       		.uleb128 0x13
 6210 0136 00       		.byte	0x0
 6211 0137 00       		.byte	0x0
 6212 0138 1B       		.uleb128 0x1b
 6213 0139 04       		.uleb128 0x4
 6214 013a 01       		.byte	0x1
 6215 013b 0B       		.uleb128 0xb
 6216 013c 0B       		.uleb128 0xb
 6217 013d 3A       		.uleb128 0x3a
 6218 013e 0B       		.uleb128 0xb
 6219 013f 3B       		.uleb128 0x3b
 6220 0140 0B       		.uleb128 0xb
 6221 0141 01       		.uleb128 0x1
 6222 0142 13       		.uleb128 0x13
 6223 0143 00       		.byte	0x0
 6224 0144 00       		.byte	0x0
 6225 0145 1C       		.uleb128 0x1c
 6226 0146 28       		.uleb128 0x28
 6227 0147 00       		.byte	0x0
 6228 0148 03       		.uleb128 0x3
 6229 0149 08       		.uleb128 0x8
 6230 014a 1C       		.uleb128 0x1c
 6231 014b 0D       		.uleb128 0xd
 6232 014c 00       		.byte	0x0
 6233 014d 00       		.byte	0x0
 6234 014e 1D       		.uleb128 0x1d
 6235 014f 28       		.uleb128 0x28
 6236 0150 00       		.byte	0x0
 6237 0151 03       		.uleb128 0x3
 6238 0152 0E       		.uleb128 0xe
 6239 0153 1C       		.uleb128 0x1c
 6240 0154 0D       		.uleb128 0xd
 6241 0155 00       		.byte	0x0
 6242 0156 00       		.byte	0x0
 6243 0157 1E       		.uleb128 0x1e
 6244 0158 2E       		.uleb128 0x2e
 6245 0159 01       		.byte	0x1
ARM GAS  C:\Users\karunmj\AppData\Local\Temp\ccfJuUhb.s 			page 123


 6246 015a 03       		.uleb128 0x3
 6247 015b 0E       		.uleb128 0xe
 6248 015c 3A       		.uleb128 0x3a
 6249 015d 0B       		.uleb128 0xb
 6250 015e 3B       		.uleb128 0x3b
 6251 015f 0B       		.uleb128 0xb
 6252 0160 27       		.uleb128 0x27
 6253 0161 0C       		.uleb128 0xc
 6254 0162 11       		.uleb128 0x11
 6255 0163 01       		.uleb128 0x1
 6256 0164 12       		.uleb128 0x12
 6257 0165 01       		.uleb128 0x1
 6258 0166 40       		.uleb128 0x40
 6259 0167 06       		.uleb128 0x6
 6260 0168 01       		.uleb128 0x1
 6261 0169 13       		.uleb128 0x13
 6262 016a 00       		.byte	0x0
 6263 016b 00       		.byte	0x0
 6264 016c 1F       		.uleb128 0x1f
 6265 016d 05       		.uleb128 0x5
 6266 016e 00       		.byte	0x0
 6267 016f 03       		.uleb128 0x3
 6268 0170 08       		.uleb128 0x8
 6269 0171 3A       		.uleb128 0x3a
 6270 0172 0B       		.uleb128 0xb
 6271 0173 3B       		.uleb128 0x3b
 6272 0174 0B       		.uleb128 0xb
 6273 0175 49       		.uleb128 0x49
 6274 0176 13       		.uleb128 0x13
 6275 0177 02       		.uleb128 0x2
 6276 0178 0A       		.uleb128 0xa
 6277 0179 00       		.byte	0x0
 6278 017a 00       		.byte	0x0
 6279 017b 20       		.uleb128 0x20
 6280 017c 34       		.uleb128 0x34
 6281 017d 00       		.byte	0x0
 6282 017e 03       		.uleb128 0x3
 6283 017f 08       		.uleb128 0x8
 6284 0180 3A       		.uleb128 0x3a
 6285 0181 0B       		.uleb128 0xb
 6286 0182 3B       		.uleb128 0x3b
 6287 0183 0B       		.uleb128 0xb
 6288 0184 49       		.uleb128 0x49
 6289 0185 13       		.uleb128 0x13
 6290 0186 02       		.uleb128 0x2
 6291 0187 0A       		.uleb128 0xa
 6292 0188 00       		.byte	0x0
 6293 0189 00       		.byte	0x0
 6294 018a 21       		.uleb128 0x21
 6295 018b 2E       		.uleb128 0x2e
 6296 018c 01       		.byte	0x1
 6297 018d 3F       		.uleb128 0x3f
 6298 018e 0C       		.uleb128 0xc
 6299 018f 03       		.uleb128 0x3
 6300 0190 0E       		.uleb128 0xe
 6301 0191 3A       		.uleb128 0x3a
 6302 0192 0B       		.uleb128 0xb
ARM GAS  C:\Users\karunmj\AppData\Local\Temp\ccfJuUhb.s 			page 124


 6303 0193 3B       		.uleb128 0x3b
 6304 0194 0B       		.uleb128 0xb
 6305 0195 27       		.uleb128 0x27
 6306 0196 0C       		.uleb128 0xc
 6307 0197 11       		.uleb128 0x11
 6308 0198 01       		.uleb128 0x1
 6309 0199 12       		.uleb128 0x12
 6310 019a 01       		.uleb128 0x1
 6311 019b 40       		.uleb128 0x40
 6312 019c 06       		.uleb128 0x6
 6313 019d 01       		.uleb128 0x1
 6314 019e 13       		.uleb128 0x13
 6315 019f 00       		.byte	0x0
 6316 01a0 00       		.byte	0x0
 6317 01a1 22       		.uleb128 0x22
 6318 01a2 26       		.uleb128 0x26
 6319 01a3 00       		.byte	0x0
 6320 01a4 03       		.uleb128 0x3
 6321 01a5 0E       		.uleb128 0xe
 6322 01a6 49       		.uleb128 0x49
 6323 01a7 13       		.uleb128 0x13
 6324 01a8 00       		.byte	0x0
 6325 01a9 00       		.byte	0x0
 6326 01aa 23       		.uleb128 0x23
 6327 01ab 05       		.uleb128 0x5
 6328 01ac 00       		.byte	0x0
 6329 01ad 03       		.uleb128 0x3
 6330 01ae 0E       		.uleb128 0xe
 6331 01af 3A       		.uleb128 0x3a
 6332 01b0 0B       		.uleb128 0xb
 6333 01b1 3B       		.uleb128 0x3b
 6334 01b2 0B       		.uleb128 0xb
 6335 01b3 49       		.uleb128 0x49
 6336 01b4 13       		.uleb128 0x13
 6337 01b5 02       		.uleb128 0x2
 6338 01b6 0A       		.uleb128 0xa
 6339 01b7 00       		.byte	0x0
 6340 01b8 00       		.byte	0x0
 6341 01b9 24       		.uleb128 0x24
 6342 01ba 34       		.uleb128 0x34
 6343 01bb 00       		.byte	0x0
 6344 01bc 03       		.uleb128 0x3
 6345 01bd 0E       		.uleb128 0xe
 6346 01be 49       		.uleb128 0x49
 6347 01bf 13       		.uleb128 0x13
 6348 01c0 34       		.uleb128 0x34
 6349 01c1 0C       		.uleb128 0xc
 6350 01c2 02       		.uleb128 0x2
 6351 01c3 0A       		.uleb128 0xa
 6352 01c4 00       		.byte	0x0
 6353 01c5 00       		.byte	0x0
 6354 01c6 25       		.uleb128 0x25
 6355 01c7 34       		.uleb128 0x34
 6356 01c8 00       		.byte	0x0
 6357 01c9 03       		.uleb128 0x3
 6358 01ca 0E       		.uleb128 0xe
 6359 01cb 3A       		.uleb128 0x3a
ARM GAS  C:\Users\karunmj\AppData\Local\Temp\ccfJuUhb.s 			page 125


 6360 01cc 0B       		.uleb128 0xb
 6361 01cd 3B       		.uleb128 0x3b
 6362 01ce 0B       		.uleb128 0xb
 6363 01cf 49       		.uleb128 0x49
 6364 01d0 13       		.uleb128 0x13
 6365 01d1 02       		.uleb128 0x2
 6366 01d2 0A       		.uleb128 0xa
 6367 01d3 00       		.byte	0x0
 6368 01d4 00       		.byte	0x0
 6369 01d5 26       		.uleb128 0x26
 6370 01d6 2E       		.uleb128 0x2e
 6371 01d7 01       		.byte	0x1
 6372 01d8 03       		.uleb128 0x3
 6373 01d9 0E       		.uleb128 0xe
 6374 01da 3A       		.uleb128 0x3a
 6375 01db 0B       		.uleb128 0xb
 6376 01dc 3B       		.uleb128 0x3b
 6377 01dd 0B       		.uleb128 0xb
 6378 01de 27       		.uleb128 0x27
 6379 01df 0C       		.uleb128 0xc
 6380 01e0 49       		.uleb128 0x49
 6381 01e1 13       		.uleb128 0x13
 6382 01e2 11       		.uleb128 0x11
 6383 01e3 01       		.uleb128 0x1
 6384 01e4 12       		.uleb128 0x12
 6385 01e5 01       		.uleb128 0x1
 6386 01e6 40       		.uleb128 0x40
 6387 01e7 06       		.uleb128 0x6
 6388 01e8 01       		.uleb128 0x1
 6389 01e9 13       		.uleb128 0x13
 6390 01ea 00       		.byte	0x0
 6391 01eb 00       		.byte	0x0
 6392 01ec 27       		.uleb128 0x27
 6393 01ed 2E       		.uleb128 0x2e
 6394 01ee 01       		.byte	0x1
 6395 01ef 03       		.uleb128 0x3
 6396 01f0 0E       		.uleb128 0xe
 6397 01f1 3A       		.uleb128 0x3a
 6398 01f2 0B       		.uleb128 0xb
 6399 01f3 3B       		.uleb128 0x3b
 6400 01f4 05       		.uleb128 0x5
 6401 01f5 27       		.uleb128 0x27
 6402 01f6 0C       		.uleb128 0xc
 6403 01f7 11       		.uleb128 0x11
 6404 01f8 01       		.uleb128 0x1
 6405 01f9 12       		.uleb128 0x12
 6406 01fa 01       		.uleb128 0x1
 6407 01fb 40       		.uleb128 0x40
 6408 01fc 06       		.uleb128 0x6
 6409 01fd 01       		.uleb128 0x1
 6410 01fe 13       		.uleb128 0x13
 6411 01ff 00       		.byte	0x0
 6412 0200 00       		.byte	0x0
 6413 0201 28       		.uleb128 0x28
 6414 0202 05       		.uleb128 0x5
 6415 0203 00       		.byte	0x0
 6416 0204 03       		.uleb128 0x3
ARM GAS  C:\Users\karunmj\AppData\Local\Temp\ccfJuUhb.s 			page 126


 6417 0205 08       		.uleb128 0x8
 6418 0206 3A       		.uleb128 0x3a
 6419 0207 0B       		.uleb128 0xb
 6420 0208 3B       		.uleb128 0x3b
 6421 0209 05       		.uleb128 0x5
 6422 020a 49       		.uleb128 0x49
 6423 020b 13       		.uleb128 0x13
 6424 020c 02       		.uleb128 0x2
 6425 020d 0A       		.uleb128 0xa
 6426 020e 00       		.byte	0x0
 6427 020f 00       		.byte	0x0
 6428 0210 29       		.uleb128 0x29
 6429 0211 05       		.uleb128 0x5
 6430 0212 00       		.byte	0x0
 6431 0213 03       		.uleb128 0x3
 6432 0214 0E       		.uleb128 0xe
 6433 0215 3A       		.uleb128 0x3a
 6434 0216 0B       		.uleb128 0xb
 6435 0217 3B       		.uleb128 0x3b
 6436 0218 05       		.uleb128 0x5
 6437 0219 49       		.uleb128 0x49
 6438 021a 13       		.uleb128 0x13
 6439 021b 02       		.uleb128 0x2
 6440 021c 0A       		.uleb128 0xa
 6441 021d 00       		.byte	0x0
 6442 021e 00       		.byte	0x0
 6443 021f 2A       		.uleb128 0x2a
 6444 0220 34       		.uleb128 0x34
 6445 0221 00       		.byte	0x0
 6446 0222 03       		.uleb128 0x3
 6447 0223 08       		.uleb128 0x8
 6448 0224 3A       		.uleb128 0x3a
 6449 0225 0B       		.uleb128 0xb
 6450 0226 3B       		.uleb128 0x3b
 6451 0227 05       		.uleb128 0x5
 6452 0228 49       		.uleb128 0x49
 6453 0229 13       		.uleb128 0x13
 6454 022a 02       		.uleb128 0x2
 6455 022b 0A       		.uleb128 0xa
 6456 022c 00       		.byte	0x0
 6457 022d 00       		.byte	0x0
 6458 022e 2B       		.uleb128 0x2b
 6459 022f 34       		.uleb128 0x34
 6460 0230 00       		.byte	0x0
 6461 0231 03       		.uleb128 0x3
 6462 0232 0E       		.uleb128 0xe
 6463 0233 3A       		.uleb128 0x3a
 6464 0234 0B       		.uleb128 0xb
 6465 0235 3B       		.uleb128 0x3b
 6466 0236 05       		.uleb128 0x5
 6467 0237 49       		.uleb128 0x49
 6468 0238 13       		.uleb128 0x13
 6469 0239 02       		.uleb128 0x2
 6470 023a 0A       		.uleb128 0xa
 6471 023b 00       		.byte	0x0
 6472 023c 00       		.byte	0x0
 6473 023d 2C       		.uleb128 0x2c
ARM GAS  C:\Users\karunmj\AppData\Local\Temp\ccfJuUhb.s 			page 127


 6474 023e 2E       		.uleb128 0x2e
 6475 023f 01       		.byte	0x1
 6476 0240 3F       		.uleb128 0x3f
 6477 0241 0C       		.uleb128 0xc
 6478 0242 03       		.uleb128 0x3
 6479 0243 0E       		.uleb128 0xe
 6480 0244 3A       		.uleb128 0x3a
 6481 0245 0B       		.uleb128 0xb
 6482 0246 3B       		.uleb128 0x3b
 6483 0247 05       		.uleb128 0x5
 6484 0248 27       		.uleb128 0x27
 6485 0249 0C       		.uleb128 0xc
 6486 024a 49       		.uleb128 0x49
 6487 024b 13       		.uleb128 0x13
 6488 024c 11       		.uleb128 0x11
 6489 024d 01       		.uleb128 0x1
 6490 024e 12       		.uleb128 0x12
 6491 024f 01       		.uleb128 0x1
 6492 0250 40       		.uleb128 0x40
 6493 0251 06       		.uleb128 0x6
 6494 0252 01       		.uleb128 0x1
 6495 0253 13       		.uleb128 0x13
 6496 0254 00       		.byte	0x0
 6497 0255 00       		.byte	0x0
 6498 0256 2D       		.uleb128 0x2d
 6499 0257 2E       		.uleb128 0x2e
 6500 0258 01       		.byte	0x1
 6501 0259 03       		.uleb128 0x3
 6502 025a 0E       		.uleb128 0xe
 6503 025b 3A       		.uleb128 0x3a
 6504 025c 0B       		.uleb128 0xb
 6505 025d 3B       		.uleb128 0x3b
 6506 025e 05       		.uleb128 0x5
 6507 025f 27       		.uleb128 0x27
 6508 0260 0C       		.uleb128 0xc
 6509 0261 49       		.uleb128 0x49
 6510 0262 13       		.uleb128 0x13
 6511 0263 11       		.uleb128 0x11
 6512 0264 01       		.uleb128 0x1
 6513 0265 12       		.uleb128 0x12
 6514 0266 01       		.uleb128 0x1
 6515 0267 40       		.uleb128 0x40
 6516 0268 06       		.uleb128 0x6
 6517 0269 01       		.uleb128 0x1
 6518 026a 13       		.uleb128 0x13
 6519 026b 00       		.byte	0x0
 6520 026c 00       		.byte	0x0
 6521 026d 2E       		.uleb128 0x2e
 6522 026e 34       		.uleb128 0x34
 6523 026f 00       		.byte	0x0
 6524 0270 03       		.uleb128 0x3
 6525 0271 0E       		.uleb128 0xe
 6526 0272 3A       		.uleb128 0x3a
 6527 0273 0B       		.uleb128 0xb
 6528 0274 3B       		.uleb128 0x3b
 6529 0275 0B       		.uleb128 0xb
 6530 0276 49       		.uleb128 0x49
ARM GAS  C:\Users\karunmj\AppData\Local\Temp\ccfJuUhb.s 			page 128


 6531 0277 13       		.uleb128 0x13
 6532 0278 3F       		.uleb128 0x3f
 6533 0279 0C       		.uleb128 0xc
 6534 027a 3C       		.uleb128 0x3c
 6535 027b 0C       		.uleb128 0xc
 6536 027c 00       		.byte	0x0
 6537 027d 00       		.byte	0x0
 6538 027e 00       		.byte	0x0
 6539              		.section	.debug_pubnames,"",%progbits
 6540 0000 3C000000 		.4byte	0x3c
 6541 0004 0200     		.2byte	0x2
 6542 0006 00000000 		.4byte	.Ldebug_info0
 6543 000a B0110000 		.4byte	0x11b0
 6544 000e 590A0000 		.4byte	0xa59
 6545 0012 736C7265 		.ascii	"slre_dump\000"
 6545      5F64756D 
 6545      7000
 6546 001c 140E0000 		.4byte	0xe14
 6547 0020 736C7265 		.ascii	"slre_compile\000"
 6547      5F636F6D 
 6547      70696C65 
 6547      00
 6548 002d EC100000 		.4byte	0x10ec
 6549 0031 736C7265 		.ascii	"slre_match\000"
 6549      5F6D6174 
 6549      636800
 6550 003c 00000000 		.4byte	0x0
 6551              		.section	.debug_aranges,"",%progbits
 6552 0000 B4000000 		.4byte	0xb4
 6553 0004 0200     		.2byte	0x2
 6554 0006 00000000 		.4byte	.Ldebug_info0
 6555 000a 04       		.byte	0x4
 6556 000b 00       		.byte	0x0
 6557 000c 0000     		.2byte	0x0
 6558 000e 0000     		.2byte	0x0
 6559 0010 00000000 		.4byte	.LFB0
 6560 0014 EE000000 		.4byte	.LFE0-.LFB0
 6561 0018 00000000 		.4byte	.LFB1
 6562 001c F4010000 		.4byte	.LFE1-.LFB1
 6563 0020 00000000 		.4byte	.LFB2
 6564 0024 78000000 		.4byte	.LFE2-.LFB2
 6565 0028 00000000 		.4byte	.LFB3
 6566 002c 46000000 		.4byte	.LFE3-.LFB3
 6567 0030 00000000 		.4byte	.LFB4
 6568 0034 4A000000 		.4byte	.LFE4-.LFB4
 6569 0038 00000000 		.4byte	.LFB5
 6570 003c 80000000 		.4byte	.LFE5-.LFB5
 6571 0040 00000000 		.4byte	.LFB6
 6572 0044 8E010000 		.4byte	.LFE6-.LFB6
 6573 0048 00000000 		.4byte	.LFB7
 6574 004c E0000000 		.4byte	.LFE7-.LFB7
 6575 0050 00000000 		.4byte	.LFB8
 6576 0054 56000000 		.4byte	.LFE8-.LFB8
 6577 0058 00000000 		.4byte	.LFB9
 6578 005c A6000000 		.4byte	.LFE9-.LFB9
 6579 0060 00000000 		.4byte	.LFB10
 6580 0064 3C000000 		.4byte	.LFE10-.LFB10
ARM GAS  C:\Users\karunmj\AppData\Local\Temp\ccfJuUhb.s 			page 129


 6581 0068 00000000 		.4byte	.LFB11
 6582 006c 32000000 		.4byte	.LFE11-.LFB11
 6583 0070 00000000 		.4byte	.LFB12
 6584 0074 68020000 		.4byte	.LFE12-.LFB12
 6585 0078 00000000 		.4byte	.LFB13
 6586 007c CA000000 		.4byte	.LFE13-.LFB13
 6587 0080 00000000 		.4byte	.LFB14
 6588 0084 86000000 		.4byte	.LFE14-.LFB14
 6589 0088 00000000 		.4byte	.LFB15
 6590 008c 7C000000 		.4byte	.LFE15-.LFB15
 6591 0090 00000000 		.4byte	.LFB16
 6592 0094 66000000 		.4byte	.LFE16-.LFB16
 6593 0098 00000000 		.4byte	.LFB17
 6594 009c 66000000 		.4byte	.LFE17-.LFB17
 6595 00a0 00000000 		.4byte	.LFB18
 6596 00a4 7A050000 		.4byte	.LFE18-.LFB18
 6597 00a8 00000000 		.4byte	.LFB19
 6598 00ac 8C000000 		.4byte	.LFE19-.LFB19
 6599 00b0 00000000 		.4byte	0x0
 6600 00b4 00000000 		.4byte	0x0
 6601              		.section	.debug_ranges,"",%progbits
 6602              	.Ldebug_ranges0:
 6603 0000 00000000 		.4byte	.Ltext0
 6604 0004 00000000 		.4byte	.Letext0
 6605 0008 00000000 		.4byte	.LFB0
 6606 000c EE000000 		.4byte	.LFE0
 6607 0010 00000000 		.4byte	.LFB1
 6608 0014 F4010000 		.4byte	.LFE1
 6609 0018 00000000 		.4byte	.LFB2
 6610 001c 78000000 		.4byte	.LFE2
 6611 0020 00000000 		.4byte	.LFB3
 6612 0024 46000000 		.4byte	.LFE3
 6613 0028 00000000 		.4byte	.LFB4
 6614 002c 4A000000 		.4byte	.LFE4
 6615 0030 00000000 		.4byte	.LFB5
 6616 0034 80000000 		.4byte	.LFE5
 6617 0038 00000000 		.4byte	.LFB6
 6618 003c 8E010000 		.4byte	.LFE6
 6619 0040 00000000 		.4byte	.LFB7
 6620 0044 E0000000 		.4byte	.LFE7
 6621 0048 00000000 		.4byte	.LFB8
 6622 004c 56000000 		.4byte	.LFE8
 6623 0050 00000000 		.4byte	.LFB9
 6624 0054 A6000000 		.4byte	.LFE9
 6625 0058 00000000 		.4byte	.LFB10
 6626 005c 3C000000 		.4byte	.LFE10
 6627 0060 00000000 		.4byte	.LFB11
 6628 0064 32000000 		.4byte	.LFE11
 6629 0068 00000000 		.4byte	.LFB12
 6630 006c 68020000 		.4byte	.LFE12
 6631 0070 00000000 		.4byte	.LFB13
 6632 0074 CA000000 		.4byte	.LFE13
 6633 0078 00000000 		.4byte	.LFB14
 6634 007c 86000000 		.4byte	.LFE14
 6635 0080 00000000 		.4byte	.LFB15
 6636 0084 7C000000 		.4byte	.LFE15
 6637 0088 00000000 		.4byte	.LFB16
ARM GAS  C:\Users\karunmj\AppData\Local\Temp\ccfJuUhb.s 			page 130


 6638 008c 66000000 		.4byte	.LFE16
 6639 0090 00000000 		.4byte	.LFB17
 6640 0094 66000000 		.4byte	.LFE17
 6641 0098 00000000 		.4byte	.LFB18
 6642 009c 7A050000 		.4byte	.LFE18
 6643 00a0 00000000 		.4byte	.LFB19
 6644 00a4 8C000000 		.4byte	.LFE19
 6645 00a8 00000000 		.4byte	0x0
 6646 00ac 00000000 		.4byte	0x0
 6647              		.section	.debug_str,"MS",%progbits,1
 6648              	.LASF36:
 6649 0000 5F64736F 		.ascii	"_dso_handle\000"
 6649      5F68616E 
 6649      646C6500 
 6650              	.LASF133:
 6651 000c 53504143 		.ascii	"SPACE\000"
 6651      4500
 6652              	.LASF168:
 6653 0012 63617073 		.ascii	"caps\000"
 6653      00
 6654              	.LASF45:
 6655 0017 5F73697A 		.ascii	"_size\000"
 6655      6500
 6656              	.LASF137:
 6657 001d 6E617267 		.ascii	"narg\000"
 6657      00
 6658              	.LASF91:
 6659 0022 5F72616E 		.ascii	"_rand48\000"
 6659      64343800 
 6660              	.LASF52:
 6661 002a 5F656D65 		.ascii	"_emergency\000"
 6661      7267656E 
 6661      637900
 6662              	.LASF175:
 6663 0035 2E5C736C 		.ascii	".\\slre.c\000"
 6663      72652E63 
 6663      00
 6664              	.LASF151:
 6665 003e 70726576 		.ascii	"prev\000"
 6665      00
 6666              	.LASF64:
 6667 0043 5F617465 		.ascii	"_atexit0\000"
 6667      78697430 
 6667      00
 6668              	.LASF164:
 6669 004c 6765745F 		.ascii	"get_escape_char\000"
 6669      65736361 
 6669      70655F63 
 6669      68617200 
 6670              	.LASF131:
 6671 005c 504C5553 		.ascii	"PLUSQ\000"
 6671      5100
 6672              	.LASF135:
 6673 0062 44494749 		.ascii	"DIGIT\000"
 6673      5400
 6674              	.LASF111:
 6675 0068 5F776372 		.ascii	"_wcrtomb_state\000"
ARM GAS  C:\Users\karunmj\AppData\Local\Temp\ccfJuUhb.s 			page 131


 6675      746F6D62 
 6675      5F737461 
 6675      746500
 6676              	.LASF112:
 6677 0077 5F776373 		.ascii	"_wcsrtombs_state\000"
 6677      72746F6D 
 6677      62735F73 
 6677      74617465 
 6677      00
 6678              	.LASF6:
 6679 0088 6C6F6E67 		.ascii	"long long unsigned int\000"
 6679      206C6F6E 
 6679      6720756E 
 6679      7369676E 
 6679      65642069 
 6680              	.LASF72:
 6681 009f 5F6C6266 		.ascii	"_lbfsize\000"
 6681      73697A65 
 6681      00
 6682              	.LASF174:
 6683 00a8 474E5520 		.ascii	"GNU C 4.4.1\000"
 6683      4320342E 
 6683      342E3100 
 6684              	.LASF109:
 6685 00b4 5F6D6272 		.ascii	"_mbrtowc_state\000"
 6685      746F7763 
 6685      5F737461 
 6685      746500
 6686              	.LASF104:
 6687 00c3 5F776374 		.ascii	"_wctomb_state\000"
 6687      6F6D625F 
 6687      73746174 
 6687      6500
 6688              	.LASF25:
 6689 00d1 5F5F746D 		.ascii	"__tm_sec\000"
 6689      5F736563 
 6689      00
 6690              	.LASF5:
 6691 00da 6C6F6E67 		.ascii	"long long int\000"
 6691      206C6F6E 
 6691      6720696E 
 6691      7400
 6692              	.LASF1:
 6693 00e8 7369676E 		.ascii	"signed char\000"
 6693      65642063 
 6693      68617200 
 6694              	.LASF161:
 6695 00f4 73617665 		.ascii	"saved_offset\000"
 6695      645F6F66 
 6695      66736574 
 6695      00
 6696              	.LASF124:
 6697 0101 414E594F 		.ascii	"ANYOF\000"
 6697      4600
 6698              	.LASF166:
 6699 0107 69735F61 		.ascii	"is_any_but\000"
 6699      6E795F62 
ARM GAS  C:\Users\karunmj\AppData\Local\Temp\ccfJuUhb.s 			page 132


 6699      757400
 6700              	.LASF79:
 6701 0112 5F756275 		.ascii	"_ubuf\000"
 6701      6600
 6702              	.LASF44:
 6703 0118 5F626173 		.ascii	"_base\000"
 6703      6500
 6704              	.LASF27:
 6705 011e 5F5F746D 		.ascii	"__tm_hour\000"
 6705      5F686F75 
 6705      7200
 6706              	.LASF66:
 6707 0128 5F5F7366 		.ascii	"__sf\000"
 6707      00
 6708              	.LASF34:
 6709 012d 5F6F6E5F 		.ascii	"_on_exit_args\000"
 6709      65786974 
 6709      5F617267 
 6709      7300
 6710              	.LASF74:
 6711 013b 5F636F6F 		.ascii	"_cookie\000"
 6711      6B696500 
 6712              	.LASF65:
 6713 0143 5F5F7367 		.ascii	"__sglue\000"
 6713      6C756500 
 6714              	.LASF7:
 6715 014b 6C6F6E67 		.ascii	"long int\000"
 6715      20696E74 
 6715      00
 6716              	.LASF159:
 6717 0154 6C657665 		.ascii	"level\000"
 6717      6C00
 6718              	.LASF96:
 6719 015a 5F6D7072 		.ascii	"_mprec\000"
 6719      656300
 6720              	.LASF70:
 6721 0161 5F666C61 		.ascii	"_flags\000"
 6721      677300
 6722              	.LASF38:
 6723 0168 5F69735F 		.ascii	"_is_cxa\000"
 6723      63786100 
 6724              	.LASF48:
 6725 0170 5F737464 		.ascii	"_stdin\000"
 6725      696E00
 6726              	.LASF177:
 6727 0177 736C7265 		.ascii	"slre_dump\000"
 6727      5F64756D 
 6727      7000
 6728              	.LASF81:
 6729 0181 5F626C6B 		.ascii	"_blksize\000"
 6729      73697A65 
 6729      00
 6730              	.LASF150:
 6731 018a 7175616E 		.ascii	"quantifier\000"
 6731      74696669 
 6731      657200
 6732              	.LASF146:
ARM GAS  C:\Users\karunmj\AppData\Local\Temp\ccfJuUhb.s 			page 133


 6733 0195 616E796F 		.ascii	"anyof\000"
 6733      6600
 6734              	.LASF59:
 6735 019b 5F637674 		.ascii	"_cvtbuf\000"
 6735      62756600 
 6736              	.LASF82:
 6737 01a3 5F6F6666 		.ascii	"_offset\000"
 6737      73657400 
 6738              	.LASF120:
 6739 01ab 616E6368 		.ascii	"anchored\000"
 6739      6F726564 
 6739      00
 6740              	.LASF149:
 6741 01b4 73686966 		.ascii	"shift\000"
 6741      7400
 6742              	.LASF110:
 6743 01ba 5F6D6273 		.ascii	"_mbsrtowcs_state\000"
 6743      72746F77 
 6743      63735F73 
 6743      74617465 
 6743      00
 6744              	.LASF173:
 6745 01cb 6D657461 		.ascii	"meta_chars\000"
 6745      5F636861 
 6745      727300
 6746              	.LASF108:
 6747 01d6 5F6D6272 		.ascii	"_mbrlen_state\000"
 6747      6C656E5F 
 6747      73746174 
 6747      6500
 6748              	.LASF35:
 6749 01e4 5F666E61 		.ascii	"_fnargs\000"
 6749      72677300 
 6750              	.LASF129:
 6751 01ec 504C5553 		.ascii	"PLUS\000"
 6751      00
 6752              	.LASF41:
 6753 01f1 5F666E73 		.ascii	"_fns\000"
 6753      00
 6754              	.LASF21:
 6755 01f6 5F736967 		.ascii	"_sign\000"
 6755      6E00
 6756              	.LASF121:
 6757 01fc 6572725F 		.ascii	"err_str\000"
 6757      73747200 
 6758              	.LASF152:
 6759 0204 65786163 		.ascii	"exact_one_char\000"
 6759      745F6F6E 
 6759      655F6368 
 6759      617200
 6760              	.LASF16:
 6761 0213 5F666C6F 		.ascii	"_flock_t\000"
 6761      636B5F74 
 6761      00
 6762              	.LASF50:
 6763 021c 5F737464 		.ascii	"_stderr\000"
 6763      65727200 
ARM GAS  C:\Users\karunmj\AppData\Local\Temp\ccfJuUhb.s 			page 134


 6764              	.LASF23:
 6765 0224 5F426967 		.ascii	"_Bigint\000"
 6765      696E7400 
 6766              	.LASF155:
 6767 022c 636F6D70 		.ascii	"compile\000"
 6767      696C6500 
 6768              	.LASF75:
 6769 0234 5F726561 		.ascii	"_read\000"
 6769      6400
 6770              	.LASF98:
 6771 023a 5F726573 		.ascii	"_result_k\000"
 6771      756C745F 
 6771      6B00
 6772              	.LASF171:
 6773 0244 736C7265 		.ascii	"slre_match\000"
 6773      5F6D6174 
 6773      636800
 6774              	.LASF24:
 6775 024f 5F5F746D 		.ascii	"__tm\000"
 6775      00
 6776              	.LASF42:
 6777 0254 5F6F6E5F 		.ascii	"_on_exit_args_ptr\000"
 6777      65786974 
 6777      5F617267 
 6777      735F7074 
 6777      7200
 6778              	.LASF145:
 6779 0266 6F6C645F 		.ascii	"old_data_size\000"
 6779      64617461 
 6779      5F73697A 
 6779      6500
 6780              	.LASF0:
 6781 0274 756E7369 		.ascii	"unsigned int\000"
 6781      676E6564 
 6781      20696E74 
 6781      00
 6782              	.LASF12:
 6783 0281 5F5F7763 		.ascii	"__wchb\000"
 6783      686200
 6784              	.LASF170:
 6785 0288 736C7265 		.ascii	"slre_compile\000"
 6785      5F636F6D 
 6785      70696C65 
 6785      00
 6786              	.LASF148:
 6787 0295 62656769 		.ascii	"begin\000"
 6787      6E00
 6788              	.LASF49:
 6789 029b 5F737464 		.ascii	"_stdout\000"
 6789      6F757400 
 6790              	.LASF54:
 6791 02a3 5F637572 		.ascii	"_current_category\000"
 6791      72656E74 
 6791      5F636174 
 6791      65676F72 
 6791      7900
 6792              	.LASF58:
ARM GAS  C:\Users\karunmj\AppData\Local\Temp\ccfJuUhb.s 			page 135


 6793 02b5 5F637674 		.ascii	"_cvtlen\000"
 6793      6C656E00 
 6794              	.LASF123:
 6795 02bd 45584143 		.ascii	"EXACT\000"
 6795      5400
 6796              	.LASF18:
 6797 02c3 6C6F6E67 		.ascii	"long unsigned int\000"
 6797      20756E73 
 6797      69676E65 
 6797      6420696E 
 6797      7400
 6798              	.LASF60:
 6799 02d5 5F723438 		.ascii	"_r48\000"
 6799      00
 6800              	.LASF119:
 6801 02da 6E756D5F 		.ascii	"num_caps\000"
 6801      63617073 
 6801      00
 6802              	.LASF169:
 6803 02e3 5F5F4655 		.ascii	"__FUNCTION__\000"
 6803      4E435449 
 6803      4F4E5F5F 
 6803      00
 6804              	.LASF125:
 6805 02f0 414E5942 		.ascii	"ANYBUT\000"
 6805      555400
 6806              	.LASF73:
 6807 02f7 5F646174 		.ascii	"_data\000"
 6807      6100
 6808              	.LASF165:
 6809 02fd 69735F61 		.ascii	"is_any_of\000"
 6809      6E795F6F 
 6809      6600
 6810              	.LASF89:
 6811 0307 5F6E696F 		.ascii	"_niobs\000"
 6811      627300
 6812              	.LASF136:
 6813 030e 6E616D65 		.ascii	"name\000"
 6813      00
 6814              	.LASF116:
 6815 0313 64617461 		.ascii	"data\000"
 6815      00
 6816              	.LASF4:
 6817 0318 73686F72 		.ascii	"short unsigned int\000"
 6817      7420756E 
 6817      7369676E 
 6817      65642069 
 6817      6E7400
 6818              	.LASF68:
 6819 032b 5F736967 		.ascii	"_signal_buf\000"
 6819      6E616C5F 
 6819      62756600 
 6820              	.LASF62:
 6821 0337 5F617363 		.ascii	"_asctime_buf\000"
 6821      74696D65 
 6821      5F627566 
 6821      00
ARM GAS  C:\Users\karunmj\AppData\Local\Temp\ccfJuUhb.s 			page 136


 6822              	.LASF97:
 6823 0344 5F726573 		.ascii	"_result\000"
 6823      756C7400 
 6824              	.LASF11:
 6825 034c 5F5F7763 		.ascii	"__wch\000"
 6825      6800
 6826              	.LASF10:
 6827 0352 77696E74 		.ascii	"wint_t\000"
 6827      5F7400
 6828              	.LASF140:
 6829 0359 7365745F 		.ascii	"set_jump_offset\000"
 6829      6A756D70 
 6829      5F6F6666 
 6829      73657400 
 6830              	.LASF83:
 6831 0369 5F6C6F63 		.ascii	"_lock\000"
 6831      6B00
 6832              	.LASF85:
 6833 036f 5F666C61 		.ascii	"_flags2\000"
 6833      67733200 
 6834              	.LASF113:
 6835 0377 46494C45 		.ascii	"FILE\000"
 6835      00
 6836              	.LASF143:
 6837 037c 73746F72 		.ascii	"store_char_in_data\000"
 6837      655F6368 
 6837      61725F69 
 6837      6E5F6461 
 6837      746100
 6838              	.LASF76:
 6839 038f 5F777269 		.ascii	"_write\000"
 6839      746500
 6840              	.LASF30:
 6841 0396 5F5F746D 		.ascii	"__tm_year\000"
 6841      5F796561 
 6841      7200
 6842              	.LASF162:
 6843 03a0 6D617463 		.ascii	"matched_offset\000"
 6843      6865645F 
 6843      6F666673 
 6843      657400
 6844              	.LASF67:
 6845 03af 5F6D6973 		.ascii	"_misc\000"
 6845      6300
 6846              	.LASF172:
 6847 03b5 6F70636F 		.ascii	"opcodes\000"
 6847      64657300 
 6848              	.LASF167:
 6849 03bd 6D617463 		.ascii	"match\000"
 6849      6800
 6850              	.LASF126:
 6851 03c3 4F50454E 		.ascii	"OPEN\000"
 6851      00
 6852              	.LASF139:
 6853 03c8 7072696E 		.ascii	"print_character_set\000"
 6853      745F6368 
 6853      61726163 
ARM GAS  C:\Users\karunmj\AppData\Local\Temp\ccfJuUhb.s 			page 137


 6853      7465725F 
 6853      73657400 
 6854              	.LASF147:
 6855 03dc 72656C6F 		.ascii	"relocate\000"
 6855      63617465 
 6855      00
 6856              	.LASF29:
 6857 03e5 5F5F746D 		.ascii	"__tm_mon\000"
 6857      5F6D6F6E 
 6857      00
 6858              	.LASF130:
 6859 03ee 53544152 		.ascii	"STARQ\000"
 6859      5100
 6860              	.LASF39:
 6861 03f4 5F617465 		.ascii	"_atexit\000"
 6861      78697400 
 6862              	.LASF53:
 6863 03fc 5F5F7364 		.ascii	"__sdidinit\000"
 6863      6964696E 
 6863      697400
 6864              	.LASF57:
 6865 0407 5F67616D 		.ascii	"_gamma_signgam\000"
 6865      6D615F73 
 6865      69676E67 
 6865      616D00
 6866              	.LASF157:
 6867 0416 6C617374 		.ascii	"last_op\000"
 6867      5F6F7000 
 6868              	.LASF100:
 6869 041e 5F667265 		.ascii	"_freelist\000"
 6869      656C6973 
 6869      7400
 6870              	.LASF132:
 6871 0428 51554553 		.ascii	"QUEST\000"
 6871      5400
 6872              	.LASF156:
 6873 042e 6272616E 		.ascii	"branch_start\000"
 6873      63685F73 
 6873      74617274 
 6873      00
 6874              	.LASF8:
 6875 043b 5F4C4F43 		.ascii	"_LOCK_RECURSIVE_T\000"
 6875      4B5F5245 
 6875      43555253 
 6875      4956455F 
 6875      5400
 6876              	.LASF153:
 6877 044d 66697875 		.ascii	"fixup_branch\000"
 6877      705F6272 
 6877      616E6368 
 6877      00
 6878              	.LASF176:
 6879 045a 433A5C55 		.ascii	"C:\\Users\\karunmj\\Documents\\GitHub\\m2m\\hardwar"
 6879      73657273 
 6879      5C6B6172 
 6879      756E6D6A 
 6879      5C446F63 
ARM GAS  C:\Users\karunmj\AppData\Local\Temp\ccfJuUhb.s 			page 138


 6880 0487 655C7073 		.ascii	"e\\psoc5\\PSoC_Datalogger_SMS.cydsn\000"
 6880      6F63355C 
 6880      50536F43 
 6880      5F446174 
 6880      616C6F67 
 6881              	.LASF2:
 6882 04a9 756E7369 		.ascii	"unsigned char\000"
 6882      676E6564 
 6882      20636861 
 6882      7200
 6883              	.LASF90:
 6884 04b7 5F696F62 		.ascii	"_iobs\000"
 6884      7300
 6885              	.LASF3:
 6886 04bd 73686F72 		.ascii	"short int\000"
 6886      7420696E 
 6886      7400
 6887              	.LASF32:
 6888 04c7 5F5F746D 		.ascii	"__tm_yday\000"
 6888      5F796461 
 6888      7900
 6889              	.LASF43:
 6890 04d1 5F5F7362 		.ascii	"__sbuf\000"
 6890      756600
 6891              	.LASF87:
 6892 04d8 5F5F4649 		.ascii	"__FILE\000"
 6892      4C4500
 6893              	.LASF15:
 6894 04df 5F6D6273 		.ascii	"_mbstate_t\000"
 6894      74617465 
 6894      5F7400
 6895              	.LASF134:
 6896 04ea 4E4F4E53 		.ascii	"NONSPACE\000"
 6896      50414345 
 6896      00
 6897              	.LASF69:
 6898 04f3 5F5F7346 		.ascii	"__sFILE\000"
 6898      494C4500 
 6899              	.LASF158:
 6900 04fb 6361705F 		.ascii	"cap_no\000"
 6900      6E6F00
 6901              	.LASF84:
 6902 0502 5F6D6273 		.ascii	"_mbstate\000"
 6902      74617465 
 6902      00
 6903              	.LASF95:
 6904 050b 5F72616E 		.ascii	"_rand_next\000"
 6904      645F6E65 
 6904      787400
 6905              	.LASF142:
 6906 0516 656D6974 		.ascii	"emit\000"
 6906      00
 6907              	.LASF103:
 6908 051b 5F6D626C 		.ascii	"_mblen_state\000"
 6908      656E5F73 
 6908      74617465 
 6908      00
ARM GAS  C:\Users\karunmj\AppData\Local\Temp\ccfJuUhb.s 			page 139


 6909              	.LASF51:
 6910 0528 5F696E63 		.ascii	"_inc\000"
 6910      00
 6911              	.LASF40:
 6912 052d 5F696E64 		.ascii	"_ind\000"
 6912      00
 6913              	.LASF55:
 6914 0532 5F637572 		.ascii	"_current_locale\000"
 6914      72656E74 
 6914      5F6C6F63 
 6914      616C6500 
 6915              	.LASF56:
 6916 0542 5F5F636C 		.ascii	"__cleanup\000"
 6916      65616E75 
 6916      7000
 6917              	.LASF20:
 6918 054c 5F6D6178 		.ascii	"_maxwds\000"
 6918      77647300 
 6919              	.LASF46:
 6920 0554 5F726565 		.ascii	"_reent\000"
 6920      6E7400
 6921              	.LASF92:
 6922 055b 5F736565 		.ascii	"_seed\000"
 6922      6400
 6923              	.LASF13:
 6924 0561 5F5F636F 		.ascii	"__count\000"
 6924      756E7400 
 6925              	.LASF14:
 6926 0569 5F5F7661 		.ascii	"__value\000"
 6926      6C756500 
 6927              	.LASF77:
 6928 0571 5F736565 		.ascii	"_seek\000"
 6928      6B00
 6929              	.LASF9:
 6930 0577 5F66706F 		.ascii	"_fpos_t\000"
 6930      735F7400 
 6931              	.LASF144:
 6932 057f 65786163 		.ascii	"exact\000"
 6932      7400
 6933              	.LASF47:
 6934 0585 5F657272 		.ascii	"_errno\000"
 6934      6E6F00
 6935              	.LASF86:
 6936 058c 63686172 		.ascii	"char\000"
 6936      00
 6937              	.LASF26:
 6938 0591 5F5F746D 		.ascii	"__tm_min\000"
 6938      5F6D696E 
 6938      00
 6939              	.LASF114:
 6940 059a 736C7265 		.ascii	"slre\000"
 6940      00
 6941              	.LASF93:
 6942 059f 5F6D756C 		.ascii	"_mult\000"
 6942      7400
 6943              	.LASF19:
 6944 05a5 5F6E6578 		.ascii	"_next\000"
ARM GAS  C:\Users\karunmj\AppData\Local\Temp\ccfJuUhb.s 			page 140


 6944      7400
 6945              	.LASF102:
 6946 05ab 5F737472 		.ascii	"_strtok_last\000"
 6946      746F6B5F 
 6946      6C617374 
 6946      00
 6947              	.LASF141:
 6948 05b8 6F666673 		.ascii	"offset\000"
 6948      657400
 6949              	.LASF37:
 6950 05bf 5F666E74 		.ascii	"_fntypes\000"
 6950      79706573 
 6950      00
 6951              	.LASF101:
 6952 05c8 5F6D6973 		.ascii	"_misc_reent\000"
 6952      635F7265 
 6952      656E7400 
 6953              	.LASF94:
 6954 05d4 5F616464 		.ascii	"_add\000"
 6954      00
 6955              	.LASF17:
 6956 05d9 5F5F554C 		.ascii	"__ULong\000"
 6956      6F6E6700 
 6957              	.LASF107:
 6958 05e1 5F676574 		.ascii	"_getdate_err\000"
 6958      64617465 
 6958      5F657272 
 6958      00
 6959              	.LASF128:
 6960 05ee 53544152 		.ascii	"STAR\000"
 6960      00
 6961              	.LASF115:
 6962 05f3 636F6465 		.ascii	"code\000"
 6962      00
 6963              	.LASF160:
 6964 05f8 6C6F6F70 		.ascii	"loop_greedy\000"
 6964      5F677265 
 6964      65647900 
 6965              	.LASF71:
 6966 0604 5F66696C 		.ascii	"_file\000"
 6966      6500
 6967              	.LASF22:
 6968 060a 5F776473 		.ascii	"_wds\000"
 6968      00
 6969              	.LASF31:
 6970 060f 5F5F746D 		.ascii	"__tm_wday\000"
 6970      5F776461 
 6970      7900
 6971              	.LASF88:
 6972 0619 5F676C75 		.ascii	"_glue\000"
 6972      6500
 6973              	.LASF118:
 6974 061f 64617461 		.ascii	"data_size\000"
 6974      5F73697A 
 6974      6500
 6975              	.LASF122:
 6976 0629 4252414E 		.ascii	"BRANCH\000"
ARM GAS  C:\Users\karunmj\AppData\Local\Temp\ccfJuUhb.s 			page 141


 6976      434800
 6977              	.LASF106:
 6978 0630 5F6C3634 		.ascii	"_l64a_buf\000"
 6978      615F6275 
 6978      6600
 6979              	.LASF63:
 6980 063a 5F736967 		.ascii	"_sig_func\000"
 6980      5F66756E 
 6980      6300
 6981              	.LASF138:
 6982 0644 666C6167 		.ascii	"flags\000"
 6982      7300
 6983              	.LASF117:
 6984 064a 636F6465 		.ascii	"code_size\000"
 6984      5F73697A 
 6984      6500
 6985              	.LASF154:
 6986 0654 66697875 		.ascii	"fixup\000"
 6986      7000
 6987              	.LASF80:
 6988 065a 5F6E6275 		.ascii	"_nbuf\000"
 6988      6600
 6989              	.LASF33:
 6990 0660 5F5F746D 		.ascii	"__tm_isdst\000"
 6990      5F697364 
 6990      737400
 6991              	.LASF61:
 6992 066b 5F6C6F63 		.ascii	"_localtime_buf\000"
 6992      616C7469 
 6992      6D655F62 
 6992      756600
 6993              	.LASF78:
 6994 067a 5F636C6F 		.ascii	"_close\000"
 6994      736500
 6995              	.LASF127:
 6996 0681 434C4F53 		.ascii	"CLOSE\000"
 6996      4500
 6997              	.LASF105:
 6998 0687 5F6D6274 		.ascii	"_mbtowc_state\000"
 6998      6F77635F 
 6998      73746174 
 6998      6500
 6999              	.LASF163:
 7000 0695 6C6F6F70 		.ascii	"loop_non_greedy\000"
 7000      5F6E6F6E 
 7000      5F677265 
 7000      65647900 
 7001              	.LASF99:
 7002 06a5 5F703573 		.ascii	"_p5s\000"
 7002      00
 7003              	.LASF28:
 7004 06aa 5F5F746D 		.ascii	"__tm_mday\000"
 7004      5F6D6461 
 7004      7900
 7005              	.LASF178:
 7006 06b4 5F5F6374 		.ascii	"__ctype_ptr__\000"
 7006      7970655F 
ARM GAS  C:\Users\karunmj\AppData\Local\Temp\ccfJuUhb.s 			page 142


 7006      7074725F 
 7006      5F00
 7007              		.ident	"GCC: (Sourcery G++ Lite 2010q1-188) 4.4.1"
