ARM GAS  C:\Users\karunmj\AppData\Local\Temp\ccfJuUhb.s 			page 1


   1              		.syntax unified
   2              		.cpu cortex-m3
   3              		.fpu softvfp
   4              		.eabi_attribute 20, 1
   5              		.eabi_attribute 21, 1
   6              		.eabi_attribute 23, 3
   7              		.eabi_attribute 24, 1
   8              		.eabi_attribute 25, 1
   9              		.eabi_attribute 26, 1
  10              		.eabi_attribute 30, 6
  11              		.eabi_attribute 18, 4
  12              		.thumb
  13              		.file	"slre.c"
  20 0000 FE040000 		.text
  20      02002702 
  20      00000201 
  20      FB0E0D00 
  20      01010101 
  21              	.Ltext0:
  22              		.cfi_sections	.debug_frame
  23              		.section	.rodata
  24              		.align	2
  25              	.LC0:
  26 0000 454E4400 		.ascii	"END\000"
  27              		.align	2
  28              	.LC1:
  29 0004 00       		.ascii	"\000"
  30 0005 000000   		.align	2
  31              	.LC2:
  32 0008 4252414E 		.ascii	"BRANCH\000"
  32      434800
  33 000f 00       		.align	2
  34              	.LC3:
  35 0010 6F6F00   		.ascii	"oo\000"
  36 0013 00       		.align	2
  37              	.LC4:
  38 0014 414E5900 		.ascii	"ANY\000"
  39              		.align	2
  40              	.LC5:
  41 0018 45584143 		.ascii	"EXACT\000"
  41      5400
  42 001e 0000     		.align	2
  43              	.LC6:
  44 0020 6400     		.ascii	"d\000"
  45 0022 0000     		.align	2
  46              	.LC7:
  47 0024 414E594F 		.ascii	"ANYOF\000"
  47      4600
  48 002a 0000     		.align	2
  49              	.LC8:
  50 002c 4400     		.ascii	"D\000"
ARM GAS  C:\Users\karunmj\AppData\Local\Temp\ccfJuUhb.s 			page 2


  51 002e 0000     		.align	2
  52              	.LC9:
  53 0030 414E5942 		.ascii	"ANYBUT\000"
  53      555400
  54 0037 00       		.align	2
  55              	.LC10:
  56 0038 4F50454E 		.ascii	"OPEN \000"
  56      2000
  57 003e 0000     		.align	2
  58              	.LC11:
  59 0040 6900     		.ascii	"i\000"
  60 0042 0000     		.align	2
  61              	.LC12:
  62 0044 434C4F53 		.ascii	"CLOSE\000"
  62      4500
  63 004a 0000     		.align	2
  64              	.LC13:
  65 004c 424F4C00 		.ascii	"BOL\000"
  66              		.align	2
  67              	.LC14:
  68 0050 454F4C00 		.ascii	"EOL\000"
  69              		.align	2
  70              	.LC15:
  71 0054 53544152 		.ascii	"STAR\000"
  71      00
  72 0059 000000   		.align	2
  73              	.LC16:
  74 005c 6F00     		.ascii	"o\000"
  75 005e 0000     		.align	2
  76              	.LC17:
  77 0060 504C5553 		.ascii	"PLUS\000"
  77      00
  78 0065 000000   		.align	2
  79              	.LC18:
  80 0068 53544152 		.ascii	"STARQ\000"
  80      5100
  81 006e 0000     		.align	2
  82              	.LC19:
  83 0070 504C5553 		.ascii	"PLUSQ\000"
  83      5100
  84 0076 0000     		.align	2
  85              	.LC20:
  86 0078 51554553 		.ascii	"QUEST\000"
  86      5400
  87 007e 0000     		.align	2
  88              	.LC21:
  89 0080 53504143 		.ascii	"SPACE\000"
  89      4500
  90 0086 0000     		.align	2
  91              	.LC22:
  92 0088 4E4F4E53 		.ascii	"NONSPACE\000"
  92      50414345 
  92      00
  93 0091 000000   		.align	2
  94              	.LC23:
  95 0094 44494749 		.ascii	"DIGIT\000"
  95      5400
ARM GAS  C:\Users\karunmj\AppData\Local\Temp\ccfJuUhb.s 			page 3


  96              		.data
  97              		.align	2
  98              		.type	opcodes, %object
  99              		.size	opcodes, 216
 100              	opcodes:
 101 0000 00000000 		.word	.LC0
 102 0004 00000000 		.word	0
 103 0008 04000000 		.word	.LC1
 104 000c 08000000 		.word	.LC2
 105 0010 02000000 		.word	2
 106 0014 10000000 		.word	.LC3
 107 0018 14000000 		.word	.LC4
 108 001c 00000000 		.word	0
 109 0020 04000000 		.word	.LC1
 110 0024 18000000 		.word	.LC5
 111 0028 02000000 		.word	2
 112 002c 20000000 		.word	.LC6
 113 0030 24000000 		.word	.LC7
 114 0034 02000000 		.word	2
 115 0038 2C000000 		.word	.LC8
 116 003c 30000000 		.word	.LC9
 117 0040 02000000 		.word	2
 118 0044 2C000000 		.word	.LC8
 119 0048 38000000 		.word	.LC10
 120 004c 01000000 		.word	1
 121 0050 40000000 		.word	.LC11
 122 0054 44000000 		.word	.LC12
 123 0058 01000000 		.word	1
 124 005c 40000000 		.word	.LC11
 125 0060 4C000000 		.word	.LC13
 126 0064 00000000 		.word	0
 127 0068 04000000 		.word	.LC1
 128 006c 50000000 		.word	.LC14
 129 0070 00000000 		.word	0
 130 0074 04000000 		.word	.LC1
 131 0078 54000000 		.word	.LC15
 132 007c 01000000 		.word	1
 133 0080 5C000000 		.word	.LC16
 134 0084 60000000 		.word	.LC17
 135 0088 01000000 		.word	1
 136 008c 5C000000 		.word	.LC16
 137 0090 68000000 		.word	.LC18
 138 0094 01000000 		.word	1
 139 0098 5C000000 		.word	.LC16
 140 009c 70000000 		.word	.LC19
 141 00a0 01000000 		.word	1
 142 00a4 5C000000 		.word	.LC16
 143 00a8 78000000 		.word	.LC20
 144 00ac 01000000 		.word	1
 145 00b0 5C000000 		.word	.LC16
 146 00b4 80000000 		.word	.LC21
 147 00b8 00000000 		.word	0
 148 00bc 04000000 		.word	.LC1
 149 00c0 88000000 		.word	.LC22
 150 00c4 00000000 		.word	0
 151 00c8 04000000 		.word	.LC1
 152 00cc 94000000 		.word	.LC23
ARM GAS  C:\Users\karunmj\AppData\Local\Temp\ccfJuUhb.s 			page 4


 153 00d0 00000000 		.word	0
 154 00d4 04000000 		.word	.LC1
 155              		.section	.rodata
 156 009a 0000     		.align	2
 157              	.LC24:
 158 009c 7C2E5E24 		.ascii	"|.^$*+?()[\\\000"
 158      2A2B3F28 
 158      295B5C00 
 159              		.data
 160              		.align	2
 161              		.type	meta_chars, %object
 162              		.size	meta_chars, 4
 163              	meta_chars:
 164 00d8 9C000000 		.word	.LC24
 165              		.section	.rodata
 166              		.align	2
 167              	.LC25:
 168 00a8 5C782530 		.ascii	"\\x%02x\000"
 168      327800
 169              		.section	.text.print_character_set,"ax",%progbits
 170              		.align	2
 171              		.thumb
 172              		.thumb_func
 173              		.type	print_character_set, %function
 174              	print_character_set:
 175              	.LFB0:
 176              		.file 1 ".\\slre.c"
   1:.\slre.c      **** /* ========================================
   2:.\slre.c      ****  *
   3:.\slre.c      ****  * Copyright YOUR COMPANY, THE YEAR
   4:.\slre.c      ****  * All Rights Reserved
   5:.\slre.c      ****  * UNPUBLISHED, LICENSED SOFTWARE.
   6:.\slre.c      ****  *
   7:.\slre.c      ****  * CONFIDENTIAL AND PROPRIETARY INFORMATION
   8:.\slre.c      ****  * WHICH IS THE PROPERTY OF your company.
   9:.\slre.c      ****  *
  10:.\slre.c      ****  * ========================================
  11:.\slre.c      **** */
  12:.\slre.c      **** 
  13:.\slre.c      **** /* [] END OF FILE */
  14:.\slre.c      **** 
  15:.\slre.c      **** /*
  16:.\slre.c      ****  * Copyright (c) 2004-2005 Sergey Lyubka <valenok@gmail.com>
  17:.\slre.c      ****  * All rights reserved
  18:.\slre.c      ****  *
  19:.\slre.c      ****  * "THE BEER-WARE LICENSE" (Revision 42):
  20:.\slre.c      ****  * Sergey Lyubka wrote this file.  As long as you retain this notice you
  21:.\slre.c      ****  * can do whatever you want with this stuff. If we meet some day, and you think
  22:.\slre.c      ****  * this stuff is worth it, you can buy me a beer in return.
  23:.\slre.c      ****  */
  24:.\slre.c      **** 
  25:.\slre.c      **** #include <stdio.h>
  26:.\slre.c      **** #include <assert.h>
  27:.\slre.c      **** #include <ctype.h>
  28:.\slre.c      **** #include <stdlib.h>
  29:.\slre.c      **** #include <string.h>
  30:.\slre.c      **** #include <errno.h>
ARM GAS  C:\Users\karunmj\AppData\Local\Temp\ccfJuUhb.s 			page 5


  31:.\slre.c      **** 
  32:.\slre.c      **** #include "slre.h"
  33:.\slre.c      **** 
  34:.\slre.c      **** enum {END, BRANCH, ANY, EXACT, ANYOF, ANYBUT, OPEN, CLOSE, BOL, EOL,
  35:.\slre.c      **** 	STAR, PLUS, STARQ, PLUSQ, QUEST, SPACE, NONSPACE, DIGIT};
  36:.\slre.c      **** 
  37:.\slre.c      **** static struct {
  38:.\slre.c      **** 	const char	*name;
  39:.\slre.c      **** 	int		narg;
  40:.\slre.c      **** 	const char	*flags;	
  41:.\slre.c      **** } opcodes[] = {
  42:.\slre.c      **** 	{"END",		0, ""},		/* End of code block or program	*/
  43:.\slre.c      **** 	{"BRANCH",	2, "oo"},	/* Alternative operator, "|"	*/
  44:.\slre.c      **** 	{"ANY",		0, ""},		/* Match any character, "."	*/
  45:.\slre.c      **** 	{"EXACT",	2, "d"},	/* Match exact string		*/
  46:.\slre.c      **** 	{"ANYOF",	2, "D"},	/* Match any from set, "[]"	*/
  47:.\slre.c      **** 	{"ANYBUT",	2, "D"},	/* Match any but from set, "[^]"*/
  48:.\slre.c      **** 	{"OPEN ",	1, "i"},	/* Capture start, "("		*/
  49:.\slre.c      **** 	{"CLOSE",	1, "i"},	/* Capture end, ")"		*/
  50:.\slre.c      **** 	{"BOL",		0, ""},		/* Beginning of string, "^"	*/
  51:.\slre.c      **** 	{"EOL",		0, ""},		/* End of string, "$"		*/
  52:.\slre.c      **** 	{"STAR",	1, "o"},	/* Match zero or more times "*"	*/
  53:.\slre.c      **** 	{"PLUS",	1, "o"},	/* Match one or more times, "+"	*/
  54:.\slre.c      **** 	{"STARQ",	1, "o"},	/* Non-greedy STAR,  "*?"	*/
  55:.\slre.c      **** 	{"PLUSQ",	1, "o"},	/* Non-greedy PLUS, "+?"	*/
  56:.\slre.c      **** 	{"QUEST",	1, "o"},	/* Match zero or one time, "?"	*/
  57:.\slre.c      **** 	{"SPACE",	0, ""},		/* Match whitespace, "\s"	*/
  58:.\slre.c      **** 	{"NONSPACE",	0, ""},		/* Match non-space, "\S"	*/
  59:.\slre.c      **** 	{"DIGIT",	0, ""}		/* Match digit, "\d"		*/
  60:.\slre.c      **** };
  61:.\slre.c      **** 
  62:.\slre.c      **** /*
  63:.\slre.c      ****  * Commands and operands are all unsigned char (1 byte long). All code offsets
  64:.\slre.c      ****  * are relative to current address, and positive (always point forward). Data
  65:.\slre.c      ****  * offsets are absolute. Commands with operands:
  66:.\slre.c      ****  *
  67:.\slre.c      ****  * BRANCH offset1 offset2
  68:.\slre.c      ****  *	Try to match the code block that follows the BRANCH instruction
  69:.\slre.c      ****  *	(code block ends with END). If no match, try to match code block that
  70:.\slre.c      ****  *	starts at offset1. If either of these match, jump to offset2.
  71:.\slre.c      ****  *
  72:.\slre.c      ****  * EXACT data_offset data_length
  73:.\slre.c      ****  *	Try to match exact string. String is recorded in data section from
  74:.\slre.c      ****  *	data_offset, and has length data_length.
  75:.\slre.c      ****  *
  76:.\slre.c      ****  * OPEN capture_number
  77:.\slre.c      ****  * CLOSE capture_number
  78:.\slre.c      ****  *	If the user have passed 'struct cap' array for captures, OPEN
  79:.\slre.c      ****  *	records the beginning of the matched substring (cap->ptr), CLOSE
  80:.\slre.c      ****  *	sets the length (cap->len) for respective capture_number.
  81:.\slre.c      ****  *
  82:.\slre.c      ****  * STAR code_offset
  83:.\slre.c      ****  * PLUS code_offset
  84:.\slre.c      ****  * QUEST code_offset
  85:.\slre.c      ****  *	*, +, ?, respectively. Try to gobble as much as possible from the
  86:.\slre.c      ****  *	matched buffer, until code block that follows these instructions
  87:.\slre.c      ****  *	matches. When the longest possible string is matched,
ARM GAS  C:\Users\karunmj\AppData\Local\Temp\ccfJuUhb.s 			page 6


  88:.\slre.c      ****  *	jump to code_offset
  89:.\slre.c      ****  *
  90:.\slre.c      ****  * STARQ, PLUSQ are non-greedy versions of STAR and PLUS.
  91:.\slre.c      ****  */
  92:.\slre.c      **** 
  93:.\slre.c      **** static const char *meta_chars = "|.^$*+?()[\\";
  94:.\slre.c      **** 
  95:.\slre.c      **** static void
  96:.\slre.c      **** print_character_set(FILE *fp, const unsigned char *p, int len)
  97:.\slre.c      **** {
 177              		.loc 1 97 0
 178              		.cfi_startproc
 179              		@ args = 0, pretend = 0, frame = 24
 180              		@ frame_needed = 1, uses_anonymous_args = 0
 181 0000 80B5     		push	{r7, lr}
 182              	.LCFI0:
 183              		.cfi_def_cfa_offset 8
 184 0002 86B0     		sub	sp, sp, #24
 185              	.LCFI1:
 186              		.cfi_def_cfa_offset 32
 187 0004 00AF     		add	r7, sp, #0
 188              		.cfi_offset 14, -4
 189              		.cfi_offset 7, -8
 190              	.LCFI2:
 191              		.cfi_def_cfa_register 7
 192 0006 F860     		str	r0, [r7, #12]
 193 0008 B960     		str	r1, [r7, #8]
 194 000a 7A60     		str	r2, [r7, #4]
  98:.\slre.c      **** 	int	i;
  99:.\slre.c      **** 
 100:.\slre.c      **** 	for (i = 0; i < len; i++) {
 195              		.loc 1 100 0
 196 000c 4FF00003 		mov	r3, #0
 197 0010 7B61     		str	r3, [r7, #20]
 198 0012 64E0     		b	.L2
 199              	.L9:
 101:.\slre.c      **** 		if (i > 0)
 200              		.loc 1 101 0
 201 0014 7B69     		ldr	r3, [r7, #20]
 202 0016 002B     		cmp	r3, #0
 203 0018 04DD     		ble	.L3
 102:.\slre.c      **** 			(void) fputc(',', fp);
 204              		.loc 1 102 0
 205 001a 4FF02C00 		mov	r0, #44
 206 001e F968     		ldr	r1, [r7, #12]
 207 0020 FFF7FEFF 		bl	fputc
 208              	.L3:
 103:.\slre.c      **** 		if (p[i] == 0) {
 209              		.loc 1 103 0
 210 0024 7A69     		ldr	r2, [r7, #20]
 211 0026 BB68     		ldr	r3, [r7, #8]
 212 0028 1344     		add	r3, r2, r3
 213 002a 1B78     		ldrb	r3, [r3, #0]	@ zero_extendqisi2
 214 002c 002B     		cmp	r3, #0
 215 002e 2CD1     		bne	.L4
 104:.\slre.c      **** 			i++;
 216              		.loc 1 104 0
ARM GAS  C:\Users\karunmj\AppData\Local\Temp\ccfJuUhb.s 			page 7


 217 0030 7B69     		ldr	r3, [r7, #20]
 218 0032 03F10103 		add	r3, r3, #1
 219 0036 7B61     		str	r3, [r7, #20]
 105:.\slre.c      **** 			if (p[i] == 0)
 220              		.loc 1 105 0
 221 0038 7A69     		ldr	r2, [r7, #20]
 222 003a BB68     		ldr	r3, [r7, #8]
 223 003c 1344     		add	r3, r2, r3
 224 003e 1B78     		ldrb	r3, [r3, #0]	@ zero_extendqisi2
 225 0040 002B     		cmp	r3, #0
 226 0042 0CD1     		bne	.L5
 106:.\slre.c      **** 				(void) fprintf(fp, "\\x%02x", p[i]);
 227              		.loc 1 106 0
 228 0044 7A69     		ldr	r2, [r7, #20]
 229 0046 BB68     		ldr	r3, [r7, #8]
 230 0048 1344     		add	r3, r2, r3
 231 004a 1B78     		ldrb	r3, [r3, #0]	@ zero_extendqisi2
 232 004c F868     		ldr	r0, [r7, #12]
 233 004e 40F20001 		movw	r1, #:lower16:.LC25
 234 0052 C0F20001 		movt	r1, #:upper16:.LC25
 235 0056 1A46     		mov	r2, r3
 236 0058 FFF7FEFF 		bl	fprintf
 107:.\slre.c      **** 			else
 108:.\slre.c      **** 				(void) fprintf(fp, "%s", opcodes[p[i]].name);
 237              		.loc 1 108 0
 238 005c 3BE0     		b	.L7
 239              	.L5:
 240 005e 7A69     		ldr	r2, [r7, #20]
 241 0060 BB68     		ldr	r3, [r7, #8]
 242 0062 1344     		add	r3, r2, r3
 243 0064 1B78     		ldrb	r3, [r3, #0]	@ zero_extendqisi2
 244 0066 1946     		mov	r1, r3
 245 0068 40F20002 		movw	r2, #:lower16:opcodes
 246 006c C0F20002 		movt	r2, #:upper16:opcodes
 247 0070 0B46     		mov	r3, r1
 248 0072 4FEA4303 		lsl	r3, r3, #1
 249 0076 0B44     		add	r3, r3, r1
 250 0078 4FEA8303 		lsl	r3, r3, #2
 251 007c 1344     		add	r3, r3, r2
 252 007e 1B68     		ldr	r3, [r3, #0]
 253 0080 1846     		mov	r0, r3
 254 0082 F968     		ldr	r1, [r7, #12]
 255 0084 FFF7FEFF 		bl	fputs
 256 0088 25E0     		b	.L7
 257              	.L4:
 109:.\slre.c      **** 		} else if (isprint(p[i])) {
 258              		.loc 1 109 0
 259 008a 40F20003 		movw	r3, #:lower16:__ctype_ptr__
 260 008e C0F20003 		movt	r3, #:upper16:__ctype_ptr__
 261 0092 1A68     		ldr	r2, [r3, #0]
 262 0094 7969     		ldr	r1, [r7, #20]
 263 0096 BB68     		ldr	r3, [r7, #8]
 264 0098 0B44     		add	r3, r1, r3
 265 009a 1B78     		ldrb	r3, [r3, #0]	@ zero_extendqisi2
 266 009c 03F10103 		add	r3, r3, #1
 267 00a0 1344     		add	r3, r2, r3
 268 00a2 1B78     		ldrb	r3, [r3, #0]	@ zero_extendqisi2
ARM GAS  C:\Users\karunmj\AppData\Local\Temp\ccfJuUhb.s 			page 8


 269 00a4 03F09703 		and	r3, r3, #151
 270 00a8 002B     		cmp	r3, #0
 271 00aa 08D0     		beq	.L8
 110:.\slre.c      **** 			(void) fputc(p[i], fp);
 272              		.loc 1 110 0
 273 00ac 7A69     		ldr	r2, [r7, #20]
 274 00ae BB68     		ldr	r3, [r7, #8]
 275 00b0 1344     		add	r3, r2, r3
 276 00b2 1B78     		ldrb	r3, [r3, #0]	@ zero_extendqisi2
 277 00b4 1846     		mov	r0, r3
 278 00b6 F968     		ldr	r1, [r7, #12]
 279 00b8 FFF7FEFF 		bl	fputc
 280 00bc 0BE0     		b	.L7
 281              	.L8:
 111:.\slre.c      **** 		} else {
 112:.\slre.c      **** 			(void) fprintf(fp,"\\x%02x", p[i]);
 282              		.loc 1 112 0
 283 00be 7A69     		ldr	r2, [r7, #20]
 284 00c0 BB68     		ldr	r3, [r7, #8]
 285 00c2 1344     		add	r3, r2, r3
 286 00c4 1B78     		ldrb	r3, [r3, #0]	@ zero_extendqisi2
 287 00c6 F868     		ldr	r0, [r7, #12]
 288 00c8 40F20001 		movw	r1, #:lower16:.LC25
 289 00cc C0F20001 		movt	r1, #:upper16:.LC25
 290 00d0 1A46     		mov	r2, r3
 291 00d2 FFF7FEFF 		bl	fprintf
 292              	.L7:
 293              		.loc 1 100 0
 294 00d6 7B69     		ldr	r3, [r7, #20]
 295 00d8 03F10103 		add	r3, r3, #1
 296 00dc 7B61     		str	r3, [r7, #20]
 297              	.L2:
 298 00de 7A69     		ldr	r2, [r7, #20]
 299 00e0 7B68     		ldr	r3, [r7, #4]
 300 00e2 9A42     		cmp	r2, r3
 301 00e4 96DB     		blt	.L9
 113:.\slre.c      **** 		}
 114:.\slre.c      **** 	}
 115:.\slre.c      **** }
 302              		.loc 1 115 0
 303 00e6 07F11807 		add	r7, r7, #24
 304 00ea BD46     		mov	sp, r7
 305 00ec 80BD     		pop	{r7, pc}
 306              		.cfi_endproc
 307              	.LFE0:
 308              		.size	print_character_set, .-print_character_set
 309 00ee 00BF     		.section	.rodata
 310 00af 00       		.align	2
 311              	.LC26:
 312 00b0 25336420 		.ascii	"%3d %s \000"
 312      25732000 
 313              		.align	2
 314              	.LC27:
 315 00b8 25642000 		.ascii	"%d \000"
 316              		.section	.text.slre_dump,"ax",%progbits
 317              		.align	2
 318              		.global	slre_dump
ARM GAS  C:\Users\karunmj\AppData\Local\Temp\ccfJuUhb.s 			page 9


 319              		.thumb
 320              		.thumb_func
 321              		.type	slre_dump, %function
 322              	slre_dump:
 323              	.LFB1:
 116:.\slre.c      **** 
 117:.\slre.c      **** void
 118:.\slre.c      **** slre_dump(const struct slre *r, FILE *fp)
 119:.\slre.c      **** {
 324              		.loc 1 119 0
 325              		.cfi_startproc
 326              		@ args = 0, pretend = 0, frame = 32
 327              		@ frame_needed = 1, uses_anonymous_args = 0
 328 0000 80B5     		push	{r7, lr}
 329              	.LCFI3:
 330              		.cfi_def_cfa_offset 8
 331 0002 88B0     		sub	sp, sp, #32
 332              	.LCFI4:
 333              		.cfi_def_cfa_offset 40
 334 0004 00AF     		add	r7, sp, #0
 335              		.cfi_offset 14, -4
 336              		.cfi_offset 7, -8
 337              	.LCFI5:
 338              		.cfi_def_cfa_register 7
 339 0006 7860     		str	r0, [r7, #4]
 340 0008 3960     		str	r1, [r7, #0]
 120:.\slre.c      **** 	int	i, j, ch, op, pc;
 121:.\slre.c      **** 
 122:.\slre.c      **** 	for (pc = 0; pc < r->code_size; pc++) {
 341              		.loc 1 122 0
 342 000a 4FF00003 		mov	r3, #0
 343 000e FB61     		str	r3, [r7, #28]
 344 0010 E5E0     		b	.L12
 345              	.L25:
 123:.\slre.c      **** 
 124:.\slre.c      **** 		op = r->code[pc];
 346              		.loc 1 124 0
 347 0012 FB69     		ldr	r3, [r7, #28]
 348 0014 7A68     		ldr	r2, [r7, #4]
 349 0016 D35C     		ldrb	r3, [r2, r3]	@ zero_extendqisi2
 350 0018 BB61     		str	r3, [r7, #24]
 125:.\slre.c      **** 		(void) fprintf(fp, "%3d %s ", pc, opcodes[op].name);
 351              		.loc 1 125 0
 352 001a B969     		ldr	r1, [r7, #24]
 353 001c 40F20002 		movw	r2, #:lower16:opcodes
 354 0020 C0F20002 		movt	r2, #:upper16:opcodes
 355 0024 0B46     		mov	r3, r1
 356 0026 4FEA4303 		lsl	r3, r3, #1
 357 002a 0B44     		add	r3, r3, r1
 358 002c 4FEA8303 		lsl	r3, r3, #2
 359 0030 1344     		add	r3, r3, r2
 360 0032 1B68     		ldr	r3, [r3, #0]
 361 0034 3868     		ldr	r0, [r7, #0]
 362 0036 40F20001 		movw	r1, #:lower16:.LC26
 363 003a C0F20001 		movt	r1, #:upper16:.LC26
 364 003e FA69     		ldr	r2, [r7, #28]
 365 0040 FFF7FEFF 		bl	fprintf
ARM GAS  C:\Users\karunmj\AppData\Local\Temp\ccfJuUhb.s 			page 10


 126:.\slre.c      **** 
 127:.\slre.c      **** 		for (i = 0; opcodes[op].flags[i] != '\0'; i++)
 366              		.loc 1 127 0
 367 0044 4FF00003 		mov	r3, #0
 368 0048 FB60     		str	r3, [r7, #12]
 369 004a AAE0     		b	.L13
 370              	.L24:
 128:.\slre.c      **** 			switch (opcodes[op].flags[i]) {
 371              		.loc 1 128 0
 372 004c B969     		ldr	r1, [r7, #24]
 373 004e 40F20002 		movw	r2, #:lower16:opcodes
 374 0052 C0F20002 		movt	r2, #:upper16:opcodes
 375 0056 0B46     		mov	r3, r1
 376 0058 4FEA4303 		lsl	r3, r3, #1
 377 005c 0B44     		add	r3, r3, r1
 378 005e 4FEA8303 		lsl	r3, r3, #2
 379 0062 1344     		add	r3, r3, r2
 380 0064 03F10803 		add	r3, r3, #8
 381 0068 1A68     		ldr	r2, [r3, #0]
 382 006a FB68     		ldr	r3, [r7, #12]
 383 006c 1344     		add	r3, r2, r3
 384 006e 1B78     		ldrb	r3, [r3, #0]	@ zero_extendqisi2
 385 0070 642B     		cmp	r3, #100
 386 0072 4BD0     		beq	.L16
 387 0074 642B     		cmp	r3, #100
 388 0076 02DC     		bgt	.L19
 389 0078 442B     		cmp	r3, #68
 390 007a 2FD0     		beq	.L15
 391 007c 8DE0     		b	.L14
 392              	.L19:
 393 007e 692B     		cmp	r3, #105
 394 0080 02D0     		beq	.L17
 395 0082 6F2B     		cmp	r3, #111
 396 0084 12D0     		beq	.L18
 397 0086 88E0     		b	.L14
 398              	.L17:
 129:.\slre.c      **** 			case 'i':
 130:.\slre.c      **** 				(void) fprintf(fp, "%d ", r->code[pc + 1]);
 399              		.loc 1 130 0
 400 0088 FB69     		ldr	r3, [r7, #28]
 401 008a 03F10103 		add	r3, r3, #1
 402 008e 7A68     		ldr	r2, [r7, #4]
 403 0090 D35C     		ldrb	r3, [r2, r3]	@ zero_extendqisi2
 404 0092 3868     		ldr	r0, [r7, #0]
 405 0094 40F20001 		movw	r1, #:lower16:.LC27
 406 0098 C0F20001 		movt	r1, #:upper16:.LC27
 407 009c 1A46     		mov	r2, r3
 408 009e FFF7FEFF 		bl	fprintf
 131:.\slre.c      **** 				pc++;
 409              		.loc 1 131 0
 410 00a2 FB69     		ldr	r3, [r7, #28]
 411 00a4 03F10103 		add	r3, r3, #1
 412 00a8 FB61     		str	r3, [r7, #28]
 132:.\slre.c      **** 				break;
 413              		.loc 1 132 0
 414 00aa 76E0     		b	.L14
 415              	.L18:
ARM GAS  C:\Users\karunmj\AppData\Local\Temp\ccfJuUhb.s 			page 11


 133:.\slre.c      **** 			case 'o':
 134:.\slre.c      **** 				(void) fprintf(fp, "%d ",
 135:.\slre.c      **** 				    pc + r->code[pc + 1] - i);
 416              		.loc 1 135 0
 417 00ac FB69     		ldr	r3, [r7, #28]
 418 00ae 03F10103 		add	r3, r3, #1
 419 00b2 7A68     		ldr	r2, [r7, #4]
 420 00b4 D35C     		ldrb	r3, [r2, r3]	@ zero_extendqisi2
 421 00b6 1A46     		mov	r2, r3
 422 00b8 FB69     		ldr	r3, [r7, #28]
 423 00ba 1A44     		add	r2, r2, r3
 424              		.loc 1 134 0
 425 00bc FB68     		ldr	r3, [r7, #12]
 426 00be C3EB0203 		rsb	r3, r3, r2
 427 00c2 3868     		ldr	r0, [r7, #0]
 428 00c4 40F20001 		movw	r1, #:lower16:.LC27
 429 00c8 C0F20001 		movt	r1, #:upper16:.LC27
 430 00cc 1A46     		mov	r2, r3
 431 00ce FFF7FEFF 		bl	fprintf
 136:.\slre.c      **** 				pc++;
 432              		.loc 1 136 0
 433 00d2 FB69     		ldr	r3, [r7, #28]
 434 00d4 03F10103 		add	r3, r3, #1
 435 00d8 FB61     		str	r3, [r7, #28]
 137:.\slre.c      **** 				break;
 436              		.loc 1 137 0
 437 00da 5EE0     		b	.L14
 438              	.L15:
 138:.\slre.c      **** 			case 'D':
 139:.\slre.c      **** 				print_character_set(fp, r->data +
 439              		.loc 1 139 0
 440 00dc 7B68     		ldr	r3, [r7, #4]
 441 00de 03F58072 		add	r2, r3, #256
 140:.\slre.c      **** 				    r->code[pc + 1], r->code[pc + 2]);
 442              		.loc 1 140 0
 443 00e2 FB69     		ldr	r3, [r7, #28]
 444 00e4 03F10103 		add	r3, r3, #1
 445 00e8 7968     		ldr	r1, [r7, #4]
 446 00ea CB5C     		ldrb	r3, [r1, r3]	@ zero_extendqisi2
 447              		.loc 1 139 0
 448 00ec 1A44     		add	r2, r2, r3
 449              		.loc 1 140 0
 450 00ee FB69     		ldr	r3, [r7, #28]
 451 00f0 03F10203 		add	r3, r3, #2
 452 00f4 7968     		ldr	r1, [r7, #4]
 453 00f6 CB5C     		ldrb	r3, [r1, r3]	@ zero_extendqisi2
 454              		.loc 1 139 0
 455 00f8 3868     		ldr	r0, [r7, #0]
 456 00fa 1146     		mov	r1, r2
 457 00fc 1A46     		mov	r2, r3
 458 00fe FFF7FEFF 		bl	print_character_set
 141:.\slre.c      **** 				pc += 2;
 459              		.loc 1 141 0
 460 0102 FB69     		ldr	r3, [r7, #28]
 461 0104 03F10203 		add	r3, r3, #2
 462 0108 FB61     		str	r3, [r7, #28]
 142:.\slre.c      **** 				break;
ARM GAS  C:\Users\karunmj\AppData\Local\Temp\ccfJuUhb.s 			page 12


 463              		.loc 1 142 0
 464 010a 46E0     		b	.L14
 465              	.L16:
 143:.\slre.c      **** 			case 'd':
 144:.\slre.c      **** 				(void) fputc('"', fp);
 466              		.loc 1 144 0
 467 010c 4FF02200 		mov	r0, #34
 468 0110 3968     		ldr	r1, [r7, #0]
 469 0112 FFF7FEFF 		bl	fputc
 145:.\slre.c      **** 				for (j = 0; j < r->code[pc + 2]; j++) {
 470              		.loc 1 145 0
 471 0116 4FF00003 		mov	r3, #0
 472 011a 3B61     		str	r3, [r7, #16]
 473 011c 2BE0     		b	.L20
 474              	.L23:
 146:.\slre.c      **** 					ch = r->data[r->code[pc + 1] + j];
 475              		.loc 1 146 0
 476 011e FB69     		ldr	r3, [r7, #28]
 477 0120 03F10103 		add	r3, r3, #1
 478 0124 7A68     		ldr	r2, [r7, #4]
 479 0126 D35C     		ldrb	r3, [r2, r3]	@ zero_extendqisi2
 480 0128 1A46     		mov	r2, r3
 481 012a 3B69     		ldr	r3, [r7, #16]
 482 012c 1A44     		add	r2, r2, r3
 483 012e 7B68     		ldr	r3, [r7, #4]
 484 0130 1344     		add	r3, r2, r3
 485 0132 93F80031 		ldrb	r3, [r3, #256]	@ zero_extendqisi2
 486 0136 7B61     		str	r3, [r7, #20]
 147:.\slre.c      **** 					if (isprint(ch))
 487              		.loc 1 147 0
 488 0138 40F20003 		movw	r3, #:lower16:__ctype_ptr__
 489 013c C0F20003 		movt	r3, #:upper16:__ctype_ptr__
 490 0140 1A68     		ldr	r2, [r3, #0]
 491 0142 7B69     		ldr	r3, [r7, #20]
 492 0144 03F10103 		add	r3, r3, #1
 493 0148 1344     		add	r3, r2, r3
 494 014a 1B78     		ldrb	r3, [r3, #0]	@ zero_extendqisi2
 495 014c 03F09703 		and	r3, r3, #151
 496 0150 002B     		cmp	r3, #0
 497 0152 04D0     		beq	.L21
 148:.\slre.c      **** 						(void) fputc(ch, fp);
 498              		.loc 1 148 0
 499 0154 7869     		ldr	r0, [r7, #20]
 500 0156 3968     		ldr	r1, [r7, #0]
 501 0158 FFF7FEFF 		bl	fputc
 502 015c 07E0     		b	.L22
 503              	.L21:
 149:.\slre.c      **** 					else
 150:.\slre.c      **** 						(void) fprintf(fp,"\\x%02x",ch);
 504              		.loc 1 150 0
 505 015e 3868     		ldr	r0, [r7, #0]
 506 0160 40F20001 		movw	r1, #:lower16:.LC25
 507 0164 C0F20001 		movt	r1, #:upper16:.LC25
 508 0168 7A69     		ldr	r2, [r7, #20]
 509 016a FFF7FEFF 		bl	fprintf
 510              	.L22:
 511              		.loc 1 145 0
ARM GAS  C:\Users\karunmj\AppData\Local\Temp\ccfJuUhb.s 			page 13


 512 016e 3B69     		ldr	r3, [r7, #16]
 513 0170 03F10103 		add	r3, r3, #1
 514 0174 3B61     		str	r3, [r7, #16]
 515              	.L20:
 516 0176 FB69     		ldr	r3, [r7, #28]
 517 0178 03F10203 		add	r3, r3, #2
 518 017c 7A68     		ldr	r2, [r7, #4]
 519 017e D35C     		ldrb	r3, [r2, r3]	@ zero_extendqisi2
 520 0180 1A46     		mov	r2, r3
 521 0182 3B69     		ldr	r3, [r7, #16]
 522 0184 9A42     		cmp	r2, r3
 523 0186 CADC     		bgt	.L23
 151:.\slre.c      **** 				}
 152:.\slre.c      **** 				(void) fputc('"', fp);
 524              		.loc 1 152 0
 525 0188 4FF02200 		mov	r0, #34
 526 018c 3968     		ldr	r1, [r7, #0]
 527 018e FFF7FEFF 		bl	fputc
 153:.\slre.c      **** 				pc += 2;
 528              		.loc 1 153 0
 529 0192 FB69     		ldr	r3, [r7, #28]
 530 0194 03F10203 		add	r3, r3, #2
 531 0198 FB61     		str	r3, [r7, #28]
 532              	.L14:
 533              		.loc 1 127 0
 534 019a FB68     		ldr	r3, [r7, #12]
 535 019c 03F10103 		add	r3, r3, #1
 536 01a0 FB60     		str	r3, [r7, #12]
 537              	.L13:
 538 01a2 B969     		ldr	r1, [r7, #24]
 539 01a4 40F20002 		movw	r2, #:lower16:opcodes
 540 01a8 C0F20002 		movt	r2, #:upper16:opcodes
 541 01ac 0B46     		mov	r3, r1
 542 01ae 4FEA4303 		lsl	r3, r3, #1
 543 01b2 0B44     		add	r3, r3, r1
 544 01b4 4FEA8303 		lsl	r3, r3, #2
 545 01b8 1344     		add	r3, r3, r2
 546 01ba 03F10803 		add	r3, r3, #8
 547 01be 1A68     		ldr	r2, [r3, #0]
 548 01c0 FB68     		ldr	r3, [r7, #12]
 549 01c2 1344     		add	r3, r2, r3
 550 01c4 1B78     		ldrb	r3, [r3, #0]	@ zero_extendqisi2
 551 01c6 002B     		cmp	r3, #0
 552 01c8 7FF440AF 		bne	.L24
 154:.\slre.c      **** 				break;
 155:.\slre.c      **** 			}
 156:.\slre.c      **** 
 157:.\slre.c      **** 		(void) fputc('\n', fp);
 553              		.loc 1 157 0
 554 01cc 4FF00A00 		mov	r0, #10
 555 01d0 3968     		ldr	r1, [r7, #0]
 556 01d2 FFF7FEFF 		bl	fputc
 557              		.loc 1 122 0
 558 01d6 FB69     		ldr	r3, [r7, #28]
 559 01d8 03F10103 		add	r3, r3, #1
 560 01dc FB61     		str	r3, [r7, #28]
 561              	.L12:
ARM GAS  C:\Users\karunmj\AppData\Local\Temp\ccfJuUhb.s 			page 14


 562 01de 7B68     		ldr	r3, [r7, #4]
 563 01e0 D3F80022 		ldr	r2, [r3, #512]
 564 01e4 FB69     		ldr	r3, [r7, #28]
 565 01e6 9A42     		cmp	r2, r3
 566 01e8 3FF713AF 		bgt	.L25
 158:.\slre.c      **** 	}
 159:.\slre.c      **** }
 567              		.loc 1 159 0
 568 01ec 07F12007 		add	r7, r7, #32
 569 01f0 BD46     		mov	sp, r7
 570 01f2 80BD     		pop	{r7, pc}
 571              		.cfi_endproc
 572              	.LFE1:
 573              		.size	slre_dump, .-slre_dump
 574              		.section	.rodata
 575              		.align	2
 576              	.LC28:
 577 00bc 2E5C736C 		.ascii	".\\slre.c\000"
 577      72652E63 
 577      00
 578 00c5 000000   		.align	2
 579              	.LC29:
 580 00c8 6F666673 		.ascii	"offset < r->code_size\000"
 580      6574203C 
 580      20722D3E 
 580      636F6465 
 580      5F73697A 
 581 00de 0000     		.align	2
 582              	.LC30:
 583 00e0 4A756D70 		.ascii	"Jump offset is too big\000"
 583      206F6666 
 583      73657420 
 583      69732074 
 583      6F6F2062 
 584              		.section	.text.set_jump_offset,"ax",%progbits
 585              		.align	2
 586              		.thumb
 587              		.thumb_func
 588              		.type	set_jump_offset, %function
 589              	set_jump_offset:
 590              	.LFB2:
 160:.\slre.c      **** 
 161:.\slre.c      **** static void
 162:.\slre.c      **** set_jump_offset(struct slre *r, int pc, int offset)
 163:.\slre.c      **** {
 591              		.loc 1 163 0
 592              		.cfi_startproc
 593              		@ args = 0, pretend = 0, frame = 16
 594              		@ frame_needed = 1, uses_anonymous_args = 0
 595 0000 80B5     		push	{r7, lr}
 596              	.LCFI6:
 597              		.cfi_def_cfa_offset 8
 598 0002 84B0     		sub	sp, sp, #16
 599              	.LCFI7:
 600              		.cfi_def_cfa_offset 24
 601 0004 00AF     		add	r7, sp, #0
 602              		.cfi_offset 14, -4
ARM GAS  C:\Users\karunmj\AppData\Local\Temp\ccfJuUhb.s 			page 15


 603              		.cfi_offset 7, -8
 604              	.LCFI8:
 605              		.cfi_def_cfa_register 7
 606 0006 F860     		str	r0, [r7, #12]
 607 0008 B960     		str	r1, [r7, #8]
 608 000a 7A60     		str	r2, [r7, #4]
 164:.\slre.c      **** 	assert(offset < r->code_size);
 609              		.loc 1 164 0
 610 000c FB68     		ldr	r3, [r7, #12]
 611 000e D3F80022 		ldr	r2, [r3, #512]
 612 0012 7B68     		ldr	r3, [r7, #4]
 613 0014 9A42     		cmp	r2, r3
 614 0016 0FDC     		bgt	.L28
 615 0018 40F20000 		movw	r0, #:lower16:.LC28
 616 001c C0F20000 		movt	r0, #:upper16:.LC28
 617 0020 4FF0A401 		mov	r1, #164
 618 0024 40F20002 		movw	r2, #:lower16:__FUNCTION__.2917
 619 0028 C0F20002 		movt	r2, #:upper16:__FUNCTION__.2917
 620 002c 40F20003 		movw	r3, #:lower16:.LC29
 621 0030 C0F20003 		movt	r3, #:upper16:.LC29
 622 0034 FFF7FEFF 		bl	__assert_func
 623              	.L28:
 165:.\slre.c      **** 
 166:.\slre.c      **** 	if (r->code_size - offset > 0xff) {
 624              		.loc 1 166 0
 625 0038 FB68     		ldr	r3, [r7, #12]
 626 003a D3F80022 		ldr	r2, [r3, #512]
 627 003e 7B68     		ldr	r3, [r7, #4]
 628 0040 C3EB0203 		rsb	r3, r3, r2
 629 0044 FF2B     		cmp	r3, #255
 630 0046 07DD     		ble	.L29
 167:.\slre.c      **** 		r->err_str = "Jump offset is too big";
 631              		.loc 1 167 0
 632 0048 FA68     		ldr	r2, [r7, #12]
 633 004a 40F20003 		movw	r3, #:lower16:.LC30
 634 004e C0F20003 		movt	r3, #:upper16:.LC30
 635 0052 C2F81032 		str	r3, [r2, #528]
 636 0056 0BE0     		b	.L31
 637              	.L29:
 168:.\slre.c      **** 	} else {
 169:.\slre.c      **** 		r->code[pc] = (unsigned char) (r->code_size - offset);
 638              		.loc 1 169 0
 639 0058 BB68     		ldr	r3, [r7, #8]
 640 005a FA68     		ldr	r2, [r7, #12]
 641 005c D2F80022 		ldr	r2, [r2, #512]
 642 0060 D1B2     		uxtb	r1, r2
 643 0062 7A68     		ldr	r2, [r7, #4]
 644 0064 D2B2     		uxtb	r2, r2
 645 0066 C2EB0102 		rsb	r2, r2, r1
 646 006a D1B2     		uxtb	r1, r2
 647 006c FA68     		ldr	r2, [r7, #12]
 648 006e D154     		strb	r1, [r2, r3]
 649              	.L31:
 170:.\slre.c      **** 	}
 171:.\slre.c      **** }
 650              		.loc 1 171 0
 651 0070 07F11007 		add	r7, r7, #16
ARM GAS  C:\Users\karunmj\AppData\Local\Temp\ccfJuUhb.s 			page 16


 652 0074 BD46     		mov	sp, r7
 653 0076 80BD     		pop	{r7, pc}
 654              		.cfi_endproc
 655              	.LFE2:
 656              		.size	set_jump_offset, .-set_jump_offset
 657              		.section	.rodata
 658 00f7 00       		.align	2
 659              	.LC31:
 660 00f8 52452069 		.ascii	"RE is too long (code overflow)\000"
 660      7320746F 
 660      6F206C6F 
 660      6E672028 
 660      636F6465 
 661              		.section	.text.emit,"ax",%progbits
 662              		.align	2
 663              		.thumb
 664              		.thumb_func
 665              		.type	emit, %function
 666              	emit:
 667              	.LFB3:
 172:.\slre.c      **** 
 173:.\slre.c      **** static void
 174:.\slre.c      **** emit(struct slre *r, int code)
 175:.\slre.c      **** {
 668              		.loc 1 175 0
 669              		.cfi_startproc
 670              		@ args = 0, pretend = 0, frame = 8
 671              		@ frame_needed = 1, uses_anonymous_args = 0
 672              		@ link register save eliminated.
 673 0000 80B4     		push	{r7}
 674              	.LCFI9:
 675              		.cfi_def_cfa_offset 4
 676 0002 83B0     		sub	sp, sp, #12
 677              	.LCFI10:
 678              		.cfi_def_cfa_offset 16
 679 0004 00AF     		add	r7, sp, #0
 680              		.cfi_offset 7, -4
 681              	.LCFI11:
 682              		.cfi_def_cfa_register 7
 683 0006 7860     		str	r0, [r7, #4]
 684 0008 3960     		str	r1, [r7, #0]
 176:.\slre.c      **** 	if (r->code_size >= (int) (sizeof(r->code) / sizeof(r->code[0])))
 685              		.loc 1 176 0
 686 000a 7B68     		ldr	r3, [r7, #4]
 687 000c D3F80032 		ldr	r3, [r3, #512]
 688 0010 FF2B     		cmp	r3, #255
 689 0012 07DD     		ble	.L33
 177:.\slre.c      **** 		r->err_str = "RE is too long (code overflow)";
 690              		.loc 1 177 0
 691 0014 7A68     		ldr	r2, [r7, #4]
 692 0016 40F20003 		movw	r3, #:lower16:.LC31
 693 001a C0F20003 		movt	r3, #:upper16:.LC31
 694 001e C2F81032 		str	r3, [r2, #528]
 695 0022 0BE0     		b	.L35
 696              	.L33:
 178:.\slre.c      **** 	else
 179:.\slre.c      **** 		r->code[r->code_size++] = (unsigned char) code;
ARM GAS  C:\Users\karunmj\AppData\Local\Temp\ccfJuUhb.s 			page 17


 697              		.loc 1 179 0
 698 0024 7B68     		ldr	r3, [r7, #4]
 699 0026 D3F80032 		ldr	r3, [r3, #512]
 700 002a 3A68     		ldr	r2, [r7, #0]
 701 002c D1B2     		uxtb	r1, r2
 702 002e 7A68     		ldr	r2, [r7, #4]
 703 0030 D154     		strb	r1, [r2, r3]
 704 0032 03F10102 		add	r2, r3, #1
 705 0036 7B68     		ldr	r3, [r7, #4]
 706 0038 C3F80022 		str	r2, [r3, #512]
 707              	.L35:
 180:.\slre.c      **** }
 708              		.loc 1 180 0
 709 003c 07F10C07 		add	r7, r7, #12
 710 0040 BD46     		mov	sp, r7
 711 0042 80BC     		pop	{r7}
 712 0044 7047     		bx	lr
 713              		.cfi_endproc
 714              	.LFE3:
 715              		.size	emit, .-emit
 716 0046 00BF     		.section	.rodata
 717 0117 00       		.align	2
 718              	.LC32:
 719 0118 52452069 		.ascii	"RE is too long (data overflow)\000"
 719      7320746F 
 719      6F206C6F 
 719      6E672028 
 719      64617461 
 720              		.section	.text.store_char_in_data,"ax",%progbits
 721              		.align	2
 722              		.thumb
 723              		.thumb_func
 724              		.type	store_char_in_data, %function
 725              	store_char_in_data:
 726              	.LFB4:
 181:.\slre.c      **** 
 182:.\slre.c      **** static void
 183:.\slre.c      **** store_char_in_data(struct slre *r, int ch)
 184:.\slre.c      **** {
 727              		.loc 1 184 0
 728              		.cfi_startproc
 729              		@ args = 0, pretend = 0, frame = 8
 730              		@ frame_needed = 1, uses_anonymous_args = 0
 731              		@ link register save eliminated.
 732 0000 80B4     		push	{r7}
 733              	.LCFI12:
 734              		.cfi_def_cfa_offset 4
 735 0002 83B0     		sub	sp, sp, #12
 736              	.LCFI13:
 737              		.cfi_def_cfa_offset 16
 738 0004 00AF     		add	r7, sp, #0
 739              		.cfi_offset 7, -4
 740              	.LCFI14:
 741              		.cfi_def_cfa_register 7
 742 0006 7860     		str	r0, [r7, #4]
 743 0008 3960     		str	r1, [r7, #0]
 185:.\slre.c      **** 	if (r->data_size >= (int) sizeof(r->data))
ARM GAS  C:\Users\karunmj\AppData\Local\Temp\ccfJuUhb.s 			page 18


 744              		.loc 1 185 0
 745 000a 7B68     		ldr	r3, [r7, #4]
 746 000c D3F80432 		ldr	r3, [r3, #516]
 747 0010 FF2B     		cmp	r3, #255
 748 0012 07DD     		ble	.L37
 186:.\slre.c      **** 		r->err_str = "RE is too long (data overflow)";
 749              		.loc 1 186 0
 750 0014 7A68     		ldr	r2, [r7, #4]
 751 0016 40F20003 		movw	r3, #:lower16:.LC32
 752 001a C0F20003 		movt	r3, #:upper16:.LC32
 753 001e C2F81032 		str	r3, [r2, #528]
 754 0022 0DE0     		b	.L39
 755              	.L37:
 187:.\slre.c      **** 	else
 188:.\slre.c      **** 		r->data[r->data_size++] = ch;
 756              		.loc 1 188 0
 757 0024 7B68     		ldr	r3, [r7, #4]
 758 0026 D3F80432 		ldr	r3, [r3, #516]
 759 002a 3A68     		ldr	r2, [r7, #0]
 760 002c D1B2     		uxtb	r1, r2
 761 002e 7A68     		ldr	r2, [r7, #4]
 762 0030 1A44     		add	r2, r3, r2
 763 0032 82F80011 		strb	r1, [r2, #256]
 764 0036 03F10102 		add	r2, r3, #1
 765 003a 7B68     		ldr	r3, [r7, #4]
 766 003c C3F80422 		str	r2, [r3, #516]
 767              	.L39:
 189:.\slre.c      **** }
 768              		.loc 1 189 0
 769 0040 07F10C07 		add	r7, r7, #12
 770 0044 BD46     		mov	sp, r7
 771 0046 80BC     		pop	{r7}
 772 0048 7047     		bx	lr
 773              		.cfi_endproc
 774              	.LFE4:
 775              		.size	store_char_in_data, .-store_char_in_data
 776 004a 00BF     		.section	.text.exact,"ax",%progbits
 777              		.align	2
 778              		.thumb
 779              		.thumb_func
 780              		.type	exact, %function
 781              	exact:
 782              	.LFB5:
 190:.\slre.c      **** 
 191:.\slre.c      **** static void
 192:.\slre.c      **** exact(struct slre *r, const char **re)
 193:.\slre.c      **** {
 783              		.loc 1 193 0
 784              		.cfi_startproc
 785              		@ args = 0, pretend = 0, frame = 16
 786              		@ frame_needed = 1, uses_anonymous_args = 0
 787 0000 80B5     		push	{r7, lr}
 788              	.LCFI15:
 789              		.cfi_def_cfa_offset 8
 790 0002 84B0     		sub	sp, sp, #16
 791              	.LCFI16:
 792              		.cfi_def_cfa_offset 24
ARM GAS  C:\Users\karunmj\AppData\Local\Temp\ccfJuUhb.s 			page 19


 793 0004 00AF     		add	r7, sp, #0
 794              		.cfi_offset 14, -4
 795              		.cfi_offset 7, -8
 796              	.LCFI17:
 797              		.cfi_def_cfa_register 7
 798 0006 7860     		str	r0, [r7, #4]
 799 0008 3960     		str	r1, [r7, #0]
 194:.\slre.c      **** 	int	old_data_size = r->data_size;
 800              		.loc 1 194 0
 801 000a 7B68     		ldr	r3, [r7, #4]
 802 000c D3F80432 		ldr	r3, [r3, #516]
 803 0010 FB60     		str	r3, [r7, #12]
 195:.\slre.c      **** 
 196:.\slre.c      **** 	while (**re != '\0' && (strchr(meta_chars, **re)) == NULL)
 804              		.loc 1 196 0
 805 0012 0AE0     		b	.L41
 806              	.L43:
 197:.\slre.c      **** 		store_char_in_data(r, *(*re)++);
 807              		.loc 1 197 0
 808 0014 3B68     		ldr	r3, [r7, #0]
 809 0016 1B68     		ldr	r3, [r3, #0]
 810 0018 1A78     		ldrb	r2, [r3, #0]	@ zero_extendqisi2
 811 001a 03F10101 		add	r1, r3, #1
 812 001e 3B68     		ldr	r3, [r7, #0]
 813 0020 1960     		str	r1, [r3, #0]
 814 0022 7868     		ldr	r0, [r7, #4]
 815 0024 1146     		mov	r1, r2
 816 0026 FFF7FEFF 		bl	store_char_in_data
 817              	.L41:
 818              		.loc 1 196 0
 819 002a 3B68     		ldr	r3, [r7, #0]
 820 002c 1B68     		ldr	r3, [r3, #0]
 821 002e 1B78     		ldrb	r3, [r3, #0]	@ zero_extendqisi2
 822 0030 002B     		cmp	r3, #0
 823 0032 0ED0     		beq	.L42
 824 0034 40F20003 		movw	r3, #:lower16:meta_chars
 825 0038 C0F20003 		movt	r3, #:upper16:meta_chars
 826 003c 1A68     		ldr	r2, [r3, #0]
 827 003e 3B68     		ldr	r3, [r7, #0]
 828 0040 1B68     		ldr	r3, [r3, #0]
 829 0042 1B78     		ldrb	r3, [r3, #0]	@ zero_extendqisi2
 830 0044 1046     		mov	r0, r2
 831 0046 1946     		mov	r1, r3
 832 0048 FFF7FEFF 		bl	strchr
 833 004c 0346     		mov	r3, r0
 834 004e 002B     		cmp	r3, #0
 835 0050 E0D0     		beq	.L43
 836              	.L42:
 198:.\slre.c      **** 
 199:.\slre.c      **** 	emit(r, EXACT);
 837              		.loc 1 199 0
 838 0052 7868     		ldr	r0, [r7, #4]
 839 0054 4FF00301 		mov	r1, #3
 840 0058 FFF7FEFF 		bl	emit
 200:.\slre.c      **** 	emit(r, old_data_size);
 841              		.loc 1 200 0
 842 005c 7868     		ldr	r0, [r7, #4]
ARM GAS  C:\Users\karunmj\AppData\Local\Temp\ccfJuUhb.s 			page 20


 843 005e F968     		ldr	r1, [r7, #12]
 844 0060 FFF7FEFF 		bl	emit
 201:.\slre.c      **** 	emit(r, r->data_size - old_data_size);
 845              		.loc 1 201 0
 846 0064 7B68     		ldr	r3, [r7, #4]
 847 0066 D3F80422 		ldr	r2, [r3, #516]
 848 006a FB68     		ldr	r3, [r7, #12]
 849 006c C3EB0203 		rsb	r3, r3, r2
 850 0070 7868     		ldr	r0, [r7, #4]
 851 0072 1946     		mov	r1, r3
 852 0074 FFF7FEFF 		bl	emit
 202:.\slre.c      **** }
 853              		.loc 1 202 0
 854 0078 07F11007 		add	r7, r7, #16
 855 007c BD46     		mov	sp, r7
 856 007e 80BD     		pop	{r7, pc}
 857              		.cfi_endproc
 858              	.LFE5:
 859              		.size	exact, .-exact
 860              		.section	.text.get_escape_char,"ax",%progbits
 861              		.align	2
 862              		.thumb
 863              		.thumb_func
 864              		.type	get_escape_char, %function
 865              	get_escape_char:
 866              	.LFB6:
 203:.\slre.c      **** 
 204:.\slre.c      **** static int
 205:.\slre.c      **** get_escape_char(const char **re)
 206:.\slre.c      **** {
 867              		.loc 1 206 0
 868              		.cfi_startproc
 869              		@ args = 0, pretend = 0, frame = 16
 870              		@ frame_needed = 1, uses_anonymous_args = 0
 871              		@ link register save eliminated.
 872 0000 80B4     		push	{r7}
 873              	.LCFI18:
 874              		.cfi_def_cfa_offset 4
 875 0002 85B0     		sub	sp, sp, #20
 876              	.LCFI19:
 877              		.cfi_def_cfa_offset 24
 878 0004 00AF     		add	r7, sp, #0
 879              		.cfi_offset 7, -4
 880              	.LCFI20:
 881              		.cfi_def_cfa_register 7
 882 0006 7860     		str	r0, [r7, #4]
 207:.\slre.c      **** 	int	res;
 208:.\slre.c      **** 
 209:.\slre.c      **** 	switch (*(*re)++) {
 883              		.loc 1 209 0
 884 0008 7B68     		ldr	r3, [r7, #4]
 885 000a 1B68     		ldr	r3, [r3, #0]
 886 000c 1A78     		ldrb	r2, [r3, #0]	@ zero_extendqisi2
 887 000e 03F10101 		add	r1, r3, #1
 888 0012 7B68     		ldr	r3, [r7, #4]
 889 0014 1960     		str	r1, [r3, #0]
 890 0016 A2F13003 		sub	r3, r2, #48
ARM GAS  C:\Users\karunmj\AppData\Local\Temp\ccfJuUhb.s 			page 21


 891 001a 442B     		cmp	r3, #68
 892 001c 00F2AA80 		bhi	.L46
 893 0020 01A2     		adr	r2, .L54
 894 0022 52F823F0 		ldr	pc, [r2, r3, lsl #2]
 895 0026 00BF     		.align	2
 896              	.L54:
 897 0028 55010000 		.word	.L47+1
 898 002c 75010000 		.word	.L46+1
 899 0030 75010000 		.word	.L46+1
 900 0034 75010000 		.word	.L46+1
 901 0038 75010000 		.word	.L46+1
 902 003c 75010000 		.word	.L46+1
 903 0040 75010000 		.word	.L46+1
 904 0044 75010000 		.word	.L46+1
 905 0048 75010000 		.word	.L46+1
 906 004c 75010000 		.word	.L46+1
 907 0050 75010000 		.word	.L46+1
 908 0054 75010000 		.word	.L46+1
 909 0058 75010000 		.word	.L46+1
 910 005c 75010000 		.word	.L46+1
 911 0060 75010000 		.word	.L46+1
 912 0064 75010000 		.word	.L46+1
 913 0068 75010000 		.word	.L46+1
 914 006c 75010000 		.word	.L46+1
 915 0070 75010000 		.word	.L46+1
 916 0074 75010000 		.word	.L46+1
 917 0078 75010000 		.word	.L46+1
 918 007c 75010000 		.word	.L46+1
 919 0080 75010000 		.word	.L46+1
 920 0084 75010000 		.word	.L46+1
 921 0088 75010000 		.word	.L46+1
 922 008c 75010000 		.word	.L46+1
 923 0090 75010000 		.word	.L46+1
 924 0094 75010000 		.word	.L46+1
 925 0098 75010000 		.word	.L46+1
 926 009c 75010000 		.word	.L46+1
 927 00a0 75010000 		.word	.L46+1
 928 00a4 75010000 		.word	.L46+1
 929 00a8 75010000 		.word	.L46+1
 930 00ac 75010000 		.word	.L46+1
 931 00b0 75010000 		.word	.L46+1
 932 00b4 5D010000 		.word	.L48+1
 933 00b8 75010000 		.word	.L46+1
 934 00bc 75010000 		.word	.L46+1
 935 00c0 75010000 		.word	.L46+1
 936 00c4 75010000 		.word	.L46+1
 937 00c8 75010000 		.word	.L46+1
 938 00cc 75010000 		.word	.L46+1
 939 00d0 75010000 		.word	.L46+1
 940 00d4 75010000 		.word	.L46+1
 941 00d8 75010000 		.word	.L46+1
 942 00dc 75010000 		.word	.L46+1
 943 00e0 75010000 		.word	.L46+1
 944 00e4 75010000 		.word	.L46+1
 945 00e8 75010000 		.word	.L46+1
 946 00ec 75010000 		.word	.L46+1
 947 00f0 75010000 		.word	.L46+1
ARM GAS  C:\Users\karunmj\AppData\Local\Temp\ccfJuUhb.s 			page 22


 948 00f4 75010000 		.word	.L46+1
 949 00f8 6D010000 		.word	.L49+1
 950 00fc 75010000 		.word	.L46+1
 951 0100 75010000 		.word	.L46+1
 952 0104 75010000 		.word	.L46+1
 953 0108 75010000 		.word	.L46+1
 954 010c 75010000 		.word	.L46+1
 955 0110 75010000 		.word	.L46+1
 956 0114 75010000 		.word	.L46+1
 957 0118 75010000 		.word	.L46+1
 958 011c 75010000 		.word	.L46+1
 959 0120 3D010000 		.word	.L50+1
 960 0124 75010000 		.word	.L46+1
 961 0128 75010000 		.word	.L46+1
 962 012c 75010000 		.word	.L46+1
 963 0130 45010000 		.word	.L51+1
 964 0134 65010000 		.word	.L52+1
 965 0138 4D010000 		.word	.L53+1
 966              	.L50:
 210:.\slre.c      **** 	case 'n':	res = '\n';		break;
 967              		.loc 1 210 0
 968 013c 4FF00A03 		mov	r3, #10
 969 0140 FB60     		str	r3, [r7, #12]
 970 0142 1DE0     		b	.L55
 971              	.L51:
 211:.\slre.c      **** 	case 'r':	res = '\r';		break;
 972              		.loc 1 211 0
 973 0144 4FF00D03 		mov	r3, #13
 974 0148 FB60     		str	r3, [r7, #12]
 975 014a 19E0     		b	.L55
 976              	.L53:
 212:.\slre.c      **** 	case 't':	res = '\t';		break;
 977              		.loc 1 212 0
 978 014c 4FF00903 		mov	r3, #9
 979 0150 FB60     		str	r3, [r7, #12]
 980 0152 15E0     		b	.L55
 981              	.L47:
 213:.\slre.c      **** 	case '0':	res = 0;		break;
 982              		.loc 1 213 0
 983 0154 4FF00003 		mov	r3, #0
 984 0158 FB60     		str	r3, [r7, #12]
 985 015a 11E0     		b	.L55
 986              	.L48:
 214:.\slre.c      **** 	case 'S':	res = NONSPACE << 8;	break;
 987              		.loc 1 214 0
 988 015c 4FF48053 		mov	r3, #4096
 989 0160 FB60     		str	r3, [r7, #12]
 990 0162 0DE0     		b	.L55
 991              	.L52:
 215:.\slre.c      **** 	case 's':	res = SPACE << 8;	break;
 992              		.loc 1 215 0
 993 0164 4FF47063 		mov	r3, #3840
 994 0168 FB60     		str	r3, [r7, #12]
 995 016a 09E0     		b	.L55
 996              	.L49:
 216:.\slre.c      **** 	case 'd':	res = DIGIT << 8;	break;
 997              		.loc 1 216 0
ARM GAS  C:\Users\karunmj\AppData\Local\Temp\ccfJuUhb.s 			page 23


 998 016c 4FF48853 		mov	r3, #4352
 999 0170 FB60     		str	r3, [r7, #12]
 1000 0172 05E0     		b	.L55
 1001              	.L46:
 217:.\slre.c      **** 	default:	res = (*re)[-1];	break;
 1002              		.loc 1 217 0
 1003 0174 7B68     		ldr	r3, [r7, #4]
 1004 0176 1B68     		ldr	r3, [r3, #0]
 1005 0178 03F1FF33 		add	r3, r3, #-1
 1006 017c 1B78     		ldrb	r3, [r3, #0]	@ zero_extendqisi2
 1007 017e FB60     		str	r3, [r7, #12]
 1008              	.L55:
 218:.\slre.c      **** 	}
 219:.\slre.c      **** 
 220:.\slre.c      **** 	return (res);
 1009              		.loc 1 220 0
 1010 0180 FB68     		ldr	r3, [r7, #12]
 221:.\slre.c      **** }
 1011              		.loc 1 221 0
 1012 0182 1846     		mov	r0, r3
 1013 0184 07F11407 		add	r7, r7, #20
 1014 0188 BD46     		mov	sp, r7
 1015 018a 80BC     		pop	{r7}
 1016 018c 7047     		bx	lr
 1017              		.cfi_endproc
 1018              	.LFE6:
 1019              		.size	get_escape_char, .-get_escape_char
 1020 018e 00BF     		.section	.rodata
 1021 0137 00       		.align	2
 1022              	.LC33:
 1023 0138 4E6F2063 		.ascii	"No closing ']' bracket\000"
 1023      6C6F7369 
 1023      6E672027 
 1023      5D272062 
 1023      7261636B 
 1024              		.section	.text.anyof,"ax",%progbits
 1025              		.align	2
 1026              		.thumb
 1027              		.thumb_func
 1028              		.type	anyof, %function
 1029              	anyof:
 1030              	.LFB7:
 222:.\slre.c      **** 
 223:.\slre.c      **** static void
 224:.\slre.c      **** anyof(struct slre *r, const char **re)
 225:.\slre.c      **** {
 1031              		.loc 1 225 0
 1032              		.cfi_startproc
 1033              		@ args = 0, pretend = 0, frame = 24
 1034              		@ frame_needed = 1, uses_anonymous_args = 0
 1035 0000 80B5     		push	{r7, lr}
 1036              	.LCFI21:
 1037              		.cfi_def_cfa_offset 8
 1038 0002 86B0     		sub	sp, sp, #24
 1039              	.LCFI22:
 1040              		.cfi_def_cfa_offset 32
 1041 0004 00AF     		add	r7, sp, #0
ARM GAS  C:\Users\karunmj\AppData\Local\Temp\ccfJuUhb.s 			page 24


 1042              		.cfi_offset 14, -4
 1043              		.cfi_offset 7, -8
 1044              	.LCFI23:
 1045              		.cfi_def_cfa_register 7
 1046 0006 7860     		str	r0, [r7, #4]
 1047 0008 3960     		str	r1, [r7, #0]
 226:.\slre.c      **** 	int	esc, old_data_size = r->data_size, op = ANYOF;
 1048              		.loc 1 226 0
 1049 000a 7B68     		ldr	r3, [r7, #4]
 1050 000c D3F80432 		ldr	r3, [r3, #516]
 1051 0010 3B61     		str	r3, [r7, #16]
 1052 0012 4FF00403 		mov	r3, #4
 1053 0016 7B61     		str	r3, [r7, #20]
 227:.\slre.c      **** 
 228:.\slre.c      **** 	if (**re == '^') {
 1054              		.loc 1 228 0
 1055 0018 3B68     		ldr	r3, [r7, #0]
 1056 001a 1B68     		ldr	r3, [r3, #0]
 1057 001c 1B78     		ldrb	r3, [r3, #0]	@ zero_extendqisi2
 1058 001e 5E2B     		cmp	r3, #94
 1059 0020 4DD1     		bne	.L69
 229:.\slre.c      **** 		op = ANYBUT;
 1060              		.loc 1 229 0
 1061 0022 4FF00503 		mov	r3, #5
 1062 0026 7B61     		str	r3, [r7, #20]
 230:.\slre.c      **** 		(*re)++;
 1063              		.loc 1 230 0
 1064 0028 3B68     		ldr	r3, [r7, #0]
 1065 002a 1B68     		ldr	r3, [r3, #0]
 1066 002c 03F10102 		add	r2, r3, #1
 1067 0030 3B68     		ldr	r3, [r7, #0]
 1068 0032 1A60     		str	r2, [r3, #0]
 231:.\slre.c      **** 	}
 232:.\slre.c      **** 
 233:.\slre.c      **** 	while (**re != '\0')
 1069              		.loc 1 233 0
 1070 0034 44E0     		b	.L59
 1071              	.L66:
 234:.\slre.c      **** 
 235:.\slre.c      **** 		switch (*(*re)++) {
 1072              		.loc 1 235 0
 1073 0036 3B68     		ldr	r3, [r7, #0]
 1074 0038 1A68     		ldr	r2, [r3, #0]
 1075 003a 1378     		ldrb	r3, [r2, #0]	@ zero_extendqisi2
 1076 003c 02F10101 		add	r1, r2, #1
 1077 0040 3A68     		ldr	r2, [r7, #0]
 1078 0042 1160     		str	r1, [r2, #0]
 1079 0044 5C2B     		cmp	r3, #92
 1080 0046 14D0     		beq	.L61
 1081 0048 5D2B     		cmp	r3, #93
 1082 004a 2ED1     		bne	.L68
 1083              	.L62:
 236:.\slre.c      **** 		case ']':
 237:.\slre.c      **** 			emit(r, op);
 1084              		.loc 1 237 0
 1085 004c 7868     		ldr	r0, [r7, #4]
 1086 004e 7969     		ldr	r1, [r7, #20]
ARM GAS  C:\Users\karunmj\AppData\Local\Temp\ccfJuUhb.s 			page 25


 1087 0050 FFF7FEFF 		bl	emit
 238:.\slre.c      **** 			emit(r, old_data_size);
 1088              		.loc 1 238 0
 1089 0054 7868     		ldr	r0, [r7, #4]
 1090 0056 3969     		ldr	r1, [r7, #16]
 1091 0058 FFF7FEFF 		bl	emit
 239:.\slre.c      **** 			emit(r, r->data_size - old_data_size);
 1092              		.loc 1 239 0
 1093 005c 7B68     		ldr	r3, [r7, #4]
 1094 005e D3F80422 		ldr	r2, [r3, #516]
 1095 0062 3B69     		ldr	r3, [r7, #16]
 1096 0064 C3EB0203 		rsb	r3, r3, r2
 1097 0068 7868     		ldr	r0, [r7, #4]
 1098 006a 1946     		mov	r1, r3
 1099 006c FFF7FEFF 		bl	emit
 240:.\slre.c      **** 			return;
 1100              		.loc 1 240 0
 1101 0070 32E0     		b	.L67
 1102              	.L61:
 241:.\slre.c      **** 			/* NOTREACHED */
 242:.\slre.c      **** 			break;
 243:.\slre.c      **** 		case '\\':
 244:.\slre.c      **** 			esc = get_escape_char(re);
 1103              		.loc 1 244 0
 1104 0072 3868     		ldr	r0, [r7, #0]
 1105 0074 FFF7FEFF 		bl	get_escape_char
 1106 0078 0346     		mov	r3, r0
 1107 007a FB60     		str	r3, [r7, #12]
 245:.\slre.c      **** 			if ((esc & 0xff) == 0) {
 1108              		.loc 1 245 0
 1109 007c FB68     		ldr	r3, [r7, #12]
 1110 007e 03F0FF03 		and	r3, r3, #255
 1111 0082 002B     		cmp	r3, #0
 1112 0084 0CD1     		bne	.L64
 246:.\slre.c      **** 				store_char_in_data(r, 0);
 1113              		.loc 1 246 0
 1114 0086 7868     		ldr	r0, [r7, #4]
 1115 0088 4FF00001 		mov	r1, #0
 1116 008c FFF7FEFF 		bl	store_char_in_data
 247:.\slre.c      **** 				store_char_in_data(r, esc >> 8);
 1117              		.loc 1 247 0
 1118 0090 FB68     		ldr	r3, [r7, #12]
 1119 0092 4FEA2323 		asr	r3, r3, #8
 1120 0096 7868     		ldr	r0, [r7, #4]
 1121 0098 1946     		mov	r1, r3
 1122 009a FFF7FEFF 		bl	store_char_in_data
 248:.\slre.c      **** 			} else {
 249:.\slre.c      **** 				store_char_in_data(r, esc);
 250:.\slre.c      **** 			}
 251:.\slre.c      **** 			break;
 1123              		.loc 1 251 0
 1124 009e 0FE0     		b	.L59
 1125              	.L64:
 1126              		.loc 1 249 0
 1127 00a0 7868     		ldr	r0, [r7, #4]
 1128 00a2 F968     		ldr	r1, [r7, #12]
 1129 00a4 FFF7FEFF 		bl	store_char_in_data
ARM GAS  C:\Users\karunmj\AppData\Local\Temp\ccfJuUhb.s 			page 26


 1130              		.loc 1 251 0
 1131 00a8 0AE0     		b	.L59
 1132              	.L68:
 252:.\slre.c      **** 		default:
 253:.\slre.c      **** 			store_char_in_data(r, (*re)[-1]);
 1133              		.loc 1 253 0
 1134 00aa 3B68     		ldr	r3, [r7, #0]
 1135 00ac 1B68     		ldr	r3, [r3, #0]
 1136 00ae 03F1FF33 		add	r3, r3, #-1
 1137 00b2 1B78     		ldrb	r3, [r3, #0]	@ zero_extendqisi2
 1138 00b4 7868     		ldr	r0, [r7, #4]
 1139 00b6 1946     		mov	r1, r3
 1140 00b8 FFF7FEFF 		bl	store_char_in_data
 1141 00bc 00E0     		b	.L59
 1142              	.L69:
 1143              		.loc 1 233 0
 1144 00be 00BF     		nop
 1145              	.L59:
 1146 00c0 3B68     		ldr	r3, [r7, #0]
 1147 00c2 1B68     		ldr	r3, [r3, #0]
 1148 00c4 1B78     		ldrb	r3, [r3, #0]	@ zero_extendqisi2
 1149 00c6 002B     		cmp	r3, #0
 1150 00c8 B5D1     		bne	.L66
 254:.\slre.c      **** 			break;
 255:.\slre.c      **** 		}
 256:.\slre.c      **** 
 257:.\slre.c      **** 	r->err_str = "No closing ']' bracket";
 1151              		.loc 1 257 0
 1152 00ca 7A68     		ldr	r2, [r7, #4]
 1153 00cc 40F20003 		movw	r3, #:lower16:.LC33
 1154 00d0 C0F20003 		movt	r3, #:upper16:.LC33
 1155 00d4 C2F81032 		str	r3, [r2, #528]
 1156              	.L67:
 258:.\slre.c      **** }
 1157              		.loc 1 258 0
 1158 00d8 07F11807 		add	r7, r7, #24
 1159 00dc BD46     		mov	sp, r7
 1160 00de 80BD     		pop	{r7, pc}
 1161              		.cfi_endproc
 1162              	.LFE7:
 1163              		.size	anyof, .-anyof
 1164              		.section	.text.relocate,"ax",%progbits
 1165              		.align	2
 1166              		.thumb
 1167              		.thumb_func
 1168              		.type	relocate, %function
 1169              	relocate:
 1170              	.LFB8:
 259:.\slre.c      **** 
 260:.\slre.c      **** static void
 261:.\slre.c      **** relocate(struct slre *r, int begin, int shift)
 262:.\slre.c      **** {
 1171              		.loc 1 262 0
 1172              		.cfi_startproc
 1173              		@ args = 0, pretend = 0, frame = 16
 1174              		@ frame_needed = 1, uses_anonymous_args = 0
 1175 0000 80B5     		push	{r7, lr}
ARM GAS  C:\Users\karunmj\AppData\Local\Temp\ccfJuUhb.s 			page 27


 1176              	.LCFI24:
 1177              		.cfi_def_cfa_offset 8
 1178 0002 84B0     		sub	sp, sp, #16
 1179              	.LCFI25:
 1180              		.cfi_def_cfa_offset 24
 1181 0004 00AF     		add	r7, sp, #0
 1182              		.cfi_offset 14, -4
 1183              		.cfi_offset 7, -8
 1184              	.LCFI26:
 1185              		.cfi_def_cfa_register 7
 1186 0006 F860     		str	r0, [r7, #12]
 1187 0008 B960     		str	r1, [r7, #8]
 1188 000a 7A60     		str	r2, [r7, #4]
 263:.\slre.c      **** 	emit(r, END);
 1189              		.loc 1 263 0
 1190 000c F868     		ldr	r0, [r7, #12]
 1191 000e 4FF00001 		mov	r1, #0
 1192 0012 FFF7FEFF 		bl	emit
 264:.\slre.c      **** 	memmove(r->code + begin + shift, r->code + begin, r->code_size - begin);
 1193              		.loc 1 264 0
 1194 0016 FA68     		ldr	r2, [r7, #12]
 1195 0018 B968     		ldr	r1, [r7, #8]
 1196 001a 7B68     		ldr	r3, [r7, #4]
 1197 001c 0B44     		add	r3, r1, r3
 1198 001e 02EB0301 		add	r1, r2, r3
 1199 0022 FA68     		ldr	r2, [r7, #12]
 1200 0024 BB68     		ldr	r3, [r7, #8]
 1201 0026 1A44     		add	r2, r2, r3
 1202 0028 FB68     		ldr	r3, [r7, #12]
 1203 002a D3F80002 		ldr	r0, [r3, #512]
 1204 002e BB68     		ldr	r3, [r7, #8]
 1205 0030 C3EB0003 		rsb	r3, r3, r0
 1206 0034 0846     		mov	r0, r1
 1207 0036 1146     		mov	r1, r2
 1208 0038 1A46     		mov	r2, r3
 1209 003a FFF7FEFF 		bl	memmove
 265:.\slre.c      **** 	r->code_size += shift;
 1210              		.loc 1 265 0
 1211 003e FB68     		ldr	r3, [r7, #12]
 1212 0040 D3F80022 		ldr	r2, [r3, #512]
 1213 0044 7B68     		ldr	r3, [r7, #4]
 1214 0046 1A44     		add	r2, r2, r3
 1215 0048 FB68     		ldr	r3, [r7, #12]
 1216 004a C3F80022 		str	r2, [r3, #512]
 266:.\slre.c      **** }
 1217              		.loc 1 266 0
 1218 004e 07F11007 		add	r7, r7, #16
 1219 0052 BD46     		mov	sp, r7
 1220 0054 80BD     		pop	{r7, pc}
 1221              		.cfi_endproc
 1222              	.LFE8:
 1223              		.size	relocate, .-relocate
 1224 0056 00BF     		.section	.text.quantifier,"ax",%progbits
 1225              		.align	2
 1226              		.thumb
 1227              		.thumb_func
 1228              		.type	quantifier, %function
ARM GAS  C:\Users\karunmj\AppData\Local\Temp\ccfJuUhb.s 			page 28


 1229              	quantifier:
 1230              	.LFB9:
 267:.\slre.c      **** 
 268:.\slre.c      **** static void
 269:.\slre.c      **** quantifier(struct slre *r, int prev, int op)
 270:.\slre.c      **** {
 1231              		.loc 1 270 0
 1232              		.cfi_startproc
 1233              		@ args = 0, pretend = 0, frame = 16
 1234              		@ frame_needed = 1, uses_anonymous_args = 0
 1235 0000 80B5     		push	{r7, lr}
 1236              	.LCFI27:
 1237              		.cfi_def_cfa_offset 8
 1238 0002 84B0     		sub	sp, sp, #16
 1239              	.LCFI28:
 1240              		.cfi_def_cfa_offset 24
 1241 0004 00AF     		add	r7, sp, #0
 1242              		.cfi_offset 14, -4
 1243              		.cfi_offset 7, -8
 1244              	.LCFI29:
 1245              		.cfi_def_cfa_register 7
 1246 0006 F860     		str	r0, [r7, #12]
 1247 0008 B960     		str	r1, [r7, #8]
 1248 000a 7A60     		str	r2, [r7, #4]
 271:.\slre.c      **** 	if (r->code[prev] == EXACT && r->code[prev + 2] > 1) {
 1249              		.loc 1 271 0
 1250 000c BB68     		ldr	r3, [r7, #8]
 1251 000e FA68     		ldr	r2, [r7, #12]
 1252 0010 D35C     		ldrb	r3, [r2, r3]	@ zero_extendqisi2
 1253 0012 032B     		cmp	r3, #3
 1254 0014 30D1     		bne	.L73
 1255 0016 BB68     		ldr	r3, [r7, #8]
 1256 0018 03F10203 		add	r3, r3, #2
 1257 001c FA68     		ldr	r2, [r7, #12]
 1258 001e D35C     		ldrb	r3, [r2, r3]	@ zero_extendqisi2
 1259 0020 012B     		cmp	r3, #1
 1260 0022 29D9     		bls	.L73
 272:.\slre.c      **** 		r->code[prev + 2]--;
 1261              		.loc 1 272 0
 1262 0024 BB68     		ldr	r3, [r7, #8]
 1263 0026 03F10203 		add	r3, r3, #2
 1264 002a FA68     		ldr	r2, [r7, #12]
 1265 002c D25C     		ldrb	r2, [r2, r3]	@ zero_extendqisi2
 1266 002e 02F1FF32 		add	r2, r2, #-1
 1267 0032 D1B2     		uxtb	r1, r2
 1268 0034 FA68     		ldr	r2, [r7, #12]
 1269 0036 D154     		strb	r1, [r2, r3]
 273:.\slre.c      **** 		emit(r, EXACT);
 1270              		.loc 1 273 0
 1271 0038 F868     		ldr	r0, [r7, #12]
 1272 003a 4FF00301 		mov	r1, #3
 1273 003e FFF7FEFF 		bl	emit
 274:.\slre.c      **** 		emit(r, r->code[prev + 1] + r->code[prev + 2]);
 1274              		.loc 1 274 0
 1275 0042 BB68     		ldr	r3, [r7, #8]
 1276 0044 03F10103 		add	r3, r3, #1
 1277 0048 FA68     		ldr	r2, [r7, #12]
ARM GAS  C:\Users\karunmj\AppData\Local\Temp\ccfJuUhb.s 			page 29


 1278 004a D35C     		ldrb	r3, [r2, r3]	@ zero_extendqisi2
 1279 004c 1A46     		mov	r2, r3
 1280 004e BB68     		ldr	r3, [r7, #8]
 1281 0050 03F10203 		add	r3, r3, #2
 1282 0054 F968     		ldr	r1, [r7, #12]
 1283 0056 CB5C     		ldrb	r3, [r1, r3]	@ zero_extendqisi2
 1284 0058 1344     		add	r3, r2, r3
 1285 005a F868     		ldr	r0, [r7, #12]
 1286 005c 1946     		mov	r1, r3
 1287 005e FFF7FEFF 		bl	emit
 275:.\slre.c      **** 		emit(r, 1);
 1288              		.loc 1 275 0
 1289 0062 F868     		ldr	r0, [r7, #12]
 1290 0064 4FF00101 		mov	r1, #1
 1291 0068 FFF7FEFF 		bl	emit
 276:.\slre.c      **** 		prev = r->code_size - 3;
 1292              		.loc 1 276 0
 1293 006c FB68     		ldr	r3, [r7, #12]
 1294 006e D3F80032 		ldr	r3, [r3, #512]
 1295 0072 A3F10303 		sub	r3, r3, #3
 1296 0076 BB60     		str	r3, [r7, #8]
 1297              	.L73:
 277:.\slre.c      **** 	}
 278:.\slre.c      **** 	relocate(r, prev, 2);
 1298              		.loc 1 278 0
 1299 0078 F868     		ldr	r0, [r7, #12]
 1300 007a B968     		ldr	r1, [r7, #8]
 1301 007c 4FF00202 		mov	r2, #2
 1302 0080 FFF7FEFF 		bl	relocate
 279:.\slre.c      **** 	r->code[prev] = op;
 1303              		.loc 1 279 0
 1304 0084 BB68     		ldr	r3, [r7, #8]
 1305 0086 7A68     		ldr	r2, [r7, #4]
 1306 0088 D1B2     		uxtb	r1, r2
 1307 008a FA68     		ldr	r2, [r7, #12]
 1308 008c D154     		strb	r1, [r2, r3]
 280:.\slre.c      **** 	set_jump_offset(r, prev + 1, prev);
 1309              		.loc 1 280 0
 1310 008e BB68     		ldr	r3, [r7, #8]
 1311 0090 03F10103 		add	r3, r3, #1
 1312 0094 F868     		ldr	r0, [r7, #12]
 1313 0096 1946     		mov	r1, r3
 1314 0098 BA68     		ldr	r2, [r7, #8]
 1315 009a FFF7FEFF 		bl	set_jump_offset
 281:.\slre.c      **** }
 1316              		.loc 1 281 0
 1317 009e 07F11007 		add	r7, r7, #16
 1318 00a2 BD46     		mov	sp, r7
 1319 00a4 80BD     		pop	{r7, pc}
 1320              		.cfi_endproc
 1321              	.LFE9:
 1322              		.size	quantifier, .-quantifier
 1323 00a6 00BF     		.section	.text.exact_one_char,"ax",%progbits
 1324              		.align	2
 1325              		.thumb
 1326              		.thumb_func
 1327              		.type	exact_one_char, %function
ARM GAS  C:\Users\karunmj\AppData\Local\Temp\ccfJuUhb.s 			page 30


 1328              	exact_one_char:
 1329              	.LFB10:
 282:.\slre.c      **** 
 283:.\slre.c      **** static void
 284:.\slre.c      **** exact_one_char(struct slre *r, int ch)
 285:.\slre.c      **** {
 1330              		.loc 1 285 0
 1331              		.cfi_startproc
 1332              		@ args = 0, pretend = 0, frame = 8
 1333              		@ frame_needed = 1, uses_anonymous_args = 0
 1334 0000 80B5     		push	{r7, lr}
 1335              	.LCFI30:
 1336              		.cfi_def_cfa_offset 8
 1337 0002 82B0     		sub	sp, sp, #8
 1338              	.LCFI31:
 1339              		.cfi_def_cfa_offset 16
 1340 0004 00AF     		add	r7, sp, #0
 1341              		.cfi_offset 14, -4
 1342              		.cfi_offset 7, -8
 1343              	.LCFI32:
 1344              		.cfi_def_cfa_register 7
 1345 0006 7860     		str	r0, [r7, #4]
 1346 0008 3960     		str	r1, [r7, #0]
 286:.\slre.c      **** 	emit(r, EXACT);
 1347              		.loc 1 286 0
 1348 000a 7868     		ldr	r0, [r7, #4]
 1349 000c 4FF00301 		mov	r1, #3
 1350 0010 FFF7FEFF 		bl	emit
 287:.\slre.c      **** 	emit(r, r->data_size);
 1351              		.loc 1 287 0
 1352 0014 7B68     		ldr	r3, [r7, #4]
 1353 0016 D3F80432 		ldr	r3, [r3, #516]
 1354 001a 7868     		ldr	r0, [r7, #4]
 1355 001c 1946     		mov	r1, r3
 1356 001e FFF7FEFF 		bl	emit
 288:.\slre.c      **** 	emit(r, 1);
 1357              		.loc 1 288 0
 1358 0022 7868     		ldr	r0, [r7, #4]
 1359 0024 4FF00101 		mov	r1, #1
 1360 0028 FFF7FEFF 		bl	emit
 289:.\slre.c      **** 	store_char_in_data(r, ch);
 1361              		.loc 1 289 0
 1362 002c 7868     		ldr	r0, [r7, #4]
 1363 002e 3968     		ldr	r1, [r7, #0]
 1364 0030 FFF7FEFF 		bl	store_char_in_data
 290:.\slre.c      **** }
 1365              		.loc 1 290 0
 1366 0034 07F10807 		add	r7, r7, #8
 1367 0038 BD46     		mov	sp, r7
 1368 003a 80BD     		pop	{r7, pc}
 1369              		.cfi_endproc
 1370              	.LFE10:
 1371              		.size	exact_one_char, .-exact_one_char
 1372              		.section	.text.fixup_branch,"ax",%progbits
 1373              		.align	2
 1374              		.thumb
 1375              		.thumb_func
ARM GAS  C:\Users\karunmj\AppData\Local\Temp\ccfJuUhb.s 			page 31


 1376              		.type	fixup_branch, %function
 1377              	fixup_branch:
 1378              	.LFB11:
 291:.\slre.c      **** 
 292:.\slre.c      **** static void
 293:.\slre.c      **** fixup_branch(struct slre *r, int fixup)
 294:.\slre.c      **** {
 1379              		.loc 1 294 0
 1380              		.cfi_startproc
 1381              		@ args = 0, pretend = 0, frame = 8
 1382              		@ frame_needed = 1, uses_anonymous_args = 0
 1383 0000 80B5     		push	{r7, lr}
 1384              	.LCFI33:
 1385              		.cfi_def_cfa_offset 8
 1386 0002 82B0     		sub	sp, sp, #8
 1387              	.LCFI34:
 1388              		.cfi_def_cfa_offset 16
 1389 0004 00AF     		add	r7, sp, #0
 1390              		.cfi_offset 14, -4
 1391              		.cfi_offset 7, -8
 1392              	.LCFI35:
 1393              		.cfi_def_cfa_register 7
 1394 0006 7860     		str	r0, [r7, #4]
 1395 0008 3960     		str	r1, [r7, #0]
 295:.\slre.c      **** 	if (fixup > 0) {
 1396              		.loc 1 295 0
 1397 000a 3B68     		ldr	r3, [r7, #0]
 1398 000c 002B     		cmp	r3, #0
 1399 000e 0CDD     		ble	.L79
 296:.\slre.c      **** 		emit(r, END);
 1400              		.loc 1 296 0
 1401 0010 7868     		ldr	r0, [r7, #4]
 1402 0012 4FF00001 		mov	r1, #0
 1403 0016 FFF7FEFF 		bl	emit
 297:.\slre.c      **** 		set_jump_offset(r, fixup, fixup - 2);
 1404              		.loc 1 297 0
 1405 001a 3B68     		ldr	r3, [r7, #0]
 1406 001c A3F10203 		sub	r3, r3, #2
 1407 0020 7868     		ldr	r0, [r7, #4]
 1408 0022 3968     		ldr	r1, [r7, #0]
 1409 0024 1A46     		mov	r2, r3
 1410 0026 FFF7FEFF 		bl	set_jump_offset
 1411              	.L79:
 298:.\slre.c      **** 	}
 299:.\slre.c      **** }
 1412              		.loc 1 299 0
 1413 002a 07F10807 		add	r7, r7, #8
 1414 002e BD46     		mov	sp, r7
 1415 0030 80BD     		pop	{r7, pc}
 1416              		.cfi_endproc
 1417              	.LFE11:
 1418              		.size	fixup_branch, .-fixup_branch
 1419 0032 00BF     		.section	.rodata
 1420 014f 00       		.align	2
 1421              	.LC34:
 1422 0150 4E6F2063 		.ascii	"No closing bracket\000"
 1422      6C6F7369 
ARM GAS  C:\Users\karunmj\AppData\Local\Temp\ccfJuUhb.s 			page 32


 1422      6E672062 
 1422      7261636B 
 1422      657400
 1423 0163 00       		.align	2
 1424              	.LC35:
 1425 0164 556E6261 		.ascii	"Unbalanced brackets\000"
 1425      6C616E63 
 1425      65642062 
 1425      7261636B 
 1425      65747300 
 1426              		.section	.text.compile,"ax",%progbits
 1427              		.align	2
 1428              		.thumb
 1429              		.thumb_func
 1430              		.type	compile, %function
 1431              	compile:
 1432              	.LFB12:
 300:.\slre.c      **** 
 301:.\slre.c      **** static void
 302:.\slre.c      **** compile(struct slre *r, const char **re)
 303:.\slre.c      **** {
 1433              		.loc 1 303 0
 1434              		.cfi_startproc
 1435              		@ args = 0, pretend = 0, frame = 40
 1436              		@ frame_needed = 1, uses_anonymous_args = 0
 1437 0000 80B5     		push	{r7, lr}
 1438              	.LCFI36:
 1439              		.cfi_def_cfa_offset 8
 1440 0002 8AB0     		sub	sp, sp, #40
 1441              	.LCFI37:
 1442              		.cfi_def_cfa_offset 48
 1443 0004 00AF     		add	r7, sp, #0
 1444              		.cfi_offset 14, -4
 1445              		.cfi_offset 7, -8
 1446              	.LCFI38:
 1447              		.cfi_def_cfa_register 7
 1448 0006 7860     		str	r0, [r7, #4]
 1449 0008 3960     		str	r1, [r7, #0]
 304:.\slre.c      **** 	int	op, esc, branch_start, last_op, fixup, cap_no, level;
 305:.\slre.c      **** 
 306:.\slre.c      **** 	fixup = 0;
 1450              		.loc 1 306 0
 1451 000a 4FF00003 		mov	r3, #0
 1452 000e FB61     		str	r3, [r7, #28]
 307:.\slre.c      **** 	level = r->num_caps;
 1453              		.loc 1 307 0
 1454 0010 7B68     		ldr	r3, [r7, #4]
 1455 0012 D3F80832 		ldr	r3, [r3, #520]
 1456 0016 7B62     		str	r3, [r7, #36]
 308:.\slre.c      **** 	branch_start = last_op = r->code_size;
 1457              		.loc 1 308 0
 1458 0018 7B68     		ldr	r3, [r7, #4]
 1459 001a D3F80032 		ldr	r3, [r3, #512]
 1460 001e BB61     		str	r3, [r7, #24]
 1461 0020 BB69     		ldr	r3, [r7, #24]
 1462 0022 7B61     		str	r3, [r7, #20]
 1463              	.L107:
ARM GAS  C:\Users\karunmj\AppData\Local\Temp\ccfJuUhb.s 			page 33


 309:.\slre.c      **** 
 310:.\slre.c      **** 	for (;;)
 311:.\slre.c      **** 		switch (*(*re)++) {
 1464              		.loc 1 311 0
 1465 0024 3B68     		ldr	r3, [r7, #0]
 1466 0026 1A68     		ldr	r2, [r3, #0]
 1467 0028 1378     		ldrb	r3, [r2, #0]	@ zero_extendqisi2
 1468 002a 02F10101 		add	r1, r2, #1
 1469 002e 3A68     		ldr	r2, [r7, #0]
 1470 0030 1160     		str	r1, [r2, #0]
 1471 0032 2E2B     		cmp	r3, #46
 1472 0034 34D0     		beq	.L87
 1473 0036 2E2B     		cmp	r3, #46
 1474 0038 0FDC     		bgt	.L93
 1475 003a 292B     		cmp	r3, #41
 1476 003c 00F09B80 		beq	.L85
 1477 0040 292B     		cmp	r3, #41
 1478 0042 06DC     		bgt	.L94
 1479 0044 242B     		cmp	r3, #36
 1480 0046 25D0     		beq	.L83
 1481 0048 282B     		cmp	r3, #40
 1482 004a 57D0     		beq	.L84
 1483 004c 002B     		cmp	r3, #0
 1484 004e 14D0     		beq	.L82
 1485 0050 F5E0     		b	.L81
 1486              	.L94:
 1487 0052 2B2B     		cmp	r3, #43
 1488 0054 00F3F380 		bgt	.L81
 1489 0058 A2E0     		b	.L109
 1490              	.L93:
 1491 005a 5C2B     		cmp	r3, #92
 1492 005c 33D0     		beq	.L90
 1493 005e 5C2B     		cmp	r3, #92
 1494 0060 05DC     		bgt	.L95
 1495 0062 3F2B     		cmp	r3, #63
 1496 0064 00F0C380 		beq	.L88
 1497 0068 5B2B     		cmp	r3, #91
 1498 006a 23D0     		beq	.L89
 1499 006c E7E0     		b	.L81
 1500              	.L95:
 1501 006e 5E2B     		cmp	r3, #94
 1502 0070 0AD0     		beq	.L91
 1503 0072 7C2B     		cmp	r3, #124
 1504 0074 00F0C280 		beq	.L92
 1505 0078 E1E0     		b	.L81
 1506              	.L82:
 312:.\slre.c      **** 		case '\0':
 313:.\slre.c      **** 			(*re)--;
 1507              		.loc 1 313 0
 1508 007a 3B68     		ldr	r3, [r7, #0]
 1509 007c 1B68     		ldr	r3, [r3, #0]
 1510 007e 03F1FF32 		add	r2, r3, #-1
 1511 0082 3B68     		ldr	r3, [r7, #0]
 1512 0084 1A60     		str	r2, [r3, #0]
 314:.\slre.c      **** 			return;
 1513              		.loc 1 314 0
 1514 0086 EBE0     		b	.L108
ARM GAS  C:\Users\karunmj\AppData\Local\Temp\ccfJuUhb.s 			page 34


 1515              	.L91:
 315:.\slre.c      **** 			/* NOTREACHED */
 316:.\slre.c      **** 			break;
 317:.\slre.c      **** 		case '^':
 318:.\slre.c      **** 			emit(r, BOL);
 1516              		.loc 1 318 0
 1517 0088 7868     		ldr	r0, [r7, #4]
 1518 008a 4FF00801 		mov	r1, #8
 1519 008e FFF7FEFF 		bl	emit
 319:.\slre.c      **** 			break;
 1520              		.loc 1 319 0
 1521 0092 E3E0     		b	.L97
 1522              	.L83:
 320:.\slre.c      **** 		case '$':
 321:.\slre.c      **** 			emit(r, EOL);
 1523              		.loc 1 321 0
 1524 0094 7868     		ldr	r0, [r7, #4]
 1525 0096 4FF00901 		mov	r1, #9
 1526 009a FFF7FEFF 		bl	emit
 322:.\slre.c      **** 			break;
 1527              		.loc 1 322 0
 1528 009e DDE0     		b	.L97
 1529              	.L87:
 323:.\slre.c      **** 		case '.':
 324:.\slre.c      **** 			last_op = r->code_size;
 1530              		.loc 1 324 0
 1531 00a0 7B68     		ldr	r3, [r7, #4]
 1532 00a2 D3F80032 		ldr	r3, [r3, #512]
 1533 00a6 BB61     		str	r3, [r7, #24]
 325:.\slre.c      **** 			emit(r, ANY);
 1534              		.loc 1 325 0
 1535 00a8 7868     		ldr	r0, [r7, #4]
 1536 00aa 4FF00201 		mov	r1, #2
 1537 00ae FFF7FEFF 		bl	emit
 326:.\slre.c      **** 			break;
 1538              		.loc 1 326 0
 1539 00b2 D3E0     		b	.L97
 1540              	.L89:
 327:.\slre.c      **** 		case '[':
 328:.\slre.c      **** 			last_op = r->code_size;
 1541              		.loc 1 328 0
 1542 00b4 7B68     		ldr	r3, [r7, #4]
 1543 00b6 D3F80032 		ldr	r3, [r3, #512]
 1544 00ba BB61     		str	r3, [r7, #24]
 329:.\slre.c      **** 			anyof(r, re);
 1545              		.loc 1 329 0
 1546 00bc 7868     		ldr	r0, [r7, #4]
 1547 00be 3968     		ldr	r1, [r7, #0]
 1548 00c0 FFF7FEFF 		bl	anyof
 330:.\slre.c      **** 			break;
 1549              		.loc 1 330 0
 1550 00c4 CAE0     		b	.L97
 1551              	.L90:
 331:.\slre.c      **** 		case '\\':
 332:.\slre.c      **** 			last_op = r->code_size;
 1552              		.loc 1 332 0
 1553 00c6 7B68     		ldr	r3, [r7, #4]
ARM GAS  C:\Users\karunmj\AppData\Local\Temp\ccfJuUhb.s 			page 35


 1554 00c8 D3F80032 		ldr	r3, [r3, #512]
 1555 00cc BB61     		str	r3, [r7, #24]
 333:.\slre.c      **** 			esc = get_escape_char(re);
 1556              		.loc 1 333 0
 1557 00ce 3868     		ldr	r0, [r7, #0]
 1558 00d0 FFF7FEFF 		bl	get_escape_char
 1559 00d4 0346     		mov	r3, r0
 1560 00d6 3B61     		str	r3, [r7, #16]
 334:.\slre.c      **** 			if (esc & 0xff00) {
 1561              		.loc 1 334 0
 1562 00d8 3B69     		ldr	r3, [r7, #16]
 1563 00da 03F47F43 		and	r3, r3, #65280
 1564 00de 002B     		cmp	r3, #0
 1565 00e0 07D0     		beq	.L98
 335:.\slre.c      **** 				emit(r, esc >> 8);
 1566              		.loc 1 335 0
 1567 00e2 3B69     		ldr	r3, [r7, #16]
 1568 00e4 4FEA2323 		asr	r3, r3, #8
 1569 00e8 7868     		ldr	r0, [r7, #4]
 1570 00ea 1946     		mov	r1, r3
 1571 00ec FFF7FEFF 		bl	emit
 1572 00f0 03E0     		b	.L99
 1573              	.L98:
 336:.\slre.c      **** 			} else {
 337:.\slre.c      **** 				exact_one_char(r, esc);
 1574              		.loc 1 337 0
 1575 00f2 7868     		ldr	r0, [r7, #4]
 1576 00f4 3969     		ldr	r1, [r7, #16]
 1577 00f6 FFF7FEFF 		bl	exact_one_char
 1578              	.L99:
 338:.\slre.c      **** 			}
 339:.\slre.c      **** 			break;
 1579              		.loc 1 339 0
 1580 00fa AFE0     		b	.L97
 1581              	.L84:
 340:.\slre.c      **** 		case '(':
 341:.\slre.c      **** 			last_op = r->code_size;
 1582              		.loc 1 341 0
 1583 00fc 7B68     		ldr	r3, [r7, #4]
 1584 00fe D3F80032 		ldr	r3, [r3, #512]
 1585 0102 BB61     		str	r3, [r7, #24]
 342:.\slre.c      **** 			cap_no = ++r->num_caps;
 1586              		.loc 1 342 0
 1587 0104 7B68     		ldr	r3, [r7, #4]
 1588 0106 D3F80832 		ldr	r3, [r3, #520]
 1589 010a 03F10102 		add	r2, r3, #1
 1590 010e 7B68     		ldr	r3, [r7, #4]
 1591 0110 C3F80822 		str	r2, [r3, #520]
 1592 0114 7B68     		ldr	r3, [r7, #4]
 1593 0116 D3F80832 		ldr	r3, [r3, #520]
 1594 011a 3B62     		str	r3, [r7, #32]
 343:.\slre.c      **** 			emit(r, OPEN);
 1595              		.loc 1 343 0
 1596 011c 7868     		ldr	r0, [r7, #4]
 1597 011e 4FF00601 		mov	r1, #6
 1598 0122 FFF7FEFF 		bl	emit
 344:.\slre.c      **** 			emit(r, cap_no);
ARM GAS  C:\Users\karunmj\AppData\Local\Temp\ccfJuUhb.s 			page 36


 1599              		.loc 1 344 0
 1600 0126 7868     		ldr	r0, [r7, #4]
 1601 0128 396A     		ldr	r1, [r7, #32]
 1602 012a FFF7FEFF 		bl	emit
 345:.\slre.c      **** 
 346:.\slre.c      **** 			compile(r, re);
 1603              		.loc 1 346 0
 1604 012e 7868     		ldr	r0, [r7, #4]
 1605 0130 3968     		ldr	r1, [r7, #0]
 1606 0132 FFF765FF 		bl	compile
 347:.\slre.c      **** 			if (*(*re)++ != ')') {
 1607              		.loc 1 347 0
 1608 0136 3B68     		ldr	r3, [r7, #0]
 1609 0138 1B68     		ldr	r3, [r3, #0]
 1610 013a 1A78     		ldrb	r2, [r3, #0]	@ zero_extendqisi2
 1611 013c 292A     		cmp	r2, #41
 1612 013e 0CBF     		ite	eq
 1613 0140 0022     		moveq	r2, #0
 1614 0142 0122     		movne	r2, #1
 1615 0144 D2B2     		uxtb	r2, r2
 1616 0146 03F10101 		add	r1, r3, #1
 1617 014a 3B68     		ldr	r3, [r7, #0]
 1618 014c 1960     		str	r1, [r3, #0]
 1619 014e 002A     		cmp	r2, #0
 1620 0150 07D0     		beq	.L100
 348:.\slre.c      **** 				r->err_str = "No closing bracket";
 1621              		.loc 1 348 0
 1622 0152 7A68     		ldr	r2, [r7, #4]
 1623 0154 40F20003 		movw	r3, #:lower16:.LC34
 1624 0158 C0F20003 		movt	r3, #:upper16:.LC34
 1625 015c C2F81032 		str	r3, [r2, #528]
 349:.\slre.c      **** 				return;
 1626              		.loc 1 349 0
 1627 0160 7EE0     		b	.L108
 1628              	.L100:
 350:.\slre.c      **** 			}
 351:.\slre.c      **** 
 352:.\slre.c      **** 			emit(r, CLOSE);
 1629              		.loc 1 352 0
 1630 0162 7868     		ldr	r0, [r7, #4]
 1631 0164 4FF00701 		mov	r1, #7
 1632 0168 FFF7FEFF 		bl	emit
 353:.\slre.c      **** 			emit(r, cap_no);
 1633              		.loc 1 353 0
 1634 016c 7868     		ldr	r0, [r7, #4]
 1635 016e 396A     		ldr	r1, [r7, #32]
 1636 0170 FFF7FEFF 		bl	emit
 354:.\slre.c      **** 			break;
 1637              		.loc 1 354 0
 1638 0174 72E0     		b	.L97
 1639              	.L85:
 355:.\slre.c      **** 		case ')':
 356:.\slre.c      **** 			(*re)--;
 1640              		.loc 1 356 0
 1641 0176 3B68     		ldr	r3, [r7, #0]
 1642 0178 1B68     		ldr	r3, [r3, #0]
 1643 017a 03F1FF32 		add	r2, r3, #-1
ARM GAS  C:\Users\karunmj\AppData\Local\Temp\ccfJuUhb.s 			page 37


 1644 017e 3B68     		ldr	r3, [r7, #0]
 1645 0180 1A60     		str	r2, [r3, #0]
 357:.\slre.c      **** 			fixup_branch(r, fixup);
 1646              		.loc 1 357 0
 1647 0182 7868     		ldr	r0, [r7, #4]
 1648 0184 F969     		ldr	r1, [r7, #28]
 1649 0186 FFF7FEFF 		bl	fixup_branch
 358:.\slre.c      **** 			if (level == 0) {
 1650              		.loc 1 358 0
 1651 018a 7B6A     		ldr	r3, [r7, #36]
 1652 018c 002B     		cmp	r3, #0
 1653 018e 66D1     		bne	.L110
 359:.\slre.c      **** 				r->err_str = "Unbalanced brackets";
 1654              		.loc 1 359 0
 1655 0190 7A68     		ldr	r2, [r7, #4]
 1656 0192 40F20003 		movw	r3, #:lower16:.LC35
 1657 0196 C0F20003 		movt	r3, #:upper16:.LC35
 1658 019a C2F81032 		str	r3, [r2, #528]
 360:.\slre.c      **** 				return;
 1659              		.loc 1 360 0
 1660 019e 5FE0     		b	.L108
 1661              	.L109:
 361:.\slre.c      **** 			}
 362:.\slre.c      **** 			return;
 363:.\slre.c      **** 			/* NOTREACHED */
 364:.\slre.c      **** 			break;
 365:.\slre.c      **** 		case '+':
 366:.\slre.c      **** 		case '*':
 367:.\slre.c      **** 			op = (*re)[-1] == '*' ? STAR: PLUS;
 1662              		.loc 1 367 0
 1663 01a0 3B68     		ldr	r3, [r7, #0]
 1664 01a2 1B68     		ldr	r3, [r3, #0]
 1665 01a4 03F1FF33 		add	r3, r3, #-1
 1666 01a8 1B78     		ldrb	r3, [r3, #0]	@ zero_extendqisi2
 1667 01aa 2A2B     		cmp	r3, #42
 1668 01ac 02D1     		bne	.L102
 1669 01ae 4FF00A03 		mov	r3, #10
 1670 01b2 01E0     		b	.L103
 1671              	.L102:
 1672 01b4 4FF00B03 		mov	r3, #11
 1673              	.L103:
 1674 01b8 FB60     		str	r3, [r7, #12]
 368:.\slre.c      **** 			if (**re == '?') {
 1675              		.loc 1 368 0
 1676 01ba 3B68     		ldr	r3, [r7, #0]
 1677 01bc 1B68     		ldr	r3, [r3, #0]
 1678 01be 1B78     		ldrb	r3, [r3, #0]	@ zero_extendqisi2
 1679 01c0 3F2B     		cmp	r3, #63
 1680 01c2 0ED1     		bne	.L104
 369:.\slre.c      **** 				(*re)++;
 1681              		.loc 1 369 0
 1682 01c4 3B68     		ldr	r3, [r7, #0]
 1683 01c6 1B68     		ldr	r3, [r3, #0]
 1684 01c8 03F10102 		add	r2, r3, #1
 1685 01cc 3B68     		ldr	r3, [r7, #0]
 1686 01ce 1A60     		str	r2, [r3, #0]
 370:.\slre.c      **** 				op = op == STAR ? STARQ : PLUSQ;
ARM GAS  C:\Users\karunmj\AppData\Local\Temp\ccfJuUhb.s 			page 38


 1687              		.loc 1 370 0
 1688 01d0 FB68     		ldr	r3, [r7, #12]
 1689 01d2 0A2B     		cmp	r3, #10
 1690 01d4 02D1     		bne	.L105
 1691 01d6 4FF00C03 		mov	r3, #12
 1692 01da 01E0     		b	.L106
 1693              	.L105:
 1694 01dc 4FF00D03 		mov	r3, #13
 1695              	.L106:
 1696 01e0 FB60     		str	r3, [r7, #12]
 1697              	.L104:
 371:.\slre.c      **** 			}
 372:.\slre.c      **** 			quantifier(r, last_op, op);
 1698              		.loc 1 372 0
 1699 01e2 7868     		ldr	r0, [r7, #4]
 1700 01e4 B969     		ldr	r1, [r7, #24]
 1701 01e6 FA68     		ldr	r2, [r7, #12]
 1702 01e8 FFF7FEFF 		bl	quantifier
 373:.\slre.c      **** 			break;
 1703              		.loc 1 373 0
 1704 01ec 36E0     		b	.L97
 1705              	.L88:
 374:.\slre.c      **** 		case '?':
 375:.\slre.c      **** 			quantifier(r, last_op, QUEST);
 1706              		.loc 1 375 0
 1707 01ee 7868     		ldr	r0, [r7, #4]
 1708 01f0 B969     		ldr	r1, [r7, #24]
 1709 01f2 4FF00E02 		mov	r2, #14
 1710 01f6 FFF7FEFF 		bl	quantifier
 376:.\slre.c      **** 			break;
 1711              		.loc 1 376 0
 1712 01fa 2FE0     		b	.L97
 1713              	.L92:
 377:.\slre.c      **** 		case '|':
 378:.\slre.c      **** 			fixup_branch(r, fixup);
 1714              		.loc 1 378 0
 1715 01fc 7868     		ldr	r0, [r7, #4]
 1716 01fe F969     		ldr	r1, [r7, #28]
 1717 0200 FFF7FEFF 		bl	fixup_branch
 379:.\slre.c      **** 			relocate(r, branch_start, 3);
 1718              		.loc 1 379 0
 1719 0204 7868     		ldr	r0, [r7, #4]
 1720 0206 7969     		ldr	r1, [r7, #20]
 1721 0208 4FF00302 		mov	r2, #3
 1722 020c FFF7FEFF 		bl	relocate
 380:.\slre.c      **** 			r->code[branch_start] = BRANCH;
 1723              		.loc 1 380 0
 1724 0210 7B69     		ldr	r3, [r7, #20]
 1725 0212 7A68     		ldr	r2, [r7, #4]
 1726 0214 4FF00101 		mov	r1, #1
 1727 0218 D154     		strb	r1, [r2, r3]
 381:.\slre.c      **** 			set_jump_offset(r, branch_start + 1, branch_start);
 1728              		.loc 1 381 0
 1729 021a 7B69     		ldr	r3, [r7, #20]
 1730 021c 03F10103 		add	r3, r3, #1
 1731 0220 7868     		ldr	r0, [r7, #4]
 1732 0222 1946     		mov	r1, r3
ARM GAS  C:\Users\karunmj\AppData\Local\Temp\ccfJuUhb.s 			page 39


 1733 0224 7A69     		ldr	r2, [r7, #20]
 1734 0226 FFF7FEFF 		bl	set_jump_offset
 382:.\slre.c      **** 			fixup = branch_start + 2;
 1735              		.loc 1 382 0
 1736 022a 7B69     		ldr	r3, [r7, #20]
 1737 022c 03F10203 		add	r3, r3, #2
 1738 0230 FB61     		str	r3, [r7, #28]
 383:.\slre.c      **** 			r->code[fixup] = 0xff;
 1739              		.loc 1 383 0
 1740 0232 FB69     		ldr	r3, [r7, #28]
 1741 0234 7A68     		ldr	r2, [r7, #4]
 1742 0236 4FF0FF31 		mov	r1, #-1
 1743 023a D154     		strb	r1, [r2, r3]
 384:.\slre.c      **** 			break;
 1744              		.loc 1 384 0
 1745 023c 0EE0     		b	.L97
 1746              	.L81:
 385:.\slre.c      **** 		default:
 386:.\slre.c      **** 			(*re)--;
 1747              		.loc 1 386 0
 1748 023e 3B68     		ldr	r3, [r7, #0]
 1749 0240 1B68     		ldr	r3, [r3, #0]
 1750 0242 03F1FF32 		add	r2, r3, #-1
 1751 0246 3B68     		ldr	r3, [r7, #0]
 1752 0248 1A60     		str	r2, [r3, #0]
 387:.\slre.c      **** 			last_op = r->code_size;
 1753              		.loc 1 387 0
 1754 024a 7B68     		ldr	r3, [r7, #4]
 1755 024c D3F80032 		ldr	r3, [r3, #512]
 1756 0250 BB61     		str	r3, [r7, #24]
 388:.\slre.c      **** 			exact(r, re);
 1757              		.loc 1 388 0
 1758 0252 7868     		ldr	r0, [r7, #4]
 1759 0254 3968     		ldr	r1, [r7, #0]
 1760 0256 FFF7FEFF 		bl	exact
 389:.\slre.c      **** 			break;
 390:.\slre.c      **** 		}
 1761              		.loc 1 390 0
 1762 025a E3E6     		b	.L107
 1763              	.L97:
 1764 025c E2E6     		b	.L107
 1765              	.L110:
 1766              		.loc 1 362 0
 1767 025e 00BF     		nop
 1768              	.L108:
 391:.\slre.c      **** }
 1769              		.loc 1 391 0
 1770 0260 07F12807 		add	r7, r7, #40
 1771 0264 BD46     		mov	sp, r7
 1772 0266 80BD     		pop	{r7, pc}
 1773              		.cfi_endproc
 1774              	.LFE12:
 1775              		.size	compile, .-compile
 1776              		.section	.text.slre_compile,"ax",%progbits
 1777              		.align	2
 1778              		.global	slre_compile
 1779              		.thumb
ARM GAS  C:\Users\karunmj\AppData\Local\Temp\ccfJuUhb.s 			page 40


 1780              		.thumb_func
 1781              		.type	slre_compile, %function
 1782              	slre_compile:
 1783              	.LFB13:
 392:.\slre.c      **** 
 393:.\slre.c      **** int
 394:.\slre.c      **** slre_compile(struct slre *r, const char *re)
 395:.\slre.c      **** {
 1784              		.loc 1 395 0
 1785              		.cfi_startproc
 1786              		@ args = 0, pretend = 0, frame = 8
 1787              		@ frame_needed = 1, uses_anonymous_args = 0
 1788 0000 80B5     		push	{r7, lr}
 1789              	.LCFI39:
 1790              		.cfi_def_cfa_offset 8
 1791 0002 82B0     		sub	sp, sp, #8
 1792              	.LCFI40:
 1793              		.cfi_def_cfa_offset 16
 1794 0004 00AF     		add	r7, sp, #0
 1795              		.cfi_offset 14, -4
 1796              		.cfi_offset 7, -8
 1797              	.LCFI41:
 1798              		.cfi_def_cfa_register 7
 1799 0006 7860     		str	r0, [r7, #4]
 1800 0008 3960     		str	r1, [r7, #0]
 396:.\slre.c      **** 	r->err_str = NULL;
 1801              		.loc 1 396 0
 1802 000a 7B68     		ldr	r3, [r7, #4]
 1803 000c 4FF00002 		mov	r2, #0
 1804 0010 C3F81022 		str	r2, [r3, #528]
 397:.\slre.c      **** 	r->code_size = r->data_size = r->num_caps = r->anchored = 0;
 1805              		.loc 1 397 0
 1806 0014 7B68     		ldr	r3, [r7, #4]
 1807 0016 4FF00002 		mov	r2, #0
 1808 001a C3F80C22 		str	r2, [r3, #524]
 1809 001e 7B68     		ldr	r3, [r7, #4]
 1810 0020 D3F80C22 		ldr	r2, [r3, #524]
 1811 0024 7B68     		ldr	r3, [r7, #4]
 1812 0026 C3F80822 		str	r2, [r3, #520]
 1813 002a 7B68     		ldr	r3, [r7, #4]
 1814 002c D3F80822 		ldr	r2, [r3, #520]
 1815 0030 7B68     		ldr	r3, [r7, #4]
 1816 0032 C3F80422 		str	r2, [r3, #516]
 1817 0036 7B68     		ldr	r3, [r7, #4]
 1818 0038 D3F80422 		ldr	r2, [r3, #516]
 1819 003c 7B68     		ldr	r3, [r7, #4]
 1820 003e C3F80022 		str	r2, [r3, #512]
 398:.\slre.c      **** 
 399:.\slre.c      **** 	if (*re == '^')
 1821              		.loc 1 399 0
 1822 0042 3B68     		ldr	r3, [r7, #0]
 1823 0044 1B78     		ldrb	r3, [r3, #0]	@ zero_extendqisi2
 1824 0046 5E2B     		cmp	r3, #94
 1825 0048 07D1     		bne	.L112
 400:.\slre.c      **** 		r->anchored++;
 1826              		.loc 1 400 0
 1827 004a 7B68     		ldr	r3, [r7, #4]
ARM GAS  C:\Users\karunmj\AppData\Local\Temp\ccfJuUhb.s 			page 41


 1828 004c D3F80C32 		ldr	r3, [r3, #524]
 1829 0050 03F10102 		add	r2, r3, #1
 1830 0054 7B68     		ldr	r3, [r7, #4]
 1831 0056 C3F80C22 		str	r2, [r3, #524]
 1832              	.L112:
 401:.\slre.c      **** 
 402:.\slre.c      **** 	emit(r, OPEN);	/* This will capture what matches full RE */
 1833              		.loc 1 402 0
 1834 005a 7868     		ldr	r0, [r7, #4]
 1835 005c 4FF00601 		mov	r1, #6
 1836 0060 FFF7FEFF 		bl	emit
 403:.\slre.c      **** 	emit(r, 0);
 1837              		.loc 1 403 0
 1838 0064 7868     		ldr	r0, [r7, #4]
 1839 0066 4FF00001 		mov	r1, #0
 1840 006a FFF7FEFF 		bl	emit
 404:.\slre.c      **** 
 405:.\slre.c      **** 	while (*re != '\0')
 1841              		.loc 1 405 0
 1842 006e 04E0     		b	.L113
 1843              	.L114:
 406:.\slre.c      **** 		compile(r, &re);
 1844              		.loc 1 406 0
 1845 0070 3B46     		mov	r3, r7
 1846 0072 7868     		ldr	r0, [r7, #4]
 1847 0074 1946     		mov	r1, r3
 1848 0076 FFF7FEFF 		bl	compile
 1849              	.L113:
 1850              		.loc 1 405 0
 1851 007a 3B68     		ldr	r3, [r7, #0]
 1852 007c 1B78     		ldrb	r3, [r3, #0]	@ zero_extendqisi2
 1853 007e 002B     		cmp	r3, #0
 1854 0080 F6D1     		bne	.L114
 407:.\slre.c      **** 
 408:.\slre.c      **** 	if (r->code[2] == BRANCH)
 1855              		.loc 1 408 0
 1856 0082 7B68     		ldr	r3, [r7, #4]
 1857 0084 9B78     		ldrb	r3, [r3, #2]	@ zero_extendqisi2
 1858 0086 012B     		cmp	r3, #1
 1859 0088 04D1     		bne	.L115
 409:.\slre.c      **** 		fixup_branch(r, 4);
 1860              		.loc 1 409 0
 1861 008a 7868     		ldr	r0, [r7, #4]
 1862 008c 4FF00401 		mov	r1, #4
 1863 0090 FFF7FEFF 		bl	fixup_branch
 1864              	.L115:
 410:.\slre.c      **** 
 411:.\slre.c      **** 	emit(r, CLOSE);
 1865              		.loc 1 411 0
 1866 0094 7868     		ldr	r0, [r7, #4]
 1867 0096 4FF00701 		mov	r1, #7
 1868 009a FFF7FEFF 		bl	emit
 412:.\slre.c      **** 	emit(r, 0);
 1869              		.loc 1 412 0
 1870 009e 7868     		ldr	r0, [r7, #4]
 1871 00a0 4FF00001 		mov	r1, #0
 1872 00a4 FFF7FEFF 		bl	emit
ARM GAS  C:\Users\karunmj\AppData\Local\Temp\ccfJuUhb.s 			page 42


 413:.\slre.c      **** 	emit(r, END);
 1873              		.loc 1 413 0
 1874 00a8 7868     		ldr	r0, [r7, #4]
 1875 00aa 4FF00001 		mov	r1, #0
 1876 00ae FFF7FEFF 		bl	emit
 414:.\slre.c      **** 
 415:.\slre.c      **** 	return (r->err_str == NULL ? 1 : 0);
 1877              		.loc 1 415 0
 1878 00b2 7B68     		ldr	r3, [r7, #4]
 1879 00b4 D3F81032 		ldr	r3, [r3, #528]
 1880 00b8 002B     		cmp	r3, #0
 1881 00ba 14BF     		ite	ne
 1882 00bc 0023     		movne	r3, #0
 1883 00be 0123     		moveq	r3, #1
 416:.\slre.c      **** }
 1884              		.loc 1 416 0
 1885 00c0 1846     		mov	r0, r3
 1886 00c2 07F10807 		add	r7, r7, #8
 1887 00c6 BD46     		mov	sp, r7
 1888 00c8 80BD     		pop	{r7, pc}
 1889              		.cfi_endproc
 1890              	.LFE13:
 1891              		.size	slre_compile, .-slre_compile
 1892 00ca 00BF     		.section	.text.loop_greedy,"ax",%progbits
 1893              		.align	2
 1894              		.thumb
 1895              		.thumb_func
 1896              		.type	loop_greedy, %function
 1897              	loop_greedy:
 1898              	.LFB14:
 417:.\slre.c      **** 
 418:.\slre.c      **** static int match(const struct slre *, int,
 419:.\slre.c      **** 		const char *, int, int *, struct cap *);
 420:.\slre.c      **** 
 421:.\slre.c      **** static void
 422:.\slre.c      **** loop_greedy(const struct slre *r, int pc, const char *s, int len, int *ofs)
 423:.\slre.c      **** {
 1899              		.loc 1 423 0
 1900              		.cfi_startproc
 1901              		@ args = 4, pretend = 0, frame = 24
 1902              		@ frame_needed = 1, uses_anonymous_args = 0
 1903 0000 80B5     		push	{r7, lr}
 1904              	.LCFI42:
 1905              		.cfi_def_cfa_offset 8
 1906 0002 88B0     		sub	sp, sp, #32
 1907              	.LCFI43:
 1908              		.cfi_def_cfa_offset 40
 1909 0004 02AF     		add	r7, sp, #8
 1910              		.cfi_offset 14, -4
 1911              		.cfi_offset 7, -8
 1912              	.LCFI44:
 1913              		.cfi_def_cfa 7, 32
 1914 0006 F860     		str	r0, [r7, #12]
 1915 0008 B960     		str	r1, [r7, #8]
 1916 000a 7A60     		str	r2, [r7, #4]
 1917 000c 3B60     		str	r3, [r7, #0]
 424:.\slre.c      **** 	int	saved_offset, matched_offset;
ARM GAS  C:\Users\karunmj\AppData\Local\Temp\ccfJuUhb.s 			page 43


 425:.\slre.c      **** 
 426:.\slre.c      **** 	saved_offset = matched_offset = *ofs;
 1918              		.loc 1 426 0
 1919 000e 3B6A     		ldr	r3, [r7, #32]
 1920 0010 1B68     		ldr	r3, [r3, #0]
 1921 0012 7B61     		str	r3, [r7, #20]
 1922 0014 7B69     		ldr	r3, [r7, #20]
 1923 0016 3B61     		str	r3, [r7, #16]
 427:.\slre.c      **** 
 428:.\slre.c      **** 	while (match(r, pc + 2, s, len, ofs, NULL)) {
 1924              		.loc 1 428 0
 1925 0018 1DE0     		b	.L118
 1926              	.L120:
 429:.\slre.c      **** 		saved_offset = *ofs;
 1927              		.loc 1 429 0
 1928 001a 3B6A     		ldr	r3, [r7, #32]
 1929 001c 1B68     		ldr	r3, [r3, #0]
 1930 001e 3B61     		str	r3, [r7, #16]
 430:.\slre.c      **** 		if (match(r, pc + r->code[pc + 1], s, len, ofs, NULL))
 1931              		.loc 1 430 0
 1932 0020 BB68     		ldr	r3, [r7, #8]
 1933 0022 03F10103 		add	r3, r3, #1
 1934 0026 FA68     		ldr	r2, [r7, #12]
 1935 0028 D35C     		ldrb	r3, [r2, r3]	@ zero_extendqisi2
 1936 002a 1A46     		mov	r2, r3
 1937 002c BB68     		ldr	r3, [r7, #8]
 1938 002e 1344     		add	r3, r2, r3
 1939 0030 3A6A     		ldr	r2, [r7, #32]
 1940 0032 0092     		str	r2, [sp, #0]
 1941 0034 4FF00002 		mov	r2, #0
 1942 0038 0192     		str	r2, [sp, #4]
 1943 003a F868     		ldr	r0, [r7, #12]
 1944 003c 1946     		mov	r1, r3
 1945 003e 7A68     		ldr	r2, [r7, #4]
 1946 0040 3B68     		ldr	r3, [r7, #0]
 1947 0042 FFF7FEFF 		bl	match
 1948 0046 0346     		mov	r3, r0
 1949 0048 002B     		cmp	r3, #0
 1950 004a 01D0     		beq	.L119
 431:.\slre.c      **** 			matched_offset = saved_offset;
 1951              		.loc 1 431 0
 1952 004c 3B69     		ldr	r3, [r7, #16]
 1953 004e 7B61     		str	r3, [r7, #20]
 1954              	.L119:
 432:.\slre.c      **** 		*ofs = saved_offset;
 1955              		.loc 1 432 0
 1956 0050 3B6A     		ldr	r3, [r7, #32]
 1957 0052 3A69     		ldr	r2, [r7, #16]
 1958 0054 1A60     		str	r2, [r3, #0]
 1959              	.L118:
 1960              		.loc 1 428 0
 1961 0056 BB68     		ldr	r3, [r7, #8]
 1962 0058 03F10203 		add	r3, r3, #2
 1963 005c 3A6A     		ldr	r2, [r7, #32]
 1964 005e 0092     		str	r2, [sp, #0]
 1965 0060 4FF00002 		mov	r2, #0
 1966 0064 0192     		str	r2, [sp, #4]
ARM GAS  C:\Users\karunmj\AppData\Local\Temp\ccfJuUhb.s 			page 44


 1967 0066 F868     		ldr	r0, [r7, #12]
 1968 0068 1946     		mov	r1, r3
 1969 006a 7A68     		ldr	r2, [r7, #4]
 1970 006c 3B68     		ldr	r3, [r7, #0]
 1971 006e FFF7FEFF 		bl	match
 1972 0072 0346     		mov	r3, r0
 1973 0074 002B     		cmp	r3, #0
 1974 0076 D0D1     		bne	.L120
 433:.\slre.c      **** 	}
 434:.\slre.c      **** 
 435:.\slre.c      **** 	*ofs = matched_offset;
 1975              		.loc 1 435 0
 1976 0078 3B6A     		ldr	r3, [r7, #32]
 1977 007a 7A69     		ldr	r2, [r7, #20]
 1978 007c 1A60     		str	r2, [r3, #0]
 436:.\slre.c      **** }
 1979              		.loc 1 436 0
 1980 007e 07F11807 		add	r7, r7, #24
 1981 0082 BD46     		mov	sp, r7
 1982 0084 80BD     		pop	{r7, pc}
 1983              		.cfi_endproc
 1984              	.LFE14:
 1985              		.size	loop_greedy, .-loop_greedy
 1986 0086 00BF     		.section	.text.loop_non_greedy,"ax",%progbits
 1987              		.align	2
 1988              		.thumb
 1989              		.thumb_func
 1990              		.type	loop_non_greedy, %function
 1991              	loop_non_greedy:
 1992              	.LFB15:
 437:.\slre.c      **** 
 438:.\slre.c      **** static void
 439:.\slre.c      **** loop_non_greedy(const struct slre *r, int pc, const char *s,int len, int *ofs)
 440:.\slre.c      **** {
 1993              		.loc 1 440 0
 1994              		.cfi_startproc
 1995              		@ args = 4, pretend = 0, frame = 24
 1996              		@ frame_needed = 1, uses_anonymous_args = 0
 1997 0000 80B5     		push	{r7, lr}
 1998              	.LCFI45:
 1999              		.cfi_def_cfa_offset 8
 2000 0002 88B0     		sub	sp, sp, #32
 2001              	.LCFI46:
 2002              		.cfi_def_cfa_offset 40
 2003 0004 02AF     		add	r7, sp, #8
 2004              		.cfi_offset 14, -4
 2005              		.cfi_offset 7, -8
 2006              	.LCFI47:
 2007              		.cfi_def_cfa 7, 32
 2008 0006 F860     		str	r0, [r7, #12]
 2009 0008 B960     		str	r1, [r7, #8]
 2010 000a 7A60     		str	r2, [r7, #4]
 2011 000c 3B60     		str	r3, [r7, #0]
 441:.\slre.c      **** 	int	saved_offset = *ofs;
 2012              		.loc 1 441 0
 2013 000e 3B6A     		ldr	r3, [r7, #32]
 2014 0010 1B68     		ldr	r3, [r3, #0]
ARM GAS  C:\Users\karunmj\AppData\Local\Temp\ccfJuUhb.s 			page 45


 2015 0012 7B61     		str	r3, [r7, #20]
 442:.\slre.c      **** 
 443:.\slre.c      **** 	while (match(r, pc + 2, s, len, ofs, NULL)) {
 2016              		.loc 1 443 0
 2017 0014 18E0     		b	.L123
 2018              	.L125:
 444:.\slre.c      **** 		saved_offset = *ofs;
 2019              		.loc 1 444 0
 2020 0016 3B6A     		ldr	r3, [r7, #32]
 2021 0018 1B68     		ldr	r3, [r3, #0]
 2022 001a 7B61     		str	r3, [r7, #20]
 445:.\slre.c      **** 		if (match(r, pc + r->code[pc + 1], s, len, ofs, NULL))
 2023              		.loc 1 445 0
 2024 001c BB68     		ldr	r3, [r7, #8]
 2025 001e 03F10103 		add	r3, r3, #1
 2026 0022 FA68     		ldr	r2, [r7, #12]
 2027 0024 D35C     		ldrb	r3, [r2, r3]	@ zero_extendqisi2
 2028 0026 1A46     		mov	r2, r3
 2029 0028 BB68     		ldr	r3, [r7, #8]
 2030 002a 1344     		add	r3, r2, r3
 2031 002c 3A6A     		ldr	r2, [r7, #32]
 2032 002e 0092     		str	r2, [sp, #0]
 2033 0030 4FF00002 		mov	r2, #0
 2034 0034 0192     		str	r2, [sp, #4]
 2035 0036 F868     		ldr	r0, [r7, #12]
 2036 0038 1946     		mov	r1, r3
 2037 003a 7A68     		ldr	r2, [r7, #4]
 2038 003c 3B68     		ldr	r3, [r7, #0]
 2039 003e FFF7FEFF 		bl	match
 2040 0042 0346     		mov	r3, r0
 2041 0044 002B     		cmp	r3, #0
 2042 0046 11D1     		bne	.L127
 2043              	.L123:
 2044              		.loc 1 443 0
 2045 0048 BB68     		ldr	r3, [r7, #8]
 2046 004a 03F10203 		add	r3, r3, #2
 2047 004e 3A6A     		ldr	r2, [r7, #32]
 2048 0050 0092     		str	r2, [sp, #0]
 2049 0052 4FF00002 		mov	r2, #0
 2050 0056 0192     		str	r2, [sp, #4]
 2051 0058 F868     		ldr	r0, [r7, #12]
 2052 005a 1946     		mov	r1, r3
 2053 005c 7A68     		ldr	r2, [r7, #4]
 2054 005e 3B68     		ldr	r3, [r7, #0]
 2055 0060 FFF7FEFF 		bl	match
 2056 0064 0346     		mov	r3, r0
 2057 0066 002B     		cmp	r3, #0
 2058 0068 D5D1     		bne	.L125
 2059 006a 00E0     		b	.L124
 2060              	.L127:
 446:.\slre.c      **** 			break;
 2061              		.loc 1 446 0
 2062 006c 00BF     		nop
 2063              	.L124:
 447:.\slre.c      **** 	}
 448:.\slre.c      **** 
 449:.\slre.c      **** 	*ofs = saved_offset;
ARM GAS  C:\Users\karunmj\AppData\Local\Temp\ccfJuUhb.s 			page 46


 2064              		.loc 1 449 0
 2065 006e 3B6A     		ldr	r3, [r7, #32]
 2066 0070 7A69     		ldr	r2, [r7, #20]
 2067 0072 1A60     		str	r2, [r3, #0]
 450:.\slre.c      **** }
 2068              		.loc 1 450 0
 2069 0074 07F11807 		add	r7, r7, #24
 2070 0078 BD46     		mov	sp, r7
 2071 007a 80BD     		pop	{r7, pc}
 2072              		.cfi_endproc
 2073              	.LFE15:
 2074              		.size	loop_non_greedy, .-loop_non_greedy
 2075              		.section	.text.is_any_of,"ax",%progbits
 2076              		.align	2
 2077              		.thumb
 2078              		.thumb_func
 2079              		.type	is_any_of, %function
 2080              	is_any_of:
 2081              	.LFB16:
 451:.\slre.c      **** 
 452:.\slre.c      **** static int
 453:.\slre.c      **** is_any_of(const unsigned char *p, int len, const char *s, int *ofs)
 454:.\slre.c      **** {
 2082              		.loc 1 454 0
 2083              		.cfi_startproc
 2084              		@ args = 0, pretend = 0, frame = 24
 2085              		@ frame_needed = 1, uses_anonymous_args = 0
 2086              		@ link register save eliminated.
 2087 0000 80B4     		push	{r7}
 2088              	.LCFI48:
 2089              		.cfi_def_cfa_offset 4
 2090 0002 87B0     		sub	sp, sp, #28
 2091              	.LCFI49:
 2092              		.cfi_def_cfa_offset 32
 2093 0004 00AF     		add	r7, sp, #0
 2094              		.cfi_offset 7, -4
 2095              	.LCFI50:
 2096              		.cfi_def_cfa_register 7
 2097 0006 F860     		str	r0, [r7, #12]
 2098 0008 B960     		str	r1, [r7, #8]
 2099 000a 7A60     		str	r2, [r7, #4]
 2100 000c 3B60     		str	r3, [r7, #0]
 455:.\slre.c      **** 	int	i, ch;
 456:.\slre.c      **** 
 457:.\slre.c      **** 	ch = s[*ofs];
 2101              		.loc 1 457 0
 2102 000e 3B68     		ldr	r3, [r7, #0]
 2103 0010 1B68     		ldr	r3, [r3, #0]
 2104 0012 1A46     		mov	r2, r3
 2105 0014 7B68     		ldr	r3, [r7, #4]
 2106 0016 1344     		add	r3, r2, r3
 2107 0018 1B78     		ldrb	r3, [r3, #0]	@ zero_extendqisi2
 2108 001a 7B61     		str	r3, [r7, #20]
 458:.\slre.c      **** 
 459:.\slre.c      **** 	for (i = 0; i < len; i++)
 2109              		.loc 1 459 0
 2110 001c 4FF00003 		mov	r3, #0
ARM GAS  C:\Users\karunmj\AppData\Local\Temp\ccfJuUhb.s 			page 47


 2111 0020 3B61     		str	r3, [r7, #16]
 2112 0022 14E0     		b	.L129
 2113              	.L132:
 460:.\slre.c      **** 		if (p[i] == ch) {
 2114              		.loc 1 460 0
 2115 0024 3A69     		ldr	r2, [r7, #16]
 2116 0026 FB68     		ldr	r3, [r7, #12]
 2117 0028 1344     		add	r3, r2, r3
 2118 002a 1B78     		ldrb	r3, [r3, #0]	@ zero_extendqisi2
 2119 002c 1A46     		mov	r2, r3
 2120 002e 7B69     		ldr	r3, [r7, #20]
 2121 0030 9A42     		cmp	r2, r3
 2122 0032 08D1     		bne	.L130
 461:.\slre.c      **** 			(*ofs)++;
 2123              		.loc 1 461 0
 2124 0034 3B68     		ldr	r3, [r7, #0]
 2125 0036 1B68     		ldr	r3, [r3, #0]
 2126 0038 03F10102 		add	r2, r3, #1
 2127 003c 3B68     		ldr	r3, [r7, #0]
 2128 003e 1A60     		str	r2, [r3, #0]
 462:.\slre.c      **** 			return (1);
 2129              		.loc 1 462 0
 2130 0040 4FF00103 		mov	r3, #1
 2131 0044 09E0     		b	.L131
 2132              	.L130:
 2133              		.loc 1 459 0
 2134 0046 3B69     		ldr	r3, [r7, #16]
 2135 0048 03F10103 		add	r3, r3, #1
 2136 004c 3B61     		str	r3, [r7, #16]
 2137              	.L129:
 2138 004e 3A69     		ldr	r2, [r7, #16]
 2139 0050 BB68     		ldr	r3, [r7, #8]
 2140 0052 9A42     		cmp	r2, r3
 2141 0054 E6DB     		blt	.L132
 463:.\slre.c      **** 		}
 464:.\slre.c      **** 
 465:.\slre.c      **** 	return (0);
 2142              		.loc 1 465 0
 2143 0056 4FF00003 		mov	r3, #0
 2144              	.L131:
 466:.\slre.c      **** }
 2145              		.loc 1 466 0
 2146 005a 1846     		mov	r0, r3
 2147 005c 07F11C07 		add	r7, r7, #28
 2148 0060 BD46     		mov	sp, r7
 2149 0062 80BC     		pop	{r7}
 2150 0064 7047     		bx	lr
 2151              		.cfi_endproc
 2152              	.LFE16:
 2153              		.size	is_any_of, .-is_any_of
 2154 0066 00BF     		.section	.text.is_any_but,"ax",%progbits
 2155              		.align	2
 2156              		.thumb
 2157              		.thumb_func
 2158              		.type	is_any_but, %function
 2159              	is_any_but:
 2160              	.LFB17:
ARM GAS  C:\Users\karunmj\AppData\Local\Temp\ccfJuUhb.s 			page 48


 467:.\slre.c      **** 
 468:.\slre.c      **** static int
 469:.\slre.c      **** is_any_but(const unsigned char *p, int len, const char *s, int *ofs)
 470:.\slre.c      **** {
 2161              		.loc 1 470 0
 2162              		.cfi_startproc
 2163              		@ args = 0, pretend = 0, frame = 24
 2164              		@ frame_needed = 1, uses_anonymous_args = 0
 2165              		@ link register save eliminated.
 2166 0000 80B4     		push	{r7}
 2167              	.LCFI51:
 2168              		.cfi_def_cfa_offset 4
 2169 0002 87B0     		sub	sp, sp, #28
 2170              	.LCFI52:
 2171              		.cfi_def_cfa_offset 32
 2172 0004 00AF     		add	r7, sp, #0
 2173              		.cfi_offset 7, -4
 2174              	.LCFI53:
 2175              		.cfi_def_cfa_register 7
 2176 0006 F860     		str	r0, [r7, #12]
 2177 0008 B960     		str	r1, [r7, #8]
 2178 000a 7A60     		str	r2, [r7, #4]
 2179 000c 3B60     		str	r3, [r7, #0]
 471:.\slre.c      **** 	int	i, ch;
 472:.\slre.c      **** 
 473:.\slre.c      **** 	ch = s[*ofs];
 2180              		.loc 1 473 0
 2181 000e 3B68     		ldr	r3, [r7, #0]
 2182 0010 1B68     		ldr	r3, [r3, #0]
 2183 0012 1A46     		mov	r2, r3
 2184 0014 7B68     		ldr	r3, [r7, #4]
 2185 0016 1344     		add	r3, r2, r3
 2186 0018 1B78     		ldrb	r3, [r3, #0]	@ zero_extendqisi2
 2187 001a 7B61     		str	r3, [r7, #20]
 474:.\slre.c      **** 
 475:.\slre.c      **** 	for (i = 0; i < len; i++)
 2188              		.loc 1 475 0
 2189 001c 4FF00003 		mov	r3, #0
 2190 0020 3B61     		str	r3, [r7, #16]
 2191 0022 0EE0     		b	.L135
 2192              	.L138:
 476:.\slre.c      **** 		if (p[i] == ch)
 2193              		.loc 1 476 0
 2194 0024 3A69     		ldr	r2, [r7, #16]
 2195 0026 FB68     		ldr	r3, [r7, #12]
 2196 0028 1344     		add	r3, r2, r3
 2197 002a 1B78     		ldrb	r3, [r3, #0]	@ zero_extendqisi2
 2198 002c 1A46     		mov	r2, r3
 2199 002e 7B69     		ldr	r3, [r7, #20]
 2200 0030 9A42     		cmp	r2, r3
 2201 0032 02D1     		bne	.L136
 477:.\slre.c      **** 			return (0);
 2202              		.loc 1 477 0
 2203 0034 4FF00003 		mov	r3, #0
 2204 0038 0FE0     		b	.L137
 2205              	.L136:
 2206              		.loc 1 475 0
ARM GAS  C:\Users\karunmj\AppData\Local\Temp\ccfJuUhb.s 			page 49


 2207 003a 3B69     		ldr	r3, [r7, #16]
 2208 003c 03F10103 		add	r3, r3, #1
 2209 0040 3B61     		str	r3, [r7, #16]
 2210              	.L135:
 2211 0042 3A69     		ldr	r2, [r7, #16]
 2212 0044 BB68     		ldr	r3, [r7, #8]
 2213 0046 9A42     		cmp	r2, r3
 2214 0048 ECDB     		blt	.L138
 478:.\slre.c      **** 
 479:.\slre.c      **** 	(*ofs)++;
 2215              		.loc 1 479 0
 2216 004a 3B68     		ldr	r3, [r7, #0]
 2217 004c 1B68     		ldr	r3, [r3, #0]
 2218 004e 03F10102 		add	r2, r3, #1
 2219 0052 3B68     		ldr	r3, [r7, #0]
 2220 0054 1A60     		str	r2, [r3, #0]
 480:.\slre.c      **** 	return (1);
 2221              		.loc 1 480 0
 2222 0056 4FF00103 		mov	r3, #1
 2223              	.L137:
 481:.\slre.c      **** }
 2224              		.loc 1 481 0
 2225 005a 1846     		mov	r0, r3
 2226 005c 07F11C07 		add	r7, r7, #28
 2227 0060 BD46     		mov	sp, r7
 2228 0062 80BC     		pop	{r7}
 2229 0064 7047     		bx	lr
 2230              		.cfi_endproc
 2231              	.LFE17:
 2232              		.size	is_any_but, .-is_any_but
 2233 0066 00BF     		.section	.rodata
 2234              		.align	2
 2235              	.LC36:
 2236 0178 7063203C 		.ascii	"pc < r->code_size\000"
 2236      20722D3E 
 2236      636F6465 
 2236      5F73697A 
 2236      6500
 2237 018a 0000     		.align	2
 2238              	.LC37:
 2239 018c 7063203C 		.ascii	"pc < (int) (sizeof(r->code) / sizeof(r->code[0]))\000"
 2239      2028696E 
 2239      74292028 
 2239      73697A65 
 2239      6F662872 
 2240 01be 0000     		.align	2
 2241              	.LC38:
 2242 01c0 756E6B6E 		.ascii	"unknown cmd (%d) at %d\012\000"
 2242      6F776E20 
 2242      636D6420 
 2242      28256429 
 2242      20617420 
 2243              		.align	2
 2244              	.LC39:
 2245 01d8 3000     		.ascii	"0\000"
 2246              		.section	.text.match,"ax",%progbits
 2247              		.align	2
ARM GAS  C:\Users\karunmj\AppData\Local\Temp\ccfJuUhb.s 			page 50


 2248              		.thumb
 2249              		.thumb_func
 2250              		.type	match, %function
 2251              	match:
 2252              	.LFB18:
 482:.\slre.c      **** 
 483:.\slre.c      **** static int
 484:.\slre.c      **** match(const struct slre *r, int pc, const char *s, int len,
 485:.\slre.c      **** 		int *ofs, struct cap *caps)
 486:.\slre.c      **** {
 2253              		.loc 1 486 0
 2254              		.cfi_startproc
 2255              		@ args = 8, pretend = 0, frame = 32
 2256              		@ frame_needed = 1, uses_anonymous_args = 0
 2257 0000 80B5     		push	{r7, lr}
 2258              	.LCFI54:
 2259              		.cfi_def_cfa_offset 8
 2260 0002 8AB0     		sub	sp, sp, #40
 2261              	.LCFI55:
 2262              		.cfi_def_cfa_offset 48
 2263 0004 02AF     		add	r7, sp, #8
 2264              		.cfi_offset 14, -4
 2265              		.cfi_offset 7, -8
 2266              	.LCFI56:
 2267              		.cfi_def_cfa 7, 40
 2268 0006 F860     		str	r0, [r7, #12]
 2269 0008 B960     		str	r1, [r7, #8]
 2270 000a 7A60     		str	r2, [r7, #4]
 2271 000c 3B60     		str	r3, [r7, #0]
 487:.\slre.c      **** 	int	n, saved_offset, res = 1;
 2272              		.loc 1 487 0
 2273 000e 4FF00103 		mov	r3, #1
 2274 0012 FB61     		str	r3, [r7, #28]
 488:.\slre.c      **** 
 489:.\slre.c      **** 	while (res && r->code[pc] != END) {
 2275              		.loc 1 489 0
 2276 0014 A2E2     		b	.L141
 2277              	.L178:
 490:.\slre.c      **** 
 491:.\slre.c      **** 		assert(pc < r->code_size);
 2278              		.loc 1 491 0
 2279 0016 FB68     		ldr	r3, [r7, #12]
 2280 0018 D3F80022 		ldr	r2, [r3, #512]
 2281 001c BB68     		ldr	r3, [r7, #8]
 2282 001e 9A42     		cmp	r2, r3
 2283 0020 0FDC     		bgt	.L142
 2284 0022 40F20000 		movw	r0, #:lower16:.LC28
 2285 0026 C0F20000 		movt	r0, #:upper16:.LC28
 2286 002a 40F2EB11 		movw	r1, #491
 2287 002e 40F20002 		movw	r2, #:lower16:__FUNCTION__.3293
 2288 0032 C0F20002 		movt	r2, #:upper16:__FUNCTION__.3293
 2289 0036 40F20003 		movw	r3, #:lower16:.LC36
 2290 003a C0F20003 		movt	r3, #:upper16:.LC36
 2291 003e FFF7FEFF 		bl	__assert_func
 2292              	.L142:
 492:.\slre.c      **** 		assert(pc < (int) (sizeof(r->code) / sizeof(r->code[0])));
 2293              		.loc 1 492 0
ARM GAS  C:\Users\karunmj\AppData\Local\Temp\ccfJuUhb.s 			page 51


 2294 0042 BB68     		ldr	r3, [r7, #8]
 2295 0044 FF2B     		cmp	r3, #255
 2296 0046 0FDD     		ble	.L143
 2297 0048 40F20000 		movw	r0, #:lower16:.LC28
 2298 004c C0F20000 		movt	r0, #:upper16:.LC28
 2299 0050 4FF4F671 		mov	r1, #492
 2300 0054 40F20002 		movw	r2, #:lower16:__FUNCTION__.3293
 2301 0058 C0F20002 		movt	r2, #:upper16:__FUNCTION__.3293
 2302 005c 40F20003 		movw	r3, #:lower16:.LC37
 2303 0060 C0F20003 		movt	r3, #:upper16:.LC37
 2304 0064 FFF7FEFF 		bl	__assert_func
 2305              	.L143:
 493:.\slre.c      **** 
 494:.\slre.c      **** 		switch (r->code[pc]) {
 2306              		.loc 1 494 0
 2307 0068 BB68     		ldr	r3, [r7, #8]
 2308 006a FA68     		ldr	r2, [r7, #12]
 2309 006c D35C     		ldrb	r3, [r2, r3]	@ zero_extendqisi2
 2310 006e 112B     		cmp	r3, #17
 2311 0070 00F25682 		bhi	.L144
 2312 0074 01A2     		adr	r2, .L163
 2313 0076 52F823F0 		ldr	pc, [r2, r3, lsl #2]
 2314 007a 00BF     		.align	2
 2315              	.L163:
 2316 007c 17050000 		.word	.L145+1
 2317 0080 C5000000 		.word	.L146+1
 2318 0084 B7030000 		.word	.L147+1
 2319 0088 2F010000 		.word	.L148+1
 2320 008c E3030000 		.word	.L149+1
 2321 0090 29040000 		.word	.L150+1
 2322 0094 A1040000 		.word	.L151+1
 2323 0098 CF040000 		.word	.L152+1
 2324 009c 6F040000 		.word	.L153+1
 2325 00a0 87040000 		.word	.L154+1
 2326 00a4 E1010000 		.word	.L155+1
 2327 00a8 31020000 		.word	.L156+1
 2328 00ac 09020000 		.word	.L157+1
 2329 00b0 79020000 		.word	.L158+1
 2330 00b4 9D010000 		.word	.L159+1
 2331 00b8 C1020000 		.word	.L160+1
 2332 00bc 13030000 		.word	.L161+1
 2333 00c0 65030000 		.word	.L162+1
 2334              	.L146:
 495:.\slre.c      **** 		case BRANCH:
 496:.\slre.c      **** 			saved_offset = *ofs;
 2335              		.loc 1 496 0
 2336 00c4 BB6A     		ldr	r3, [r7, #40]
 2337 00c6 1B68     		ldr	r3, [r3, #0]
 2338 00c8 BB61     		str	r3, [r7, #24]
 497:.\slre.c      **** 			res = match(r, pc + 3, s, len, ofs, caps);
 2339              		.loc 1 497 0
 2340 00ca BB68     		ldr	r3, [r7, #8]
 2341 00cc 03F10303 		add	r3, r3, #3
 2342 00d0 BA6A     		ldr	r2, [r7, #40]
 2343 00d2 0092     		str	r2, [sp, #0]
 2344 00d4 FA6A     		ldr	r2, [r7, #44]
 2345 00d6 0192     		str	r2, [sp, #4]
ARM GAS  C:\Users\karunmj\AppData\Local\Temp\ccfJuUhb.s 			page 52


 2346 00d8 F868     		ldr	r0, [r7, #12]
 2347 00da 1946     		mov	r1, r3
 2348 00dc 7A68     		ldr	r2, [r7, #4]
 2349 00de 3B68     		ldr	r3, [r7, #0]
 2350 00e0 FFF78EFF 		bl	match
 2351 00e4 0346     		mov	r3, r0
 2352 00e6 FB61     		str	r3, [r7, #28]
 498:.\slre.c      **** 			if (res == 0) {
 2353              		.loc 1 498 0
 2354 00e8 FB69     		ldr	r3, [r7, #28]
 2355 00ea 002B     		cmp	r3, #0
 2356 00ec 16D1     		bne	.L164
 499:.\slre.c      **** 				*ofs = saved_offset;
 2357              		.loc 1 499 0
 2358 00ee BB6A     		ldr	r3, [r7, #40]
 2359 00f0 BA69     		ldr	r2, [r7, #24]
 2360 00f2 1A60     		str	r2, [r3, #0]
 500:.\slre.c      **** 				res = match(r, pc + r->code[pc + 1],
 2361              		.loc 1 500 0
 2362 00f4 BB68     		ldr	r3, [r7, #8]
 2363 00f6 03F10103 		add	r3, r3, #1
 2364 00fa FA68     		ldr	r2, [r7, #12]
 2365 00fc D35C     		ldrb	r3, [r2, r3]	@ zero_extendqisi2
 2366 00fe 1A46     		mov	r2, r3
 2367 0100 BB68     		ldr	r3, [r7, #8]
 2368 0102 1344     		add	r3, r2, r3
 2369 0104 BA6A     		ldr	r2, [r7, #40]
 2370 0106 0092     		str	r2, [sp, #0]
 2371 0108 FA6A     		ldr	r2, [r7, #44]
 2372 010a 0192     		str	r2, [sp, #4]
 2373 010c F868     		ldr	r0, [r7, #12]
 2374 010e 1946     		mov	r1, r3
 2375 0110 7A68     		ldr	r2, [r7, #4]
 2376 0112 3B68     		ldr	r3, [r7, #0]
 2377 0114 FFF774FF 		bl	match
 2378 0118 0346     		mov	r3, r0
 2379 011a FB61     		str	r3, [r7, #28]
 2380              	.L164:
 501:.\slre.c      **** 				    s, len, ofs, caps);
 502:.\slre.c      **** 			}
 503:.\slre.c      **** 			pc += r->code[pc + 2]; 
 2381              		.loc 1 503 0
 2382 011c BB68     		ldr	r3, [r7, #8]
 2383 011e 03F10203 		add	r3, r3, #2
 2384 0122 FA68     		ldr	r2, [r7, #12]
 2385 0124 D35C     		ldrb	r3, [r2, r3]	@ zero_extendqisi2
 2386 0126 BA68     		ldr	r2, [r7, #8]
 2387 0128 1344     		add	r3, r2, r3
 2388 012a BB60     		str	r3, [r7, #8]
 504:.\slre.c      **** 			break;
 2389              		.loc 1 504 0
 2390 012c 16E2     		b	.L141
 2391              	.L148:
 505:.\slre.c      **** 		case EXACT:
 506:.\slre.c      **** 			res = 0;
 2392              		.loc 1 506 0
 2393 012e 4FF00003 		mov	r3, #0
ARM GAS  C:\Users\karunmj\AppData\Local\Temp\ccfJuUhb.s 			page 53


 2394 0132 FB61     		str	r3, [r7, #28]
 507:.\slre.c      **** 			n = r->code[pc + 2];	/* String length */
 2395              		.loc 1 507 0
 2396 0134 BB68     		ldr	r3, [r7, #8]
 2397 0136 03F10203 		add	r3, r3, #2
 2398 013a FA68     		ldr	r2, [r7, #12]
 2399 013c D35C     		ldrb	r3, [r2, r3]	@ zero_extendqisi2
 2400 013e 7B61     		str	r3, [r7, #20]
 508:.\slre.c      **** 			if (n <= len - *ofs && !memcmp(s + *ofs, r->data +
 2401              		.loc 1 508 0
 2402 0140 BB6A     		ldr	r3, [r7, #40]
 2403 0142 1B68     		ldr	r3, [r3, #0]
 2404 0144 3A68     		ldr	r2, [r7, #0]
 2405 0146 C3EB0202 		rsb	r2, r3, r2
 2406 014a 7B69     		ldr	r3, [r7, #20]
 2407 014c 9A42     		cmp	r2, r3
 2408 014e 20DB     		blt	.L165
 2409 0150 BB6A     		ldr	r3, [r7, #40]
 2410 0152 1B68     		ldr	r3, [r3, #0]
 2411 0154 1A46     		mov	r2, r3
 2412 0156 7B68     		ldr	r3, [r7, #4]
 2413 0158 02EB0301 		add	r1, r2, r3
 2414 015c FB68     		ldr	r3, [r7, #12]
 2415 015e 03F58072 		add	r2, r3, #256
 509:.\slre.c      **** 			    r->code[pc + 1], n)) {
 2416              		.loc 1 509 0
 2417 0162 BB68     		ldr	r3, [r7, #8]
 2418 0164 03F10103 		add	r3, r3, #1
 2419 0168 F868     		ldr	r0, [r7, #12]
 2420 016a C35C     		ldrb	r3, [r0, r3]	@ zero_extendqisi2
 2421              		.loc 1 508 0
 2422 016c 1A44     		add	r2, r2, r3
 2423 016e 7B69     		ldr	r3, [r7, #20]
 2424 0170 0846     		mov	r0, r1
 2425 0172 1146     		mov	r1, r2
 2426 0174 1A46     		mov	r2, r3
 2427 0176 FFF7FEFF 		bl	memcmp
 2428 017a 0346     		mov	r3, r0
 2429 017c 002B     		cmp	r3, #0
 2430 017e 08D1     		bne	.L165
 510:.\slre.c      **** 				(*ofs) += n;
 2431              		.loc 1 510 0
 2432 0180 BB6A     		ldr	r3, [r7, #40]
 2433 0182 1A68     		ldr	r2, [r3, #0]
 2434 0184 7B69     		ldr	r3, [r7, #20]
 2435 0186 1A44     		add	r2, r2, r3
 2436 0188 BB6A     		ldr	r3, [r7, #40]
 2437 018a 1A60     		str	r2, [r3, #0]
 511:.\slre.c      **** 				res = 1;
 2438              		.loc 1 511 0
 2439 018c 4FF00103 		mov	r3, #1
 2440 0190 FB61     		str	r3, [r7, #28]
 2441              	.L165:
 512:.\slre.c      **** 			}
 513:.\slre.c      **** 			pc += 3;
 2442              		.loc 1 513 0
 2443 0192 BB68     		ldr	r3, [r7, #8]
ARM GAS  C:\Users\karunmj\AppData\Local\Temp\ccfJuUhb.s 			page 54


 2444 0194 03F10303 		add	r3, r3, #3
 2445 0198 BB60     		str	r3, [r7, #8]
 514:.\slre.c      **** 			break;
 2446              		.loc 1 514 0
 2447 019a DFE1     		b	.L141
 2448              	.L159:
 515:.\slre.c      **** 		case QUEST:
 516:.\slre.c      **** 			res = 1;
 2449              		.loc 1 516 0
 2450 019c 4FF00103 		mov	r3, #1
 2451 01a0 FB61     		str	r3, [r7, #28]
 517:.\slre.c      **** 			saved_offset = *ofs;
 2452              		.loc 1 517 0
 2453 01a2 BB6A     		ldr	r3, [r7, #40]
 2454 01a4 1B68     		ldr	r3, [r3, #0]
 2455 01a6 BB61     		str	r3, [r7, #24]
 518:.\slre.c      **** 			if (!match(r, pc + 2, s, len, ofs, caps))
 2456              		.loc 1 518 0
 2457 01a8 BB68     		ldr	r3, [r7, #8]
 2458 01aa 03F10203 		add	r3, r3, #2
 2459 01ae BA6A     		ldr	r2, [r7, #40]
 2460 01b0 0092     		str	r2, [sp, #0]
 2461 01b2 FA6A     		ldr	r2, [r7, #44]
 2462 01b4 0192     		str	r2, [sp, #4]
 2463 01b6 F868     		ldr	r0, [r7, #12]
 2464 01b8 1946     		mov	r1, r3
 2465 01ba 7A68     		ldr	r2, [r7, #4]
 2466 01bc 3B68     		ldr	r3, [r7, #0]
 2467 01be FFF71FFF 		bl	match
 2468 01c2 0346     		mov	r3, r0
 2469 01c4 002B     		cmp	r3, #0
 2470 01c6 02D1     		bne	.L166
 519:.\slre.c      **** 				*ofs = saved_offset;
 2471              		.loc 1 519 0
 2472 01c8 BB6A     		ldr	r3, [r7, #40]
 2473 01ca BA69     		ldr	r2, [r7, #24]
 2474 01cc 1A60     		str	r2, [r3, #0]
 2475              	.L166:
 520:.\slre.c      **** 			pc += r->code[pc + 1];
 2476              		.loc 1 520 0
 2477 01ce BB68     		ldr	r3, [r7, #8]
 2478 01d0 03F10103 		add	r3, r3, #1
 2479 01d4 FA68     		ldr	r2, [r7, #12]
 2480 01d6 D35C     		ldrb	r3, [r2, r3]	@ zero_extendqisi2
 2481 01d8 BA68     		ldr	r2, [r7, #8]
 2482 01da 1344     		add	r3, r2, r3
 2483 01dc BB60     		str	r3, [r7, #8]
 521:.\slre.c      **** 			break;
 2484              		.loc 1 521 0
 2485 01de BDE1     		b	.L141
 2486              	.L155:
 522:.\slre.c      **** 		case STAR:
 523:.\slre.c      **** 			res = 1;
 2487              		.loc 1 523 0
 2488 01e0 4FF00103 		mov	r3, #1
 2489 01e4 FB61     		str	r3, [r7, #28]
 524:.\slre.c      **** 			loop_greedy(r, pc, s, len, ofs);
ARM GAS  C:\Users\karunmj\AppData\Local\Temp\ccfJuUhb.s 			page 55


 2490              		.loc 1 524 0
 2491 01e6 BB6A     		ldr	r3, [r7, #40]
 2492 01e8 0093     		str	r3, [sp, #0]
 2493 01ea F868     		ldr	r0, [r7, #12]
 2494 01ec B968     		ldr	r1, [r7, #8]
 2495 01ee 7A68     		ldr	r2, [r7, #4]
 2496 01f0 3B68     		ldr	r3, [r7, #0]
 2497 01f2 FFF7FEFF 		bl	loop_greedy
 525:.\slre.c      **** 			pc += r->code[pc + 1];
 2498              		.loc 1 525 0
 2499 01f6 BB68     		ldr	r3, [r7, #8]
 2500 01f8 03F10103 		add	r3, r3, #1
 2501 01fc FA68     		ldr	r2, [r7, #12]
 2502 01fe D35C     		ldrb	r3, [r2, r3]	@ zero_extendqisi2
 2503 0200 BA68     		ldr	r2, [r7, #8]
 2504 0202 1344     		add	r3, r2, r3
 2505 0204 BB60     		str	r3, [r7, #8]
 526:.\slre.c      **** 			break;
 2506              		.loc 1 526 0
 2507 0206 A9E1     		b	.L141
 2508              	.L157:
 527:.\slre.c      **** 		case STARQ:
 528:.\slre.c      **** 			res = 1;
 2509              		.loc 1 528 0
 2510 0208 4FF00103 		mov	r3, #1
 2511 020c FB61     		str	r3, [r7, #28]
 529:.\slre.c      **** 			loop_non_greedy(r, pc, s, len, ofs);
 2512              		.loc 1 529 0
 2513 020e BB6A     		ldr	r3, [r7, #40]
 2514 0210 0093     		str	r3, [sp, #0]
 2515 0212 F868     		ldr	r0, [r7, #12]
 2516 0214 B968     		ldr	r1, [r7, #8]
 2517 0216 7A68     		ldr	r2, [r7, #4]
 2518 0218 3B68     		ldr	r3, [r7, #0]
 2519 021a FFF7FEFF 		bl	loop_non_greedy
 530:.\slre.c      **** 			pc += r->code[pc + 1];
 2520              		.loc 1 530 0
 2521 021e BB68     		ldr	r3, [r7, #8]
 2522 0220 03F10103 		add	r3, r3, #1
 2523 0224 FA68     		ldr	r2, [r7, #12]
 2524 0226 D35C     		ldrb	r3, [r2, r3]	@ zero_extendqisi2
 2525 0228 BA68     		ldr	r2, [r7, #8]
 2526 022a 1344     		add	r3, r2, r3
 2527 022c BB60     		str	r3, [r7, #8]
 531:.\slre.c      **** 			break;
 2528              		.loc 1 531 0
 2529 022e 95E1     		b	.L141
 2530              	.L156:
 532:.\slre.c      **** 		case PLUS:
 533:.\slre.c      **** 			if ((res = match(r, pc + 2, s, len, ofs, caps)) == 0)
 2531              		.loc 1 533 0
 2532 0230 BB68     		ldr	r3, [r7, #8]
 2533 0232 03F10203 		add	r3, r3, #2
 2534 0236 BA6A     		ldr	r2, [r7, #40]
 2535 0238 0092     		str	r2, [sp, #0]
 2536 023a FA6A     		ldr	r2, [r7, #44]
 2537 023c 0192     		str	r2, [sp, #4]
ARM GAS  C:\Users\karunmj\AppData\Local\Temp\ccfJuUhb.s 			page 56


 2538 023e F868     		ldr	r0, [r7, #12]
 2539 0240 1946     		mov	r1, r3
 2540 0242 7A68     		ldr	r2, [r7, #4]
 2541 0244 3B68     		ldr	r3, [r7, #0]
 2542 0246 FFF7DBFE 		bl	match
 2543 024a 0346     		mov	r3, r0
 2544 024c FB61     		str	r3, [r7, #28]
 2545 024e FB69     		ldr	r3, [r7, #28]
 2546 0250 002B     		cmp	r3, #0
 2547 0252 00F08081 		beq	.L180
 2548              	.L167:
 534:.\slre.c      **** 				break;
 535:.\slre.c      **** 
 536:.\slre.c      **** 			loop_greedy(r, pc, s, len, ofs);
 2549              		.loc 1 536 0
 2550 0256 BB6A     		ldr	r3, [r7, #40]
 2551 0258 0093     		str	r3, [sp, #0]
 2552 025a F868     		ldr	r0, [r7, #12]
 2553 025c B968     		ldr	r1, [r7, #8]
 2554 025e 7A68     		ldr	r2, [r7, #4]
 2555 0260 3B68     		ldr	r3, [r7, #0]
 2556 0262 FFF7FEFF 		bl	loop_greedy
 537:.\slre.c      **** 			pc += r->code[pc + 1];
 2557              		.loc 1 537 0
 2558 0266 BB68     		ldr	r3, [r7, #8]
 2559 0268 03F10103 		add	r3, r3, #1
 2560 026c FA68     		ldr	r2, [r7, #12]
 2561 026e D35C     		ldrb	r3, [r2, r3]	@ zero_extendqisi2
 2562 0270 BA68     		ldr	r2, [r7, #8]
 2563 0272 1344     		add	r3, r2, r3
 2564 0274 BB60     		str	r3, [r7, #8]
 538:.\slre.c      **** 			break;
 2565              		.loc 1 538 0
 2566 0276 71E1     		b	.L141
 2567              	.L158:
 539:.\slre.c      **** 		case PLUSQ:
 540:.\slre.c      **** 			if ((res = match(r, pc + 2, s, len, ofs, caps)) == 0)
 2568              		.loc 1 540 0
 2569 0278 BB68     		ldr	r3, [r7, #8]
 2570 027a 03F10203 		add	r3, r3, #2
 2571 027e BA6A     		ldr	r2, [r7, #40]
 2572 0280 0092     		str	r2, [sp, #0]
 2573 0282 FA6A     		ldr	r2, [r7, #44]
 2574 0284 0192     		str	r2, [sp, #4]
 2575 0286 F868     		ldr	r0, [r7, #12]
 2576 0288 1946     		mov	r1, r3
 2577 028a 7A68     		ldr	r2, [r7, #4]
 2578 028c 3B68     		ldr	r3, [r7, #0]
 2579 028e FFF7B7FE 		bl	match
 2580 0292 0346     		mov	r3, r0
 2581 0294 FB61     		str	r3, [r7, #28]
 2582 0296 FB69     		ldr	r3, [r7, #28]
 2583 0298 002B     		cmp	r3, #0
 2584 029a 00F05E81 		beq	.L181
 2585              	.L168:
 541:.\slre.c      **** 				break;
 542:.\slre.c      **** 
ARM GAS  C:\Users\karunmj\AppData\Local\Temp\ccfJuUhb.s 			page 57


 543:.\slre.c      **** 			loop_non_greedy(r, pc, s, len, ofs);
 2586              		.loc 1 543 0
 2587 029e BB6A     		ldr	r3, [r7, #40]
 2588 02a0 0093     		str	r3, [sp, #0]
 2589 02a2 F868     		ldr	r0, [r7, #12]
 2590 02a4 B968     		ldr	r1, [r7, #8]
 2591 02a6 7A68     		ldr	r2, [r7, #4]
 2592 02a8 3B68     		ldr	r3, [r7, #0]
 2593 02aa FFF7FEFF 		bl	loop_non_greedy
 544:.\slre.c      **** 			pc += r->code[pc + 1];
 2594              		.loc 1 544 0
 2595 02ae BB68     		ldr	r3, [r7, #8]
 2596 02b0 03F10103 		add	r3, r3, #1
 2597 02b4 FA68     		ldr	r2, [r7, #12]
 2598 02b6 D35C     		ldrb	r3, [r2, r3]	@ zero_extendqisi2
 2599 02b8 BA68     		ldr	r2, [r7, #8]
 2600 02ba 1344     		add	r3, r2, r3
 2601 02bc BB60     		str	r3, [r7, #8]
 545:.\slre.c      **** 			break;
 2602              		.loc 1 545 0
 2603 02be 4DE1     		b	.L141
 2604              	.L160:
 546:.\slre.c      **** 		case SPACE:
 547:.\slre.c      **** 			res = 0;
 2605              		.loc 1 547 0
 2606 02c0 4FF00003 		mov	r3, #0
 2607 02c4 FB61     		str	r3, [r7, #28]
 548:.\slre.c      **** 			if (*ofs < len && isspace(((unsigned char *)s)[*ofs])) {
 2608              		.loc 1 548 0
 2609 02c6 BB6A     		ldr	r3, [r7, #40]
 2610 02c8 1A68     		ldr	r2, [r3, #0]
 2611 02ca 3B68     		ldr	r3, [r7, #0]
 2612 02cc 9A42     		cmp	r2, r3
 2613 02ce 1BDA     		bge	.L169
 2614 02d0 40F20003 		movw	r3, #:lower16:__ctype_ptr__
 2615 02d4 C0F20003 		movt	r3, #:upper16:__ctype_ptr__
 2616 02d8 1A68     		ldr	r2, [r3, #0]
 2617 02da BB6A     		ldr	r3, [r7, #40]
 2618 02dc 1B68     		ldr	r3, [r3, #0]
 2619 02de 1946     		mov	r1, r3
 2620 02e0 7B68     		ldr	r3, [r7, #4]
 2621 02e2 0B44     		add	r3, r1, r3
 2622 02e4 1B78     		ldrb	r3, [r3, #0]	@ zero_extendqisi2
 2623 02e6 03F10103 		add	r3, r3, #1
 2624 02ea 1344     		add	r3, r2, r3
 2625 02ec 1B78     		ldrb	r3, [r3, #0]	@ zero_extendqisi2
 2626 02ee 03F00803 		and	r3, r3, #8
 2627 02f2 002B     		cmp	r3, #0
 2628 02f4 08D0     		beq	.L169
 549:.\slre.c      **** 				(*ofs)++;
 2629              		.loc 1 549 0
 2630 02f6 BB6A     		ldr	r3, [r7, #40]
 2631 02f8 1B68     		ldr	r3, [r3, #0]
 2632 02fa 03F10102 		add	r2, r3, #1
 2633 02fe BB6A     		ldr	r3, [r7, #40]
 2634 0300 1A60     		str	r2, [r3, #0]
 550:.\slre.c      **** 				res = 1;
ARM GAS  C:\Users\karunmj\AppData\Local\Temp\ccfJuUhb.s 			page 58


 2635              		.loc 1 550 0
 2636 0302 4FF00103 		mov	r3, #1
 2637 0306 FB61     		str	r3, [r7, #28]
 2638              	.L169:
 551:.\slre.c      **** 			}
 552:.\slre.c      **** 			pc++;
 2639              		.loc 1 552 0
 2640 0308 BB68     		ldr	r3, [r7, #8]
 2641 030a 03F10103 		add	r3, r3, #1
 2642 030e BB60     		str	r3, [r7, #8]
 553:.\slre.c      **** 			break;
 2643              		.loc 1 553 0
 2644 0310 24E1     		b	.L141
 2645              	.L161:
 554:.\slre.c      **** 		case NONSPACE:
 555:.\slre.c      **** 			res = 0;
 2646              		.loc 1 555 0
 2647 0312 4FF00003 		mov	r3, #0
 2648 0316 FB61     		str	r3, [r7, #28]
 556:.\slre.c      **** 			if (*ofs <len && !isspace(((unsigned char *)s)[*ofs])) {
 2649              		.loc 1 556 0
 2650 0318 BB6A     		ldr	r3, [r7, #40]
 2651 031a 1A68     		ldr	r2, [r3, #0]
 2652 031c 3B68     		ldr	r3, [r7, #0]
 2653 031e 9A42     		cmp	r2, r3
 2654 0320 1BDA     		bge	.L170
 2655 0322 40F20003 		movw	r3, #:lower16:__ctype_ptr__
 2656 0326 C0F20003 		movt	r3, #:upper16:__ctype_ptr__
 2657 032a 1A68     		ldr	r2, [r3, #0]
 2658 032c BB6A     		ldr	r3, [r7, #40]
 2659 032e 1B68     		ldr	r3, [r3, #0]
 2660 0330 1946     		mov	r1, r3
 2661 0332 7B68     		ldr	r3, [r7, #4]
 2662 0334 0B44     		add	r3, r1, r3
 2663 0336 1B78     		ldrb	r3, [r3, #0]	@ zero_extendqisi2
 2664 0338 03F10103 		add	r3, r3, #1
 2665 033c 1344     		add	r3, r2, r3
 2666 033e 1B78     		ldrb	r3, [r3, #0]	@ zero_extendqisi2
 2667 0340 03F00803 		and	r3, r3, #8
 2668 0344 002B     		cmp	r3, #0
 2669 0346 08D1     		bne	.L170
 557:.\slre.c      **** 				(*ofs)++;
 2670              		.loc 1 557 0
 2671 0348 BB6A     		ldr	r3, [r7, #40]
 2672 034a 1B68     		ldr	r3, [r3, #0]
 2673 034c 03F10102 		add	r2, r3, #1
 2674 0350 BB6A     		ldr	r3, [r7, #40]
 2675 0352 1A60     		str	r2, [r3, #0]
 558:.\slre.c      **** 				res = 1;
 2676              		.loc 1 558 0
 2677 0354 4FF00103 		mov	r3, #1
 2678 0358 FB61     		str	r3, [r7, #28]
 2679              	.L170:
 559:.\slre.c      **** 			}
 560:.\slre.c      **** 			pc++;
 2680              		.loc 1 560 0
 2681 035a BB68     		ldr	r3, [r7, #8]
ARM GAS  C:\Users\karunmj\AppData\Local\Temp\ccfJuUhb.s 			page 59


 2682 035c 03F10103 		add	r3, r3, #1
 2683 0360 BB60     		str	r3, [r7, #8]
 561:.\slre.c      **** 			break;
 2684              		.loc 1 561 0
 2685 0362 FBE0     		b	.L141
 2686              	.L162:
 562:.\slre.c      **** 		case DIGIT:
 563:.\slre.c      **** 			res = 0;
 2687              		.loc 1 563 0
 2688 0364 4FF00003 		mov	r3, #0
 2689 0368 FB61     		str	r3, [r7, #28]
 564:.\slre.c      **** 			if (*ofs < len && isdigit(((unsigned char *)s)[*ofs])) {
 2690              		.loc 1 564 0
 2691 036a BB6A     		ldr	r3, [r7, #40]
 2692 036c 1A68     		ldr	r2, [r3, #0]
 2693 036e 3B68     		ldr	r3, [r7, #0]
 2694 0370 9A42     		cmp	r2, r3
 2695 0372 1BDA     		bge	.L171
 2696 0374 40F20003 		movw	r3, #:lower16:__ctype_ptr__
 2697 0378 C0F20003 		movt	r3, #:upper16:__ctype_ptr__
 2698 037c 1A68     		ldr	r2, [r3, #0]
 2699 037e BB6A     		ldr	r3, [r7, #40]
 2700 0380 1B68     		ldr	r3, [r3, #0]
 2701 0382 1946     		mov	r1, r3
 2702 0384 7B68     		ldr	r3, [r7, #4]
 2703 0386 0B44     		add	r3, r1, r3
 2704 0388 1B78     		ldrb	r3, [r3, #0]	@ zero_extendqisi2
 2705 038a 03F10103 		add	r3, r3, #1
 2706 038e 1344     		add	r3, r2, r3
 2707 0390 1B78     		ldrb	r3, [r3, #0]	@ zero_extendqisi2
 2708 0392 03F00403 		and	r3, r3, #4
 2709 0396 002B     		cmp	r3, #0
 2710 0398 08D0     		beq	.L171
 565:.\slre.c      **** 				(*ofs)++;
 2711              		.loc 1 565 0
 2712 039a BB6A     		ldr	r3, [r7, #40]
 2713 039c 1B68     		ldr	r3, [r3, #0]
 2714 039e 03F10102 		add	r2, r3, #1
 2715 03a2 BB6A     		ldr	r3, [r7, #40]
 2716 03a4 1A60     		str	r2, [r3, #0]
 566:.\slre.c      **** 				res = 1;
 2717              		.loc 1 566 0
 2718 03a6 4FF00103 		mov	r3, #1
 2719 03aa FB61     		str	r3, [r7, #28]
 2720              	.L171:
 567:.\slre.c      **** 			}
 568:.\slre.c      **** 			pc++;
 2721              		.loc 1 568 0
 2722 03ac BB68     		ldr	r3, [r7, #8]
 2723 03ae 03F10103 		add	r3, r3, #1
 2724 03b2 BB60     		str	r3, [r7, #8]
 569:.\slre.c      **** 			break;
 2725              		.loc 1 569 0
 2726 03b4 D2E0     		b	.L141
 2727              	.L147:
 570:.\slre.c      **** 		case ANY:
 571:.\slre.c      **** 			res = 0;
ARM GAS  C:\Users\karunmj\AppData\Local\Temp\ccfJuUhb.s 			page 60


 2728              		.loc 1 571 0
 2729 03b6 4FF00003 		mov	r3, #0
 2730 03ba FB61     		str	r3, [r7, #28]
 572:.\slre.c      **** 			if (*ofs < len) {
 2731              		.loc 1 572 0
 2732 03bc BB6A     		ldr	r3, [r7, #40]
 2733 03be 1A68     		ldr	r2, [r3, #0]
 2734 03c0 3B68     		ldr	r3, [r7, #0]
 2735 03c2 9A42     		cmp	r2, r3
 2736 03c4 08DA     		bge	.L172
 573:.\slre.c      **** 				(*ofs)++;
 2737              		.loc 1 573 0
 2738 03c6 BB6A     		ldr	r3, [r7, #40]
 2739 03c8 1B68     		ldr	r3, [r3, #0]
 2740 03ca 03F10102 		add	r2, r3, #1
 2741 03ce BB6A     		ldr	r3, [r7, #40]
 2742 03d0 1A60     		str	r2, [r3, #0]
 574:.\slre.c      **** 				res = 1;
 2743              		.loc 1 574 0
 2744 03d2 4FF00103 		mov	r3, #1
 2745 03d6 FB61     		str	r3, [r7, #28]
 2746              	.L172:
 575:.\slre.c      **** 			}
 576:.\slre.c      **** 			pc++;
 2747              		.loc 1 576 0
 2748 03d8 BB68     		ldr	r3, [r7, #8]
 2749 03da 03F10103 		add	r3, r3, #1
 2750 03de BB60     		str	r3, [r7, #8]
 577:.\slre.c      **** 			break;
 2751              		.loc 1 577 0
 2752 03e0 BCE0     		b	.L141
 2753              	.L149:
 578:.\slre.c      **** 		case ANYOF:
 579:.\slre.c      **** 			res = 0;
 2754              		.loc 1 579 0
 2755 03e2 4FF00003 		mov	r3, #0
 2756 03e6 FB61     		str	r3, [r7, #28]
 580:.\slre.c      **** 			if (*ofs < len)
 2757              		.loc 1 580 0
 2758 03e8 BB6A     		ldr	r3, [r7, #40]
 2759 03ea 1A68     		ldr	r2, [r3, #0]
 2760 03ec 3B68     		ldr	r3, [r7, #0]
 2761 03ee 9A42     		cmp	r2, r3
 2762 03f0 15DA     		bge	.L173
 581:.\slre.c      **** 				res = is_any_of(r->data + r->code[pc + 1],
 2763              		.loc 1 581 0
 2764 03f2 FB68     		ldr	r3, [r7, #12]
 2765 03f4 03F58072 		add	r2, r3, #256
 2766 03f8 BB68     		ldr	r3, [r7, #8]
 2767 03fa 03F10103 		add	r3, r3, #1
 2768 03fe F968     		ldr	r1, [r7, #12]
 2769 0400 CB5C     		ldrb	r3, [r1, r3]	@ zero_extendqisi2
 2770 0402 1A44     		add	r2, r2, r3
 582:.\slre.c      **** 					r->code[pc + 2], s, ofs);
 2771              		.loc 1 582 0
 2772 0404 BB68     		ldr	r3, [r7, #8]
 2773 0406 03F10203 		add	r3, r3, #2
ARM GAS  C:\Users\karunmj\AppData\Local\Temp\ccfJuUhb.s 			page 61


 2774 040a F968     		ldr	r1, [r7, #12]
 2775 040c CB5C     		ldrb	r3, [r1, r3]	@ zero_extendqisi2
 2776              		.loc 1 581 0
 2777 040e 1046     		mov	r0, r2
 2778 0410 1946     		mov	r1, r3
 2779 0412 7A68     		ldr	r2, [r7, #4]
 2780 0414 BB6A     		ldr	r3, [r7, #40]
 2781 0416 FFF7FEFF 		bl	is_any_of
 2782 041a 0346     		mov	r3, r0
 2783 041c FB61     		str	r3, [r7, #28]
 2784              	.L173:
 583:.\slre.c      **** 			pc += 3;
 2785              		.loc 1 583 0
 2786 041e BB68     		ldr	r3, [r7, #8]
 2787 0420 03F10303 		add	r3, r3, #3
 2788 0424 BB60     		str	r3, [r7, #8]
 584:.\slre.c      **** 			break;
 2789              		.loc 1 584 0
 2790 0426 99E0     		b	.L141
 2791              	.L150:
 585:.\slre.c      **** 		case ANYBUT:
 586:.\slre.c      **** 			res = 0;
 2792              		.loc 1 586 0
 2793 0428 4FF00003 		mov	r3, #0
 2794 042c FB61     		str	r3, [r7, #28]
 587:.\slre.c      **** 			if (*ofs < len)
 2795              		.loc 1 587 0
 2796 042e BB6A     		ldr	r3, [r7, #40]
 2797 0430 1A68     		ldr	r2, [r3, #0]
 2798 0432 3B68     		ldr	r3, [r7, #0]
 2799 0434 9A42     		cmp	r2, r3
 2800 0436 15DA     		bge	.L174
 588:.\slre.c      **** 				res = is_any_but(r->data + r->code[pc + 1],
 2801              		.loc 1 588 0
 2802 0438 FB68     		ldr	r3, [r7, #12]
 2803 043a 03F58072 		add	r2, r3, #256
 2804 043e BB68     		ldr	r3, [r7, #8]
 2805 0440 03F10103 		add	r3, r3, #1
 2806 0444 F968     		ldr	r1, [r7, #12]
 2807 0446 CB5C     		ldrb	r3, [r1, r3]	@ zero_extendqisi2
 2808 0448 1A44     		add	r2, r2, r3
 589:.\slre.c      **** 					r->code[pc + 2], s, ofs);
 2809              		.loc 1 589 0
 2810 044a BB68     		ldr	r3, [r7, #8]
 2811 044c 03F10203 		add	r3, r3, #2
 2812 0450 F968     		ldr	r1, [r7, #12]
 2813 0452 CB5C     		ldrb	r3, [r1, r3]	@ zero_extendqisi2
 2814              		.loc 1 588 0
 2815 0454 1046     		mov	r0, r2
 2816 0456 1946     		mov	r1, r3
 2817 0458 7A68     		ldr	r2, [r7, #4]
 2818 045a BB6A     		ldr	r3, [r7, #40]
 2819 045c FFF7FEFF 		bl	is_any_but
 2820 0460 0346     		mov	r3, r0
 2821 0462 FB61     		str	r3, [r7, #28]
 2822              	.L174:
 590:.\slre.c      **** 			pc += 3;
ARM GAS  C:\Users\karunmj\AppData\Local\Temp\ccfJuUhb.s 			page 62


 2823              		.loc 1 590 0
 2824 0464 BB68     		ldr	r3, [r7, #8]
 2825 0466 03F10303 		add	r3, r3, #3
 2826 046a BB60     		str	r3, [r7, #8]
 591:.\slre.c      **** 			break;
 2827              		.loc 1 591 0
 2828 046c 76E0     		b	.L141
 2829              	.L153:
 592:.\slre.c      **** 		case BOL:
 593:.\slre.c      **** 			res = *ofs == 0 ? 1 : 0;
 2830              		.loc 1 593 0
 2831 046e BB6A     		ldr	r3, [r7, #40]
 2832 0470 1B68     		ldr	r3, [r3, #0]
 2833 0472 002B     		cmp	r3, #0
 2834 0474 14BF     		ite	ne
 2835 0476 0023     		movne	r3, #0
 2836 0478 0123     		moveq	r3, #1
 2837 047a FB61     		str	r3, [r7, #28]
 594:.\slre.c      **** 			pc++;
 2838              		.loc 1 594 0
 2839 047c BB68     		ldr	r3, [r7, #8]
 2840 047e 03F10103 		add	r3, r3, #1
 2841 0482 BB60     		str	r3, [r7, #8]
 595:.\slre.c      **** 			break;
 2842              		.loc 1 595 0
 2843 0484 6AE0     		b	.L141
 2844              	.L154:
 596:.\slre.c      **** 		case EOL:
 597:.\slre.c      **** 			res = *ofs == len ? 1 : 0;
 2845              		.loc 1 597 0
 2846 0486 BB6A     		ldr	r3, [r7, #40]
 2847 0488 1A68     		ldr	r2, [r3, #0]
 2848 048a 3B68     		ldr	r3, [r7, #0]
 2849 048c 9A42     		cmp	r2, r3
 2850 048e 14BF     		ite	ne
 2851 0490 0023     		movne	r3, #0
 2852 0492 0123     		moveq	r3, #1
 2853 0494 FB61     		str	r3, [r7, #28]
 598:.\slre.c      **** 			pc++;
 2854              		.loc 1 598 0
 2855 0496 BB68     		ldr	r3, [r7, #8]
 2856 0498 03F10103 		add	r3, r3, #1
 2857 049c BB60     		str	r3, [r7, #8]
 599:.\slre.c      **** 			break;
 2858              		.loc 1 599 0
 2859 049e 5DE0     		b	.L141
 2860              	.L151:
 600:.\slre.c      **** 		case OPEN:
 601:.\slre.c      **** 			if (caps != NULL)
 2861              		.loc 1 601 0
 2862 04a0 FB6A     		ldr	r3, [r7, #44]
 2863 04a2 002B     		cmp	r3, #0
 2864 04a4 0ED0     		beq	.L175
 602:.\slre.c      **** 				caps[r->code[pc + 1]].ptr = s + *ofs;
 2865              		.loc 1 602 0
 2866 04a6 BB68     		ldr	r3, [r7, #8]
 2867 04a8 03F10103 		add	r3, r3, #1
ARM GAS  C:\Users\karunmj\AppData\Local\Temp\ccfJuUhb.s 			page 63


 2868 04ac FA68     		ldr	r2, [r7, #12]
 2869 04ae D35C     		ldrb	r3, [r2, r3]	@ zero_extendqisi2
 2870 04b0 4FEAC302 		lsl	r2, r3, #3
 2871 04b4 FB6A     		ldr	r3, [r7, #44]
 2872 04b6 1344     		add	r3, r2, r3
 2873 04b8 BA6A     		ldr	r2, [r7, #40]
 2874 04ba 1268     		ldr	r2, [r2, #0]
 2875 04bc 1146     		mov	r1, r2
 2876 04be 7A68     		ldr	r2, [r7, #4]
 2877 04c0 0A44     		add	r2, r1, r2
 2878 04c2 1A60     		str	r2, [r3, #0]
 2879              	.L175:
 603:.\slre.c      **** 			pc += 2;
 2880              		.loc 1 603 0
 2881 04c4 BB68     		ldr	r3, [r7, #8]
 2882 04c6 03F10203 		add	r3, r3, #2
 2883 04ca BB60     		str	r3, [r7, #8]
 604:.\slre.c      **** 			break;
 2884              		.loc 1 604 0
 2885 04cc 46E0     		b	.L141
 2886              	.L152:
 605:.\slre.c      **** 		case CLOSE:
 606:.\slre.c      **** 			if (caps != NULL)
 2887              		.loc 1 606 0
 2888 04ce FB6A     		ldr	r3, [r7, #44]
 2889 04d0 002B     		cmp	r3, #0
 2890 04d2 1BD0     		beq	.L176
 607:.\slre.c      **** 				caps[r->code[pc + 1]].len = (s + *ofs) -
 2891              		.loc 1 607 0
 2892 04d4 BB68     		ldr	r3, [r7, #8]
 2893 04d6 03F10103 		add	r3, r3, #1
 2894 04da FA68     		ldr	r2, [r7, #12]
 2895 04dc D35C     		ldrb	r3, [r2, r3]	@ zero_extendqisi2
 2896 04de 4FEAC302 		lsl	r2, r3, #3
 2897 04e2 FB6A     		ldr	r3, [r7, #44]
 2898 04e4 1344     		add	r3, r2, r3
 2899 04e6 BA6A     		ldr	r2, [r7, #40]
 2900 04e8 1268     		ldr	r2, [r2, #0]
 2901 04ea 1146     		mov	r1, r2
 2902 04ec 7A68     		ldr	r2, [r7, #4]
 2903 04ee 0A44     		add	r2, r1, r2
 2904 04f0 1146     		mov	r1, r2
 608:.\slre.c      **** 				    caps[r->code[pc + 1]].ptr;
 2905              		.loc 1 608 0
 2906 04f2 BA68     		ldr	r2, [r7, #8]
 2907 04f4 02F10102 		add	r2, r2, #1
 2908 04f8 F868     		ldr	r0, [r7, #12]
 2909 04fa 825C     		ldrb	r2, [r0, r2]	@ zero_extendqisi2
 2910 04fc 4FEAC200 		lsl	r0, r2, #3
 2911 0500 FA6A     		ldr	r2, [r7, #44]
 2912 0502 0244     		add	r2, r0, r2
 2913              		.loc 1 607 0
 2914 0504 1268     		ldr	r2, [r2, #0]
 2915 0506 C2EB0102 		rsb	r2, r2, r1
 2916 050a 5A60     		str	r2, [r3, #4]
 2917              	.L176:
 609:.\slre.c      **** 			pc += 2;
ARM GAS  C:\Users\karunmj\AppData\Local\Temp\ccfJuUhb.s 			page 64


 2918              		.loc 1 609 0
 2919 050c BB68     		ldr	r3, [r7, #8]
 2920 050e 03F10203 		add	r3, r3, #2
 2921 0512 BB60     		str	r3, [r7, #8]
 610:.\slre.c      **** 			break;
 2922              		.loc 1 610 0
 2923 0514 22E0     		b	.L141
 2924              	.L145:
 611:.\slre.c      **** 		case END:
 612:.\slre.c      **** 			pc++;
 2925              		.loc 1 612 0
 2926 0516 BB68     		ldr	r3, [r7, #8]
 2927 0518 03F10103 		add	r3, r3, #1
 2928 051c BB60     		str	r3, [r7, #8]
 613:.\slre.c      **** 			break;
 2929              		.loc 1 613 0
 2930 051e 1DE0     		b	.L141
 2931              	.L144:
 614:.\slre.c      **** 		default:
 615:.\slre.c      **** 			printf("unknown cmd (%d) at %d\n", r->code[pc], pc);
 2932              		.loc 1 615 0
 2933 0520 BB68     		ldr	r3, [r7, #8]
 2934 0522 FA68     		ldr	r2, [r7, #12]
 2935 0524 D35C     		ldrb	r3, [r2, r3]	@ zero_extendqisi2
 2936 0526 40F20000 		movw	r0, #:lower16:.LC38
 2937 052a C0F20000 		movt	r0, #:upper16:.LC38
 2938 052e 1946     		mov	r1, r3
 2939 0530 BA68     		ldr	r2, [r7, #8]
 2940 0532 FFF7FEFF 		bl	printf
 616:.\slre.c      **** 			assert(0);
 2941              		.loc 1 616 0
 2942 0536 40F20000 		movw	r0, #:lower16:.LC28
 2943 053a C0F20000 		movt	r0, #:upper16:.LC28
 2944 053e 4FF41A71 		mov	r1, #616
 2945 0542 40F20002 		movw	r2, #:lower16:__FUNCTION__.3293
 2946 0546 C0F20002 		movt	r2, #:upper16:__FUNCTION__.3293
 2947 054a 40F20003 		movw	r3, #:lower16:.LC39
 2948 054e C0F20003 		movt	r3, #:upper16:.LC39
 2949 0552 FFF7FEFF 		bl	__assert_func
 2950              	.L180:
 2951              		.loc 1 534 0
 2952 0556 00BF     		nop
 2953 0558 00E0     		b	.L141
 2954              	.L181:
 2955              		.loc 1 541 0
 2956 055a 00BF     		nop
 2957              	.L141:
 2958              		.loc 1 489 0
 2959 055c FB69     		ldr	r3, [r7, #28]
 2960 055e 002B     		cmp	r3, #0
 2961 0560 05D0     		beq	.L177
 2962 0562 BB68     		ldr	r3, [r7, #8]
 2963 0564 FA68     		ldr	r2, [r7, #12]
 2964 0566 D35C     		ldrb	r3, [r2, r3]	@ zero_extendqisi2
 2965 0568 002B     		cmp	r3, #0
 2966 056a 7FF454AD 		bne	.L178
 2967              	.L177:
ARM GAS  C:\Users\karunmj\AppData\Local\Temp\ccfJuUhb.s 			page 65


 617:.\slre.c      **** 			break;
 618:.\slre.c      **** 		}
 619:.\slre.c      **** 	}
 620:.\slre.c      **** 
 621:.\slre.c      **** 	return (res);
 2968              		.loc 1 621 0
 2969 056e FB69     		ldr	r3, [r7, #28]
 622:.\slre.c      **** }
 2970              		.loc 1 622 0
 2971 0570 1846     		mov	r0, r3
 2972 0572 07F12007 		add	r7, r7, #32
 2973 0576 BD46     		mov	sp, r7
 2974 0578 80BD     		pop	{r7, pc}
 2975              		.cfi_endproc
 2976              	.LFE18:
 2977              		.size	match, .-match
 2978 057a 00BF     		.section	.text.slre_match,"ax",%progbits
 2979              		.align	2
 2980              		.global	slre_match
 2981              		.thumb
 2982              		.thumb_func
 2983              		.type	slre_match, %function
 2984              	slre_match:
 2985              	.LFB19:
 623:.\slre.c      **** 
 624:.\slre.c      **** int
 625:.\slre.c      **** slre_match(const struct slre *r, const char *buf, int len,
 626:.\slre.c      **** 		struct cap *caps)
 627:.\slre.c      **** {
 2986              		.loc 1 627 0
 2987              		.cfi_startproc
 2988              		@ args = 0, pretend = 0, frame = 32
 2989              		@ frame_needed = 1, uses_anonymous_args = 0
 2990 0000 80B5     		push	{r7, lr}
 2991              	.LCFI57:
 2992              		.cfi_def_cfa_offset 8
 2993 0002 8AB0     		sub	sp, sp, #40
 2994              	.LCFI58:
 2995              		.cfi_def_cfa_offset 48
 2996 0004 02AF     		add	r7, sp, #8
 2997              		.cfi_offset 14, -4
 2998              		.cfi_offset 7, -8
 2999              	.LCFI59:
 3000              		.cfi_def_cfa 7, 40
 3001 0006 F860     		str	r0, [r7, #12]
 3002 0008 B960     		str	r1, [r7, #8]
 3003 000a 7A60     		str	r2, [r7, #4]
 3004 000c 3B60     		str	r3, [r7, #0]
 628:.\slre.c      **** 	int	i, ofs = 0, res = 0;
 3005              		.loc 1 628 0
 3006 000e 4FF00003 		mov	r3, #0
 3007 0012 7B61     		str	r3, [r7, #20]
 3008 0014 4FF00003 		mov	r3, #0
 3009 0018 FB61     		str	r3, [r7, #28]
 629:.\slre.c      **** 
 630:.\slre.c      **** 	if (r->anchored) {
 3010              		.loc 1 630 0
ARM GAS  C:\Users\karunmj\AppData\Local\Temp\ccfJuUhb.s 			page 66


 3011 001a FB68     		ldr	r3, [r7, #12]
 3012 001c D3F80C32 		ldr	r3, [r3, #524]
 3013 0020 002B     		cmp	r3, #0
 3014 0022 0ED0     		beq	.L183
 631:.\slre.c      **** 		res = match(r, 0, buf, len, &ofs, caps);
 3015              		.loc 1 631 0
 3016 0024 07F11403 		add	r3, r7, #20
 3017 0028 0093     		str	r3, [sp, #0]
 3018 002a 3B68     		ldr	r3, [r7, #0]
 3019 002c 0193     		str	r3, [sp, #4]
 3020 002e F868     		ldr	r0, [r7, #12]
 3021 0030 4FF00001 		mov	r1, #0
 3022 0034 BA68     		ldr	r2, [r7, #8]
 3023 0036 7B68     		ldr	r3, [r7, #4]
 3024 0038 FFF7FEFF 		bl	match
 3025 003c 0346     		mov	r3, r0
 3026 003e FB61     		str	r3, [r7, #28]
 3027 0040 1EE0     		b	.L184
 3028              	.L183:
 632:.\slre.c      **** 	} else {
 633:.\slre.c      **** 		for (i = 0; i < len && res == 0; i++) {
 3029              		.loc 1 633 0
 3030 0042 4FF00003 		mov	r3, #0
 3031 0046 BB61     		str	r3, [r7, #24]
 3032 0048 13E0     		b	.L185
 3033              	.L186:
 634:.\slre.c      **** 			ofs = i;
 3034              		.loc 1 634 0
 3035 004a BB69     		ldr	r3, [r7, #24]
 3036 004c 7B61     		str	r3, [r7, #20]
 635:.\slre.c      **** 			res = match(r, 0, buf, len, &ofs, caps);
 3037              		.loc 1 635 0
 3038 004e 07F11403 		add	r3, r7, #20
 3039 0052 0093     		str	r3, [sp, #0]
 3040 0054 3B68     		ldr	r3, [r7, #0]
 3041 0056 0193     		str	r3, [sp, #4]
 3042 0058 F868     		ldr	r0, [r7, #12]
 3043 005a 4FF00001 		mov	r1, #0
 3044 005e BA68     		ldr	r2, [r7, #8]
 3045 0060 7B68     		ldr	r3, [r7, #4]
 3046 0062 FFF7FEFF 		bl	match
 3047 0066 0346     		mov	r3, r0
 3048 0068 FB61     		str	r3, [r7, #28]
 3049              		.loc 1 633 0
 3050 006a BB69     		ldr	r3, [r7, #24]
 3051 006c 03F10103 		add	r3, r3, #1
 3052 0070 BB61     		str	r3, [r7, #24]
 3053              	.L185:
 3054 0072 BA69     		ldr	r2, [r7, #24]
 3055 0074 7B68     		ldr	r3, [r7, #4]
 3056 0076 9A42     		cmp	r2, r3
 3057 0078 02DA     		bge	.L184
 3058 007a FB69     		ldr	r3, [r7, #28]
 3059 007c 002B     		cmp	r3, #0
 3060 007e E4D0     		beq	.L186
 3061              	.L184:
 636:.\slre.c      **** 		}
ARM GAS  C:\Users\karunmj\AppData\Local\Temp\ccfJuUhb.s 			page 67


 637:.\slre.c      **** 	}
 638:.\slre.c      **** 
 639:.\slre.c      **** 	return (res);
 3062              		.loc 1 639 0
 3063 0080 FB69     		ldr	r3, [r7, #28]
 640:.\slre.c      **** }
 3064              		.loc 1 640 0
 3065 0082 1846     		mov	r0, r3
 3066 0084 07F12007 		add	r7, r7, #32
 3067 0088 BD46     		mov	sp, r7
 3068 008a 80BD     		pop	{r7, pc}
 3069              		.cfi_endproc
 3070              	.LFE19:
 3071              		.size	slre_match, .-slre_match
 3072              		.section	.rodata
 3073 01da 0000     		.align	2
 3074              		.type	__FUNCTION__.3293, %object
 3075              		.size	__FUNCTION__.3293, 6
 3076              	__FUNCTION__.3293:
 3077 01dc 6D617463 		.ascii	"match\000"
 3077      6800
 3078 01e2 0000     		.align	2
 3079              		.type	__FUNCTION__.2917, %object
 3080              		.size	__FUNCTION__.2917, 16
 3081              	__FUNCTION__.2917:
 3082 01e4 7365745F 		.ascii	"set_jump_offset\000"
 3082      6A756D70 
 3082      5F6F6666 
 3082      73657400 
 3083              		.text
 3084              	.Letext0: