ARM GAS  C:\Users\karunmj\AppData\Local\Temp\cckelB2v.s 			page 1


   1              		.syntax unified
   2              		.cpu cortex-m3
   3              		.fpu softvfp
   4              		.eabi_attribute 20, 1
   5              		.eabi_attribute 21, 1
   6              		.eabi_attribute 23, 3
   7              		.eabi_attribute 24, 1
   8              		.eabi_attribute 25, 1
   9              		.eabi_attribute 26, 1
  10              		.eabi_attribute 30, 6
  11              		.eabi_attribute 18, 4
  12              		.thumb
  13              		.file	"solinst_depth.c"
  20 0000 3C010000 		.text
  20      02007200 
  20      00000201 
  20      FB0E0D00 
  20      01010101 
  21              	.Ltext0:
  22              		.cfi_sections	.debug_frame
  23              		.comm	uart_solinst_received_string,128,4
  24              		.global	uart_solinst_string_index
  25              		.bss
  26              		.type	uart_solinst_string_index, %object
  27              		.size	uart_solinst_string_index, 1
  28              	uart_solinst_string_index:
  29 0000 00       		.space	1
  30              		.section	.text.solinst_start,"ax",%progbits
  31              		.align	2
  32              		.global	solinst_start
  33              		.thumb
  34              		.thumb_func
  35              		.type	solinst_start, %function
  36              	solinst_start:
  37              	.LFB29:
  38              		.file 1 ".\\solinst_depth.c"
   1:.\solinst_depth.c **** /* ========================================
   2:.\solinst_depth.c ****  *
   3:.\solinst_depth.c ****  * Copyright YOUR COMPANY, THE YEAR
   4:.\solinst_depth.c ****  * All Rights Reserved
   5:.\solinst_depth.c ****  * UNPUBLISHED, LICENSED SOFTWARE.
   6:.\solinst_depth.c ****  *
   7:.\solinst_depth.c ****  * CONFIDENTIAL AND PROPRIETARY INFORMATION
   8:.\solinst_depth.c ****  * WHICH IS THE PROPERTY OF your company.
   9:.\solinst_depth.c ****  *
  10:.\solinst_depth.c ****  * ========================================
  11:.\solinst_depth.c **** */
  12:.\solinst_depth.c **** 
  13:.\solinst_depth.c **** #include "solinst_depth.h"
  14:.\solinst_depth.c **** #include "debug.h"
  15:.\solinst_depth.c **** 
ARM GAS  C:\Users\karunmj\AppData\Local\Temp\cckelB2v.s 			page 2


  16:.\solinst_depth.c **** // Declare variables
  17:.\solinst_depth.c **** uint8 uart_solinst_received_string[MAX_STRING_LENGTH];
  18:.\solinst_depth.c **** uint8 uart_solinst_string_index = 0;
  19:.\solinst_depth.c **** 
  20:.\solinst_depth.c **** // prototype modem interrupt
  21:.\solinst_depth.c **** CY_ISR_PROTO(isr_solinst_byte_rx);
  22:.\solinst_depth.c **** 
  23:.\solinst_depth.c **** // prototype functions
  24:.\solinst_depth.c **** void uart_solinst_string_reset();
  25:.\solinst_depth.c **** 
  26:.\solinst_depth.c **** 
  27:.\solinst_depth.c **** 
  28:.\solinst_depth.c **** // Start the UART
  29:.\solinst_depth.c **** void solinst_start(){
  39              		.loc 1 29 0
  40              		.cfi_startproc
  41              		@ args = 0, pretend = 0, frame = 0
  42              		@ frame_needed = 1, uses_anonymous_args = 0
  43 0000 80B5     		push	{r7, lr}
  44              	.LCFI0:
  45              		.cfi_def_cfa_offset 8
  46 0002 00AF     		add	r7, sp, #0
  47              		.cfi_offset 14, -4
  48              		.cfi_offset 7, -8
  49              	.LCFI1:
  50              		.cfi_def_cfa_register 7
  30:.\solinst_depth.c ****     uart_solinst_Start();
  51              		.loc 1 30 0
  52 0004 FFF7FEFF 		bl	uart_solinst_Start
  31:.\solinst_depth.c **** }   
  53              		.loc 1 31 0
  54 0008 80BD     		pop	{r7, pc}
  55              		.cfi_endproc
  56              	.LFE29:
  57              		.size	solinst_start, .-solinst_start
  58 000a 00BF     		.section	.text.solinst_stop,"ax",%progbits
  59              		.align	2
  60              		.global	solinst_stop
  61              		.thumb
  62              		.thumb_func
  63              		.type	solinst_stop, %function
  64              	solinst_stop:
  65              	.LFB30:
  32:.\solinst_depth.c **** 
  33:.\solinst_depth.c **** // Stop the UART
  34:.\solinst_depth.c **** void solinst_stop(){
  66              		.loc 1 34 0
  67              		.cfi_startproc
  68              		@ args = 0, pretend = 0, frame = 0
  69              		@ frame_needed = 1, uses_anonymous_args = 0
  70 0000 80B5     		push	{r7, lr}
  71              	.LCFI2:
  72              		.cfi_def_cfa_offset 8
  73 0002 00AF     		add	r7, sp, #0
  74              		.cfi_offset 14, -4
  75              		.cfi_offset 7, -8
  76              	.LCFI3:
ARM GAS  C:\Users\karunmj\AppData\Local\Temp\cckelB2v.s 			page 3


  77              		.cfi_def_cfa_register 7
  35:.\solinst_depth.c ****     uart_solinst_Stop();
  78              		.loc 1 35 0
  79 0004 FFF7FEFF 		bl	uart_solinst_Stop
  36:.\solinst_depth.c **** }         
  80              		.loc 1 36 0
  81 0008 80BD     		pop	{r7, pc}
  82              		.cfi_endproc
  83              	.LFE30:
  84              		.size	solinst_stop, .-solinst_stop
  85 000a 00BF     		.section	.text.solinst_power_on,"ax",%progbits
  86              		.align	2
  87              		.global	solinst_power_on
  88              		.thumb
  89              		.thumb_func
  90              		.type	solinst_power_on, %function
  91              	solinst_power_on:
  92              	.LFB31:
  37:.\solinst_depth.c **** 
  38:.\solinst_depth.c **** // Provide power to Solinst sensor
  39:.\solinst_depth.c **** uint8 solinst_power_on(){
  93              		.loc 1 39 0
  94              		.cfi_startproc
  95              		@ args = 0, pretend = 0, frame = 0
  96              		@ frame_needed = 1, uses_anonymous_args = 0
  97 0000 80B5     		push	{r7, lr}
  98              	.LCFI4:
  99              		.cfi_def_cfa_offset 8
 100 0002 00AF     		add	r7, sp, #0
 101              		.cfi_offset 14, -4
 102              		.cfi_offset 7, -8
 103              	.LCFI5:
 104              		.cfi_def_cfa_register 7
  40:.\solinst_depth.c ****     ControlReg_Solinst_Write(1u);
 105              		.loc 1 40 0
 106 0004 4FF00100 		mov	r0, #1
 107 0008 FFF7FEFF 		bl	ControlReg_Solinst_Write
  41:.\solinst_depth.c ****     solinst_power_pin_Write(0u);
 108              		.loc 1 41 0
 109 000c 4FF00000 		mov	r0, #0
 110 0010 FFF7FEFF 		bl	solinst_power_pin_Write
  42:.\solinst_depth.c ****     return 1u;
 111              		.loc 1 42 0
 112 0014 4FF00103 		mov	r3, #1
  43:.\solinst_depth.c **** }
 113              		.loc 1 43 0
 114 0018 1846     		mov	r0, r3
 115 001a 80BD     		pop	{r7, pc}
 116              		.cfi_endproc
 117              	.LFE31:
 118              		.size	solinst_power_on, .-solinst_power_on
 119              		.section	.text.solinst_power_off,"ax",%progbits
 120              		.align	2
 121              		.global	solinst_power_off
 122              		.thumb
 123              		.thumb_func
 124              		.type	solinst_power_off, %function
ARM GAS  C:\Users\karunmj\AppData\Local\Temp\cckelB2v.s 			page 4


 125              	solinst_power_off:
 126              	.LFB32:
  44:.\solinst_depth.c **** 
  45:.\solinst_depth.c **** // Cut power to the Solinst sensor
  46:.\solinst_depth.c **** uint8 solinst_power_off(){
 127              		.loc 1 46 0
 128              		.cfi_startproc
 129              		@ args = 0, pretend = 0, frame = 0
 130              		@ frame_needed = 1, uses_anonymous_args = 0
 131 0000 80B5     		push	{r7, lr}
 132              	.LCFI6:
 133              		.cfi_def_cfa_offset 8
 134 0002 00AF     		add	r7, sp, #0
 135              		.cfi_offset 14, -4
 136              		.cfi_offset 7, -8
 137              	.LCFI7:
 138              		.cfi_def_cfa_register 7
  47:.\solinst_depth.c ****     solinst_power_pin_Write(1u);
 139              		.loc 1 47 0
 140 0004 4FF00100 		mov	r0, #1
 141 0008 FFF7FEFF 		bl	solinst_power_pin_Write
  48:.\solinst_depth.c ****     ControlReg_Solinst_Write(0u);
 142              		.loc 1 48 0
 143 000c 4FF00000 		mov	r0, #0
 144 0010 FFF7FEFF 		bl	ControlReg_Solinst_Write
  49:.\solinst_depth.c ****     return 0u;
 145              		.loc 1 49 0
 146 0014 4FF00003 		mov	r3, #0
  50:.\solinst_depth.c **** }
 147              		.loc 1 50 0
 148 0018 1846     		mov	r0, r3
 149 001a 80BD     		pop	{r7, pc}
 150              		.cfi_endproc
 151              	.LFE32:
 152              		.size	solinst_power_off, .-solinst_power_off
 153              		.global	__aeabi_i2f
 154              		.global	__aeabi_d2f
 155              		.global	__aeabi_fmul
 156              		.section	.rodata
 157              		.align	2
 158              	.LC0:
 159 0000 536F6C69 		.ascii	"Solinst Invalid Temperature and/or Depth Reading.\000"
 159      6E737420 
 159      496E7661 
 159      6C696420 
 159      54656D70 
 160              		.section	.text.solinst_get_reading,"ax",%progbits
 161              		.align	2
 162              		.global	solinst_get_reading
 163              		.thumb
 164              		.thumb_func
 165              		.type	solinst_get_reading, %function
 166              	solinst_get_reading:
 167              	.LFB33:
  51:.\solinst_depth.c **** 
  52:.\solinst_depth.c **** // Start ISR, Fill array, Return array, Stop ISR
  53:.\solinst_depth.c **** uint8 solinst_get_reading(SolinstReading *reading){
ARM GAS  C:\Users\karunmj\AppData\Local\Temp\cckelB2v.s 			page 5


 168              		.loc 1 53 0
 169              		.cfi_startproc
 170              		@ args = 0, pretend = 0, frame = 56
 171              		@ frame_needed = 1, uses_anonymous_args = 0
 172 0000 90B5     		push	{r4, r7, lr}
 173              	.LCFI8:
 174              		.cfi_def_cfa_offset 12
 175 0002 8FB0     		sub	sp, sp, #60
 176              	.LCFI9:
 177              		.cfi_def_cfa_offset 72
 178 0004 00AF     		add	r7, sp, #0
 179              		.cfi_offset 14, -4
 180              		.cfi_offset 7, -8
 181              		.cfi_offset 4, -12
 182              	.LCFI10:
 183              		.cfi_def_cfa_register 7
 184 0006 7860     		str	r0, [r7, #4]
  54:.\solinst_depth.c **** 
  55:.\solinst_depth.c ****     int i, index;
  56:.\solinst_depth.c ****     int temp_sign = 1, depth_sign = 1;
 185              		.loc 1 56 0
 186 0008 4FF00103 		mov	r3, #1
 187 000c FB62     		str	r3, [r7, #44]
 188 000e 4FF00103 		mov	r3, #1
 189 0012 3B63     		str	r3, [r7, #48]
  57:.\solinst_depth.c ****     uint8 temp[TEMP_STRING_LENGTH], depth[DEPTH_STRING_LENGTH], t;
  58:.\solinst_depth.c ****     uint8 valid = 0;
 190              		.loc 1 58 0
 191 0014 4FF00003 		mov	r3, #0
 192 0018 87F83730 		strb	r3, [r7, #55]
  59:.\solinst_depth.c ****     uint8 command[6] = {0x00, 0x61, 0xff, 0x18, 0x24, 0x10};
 193              		.loc 1 59 0
 194 001c 40F20002 		movw	r2, #:lower16:C.18.5720
 195 0020 C0F20002 		movt	r2, #:upper16:C.18.5720
 196 0024 07F10C03 		add	r3, r7, #12
 197 0028 92E80300 		ldmia	r2, {r0, r1}
 198 002c 1860     		str	r0, [r3, #0]
 199 002e 03F10403 		add	r3, r3, #4
 200 0032 1980     		strh	r1, [r3, #0]	@ movhi
  60:.\solinst_depth.c ****     
  61:.\solinst_depth.c ****     // Reset variables
  62:.\solinst_depth.c ****     (*reading).valid = 0u;
 201              		.loc 1 62 0
 202 0034 7B68     		ldr	r3, [r7, #4]
 203 0036 4FF00002 		mov	r2, #0
 204 003a 1A72     		strb	r2, [r3, #8]
  63:.\solinst_depth.c ****     (*reading).temp = -9999;    // Do not use -9999.99.. (inaccurate double representation)
 205              		.loc 1 63 0
 206 003c 7B68     		ldr	r3, [r7, #4]
 207 003e 7D4A     		ldr	r2, .L33	@ float
 208 0040 1A60     		str	r2, [r3, #0]	@ float
  64:.\solinst_depth.c ****     (*reading).depth = -9999;
 209              		.loc 1 64 0
 210 0042 7B68     		ldr	r3, [r7, #4]
 211 0044 7B4A     		ldr	r2, .L33	@ float
 212 0046 5A60     		str	r2, [r3, #4]	@ float
  65:.\solinst_depth.c ****     uart_solinst_string_reset();
ARM GAS  C:\Users\karunmj\AppData\Local\Temp\cckelB2v.s 			page 6


 213              		.loc 1 65 0
 214 0048 FFF7FEFF 		bl	uart_solinst_string_reset
  66:.\solinst_depth.c ****     
  67:.\solinst_depth.c ****     // Start the ISR to read the uart
  68:.\solinst_depth.c ****     isr_solinst_byte_rx_StartEx(isr_solinst_byte_rx);
 215              		.loc 1 68 0
 216 004c 40F20000 		movw	r0, #:lower16:isr_solinst_byte_rx
 217 0050 C0F20000 		movt	r0, #:upper16:isr_solinst_byte_rx
 218 0054 FFF7FEFF 		bl	isr_solinst_byte_rx_StartEx
  69:.\solinst_depth.c ****     solinst_power_on();
 219              		.loc 1 69 0
 220 0058 FFF7FEFF 		bl	solinst_power_on
  70:.\solinst_depth.c ****     CyDelay(100u);
 221              		.loc 1 70 0
 222 005c 4FF06400 		mov	r0, #100
 223 0060 FFF7FEFF 		bl	CyDelay
  71:.\solinst_depth.c ****     
  72:.\solinst_depth.c ****     // Write the command to the sensor
  73:.\solinst_depth.c ****     uart_solinst_PutArray(command,6);
 224              		.loc 1 73 0
 225 0064 07F10C03 		add	r3, r7, #12
 226 0068 1846     		mov	r0, r3
 227 006a 4FF00601 		mov	r1, #6
 228 006e FFF7FEFF 		bl	uart_solinst_PutArray
  74:.\solinst_depth.c ****     CyDelay(1000);
 229              		.loc 1 74 0
 230 0072 4FF47A70 		mov	r0, #1000
 231 0076 FFF7FEFF 		bl	CyDelay
  75:.\solinst_depth.c ****     
  76:.\solinst_depth.c ****     // Stop the ISR
  77:.\solinst_depth.c ****     isr_solinst_byte_rx_Stop();
 232              		.loc 1 77 0
 233 007a FFF7FEFF 		bl	isr_solinst_byte_rx_Stop
  78:.\solinst_depth.c ****     solinst_power_off();
 234              		.loc 1 78 0
 235 007e FFF7FEFF 		bl	solinst_power_off
  79:.\solinst_depth.c ****     
  80:.\solinst_depth.c ****     // Process the data
  81:.\solinst_depth.c ****     index = 0;
 236              		.loc 1 81 0
 237 0082 4FF00003 		mov	r3, #0
 238 0086 BB62     		str	r3, [r7, #40]
  82:.\solinst_depth.c ****     for (i = 0; i < sizeof(uart_solinst_received_string); i++) {
 239              		.loc 1 82 0
 240 0088 4FF00003 		mov	r3, #0
 241 008c 7B62     		str	r3, [r7, #36]
 242 008e 3AE0     		b	.L10
 243              	.L18:
  83:.\solinst_depth.c ****         t = uart_solinst_received_string[i];
 244              		.loc 1 83 0
 245 0090 7A6A     		ldr	r2, [r7, #36]
 246 0092 40F20003 		movw	r3, #:lower16:uart_solinst_received_string
 247 0096 C0F20003 		movt	r3, #:upper16:uart_solinst_received_string
 248 009a 9B5C     		ldrb	r3, [r3, r2]
 249 009c 87F83630 		strb	r3, [r7, #54]
  84:.\solinst_depth.c ****         
  85:.\solinst_depth.c ****         if ((t >= '0' && t <= '9') || t == '.') {
ARM GAS  C:\Users\karunmj\AppData\Local\Temp\cckelB2v.s 			page 7


 250              		.loc 1 85 0
 251 00a0 97F83630 		ldrb	r3, [r7, #54]	@ zero_extendqisi2
 252 00a4 2F2B     		cmp	r3, #47
 253 00a6 03D9     		bls	.L11
 254 00a8 97F83630 		ldrb	r3, [r7, #54]	@ zero_extendqisi2
 255 00ac 392B     		cmp	r3, #57
 256 00ae 03D9     		bls	.L12
 257              	.L11:
 258 00b0 97F83630 		ldrb	r3, [r7, #54]	@ zero_extendqisi2
 259 00b4 2E2B     		cmp	r3, #46
 260 00b6 0CD1     		bne	.L13
 261              	.L12:
  86:.\solinst_depth.c ****             temp[index] = t;
 262              		.loc 1 86 0
 263 00b8 BB6A     		ldr	r3, [r7, #40]
 264 00ba 07F13802 		add	r2, r7, #56
 265 00be 1344     		add	r3, r2, r3
 266 00c0 97F83620 		ldrb	r2, [r7, #54]
 267 00c4 03F81C2C 		strb	r2, [r3, #-28]
  87:.\solinst_depth.c ****             index++;
 268              		.loc 1 87 0
 269 00c8 BB6A     		ldr	r3, [r7, #40]
 270 00ca 03F10103 		add	r3, r3, #1
 271 00ce BB62     		str	r3, [r7, #40]
 272              		.loc 1 85 0
 273 00d0 15E0     		b	.L14
 274              	.L13:
  88:.\solinst_depth.c ****         }
  89:.\solinst_depth.c ****         else if (t == '+')
 275              		.loc 1 89 0
 276 00d2 97F83630 		ldrb	r3, [r7, #54]	@ zero_extendqisi2
 277 00d6 2B2B     		cmp	r3, #43
 278 00d8 10D0     		beq	.L31
 279              	.L15:
  90:.\solinst_depth.c ****             continue;
  91:.\solinst_depth.c ****         else if (t == '-') {
 280              		.loc 1 91 0
 281 00da 97F83630 		ldrb	r3, [r7, #54]	@ zero_extendqisi2
 282 00de 2D2B     		cmp	r3, #45
 283 00e0 03D1     		bne	.L16
  92:.\solinst_depth.c ****             temp_sign = -1;
 284              		.loc 1 92 0
 285 00e2 4FF0FF33 		mov	r3, #-1
 286 00e6 FB62     		str	r3, [r7, #44]
 287 00e8 09E0     		b	.L14
 288              	.L16:
  93:.\solinst_depth.c ****         }
  94:.\solinst_depth.c ****         else if (t == 'C') {
 289              		.loc 1 94 0
 290 00ea 97F83630 		ldrb	r3, [r7, #54]	@ zero_extendqisi2
 291 00ee 432B     		cmp	r3, #67
 292 00f0 05D1     		bne	.L14
  95:.\solinst_depth.c ****             valid = 1u;
 293              		.loc 1 95 0
 294 00f2 4FF00103 		mov	r3, #1
 295 00f6 87F83730 		strb	r3, [r7, #55]
  96:.\solinst_depth.c ****             break;
ARM GAS  C:\Users\karunmj\AppData\Local\Temp\cckelB2v.s 			page 8


 296              		.loc 1 96 0
 297 00fa 07E0     		b	.L17
 298              	.L31:
 299              		.loc 1 90 0
 300 00fc 00BF     		nop
 301              	.L14:
 302              		.loc 1 82 0
 303 00fe 7B6A     		ldr	r3, [r7, #36]
 304 0100 03F10103 		add	r3, r3, #1
 305 0104 7B62     		str	r3, [r7, #36]
 306              	.L10:
 307 0106 7B6A     		ldr	r3, [r7, #36]
 308 0108 7F2B     		cmp	r3, #127
 309 010a C1D9     		bls	.L18
 310              	.L17:
  97:.\solinst_depth.c ****         }
  98:.\solinst_depth.c ****     }
  99:.\solinst_depth.c ****     /*
 100:.\solinst_depth.c ****     if (!valid) {
 101:.\solinst_depth.c ****         debug_write("Solinst Invalid Temperature Reading.");
 102:.\solinst_depth.c ****     }
 103:.\solinst_depth.c ****     */
 104:.\solinst_depth.c ****     index = 0;
 311              		.loc 1 104 0
 312 010c 4FF00003 		mov	r3, #0
 313 0110 BB62     		str	r3, [r7, #40]
 105:.\solinst_depth.c ****     for (; i < strlen(uart_solinst_received_string); i++) {
 314              		.loc 1 105 0
 315 0112 3CE0     		b	.L19
 316              	.L27:
 106:.\solinst_depth.c ****         t = uart_solinst_received_string[i];
 317              		.loc 1 106 0
 318 0114 7A6A     		ldr	r2, [r7, #36]
 319 0116 40F20003 		movw	r3, #:lower16:uart_solinst_received_string
 320 011a C0F20003 		movt	r3, #:upper16:uart_solinst_received_string
 321 011e 9B5C     		ldrb	r3, [r3, r2]
 322 0120 87F83630 		strb	r3, [r7, #54]
 107:.\solinst_depth.c ****         
 108:.\solinst_depth.c ****         if ((t >= '0' && t <= '9') || t == '.') {
 323              		.loc 1 108 0
 324 0124 97F83630 		ldrb	r3, [r7, #54]	@ zero_extendqisi2
 325 0128 2F2B     		cmp	r3, #47
 326 012a 03D9     		bls	.L20
 327 012c 97F83630 		ldrb	r3, [r7, #54]	@ zero_extendqisi2
 328 0130 392B     		cmp	r3, #57
 329 0132 03D9     		bls	.L21
 330              	.L20:
 331 0134 97F83630 		ldrb	r3, [r7, #54]	@ zero_extendqisi2
 332 0138 2E2B     		cmp	r3, #46
 333 013a 0CD1     		bne	.L22
 334              	.L21:
 109:.\solinst_depth.c ****             depth[index] = t;
 335              		.loc 1 109 0
 336 013c BB6A     		ldr	r3, [r7, #40]
 337 013e 07F13802 		add	r2, r7, #56
 338 0142 1344     		add	r3, r2, r3
 339 0144 97F83620 		ldrb	r2, [r7, #54]
ARM GAS  C:\Users\karunmj\AppData\Local\Temp\cckelB2v.s 			page 9


 340 0148 03F8242C 		strb	r2, [r3, #-36]
 110:.\solinst_depth.c ****             index++;
 341              		.loc 1 110 0
 342 014c BB6A     		ldr	r3, [r7, #40]
 343 014e 03F10103 		add	r3, r3, #1
 344 0152 BB62     		str	r3, [r7, #40]
 345              		.loc 1 108 0
 346 0154 17E0     		b	.L23
 347              	.L22:
 111:.\solinst_depth.c ****         }
 112:.\solinst_depth.c ****         else if (t == '+')
 348              		.loc 1 112 0
 349 0156 97F83630 		ldrb	r3, [r7, #54]	@ zero_extendqisi2
 350 015a 2B2B     		cmp	r3, #43
 351 015c 12D0     		beq	.L32
 352              	.L24:
 113:.\solinst_depth.c ****             continue;
 114:.\solinst_depth.c ****         else if (t == '-') {
 353              		.loc 1 114 0
 354 015e 97F83630 		ldrb	r3, [r7, #54]	@ zero_extendqisi2
 355 0162 2D2B     		cmp	r3, #45
 356 0164 03D1     		bne	.L25
 115:.\solinst_depth.c ****             depth_sign = -1;  
 357              		.loc 1 115 0
 358 0166 4FF0FF33 		mov	r3, #-1
 359 016a 3B63     		str	r3, [r7, #48]
 360 016c 0BE0     		b	.L23
 361              	.L25:
 116:.\solinst_depth.c ****         }
 117:.\solinst_depth.c ****         else if (t == 'm') {
 362              		.loc 1 117 0
 363 016e 97F83630 		ldrb	r3, [r7, #54]	@ zero_extendqisi2
 364 0172 6D2B     		cmp	r3, #109
 365 0174 07D1     		bne	.L23
 118:.\solinst_depth.c ****             (*reading).valid = 1u & valid;
 366              		.loc 1 118 0
 367 0176 97F83730 		ldrb	r3, [r7, #55]	@ zero_extendqisi2
 368 017a 03F00103 		and	r3, r3, #1
 369 017e 7A68     		ldr	r2, [r7, #4]
 370 0180 1372     		strb	r3, [r2, #8]
 119:.\solinst_depth.c ****             break;
 371              		.loc 1 119 0
 372 0182 0EE0     		b	.L26
 373              	.L32:
 374              		.loc 1 113 0
 375 0184 00BF     		nop
 376              	.L23:
 377              		.loc 1 105 0
 378 0186 7B6A     		ldr	r3, [r7, #36]
 379 0188 03F10103 		add	r3, r3, #1
 380 018c 7B62     		str	r3, [r7, #36]
 381              	.L19:
 382 018e 7C6A     		ldr	r4, [r7, #36]
 383 0190 40F20000 		movw	r0, #:lower16:uart_solinst_received_string
 384 0194 C0F20000 		movt	r0, #:upper16:uart_solinst_received_string
 385 0198 FFF7FEFF 		bl	strlen
 386 019c 0346     		mov	r3, r0
ARM GAS  C:\Users\karunmj\AppData\Local\Temp\cckelB2v.s 			page 10


 387 019e 9C42     		cmp	r4, r3
 388 01a0 B8D3     		bcc	.L27
 389              	.L26:
 120:.\solinst_depth.c ****         }
 121:.\solinst_depth.c ****            
 122:.\solinst_depth.c ****     }    
 123:.\solinst_depth.c ****     /*
 124:.\solinst_depth.c ****     (*reading).temp = (float)temp_sign * (float)atof(temp);
 125:.\solinst_depth.c ****     (*reading).depth = (float)depth_sign * (float)atof(depth);
 126:.\solinst_depth.c ****     
 127:.\solinst_depth.c ****     
 128:.\solinst_depth.c ****     if ( (*reading).temp != -9999 && (*reading).depth != -9999) {
 129:.\solinst_depth.c ****         (*reading).valid = 1u;
 130:.\solinst_depth.c ****     }
 131:.\solinst_depth.c ****     */
 132:.\solinst_depth.c ****     
 133:.\solinst_depth.c ****     if ((*reading).valid) {
 390              		.loc 1 133 0
 391 01a2 7B68     		ldr	r3, [r7, #4]
 392 01a4 1B7A     		ldrb	r3, [r3, #8]	@ zero_extendqisi2
 393 01a6 002B     		cmp	r3, #0
 394 01a8 30D0     		beq	.L28
 134:.\solinst_depth.c ****         (*reading).temp = (float)temp_sign * (float)atof(temp);
 395              		.loc 1 134 0
 396 01aa F86A     		ldr	r0, [r7, #44]
 397 01ac FFF7FEFF 		bl	__aeabi_i2f
 398 01b0 0446     		mov	r4, r0
 399 01b2 07F11C03 		add	r3, r7, #28
 400 01b6 1846     		mov	r0, r3
 401 01b8 FFF7FEFF 		bl	atof
 402 01bc 0246     		mov	r2, r0
 403 01be 0B46     		mov	r3, r1
 404 01c0 1046     		mov	r0, r2
 405 01c2 1946     		mov	r1, r3
 406 01c4 FFF7FEFF 		bl	__aeabi_d2f
 407 01c8 0346     		mov	r3, r0
 408 01ca 2046     		mov	r0, r4
 409 01cc 1946     		mov	r1, r3
 410 01ce FFF7FEFF 		bl	__aeabi_fmul
 411 01d2 0346     		mov	r3, r0
 412 01d4 1A46     		mov	r2, r3
 413 01d6 7B68     		ldr	r3, [r7, #4]
 414 01d8 1A60     		str	r2, [r3, #0]	@ float
 135:.\solinst_depth.c ****         (*reading).depth = (float)depth_sign * (float)atof(depth);
 415              		.loc 1 135 0
 416 01da 386B     		ldr	r0, [r7, #48]
 417 01dc FFF7FEFF 		bl	__aeabi_i2f
 418 01e0 0446     		mov	r4, r0
 419 01e2 07F11403 		add	r3, r7, #20
 420 01e6 1846     		mov	r0, r3
 421 01e8 FFF7FEFF 		bl	atof
 422 01ec 0246     		mov	r2, r0
 423 01ee 0B46     		mov	r3, r1
 424 01f0 1046     		mov	r0, r2
 425 01f2 1946     		mov	r1, r3
 426 01f4 FFF7FEFF 		bl	__aeabi_d2f
 427 01f8 0346     		mov	r3, r0
ARM GAS  C:\Users\karunmj\AppData\Local\Temp\cckelB2v.s 			page 11


 428 01fa 2046     		mov	r0, r4
 429 01fc 1946     		mov	r1, r3
 430 01fe FFF7FEFF 		bl	__aeabi_fmul
 431 0202 0346     		mov	r3, r0
 432 0204 1A46     		mov	r2, r3
 433 0206 7B68     		ldr	r3, [r7, #4]
 434 0208 5A60     		str	r2, [r3, #4]	@ float
 435 020a 0BE0     		b	.L29
 436              	.L28:
 136:.\solinst_depth.c ****     }    
 137:.\solinst_depth.c ****     else{
 138:.\solinst_depth.c ****         debug_write("Solinst Invalid Temperature and/or Depth Reading.");
 437              		.loc 1 138 0
 438 020c 40F20000 		movw	r0, #:lower16:.LC0
 439 0210 C0F20000 		movt	r0, #:upper16:.LC0
 440 0214 FFF7FEFF 		bl	debug_write
 139:.\solinst_depth.c ****         debug_write(uart_solinst_received_string);
 441              		.loc 1 139 0
 442 0218 40F20000 		movw	r0, #:lower16:uart_solinst_received_string
 443 021c C0F20000 		movt	r0, #:upper16:uart_solinst_received_string
 444 0220 FFF7FEFF 		bl	debug_write
 445              	.L29:
 140:.\solinst_depth.c ****     }
 141:.\solinst_depth.c ****     
 142:.\solinst_depth.c ****     return (*reading).valid;
 446              		.loc 1 142 0
 447 0224 7B68     		ldr	r3, [r7, #4]
 448 0226 1B7A     		ldrb	r3, [r3, #8]	@ zero_extendqisi2
 143:.\solinst_depth.c **** }  
 449              		.loc 1 143 0
 450 0228 1846     		mov	r0, r3
 451 022a 07F13C07 		add	r7, r7, #60
 452 022e BD46     		mov	sp, r7
 453 0230 90BD     		pop	{r4, r7, pc}
 454              	.L34:
 455 0232 00BF     		.align	2
 456              	.L33:
 457 0234 003C1CC6 		.word	-971228160
 458              		.cfi_endproc
 459              	.LFE33:
 460              		.size	solinst_get_reading, .-solinst_get_reading
 461              		.section	.text.isr_solinst_byte_rx,"ax",%progbits
 462              		.align	2
 463              		.global	isr_solinst_byte_rx
 464              		.thumb
 465              		.thumb_func
 466              		.type	isr_solinst_byte_rx, %function
 467              	isr_solinst_byte_rx:
 468              	.LFB34:
 144:.\solinst_depth.c **** 
 145:.\solinst_depth.c **** 
 146:.\solinst_depth.c **** CY_ISR(isr_solinst_byte_rx){
 469              		.loc 1 146 0
 470              		.cfi_startproc
 471              		@ args = 0, pretend = 0, frame = 8
 472              		@ frame_needed = 1, uses_anonymous_args = 0
 473 0000 80B5     		push	{r7, lr}
ARM GAS  C:\Users\karunmj\AppData\Local\Temp\cckelB2v.s 			page 12


 474              	.LCFI11:
 475              		.cfi_def_cfa_offset 8
 476 0002 82B0     		sub	sp, sp, #8
 477              	.LCFI12:
 478              		.cfi_def_cfa_offset 16
 479 0004 00AF     		add	r7, sp, #0
 480              		.cfi_offset 14, -4
 481              		.cfi_offset 7, -8
 482              	.LCFI13:
 483              		.cfi_def_cfa_register 7
 147:.\solinst_depth.c ****     // hold the next char in the rx register as a temporary variable
 148:.\solinst_depth.c ****     uint8 rx_char_hold = uart_solinst_GetChar();
 484              		.loc 1 148 0
 485 0006 FFF7FEFF 		bl	uart_solinst_GetChar
 486 000a 0346     		mov	r3, r0
 487 000c FB71     		strb	r3, [r7, #7]
 149:.\solinst_depth.c ****     
 150:.\solinst_depth.c ****     // store the char in uart_received_string
 151:.\solinst_depth.c ****     if(rx_char_hold && uart_solinst_string_index < MAX_STRING_LENGTH){
 488              		.loc 1 151 0
 489 000e FB79     		ldrb	r3, [r7, #7]	@ zero_extendqisi2
 490 0010 002B     		cmp	r3, #0
 491 0012 20D0     		beq	.L37
 492 0014 40F20003 		movw	r3, #:lower16:uart_solinst_string_index
 493 0018 C0F20003 		movt	r3, #:upper16:uart_solinst_string_index
 494 001c 1B78     		ldrb	r3, [r3, #0]	@ zero_extendqisi2
 495 001e 5BB2     		sxtb	r3, r3
 496 0020 002B     		cmp	r3, #0
 497 0022 18DB     		blt	.L37
 152:.\solinst_depth.c ****         uart_solinst_received_string[uart_solinst_string_index] = rx_char_hold;
 498              		.loc 1 152 0
 499 0024 40F20003 		movw	r3, #:lower16:uart_solinst_string_index
 500 0028 C0F20003 		movt	r3, #:upper16:uart_solinst_string_index
 501 002c 1B78     		ldrb	r3, [r3, #0]	@ zero_extendqisi2
 502 002e 1A46     		mov	r2, r3
 503 0030 40F20003 		movw	r3, #:lower16:uart_solinst_received_string
 504 0034 C0F20003 		movt	r3, #:upper16:uart_solinst_received_string
 505 0038 F979     		ldrb	r1, [r7, #7]
 506 003a 9954     		strb	r1, [r3, r2]
 153:.\solinst_depth.c ****         uart_solinst_string_index++;
 507              		.loc 1 153 0
 508 003c 40F20003 		movw	r3, #:lower16:uart_solinst_string_index
 509 0040 C0F20003 		movt	r3, #:upper16:uart_solinst_string_index
 510 0044 1B78     		ldrb	r3, [r3, #0]	@ zero_extendqisi2
 511 0046 03F10103 		add	r3, r3, #1
 512 004a DAB2     		uxtb	r2, r3
 513 004c 40F20003 		movw	r3, #:lower16:uart_solinst_string_index
 514 0050 C0F20003 		movt	r3, #:upper16:uart_solinst_string_index
 515 0054 1A70     		strb	r2, [r3, #0]
 516              	.L37:
 154:.\solinst_depth.c ****     }    
 155:.\solinst_depth.c **** }
 517              		.loc 1 155 0
 518 0056 07F10807 		add	r7, r7, #8
 519 005a BD46     		mov	sp, r7
 520 005c 80BD     		pop	{r7, pc}
 521              		.cfi_endproc
ARM GAS  C:\Users\karunmj\AppData\Local\Temp\cckelB2v.s 			page 13


 522              	.LFE34:
 523              		.size	isr_solinst_byte_rx, .-isr_solinst_byte_rx
 524 005e 00BF     		.section	.text.uart_solinst_string_reset,"ax",%progbits
 525              		.align	2
 526              		.global	uart_solinst_string_reset
 527              		.thumb
 528              		.thumb_func
 529              		.type	uart_solinst_string_reset, %function
 530              	uart_solinst_string_reset:
 531              	.LFB35:
 156:.\solinst_depth.c **** 
 157:.\solinst_depth.c **** 
 158:.\solinst_depth.c **** void uart_solinst_string_reset(){
 532              		.loc 1 158 0
 533              		.cfi_startproc
 534              		@ args = 0, pretend = 0, frame = 8
 535              		@ frame_needed = 1, uses_anonymous_args = 0
 536 0000 80B5     		push	{r7, lr}
 537              	.LCFI14:
 538              		.cfi_def_cfa_offset 8
 539 0002 82B0     		sub	sp, sp, #8
 540              	.LCFI15:
 541              		.cfi_def_cfa_offset 16
 542 0004 00AF     		add	r7, sp, #0
 543              		.cfi_offset 14, -4
 544              		.cfi_offset 7, -8
 545              	.LCFI16:
 546              		.cfi_def_cfa_register 7
 159:.\solinst_depth.c ****     // reset uart_received_string to zero
 160:.\solinst_depth.c ****     uint8 i = 0;
 547              		.loc 1 160 0
 548 0006 4FF00003 		mov	r3, #0
 549 000a FB71     		strb	r3, [r7, #7]
 161:.\solinst_depth.c ****     
 162:.\solinst_depth.c ****     for(i = 0; i < MAX_STRING_LENGTH; i++){
 550              		.loc 1 162 0
 551 000c 4FF00003 		mov	r3, #0
 552 0010 FB71     		strb	r3, [r7, #7]
 553 0012 0BE0     		b	.L39
 554              	.L40:
 163:.\solinst_depth.c ****         uart_solinst_received_string[i] = 0;
 555              		.loc 1 163 0
 556 0014 FA79     		ldrb	r2, [r7, #7]	@ zero_extendqisi2
 557 0016 40F20003 		movw	r3, #:lower16:uart_solinst_received_string
 558 001a C0F20003 		movt	r3, #:upper16:uart_solinst_received_string
 559 001e 4FF00001 		mov	r1, #0
 560 0022 9954     		strb	r1, [r3, r2]
 561              		.loc 1 162 0
 562 0024 FB79     		ldrb	r3, [r7, #7]
 563 0026 03F10103 		add	r3, r3, #1
 564 002a FB71     		strb	r3, [r7, #7]
 565              	.L39:
 566 002c FB79     		ldrb	r3, [r7, #7]	@ zero_extendqisi2
 567 002e 5BB2     		sxtb	r3, r3
 568 0030 002B     		cmp	r3, #0
 569 0032 EFDA     		bge	.L40
 164:.\solinst_depth.c ****     }
ARM GAS  C:\Users\karunmj\AppData\Local\Temp\cckelB2v.s 			page 14


 165:.\solinst_depth.c ****     uart_solinst_string_index = 0;
 570              		.loc 1 165 0
 571 0034 40F20003 		movw	r3, #:lower16:uart_solinst_string_index
 572 0038 C0F20003 		movt	r3, #:upper16:uart_solinst_string_index
 573 003c 4FF00002 		mov	r2, #0
 574 0040 1A70     		strb	r2, [r3, #0]
 166:.\solinst_depth.c ****     uart_solinst_ClearRxBuffer();
 575              		.loc 1 166 0
 576 0042 FFF7FEFF 		bl	uart_solinst_ClearRxBuffer
 167:.\solinst_depth.c **** }
 577              		.loc 1 167 0
 578 0046 07F10807 		add	r7, r7, #8
 579 004a BD46     		mov	sp, r7
 580 004c 80BD     		pop	{r7, pc}
 581              		.cfi_endproc
 582              	.LFE35:
 583              		.size	uart_solinst_string_reset, .-uart_solinst_string_reset
 584 004e 00BF     		.section	.rodata
 585 0032 0000     		.align	2
 586              		.type	C.18.5720, %object
 587              		.size	C.18.5720, 6
 588              	C.18.5720:
 589 0034 00       		.byte	0
 590 0035 61       		.byte	97
 591 0036 FF       		.byte	-1
 592 0037 18       		.byte	24
 593 0038 24       		.byte	36
 594 0039 10       		.byte	16
 595 003a 0000     		.text
 596              	.Letext0: