ARM GAS  C:\Users\karunmj\AppData\Local\Temp\ccej1uIc.s 			page 1


   1              		.syntax unified
   2              		.cpu cortex-m3
   3              		.fpu softvfp
   4              		.eabi_attribute 20, 1
   5              		.eabi_attribute 21, 1
   6              		.eabi_attribute 23, 3
   7              		.eabi_attribute 24, 1
   8              		.eabi_attribute 25, 1
   9              		.eabi_attribute 26, 1
  10              		.eabi_attribute 30, 6
  11              		.eabi_attribute 18, 4
  12              		.thumb
  13              		.file	"timer_PM.c"
  20 0000 CC000000 		.text
  20      02006C00 
  20      00000201 
  20      FB0E0D00 
  20      01010101 
  21              	.Ltext0:
  22              		.cfi_sections	.debug_frame
  23              		.bss
  24              		.align	2
  25              	timer_backup:
  26 0000 00000000 		.space	16
  26      00000000 
  26      00000000 
  26      00000000 
  27              		.section	.text.timer_SaveConfig,"ax",%progbits
  28              		.align	2
  29              		.global	timer_SaveConfig
  30              		.thumb
  31              		.thumb_func
  32              		.type	timer_SaveConfig, %function
  33              	timer_SaveConfig:
  34              	.LFB0:
  35              		.file 1 ".\\Generated_Source\\PSoC5\\timer_PM.c"
   1:.\Generated_Source\PSoC5/timer_PM.c **** /*******************************************************************************
   2:.\Generated_Source\PSoC5/timer_PM.c **** * File Name: timer_PM.c
   3:.\Generated_Source\PSoC5/timer_PM.c **** * Version 2.50
   4:.\Generated_Source\PSoC5/timer_PM.c **** *
   5:.\Generated_Source\PSoC5/timer_PM.c **** *  Description:
   6:.\Generated_Source\PSoC5/timer_PM.c **** *     This file provides the power management source code to API for the
   7:.\Generated_Source\PSoC5/timer_PM.c **** *     Timer.
   8:.\Generated_Source\PSoC5/timer_PM.c **** *
   9:.\Generated_Source\PSoC5/timer_PM.c **** *   Note:
  10:.\Generated_Source\PSoC5/timer_PM.c **** *     None
  11:.\Generated_Source\PSoC5/timer_PM.c **** *
  12:.\Generated_Source\PSoC5/timer_PM.c **** *******************************************************************************
  13:.\Generated_Source\PSoC5/timer_PM.c **** * Copyright 2008-2012, Cypress Semiconductor Corporation.  All rights reserved.
  14:.\Generated_Source\PSoC5/timer_PM.c **** * You may use this file only in accordance with the license, terms, conditions,
  15:.\Generated_Source\PSoC5/timer_PM.c **** * disclaimers, and limitations in the end user license agreement accompanying
ARM GAS  C:\Users\karunmj\AppData\Local\Temp\ccej1uIc.s 			page 2


  16:.\Generated_Source\PSoC5/timer_PM.c **** * the software package with which this file was provided.
  17:.\Generated_Source\PSoC5/timer_PM.c **** ********************************************************************************/
  18:.\Generated_Source\PSoC5/timer_PM.c **** 
  19:.\Generated_Source\PSoC5/timer_PM.c **** #include "timer.h"
  20:.\Generated_Source\PSoC5/timer_PM.c **** static timer_backupStruct timer_backup;
  21:.\Generated_Source\PSoC5/timer_PM.c **** 
  22:.\Generated_Source\PSoC5/timer_PM.c **** 
  23:.\Generated_Source\PSoC5/timer_PM.c **** /*******************************************************************************
  24:.\Generated_Source\PSoC5/timer_PM.c **** * Function Name: timer_SaveConfig
  25:.\Generated_Source\PSoC5/timer_PM.c **** ********************************************************************************
  26:.\Generated_Source\PSoC5/timer_PM.c **** *
  27:.\Generated_Source\PSoC5/timer_PM.c **** * Summary:
  28:.\Generated_Source\PSoC5/timer_PM.c **** *     Save the current user configuration
  29:.\Generated_Source\PSoC5/timer_PM.c **** *
  30:.\Generated_Source\PSoC5/timer_PM.c **** * Parameters:
  31:.\Generated_Source\PSoC5/timer_PM.c **** *  void
  32:.\Generated_Source\PSoC5/timer_PM.c **** *
  33:.\Generated_Source\PSoC5/timer_PM.c **** * Return:
  34:.\Generated_Source\PSoC5/timer_PM.c **** *  void
  35:.\Generated_Source\PSoC5/timer_PM.c **** *
  36:.\Generated_Source\PSoC5/timer_PM.c **** * Global variables:
  37:.\Generated_Source\PSoC5/timer_PM.c **** *  timer_backup:  Variables of this global structure are modified to
  38:.\Generated_Source\PSoC5/timer_PM.c **** *  store the values of non retention configuration registers when Sleep() API is
  39:.\Generated_Source\PSoC5/timer_PM.c **** *  called.
  40:.\Generated_Source\PSoC5/timer_PM.c **** *
  41:.\Generated_Source\PSoC5/timer_PM.c **** *******************************************************************************/
  42:.\Generated_Source\PSoC5/timer_PM.c **** void timer_SaveConfig(void) 
  43:.\Generated_Source\PSoC5/timer_PM.c **** {
  36              		.loc 1 43 0
  37              		.cfi_startproc
  38              		@ args = 0, pretend = 0, frame = 0
  39              		@ frame_needed = 1, uses_anonymous_args = 0
  40 0000 80B5     		push	{r7, lr}
  41              	.LCFI0:
  42              		.cfi_def_cfa_offset 8
  43 0002 00AF     		add	r7, sp, #0
  44              		.cfi_offset 14, -4
  45              		.cfi_offset 7, -8
  46              	.LCFI1:
  47              		.cfi_def_cfa_register 7
  44:.\Generated_Source\PSoC5/timer_PM.c ****     #if (!timer_UsingFixedFunction)
  45:.\Generated_Source\PSoC5/timer_PM.c ****         /* Backup the UDB non-rentention registers for CY_UDB_V0 */
  46:.\Generated_Source\PSoC5/timer_PM.c ****         #if (CY_UDB_V0)
  47:.\Generated_Source\PSoC5/timer_PM.c ****             timer_backup.TimerUdb = timer_ReadCounter();
  48              		.loc 1 47 0
  49 0004 FFF7FEFF 		bl	timer_ReadCounter
  50 0008 0246     		mov	r2, r0
  51 000a 40F20003 		movw	r3, #:lower16:timer_backup
  52 000e C0F20003 		movt	r3, #:upper16:timer_backup
  53 0012 5A60     		str	r2, [r3, #4]
  48:.\Generated_Source\PSoC5/timer_PM.c ****             timer_backup.TimerPeriod = timer_ReadPeriod();
  54              		.loc 1 48 0
  55 0014 FFF7FEFF 		bl	timer_ReadPeriod
  56 0018 0246     		mov	r2, r0
  57 001a 40F20003 		movw	r3, #:lower16:timer_backup
  58 001e C0F20003 		movt	r3, #:upper16:timer_backup
  59 0022 9A60     		str	r2, [r3, #8]
ARM GAS  C:\Users\karunmj\AppData\Local\Temp\ccej1uIc.s 			page 3


  49:.\Generated_Source\PSoC5/timer_PM.c ****             timer_backup.InterruptMaskValue = timer_STATUS_MASK;
  60              		.loc 1 49 0
  61 0024 46F28753 		movw	r3, #:lower16:1073767815
  62 0028 C4F20003 		movt	r3, #:upper16:1073767815
  63 002c 1B78     		ldrb	r3, [r3, #0]
  64 002e DAB2     		uxtb	r2, r3
  65 0030 40F20003 		movw	r3, #:lower16:timer_backup
  66 0034 C0F20003 		movt	r3, #:upper16:timer_backup
  67 0038 1A73     		strb	r2, [r3, #12]
  50:.\Generated_Source\PSoC5/timer_PM.c ****             #if (timer_UsingHWCaptureCounter)
  51:.\Generated_Source\PSoC5/timer_PM.c ****                 timer_backup.TimerCaptureCounter = timer_ReadCaptureCount();
  52:.\Generated_Source\PSoC5/timer_PM.c ****             #endif /* Backup the UDB non-rentention register capture counter for CY_UDB_V0 */
  53:.\Generated_Source\PSoC5/timer_PM.c ****         #endif /* Backup the UDB non-rentention registers for CY_UDB_V0 */
  54:.\Generated_Source\PSoC5/timer_PM.c **** 
  55:.\Generated_Source\PSoC5/timer_PM.c ****         #if (CY_UDB_V1)
  56:.\Generated_Source\PSoC5/timer_PM.c ****             timer_backup.TimerUdb = timer_ReadCounter();
  57:.\Generated_Source\PSoC5/timer_PM.c ****             timer_backup.InterruptMaskValue = timer_STATUS_MASK;
  58:.\Generated_Source\PSoC5/timer_PM.c ****             #if (timer_UsingHWCaptureCounter)
  59:.\Generated_Source\PSoC5/timer_PM.c ****                 timer_backup.TimerCaptureCounter = timer_ReadCaptureCount();
  60:.\Generated_Source\PSoC5/timer_PM.c ****             #endif /* Back Up capture counter register  */
  61:.\Generated_Source\PSoC5/timer_PM.c ****         #endif /* Backup non retention registers, interrupt mask and capture counter for CY_UDB_V1 
  62:.\Generated_Source\PSoC5/timer_PM.c **** 
  63:.\Generated_Source\PSoC5/timer_PM.c ****         #if(!timer_ControlRegRemoved)
  64:.\Generated_Source\PSoC5/timer_PM.c ****             timer_backup.TimerControlRegister = timer_ReadControlRegister();
  68              		.loc 1 64 0
  69 003a FFF7FEFF 		bl	timer_ReadControlRegister
  70 003e 0346     		mov	r3, r0
  71 0040 1A46     		mov	r2, r3
  72 0042 40F20003 		movw	r3, #:lower16:timer_backup
  73 0046 C0F20003 		movt	r3, #:upper16:timer_backup
  74 004a 5A73     		strb	r2, [r3, #13]
  65:.\Generated_Source\PSoC5/timer_PM.c ****         #endif /* Backup the enable state of the Timer component */
  66:.\Generated_Source\PSoC5/timer_PM.c ****     #endif /* Backup non retention registers in UDB implementation. All fixed function registers ar
  67:.\Generated_Source\PSoC5/timer_PM.c **** }
  75              		.loc 1 67 0
  76 004c 80BD     		pop	{r7, pc}
  77              		.cfi_endproc
  78              	.LFE0:
  79              		.size	timer_SaveConfig, .-timer_SaveConfig
  80 004e 00BF     		.section	.text.timer_RestoreConfig,"ax",%progbits
  81              		.align	2
  82              		.global	timer_RestoreConfig
  83              		.thumb
  84              		.thumb_func
  85              		.type	timer_RestoreConfig, %function
  86              	timer_RestoreConfig:
  87              	.LFB1:
  68:.\Generated_Source\PSoC5/timer_PM.c **** 
  69:.\Generated_Source\PSoC5/timer_PM.c **** 
  70:.\Generated_Source\PSoC5/timer_PM.c **** /*******************************************************************************
  71:.\Generated_Source\PSoC5/timer_PM.c **** * Function Name: timer_RestoreConfig
  72:.\Generated_Source\PSoC5/timer_PM.c **** ********************************************************************************
  73:.\Generated_Source\PSoC5/timer_PM.c **** *
  74:.\Generated_Source\PSoC5/timer_PM.c **** * Summary:
  75:.\Generated_Source\PSoC5/timer_PM.c **** *  Restores the current user configuration.
  76:.\Generated_Source\PSoC5/timer_PM.c **** *
  77:.\Generated_Source\PSoC5/timer_PM.c **** * Parameters:
ARM GAS  C:\Users\karunmj\AppData\Local\Temp\ccej1uIc.s 			page 4


  78:.\Generated_Source\PSoC5/timer_PM.c **** *  void
  79:.\Generated_Source\PSoC5/timer_PM.c **** *
  80:.\Generated_Source\PSoC5/timer_PM.c **** * Return:
  81:.\Generated_Source\PSoC5/timer_PM.c **** *  void
  82:.\Generated_Source\PSoC5/timer_PM.c **** *
  83:.\Generated_Source\PSoC5/timer_PM.c **** * Global variables:
  84:.\Generated_Source\PSoC5/timer_PM.c **** *  timer_backup:  Variables of this global structure are used to
  85:.\Generated_Source\PSoC5/timer_PM.c **** *  restore the values of non retention registers on wakeup from sleep mode.
  86:.\Generated_Source\PSoC5/timer_PM.c **** *
  87:.\Generated_Source\PSoC5/timer_PM.c **** *******************************************************************************/
  88:.\Generated_Source\PSoC5/timer_PM.c **** void timer_RestoreConfig(void) 
  89:.\Generated_Source\PSoC5/timer_PM.c **** {   
  88              		.loc 1 89 0
  89              		.cfi_startproc
  90              		@ args = 0, pretend = 0, frame = 8
  91              		@ frame_needed = 1, uses_anonymous_args = 0
  92 0000 80B5     		push	{r7, lr}
  93              	.LCFI2:
  94              		.cfi_def_cfa_offset 8
  95 0002 82B0     		sub	sp, sp, #8
  96              	.LCFI3:
  97              		.cfi_def_cfa_offset 16
  98 0004 00AF     		add	r7, sp, #0
  99              		.cfi_offset 14, -4
 100              		.cfi_offset 7, -8
 101              	.LCFI4:
 102              		.cfi_def_cfa_register 7
  90:.\Generated_Source\PSoC5/timer_PM.c ****     #if (!timer_UsingFixedFunction)
  91:.\Generated_Source\PSoC5/timer_PM.c ****         /* Restore the UDB non-rentention registers for CY_UDB_V0 */
  92:.\Generated_Source\PSoC5/timer_PM.c ****         #if (CY_UDB_V0)
  93:.\Generated_Source\PSoC5/timer_PM.c ****             /* Interrupt State Backup for Critical Region*/
  94:.\Generated_Source\PSoC5/timer_PM.c ****             uint8 timer_interruptState;
  95:.\Generated_Source\PSoC5/timer_PM.c **** 
  96:.\Generated_Source\PSoC5/timer_PM.c ****             timer_WriteCounter(timer_backup.TimerUdb);
 103              		.loc 1 96 0
 104 0006 40F20003 		movw	r3, #:lower16:timer_backup
 105 000a C0F20003 		movt	r3, #:upper16:timer_backup
 106 000e 5B68     		ldr	r3, [r3, #4]
 107 0010 1846     		mov	r0, r3
 108 0012 FFF7FEFF 		bl	timer_WriteCounter
  97:.\Generated_Source\PSoC5/timer_PM.c ****             timer_WritePeriod(timer_backup.TimerPeriod);
 109              		.loc 1 97 0
 110 0016 40F20003 		movw	r3, #:lower16:timer_backup
 111 001a C0F20003 		movt	r3, #:upper16:timer_backup
 112 001e 9B68     		ldr	r3, [r3, #8]
 113 0020 1846     		mov	r0, r3
 114 0022 FFF7FEFF 		bl	timer_WritePeriod
  98:.\Generated_Source\PSoC5/timer_PM.c ****             /* CyEnterCriticalRegion and CyExitCriticalRegion are used to mark following region cri
  99:.\Generated_Source\PSoC5/timer_PM.c ****             /* Enter Critical Region*/
 100:.\Generated_Source\PSoC5/timer_PM.c ****             timer_interruptState = CyEnterCriticalSection();
 115              		.loc 1 100 0
 116 0026 FFF7FEFF 		bl	CyEnterCriticalSection
 117 002a 0346     		mov	r3, r0
 118 002c FB71     		strb	r3, [r7, #7]
 101:.\Generated_Source\PSoC5/timer_PM.c ****             /* Use the interrupt output of the status register for IRQ output */
 102:.\Generated_Source\PSoC5/timer_PM.c ****             timer_STATUS_AUX_CTRL |= timer_STATUS_ACTL_INT_EN_MASK;
 119              		.loc 1 102 0
ARM GAS  C:\Users\karunmj\AppData\Local\Temp\ccej1uIc.s 			page 5


 120 002e 46F29753 		movw	r3, #:lower16:1073767831
 121 0032 C4F20003 		movt	r3, #:upper16:1073767831
 122 0036 46F29752 		movw	r2, #:lower16:1073767831
 123 003a C4F20002 		movt	r2, #:upper16:1073767831
 124 003e 1278     		ldrb	r2, [r2, #0]
 125 0040 D2B2     		uxtb	r2, r2
 126 0042 42F01002 		orr	r2, r2, #16
 127 0046 D2B2     		uxtb	r2, r2
 128 0048 1A70     		strb	r2, [r3, #0]
 103:.\Generated_Source\PSoC5/timer_PM.c ****             /* Exit Critical Region*/
 104:.\Generated_Source\PSoC5/timer_PM.c ****             CyExitCriticalSection(timer_interruptState);
 129              		.loc 1 104 0
 130 004a FB79     		ldrb	r3, [r7, #7]	@ zero_extendqisi2
 131 004c 1846     		mov	r0, r3
 132 004e FFF7FEFF 		bl	CyExitCriticalSection
 105:.\Generated_Source\PSoC5/timer_PM.c ****             timer_STATUS_MASK =timer_backup.InterruptMaskValue;
 133              		.loc 1 105 0
 134 0052 46F28753 		movw	r3, #:lower16:1073767815
 135 0056 C4F20003 		movt	r3, #:upper16:1073767815
 136 005a 40F20002 		movw	r2, #:lower16:timer_backup
 137 005e C0F20002 		movt	r2, #:upper16:timer_backup
 138 0062 127B     		ldrb	r2, [r2, #12]	@ zero_extendqisi2
 139 0064 1A70     		strb	r2, [r3, #0]
 106:.\Generated_Source\PSoC5/timer_PM.c ****             #if (timer_UsingHWCaptureCounter)
 107:.\Generated_Source\PSoC5/timer_PM.c ****                 timer_SetCaptureCount(timer_backup.TimerCaptureCounter);
 108:.\Generated_Source\PSoC5/timer_PM.c ****             #endif /* Restore the UDB non-rentention register capture counter for CY_UDB_V0 */
 109:.\Generated_Source\PSoC5/timer_PM.c ****         #endif /* Restore the UDB non-rentention registers for CY_UDB_V0 */
 110:.\Generated_Source\PSoC5/timer_PM.c **** 
 111:.\Generated_Source\PSoC5/timer_PM.c ****         #if (CY_UDB_V1)
 112:.\Generated_Source\PSoC5/timer_PM.c ****             timer_WriteCounter(timer_backup.TimerUdb);
 113:.\Generated_Source\PSoC5/timer_PM.c ****             timer_STATUS_MASK =timer_backup.InterruptMaskValue;
 114:.\Generated_Source\PSoC5/timer_PM.c ****             #if (timer_UsingHWCaptureCounter)
 115:.\Generated_Source\PSoC5/timer_PM.c ****                 timer_SetCaptureCount(timer_backup.TimerCaptureCounter);
 116:.\Generated_Source\PSoC5/timer_PM.c ****             #endif /* Restore Capture counter register*/
 117:.\Generated_Source\PSoC5/timer_PM.c ****         #endif /* Restore up non retention registers, interrupt mask and capture counter for CY_UDB
 118:.\Generated_Source\PSoC5/timer_PM.c **** 
 119:.\Generated_Source\PSoC5/timer_PM.c ****         #if(!timer_ControlRegRemoved)
 120:.\Generated_Source\PSoC5/timer_PM.c ****             timer_WriteControlRegister(timer_backup.TimerControlRegister);
 140              		.loc 1 120 0
 141 0066 40F20003 		movw	r3, #:lower16:timer_backup
 142 006a C0F20003 		movt	r3, #:upper16:timer_backup
 143 006e 5B7B     		ldrb	r3, [r3, #13]	@ zero_extendqisi2
 144 0070 1846     		mov	r0, r3
 145 0072 FFF7FEFF 		bl	timer_WriteControlRegister
 121:.\Generated_Source\PSoC5/timer_PM.c ****         #endif /* Restore the enable state of the Timer component */
 122:.\Generated_Source\PSoC5/timer_PM.c ****     #endif /* Restore non retention registers in the UDB implementation only */
 123:.\Generated_Source\PSoC5/timer_PM.c **** }
 146              		.loc 1 123 0
 147 0076 07F10807 		add	r7, r7, #8
 148 007a BD46     		mov	sp, r7
 149 007c 80BD     		pop	{r7, pc}
 150              		.cfi_endproc
 151              	.LFE1:
 152              		.size	timer_RestoreConfig, .-timer_RestoreConfig
 153 007e 00BF     		.section	.text.timer_Sleep,"ax",%progbits
 154              		.align	2
 155              		.global	timer_Sleep
ARM GAS  C:\Users\karunmj\AppData\Local\Temp\ccej1uIc.s 			page 6


 156              		.thumb
 157              		.thumb_func
 158              		.type	timer_Sleep, %function
 159              	timer_Sleep:
 160              	.LFB2:
 124:.\Generated_Source\PSoC5/timer_PM.c **** 
 125:.\Generated_Source\PSoC5/timer_PM.c **** 
 126:.\Generated_Source\PSoC5/timer_PM.c **** /*******************************************************************************
 127:.\Generated_Source\PSoC5/timer_PM.c **** * Function Name: timer_Sleep
 128:.\Generated_Source\PSoC5/timer_PM.c **** ********************************************************************************
 129:.\Generated_Source\PSoC5/timer_PM.c **** *
 130:.\Generated_Source\PSoC5/timer_PM.c **** * Summary:
 131:.\Generated_Source\PSoC5/timer_PM.c **** *     Stop and Save the user configuration
 132:.\Generated_Source\PSoC5/timer_PM.c **** *
 133:.\Generated_Source\PSoC5/timer_PM.c **** * Parameters:
 134:.\Generated_Source\PSoC5/timer_PM.c **** *  void
 135:.\Generated_Source\PSoC5/timer_PM.c **** *
 136:.\Generated_Source\PSoC5/timer_PM.c **** * Return:
 137:.\Generated_Source\PSoC5/timer_PM.c **** *  void
 138:.\Generated_Source\PSoC5/timer_PM.c **** *
 139:.\Generated_Source\PSoC5/timer_PM.c **** * Global variables:
 140:.\Generated_Source\PSoC5/timer_PM.c **** *  timer_backup.TimerEnableState:  Is modified depending on the
 141:.\Generated_Source\PSoC5/timer_PM.c **** *  enable state of the block before entering sleep mode.
 142:.\Generated_Source\PSoC5/timer_PM.c **** *
 143:.\Generated_Source\PSoC5/timer_PM.c **** *******************************************************************************/
 144:.\Generated_Source\PSoC5/timer_PM.c **** void timer_Sleep(void) 
 145:.\Generated_Source\PSoC5/timer_PM.c **** {
 161              		.loc 1 145 0
 162              		.cfi_startproc
 163              		@ args = 0, pretend = 0, frame = 0
 164              		@ frame_needed = 1, uses_anonymous_args = 0
 165 0000 80B5     		push	{r7, lr}
 166              	.LCFI5:
 167              		.cfi_def_cfa_offset 8
 168 0002 00AF     		add	r7, sp, #0
 169              		.cfi_offset 14, -4
 170              		.cfi_offset 7, -8
 171              	.LCFI6:
 172              		.cfi_def_cfa_register 7
 146:.\Generated_Source\PSoC5/timer_PM.c ****     #if(!timer_ControlRegRemoved)
 147:.\Generated_Source\PSoC5/timer_PM.c ****         /* Save Counter's enable state */
 148:.\Generated_Source\PSoC5/timer_PM.c ****         if(timer_CTRL_ENABLE == (timer_CONTROL & timer_CTRL_ENABLE))
 173              		.loc 1 148 0
 174 0004 46F27453 		movw	r3, #:lower16:1073767796
 175 0008 C4F20003 		movt	r3, #:upper16:1073767796
 176 000c 1B78     		ldrb	r3, [r3, #0]
 177 000e DBB2     		uxtb	r3, r3
 178 0010 5BB2     		sxtb	r3, r3
 179 0012 002B     		cmp	r3, #0
 180 0014 07DA     		bge	.L6
 149:.\Generated_Source\PSoC5/timer_PM.c ****         {
 150:.\Generated_Source\PSoC5/timer_PM.c ****             /* Timer is enabled */
 151:.\Generated_Source\PSoC5/timer_PM.c ****             timer_backup.TimerEnableState = 1u;
 181              		.loc 1 151 0
 182 0016 40F20003 		movw	r3, #:lower16:timer_backup
 183 001a C0F20003 		movt	r3, #:upper16:timer_backup
 184 001e 4FF00102 		mov	r2, #1
ARM GAS  C:\Users\karunmj\AppData\Local\Temp\ccej1uIc.s 			page 7


 185 0022 1A70     		strb	r2, [r3, #0]
 186 0024 06E0     		b	.L7
 187              	.L6:
 152:.\Generated_Source\PSoC5/timer_PM.c ****         }
 153:.\Generated_Source\PSoC5/timer_PM.c ****         else
 154:.\Generated_Source\PSoC5/timer_PM.c ****         {
 155:.\Generated_Source\PSoC5/timer_PM.c ****             /* Timer is disabled */
 156:.\Generated_Source\PSoC5/timer_PM.c ****             timer_backup.TimerEnableState = 0u;
 188              		.loc 1 156 0
 189 0026 40F20003 		movw	r3, #:lower16:timer_backup
 190 002a C0F20003 		movt	r3, #:upper16:timer_backup
 191 002e 4FF00002 		mov	r2, #0
 192 0032 1A70     		strb	r2, [r3, #0]
 193              	.L7:
 157:.\Generated_Source\PSoC5/timer_PM.c ****         }
 158:.\Generated_Source\PSoC5/timer_PM.c ****     #endif /* Back up enable state from the Timer control register */
 159:.\Generated_Source\PSoC5/timer_PM.c ****     timer_Stop();
 194              		.loc 1 159 0
 195 0034 FFF7FEFF 		bl	timer_Stop
 160:.\Generated_Source\PSoC5/timer_PM.c ****     timer_SaveConfig();
 196              		.loc 1 160 0
 197 0038 FFF7FEFF 		bl	timer_SaveConfig
 161:.\Generated_Source\PSoC5/timer_PM.c **** }
 198              		.loc 1 161 0
 199 003c 80BD     		pop	{r7, pc}
 200              		.cfi_endproc
 201              	.LFE2:
 202              		.size	timer_Sleep, .-timer_Sleep
 203 003e 00BF     		.section	.text.timer_Wakeup,"ax",%progbits
 204              		.align	2
 205              		.global	timer_Wakeup
 206              		.thumb
 207              		.thumb_func
 208              		.type	timer_Wakeup, %function
 209              	timer_Wakeup:
 210              	.LFB3:
 162:.\Generated_Source\PSoC5/timer_PM.c **** 
 163:.\Generated_Source\PSoC5/timer_PM.c **** 
 164:.\Generated_Source\PSoC5/timer_PM.c **** /*******************************************************************************
 165:.\Generated_Source\PSoC5/timer_PM.c **** * Function Name: timer_Wakeup
 166:.\Generated_Source\PSoC5/timer_PM.c **** ********************************************************************************
 167:.\Generated_Source\PSoC5/timer_PM.c **** *
 168:.\Generated_Source\PSoC5/timer_PM.c **** * Summary:
 169:.\Generated_Source\PSoC5/timer_PM.c **** *  Restores and enables the user configuration
 170:.\Generated_Source\PSoC5/timer_PM.c **** *
 171:.\Generated_Source\PSoC5/timer_PM.c **** * Parameters:
 172:.\Generated_Source\PSoC5/timer_PM.c **** *  void
 173:.\Generated_Source\PSoC5/timer_PM.c **** *
 174:.\Generated_Source\PSoC5/timer_PM.c **** * Return:
 175:.\Generated_Source\PSoC5/timer_PM.c **** *  void
 176:.\Generated_Source\PSoC5/timer_PM.c **** *
 177:.\Generated_Source\PSoC5/timer_PM.c **** * Global variables:
 178:.\Generated_Source\PSoC5/timer_PM.c **** *  timer_backup.enableState:  Is used to restore the enable state of
 179:.\Generated_Source\PSoC5/timer_PM.c **** *  block on wakeup from sleep mode.
 180:.\Generated_Source\PSoC5/timer_PM.c **** *
 181:.\Generated_Source\PSoC5/timer_PM.c **** *******************************************************************************/
 182:.\Generated_Source\PSoC5/timer_PM.c **** void timer_Wakeup(void) 
ARM GAS  C:\Users\karunmj\AppData\Local\Temp\ccej1uIc.s 			page 8


 183:.\Generated_Source\PSoC5/timer_PM.c **** {
 211              		.loc 1 183 0
 212              		.cfi_startproc
 213              		@ args = 0, pretend = 0, frame = 0
 214              		@ frame_needed = 1, uses_anonymous_args = 0
 215 0000 80B5     		push	{r7, lr}
 216              	.LCFI7:
 217              		.cfi_def_cfa_offset 8
 218 0002 00AF     		add	r7, sp, #0
 219              		.cfi_offset 14, -4
 220              		.cfi_offset 7, -8
 221              	.LCFI8:
 222              		.cfi_def_cfa_register 7
 184:.\Generated_Source\PSoC5/timer_PM.c ****     timer_RestoreConfig();
 223              		.loc 1 184 0
 224 0004 FFF7FEFF 		bl	timer_RestoreConfig
 185:.\Generated_Source\PSoC5/timer_PM.c ****     #if(!timer_ControlRegRemoved)
 186:.\Generated_Source\PSoC5/timer_PM.c ****         if(timer_backup.TimerEnableState == 1u)
 225              		.loc 1 186 0
 226 0008 40F20003 		movw	r3, #:lower16:timer_backup
 227 000c C0F20003 		movt	r3, #:upper16:timer_backup
 228 0010 1B78     		ldrb	r3, [r3, #0]	@ zero_extendqisi2
 229 0012 012B     		cmp	r3, #1
 230 0014 01D1     		bne	.L11
 187:.\Generated_Source\PSoC5/timer_PM.c ****         {     /* Enable Timer's operation */
 188:.\Generated_Source\PSoC5/timer_PM.c ****                 timer_Enable();
 231              		.loc 1 188 0
 232 0016 FFF7FEFF 		bl	timer_Enable
 233              	.L11:
 189:.\Generated_Source\PSoC5/timer_PM.c ****         } /* Do nothing if Timer was disabled before */
 190:.\Generated_Source\PSoC5/timer_PM.c ****     #endif /* Remove this code section if Control register is removed */
 191:.\Generated_Source\PSoC5/timer_PM.c **** }
 234              		.loc 1 191 0
 235 001a 80BD     		pop	{r7, pc}
 236              		.cfi_endproc
 237              	.LFE3:
 238              		.size	timer_Wakeup, .-timer_Wakeup
 239              		.text
 240              	.Letext0: