ARM GAS  C:\Users\karunmj\AppData\Local\Temp\ccOxugR9.s 			page 1


   1              		.syntax unified
   2              		.cpu cortex-m3
   3              		.fpu softvfp
   4              		.eabi_attribute 20, 1
   5              		.eabi_attribute 21, 1
   6              		.eabi_attribute 23, 3
   7              		.eabi_attribute 24, 1
   8              		.eabi_attribute 25, 1
   9              		.eabi_attribute 26, 1
  10              		.eabi_attribute 30, 6
  11              		.eabi_attribute 18, 4
  12              		.thumb
  13              		.file	"uart_solinst.c"
  20 0000 BE020000 		.text
  20      02006500 
  20      00000201 
  20      FB0E0D00 
  20      01010101 
  21              	.Ltext0:
  22              		.cfi_sections	.debug_frame
  23              		.global	uart_solinst_initVar
  24              		.bss
  25              		.type	uart_solinst_initVar, %object
  26              		.size	uart_solinst_initVar, 1
  27              	uart_solinst_initVar:
  28 0000 00       		.space	1
  29              		.section	.text.uart_solinst_Start,"ax",%progbits
  30              		.align	2
  31              		.global	uart_solinst_Start
  32              		.thumb
  33              		.thumb_func
  34              		.type	uart_solinst_Start, %function
  35              	uart_solinst_Start:
  36              	.LFB0:
  37              		.file 1 ".\\Generated_Source\\PSoC5\\uart_solinst.c"
   1:.\Generated_Source\PSoC5/uart_solinst.c **** /*******************************************************************************
   2:.\Generated_Source\PSoC5/uart_solinst.c **** * File Name: uart_solinst.c
   3:.\Generated_Source\PSoC5/uart_solinst.c **** * Version 2.30
   4:.\Generated_Source\PSoC5/uart_solinst.c **** *
   5:.\Generated_Source\PSoC5/uart_solinst.c **** * Description:
   6:.\Generated_Source\PSoC5/uart_solinst.c **** *  This file provides all API functionality of the UART component
   7:.\Generated_Source\PSoC5/uart_solinst.c **** *
   8:.\Generated_Source\PSoC5/uart_solinst.c **** * Note:
   9:.\Generated_Source\PSoC5/uart_solinst.c **** *
  10:.\Generated_Source\PSoC5/uart_solinst.c **** ********************************************************************************
  11:.\Generated_Source\PSoC5/uart_solinst.c **** * Copyright 2008-2012, Cypress Semiconductor Corporation.  All rights reserved.
  12:.\Generated_Source\PSoC5/uart_solinst.c **** * You may use this file only in accordance with the license, terms, conditions,
  13:.\Generated_Source\PSoC5/uart_solinst.c **** * disclaimers, and limitations in the end user license agreement accompanying
  14:.\Generated_Source\PSoC5/uart_solinst.c **** * the software package with which this file was provided.
  15:.\Generated_Source\PSoC5/uart_solinst.c **** *******************************************************************************/
  16:.\Generated_Source\PSoC5/uart_solinst.c **** 
ARM GAS  C:\Users\karunmj\AppData\Local\Temp\ccOxugR9.s 			page 2


  17:.\Generated_Source\PSoC5/uart_solinst.c **** #include "uart_solinst.h"
  18:.\Generated_Source\PSoC5/uart_solinst.c **** #include "CyLib.h"
  19:.\Generated_Source\PSoC5/uart_solinst.c **** #if(uart_solinst_INTERNAL_CLOCK_USED)
  20:.\Generated_Source\PSoC5/uart_solinst.c ****     #include "uart_solinst_IntClock.h"
  21:.\Generated_Source\PSoC5/uart_solinst.c **** #endif /* End uart_solinst_INTERNAL_CLOCK_USED */
  22:.\Generated_Source\PSoC5/uart_solinst.c **** 
  23:.\Generated_Source\PSoC5/uart_solinst.c **** 
  24:.\Generated_Source\PSoC5/uart_solinst.c **** /***************************************
  25:.\Generated_Source\PSoC5/uart_solinst.c **** * Global data allocation
  26:.\Generated_Source\PSoC5/uart_solinst.c **** ***************************************/
  27:.\Generated_Source\PSoC5/uart_solinst.c **** 
  28:.\Generated_Source\PSoC5/uart_solinst.c **** uint8 uart_solinst_initVar = 0u;
  29:.\Generated_Source\PSoC5/uart_solinst.c **** #if( uart_solinst_TX_ENABLED && (uart_solinst_TXBUFFERSIZE > uart_solinst_FIFO_LENGTH))
  30:.\Generated_Source\PSoC5/uart_solinst.c ****     volatile uint8 uart_solinst_txBuffer[uart_solinst_TXBUFFERSIZE];
  31:.\Generated_Source\PSoC5/uart_solinst.c ****     volatile uint8 uart_solinst_txBufferRead = 0u;
  32:.\Generated_Source\PSoC5/uart_solinst.c ****     uint8 uart_solinst_txBufferWrite = 0u;
  33:.\Generated_Source\PSoC5/uart_solinst.c **** #endif /* End uart_solinst_TX_ENABLED */
  34:.\Generated_Source\PSoC5/uart_solinst.c **** #if( ( uart_solinst_RX_ENABLED || uart_solinst_HD_ENABLED ) && \
  35:.\Generated_Source\PSoC5/uart_solinst.c ****      (uart_solinst_RXBUFFERSIZE > uart_solinst_FIFO_LENGTH) )
  36:.\Generated_Source\PSoC5/uart_solinst.c ****     volatile uint8 uart_solinst_rxBuffer[uart_solinst_RXBUFFERSIZE];
  37:.\Generated_Source\PSoC5/uart_solinst.c ****     volatile uint8 uart_solinst_rxBufferRead = 0u;
  38:.\Generated_Source\PSoC5/uart_solinst.c ****     volatile uint8 uart_solinst_rxBufferWrite = 0u;
  39:.\Generated_Source\PSoC5/uart_solinst.c ****     volatile uint8 uart_solinst_rxBufferLoopDetect = 0u;
  40:.\Generated_Source\PSoC5/uart_solinst.c ****     volatile uint8 uart_solinst_rxBufferOverflow = 0u;
  41:.\Generated_Source\PSoC5/uart_solinst.c ****     #if (uart_solinst_RXHW_ADDRESS_ENABLED)
  42:.\Generated_Source\PSoC5/uart_solinst.c ****         volatile uint8 uart_solinst_rxAddressMode = uart_solinst_RXADDRESSMODE;
  43:.\Generated_Source\PSoC5/uart_solinst.c ****         volatile uint8 uart_solinst_rxAddressDetected = 0u;
  44:.\Generated_Source\PSoC5/uart_solinst.c ****     #endif /* End EnableHWAddress */
  45:.\Generated_Source\PSoC5/uart_solinst.c **** #endif /* End uart_solinst_RX_ENABLED */
  46:.\Generated_Source\PSoC5/uart_solinst.c **** 
  47:.\Generated_Source\PSoC5/uart_solinst.c **** 
  48:.\Generated_Source\PSoC5/uart_solinst.c **** /*******************************************************************************
  49:.\Generated_Source\PSoC5/uart_solinst.c **** * Function Name: uart_solinst_Start
  50:.\Generated_Source\PSoC5/uart_solinst.c **** ********************************************************************************
  51:.\Generated_Source\PSoC5/uart_solinst.c **** *
  52:.\Generated_Source\PSoC5/uart_solinst.c **** * Summary:
  53:.\Generated_Source\PSoC5/uart_solinst.c **** *  Initialize and Enable the UART component.
  54:.\Generated_Source\PSoC5/uart_solinst.c **** *  Enable the clock input to enable operation.
  55:.\Generated_Source\PSoC5/uart_solinst.c **** *
  56:.\Generated_Source\PSoC5/uart_solinst.c **** * Parameters:
  57:.\Generated_Source\PSoC5/uart_solinst.c **** *  None.
  58:.\Generated_Source\PSoC5/uart_solinst.c **** *
  59:.\Generated_Source\PSoC5/uart_solinst.c **** * Return:
  60:.\Generated_Source\PSoC5/uart_solinst.c **** *  None.
  61:.\Generated_Source\PSoC5/uart_solinst.c **** *
  62:.\Generated_Source\PSoC5/uart_solinst.c **** * Global variables:
  63:.\Generated_Source\PSoC5/uart_solinst.c **** *  The uart_solinst_intiVar variable is used to indicate initial
  64:.\Generated_Source\PSoC5/uart_solinst.c **** *  configuration of this component. The variable is initialized to zero (0u)
  65:.\Generated_Source\PSoC5/uart_solinst.c **** *  and set to one (1u) the first time UART_Start() is called. This allows for
  66:.\Generated_Source\PSoC5/uart_solinst.c **** *  component initialization without re-initialization in all subsequent calls
  67:.\Generated_Source\PSoC5/uart_solinst.c **** *  to the uart_solinst_Start() routine.
  68:.\Generated_Source\PSoC5/uart_solinst.c **** *
  69:.\Generated_Source\PSoC5/uart_solinst.c **** * Reentrant:
  70:.\Generated_Source\PSoC5/uart_solinst.c **** *  No.
  71:.\Generated_Source\PSoC5/uart_solinst.c **** *
  72:.\Generated_Source\PSoC5/uart_solinst.c **** *******************************************************************************/
  73:.\Generated_Source\PSoC5/uart_solinst.c **** void uart_solinst_Start(void) 
ARM GAS  C:\Users\karunmj\AppData\Local\Temp\ccOxugR9.s 			page 3


  74:.\Generated_Source\PSoC5/uart_solinst.c **** {
  38              		.loc 1 74 0
  39              		.cfi_startproc
  40              		@ args = 0, pretend = 0, frame = 0
  41              		@ frame_needed = 1, uses_anonymous_args = 0
  42 0000 80B5     		push	{r7, lr}
  43              	.LCFI0:
  44              		.cfi_def_cfa_offset 8
  45 0002 00AF     		add	r7, sp, #0
  46              		.cfi_offset 14, -4
  47              		.cfi_offset 7, -8
  48              	.LCFI1:
  49              		.cfi_def_cfa_register 7
  75:.\Generated_Source\PSoC5/uart_solinst.c ****     /* If not Initialized then initialize all required hardware and software */
  76:.\Generated_Source\PSoC5/uart_solinst.c ****     if(uart_solinst_initVar == 0u)
  50              		.loc 1 76 0
  51 0004 40F20003 		movw	r3, #:lower16:uart_solinst_initVar
  52 0008 C0F20003 		movt	r3, #:upper16:uart_solinst_initVar
  53 000c 1B78     		ldrb	r3, [r3, #0]	@ zero_extendqisi2
  54 000e 002B     		cmp	r3, #0
  55 0010 08D1     		bne	.L2
  77:.\Generated_Source\PSoC5/uart_solinst.c ****     {
  78:.\Generated_Source\PSoC5/uart_solinst.c ****         uart_solinst_Init();
  56              		.loc 1 78 0
  57 0012 FFF7FEFF 		bl	uart_solinst_Init
  79:.\Generated_Source\PSoC5/uart_solinst.c ****         uart_solinst_initVar = 1u;
  58              		.loc 1 79 0
  59 0016 40F20003 		movw	r3, #:lower16:uart_solinst_initVar
  60 001a C0F20003 		movt	r3, #:upper16:uart_solinst_initVar
  61 001e 4FF00102 		mov	r2, #1
  62 0022 1A70     		strb	r2, [r3, #0]
  63              	.L2:
  80:.\Generated_Source\PSoC5/uart_solinst.c ****     }
  81:.\Generated_Source\PSoC5/uart_solinst.c ****     uart_solinst_Enable();
  64              		.loc 1 81 0
  65 0024 FFF7FEFF 		bl	uart_solinst_Enable
  82:.\Generated_Source\PSoC5/uart_solinst.c **** }
  66              		.loc 1 82 0
  67 0028 80BD     		pop	{r7, pc}
  68              		.cfi_endproc
  69              	.LFE0:
  70              		.size	uart_solinst_Start, .-uart_solinst_Start
  71 002a 00BF     		.section	.text.uart_solinst_Init,"ax",%progbits
  72              		.align	2
  73              		.global	uart_solinst_Init
  74              		.thumb
  75              		.thumb_func
  76              		.type	uart_solinst_Init, %function
  77              	uart_solinst_Init:
  78              	.LFB1:
  83:.\Generated_Source\PSoC5/uart_solinst.c **** 
  84:.\Generated_Source\PSoC5/uart_solinst.c **** 
  85:.\Generated_Source\PSoC5/uart_solinst.c **** /*******************************************************************************
  86:.\Generated_Source\PSoC5/uart_solinst.c **** * Function Name: uart_solinst_Init
  87:.\Generated_Source\PSoC5/uart_solinst.c **** ********************************************************************************
  88:.\Generated_Source\PSoC5/uart_solinst.c **** *
  89:.\Generated_Source\PSoC5/uart_solinst.c **** * Summary:
ARM GAS  C:\Users\karunmj\AppData\Local\Temp\ccOxugR9.s 			page 4


  90:.\Generated_Source\PSoC5/uart_solinst.c **** *  Initialize component's parameters to the parameters set by user in the
  91:.\Generated_Source\PSoC5/uart_solinst.c **** *  customizer of the component placed onto schematic. Usually called in
  92:.\Generated_Source\PSoC5/uart_solinst.c **** *  uart_solinst_Start().
  93:.\Generated_Source\PSoC5/uart_solinst.c **** *
  94:.\Generated_Source\PSoC5/uart_solinst.c **** * Parameters:
  95:.\Generated_Source\PSoC5/uart_solinst.c **** *  None.
  96:.\Generated_Source\PSoC5/uart_solinst.c **** *
  97:.\Generated_Source\PSoC5/uart_solinst.c **** * Return:
  98:.\Generated_Source\PSoC5/uart_solinst.c **** *  None.
  99:.\Generated_Source\PSoC5/uart_solinst.c **** *
 100:.\Generated_Source\PSoC5/uart_solinst.c **** *******************************************************************************/
 101:.\Generated_Source\PSoC5/uart_solinst.c **** void uart_solinst_Init(void) 
 102:.\Generated_Source\PSoC5/uart_solinst.c **** {
  79              		.loc 1 102 0
  80              		.cfi_startproc
  81              		@ args = 0, pretend = 0, frame = 0
  82              		@ frame_needed = 1, uses_anonymous_args = 0
  83 0000 80B5     		push	{r7, lr}
  84              	.LCFI2:
  85              		.cfi_def_cfa_offset 8
  86 0002 00AF     		add	r7, sp, #0
  87              		.cfi_offset 14, -4
  88              		.cfi_offset 7, -8
  89              	.LCFI3:
  90              		.cfi_def_cfa_register 7
 103:.\Generated_Source\PSoC5/uart_solinst.c ****     #if(uart_solinst_RX_ENABLED || uart_solinst_HD_ENABLED)
 104:.\Generated_Source\PSoC5/uart_solinst.c **** 
 105:.\Generated_Source\PSoC5/uart_solinst.c ****         #if(uart_solinst_RX_INTERRUPT_ENABLED && (uart_solinst_RXBUFFERSIZE > uart_solinst_FIFO_LEN
 106:.\Generated_Source\PSoC5/uart_solinst.c ****             /* Set the RX Interrupt. */
 107:.\Generated_Source\PSoC5/uart_solinst.c ****             (void)CyIntSetVector(uart_solinst_RX_VECT_NUM, &uart_solinst_RXISR);
 108:.\Generated_Source\PSoC5/uart_solinst.c ****             CyIntSetPriority(uart_solinst_RX_VECT_NUM, uart_solinst_RX_PRIOR_NUM);
 109:.\Generated_Source\PSoC5/uart_solinst.c ****         #endif /* End uart_solinst_RX_INTERRUPT_ENABLED */
 110:.\Generated_Source\PSoC5/uart_solinst.c **** 
 111:.\Generated_Source\PSoC5/uart_solinst.c ****         #if (uart_solinst_RXHW_ADDRESS_ENABLED)
 112:.\Generated_Source\PSoC5/uart_solinst.c ****             uart_solinst_SetRxAddressMode(uart_solinst_RXAddressMode);
  91              		.loc 1 112 0
  92 0004 4FF00300 		mov	r0, #3
  93 0008 FFF7FEFF 		bl	uart_solinst_SetRxAddressMode
 113:.\Generated_Source\PSoC5/uart_solinst.c ****             uart_solinst_SetRxAddress1(uart_solinst_RXHWADDRESS1);
  94              		.loc 1 113 0
  95 000c 4FF0FF00 		mov	r0, #255
  96 0010 FFF7FEFF 		bl	uart_solinst_SetRxAddress1
 114:.\Generated_Source\PSoC5/uart_solinst.c ****             uart_solinst_SetRxAddress2(uart_solinst_RXHWADDRESS2);
  97              		.loc 1 114 0
  98 0014 4FF00000 		mov	r0, #0
  99 0018 FFF7FEFF 		bl	uart_solinst_SetRxAddress2
 115:.\Generated_Source\PSoC5/uart_solinst.c ****         #endif /* End uart_solinst_RXHW_ADDRESS_ENABLED */
 116:.\Generated_Source\PSoC5/uart_solinst.c **** 
 117:.\Generated_Source\PSoC5/uart_solinst.c ****         /* Init Count7 period */
 118:.\Generated_Source\PSoC5/uart_solinst.c ****         uart_solinst_RXBITCTR_PERIOD_REG = uart_solinst_RXBITCTR_INIT;
 100              		.loc 1 118 0
 101 001c 46F28A53 		movw	r3, #:lower16:1073767818
 102 0020 C4F20003 		movt	r3, #:upper16:1073767818
 103 0024 4FF07202 		mov	r2, #114
 104 0028 1A70     		strb	r2, [r3, #0]
 119:.\Generated_Source\PSoC5/uart_solinst.c ****         /* Configure the Initial RX interrupt mask */
 120:.\Generated_Source\PSoC5/uart_solinst.c ****         uart_solinst_RXSTATUS_MASK_REG  = uart_solinst_INIT_RX_INTERRUPTS_MASK;
ARM GAS  C:\Users\karunmj\AppData\Local\Temp\ccOxugR9.s 			page 5


 105              		.loc 1 120 0
 106 002a 46F28D43 		movw	r3, #:lower16:1073767565
 107 002e C4F20003 		movt	r3, #:upper16:1073767565
 108 0032 4FF02002 		mov	r2, #32
 109 0036 1A70     		strb	r2, [r3, #0]
 121:.\Generated_Source\PSoC5/uart_solinst.c ****     #endif /* End uart_solinst_RX_ENABLED || uart_solinst_HD_ENABLED*/
 122:.\Generated_Source\PSoC5/uart_solinst.c **** 
 123:.\Generated_Source\PSoC5/uart_solinst.c ****     #if(uart_solinst_TX_ENABLED)
 124:.\Generated_Source\PSoC5/uart_solinst.c ****         #if(uart_solinst_TX_INTERRUPT_ENABLED && (uart_solinst_TXBUFFERSIZE > uart_solinst_FIFO_LEN
 125:.\Generated_Source\PSoC5/uart_solinst.c ****             /* Set the TX Interrupt. */
 126:.\Generated_Source\PSoC5/uart_solinst.c ****             (void)CyIntSetVector(uart_solinst_TX_VECT_NUM, &uart_solinst_TXISR);
 127:.\Generated_Source\PSoC5/uart_solinst.c ****             CyIntSetPriority(uart_solinst_TX_VECT_NUM, uart_solinst_TX_PRIOR_NUM);
 128:.\Generated_Source\PSoC5/uart_solinst.c ****         #endif /* End uart_solinst_TX_INTERRUPT_ENABLED */
 129:.\Generated_Source\PSoC5/uart_solinst.c **** 
 130:.\Generated_Source\PSoC5/uart_solinst.c ****         /* Write Counter Value for TX Bit Clk Generator*/
 131:.\Generated_Source\PSoC5/uart_solinst.c ****         #if(uart_solinst_TXCLKGEN_DP)
 132:.\Generated_Source\PSoC5/uart_solinst.c ****             uart_solinst_TXBITCLKGEN_CTR_REG = uart_solinst_BIT_CENTER;
 110              		.loc 1 132 0
 111 0038 46F22A53 		movw	r3, #:lower16:1073767722
 112 003c C4F20003 		movt	r3, #:upper16:1073767722
 113 0040 4FF00702 		mov	r2, #7
 114 0044 1A70     		strb	r2, [r3, #0]
 133:.\Generated_Source\PSoC5/uart_solinst.c ****             uart_solinst_TXBITCLKTX_COMPLETE_REG = (uart_solinst_NUMBER_OF_DATA_BITS +
 115              		.loc 1 133 0
 116 0046 46F23A53 		movw	r3, #:lower16:1073767738
 117 004a C4F20003 		movt	r3, #:upper16:1073767738
 118 004e 4FF04802 		mov	r2, #72
 119 0052 1A70     		strb	r2, [r3, #0]
 134:.\Generated_Source\PSoC5/uart_solinst.c ****                         uart_solinst_NUMBER_OF_START_BIT) * uart_solinst_OVER_SAMPLE_COUNT;
 135:.\Generated_Source\PSoC5/uart_solinst.c ****         #else
 136:.\Generated_Source\PSoC5/uart_solinst.c ****             uart_solinst_TXBITCTR_PERIOD_REG = ((uart_solinst_NUMBER_OF_DATA_BITS +
 137:.\Generated_Source\PSoC5/uart_solinst.c ****                         uart_solinst_NUMBER_OF_START_BIT) * uart_solinst_OVER_SAMPLE_8) - 1u;
 138:.\Generated_Source\PSoC5/uart_solinst.c ****         #endif /* End uart_solinst_TXCLKGEN_DP */
 139:.\Generated_Source\PSoC5/uart_solinst.c **** 
 140:.\Generated_Source\PSoC5/uart_solinst.c ****         /* Configure the Initial TX interrupt mask */
 141:.\Generated_Source\PSoC5/uart_solinst.c ****         #if(uart_solinst_TX_INTERRUPT_ENABLED && (uart_solinst_TXBUFFERSIZE > uart_solinst_FIFO_LEN
 142:.\Generated_Source\PSoC5/uart_solinst.c ****             uart_solinst_TXSTATUS_MASK_REG = uart_solinst_TX_STS_FIFO_EMPTY;
 143:.\Generated_Source\PSoC5/uart_solinst.c ****         #else
 144:.\Generated_Source\PSoC5/uart_solinst.c ****             uart_solinst_TXSTATUS_MASK_REG = uart_solinst_INIT_TX_INTERRUPTS_MASK;
 120              		.loc 1 144 0
 121 0054 46F28953 		movw	r3, #:lower16:1073767817
 122 0058 C4F20003 		movt	r3, #:upper16:1073767817
 123 005c 4FF00002 		mov	r2, #0
 124 0060 1A70     		strb	r2, [r3, #0]
 145:.\Generated_Source\PSoC5/uart_solinst.c ****         #endif /*End uart_solinst_TX_INTERRUPT_ENABLED*/
 146:.\Generated_Source\PSoC5/uart_solinst.c **** 
 147:.\Generated_Source\PSoC5/uart_solinst.c ****     #endif /* End uart_solinst_TX_ENABLED */
 148:.\Generated_Source\PSoC5/uart_solinst.c **** 
 149:.\Generated_Source\PSoC5/uart_solinst.c ****     #if(uart_solinst_PARITY_TYPE_SW)  /* Write Parity to Control Register */
 150:.\Generated_Source\PSoC5/uart_solinst.c ****         uart_solinst_WriteControlRegister( \
 151:.\Generated_Source\PSoC5/uart_solinst.c ****             (uart_solinst_ReadControlRegister() & (uint8)~uart_solinst_CTRL_PARITY_TYPE_MASK) | \
 152:.\Generated_Source\PSoC5/uart_solinst.c ****             (uint8)(uart_solinst_PARITY_TYPE << uart_solinst_CTRL_PARITY_TYPE0_SHIFT) );
 153:.\Generated_Source\PSoC5/uart_solinst.c ****     #endif /* End uart_solinst_PARITY_TYPE_SW */
 154:.\Generated_Source\PSoC5/uart_solinst.c **** }
 125              		.loc 1 154 0
 126 0062 80BD     		pop	{r7, pc}
 127              		.cfi_endproc
ARM GAS  C:\Users\karunmj\AppData\Local\Temp\ccOxugR9.s 			page 6


 128              	.LFE1:
 129              		.size	uart_solinst_Init, .-uart_solinst_Init
 130              		.section	.text.uart_solinst_Enable,"ax",%progbits
 131              		.align	2
 132              		.global	uart_solinst_Enable
 133              		.thumb
 134              		.thumb_func
 135              		.type	uart_solinst_Enable, %function
 136              	uart_solinst_Enable:
 137              	.LFB2:
 155:.\Generated_Source\PSoC5/uart_solinst.c **** 
 156:.\Generated_Source\PSoC5/uart_solinst.c **** 
 157:.\Generated_Source\PSoC5/uart_solinst.c **** /*******************************************************************************
 158:.\Generated_Source\PSoC5/uart_solinst.c **** * Function Name: uart_solinst_Enable
 159:.\Generated_Source\PSoC5/uart_solinst.c **** ********************************************************************************
 160:.\Generated_Source\PSoC5/uart_solinst.c **** *
 161:.\Generated_Source\PSoC5/uart_solinst.c **** * Summary:
 162:.\Generated_Source\PSoC5/uart_solinst.c **** *  Enables the UART block operation
 163:.\Generated_Source\PSoC5/uart_solinst.c **** *
 164:.\Generated_Source\PSoC5/uart_solinst.c **** * Parameters:
 165:.\Generated_Source\PSoC5/uart_solinst.c **** *  None.
 166:.\Generated_Source\PSoC5/uart_solinst.c **** *
 167:.\Generated_Source\PSoC5/uart_solinst.c **** * Return:
 168:.\Generated_Source\PSoC5/uart_solinst.c **** *  None.
 169:.\Generated_Source\PSoC5/uart_solinst.c **** *
 170:.\Generated_Source\PSoC5/uart_solinst.c **** * Global Variables:
 171:.\Generated_Source\PSoC5/uart_solinst.c **** *  uart_solinst_rxAddressDetected - set to initial state (0).
 172:.\Generated_Source\PSoC5/uart_solinst.c **** *
 173:.\Generated_Source\PSoC5/uart_solinst.c **** *******************************************************************************/
 174:.\Generated_Source\PSoC5/uart_solinst.c **** void uart_solinst_Enable(void) 
 175:.\Generated_Source\PSoC5/uart_solinst.c **** {
 138              		.loc 1 175 0
 139              		.cfi_startproc
 140              		@ args = 0, pretend = 0, frame = 8
 141              		@ frame_needed = 1, uses_anonymous_args = 0
 142 0000 80B5     		push	{r7, lr}
 143              	.LCFI4:
 144              		.cfi_def_cfa_offset 8
 145 0002 82B0     		sub	sp, sp, #8
 146              	.LCFI5:
 147              		.cfi_def_cfa_offset 16
 148 0004 00AF     		add	r7, sp, #0
 149              		.cfi_offset 14, -4
 150              		.cfi_offset 7, -8
 151              	.LCFI6:
 152              		.cfi_def_cfa_register 7
 176:.\Generated_Source\PSoC5/uart_solinst.c ****     uint8 enableInterrupts;
 177:.\Generated_Source\PSoC5/uart_solinst.c ****     enableInterrupts = CyEnterCriticalSection();
 153              		.loc 1 177 0
 154 0006 FFF7FEFF 		bl	CyEnterCriticalSection
 155 000a 0346     		mov	r3, r0
 156 000c FB71     		strb	r3, [r7, #7]
 178:.\Generated_Source\PSoC5/uart_solinst.c **** 
 179:.\Generated_Source\PSoC5/uart_solinst.c ****     #if(uart_solinst_RX_ENABLED || uart_solinst_HD_ENABLED)
 180:.\Generated_Source\PSoC5/uart_solinst.c ****         /*RX Counter (Count7) Enable */
 181:.\Generated_Source\PSoC5/uart_solinst.c ****         uart_solinst_RXBITCTR_CONTROL_REG |= uart_solinst_CNTR_ENABLE;
 157              		.loc 1 181 0
ARM GAS  C:\Users\karunmj\AppData\Local\Temp\ccOxugR9.s 			page 7


 158 000e 46F29A53 		movw	r3, #:lower16:1073767834
 159 0012 C4F20003 		movt	r3, #:upper16:1073767834
 160 0016 46F29A52 		movw	r2, #:lower16:1073767834
 161 001a C4F20002 		movt	r2, #:upper16:1073767834
 162 001e 1278     		ldrb	r2, [r2, #0]
 163 0020 D2B2     		uxtb	r2, r2
 164 0022 42F02002 		orr	r2, r2, #32
 165 0026 D2B2     		uxtb	r2, r2
 166 0028 1A70     		strb	r2, [r3, #0]
 182:.\Generated_Source\PSoC5/uart_solinst.c ****         /* Enable the RX Interrupt. */
 183:.\Generated_Source\PSoC5/uart_solinst.c ****         uart_solinst_RXSTATUS_ACTL_REG  |= uart_solinst_INT_ENABLE;
 167              		.loc 1 183 0
 168 002a 46F29D43 		movw	r3, #:lower16:1073767581
 169 002e C4F20003 		movt	r3, #:upper16:1073767581
 170 0032 46F29D42 		movw	r2, #:lower16:1073767581
 171 0036 C4F20002 		movt	r2, #:upper16:1073767581
 172 003a 1278     		ldrb	r2, [r2, #0]
 173 003c D2B2     		uxtb	r2, r2
 174 003e 42F01002 		orr	r2, r2, #16
 175 0042 D2B2     		uxtb	r2, r2
 176 0044 1A70     		strb	r2, [r3, #0]
 184:.\Generated_Source\PSoC5/uart_solinst.c ****         #if(uart_solinst_RX_INTERRUPT_ENABLED && (uart_solinst_RXBUFFERSIZE > uart_solinst_FIFO_LEN
 185:.\Generated_Source\PSoC5/uart_solinst.c ****             CyIntEnable(uart_solinst_RX_VECT_NUM);
 186:.\Generated_Source\PSoC5/uart_solinst.c ****             #if (uart_solinst_RXHW_ADDRESS_ENABLED)
 187:.\Generated_Source\PSoC5/uart_solinst.c ****                 uart_solinst_rxAddressDetected = 0u;
 188:.\Generated_Source\PSoC5/uart_solinst.c ****             #endif /* End uart_solinst_RXHW_ADDRESS_ENABLED */
 189:.\Generated_Source\PSoC5/uart_solinst.c ****         #endif /* End uart_solinst_RX_INTERRUPT_ENABLED */
 190:.\Generated_Source\PSoC5/uart_solinst.c ****     #endif /* End uart_solinst_RX_ENABLED || uart_solinst_HD_ENABLED*/
 191:.\Generated_Source\PSoC5/uart_solinst.c **** 
 192:.\Generated_Source\PSoC5/uart_solinst.c ****     #if(uart_solinst_TX_ENABLED)
 193:.\Generated_Source\PSoC5/uart_solinst.c ****         /*TX Counter (DP/Count7) Enable */
 194:.\Generated_Source\PSoC5/uart_solinst.c ****         #if(!uart_solinst_TXCLKGEN_DP)
 195:.\Generated_Source\PSoC5/uart_solinst.c ****             uart_solinst_TXBITCTR_CONTROL_REG |= uart_solinst_CNTR_ENABLE;
 196:.\Generated_Source\PSoC5/uart_solinst.c ****         #endif /* End uart_solinst_TXCLKGEN_DP */
 197:.\Generated_Source\PSoC5/uart_solinst.c ****         /* Enable the TX Interrupt. */
 198:.\Generated_Source\PSoC5/uart_solinst.c ****         uart_solinst_TXSTATUS_ACTL_REG |= uart_solinst_INT_ENABLE;
 177              		.loc 1 198 0
 178 0046 46F29953 		movw	r3, #:lower16:1073767833
 179 004a C4F20003 		movt	r3, #:upper16:1073767833
 180 004e 46F29952 		movw	r2, #:lower16:1073767833
 181 0052 C4F20002 		movt	r2, #:upper16:1073767833
 182 0056 1278     		ldrb	r2, [r2, #0]
 183 0058 D2B2     		uxtb	r2, r2
 184 005a 42F01002 		orr	r2, r2, #16
 185 005e D2B2     		uxtb	r2, r2
 186 0060 1A70     		strb	r2, [r3, #0]
 199:.\Generated_Source\PSoC5/uart_solinst.c ****         #if(uart_solinst_TX_INTERRUPT_ENABLED && (uart_solinst_TXBUFFERSIZE > uart_solinst_FIFO_LEN
 200:.\Generated_Source\PSoC5/uart_solinst.c ****             CyIntEnable(uart_solinst_TX_VECT_NUM);
 201:.\Generated_Source\PSoC5/uart_solinst.c ****         #endif /* End uart_solinst_TX_INTERRUPT_ENABLED*/
 202:.\Generated_Source\PSoC5/uart_solinst.c ****      #endif /* End uart_solinst_TX_ENABLED */
 203:.\Generated_Source\PSoC5/uart_solinst.c **** 
 204:.\Generated_Source\PSoC5/uart_solinst.c ****     #if(uart_solinst_INTERNAL_CLOCK_USED)
 205:.\Generated_Source\PSoC5/uart_solinst.c ****         /* Enable the clock. */
 206:.\Generated_Source\PSoC5/uart_solinst.c ****         uart_solinst_IntClock_Start();
 187              		.loc 1 206 0
 188 0062 FFF7FEFF 		bl	uart_solinst_IntClock_Start
 207:.\Generated_Source\PSoC5/uart_solinst.c ****     #endif /* End uart_solinst_INTERNAL_CLOCK_USED */
ARM GAS  C:\Users\karunmj\AppData\Local\Temp\ccOxugR9.s 			page 8


 208:.\Generated_Source\PSoC5/uart_solinst.c **** 
 209:.\Generated_Source\PSoC5/uart_solinst.c ****     CyExitCriticalSection(enableInterrupts);
 189              		.loc 1 209 0
 190 0066 FB79     		ldrb	r3, [r7, #7]	@ zero_extendqisi2
 191 0068 1846     		mov	r0, r3
 192 006a FFF7FEFF 		bl	CyExitCriticalSection
 210:.\Generated_Source\PSoC5/uart_solinst.c **** }
 193              		.loc 1 210 0
 194 006e 07F10807 		add	r7, r7, #8
 195 0072 BD46     		mov	sp, r7
 196 0074 80BD     		pop	{r7, pc}
 197              		.cfi_endproc
 198              	.LFE2:
 199              		.size	uart_solinst_Enable, .-uart_solinst_Enable
 200 0076 00BF     		.section	.text.uart_solinst_Stop,"ax",%progbits
 201              		.align	2
 202              		.global	uart_solinst_Stop
 203              		.thumb
 204              		.thumb_func
 205              		.type	uart_solinst_Stop, %function
 206              	uart_solinst_Stop:
 207              	.LFB3:
 211:.\Generated_Source\PSoC5/uart_solinst.c **** 
 212:.\Generated_Source\PSoC5/uart_solinst.c **** 
 213:.\Generated_Source\PSoC5/uart_solinst.c **** /*******************************************************************************
 214:.\Generated_Source\PSoC5/uart_solinst.c **** * Function Name: uart_solinst_Stop
 215:.\Generated_Source\PSoC5/uart_solinst.c **** ********************************************************************************
 216:.\Generated_Source\PSoC5/uart_solinst.c **** *
 217:.\Generated_Source\PSoC5/uart_solinst.c **** * Summary:
 218:.\Generated_Source\PSoC5/uart_solinst.c **** *  Disable the UART component
 219:.\Generated_Source\PSoC5/uart_solinst.c **** *
 220:.\Generated_Source\PSoC5/uart_solinst.c **** * Parameters:
 221:.\Generated_Source\PSoC5/uart_solinst.c **** *  None.
 222:.\Generated_Source\PSoC5/uart_solinst.c **** *
 223:.\Generated_Source\PSoC5/uart_solinst.c **** * Return:
 224:.\Generated_Source\PSoC5/uart_solinst.c **** *  None.
 225:.\Generated_Source\PSoC5/uart_solinst.c **** *
 226:.\Generated_Source\PSoC5/uart_solinst.c **** *******************************************************************************/
 227:.\Generated_Source\PSoC5/uart_solinst.c **** void uart_solinst_Stop(void) 
 228:.\Generated_Source\PSoC5/uart_solinst.c **** {
 208              		.loc 1 228 0
 209              		.cfi_startproc
 210              		@ args = 0, pretend = 0, frame = 8
 211              		@ frame_needed = 1, uses_anonymous_args = 0
 212 0000 80B5     		push	{r7, lr}
 213              	.LCFI7:
 214              		.cfi_def_cfa_offset 8
 215 0002 82B0     		sub	sp, sp, #8
 216              	.LCFI8:
 217              		.cfi_def_cfa_offset 16
 218 0004 00AF     		add	r7, sp, #0
 219              		.cfi_offset 14, -4
 220              		.cfi_offset 7, -8
 221              	.LCFI9:
 222              		.cfi_def_cfa_register 7
 229:.\Generated_Source\PSoC5/uart_solinst.c ****     uint8 enableInterrupts;
 230:.\Generated_Source\PSoC5/uart_solinst.c ****     enableInterrupts = CyEnterCriticalSection();
ARM GAS  C:\Users\karunmj\AppData\Local\Temp\ccOxugR9.s 			page 9


 223              		.loc 1 230 0
 224 0006 FFF7FEFF 		bl	CyEnterCriticalSection
 225 000a 0346     		mov	r3, r0
 226 000c FB71     		strb	r3, [r7, #7]
 231:.\Generated_Source\PSoC5/uart_solinst.c **** 
 232:.\Generated_Source\PSoC5/uart_solinst.c ****     /* Write Bit Counter Disable */
 233:.\Generated_Source\PSoC5/uart_solinst.c ****     #if(uart_solinst_RX_ENABLED || uart_solinst_HD_ENABLED)
 234:.\Generated_Source\PSoC5/uart_solinst.c ****         uart_solinst_RXBITCTR_CONTROL_REG &= (uint8)~uart_solinst_CNTR_ENABLE;
 227              		.loc 1 234 0
 228 000e 46F29A53 		movw	r3, #:lower16:1073767834
 229 0012 C4F20003 		movt	r3, #:upper16:1073767834
 230 0016 46F29A52 		movw	r2, #:lower16:1073767834
 231 001a C4F20002 		movt	r2, #:upper16:1073767834
 232 001e 1278     		ldrb	r2, [r2, #0]
 233 0020 D2B2     		uxtb	r2, r2
 234 0022 02F0DF02 		and	r2, r2, #223
 235 0026 1A70     		strb	r2, [r3, #0]
 235:.\Generated_Source\PSoC5/uart_solinst.c ****     #endif /* End uart_solinst_RX_ENABLED */
 236:.\Generated_Source\PSoC5/uart_solinst.c **** 
 237:.\Generated_Source\PSoC5/uart_solinst.c ****     #if(uart_solinst_TX_ENABLED)
 238:.\Generated_Source\PSoC5/uart_solinst.c ****         #if(!uart_solinst_TXCLKGEN_DP)
 239:.\Generated_Source\PSoC5/uart_solinst.c ****             uart_solinst_TXBITCTR_CONTROL_REG &= (uint8)~uart_solinst_CNTR_ENABLE;
 240:.\Generated_Source\PSoC5/uart_solinst.c ****         #endif /* End uart_solinst_TXCLKGEN_DP */
 241:.\Generated_Source\PSoC5/uart_solinst.c ****     #endif /* uart_solinst_TX_ENABLED */
 242:.\Generated_Source\PSoC5/uart_solinst.c **** 
 243:.\Generated_Source\PSoC5/uart_solinst.c ****     #if(uart_solinst_INTERNAL_CLOCK_USED)
 244:.\Generated_Source\PSoC5/uart_solinst.c ****         /* Disable the clock. */
 245:.\Generated_Source\PSoC5/uart_solinst.c ****         uart_solinst_IntClock_Stop();
 236              		.loc 1 245 0
 237 0028 FFF7FEFF 		bl	uart_solinst_IntClock_Stop
 246:.\Generated_Source\PSoC5/uart_solinst.c ****     #endif /* End uart_solinst_INTERNAL_CLOCK_USED */
 247:.\Generated_Source\PSoC5/uart_solinst.c **** 
 248:.\Generated_Source\PSoC5/uart_solinst.c ****     /* Disable internal interrupt component */
 249:.\Generated_Source\PSoC5/uart_solinst.c ****     #if(uart_solinst_RX_ENABLED || uart_solinst_HD_ENABLED)
 250:.\Generated_Source\PSoC5/uart_solinst.c ****         uart_solinst_RXSTATUS_ACTL_REG  &= (uint8)~uart_solinst_INT_ENABLE;
 238              		.loc 1 250 0
 239 002c 46F29D43 		movw	r3, #:lower16:1073767581
 240 0030 C4F20003 		movt	r3, #:upper16:1073767581
 241 0034 46F29D42 		movw	r2, #:lower16:1073767581
 242 0038 C4F20002 		movt	r2, #:upper16:1073767581
 243 003c 1278     		ldrb	r2, [r2, #0]
 244 003e D2B2     		uxtb	r2, r2
 245 0040 02F0EF02 		and	r2, r2, #239
 246 0044 1A70     		strb	r2, [r3, #0]
 251:.\Generated_Source\PSoC5/uart_solinst.c ****         #if(uart_solinst_RX_INTERRUPT_ENABLED && (uart_solinst_RXBUFFERSIZE > uart_solinst_FIFO_LEN
 252:.\Generated_Source\PSoC5/uart_solinst.c ****             uart_solinst_DisableRxInt();
 253:.\Generated_Source\PSoC5/uart_solinst.c ****         #endif /* End uart_solinst_RX_INTERRUPT_ENABLED */
 254:.\Generated_Source\PSoC5/uart_solinst.c ****     #endif /* End uart_solinst_RX_ENABLED */
 255:.\Generated_Source\PSoC5/uart_solinst.c **** 
 256:.\Generated_Source\PSoC5/uart_solinst.c ****     #if(uart_solinst_TX_ENABLED)
 257:.\Generated_Source\PSoC5/uart_solinst.c ****         uart_solinst_TXSTATUS_ACTL_REG &= (uint8)~uart_solinst_INT_ENABLE;
 247              		.loc 1 257 0
 248 0046 46F29953 		movw	r3, #:lower16:1073767833
 249 004a C4F20003 		movt	r3, #:upper16:1073767833
 250 004e 46F29952 		movw	r2, #:lower16:1073767833
 251 0052 C4F20002 		movt	r2, #:upper16:1073767833
 252 0056 1278     		ldrb	r2, [r2, #0]
ARM GAS  C:\Users\karunmj\AppData\Local\Temp\ccOxugR9.s 			page 10


 253 0058 D2B2     		uxtb	r2, r2
 254 005a 02F0EF02 		and	r2, r2, #239
 255 005e 1A70     		strb	r2, [r3, #0]
 258:.\Generated_Source\PSoC5/uart_solinst.c ****         #if(uart_solinst_TX_INTERRUPT_ENABLED && (uart_solinst_TXBUFFERSIZE > uart_solinst_FIFO_LEN
 259:.\Generated_Source\PSoC5/uart_solinst.c ****             uart_solinst_DisableTxInt();
 260:.\Generated_Source\PSoC5/uart_solinst.c ****         #endif /* End uart_solinst_TX_INTERRUPT_ENABLED */
 261:.\Generated_Source\PSoC5/uart_solinst.c ****     #endif /* End uart_solinst_TX_ENABLED */
 262:.\Generated_Source\PSoC5/uart_solinst.c **** 
 263:.\Generated_Source\PSoC5/uart_solinst.c ****     CyExitCriticalSection(enableInterrupts);
 256              		.loc 1 263 0
 257 0060 FB79     		ldrb	r3, [r7, #7]	@ zero_extendqisi2
 258 0062 1846     		mov	r0, r3
 259 0064 FFF7FEFF 		bl	CyExitCriticalSection
 264:.\Generated_Source\PSoC5/uart_solinst.c **** }
 260              		.loc 1 264 0
 261 0068 07F10807 		add	r7, r7, #8
 262 006c BD46     		mov	sp, r7
 263 006e 80BD     		pop	{r7, pc}
 264              		.cfi_endproc
 265              	.LFE3:
 266              		.size	uart_solinst_Stop, .-uart_solinst_Stop
 267              		.section	.text.uart_solinst_ReadControlRegister,"ax",%progbits
 268              		.align	2
 269              		.global	uart_solinst_ReadControlRegister
 270              		.thumb
 271              		.thumb_func
 272              		.type	uart_solinst_ReadControlRegister, %function
 273              	uart_solinst_ReadControlRegister:
 274              	.LFB4:
 265:.\Generated_Source\PSoC5/uart_solinst.c **** 
 266:.\Generated_Source\PSoC5/uart_solinst.c **** 
 267:.\Generated_Source\PSoC5/uart_solinst.c **** /*******************************************************************************
 268:.\Generated_Source\PSoC5/uart_solinst.c **** * Function Name: uart_solinst_ReadControlRegister
 269:.\Generated_Source\PSoC5/uart_solinst.c **** ********************************************************************************
 270:.\Generated_Source\PSoC5/uart_solinst.c **** *
 271:.\Generated_Source\PSoC5/uart_solinst.c **** * Summary:
 272:.\Generated_Source\PSoC5/uart_solinst.c **** *  Read the current state of the control register
 273:.\Generated_Source\PSoC5/uart_solinst.c **** *
 274:.\Generated_Source\PSoC5/uart_solinst.c **** * Parameters:
 275:.\Generated_Source\PSoC5/uart_solinst.c **** *  None.
 276:.\Generated_Source\PSoC5/uart_solinst.c **** *
 277:.\Generated_Source\PSoC5/uart_solinst.c **** * Return:
 278:.\Generated_Source\PSoC5/uart_solinst.c **** *  Current state of the control register.
 279:.\Generated_Source\PSoC5/uart_solinst.c **** *
 280:.\Generated_Source\PSoC5/uart_solinst.c **** *******************************************************************************/
 281:.\Generated_Source\PSoC5/uart_solinst.c **** uint8 uart_solinst_ReadControlRegister(void) 
 282:.\Generated_Source\PSoC5/uart_solinst.c **** {
 275              		.loc 1 282 0
 276              		.cfi_startproc
 277              		@ args = 0, pretend = 0, frame = 0
 278              		@ frame_needed = 1, uses_anonymous_args = 0
 279              		@ link register save eliminated.
 280 0000 80B4     		push	{r7}
 281              	.LCFI10:
 282              		.cfi_def_cfa_offset 4
 283 0002 00AF     		add	r7, sp, #0
 284              		.cfi_offset 7, -4
ARM GAS  C:\Users\karunmj\AppData\Local\Temp\ccOxugR9.s 			page 11


 285              	.LCFI11:
 286              		.cfi_def_cfa_register 7
 283:.\Generated_Source\PSoC5/uart_solinst.c ****     #if( uart_solinst_CONTROL_REG_REMOVED )
 284:.\Generated_Source\PSoC5/uart_solinst.c ****         return(0u);
 285:.\Generated_Source\PSoC5/uart_solinst.c ****     #else
 286:.\Generated_Source\PSoC5/uart_solinst.c ****         return(uart_solinst_CONTROL_REG);
 287              		.loc 1 286 0
 288 0004 46F27943 		movw	r3, #:lower16:1073767545
 289 0008 C4F20003 		movt	r3, #:upper16:1073767545
 290 000c 1B78     		ldrb	r3, [r3, #0]
 291 000e DBB2     		uxtb	r3, r3
 287:.\Generated_Source\PSoC5/uart_solinst.c ****     #endif /* End uart_solinst_CONTROL_REG_REMOVED */
 288:.\Generated_Source\PSoC5/uart_solinst.c **** }
 292              		.loc 1 288 0
 293 0010 1846     		mov	r0, r3
 294 0012 BD46     		mov	sp, r7
 295 0014 80BC     		pop	{r7}
 296 0016 7047     		bx	lr
 297              		.cfi_endproc
 298              	.LFE4:
 299              		.size	uart_solinst_ReadControlRegister, .-uart_solinst_ReadControlRegister
 300              		.section	.text.uart_solinst_WriteControlRegister,"ax",%progbits
 301              		.align	2
 302              		.global	uart_solinst_WriteControlRegister
 303              		.thumb
 304              		.thumb_func
 305              		.type	uart_solinst_WriteControlRegister, %function
 306              	uart_solinst_WriteControlRegister:
 307              	.LFB5:
 289:.\Generated_Source\PSoC5/uart_solinst.c **** 
 290:.\Generated_Source\PSoC5/uart_solinst.c **** 
 291:.\Generated_Source\PSoC5/uart_solinst.c **** /*******************************************************************************
 292:.\Generated_Source\PSoC5/uart_solinst.c **** * Function Name: uart_solinst_WriteControlRegister
 293:.\Generated_Source\PSoC5/uart_solinst.c **** ********************************************************************************
 294:.\Generated_Source\PSoC5/uart_solinst.c **** *
 295:.\Generated_Source\PSoC5/uart_solinst.c **** * Summary:
 296:.\Generated_Source\PSoC5/uart_solinst.c **** *  Writes an 8-bit value into the control register
 297:.\Generated_Source\PSoC5/uart_solinst.c **** *
 298:.\Generated_Source\PSoC5/uart_solinst.c **** * Parameters:
 299:.\Generated_Source\PSoC5/uart_solinst.c **** *  control:  control register value
 300:.\Generated_Source\PSoC5/uart_solinst.c **** *
 301:.\Generated_Source\PSoC5/uart_solinst.c **** * Return:
 302:.\Generated_Source\PSoC5/uart_solinst.c **** *  None.
 303:.\Generated_Source\PSoC5/uart_solinst.c **** *
 304:.\Generated_Source\PSoC5/uart_solinst.c **** *******************************************************************************/
 305:.\Generated_Source\PSoC5/uart_solinst.c **** void  uart_solinst_WriteControlRegister(uint8 control) 
 306:.\Generated_Source\PSoC5/uart_solinst.c **** {
 308              		.loc 1 306 0
 309              		.cfi_startproc
 310              		@ args = 0, pretend = 0, frame = 8
 311              		@ frame_needed = 1, uses_anonymous_args = 0
 312              		@ link register save eliminated.
 313 0000 80B4     		push	{r7}
 314              	.LCFI12:
 315              		.cfi_def_cfa_offset 4
 316 0002 83B0     		sub	sp, sp, #12
 317              	.LCFI13:
ARM GAS  C:\Users\karunmj\AppData\Local\Temp\ccOxugR9.s 			page 12


 318              		.cfi_def_cfa_offset 16
 319 0004 00AF     		add	r7, sp, #0
 320              		.cfi_offset 7, -4
 321              	.LCFI14:
 322              		.cfi_def_cfa_register 7
 323 0006 0346     		mov	r3, r0
 324 0008 FB71     		strb	r3, [r7, #7]
 307:.\Generated_Source\PSoC5/uart_solinst.c ****     #if( uart_solinst_CONTROL_REG_REMOVED )
 308:.\Generated_Source\PSoC5/uart_solinst.c ****         if(control != 0u) { }      /* release compiler warning */
 309:.\Generated_Source\PSoC5/uart_solinst.c ****     #else
 310:.\Generated_Source\PSoC5/uart_solinst.c ****        uart_solinst_CONTROL_REG = control;
 325              		.loc 1 310 0
 326 000a 46F27943 		movw	r3, #:lower16:1073767545
 327 000e C4F20003 		movt	r3, #:upper16:1073767545
 328 0012 FA79     		ldrb	r2, [r7, #7]
 329 0014 1A70     		strb	r2, [r3, #0]
 311:.\Generated_Source\PSoC5/uart_solinst.c ****     #endif /* End uart_solinst_CONTROL_REG_REMOVED */
 312:.\Generated_Source\PSoC5/uart_solinst.c **** }
 330              		.loc 1 312 0
 331 0016 07F10C07 		add	r7, r7, #12
 332 001a BD46     		mov	sp, r7
 333 001c 80BC     		pop	{r7}
 334 001e 7047     		bx	lr
 335              		.cfi_endproc
 336              	.LFE5:
 337              		.size	uart_solinst_WriteControlRegister, .-uart_solinst_WriteControlRegister
 338              		.section	.text.uart_solinst_SetRxInterruptMode,"ax",%progbits
 339              		.align	2
 340              		.global	uart_solinst_SetRxInterruptMode
 341              		.thumb
 342              		.thumb_func
 343              		.type	uart_solinst_SetRxInterruptMode, %function
 344              	uart_solinst_SetRxInterruptMode:
 345              	.LFB6:
 313:.\Generated_Source\PSoC5/uart_solinst.c **** 
 314:.\Generated_Source\PSoC5/uart_solinst.c **** 
 315:.\Generated_Source\PSoC5/uart_solinst.c **** #if(uart_solinst_RX_ENABLED || uart_solinst_HD_ENABLED)
 316:.\Generated_Source\PSoC5/uart_solinst.c **** 
 317:.\Generated_Source\PSoC5/uart_solinst.c ****     #if(uart_solinst_RX_INTERRUPT_ENABLED)
 318:.\Generated_Source\PSoC5/uart_solinst.c **** 
 319:.\Generated_Source\PSoC5/uart_solinst.c ****         /*******************************************************************************
 320:.\Generated_Source\PSoC5/uart_solinst.c ****         * Function Name: uart_solinst_EnableRxInt
 321:.\Generated_Source\PSoC5/uart_solinst.c ****         ********************************************************************************
 322:.\Generated_Source\PSoC5/uart_solinst.c ****         *
 323:.\Generated_Source\PSoC5/uart_solinst.c ****         * Summary:
 324:.\Generated_Source\PSoC5/uart_solinst.c ****         *  Enable RX interrupt generation
 325:.\Generated_Source\PSoC5/uart_solinst.c ****         *
 326:.\Generated_Source\PSoC5/uart_solinst.c ****         * Parameters:
 327:.\Generated_Source\PSoC5/uart_solinst.c ****         *  None.
 328:.\Generated_Source\PSoC5/uart_solinst.c ****         *
 329:.\Generated_Source\PSoC5/uart_solinst.c ****         * Return:
 330:.\Generated_Source\PSoC5/uart_solinst.c ****         *  None.
 331:.\Generated_Source\PSoC5/uart_solinst.c ****         *
 332:.\Generated_Source\PSoC5/uart_solinst.c ****         * Theory:
 333:.\Generated_Source\PSoC5/uart_solinst.c ****         *  Enable the interrupt output -or- the interrupt component itself
 334:.\Generated_Source\PSoC5/uart_solinst.c ****         *
 335:.\Generated_Source\PSoC5/uart_solinst.c ****         *******************************************************************************/
ARM GAS  C:\Users\karunmj\AppData\Local\Temp\ccOxugR9.s 			page 13


 336:.\Generated_Source\PSoC5/uart_solinst.c ****         void uart_solinst_EnableRxInt(void) 
 337:.\Generated_Source\PSoC5/uart_solinst.c ****         {
 338:.\Generated_Source\PSoC5/uart_solinst.c ****             CyIntEnable(uart_solinst_RX_VECT_NUM);
 339:.\Generated_Source\PSoC5/uart_solinst.c ****         }
 340:.\Generated_Source\PSoC5/uart_solinst.c **** 
 341:.\Generated_Source\PSoC5/uart_solinst.c **** 
 342:.\Generated_Source\PSoC5/uart_solinst.c ****         /*******************************************************************************
 343:.\Generated_Source\PSoC5/uart_solinst.c ****         * Function Name: uart_solinst_DisableRxInt
 344:.\Generated_Source\PSoC5/uart_solinst.c ****         ********************************************************************************
 345:.\Generated_Source\PSoC5/uart_solinst.c ****         *
 346:.\Generated_Source\PSoC5/uart_solinst.c ****         * Summary:
 347:.\Generated_Source\PSoC5/uart_solinst.c ****         *  Disable RX interrupt generation
 348:.\Generated_Source\PSoC5/uart_solinst.c ****         *
 349:.\Generated_Source\PSoC5/uart_solinst.c ****         * Parameters:
 350:.\Generated_Source\PSoC5/uart_solinst.c ****         *  None.
 351:.\Generated_Source\PSoC5/uart_solinst.c ****         *
 352:.\Generated_Source\PSoC5/uart_solinst.c ****         * Return:
 353:.\Generated_Source\PSoC5/uart_solinst.c ****         *  None.
 354:.\Generated_Source\PSoC5/uart_solinst.c ****         *
 355:.\Generated_Source\PSoC5/uart_solinst.c ****         * Theory:
 356:.\Generated_Source\PSoC5/uart_solinst.c ****         *  Disable the interrupt output -or- the interrupt component itself
 357:.\Generated_Source\PSoC5/uart_solinst.c ****         *
 358:.\Generated_Source\PSoC5/uart_solinst.c ****         *******************************************************************************/
 359:.\Generated_Source\PSoC5/uart_solinst.c ****         void uart_solinst_DisableRxInt(void) 
 360:.\Generated_Source\PSoC5/uart_solinst.c ****         {
 361:.\Generated_Source\PSoC5/uart_solinst.c ****             CyIntDisable(uart_solinst_RX_VECT_NUM);
 362:.\Generated_Source\PSoC5/uart_solinst.c ****         }
 363:.\Generated_Source\PSoC5/uart_solinst.c **** 
 364:.\Generated_Source\PSoC5/uart_solinst.c ****     #endif /* uart_solinst_RX_INTERRUPT_ENABLED */
 365:.\Generated_Source\PSoC5/uart_solinst.c **** 
 366:.\Generated_Source\PSoC5/uart_solinst.c **** 
 367:.\Generated_Source\PSoC5/uart_solinst.c ****     /*******************************************************************************
 368:.\Generated_Source\PSoC5/uart_solinst.c ****     * Function Name: uart_solinst_SetRxInterruptMode
 369:.\Generated_Source\PSoC5/uart_solinst.c ****     ********************************************************************************
 370:.\Generated_Source\PSoC5/uart_solinst.c ****     *
 371:.\Generated_Source\PSoC5/uart_solinst.c ****     * Summary:
 372:.\Generated_Source\PSoC5/uart_solinst.c ****     *  Configure which status bits trigger an interrupt event
 373:.\Generated_Source\PSoC5/uart_solinst.c ****     *
 374:.\Generated_Source\PSoC5/uart_solinst.c ****     * Parameters:
 375:.\Generated_Source\PSoC5/uart_solinst.c ****     *  IntSrc:  An or'd combination of the desired status bit masks (defined in
 376:.\Generated_Source\PSoC5/uart_solinst.c ****     *           the header file)
 377:.\Generated_Source\PSoC5/uart_solinst.c ****     *
 378:.\Generated_Source\PSoC5/uart_solinst.c ****     * Return:
 379:.\Generated_Source\PSoC5/uart_solinst.c ****     *  None.
 380:.\Generated_Source\PSoC5/uart_solinst.c ****     *
 381:.\Generated_Source\PSoC5/uart_solinst.c ****     * Theory:
 382:.\Generated_Source\PSoC5/uart_solinst.c ****     *  Enables the output of specific status bits to the interrupt controller
 383:.\Generated_Source\PSoC5/uart_solinst.c ****     *
 384:.\Generated_Source\PSoC5/uart_solinst.c ****     *******************************************************************************/
 385:.\Generated_Source\PSoC5/uart_solinst.c ****     void uart_solinst_SetRxInterruptMode(uint8 intSrc) 
 386:.\Generated_Source\PSoC5/uart_solinst.c ****     {
 346              		.loc 1 386 0
 347              		.cfi_startproc
 348              		@ args = 0, pretend = 0, frame = 8
 349              		@ frame_needed = 1, uses_anonymous_args = 0
 350              		@ link register save eliminated.
 351 0000 80B4     		push	{r7}
ARM GAS  C:\Users\karunmj\AppData\Local\Temp\ccOxugR9.s 			page 14


 352              	.LCFI15:
 353              		.cfi_def_cfa_offset 4
 354 0002 83B0     		sub	sp, sp, #12
 355              	.LCFI16:
 356              		.cfi_def_cfa_offset 16
 357 0004 00AF     		add	r7, sp, #0
 358              		.cfi_offset 7, -4
 359              	.LCFI17:
 360              		.cfi_def_cfa_register 7
 361 0006 0346     		mov	r3, r0
 362 0008 FB71     		strb	r3, [r7, #7]
 387:.\Generated_Source\PSoC5/uart_solinst.c ****         uart_solinst_RXSTATUS_MASK_REG  = intSrc;
 363              		.loc 1 387 0
 364 000a 46F28D43 		movw	r3, #:lower16:1073767565
 365 000e C4F20003 		movt	r3, #:upper16:1073767565
 366 0012 FA79     		ldrb	r2, [r7, #7]
 367 0014 1A70     		strb	r2, [r3, #0]
 388:.\Generated_Source\PSoC5/uart_solinst.c ****     }
 368              		.loc 1 388 0
 369 0016 07F10C07 		add	r7, r7, #12
 370 001a BD46     		mov	sp, r7
 371 001c 80BC     		pop	{r7}
 372 001e 7047     		bx	lr
 373              		.cfi_endproc
 374              	.LFE6:
 375              		.size	uart_solinst_SetRxInterruptMode, .-uart_solinst_SetRxInterruptMode
 376              		.section	.text.uart_solinst_ReadRxData,"ax",%progbits
 377              		.align	2
 378              		.global	uart_solinst_ReadRxData
 379              		.thumb
 380              		.thumb_func
 381              		.type	uart_solinst_ReadRxData, %function
 382              	uart_solinst_ReadRxData:
 383              	.LFB7:
 389:.\Generated_Source\PSoC5/uart_solinst.c **** 
 390:.\Generated_Source\PSoC5/uart_solinst.c **** 
 391:.\Generated_Source\PSoC5/uart_solinst.c ****     /*******************************************************************************
 392:.\Generated_Source\PSoC5/uart_solinst.c ****     * Function Name: uart_solinst_ReadRxData
 393:.\Generated_Source\PSoC5/uart_solinst.c ****     ********************************************************************************
 394:.\Generated_Source\PSoC5/uart_solinst.c ****     *
 395:.\Generated_Source\PSoC5/uart_solinst.c ****     * Summary:
 396:.\Generated_Source\PSoC5/uart_solinst.c ****     *  Returns data in RX Data register without checking status register to
 397:.\Generated_Source\PSoC5/uart_solinst.c ****     *  determine if data is valid
 398:.\Generated_Source\PSoC5/uart_solinst.c ****     *
 399:.\Generated_Source\PSoC5/uart_solinst.c ****     * Parameters:
 400:.\Generated_Source\PSoC5/uart_solinst.c ****     *  None.
 401:.\Generated_Source\PSoC5/uart_solinst.c ****     *
 402:.\Generated_Source\PSoC5/uart_solinst.c ****     * Return:
 403:.\Generated_Source\PSoC5/uart_solinst.c ****     *  Received data from RX register
 404:.\Generated_Source\PSoC5/uart_solinst.c ****     *
 405:.\Generated_Source\PSoC5/uart_solinst.c ****     * Global Variables:
 406:.\Generated_Source\PSoC5/uart_solinst.c ****     *  uart_solinst_rxBuffer - RAM buffer pointer for save received data.
 407:.\Generated_Source\PSoC5/uart_solinst.c ****     *  uart_solinst_rxBufferWrite - cyclic index for write to rxBuffer,
 408:.\Generated_Source\PSoC5/uart_solinst.c ****     *     checked to identify new data.
 409:.\Generated_Source\PSoC5/uart_solinst.c ****     *  uart_solinst_rxBufferRead - cyclic index for read from rxBuffer,
 410:.\Generated_Source\PSoC5/uart_solinst.c ****     *     incremented after each byte has been read from buffer.
 411:.\Generated_Source\PSoC5/uart_solinst.c ****     *  uart_solinst_rxBufferLoopDetect - creared if loop condition was detected
ARM GAS  C:\Users\karunmj\AppData\Local\Temp\ccOxugR9.s 			page 15


 412:.\Generated_Source\PSoC5/uart_solinst.c ****     *     in RX ISR.
 413:.\Generated_Source\PSoC5/uart_solinst.c ****     *
 414:.\Generated_Source\PSoC5/uart_solinst.c ****     * Reentrant:
 415:.\Generated_Source\PSoC5/uart_solinst.c ****     *  No.
 416:.\Generated_Source\PSoC5/uart_solinst.c ****     *
 417:.\Generated_Source\PSoC5/uart_solinst.c ****     *******************************************************************************/
 418:.\Generated_Source\PSoC5/uart_solinst.c ****     uint8 uart_solinst_ReadRxData(void) 
 419:.\Generated_Source\PSoC5/uart_solinst.c ****     {
 384              		.loc 1 419 0
 385              		.cfi_startproc
 386              		@ args = 0, pretend = 0, frame = 8
 387              		@ frame_needed = 1, uses_anonymous_args = 0
 388              		@ link register save eliminated.
 389 0000 80B4     		push	{r7}
 390              	.LCFI18:
 391              		.cfi_def_cfa_offset 4
 392 0002 83B0     		sub	sp, sp, #12
 393              	.LCFI19:
 394              		.cfi_def_cfa_offset 16
 395 0004 00AF     		add	r7, sp, #0
 396              		.cfi_offset 7, -4
 397              	.LCFI20:
 398              		.cfi_def_cfa_register 7
 420:.\Generated_Source\PSoC5/uart_solinst.c ****         uint8 rxData;
 421:.\Generated_Source\PSoC5/uart_solinst.c **** 
 422:.\Generated_Source\PSoC5/uart_solinst.c ****         #if(uart_solinst_RXBUFFERSIZE > uart_solinst_FIFO_LENGTH)
 423:.\Generated_Source\PSoC5/uart_solinst.c ****             uint8 loc_rxBufferRead;
 424:.\Generated_Source\PSoC5/uart_solinst.c ****             uint8 loc_rxBufferWrite;
 425:.\Generated_Source\PSoC5/uart_solinst.c ****             /* Protect variables that could change on interrupt. */
 426:.\Generated_Source\PSoC5/uart_solinst.c ****             /* Disable Rx interrupt. */
 427:.\Generated_Source\PSoC5/uart_solinst.c ****             #if(uart_solinst_RX_INTERRUPT_ENABLED)
 428:.\Generated_Source\PSoC5/uart_solinst.c ****                 uart_solinst_DisableRxInt();
 429:.\Generated_Source\PSoC5/uart_solinst.c ****             #endif /* uart_solinst_RX_INTERRUPT_ENABLED */
 430:.\Generated_Source\PSoC5/uart_solinst.c ****             loc_rxBufferRead = uart_solinst_rxBufferRead;
 431:.\Generated_Source\PSoC5/uart_solinst.c ****             loc_rxBufferWrite = uart_solinst_rxBufferWrite;
 432:.\Generated_Source\PSoC5/uart_solinst.c **** 
 433:.\Generated_Source\PSoC5/uart_solinst.c ****             if( (uart_solinst_rxBufferLoopDetect != 0u) || (loc_rxBufferRead != loc_rxBufferWrite) 
 434:.\Generated_Source\PSoC5/uart_solinst.c ****             {
 435:.\Generated_Source\PSoC5/uart_solinst.c ****                 rxData = uart_solinst_rxBuffer[loc_rxBufferRead];
 436:.\Generated_Source\PSoC5/uart_solinst.c ****                 loc_rxBufferRead++;
 437:.\Generated_Source\PSoC5/uart_solinst.c **** 
 438:.\Generated_Source\PSoC5/uart_solinst.c ****                 if(loc_rxBufferRead >= uart_solinst_RXBUFFERSIZE)
 439:.\Generated_Source\PSoC5/uart_solinst.c ****                 {
 440:.\Generated_Source\PSoC5/uart_solinst.c ****                     loc_rxBufferRead = 0u;
 441:.\Generated_Source\PSoC5/uart_solinst.c ****                 }
 442:.\Generated_Source\PSoC5/uart_solinst.c ****                 /* Update the real pointer */
 443:.\Generated_Source\PSoC5/uart_solinst.c ****                 uart_solinst_rxBufferRead = loc_rxBufferRead;
 444:.\Generated_Source\PSoC5/uart_solinst.c **** 
 445:.\Generated_Source\PSoC5/uart_solinst.c ****                 if(uart_solinst_rxBufferLoopDetect != 0u )
 446:.\Generated_Source\PSoC5/uart_solinst.c ****                 {
 447:.\Generated_Source\PSoC5/uart_solinst.c ****                     uart_solinst_rxBufferLoopDetect = 0u;
 448:.\Generated_Source\PSoC5/uart_solinst.c ****                     #if( (uart_solinst_RX_INTERRUPT_ENABLED) && (uart_solinst_FLOW_CONTROL != 0u) &
 449:.\Generated_Source\PSoC5/uart_solinst.c ****                          (uart_solinst_RXBUFFERSIZE > uart_solinst_FIFO_LENGTH) )
 450:.\Generated_Source\PSoC5/uart_solinst.c ****                         /* When Hardware Flow Control selected - return RX mask */
 451:.\Generated_Source\PSoC5/uart_solinst.c ****                         #if( uart_solinst_HD_ENABLED )
 452:.\Generated_Source\PSoC5/uart_solinst.c ****                             if((uart_solinst_CONTROL_REG & uart_solinst_CTRL_HD_SEND) == 0u)
 453:.\Generated_Source\PSoC5/uart_solinst.c ****                             {   /* In Half duplex mode return RX mask only in RX
ARM GAS  C:\Users\karunmj\AppData\Local\Temp\ccOxugR9.s 			page 16


 454:.\Generated_Source\PSoC5/uart_solinst.c ****                                 *  configuration set, otherwise
 455:.\Generated_Source\PSoC5/uart_solinst.c ****                                 *  mask will be returned in LoadRxConfig() API.
 456:.\Generated_Source\PSoC5/uart_solinst.c ****                                 */
 457:.\Generated_Source\PSoC5/uart_solinst.c ****                                 uart_solinst_RXSTATUS_MASK_REG  |= uart_solinst_RX_STS_FIFO_NOTEMPT
 458:.\Generated_Source\PSoC5/uart_solinst.c ****                             }
 459:.\Generated_Source\PSoC5/uart_solinst.c ****                         #else
 460:.\Generated_Source\PSoC5/uart_solinst.c ****                             uart_solinst_RXSTATUS_MASK_REG  |= uart_solinst_RX_STS_FIFO_NOTEMPTY;
 461:.\Generated_Source\PSoC5/uart_solinst.c ****                         #endif /* end uart_solinst_HD_ENABLED */
 462:.\Generated_Source\PSoC5/uart_solinst.c ****                     #endif /* uart_solinst_RX_INTERRUPT_ENABLED and Hardware flow control*/
 463:.\Generated_Source\PSoC5/uart_solinst.c ****                 }
 464:.\Generated_Source\PSoC5/uart_solinst.c ****             }
 465:.\Generated_Source\PSoC5/uart_solinst.c ****             else
 466:.\Generated_Source\PSoC5/uart_solinst.c ****             {   /* Needs to check status for RX_STS_FIFO_NOTEMPTY bit*/
 467:.\Generated_Source\PSoC5/uart_solinst.c ****                 rxData = uart_solinst_RXDATA_REG;
 468:.\Generated_Source\PSoC5/uart_solinst.c ****             }
 469:.\Generated_Source\PSoC5/uart_solinst.c **** 
 470:.\Generated_Source\PSoC5/uart_solinst.c ****             /* Enable Rx interrupt. */
 471:.\Generated_Source\PSoC5/uart_solinst.c ****             #if(uart_solinst_RX_INTERRUPT_ENABLED)
 472:.\Generated_Source\PSoC5/uart_solinst.c ****                 uart_solinst_EnableRxInt();
 473:.\Generated_Source\PSoC5/uart_solinst.c ****             #endif /* End uart_solinst_RX_INTERRUPT_ENABLED */
 474:.\Generated_Source\PSoC5/uart_solinst.c **** 
 475:.\Generated_Source\PSoC5/uart_solinst.c ****         #else /* uart_solinst_RXBUFFERSIZE > uart_solinst_FIFO_LENGTH */
 476:.\Generated_Source\PSoC5/uart_solinst.c **** 
 477:.\Generated_Source\PSoC5/uart_solinst.c ****             /* Needs to check status for RX_STS_FIFO_NOTEMPTY bit*/
 478:.\Generated_Source\PSoC5/uart_solinst.c ****             rxData = uart_solinst_RXDATA_REG;
 399              		.loc 1 478 0
 400 0006 46F24D43 		movw	r3, #:lower16:1073767501
 401 000a C4F20003 		movt	r3, #:upper16:1073767501
 402 000e 1B78     		ldrb	r3, [r3, #0]
 403 0010 FB71     		strb	r3, [r7, #7]
 479:.\Generated_Source\PSoC5/uart_solinst.c **** 
 480:.\Generated_Source\PSoC5/uart_solinst.c ****         #endif /* uart_solinst_RXBUFFERSIZE > uart_solinst_FIFO_LENGTH */
 481:.\Generated_Source\PSoC5/uart_solinst.c **** 
 482:.\Generated_Source\PSoC5/uart_solinst.c ****         return(rxData);
 404              		.loc 1 482 0
 405 0012 FB79     		ldrb	r3, [r7, #7]	@ zero_extendqisi2
 483:.\Generated_Source\PSoC5/uart_solinst.c ****     }
 406              		.loc 1 483 0
 407 0014 1846     		mov	r0, r3
 408 0016 07F10C07 		add	r7, r7, #12
 409 001a BD46     		mov	sp, r7
 410 001c 80BC     		pop	{r7}
 411 001e 7047     		bx	lr
 412              		.cfi_endproc
 413              	.LFE7:
 414              		.size	uart_solinst_ReadRxData, .-uart_solinst_ReadRxData
 415              		.section	.text.uart_solinst_ReadRxStatus,"ax",%progbits
 416              		.align	2
 417              		.global	uart_solinst_ReadRxStatus
 418              		.thumb
 419              		.thumb_func
 420              		.type	uart_solinst_ReadRxStatus, %function
 421              	uart_solinst_ReadRxStatus:
 422              	.LFB8:
 484:.\Generated_Source\PSoC5/uart_solinst.c **** 
 485:.\Generated_Source\PSoC5/uart_solinst.c **** 
 486:.\Generated_Source\PSoC5/uart_solinst.c ****     /*******************************************************************************
ARM GAS  C:\Users\karunmj\AppData\Local\Temp\ccOxugR9.s 			page 17


 487:.\Generated_Source\PSoC5/uart_solinst.c ****     * Function Name: uart_solinst_ReadRxStatus
 488:.\Generated_Source\PSoC5/uart_solinst.c ****     ********************************************************************************
 489:.\Generated_Source\PSoC5/uart_solinst.c ****     *
 490:.\Generated_Source\PSoC5/uart_solinst.c ****     * Summary:
 491:.\Generated_Source\PSoC5/uart_solinst.c ****     *  Read the current state of the status register
 492:.\Generated_Source\PSoC5/uart_solinst.c ****     *  And detect software buffer overflow.
 493:.\Generated_Source\PSoC5/uart_solinst.c ****     *
 494:.\Generated_Source\PSoC5/uart_solinst.c ****     * Parameters:
 495:.\Generated_Source\PSoC5/uart_solinst.c ****     *  None.
 496:.\Generated_Source\PSoC5/uart_solinst.c ****     *
 497:.\Generated_Source\PSoC5/uart_solinst.c ****     * Return:
 498:.\Generated_Source\PSoC5/uart_solinst.c ****     *  Current state of the status register.
 499:.\Generated_Source\PSoC5/uart_solinst.c ****     *
 500:.\Generated_Source\PSoC5/uart_solinst.c ****     * Global Variables:
 501:.\Generated_Source\PSoC5/uart_solinst.c ****     *  uart_solinst_rxBufferOverflow - used to indicate overload condition.
 502:.\Generated_Source\PSoC5/uart_solinst.c ****     *   It set to one in RX interrupt when there isn?t free space in
 503:.\Generated_Source\PSoC5/uart_solinst.c ****     *   uart_solinst_rxBufferRead to write new data. This condition returned
 504:.\Generated_Source\PSoC5/uart_solinst.c ****     *   and cleared to zero by this API as an
 505:.\Generated_Source\PSoC5/uart_solinst.c ****     *   uart_solinst_RX_STS_SOFT_BUFF_OVER bit along with RX Status register
 506:.\Generated_Source\PSoC5/uart_solinst.c ****     *   bits.
 507:.\Generated_Source\PSoC5/uart_solinst.c ****     *
 508:.\Generated_Source\PSoC5/uart_solinst.c ****     *******************************************************************************/
 509:.\Generated_Source\PSoC5/uart_solinst.c ****     uint8 uart_solinst_ReadRxStatus(void) 
 510:.\Generated_Source\PSoC5/uart_solinst.c ****     {
 423              		.loc 1 510 0
 424              		.cfi_startproc
 425              		@ args = 0, pretend = 0, frame = 8
 426              		@ frame_needed = 1, uses_anonymous_args = 0
 427              		@ link register save eliminated.
 428 0000 80B4     		push	{r7}
 429              	.LCFI21:
 430              		.cfi_def_cfa_offset 4
 431 0002 83B0     		sub	sp, sp, #12
 432              	.LCFI22:
 433              		.cfi_def_cfa_offset 16
 434 0004 00AF     		add	r7, sp, #0
 435              		.cfi_offset 7, -4
 436              	.LCFI23:
 437              		.cfi_def_cfa_register 7
 511:.\Generated_Source\PSoC5/uart_solinst.c ****         uint8 status;
 512:.\Generated_Source\PSoC5/uart_solinst.c **** 
 513:.\Generated_Source\PSoC5/uart_solinst.c ****         status = uart_solinst_RXSTATUS_REG & uart_solinst_RX_HW_MASK;
 438              		.loc 1 513 0
 439 0006 46F26D43 		movw	r3, #:lower16:1073767533
 440 000a C4F20003 		movt	r3, #:upper16:1073767533
 441 000e 1B78     		ldrb	r3, [r3, #0]
 442 0010 DBB2     		uxtb	r3, r3
 443 0012 03F07F03 		and	r3, r3, #127
 444 0016 FB71     		strb	r3, [r7, #7]
 514:.\Generated_Source\PSoC5/uart_solinst.c **** 
 515:.\Generated_Source\PSoC5/uart_solinst.c ****         #if(uart_solinst_RXBUFFERSIZE > uart_solinst_FIFO_LENGTH)
 516:.\Generated_Source\PSoC5/uart_solinst.c ****             if( uart_solinst_rxBufferOverflow != 0u )
 517:.\Generated_Source\PSoC5/uart_solinst.c ****             {
 518:.\Generated_Source\PSoC5/uart_solinst.c ****                 status |= uart_solinst_RX_STS_SOFT_BUFF_OVER;
 519:.\Generated_Source\PSoC5/uart_solinst.c ****                 uart_solinst_rxBufferOverflow = 0u;
 520:.\Generated_Source\PSoC5/uart_solinst.c ****             }
 521:.\Generated_Source\PSoC5/uart_solinst.c ****         #endif /* uart_solinst_RXBUFFERSIZE */
ARM GAS  C:\Users\karunmj\AppData\Local\Temp\ccOxugR9.s 			page 18


 522:.\Generated_Source\PSoC5/uart_solinst.c **** 
 523:.\Generated_Source\PSoC5/uart_solinst.c ****         return(status);
 445              		.loc 1 523 0
 446 0018 FB79     		ldrb	r3, [r7, #7]	@ zero_extendqisi2
 524:.\Generated_Source\PSoC5/uart_solinst.c ****     }
 447              		.loc 1 524 0
 448 001a 1846     		mov	r0, r3
 449 001c 07F10C07 		add	r7, r7, #12
 450 0020 BD46     		mov	sp, r7
 451 0022 80BC     		pop	{r7}
 452 0024 7047     		bx	lr
 453              		.cfi_endproc
 454              	.LFE8:
 455              		.size	uart_solinst_ReadRxStatus, .-uart_solinst_ReadRxStatus
 456 0026 00BF     		.section	.text.uart_solinst_GetChar,"ax",%progbits
 457              		.align	2
 458              		.global	uart_solinst_GetChar
 459              		.thumb
 460              		.thumb_func
 461              		.type	uart_solinst_GetChar, %function
 462              	uart_solinst_GetChar:
 463              	.LFB9:
 525:.\Generated_Source\PSoC5/uart_solinst.c **** 
 526:.\Generated_Source\PSoC5/uart_solinst.c **** 
 527:.\Generated_Source\PSoC5/uart_solinst.c ****     /*******************************************************************************
 528:.\Generated_Source\PSoC5/uart_solinst.c ****     * Function Name: uart_solinst_GetChar
 529:.\Generated_Source\PSoC5/uart_solinst.c ****     ********************************************************************************
 530:.\Generated_Source\PSoC5/uart_solinst.c ****     *
 531:.\Generated_Source\PSoC5/uart_solinst.c ****     * Summary:
 532:.\Generated_Source\PSoC5/uart_solinst.c ****     *  Reads UART RX buffer immediately, if data is not available or an error
 533:.\Generated_Source\PSoC5/uart_solinst.c ****     *  condition exists, zero is returned; otherwise, character is read and
 534:.\Generated_Source\PSoC5/uart_solinst.c ****     *  returned.
 535:.\Generated_Source\PSoC5/uart_solinst.c ****     *
 536:.\Generated_Source\PSoC5/uart_solinst.c ****     * Parameters:
 537:.\Generated_Source\PSoC5/uart_solinst.c ****     *  None.
 538:.\Generated_Source\PSoC5/uart_solinst.c ****     *
 539:.\Generated_Source\PSoC5/uart_solinst.c ****     * Return:
 540:.\Generated_Source\PSoC5/uart_solinst.c ****     *  Character read from UART RX buffer. ASCII characters from 1 to 255 are valid.
 541:.\Generated_Source\PSoC5/uart_solinst.c ****     *  A returned zero signifies an error condition or no data available.
 542:.\Generated_Source\PSoC5/uart_solinst.c ****     *
 543:.\Generated_Source\PSoC5/uart_solinst.c ****     * Global Variables:
 544:.\Generated_Source\PSoC5/uart_solinst.c ****     *  uart_solinst_rxBuffer - RAM buffer pointer for save received data.
 545:.\Generated_Source\PSoC5/uart_solinst.c ****     *  uart_solinst_rxBufferWrite - cyclic index for write to rxBuffer,
 546:.\Generated_Source\PSoC5/uart_solinst.c ****     *     checked to identify new data.
 547:.\Generated_Source\PSoC5/uart_solinst.c ****     *  uart_solinst_rxBufferRead - cyclic index for read from rxBuffer,
 548:.\Generated_Source\PSoC5/uart_solinst.c ****     *     incremented after each byte has been read from buffer.
 549:.\Generated_Source\PSoC5/uart_solinst.c ****     *  uart_solinst_rxBufferLoopDetect - creared if loop condition was detected
 550:.\Generated_Source\PSoC5/uart_solinst.c ****     *     in RX ISR.
 551:.\Generated_Source\PSoC5/uart_solinst.c ****     *
 552:.\Generated_Source\PSoC5/uart_solinst.c ****     * Reentrant:
 553:.\Generated_Source\PSoC5/uart_solinst.c ****     *  No.
 554:.\Generated_Source\PSoC5/uart_solinst.c ****     *
 555:.\Generated_Source\PSoC5/uart_solinst.c ****     *******************************************************************************/
 556:.\Generated_Source\PSoC5/uart_solinst.c ****     uint8 uart_solinst_GetChar(void) 
 557:.\Generated_Source\PSoC5/uart_solinst.c ****     {
 464              		.loc 1 557 0
 465              		.cfi_startproc
ARM GAS  C:\Users\karunmj\AppData\Local\Temp\ccOxugR9.s 			page 19


 466              		@ args = 0, pretend = 0, frame = 8
 467              		@ frame_needed = 1, uses_anonymous_args = 0
 468              		@ link register save eliminated.
 469 0000 80B4     		push	{r7}
 470              	.LCFI24:
 471              		.cfi_def_cfa_offset 4
 472 0002 83B0     		sub	sp, sp, #12
 473              	.LCFI25:
 474              		.cfi_def_cfa_offset 16
 475 0004 00AF     		add	r7, sp, #0
 476              		.cfi_offset 7, -4
 477              	.LCFI26:
 478              		.cfi_def_cfa_register 7
 558:.\Generated_Source\PSoC5/uart_solinst.c ****         uint8 rxData = 0u;
 479              		.loc 1 558 0
 480 0006 4FF00003 		mov	r3, #0
 481 000a BB71     		strb	r3, [r7, #6]
 559:.\Generated_Source\PSoC5/uart_solinst.c ****         uint8 rxStatus;
 560:.\Generated_Source\PSoC5/uart_solinst.c **** 
 561:.\Generated_Source\PSoC5/uart_solinst.c ****         #if(uart_solinst_RXBUFFERSIZE > uart_solinst_FIFO_LENGTH)
 562:.\Generated_Source\PSoC5/uart_solinst.c ****             uint8 loc_rxBufferRead;
 563:.\Generated_Source\PSoC5/uart_solinst.c ****             uint8 loc_rxBufferWrite;
 564:.\Generated_Source\PSoC5/uart_solinst.c ****             /* Protect variables that could change on interrupt. */
 565:.\Generated_Source\PSoC5/uart_solinst.c ****             /* Disable Rx interrupt. */
 566:.\Generated_Source\PSoC5/uart_solinst.c ****             #if(uart_solinst_RX_INTERRUPT_ENABLED)
 567:.\Generated_Source\PSoC5/uart_solinst.c ****                 uart_solinst_DisableRxInt();
 568:.\Generated_Source\PSoC5/uart_solinst.c ****             #endif /* uart_solinst_RX_INTERRUPT_ENABLED */
 569:.\Generated_Source\PSoC5/uart_solinst.c ****             loc_rxBufferRead = uart_solinst_rxBufferRead;
 570:.\Generated_Source\PSoC5/uart_solinst.c ****             loc_rxBufferWrite = uart_solinst_rxBufferWrite;
 571:.\Generated_Source\PSoC5/uart_solinst.c **** 
 572:.\Generated_Source\PSoC5/uart_solinst.c ****             if( (uart_solinst_rxBufferLoopDetect != 0u) || (loc_rxBufferRead != loc_rxBufferWrite) 
 573:.\Generated_Source\PSoC5/uart_solinst.c ****             {
 574:.\Generated_Source\PSoC5/uart_solinst.c ****                 rxData = uart_solinst_rxBuffer[loc_rxBufferRead];
 575:.\Generated_Source\PSoC5/uart_solinst.c ****                 loc_rxBufferRead++;
 576:.\Generated_Source\PSoC5/uart_solinst.c ****                 if(loc_rxBufferRead >= uart_solinst_RXBUFFERSIZE)
 577:.\Generated_Source\PSoC5/uart_solinst.c ****                 {
 578:.\Generated_Source\PSoC5/uart_solinst.c ****                     loc_rxBufferRead = 0u;
 579:.\Generated_Source\PSoC5/uart_solinst.c ****                 }
 580:.\Generated_Source\PSoC5/uart_solinst.c ****                 /* Update the real pointer */
 581:.\Generated_Source\PSoC5/uart_solinst.c ****                 uart_solinst_rxBufferRead = loc_rxBufferRead;
 582:.\Generated_Source\PSoC5/uart_solinst.c **** 
 583:.\Generated_Source\PSoC5/uart_solinst.c ****                 if(uart_solinst_rxBufferLoopDetect > 0u )
 584:.\Generated_Source\PSoC5/uart_solinst.c ****                 {
 585:.\Generated_Source\PSoC5/uart_solinst.c ****                     uart_solinst_rxBufferLoopDetect = 0u;
 586:.\Generated_Source\PSoC5/uart_solinst.c ****                     #if( (uart_solinst_RX_INTERRUPT_ENABLED) && (uart_solinst_FLOW_CONTROL != 0u) )
 587:.\Generated_Source\PSoC5/uart_solinst.c ****                         /* When Hardware Flow Control selected - return RX mask */
 588:.\Generated_Source\PSoC5/uart_solinst.c ****                         #if( uart_solinst_HD_ENABLED )
 589:.\Generated_Source\PSoC5/uart_solinst.c ****                             if((uart_solinst_CONTROL_REG & uart_solinst_CTRL_HD_SEND) == 0u)
 590:.\Generated_Source\PSoC5/uart_solinst.c ****                             {   /* In Half duplex mode return RX mask only if
 591:.\Generated_Source\PSoC5/uart_solinst.c ****                                 *  RX configuration set, otherwise
 592:.\Generated_Source\PSoC5/uart_solinst.c ****                                 *  mask will be returned in LoadRxConfig() API.
 593:.\Generated_Source\PSoC5/uart_solinst.c ****                                 */
 594:.\Generated_Source\PSoC5/uart_solinst.c ****                                 uart_solinst_RXSTATUS_MASK_REG  |= uart_solinst_RX_STS_FIFO_NOTEMPT
 595:.\Generated_Source\PSoC5/uart_solinst.c ****                             }
 596:.\Generated_Source\PSoC5/uart_solinst.c ****                         #else
 597:.\Generated_Source\PSoC5/uart_solinst.c ****                             uart_solinst_RXSTATUS_MASK_REG  |= uart_solinst_RX_STS_FIFO_NOTEMPTY;
 598:.\Generated_Source\PSoC5/uart_solinst.c ****                         #endif /* end uart_solinst_HD_ENABLED */
ARM GAS  C:\Users\karunmj\AppData\Local\Temp\ccOxugR9.s 			page 20


 599:.\Generated_Source\PSoC5/uart_solinst.c ****                     #endif /* uart_solinst_RX_INTERRUPT_ENABLED and Hardware flow control*/
 600:.\Generated_Source\PSoC5/uart_solinst.c ****                 }
 601:.\Generated_Source\PSoC5/uart_solinst.c **** 
 602:.\Generated_Source\PSoC5/uart_solinst.c ****             }
 603:.\Generated_Source\PSoC5/uart_solinst.c ****             else
 604:.\Generated_Source\PSoC5/uart_solinst.c ****             {   rxStatus = uart_solinst_RXSTATUS_REG;
 605:.\Generated_Source\PSoC5/uart_solinst.c ****                 if((rxStatus & uart_solinst_RX_STS_FIFO_NOTEMPTY) != 0u)
 606:.\Generated_Source\PSoC5/uart_solinst.c ****                 {   /* Read received data from FIFO*/
 607:.\Generated_Source\PSoC5/uart_solinst.c ****                     rxData = uart_solinst_RXDATA_REG;
 608:.\Generated_Source\PSoC5/uart_solinst.c ****                     /*Check status on error*/
 609:.\Generated_Source\PSoC5/uart_solinst.c ****                     if((rxStatus & (uart_solinst_RX_STS_BREAK | uart_solinst_RX_STS_PAR_ERROR |
 610:.\Generated_Source\PSoC5/uart_solinst.c ****                                    uart_solinst_RX_STS_STOP_ERROR | uart_solinst_RX_STS_OVERRUN)) !
 611:.\Generated_Source\PSoC5/uart_solinst.c ****                     {
 612:.\Generated_Source\PSoC5/uart_solinst.c ****                         rxData = 0u;
 613:.\Generated_Source\PSoC5/uart_solinst.c ****                     }
 614:.\Generated_Source\PSoC5/uart_solinst.c ****                 }
 615:.\Generated_Source\PSoC5/uart_solinst.c ****             }
 616:.\Generated_Source\PSoC5/uart_solinst.c **** 
 617:.\Generated_Source\PSoC5/uart_solinst.c ****             /* Enable Rx interrupt. */
 618:.\Generated_Source\PSoC5/uart_solinst.c ****             #if(uart_solinst_RX_INTERRUPT_ENABLED)
 619:.\Generated_Source\PSoC5/uart_solinst.c ****                 uart_solinst_EnableRxInt();
 620:.\Generated_Source\PSoC5/uart_solinst.c ****             #endif /* uart_solinst_RX_INTERRUPT_ENABLED */
 621:.\Generated_Source\PSoC5/uart_solinst.c **** 
 622:.\Generated_Source\PSoC5/uart_solinst.c ****         #else /* uart_solinst_RXBUFFERSIZE > uart_solinst_FIFO_LENGTH */
 623:.\Generated_Source\PSoC5/uart_solinst.c **** 
 624:.\Generated_Source\PSoC5/uart_solinst.c ****             rxStatus =uart_solinst_RXSTATUS_REG;
 482              		.loc 1 624 0
 483 000c 46F26D43 		movw	r3, #:lower16:1073767533
 484 0010 C4F20003 		movt	r3, #:upper16:1073767533
 485 0014 1B78     		ldrb	r3, [r3, #0]
 486 0016 FB71     		strb	r3, [r7, #7]
 625:.\Generated_Source\PSoC5/uart_solinst.c ****             if((rxStatus & uart_solinst_RX_STS_FIFO_NOTEMPTY) != 0u)
 487              		.loc 1 625 0
 488 0018 FB79     		ldrb	r3, [r7, #7]	@ zero_extendqisi2
 489 001a 03F02003 		and	r3, r3, #32
 490 001e 002B     		cmp	r3, #0
 491 0020 0DD0     		beq	.L21
 626:.\Generated_Source\PSoC5/uart_solinst.c ****             {   /* Read received data from FIFO*/
 627:.\Generated_Source\PSoC5/uart_solinst.c ****                 rxData = uart_solinst_RXDATA_REG;
 492              		.loc 1 627 0
 493 0022 46F24D43 		movw	r3, #:lower16:1073767501
 494 0026 C4F20003 		movt	r3, #:upper16:1073767501
 495 002a 1B78     		ldrb	r3, [r3, #0]
 496 002c BB71     		strb	r3, [r7, #6]
 628:.\Generated_Source\PSoC5/uart_solinst.c ****                 /*Check status on error*/
 629:.\Generated_Source\PSoC5/uart_solinst.c ****                 if((rxStatus & (uart_solinst_RX_STS_BREAK | uart_solinst_RX_STS_PAR_ERROR |
 497              		.loc 1 629 0
 498 002e FB79     		ldrb	r3, [r7, #7]	@ zero_extendqisi2
 499 0030 03F01E03 		and	r3, r3, #30
 500 0034 002B     		cmp	r3, #0
 501 0036 02D0     		beq	.L21
 630:.\Generated_Source\PSoC5/uart_solinst.c ****                                uart_solinst_RX_STS_STOP_ERROR | uart_solinst_RX_STS_OVERRUN)) != 0u
 631:.\Generated_Source\PSoC5/uart_solinst.c ****                 {
 632:.\Generated_Source\PSoC5/uart_solinst.c ****                     rxData = 0u;
 502              		.loc 1 632 0
 503 0038 4FF00003 		mov	r3, #0
 504 003c BB71     		strb	r3, [r7, #6]
ARM GAS  C:\Users\karunmj\AppData\Local\Temp\ccOxugR9.s 			page 21


 505              	.L21:
 633:.\Generated_Source\PSoC5/uart_solinst.c ****                 }
 634:.\Generated_Source\PSoC5/uart_solinst.c ****             }
 635:.\Generated_Source\PSoC5/uart_solinst.c ****         #endif /* uart_solinst_RXBUFFERSIZE > uart_solinst_FIFO_LENGTH */
 636:.\Generated_Source\PSoC5/uart_solinst.c **** 
 637:.\Generated_Source\PSoC5/uart_solinst.c ****         return(rxData);
 506              		.loc 1 637 0
 507 003e BB79     		ldrb	r3, [r7, #6]	@ zero_extendqisi2
 638:.\Generated_Source\PSoC5/uart_solinst.c ****     }
 508              		.loc 1 638 0
 509 0040 1846     		mov	r0, r3
 510 0042 07F10C07 		add	r7, r7, #12
 511 0046 BD46     		mov	sp, r7
 512 0048 80BC     		pop	{r7}
 513 004a 7047     		bx	lr
 514              		.cfi_endproc
 515              	.LFE9:
 516              		.size	uart_solinst_GetChar, .-uart_solinst_GetChar
 517              		.section	.text.uart_solinst_GetByte,"ax",%progbits
 518              		.align	2
 519              		.global	uart_solinst_GetByte
 520              		.thumb
 521              		.thumb_func
 522              		.type	uart_solinst_GetByte, %function
 523              	uart_solinst_GetByte:
 524              	.LFB10:
 639:.\Generated_Source\PSoC5/uart_solinst.c **** 
 640:.\Generated_Source\PSoC5/uart_solinst.c **** 
 641:.\Generated_Source\PSoC5/uart_solinst.c ****     /*******************************************************************************
 642:.\Generated_Source\PSoC5/uart_solinst.c ****     * Function Name: uart_solinst_GetByte
 643:.\Generated_Source\PSoC5/uart_solinst.c ****     ********************************************************************************
 644:.\Generated_Source\PSoC5/uart_solinst.c ****     *
 645:.\Generated_Source\PSoC5/uart_solinst.c ****     * Summary:
 646:.\Generated_Source\PSoC5/uart_solinst.c ****     *  Grab the next available byte of data from the recieve FIFO
 647:.\Generated_Source\PSoC5/uart_solinst.c ****     *
 648:.\Generated_Source\PSoC5/uart_solinst.c ****     * Parameters:
 649:.\Generated_Source\PSoC5/uart_solinst.c ****     *  None.
 650:.\Generated_Source\PSoC5/uart_solinst.c ****     *
 651:.\Generated_Source\PSoC5/uart_solinst.c ****     * Return:
 652:.\Generated_Source\PSoC5/uart_solinst.c ****     *  MSB contains Status Register and LSB contains UART RX data
 653:.\Generated_Source\PSoC5/uart_solinst.c ****     *
 654:.\Generated_Source\PSoC5/uart_solinst.c ****     * Reentrant:
 655:.\Generated_Source\PSoC5/uart_solinst.c ****     *  No.
 656:.\Generated_Source\PSoC5/uart_solinst.c ****     *
 657:.\Generated_Source\PSoC5/uart_solinst.c ****     *******************************************************************************/
 658:.\Generated_Source\PSoC5/uart_solinst.c ****     uint16 uart_solinst_GetByte(void) 
 659:.\Generated_Source\PSoC5/uart_solinst.c ****     {
 525              		.loc 1 659 0
 526              		.cfi_startproc
 527              		@ args = 0, pretend = 0, frame = 0
 528              		@ frame_needed = 1, uses_anonymous_args = 0
 529 0000 98B5     		push	{r3, r4, r7, lr}
 530              	.LCFI27:
 531              		.cfi_def_cfa_offset 16
 532 0002 00AF     		add	r7, sp, #0
 533              		.cfi_offset 14, -4
 534              		.cfi_offset 7, -8
ARM GAS  C:\Users\karunmj\AppData\Local\Temp\ccOxugR9.s 			page 22


 535              		.cfi_offset 4, -12
 536              		.cfi_offset 3, -16
 537              	.LCFI28:
 538              		.cfi_def_cfa_register 7
 660:.\Generated_Source\PSoC5/uart_solinst.c ****         return ( ((uint16)uart_solinst_ReadRxStatus() << 8u) | uart_solinst_ReadRxData() );
 539              		.loc 1 660 0
 540 0004 FFF7FEFF 		bl	uart_solinst_ReadRxStatus
 541 0008 0346     		mov	r3, r0
 542 000a 4FEA0323 		lsl	r3, r3, #8
 543 000e 9CB2     		uxth	r4, r3
 544 0010 FFF7FEFF 		bl	uart_solinst_ReadRxData
 545 0014 0346     		mov	r3, r0
 546 0016 2246     		mov	r2, r4	@ movhi
 547 0018 42EA0303 		orr	r3, r2, r3
 548 001c 9BB2     		uxth	r3, r3
 549 001e 9BB2     		uxth	r3, r3
 661:.\Generated_Source\PSoC5/uart_solinst.c ****     }
 550              		.loc 1 661 0
 551 0020 1846     		mov	r0, r3
 552 0022 98BD     		pop	{r3, r4, r7, pc}
 553              		.cfi_endproc
 554              	.LFE10:
 555              		.size	uart_solinst_GetByte, .-uart_solinst_GetByte
 556              		.section	.text.uart_solinst_GetRxBufferSize,"ax",%progbits
 557              		.align	2
 558              		.global	uart_solinst_GetRxBufferSize
 559              		.thumb
 560              		.thumb_func
 561              		.type	uart_solinst_GetRxBufferSize, %function
 562              	uart_solinst_GetRxBufferSize:
 563              	.LFB11:
 662:.\Generated_Source\PSoC5/uart_solinst.c **** 
 663:.\Generated_Source\PSoC5/uart_solinst.c **** 
 664:.\Generated_Source\PSoC5/uart_solinst.c ****     /*******************************************************************************
 665:.\Generated_Source\PSoC5/uart_solinst.c ****     * Function Name: uart_solinst_GetRxBufferSize
 666:.\Generated_Source\PSoC5/uart_solinst.c ****     ********************************************************************************
 667:.\Generated_Source\PSoC5/uart_solinst.c ****     *
 668:.\Generated_Source\PSoC5/uart_solinst.c ****     * Summary:
 669:.\Generated_Source\PSoC5/uart_solinst.c ****     *  Determine the amount of bytes left in the RX buffer and return the count in
 670:.\Generated_Source\PSoC5/uart_solinst.c ****     *  bytes
 671:.\Generated_Source\PSoC5/uart_solinst.c ****     *
 672:.\Generated_Source\PSoC5/uart_solinst.c ****     * Parameters:
 673:.\Generated_Source\PSoC5/uart_solinst.c ****     *  None.
 674:.\Generated_Source\PSoC5/uart_solinst.c ****     *
 675:.\Generated_Source\PSoC5/uart_solinst.c ****     * Return:
 676:.\Generated_Source\PSoC5/uart_solinst.c ****     *  uint8: Integer count of the number of bytes left
 677:.\Generated_Source\PSoC5/uart_solinst.c ****     *  in the RX buffer
 678:.\Generated_Source\PSoC5/uart_solinst.c ****     *
 679:.\Generated_Source\PSoC5/uart_solinst.c ****     * Global Variables:
 680:.\Generated_Source\PSoC5/uart_solinst.c ****     *  uart_solinst_rxBufferWrite - used to calculate left bytes.
 681:.\Generated_Source\PSoC5/uart_solinst.c ****     *  uart_solinst_rxBufferRead - used to calculate left bytes.
 682:.\Generated_Source\PSoC5/uart_solinst.c ****     *  uart_solinst_rxBufferLoopDetect - checked to decide left bytes amount.
 683:.\Generated_Source\PSoC5/uart_solinst.c ****     *
 684:.\Generated_Source\PSoC5/uart_solinst.c ****     * Reentrant:
 685:.\Generated_Source\PSoC5/uart_solinst.c ****     *  No.
 686:.\Generated_Source\PSoC5/uart_solinst.c ****     *
 687:.\Generated_Source\PSoC5/uart_solinst.c ****     * Theory:
ARM GAS  C:\Users\karunmj\AppData\Local\Temp\ccOxugR9.s 			page 23


 688:.\Generated_Source\PSoC5/uart_solinst.c ****     *  Allows the user to find out how full the RX Buffer is.
 689:.\Generated_Source\PSoC5/uart_solinst.c ****     *
 690:.\Generated_Source\PSoC5/uart_solinst.c ****     *******************************************************************************/
 691:.\Generated_Source\PSoC5/uart_solinst.c ****     uint8 uart_solinst_GetRxBufferSize(void)
 692:.\Generated_Source\PSoC5/uart_solinst.c ****                                                             
 693:.\Generated_Source\PSoC5/uart_solinst.c ****     {
 564              		.loc 1 693 0
 565              		.cfi_startproc
 566              		@ args = 0, pretend = 0, frame = 8
 567              		@ frame_needed = 1, uses_anonymous_args = 0
 568              		@ link register save eliminated.
 569 0000 80B4     		push	{r7}
 570              	.LCFI29:
 571              		.cfi_def_cfa_offset 4
 572 0002 83B0     		sub	sp, sp, #12
 573              	.LCFI30:
 574              		.cfi_def_cfa_offset 16
 575 0004 00AF     		add	r7, sp, #0
 576              		.cfi_offset 7, -4
 577              	.LCFI31:
 578              		.cfi_def_cfa_register 7
 694:.\Generated_Source\PSoC5/uart_solinst.c ****         uint8 size;
 695:.\Generated_Source\PSoC5/uart_solinst.c **** 
 696:.\Generated_Source\PSoC5/uart_solinst.c ****         #if(uart_solinst_RXBUFFERSIZE > uart_solinst_FIFO_LENGTH)
 697:.\Generated_Source\PSoC5/uart_solinst.c **** 
 698:.\Generated_Source\PSoC5/uart_solinst.c ****             /* Disable Rx interrupt. */
 699:.\Generated_Source\PSoC5/uart_solinst.c ****             /* Protect variables that could change on interrupt. */
 700:.\Generated_Source\PSoC5/uart_solinst.c ****             #if(uart_solinst_RX_INTERRUPT_ENABLED)
 701:.\Generated_Source\PSoC5/uart_solinst.c ****                 uart_solinst_DisableRxInt();
 702:.\Generated_Source\PSoC5/uart_solinst.c ****             #endif /* uart_solinst_RX_INTERRUPT_ENABLED */
 703:.\Generated_Source\PSoC5/uart_solinst.c **** 
 704:.\Generated_Source\PSoC5/uart_solinst.c ****             if(uart_solinst_rxBufferRead == uart_solinst_rxBufferWrite)
 705:.\Generated_Source\PSoC5/uart_solinst.c ****             {
 706:.\Generated_Source\PSoC5/uart_solinst.c ****                 if(uart_solinst_rxBufferLoopDetect > 0u)
 707:.\Generated_Source\PSoC5/uart_solinst.c ****                 {
 708:.\Generated_Source\PSoC5/uart_solinst.c ****                     size = uart_solinst_RXBUFFERSIZE;
 709:.\Generated_Source\PSoC5/uart_solinst.c ****                 }
 710:.\Generated_Source\PSoC5/uart_solinst.c ****                 else
 711:.\Generated_Source\PSoC5/uart_solinst.c ****                 {
 712:.\Generated_Source\PSoC5/uart_solinst.c ****                     size = 0u;
 713:.\Generated_Source\PSoC5/uart_solinst.c ****                 }
 714:.\Generated_Source\PSoC5/uart_solinst.c ****             }
 715:.\Generated_Source\PSoC5/uart_solinst.c ****             else if(uart_solinst_rxBufferRead < uart_solinst_rxBufferWrite)
 716:.\Generated_Source\PSoC5/uart_solinst.c ****             {
 717:.\Generated_Source\PSoC5/uart_solinst.c ****                 size = (uart_solinst_rxBufferWrite - uart_solinst_rxBufferRead);
 718:.\Generated_Source\PSoC5/uart_solinst.c ****             }
 719:.\Generated_Source\PSoC5/uart_solinst.c ****             else
 720:.\Generated_Source\PSoC5/uart_solinst.c ****             {
 721:.\Generated_Source\PSoC5/uart_solinst.c ****                 size = (uart_solinst_RXBUFFERSIZE - uart_solinst_rxBufferRead) + uart_solinst_rxBuf
 722:.\Generated_Source\PSoC5/uart_solinst.c ****             }
 723:.\Generated_Source\PSoC5/uart_solinst.c **** 
 724:.\Generated_Source\PSoC5/uart_solinst.c ****             /* Enable Rx interrupt. */
 725:.\Generated_Source\PSoC5/uart_solinst.c ****             #if(uart_solinst_RX_INTERRUPT_ENABLED)
 726:.\Generated_Source\PSoC5/uart_solinst.c ****                 uart_solinst_EnableRxInt();
 727:.\Generated_Source\PSoC5/uart_solinst.c ****             #endif /* End uart_solinst_RX_INTERRUPT_ENABLED */
 728:.\Generated_Source\PSoC5/uart_solinst.c **** 
 729:.\Generated_Source\PSoC5/uart_solinst.c ****         #else /* uart_solinst_RXBUFFERSIZE > uart_solinst_FIFO_LENGTH */
ARM GAS  C:\Users\karunmj\AppData\Local\Temp\ccOxugR9.s 			page 24


 730:.\Generated_Source\PSoC5/uart_solinst.c **** 
 731:.\Generated_Source\PSoC5/uart_solinst.c ****             /* We can only know if there is data in the fifo. */
 732:.\Generated_Source\PSoC5/uart_solinst.c ****             size = ((uart_solinst_RXSTATUS_REG & uart_solinst_RX_STS_FIFO_NOTEMPTY) != 0u) ? 1u : 0
 579              		.loc 1 732 0
 580 0006 46F26D43 		movw	r3, #:lower16:1073767533
 581 000a C4F20003 		movt	r3, #:upper16:1073767533
 582 000e 1B78     		ldrb	r3, [r3, #0]
 583 0010 DBB2     		uxtb	r3, r3
 584 0012 03F02003 		and	r3, r3, #32
 585 0016 002B     		cmp	r3, #0
 586 0018 02D0     		beq	.L26
 587 001a 4FF00103 		mov	r3, #1
 588 001e 01E0     		b	.L27
 589              	.L26:
 590 0020 4FF00003 		mov	r3, #0
 591              	.L27:
 592 0024 FB71     		strb	r3, [r7, #7]
 733:.\Generated_Source\PSoC5/uart_solinst.c **** 
 734:.\Generated_Source\PSoC5/uart_solinst.c ****         #endif /* End uart_solinst_RXBUFFERSIZE > uart_solinst_FIFO_LENGTH */
 735:.\Generated_Source\PSoC5/uart_solinst.c **** 
 736:.\Generated_Source\PSoC5/uart_solinst.c ****         return(size);
 593              		.loc 1 736 0
 594 0026 FB79     		ldrb	r3, [r7, #7]	@ zero_extendqisi2
 737:.\Generated_Source\PSoC5/uart_solinst.c ****     }
 595              		.loc 1 737 0
 596 0028 1846     		mov	r0, r3
 597 002a 07F10C07 		add	r7, r7, #12
 598 002e BD46     		mov	sp, r7
 599 0030 80BC     		pop	{r7}
 600 0032 7047     		bx	lr
 601              		.cfi_endproc
 602              	.LFE11:
 603              		.size	uart_solinst_GetRxBufferSize, .-uart_solinst_GetRxBufferSize
 604              		.section	.text.uart_solinst_ClearRxBuffer,"ax",%progbits
 605              		.align	2
 606              		.global	uart_solinst_ClearRxBuffer
 607              		.thumb
 608              		.thumb_func
 609              		.type	uart_solinst_ClearRxBuffer, %function
 610              	uart_solinst_ClearRxBuffer:
 611              	.LFB12:
 738:.\Generated_Source\PSoC5/uart_solinst.c **** 
 739:.\Generated_Source\PSoC5/uart_solinst.c **** 
 740:.\Generated_Source\PSoC5/uart_solinst.c ****     /*******************************************************************************
 741:.\Generated_Source\PSoC5/uart_solinst.c ****     * Function Name: uart_solinst_ClearRxBuffer
 742:.\Generated_Source\PSoC5/uart_solinst.c ****     ********************************************************************************
 743:.\Generated_Source\PSoC5/uart_solinst.c ****     *
 744:.\Generated_Source\PSoC5/uart_solinst.c ****     * Summary:
 745:.\Generated_Source\PSoC5/uart_solinst.c ****     *  Clears the RX RAM buffer by setting the read and write pointers both to zero.
 746:.\Generated_Source\PSoC5/uart_solinst.c ****     *  Clears hardware RX FIFO.
 747:.\Generated_Source\PSoC5/uart_solinst.c ****     *
 748:.\Generated_Source\PSoC5/uart_solinst.c ****     * Parameters:
 749:.\Generated_Source\PSoC5/uart_solinst.c ****     *  None.
 750:.\Generated_Source\PSoC5/uart_solinst.c ****     *
 751:.\Generated_Source\PSoC5/uart_solinst.c ****     * Return:
 752:.\Generated_Source\PSoC5/uart_solinst.c ****     *  None.
 753:.\Generated_Source\PSoC5/uart_solinst.c ****     *
ARM GAS  C:\Users\karunmj\AppData\Local\Temp\ccOxugR9.s 			page 25


 754:.\Generated_Source\PSoC5/uart_solinst.c ****     * Global Variables:
 755:.\Generated_Source\PSoC5/uart_solinst.c ****     *  uart_solinst_rxBufferWrite - cleared to zero.
 756:.\Generated_Source\PSoC5/uart_solinst.c ****     *  uart_solinst_rxBufferRead - cleared to zero.
 757:.\Generated_Source\PSoC5/uart_solinst.c ****     *  uart_solinst_rxBufferLoopDetect - cleared to zero.
 758:.\Generated_Source\PSoC5/uart_solinst.c ****     *  uart_solinst_rxBufferOverflow - cleared to zero.
 759:.\Generated_Source\PSoC5/uart_solinst.c ****     *
 760:.\Generated_Source\PSoC5/uart_solinst.c ****     * Reentrant:
 761:.\Generated_Source\PSoC5/uart_solinst.c ****     *  No.
 762:.\Generated_Source\PSoC5/uart_solinst.c ****     *
 763:.\Generated_Source\PSoC5/uart_solinst.c ****     * Theory:
 764:.\Generated_Source\PSoC5/uart_solinst.c ****     *  Setting the pointers to zero makes the system believe there is no data to
 765:.\Generated_Source\PSoC5/uart_solinst.c ****     *  read and writing will resume at address 0 overwriting any data that may
 766:.\Generated_Source\PSoC5/uart_solinst.c ****     *  have remained in the RAM.
 767:.\Generated_Source\PSoC5/uart_solinst.c ****     *
 768:.\Generated_Source\PSoC5/uart_solinst.c ****     * Side Effects:
 769:.\Generated_Source\PSoC5/uart_solinst.c ****     *  Any received data not read from the RAM or FIFO buffer will be lost.
 770:.\Generated_Source\PSoC5/uart_solinst.c ****     *******************************************************************************/
 771:.\Generated_Source\PSoC5/uart_solinst.c ****     void uart_solinst_ClearRxBuffer(void) 
 772:.\Generated_Source\PSoC5/uart_solinst.c ****     {
 612              		.loc 1 772 0
 613              		.cfi_startproc
 614              		@ args = 0, pretend = 0, frame = 8
 615              		@ frame_needed = 1, uses_anonymous_args = 0
 616 0000 80B5     		push	{r7, lr}
 617              	.LCFI32:
 618              		.cfi_def_cfa_offset 8
 619 0002 82B0     		sub	sp, sp, #8
 620              	.LCFI33:
 621              		.cfi_def_cfa_offset 16
 622 0004 00AF     		add	r7, sp, #0
 623              		.cfi_offset 14, -4
 624              		.cfi_offset 7, -8
 625              	.LCFI34:
 626              		.cfi_def_cfa_register 7
 773:.\Generated_Source\PSoC5/uart_solinst.c ****         uint8 enableInterrupts;
 774:.\Generated_Source\PSoC5/uart_solinst.c **** 
 775:.\Generated_Source\PSoC5/uart_solinst.c ****         /* clear the HW FIFO */
 776:.\Generated_Source\PSoC5/uart_solinst.c ****         /* Enter critical section */
 777:.\Generated_Source\PSoC5/uart_solinst.c ****         enableInterrupts = CyEnterCriticalSection();
 627              		.loc 1 777 0
 628 0006 FFF7FEFF 		bl	CyEnterCriticalSection
 629 000a 0346     		mov	r3, r0
 630 000c FB71     		strb	r3, [r7, #7]
 778:.\Generated_Source\PSoC5/uart_solinst.c ****         uart_solinst_RXDATA_AUX_CTL_REG |=  uart_solinst_RX_FIFO_CLR;
 631              		.loc 1 778 0
 632 000e 46F29D43 		movw	r3, #:lower16:1073767581
 633 0012 C4F20003 		movt	r3, #:upper16:1073767581
 634 0016 46F29D42 		movw	r2, #:lower16:1073767581
 635 001a C4F20002 		movt	r2, #:upper16:1073767581
 636 001e 1278     		ldrb	r2, [r2, #0]
 637 0020 D2B2     		uxtb	r2, r2
 638 0022 42F00102 		orr	r2, r2, #1
 639 0026 D2B2     		uxtb	r2, r2
 640 0028 1A70     		strb	r2, [r3, #0]
 779:.\Generated_Source\PSoC5/uart_solinst.c ****         uart_solinst_RXDATA_AUX_CTL_REG &= (uint8)~uart_solinst_RX_FIFO_CLR;
 641              		.loc 1 779 0
 642 002a 46F29D43 		movw	r3, #:lower16:1073767581
ARM GAS  C:\Users\karunmj\AppData\Local\Temp\ccOxugR9.s 			page 26


 643 002e C4F20003 		movt	r3, #:upper16:1073767581
 644 0032 46F29D42 		movw	r2, #:lower16:1073767581
 645 0036 C4F20002 		movt	r2, #:upper16:1073767581
 646 003a 1278     		ldrb	r2, [r2, #0]
 647 003c D2B2     		uxtb	r2, r2
 648 003e 02F0FE02 		and	r2, r2, #254
 649 0042 1A70     		strb	r2, [r3, #0]
 780:.\Generated_Source\PSoC5/uart_solinst.c ****         /* Exit critical section */
 781:.\Generated_Source\PSoC5/uart_solinst.c ****         CyExitCriticalSection(enableInterrupts);
 650              		.loc 1 781 0
 651 0044 FB79     		ldrb	r3, [r7, #7]	@ zero_extendqisi2
 652 0046 1846     		mov	r0, r3
 653 0048 FFF7FEFF 		bl	CyExitCriticalSection
 782:.\Generated_Source\PSoC5/uart_solinst.c **** 
 783:.\Generated_Source\PSoC5/uart_solinst.c ****         #if(uart_solinst_RXBUFFERSIZE > uart_solinst_FIFO_LENGTH)
 784:.\Generated_Source\PSoC5/uart_solinst.c ****             /* Disable Rx interrupt. */
 785:.\Generated_Source\PSoC5/uart_solinst.c ****             /* Protect variables that could change on interrupt. */
 786:.\Generated_Source\PSoC5/uart_solinst.c ****             #if(uart_solinst_RX_INTERRUPT_ENABLED)
 787:.\Generated_Source\PSoC5/uart_solinst.c ****                 uart_solinst_DisableRxInt();
 788:.\Generated_Source\PSoC5/uart_solinst.c ****             #endif /* End uart_solinst_RX_INTERRUPT_ENABLED */
 789:.\Generated_Source\PSoC5/uart_solinst.c **** 
 790:.\Generated_Source\PSoC5/uart_solinst.c ****             uart_solinst_rxBufferRead = 0u;
 791:.\Generated_Source\PSoC5/uart_solinst.c ****             uart_solinst_rxBufferWrite = 0u;
 792:.\Generated_Source\PSoC5/uart_solinst.c ****             uart_solinst_rxBufferLoopDetect = 0u;
 793:.\Generated_Source\PSoC5/uart_solinst.c ****             uart_solinst_rxBufferOverflow = 0u;
 794:.\Generated_Source\PSoC5/uart_solinst.c **** 
 795:.\Generated_Source\PSoC5/uart_solinst.c ****             /* Enable Rx interrupt. */
 796:.\Generated_Source\PSoC5/uart_solinst.c ****             #if(uart_solinst_RX_INTERRUPT_ENABLED)
 797:.\Generated_Source\PSoC5/uart_solinst.c ****                 uart_solinst_EnableRxInt();
 798:.\Generated_Source\PSoC5/uart_solinst.c ****             #endif /* End uart_solinst_RX_INTERRUPT_ENABLED */
 799:.\Generated_Source\PSoC5/uart_solinst.c ****         #endif /* End uart_solinst_RXBUFFERSIZE > uart_solinst_FIFO_LENGTH */
 800:.\Generated_Source\PSoC5/uart_solinst.c **** 
 801:.\Generated_Source\PSoC5/uart_solinst.c ****     }
 654              		.loc 1 801 0
 655 004c 07F10807 		add	r7, r7, #8
 656 0050 BD46     		mov	sp, r7
 657 0052 80BD     		pop	{r7, pc}
 658              		.cfi_endproc
 659              	.LFE12:
 660              		.size	uart_solinst_ClearRxBuffer, .-uart_solinst_ClearRxBuffer
 661              		.section	.text.uart_solinst_SetRxAddressMode,"ax",%progbits
 662              		.align	2
 663              		.global	uart_solinst_SetRxAddressMode
 664              		.thumb
 665              		.thumb_func
 666              		.type	uart_solinst_SetRxAddressMode, %function
 667              	uart_solinst_SetRxAddressMode:
 668              	.LFB13:
 802:.\Generated_Source\PSoC5/uart_solinst.c **** 
 803:.\Generated_Source\PSoC5/uart_solinst.c **** 
 804:.\Generated_Source\PSoC5/uart_solinst.c ****     /*******************************************************************************
 805:.\Generated_Source\PSoC5/uart_solinst.c ****     * Function Name: uart_solinst_SetRxAddressMode
 806:.\Generated_Source\PSoC5/uart_solinst.c ****     ********************************************************************************
 807:.\Generated_Source\PSoC5/uart_solinst.c ****     *
 808:.\Generated_Source\PSoC5/uart_solinst.c ****     * Summary:
 809:.\Generated_Source\PSoC5/uart_solinst.c ****     *  Set the receive addressing mode
 810:.\Generated_Source\PSoC5/uart_solinst.c ****     *
ARM GAS  C:\Users\karunmj\AppData\Local\Temp\ccOxugR9.s 			page 27


 811:.\Generated_Source\PSoC5/uart_solinst.c ****     * Parameters:
 812:.\Generated_Source\PSoC5/uart_solinst.c ****     *  addressMode: Enumerated value indicating the mode of RX addressing
 813:.\Generated_Source\PSoC5/uart_solinst.c ****     *  uart_solinst__B_UART__AM_SW_BYTE_BYTE -  Software Byte-by-Byte address
 814:.\Generated_Source\PSoC5/uart_solinst.c ****     *                                               detection
 815:.\Generated_Source\PSoC5/uart_solinst.c ****     *  uart_solinst__B_UART__AM_SW_DETECT_TO_BUFFER - Software Detect to Buffer
 816:.\Generated_Source\PSoC5/uart_solinst.c ****     *                                               address detection
 817:.\Generated_Source\PSoC5/uart_solinst.c ****     *  uart_solinst__B_UART__AM_HW_BYTE_BY_BYTE - Hardware Byte-by-Byte address
 818:.\Generated_Source\PSoC5/uart_solinst.c ****     *                                               detection
 819:.\Generated_Source\PSoC5/uart_solinst.c ****     *  uart_solinst__B_UART__AM_HW_DETECT_TO_BUFFER - Hardware Detect to Buffer
 820:.\Generated_Source\PSoC5/uart_solinst.c ****     *                                               address detection
 821:.\Generated_Source\PSoC5/uart_solinst.c ****     *  uart_solinst__B_UART__AM_NONE - No address detection
 822:.\Generated_Source\PSoC5/uart_solinst.c ****     *
 823:.\Generated_Source\PSoC5/uart_solinst.c ****     * Return:
 824:.\Generated_Source\PSoC5/uart_solinst.c ****     *  None.
 825:.\Generated_Source\PSoC5/uart_solinst.c ****     *
 826:.\Generated_Source\PSoC5/uart_solinst.c ****     * Global Variables:
 827:.\Generated_Source\PSoC5/uart_solinst.c ****     *  uart_solinst_rxAddressMode - the parameter stored in this variable for
 828:.\Generated_Source\PSoC5/uart_solinst.c ****     *   the farther usage in RX ISR.
 829:.\Generated_Source\PSoC5/uart_solinst.c ****     *  uart_solinst_rxAddressDetected - set to initial state (0).
 830:.\Generated_Source\PSoC5/uart_solinst.c ****     *
 831:.\Generated_Source\PSoC5/uart_solinst.c ****     *******************************************************************************/
 832:.\Generated_Source\PSoC5/uart_solinst.c ****     void uart_solinst_SetRxAddressMode(uint8 addressMode)
 833:.\Generated_Source\PSoC5/uart_solinst.c ****                                                         
 834:.\Generated_Source\PSoC5/uart_solinst.c ****     {
 669              		.loc 1 834 0
 670              		.cfi_startproc
 671              		@ args = 0, pretend = 0, frame = 16
 672              		@ frame_needed = 1, uses_anonymous_args = 0
 673              		@ link register save eliminated.
 674 0000 80B4     		push	{r7}
 675              	.LCFI35:
 676              		.cfi_def_cfa_offset 4
 677 0002 85B0     		sub	sp, sp, #20
 678              	.LCFI36:
 679              		.cfi_def_cfa_offset 24
 680 0004 00AF     		add	r7, sp, #0
 681              		.cfi_offset 7, -4
 682              	.LCFI37:
 683              		.cfi_def_cfa_register 7
 684 0006 0346     		mov	r3, r0
 685 0008 FB71     		strb	r3, [r7, #7]
 835:.\Generated_Source\PSoC5/uart_solinst.c ****         #if(uart_solinst_RXHW_ADDRESS_ENABLED)
 836:.\Generated_Source\PSoC5/uart_solinst.c ****             #if(uart_solinst_CONTROL_REG_REMOVED)
 837:.\Generated_Source\PSoC5/uart_solinst.c ****                 if(addressMode != 0u) { }     /* release compiler warning */
 838:.\Generated_Source\PSoC5/uart_solinst.c ****             #else /* uart_solinst_CONTROL_REG_REMOVED */
 839:.\Generated_Source\PSoC5/uart_solinst.c ****                 uint8 tmpCtrl;
 840:.\Generated_Source\PSoC5/uart_solinst.c ****                 tmpCtrl = uart_solinst_CONTROL_REG & (uint8)~uart_solinst_CTRL_RXADDR_MODE_MASK;
 686              		.loc 1 840 0
 687 000a 46F27943 		movw	r3, #:lower16:1073767545
 688 000e C4F20003 		movt	r3, #:upper16:1073767545
 689 0012 1B78     		ldrb	r3, [r3, #0]
 690 0014 DBB2     		uxtb	r3, r3
 691 0016 03F01F03 		and	r3, r3, #31
 692 001a FB73     		strb	r3, [r7, #15]
 841:.\Generated_Source\PSoC5/uart_solinst.c ****                 tmpCtrl |= (uint8)(addressMode << uart_solinst_CTRL_RXADDR_MODE0_SHIFT);
 693              		.loc 1 841 0
 694 001c FB79     		ldrb	r3, [r7, #7]
ARM GAS  C:\Users\karunmj\AppData\Local\Temp\ccOxugR9.s 			page 28


 695 001e 4FEA4313 		lsl	r3, r3, #5
 696 0022 DAB2     		uxtb	r2, r3
 697 0024 FB7B     		ldrb	r3, [r7, #15]
 698 0026 42EA0303 		orr	r3, r2, r3
 699 002a FB73     		strb	r3, [r7, #15]
 842:.\Generated_Source\PSoC5/uart_solinst.c ****                 uart_solinst_CONTROL_REG = tmpCtrl;
 700              		.loc 1 842 0
 701 002c 46F27943 		movw	r3, #:lower16:1073767545
 702 0030 C4F20003 		movt	r3, #:upper16:1073767545
 703 0034 FA7B     		ldrb	r2, [r7, #15]
 704 0036 1A70     		strb	r2, [r3, #0]
 843:.\Generated_Source\PSoC5/uart_solinst.c ****                 #if(uart_solinst_RX_INTERRUPT_ENABLED && \
 844:.\Generated_Source\PSoC5/uart_solinst.c ****                    (uart_solinst_RXBUFFERSIZE > uart_solinst_FIFO_LENGTH) )
 845:.\Generated_Source\PSoC5/uart_solinst.c ****                     uart_solinst_rxAddressMode = addressMode;
 846:.\Generated_Source\PSoC5/uart_solinst.c ****                     uart_solinst_rxAddressDetected = 0u;
 847:.\Generated_Source\PSoC5/uart_solinst.c ****                 #endif /* End uart_solinst_RXBUFFERSIZE > uart_solinst_FIFO_LENGTH*/
 848:.\Generated_Source\PSoC5/uart_solinst.c ****             #endif /* End uart_solinst_CONTROL_REG_REMOVED */
 849:.\Generated_Source\PSoC5/uart_solinst.c ****         #else /* uart_solinst_RXHW_ADDRESS_ENABLED */
 850:.\Generated_Source\PSoC5/uart_solinst.c ****             if(addressMode != 0u) { }     /* release compiler warning */
 851:.\Generated_Source\PSoC5/uart_solinst.c ****         #endif /* End uart_solinst_RXHW_ADDRESS_ENABLED */
 852:.\Generated_Source\PSoC5/uart_solinst.c ****     }
 705              		.loc 1 852 0
 706 0038 07F11407 		add	r7, r7, #20
 707 003c BD46     		mov	sp, r7
 708 003e 80BC     		pop	{r7}
 709 0040 7047     		bx	lr
 710              		.cfi_endproc
 711              	.LFE13:
 712              		.size	uart_solinst_SetRxAddressMode, .-uart_solinst_SetRxAddressMode
 713 0042 00BF     		.section	.text.uart_solinst_SetRxAddress1,"ax",%progbits
 714              		.align	2
 715              		.global	uart_solinst_SetRxAddress1
 716              		.thumb
 717              		.thumb_func
 718              		.type	uart_solinst_SetRxAddress1, %function
 719              	uart_solinst_SetRxAddress1:
 720              	.LFB14:
 853:.\Generated_Source\PSoC5/uart_solinst.c **** 
 854:.\Generated_Source\PSoC5/uart_solinst.c **** 
 855:.\Generated_Source\PSoC5/uart_solinst.c ****     /*******************************************************************************
 856:.\Generated_Source\PSoC5/uart_solinst.c ****     * Function Name: uart_solinst_SetRxAddress1
 857:.\Generated_Source\PSoC5/uart_solinst.c ****     ********************************************************************************
 858:.\Generated_Source\PSoC5/uart_solinst.c ****     *
 859:.\Generated_Source\PSoC5/uart_solinst.c ****     * Summary:
 860:.\Generated_Source\PSoC5/uart_solinst.c ****     *  Set the first hardware address compare value
 861:.\Generated_Source\PSoC5/uart_solinst.c ****     *
 862:.\Generated_Source\PSoC5/uart_solinst.c ****     * Parameters:
 863:.\Generated_Source\PSoC5/uart_solinst.c ****     *  address
 864:.\Generated_Source\PSoC5/uart_solinst.c ****     *
 865:.\Generated_Source\PSoC5/uart_solinst.c ****     * Return:
 866:.\Generated_Source\PSoC5/uart_solinst.c ****     *  None.
 867:.\Generated_Source\PSoC5/uart_solinst.c ****     *
 868:.\Generated_Source\PSoC5/uart_solinst.c ****     *******************************************************************************/
 869:.\Generated_Source\PSoC5/uart_solinst.c ****     void uart_solinst_SetRxAddress1(uint8 address) 
 870:.\Generated_Source\PSoC5/uart_solinst.c **** 
 871:.\Generated_Source\PSoC5/uart_solinst.c ****     {
 721              		.loc 1 871 0
ARM GAS  C:\Users\karunmj\AppData\Local\Temp\ccOxugR9.s 			page 29


 722              		.cfi_startproc
 723              		@ args = 0, pretend = 0, frame = 8
 724              		@ frame_needed = 1, uses_anonymous_args = 0
 725              		@ link register save eliminated.
 726 0000 80B4     		push	{r7}
 727              	.LCFI38:
 728              		.cfi_def_cfa_offset 4
 729 0002 83B0     		sub	sp, sp, #12
 730              	.LCFI39:
 731              		.cfi_def_cfa_offset 16
 732 0004 00AF     		add	r7, sp, #0
 733              		.cfi_offset 7, -4
 734              	.LCFI40:
 735              		.cfi_def_cfa_register 7
 736 0006 0346     		mov	r3, r0
 737 0008 FB71     		strb	r3, [r7, #7]
 872:.\Generated_Source\PSoC5/uart_solinst.c ****         uart_solinst_RXADDRESS1_REG = address;
 738              		.loc 1 872 0
 739 000a 46F22D43 		movw	r3, #:lower16:1073767469
 740 000e C4F20003 		movt	r3, #:upper16:1073767469
 741 0012 FA79     		ldrb	r2, [r7, #7]
 742 0014 1A70     		strb	r2, [r3, #0]
 873:.\Generated_Source\PSoC5/uart_solinst.c ****     }
 743              		.loc 1 873 0
 744 0016 07F10C07 		add	r7, r7, #12
 745 001a BD46     		mov	sp, r7
 746 001c 80BC     		pop	{r7}
 747 001e 7047     		bx	lr
 748              		.cfi_endproc
 749              	.LFE14:
 750              		.size	uart_solinst_SetRxAddress1, .-uart_solinst_SetRxAddress1
 751              		.section	.text.uart_solinst_SetRxAddress2,"ax",%progbits
 752              		.align	2
 753              		.global	uart_solinst_SetRxAddress2
 754              		.thumb
 755              		.thumb_func
 756              		.type	uart_solinst_SetRxAddress2, %function
 757              	uart_solinst_SetRxAddress2:
 758              	.LFB15:
 874:.\Generated_Source\PSoC5/uart_solinst.c **** 
 875:.\Generated_Source\PSoC5/uart_solinst.c **** 
 876:.\Generated_Source\PSoC5/uart_solinst.c ****     /*******************************************************************************
 877:.\Generated_Source\PSoC5/uart_solinst.c ****     * Function Name: uart_solinst_SetRxAddress2
 878:.\Generated_Source\PSoC5/uart_solinst.c ****     ********************************************************************************
 879:.\Generated_Source\PSoC5/uart_solinst.c ****     *
 880:.\Generated_Source\PSoC5/uart_solinst.c ****     * Summary:
 881:.\Generated_Source\PSoC5/uart_solinst.c ****     *  Set the second hardware address compare value
 882:.\Generated_Source\PSoC5/uart_solinst.c ****     *
 883:.\Generated_Source\PSoC5/uart_solinst.c ****     * Parameters:
 884:.\Generated_Source\PSoC5/uart_solinst.c ****     *  address
 885:.\Generated_Source\PSoC5/uart_solinst.c ****     *
 886:.\Generated_Source\PSoC5/uart_solinst.c ****     * Return:
 887:.\Generated_Source\PSoC5/uart_solinst.c ****     *  None.
 888:.\Generated_Source\PSoC5/uart_solinst.c ****     *
 889:.\Generated_Source\PSoC5/uart_solinst.c ****     *******************************************************************************/
 890:.\Generated_Source\PSoC5/uart_solinst.c ****     void uart_solinst_SetRxAddress2(uint8 address) 
 891:.\Generated_Source\PSoC5/uart_solinst.c ****     {
ARM GAS  C:\Users\karunmj\AppData\Local\Temp\ccOxugR9.s 			page 30


 759              		.loc 1 891 0
 760              		.cfi_startproc
 761              		@ args = 0, pretend = 0, frame = 8
 762              		@ frame_needed = 1, uses_anonymous_args = 0
 763              		@ link register save eliminated.
 764 0000 80B4     		push	{r7}
 765              	.LCFI41:
 766              		.cfi_def_cfa_offset 4
 767 0002 83B0     		sub	sp, sp, #12
 768              	.LCFI42:
 769              		.cfi_def_cfa_offset 16
 770 0004 00AF     		add	r7, sp, #0
 771              		.cfi_offset 7, -4
 772              	.LCFI43:
 773              		.cfi_def_cfa_register 7
 774 0006 0346     		mov	r3, r0
 775 0008 FB71     		strb	r3, [r7, #7]
 892:.\Generated_Source\PSoC5/uart_solinst.c ****         uart_solinst_RXADDRESS2_REG = address;
 776              		.loc 1 892 0
 777 000a 46F23D43 		movw	r3, #:lower16:1073767485
 778 000e C4F20003 		movt	r3, #:upper16:1073767485
 779 0012 FA79     		ldrb	r2, [r7, #7]
 780 0014 1A70     		strb	r2, [r3, #0]
 893:.\Generated_Source\PSoC5/uart_solinst.c ****     }
 781              		.loc 1 893 0
 782 0016 07F10C07 		add	r7, r7, #12
 783 001a BD46     		mov	sp, r7
 784 001c 80BC     		pop	{r7}
 785 001e 7047     		bx	lr
 786              		.cfi_endproc
 787              	.LFE15:
 788              		.size	uart_solinst_SetRxAddress2, .-uart_solinst_SetRxAddress2
 789              		.section	.text.uart_solinst_SetTxInterruptMode,"ax",%progbits
 790              		.align	2
 791              		.global	uart_solinst_SetTxInterruptMode
 792              		.thumb
 793              		.thumb_func
 794              		.type	uart_solinst_SetTxInterruptMode, %function
 795              	uart_solinst_SetTxInterruptMode:
 796              	.LFB16:
 894:.\Generated_Source\PSoC5/uart_solinst.c **** 
 895:.\Generated_Source\PSoC5/uart_solinst.c **** #endif  /* uart_solinst_RX_ENABLED || uart_solinst_HD_ENABLED*/
 896:.\Generated_Source\PSoC5/uart_solinst.c **** 
 897:.\Generated_Source\PSoC5/uart_solinst.c **** 
 898:.\Generated_Source\PSoC5/uart_solinst.c **** #if( (uart_solinst_TX_ENABLED) || (uart_solinst_HD_ENABLED) )
 899:.\Generated_Source\PSoC5/uart_solinst.c **** 
 900:.\Generated_Source\PSoC5/uart_solinst.c ****     #if(uart_solinst_TX_INTERRUPT_ENABLED)
 901:.\Generated_Source\PSoC5/uart_solinst.c **** 
 902:.\Generated_Source\PSoC5/uart_solinst.c ****         /*******************************************************************************
 903:.\Generated_Source\PSoC5/uart_solinst.c ****         * Function Name: uart_solinst_EnableTxInt
 904:.\Generated_Source\PSoC5/uart_solinst.c ****         ********************************************************************************
 905:.\Generated_Source\PSoC5/uart_solinst.c ****         *
 906:.\Generated_Source\PSoC5/uart_solinst.c ****         * Summary:
 907:.\Generated_Source\PSoC5/uart_solinst.c ****         *  Enable TX interrupt generation
 908:.\Generated_Source\PSoC5/uart_solinst.c ****         *
 909:.\Generated_Source\PSoC5/uart_solinst.c ****         * Parameters:
 910:.\Generated_Source\PSoC5/uart_solinst.c ****         *  None.
ARM GAS  C:\Users\karunmj\AppData\Local\Temp\ccOxugR9.s 			page 31


 911:.\Generated_Source\PSoC5/uart_solinst.c ****         *
 912:.\Generated_Source\PSoC5/uart_solinst.c ****         * Return:
 913:.\Generated_Source\PSoC5/uart_solinst.c ****         *  None.
 914:.\Generated_Source\PSoC5/uart_solinst.c ****         *
 915:.\Generated_Source\PSoC5/uart_solinst.c ****         * Theory:
 916:.\Generated_Source\PSoC5/uart_solinst.c ****         *  Enable the interrupt output -or- the interrupt component itself
 917:.\Generated_Source\PSoC5/uart_solinst.c ****         *
 918:.\Generated_Source\PSoC5/uart_solinst.c ****         *******************************************************************************/
 919:.\Generated_Source\PSoC5/uart_solinst.c ****         void uart_solinst_EnableTxInt(void) 
 920:.\Generated_Source\PSoC5/uart_solinst.c ****         {
 921:.\Generated_Source\PSoC5/uart_solinst.c ****             CyIntEnable(uart_solinst_TX_VECT_NUM);
 922:.\Generated_Source\PSoC5/uart_solinst.c ****         }
 923:.\Generated_Source\PSoC5/uart_solinst.c **** 
 924:.\Generated_Source\PSoC5/uart_solinst.c **** 
 925:.\Generated_Source\PSoC5/uart_solinst.c ****         /*******************************************************************************
 926:.\Generated_Source\PSoC5/uart_solinst.c ****         * Function Name: uart_solinst_DisableTxInt
 927:.\Generated_Source\PSoC5/uart_solinst.c ****         ********************************************************************************
 928:.\Generated_Source\PSoC5/uart_solinst.c ****         *
 929:.\Generated_Source\PSoC5/uart_solinst.c ****         * Summary:
 930:.\Generated_Source\PSoC5/uart_solinst.c ****         *  Disable TX interrupt generation
 931:.\Generated_Source\PSoC5/uart_solinst.c ****         *
 932:.\Generated_Source\PSoC5/uart_solinst.c ****         * Parameters:
 933:.\Generated_Source\PSoC5/uart_solinst.c ****         *  None.
 934:.\Generated_Source\PSoC5/uart_solinst.c ****         *
 935:.\Generated_Source\PSoC5/uart_solinst.c ****         * Return:
 936:.\Generated_Source\PSoC5/uart_solinst.c ****         *  None.
 937:.\Generated_Source\PSoC5/uart_solinst.c ****         *
 938:.\Generated_Source\PSoC5/uart_solinst.c ****         * Theory:
 939:.\Generated_Source\PSoC5/uart_solinst.c ****         *  Disable the interrupt output -or- the interrupt component itself
 940:.\Generated_Source\PSoC5/uart_solinst.c ****         *
 941:.\Generated_Source\PSoC5/uart_solinst.c ****         *******************************************************************************/
 942:.\Generated_Source\PSoC5/uart_solinst.c ****         void uart_solinst_DisableTxInt(void) 
 943:.\Generated_Source\PSoC5/uart_solinst.c ****         {
 944:.\Generated_Source\PSoC5/uart_solinst.c ****             CyIntDisable(uart_solinst_TX_VECT_NUM);
 945:.\Generated_Source\PSoC5/uart_solinst.c ****         }
 946:.\Generated_Source\PSoC5/uart_solinst.c **** 
 947:.\Generated_Source\PSoC5/uart_solinst.c ****     #endif /* uart_solinst_TX_INTERRUPT_ENABLED */
 948:.\Generated_Source\PSoC5/uart_solinst.c **** 
 949:.\Generated_Source\PSoC5/uart_solinst.c **** 
 950:.\Generated_Source\PSoC5/uart_solinst.c ****     /*******************************************************************************
 951:.\Generated_Source\PSoC5/uart_solinst.c ****     * Function Name: uart_solinst_SetTxInterruptMode
 952:.\Generated_Source\PSoC5/uart_solinst.c ****     ********************************************************************************
 953:.\Generated_Source\PSoC5/uart_solinst.c ****     *
 954:.\Generated_Source\PSoC5/uart_solinst.c ****     * Summary:
 955:.\Generated_Source\PSoC5/uart_solinst.c ****     *  Configure which status bits trigger an interrupt event
 956:.\Generated_Source\PSoC5/uart_solinst.c ****     *
 957:.\Generated_Source\PSoC5/uart_solinst.c ****     * Parameters:
 958:.\Generated_Source\PSoC5/uart_solinst.c ****     *  intSrc: An or'd combination of the desired status bit masks (defined in
 959:.\Generated_Source\PSoC5/uart_solinst.c ****     *          the header file)
 960:.\Generated_Source\PSoC5/uart_solinst.c ****     *
 961:.\Generated_Source\PSoC5/uart_solinst.c ****     * Return:
 962:.\Generated_Source\PSoC5/uart_solinst.c ****     *  None.
 963:.\Generated_Source\PSoC5/uart_solinst.c ****     *
 964:.\Generated_Source\PSoC5/uart_solinst.c ****     * Theory:
 965:.\Generated_Source\PSoC5/uart_solinst.c ****     *  Enables the output of specific status bits to the interrupt controller
 966:.\Generated_Source\PSoC5/uart_solinst.c ****     *
 967:.\Generated_Source\PSoC5/uart_solinst.c ****     *******************************************************************************/
ARM GAS  C:\Users\karunmj\AppData\Local\Temp\ccOxugR9.s 			page 32


 968:.\Generated_Source\PSoC5/uart_solinst.c ****     void uart_solinst_SetTxInterruptMode(uint8 intSrc) 
 969:.\Generated_Source\PSoC5/uart_solinst.c ****     {
 797              		.loc 1 969 0
 798              		.cfi_startproc
 799              		@ args = 0, pretend = 0, frame = 8
 800              		@ frame_needed = 1, uses_anonymous_args = 0
 801              		@ link register save eliminated.
 802 0000 80B4     		push	{r7}
 803              	.LCFI44:
 804              		.cfi_def_cfa_offset 4
 805 0002 83B0     		sub	sp, sp, #12
 806              	.LCFI45:
 807              		.cfi_def_cfa_offset 16
 808 0004 00AF     		add	r7, sp, #0
 809              		.cfi_offset 7, -4
 810              	.LCFI46:
 811              		.cfi_def_cfa_register 7
 812 0006 0346     		mov	r3, r0
 813 0008 FB71     		strb	r3, [r7, #7]
 970:.\Generated_Source\PSoC5/uart_solinst.c ****         uart_solinst_TXSTATUS_MASK_REG = intSrc;
 814              		.loc 1 970 0
 815 000a 46F28953 		movw	r3, #:lower16:1073767817
 816 000e C4F20003 		movt	r3, #:upper16:1073767817
 817 0012 FA79     		ldrb	r2, [r7, #7]
 818 0014 1A70     		strb	r2, [r3, #0]
 971:.\Generated_Source\PSoC5/uart_solinst.c ****     }
 819              		.loc 1 971 0
 820 0016 07F10C07 		add	r7, r7, #12
 821 001a BD46     		mov	sp, r7
 822 001c 80BC     		pop	{r7}
 823 001e 7047     		bx	lr
 824              		.cfi_endproc
 825              	.LFE16:
 826              		.size	uart_solinst_SetTxInterruptMode, .-uart_solinst_SetTxInterruptMode
 827              		.section	.text.uart_solinst_WriteTxData,"ax",%progbits
 828              		.align	2
 829              		.global	uart_solinst_WriteTxData
 830              		.thumb
 831              		.thumb_func
 832              		.type	uart_solinst_WriteTxData, %function
 833              	uart_solinst_WriteTxData:
 834              	.LFB17:
 972:.\Generated_Source\PSoC5/uart_solinst.c **** 
 973:.\Generated_Source\PSoC5/uart_solinst.c **** 
 974:.\Generated_Source\PSoC5/uart_solinst.c ****     /*******************************************************************************
 975:.\Generated_Source\PSoC5/uart_solinst.c ****     * Function Name: uart_solinst_WriteTxData
 976:.\Generated_Source\PSoC5/uart_solinst.c ****     ********************************************************************************
 977:.\Generated_Source\PSoC5/uart_solinst.c ****     *
 978:.\Generated_Source\PSoC5/uart_solinst.c ****     * Summary:
 979:.\Generated_Source\PSoC5/uart_solinst.c ****     *  Write a byte of data to the Transmit FIFO or TX buffer to be sent when the
 980:.\Generated_Source\PSoC5/uart_solinst.c ****     *  bus is available. WriteTxData sends a byte without checking for buffer room
 981:.\Generated_Source\PSoC5/uart_solinst.c ****     *  or status. It is up to the user to separately check status.
 982:.\Generated_Source\PSoC5/uart_solinst.c ****     *
 983:.\Generated_Source\PSoC5/uart_solinst.c ****     * Parameters:
 984:.\Generated_Source\PSoC5/uart_solinst.c ****     *  TXDataByte: byte of data to place in the transmit FIFO
 985:.\Generated_Source\PSoC5/uart_solinst.c ****     *
 986:.\Generated_Source\PSoC5/uart_solinst.c ****     * Return:
ARM GAS  C:\Users\karunmj\AppData\Local\Temp\ccOxugR9.s 			page 33


 987:.\Generated_Source\PSoC5/uart_solinst.c ****     * void
 988:.\Generated_Source\PSoC5/uart_solinst.c ****     *
 989:.\Generated_Source\PSoC5/uart_solinst.c ****     * Global Variables:
 990:.\Generated_Source\PSoC5/uart_solinst.c ****     *  uart_solinst_txBuffer - RAM buffer pointer for save data for transmission
 991:.\Generated_Source\PSoC5/uart_solinst.c ****     *  uart_solinst_txBufferWrite - cyclic index for write to txBuffer,
 992:.\Generated_Source\PSoC5/uart_solinst.c ****     *    incremented after each byte saved to buffer.
 993:.\Generated_Source\PSoC5/uart_solinst.c ****     *  uart_solinst_txBufferRead - cyclic index for read from txBuffer,
 994:.\Generated_Source\PSoC5/uart_solinst.c ****     *    checked to identify the condition to write to FIFO directly or to TX buffer
 995:.\Generated_Source\PSoC5/uart_solinst.c ****     *  uart_solinst_initVar - checked to identify that the component has been
 996:.\Generated_Source\PSoC5/uart_solinst.c ****     *    initialized.
 997:.\Generated_Source\PSoC5/uart_solinst.c ****     *
 998:.\Generated_Source\PSoC5/uart_solinst.c ****     * Reentrant:
 999:.\Generated_Source\PSoC5/uart_solinst.c ****     *  No.
1000:.\Generated_Source\PSoC5/uart_solinst.c ****     *
1001:.\Generated_Source\PSoC5/uart_solinst.c ****     *******************************************************************************/
1002:.\Generated_Source\PSoC5/uart_solinst.c ****     void uart_solinst_WriteTxData(uint8 txDataByte) 
1003:.\Generated_Source\PSoC5/uart_solinst.c ****     {
 835              		.loc 1 1003 0
 836              		.cfi_startproc
 837              		@ args = 0, pretend = 0, frame = 8
 838              		@ frame_needed = 1, uses_anonymous_args = 0
 839              		@ link register save eliminated.
 840 0000 80B4     		push	{r7}
 841              	.LCFI47:
 842              		.cfi_def_cfa_offset 4
 843 0002 83B0     		sub	sp, sp, #12
 844              	.LCFI48:
 845              		.cfi_def_cfa_offset 16
 846 0004 00AF     		add	r7, sp, #0
 847              		.cfi_offset 7, -4
 848              	.LCFI49:
 849              		.cfi_def_cfa_register 7
 850 0006 0346     		mov	r3, r0
 851 0008 FB71     		strb	r3, [r7, #7]
1004:.\Generated_Source\PSoC5/uart_solinst.c ****         /* If not Initialized then skip this function*/
1005:.\Generated_Source\PSoC5/uart_solinst.c ****         if(uart_solinst_initVar != 0u)
 852              		.loc 1 1005 0
 853 000a 40F20003 		movw	r3, #:lower16:uart_solinst_initVar
 854 000e C0F20003 		movt	r3, #:upper16:uart_solinst_initVar
 855 0012 1B78     		ldrb	r3, [r3, #0]	@ zero_extendqisi2
 856 0014 002B     		cmp	r3, #0
 857 0016 05D0     		beq	.L41
1006:.\Generated_Source\PSoC5/uart_solinst.c ****         {
1007:.\Generated_Source\PSoC5/uart_solinst.c ****             #if(uart_solinst_TXBUFFERSIZE > uart_solinst_FIFO_LENGTH)
1008:.\Generated_Source\PSoC5/uart_solinst.c **** 
1009:.\Generated_Source\PSoC5/uart_solinst.c ****                 /* Disable Tx interrupt. */
1010:.\Generated_Source\PSoC5/uart_solinst.c ****                 /* Protect variables that could change on interrupt. */
1011:.\Generated_Source\PSoC5/uart_solinst.c ****                 #if(uart_solinst_TX_INTERRUPT_ENABLED)
1012:.\Generated_Source\PSoC5/uart_solinst.c ****                     uart_solinst_DisableTxInt();
1013:.\Generated_Source\PSoC5/uart_solinst.c ****                 #endif /* End uart_solinst_TX_INTERRUPT_ENABLED */
1014:.\Generated_Source\PSoC5/uart_solinst.c **** 
1015:.\Generated_Source\PSoC5/uart_solinst.c ****                 if( (uart_solinst_txBufferRead == uart_solinst_txBufferWrite) &&
1016:.\Generated_Source\PSoC5/uart_solinst.c ****                     ((uart_solinst_TXSTATUS_REG & uart_solinst_TX_STS_FIFO_FULL) == 0u) )
1017:.\Generated_Source\PSoC5/uart_solinst.c ****                 {
1018:.\Generated_Source\PSoC5/uart_solinst.c ****                     /* Add directly to the FIFO. */
1019:.\Generated_Source\PSoC5/uart_solinst.c ****                     uart_solinst_TXDATA_REG = txDataByte;
1020:.\Generated_Source\PSoC5/uart_solinst.c ****                 }
ARM GAS  C:\Users\karunmj\AppData\Local\Temp\ccOxugR9.s 			page 34


1021:.\Generated_Source\PSoC5/uart_solinst.c ****                 else
1022:.\Generated_Source\PSoC5/uart_solinst.c ****                 {
1023:.\Generated_Source\PSoC5/uart_solinst.c ****                     if(uart_solinst_txBufferWrite >= uart_solinst_TXBUFFERSIZE)
1024:.\Generated_Source\PSoC5/uart_solinst.c ****                     {
1025:.\Generated_Source\PSoC5/uart_solinst.c ****                         uart_solinst_txBufferWrite = 0u;
1026:.\Generated_Source\PSoC5/uart_solinst.c ****                     }
1027:.\Generated_Source\PSoC5/uart_solinst.c **** 
1028:.\Generated_Source\PSoC5/uart_solinst.c ****                     uart_solinst_txBuffer[uart_solinst_txBufferWrite] = txDataByte;
1029:.\Generated_Source\PSoC5/uart_solinst.c **** 
1030:.\Generated_Source\PSoC5/uart_solinst.c ****                     /* Add to the software buffer. */
1031:.\Generated_Source\PSoC5/uart_solinst.c ****                     uart_solinst_txBufferWrite++;
1032:.\Generated_Source\PSoC5/uart_solinst.c **** 
1033:.\Generated_Source\PSoC5/uart_solinst.c ****                 }
1034:.\Generated_Source\PSoC5/uart_solinst.c **** 
1035:.\Generated_Source\PSoC5/uart_solinst.c ****                 /* Enable Tx interrupt. */
1036:.\Generated_Source\PSoC5/uart_solinst.c ****                 #if(uart_solinst_TX_INTERRUPT_ENABLED)
1037:.\Generated_Source\PSoC5/uart_solinst.c ****                     uart_solinst_EnableTxInt();
1038:.\Generated_Source\PSoC5/uart_solinst.c ****                 #endif /* End uart_solinst_TX_INTERRUPT_ENABLED */
1039:.\Generated_Source\PSoC5/uart_solinst.c **** 
1040:.\Generated_Source\PSoC5/uart_solinst.c ****             #else /* uart_solinst_TXBUFFERSIZE > uart_solinst_FIFO_LENGTH */
1041:.\Generated_Source\PSoC5/uart_solinst.c **** 
1042:.\Generated_Source\PSoC5/uart_solinst.c ****                 /* Add directly to the FIFO. */
1043:.\Generated_Source\PSoC5/uart_solinst.c ****                 uart_solinst_TXDATA_REG = txDataByte;
 858              		.loc 1 1043 0
 859 0018 46F24953 		movw	r3, #:lower16:1073767753
 860 001c C4F20003 		movt	r3, #:upper16:1073767753
 861 0020 FA79     		ldrb	r2, [r7, #7]
 862 0022 1A70     		strb	r2, [r3, #0]
 863              	.L41:
1044:.\Generated_Source\PSoC5/uart_solinst.c **** 
1045:.\Generated_Source\PSoC5/uart_solinst.c ****             #endif /* End uart_solinst_TXBUFFERSIZE > uart_solinst_FIFO_LENGTH */
1046:.\Generated_Source\PSoC5/uart_solinst.c ****         }
1047:.\Generated_Source\PSoC5/uart_solinst.c ****     }
 864              		.loc 1 1047 0
 865 0024 07F10C07 		add	r7, r7, #12
 866 0028 BD46     		mov	sp, r7
 867 002a 80BC     		pop	{r7}
 868 002c 7047     		bx	lr
 869              		.cfi_endproc
 870              	.LFE17:
 871              		.size	uart_solinst_WriteTxData, .-uart_solinst_WriteTxData
 872 002e 00BF     		.section	.text.uart_solinst_ReadTxStatus,"ax",%progbits
 873              		.align	2
 874              		.global	uart_solinst_ReadTxStatus
 875              		.thumb
 876              		.thumb_func
 877              		.type	uart_solinst_ReadTxStatus, %function
 878              	uart_solinst_ReadTxStatus:
 879              	.LFB18:
1048:.\Generated_Source\PSoC5/uart_solinst.c **** 
1049:.\Generated_Source\PSoC5/uart_solinst.c **** 
1050:.\Generated_Source\PSoC5/uart_solinst.c ****     /*******************************************************************************
1051:.\Generated_Source\PSoC5/uart_solinst.c ****     * Function Name: uart_solinst_ReadTxStatus
1052:.\Generated_Source\PSoC5/uart_solinst.c ****     ********************************************************************************
1053:.\Generated_Source\PSoC5/uart_solinst.c ****     *
1054:.\Generated_Source\PSoC5/uart_solinst.c ****     * Summary:
1055:.\Generated_Source\PSoC5/uart_solinst.c ****     *  Read the status register for the component
ARM GAS  C:\Users\karunmj\AppData\Local\Temp\ccOxugR9.s 			page 35


1056:.\Generated_Source\PSoC5/uart_solinst.c ****     *
1057:.\Generated_Source\PSoC5/uart_solinst.c ****     * Parameters:
1058:.\Generated_Source\PSoC5/uart_solinst.c ****     *  None.
1059:.\Generated_Source\PSoC5/uart_solinst.c ****     *
1060:.\Generated_Source\PSoC5/uart_solinst.c ****     * Return:
1061:.\Generated_Source\PSoC5/uart_solinst.c ****     *  Contents of the status register
1062:.\Generated_Source\PSoC5/uart_solinst.c ****     *
1063:.\Generated_Source\PSoC5/uart_solinst.c ****     * Theory:
1064:.\Generated_Source\PSoC5/uart_solinst.c ****     *  This function reads the status register which is clear on read. It is up to
1065:.\Generated_Source\PSoC5/uart_solinst.c ****     *  the user to handle all bits in this return value accordingly, even if the bit
1066:.\Generated_Source\PSoC5/uart_solinst.c ****     *  was not enabled as an interrupt source the event happened and must be handled
1067:.\Generated_Source\PSoC5/uart_solinst.c ****     *  accordingly.
1068:.\Generated_Source\PSoC5/uart_solinst.c ****     *
1069:.\Generated_Source\PSoC5/uart_solinst.c ****     *******************************************************************************/
1070:.\Generated_Source\PSoC5/uart_solinst.c ****     uint8 uart_solinst_ReadTxStatus(void) 
1071:.\Generated_Source\PSoC5/uart_solinst.c ****     {
 880              		.loc 1 1071 0
 881              		.cfi_startproc
 882              		@ args = 0, pretend = 0, frame = 0
 883              		@ frame_needed = 1, uses_anonymous_args = 0
 884              		@ link register save eliminated.
 885 0000 80B4     		push	{r7}
 886              	.LCFI50:
 887              		.cfi_def_cfa_offset 4
 888 0002 00AF     		add	r7, sp, #0
 889              		.cfi_offset 7, -4
 890              	.LCFI51:
 891              		.cfi_def_cfa_register 7
1072:.\Generated_Source\PSoC5/uart_solinst.c ****         return(uart_solinst_TXSTATUS_REG);
 892              		.loc 1 1072 0
 893 0004 46F26953 		movw	r3, #:lower16:1073767785
 894 0008 C4F20003 		movt	r3, #:upper16:1073767785
 895 000c 1B78     		ldrb	r3, [r3, #0]
 896 000e DBB2     		uxtb	r3, r3
1073:.\Generated_Source\PSoC5/uart_solinst.c ****     }
 897              		.loc 1 1073 0
 898 0010 1846     		mov	r0, r3
 899 0012 BD46     		mov	sp, r7
 900 0014 80BC     		pop	{r7}
 901 0016 7047     		bx	lr
 902              		.cfi_endproc
 903              	.LFE18:
 904              		.size	uart_solinst_ReadTxStatus, .-uart_solinst_ReadTxStatus
 905              		.section	.text.uart_solinst_PutChar,"ax",%progbits
 906              		.align	2
 907              		.global	uart_solinst_PutChar
 908              		.thumb
 909              		.thumb_func
 910              		.type	uart_solinst_PutChar, %function
 911              	uart_solinst_PutChar:
 912              	.LFB19:
1074:.\Generated_Source\PSoC5/uart_solinst.c **** 
1075:.\Generated_Source\PSoC5/uart_solinst.c **** 
1076:.\Generated_Source\PSoC5/uart_solinst.c ****     /*******************************************************************************
1077:.\Generated_Source\PSoC5/uart_solinst.c ****     * Function Name: uart_solinst_PutChar
1078:.\Generated_Source\PSoC5/uart_solinst.c ****     ********************************************************************************
1079:.\Generated_Source\PSoC5/uart_solinst.c ****     *
ARM GAS  C:\Users\karunmj\AppData\Local\Temp\ccOxugR9.s 			page 36


1080:.\Generated_Source\PSoC5/uart_solinst.c ****     * Summary:
1081:.\Generated_Source\PSoC5/uart_solinst.c ****     *  Wait to send byte until TX register or buffer has room.
1082:.\Generated_Source\PSoC5/uart_solinst.c ****     *
1083:.\Generated_Source\PSoC5/uart_solinst.c ****     * Parameters:
1084:.\Generated_Source\PSoC5/uart_solinst.c ****     *  txDataByte: The 8-bit data value to send across the UART.
1085:.\Generated_Source\PSoC5/uart_solinst.c ****     *
1086:.\Generated_Source\PSoC5/uart_solinst.c ****     * Return:
1087:.\Generated_Source\PSoC5/uart_solinst.c ****     *  None.
1088:.\Generated_Source\PSoC5/uart_solinst.c ****     *
1089:.\Generated_Source\PSoC5/uart_solinst.c ****     * Global Variables:
1090:.\Generated_Source\PSoC5/uart_solinst.c ****     *  uart_solinst_txBuffer - RAM buffer pointer for save data for transmission
1091:.\Generated_Source\PSoC5/uart_solinst.c ****     *  uart_solinst_txBufferWrite - cyclic index for write to txBuffer,
1092:.\Generated_Source\PSoC5/uart_solinst.c ****     *     checked to identify free space in txBuffer and incremented after each byte
1093:.\Generated_Source\PSoC5/uart_solinst.c ****     *     saved to buffer.
1094:.\Generated_Source\PSoC5/uart_solinst.c ****     *  uart_solinst_txBufferRead - cyclic index for read from txBuffer,
1095:.\Generated_Source\PSoC5/uart_solinst.c ****     *     checked to identify free space in txBuffer.
1096:.\Generated_Source\PSoC5/uart_solinst.c ****     *  uart_solinst_initVar - checked to identify that the component has been
1097:.\Generated_Source\PSoC5/uart_solinst.c ****     *     initialized.
1098:.\Generated_Source\PSoC5/uart_solinst.c ****     *
1099:.\Generated_Source\PSoC5/uart_solinst.c ****     * Reentrant:
1100:.\Generated_Source\PSoC5/uart_solinst.c ****     *  No.
1101:.\Generated_Source\PSoC5/uart_solinst.c ****     *
1102:.\Generated_Source\PSoC5/uart_solinst.c ****     * Theory:
1103:.\Generated_Source\PSoC5/uart_solinst.c ****     *  Allows the user to transmit any byte of data in a single transfer
1104:.\Generated_Source\PSoC5/uart_solinst.c ****     *
1105:.\Generated_Source\PSoC5/uart_solinst.c ****     *******************************************************************************/
1106:.\Generated_Source\PSoC5/uart_solinst.c ****     void uart_solinst_PutChar(uint8 txDataByte) 
1107:.\Generated_Source\PSoC5/uart_solinst.c ****     {
 913              		.loc 1 1107 0
 914              		.cfi_startproc
 915              		@ args = 0, pretend = 0, frame = 8
 916              		@ frame_needed = 1, uses_anonymous_args = 0
 917              		@ link register save eliminated.
 918 0000 80B4     		push	{r7}
 919              	.LCFI52:
 920              		.cfi_def_cfa_offset 4
 921 0002 83B0     		sub	sp, sp, #12
 922              	.LCFI53:
 923              		.cfi_def_cfa_offset 16
 924 0004 00AF     		add	r7, sp, #0
 925              		.cfi_offset 7, -4
 926              	.LCFI54:
 927              		.cfi_def_cfa_register 7
 928 0006 0346     		mov	r3, r0
 929 0008 FB71     		strb	r3, [r7, #7]
 930              	.L45:
1108:.\Generated_Source\PSoC5/uart_solinst.c ****             #if(uart_solinst_TXBUFFERSIZE > uart_solinst_FIFO_LENGTH)
1109:.\Generated_Source\PSoC5/uart_solinst.c ****                 /* The temporary output pointer is used since it takes two instructions
1110:.\Generated_Source\PSoC5/uart_solinst.c ****                 *  to increment with a wrap, and we can't risk doing that with the real
1111:.\Generated_Source\PSoC5/uart_solinst.c ****                 *  pointer and getting an interrupt in between instructions.
1112:.\Generated_Source\PSoC5/uart_solinst.c ****                 */
1113:.\Generated_Source\PSoC5/uart_solinst.c ****                 uint8 loc_txBufferWrite;
1114:.\Generated_Source\PSoC5/uart_solinst.c ****                 uint8 loc_txBufferRead;
1115:.\Generated_Source\PSoC5/uart_solinst.c **** 
1116:.\Generated_Source\PSoC5/uart_solinst.c ****                 do{
1117:.\Generated_Source\PSoC5/uart_solinst.c ****                     /* Block if software buffer is full, so we don't overwrite. */
1118:.\Generated_Source\PSoC5/uart_solinst.c ****                     #if ((uart_solinst_TXBUFFERSIZE > uart_solinst_MAX_BYTE_VALUE) && (CY_PSOC3))
ARM GAS  C:\Users\karunmj\AppData\Local\Temp\ccOxugR9.s 			page 37


1119:.\Generated_Source\PSoC5/uart_solinst.c ****                         /* Disable TX interrupt to protect variables that could change on interrupt
1120:.\Generated_Source\PSoC5/uart_solinst.c ****                         CyIntDisable(uart_solinst_TX_VECT_NUM);
1121:.\Generated_Source\PSoC5/uart_solinst.c ****                     #endif /* End TXBUFFERSIZE > 255 */
1122:.\Generated_Source\PSoC5/uart_solinst.c ****                     loc_txBufferWrite = uart_solinst_txBufferWrite;
1123:.\Generated_Source\PSoC5/uart_solinst.c ****                     loc_txBufferRead = uart_solinst_txBufferRead;
1124:.\Generated_Source\PSoC5/uart_solinst.c ****                     #if ((uart_solinst_TXBUFFERSIZE > uart_solinst_MAX_BYTE_VALUE) && (CY_PSOC3))
1125:.\Generated_Source\PSoC5/uart_solinst.c ****                         /* Enable interrupt to continue transmission */
1126:.\Generated_Source\PSoC5/uart_solinst.c ****                         CyIntEnable(uart_solinst_TX_VECT_NUM);
1127:.\Generated_Source\PSoC5/uart_solinst.c ****                     #endif /* End TXBUFFERSIZE > 255 */
1128:.\Generated_Source\PSoC5/uart_solinst.c ****                 }while( (loc_txBufferWrite < loc_txBufferRead) ? (loc_txBufferWrite == (loc_txBuffe
1129:.\Generated_Source\PSoC5/uart_solinst.c ****                                         ((loc_txBufferWrite - loc_txBufferRead) ==
1130:.\Generated_Source\PSoC5/uart_solinst.c ****                                         (uint8)(uart_solinst_TXBUFFERSIZE - 1u)) );
1131:.\Generated_Source\PSoC5/uart_solinst.c **** 
1132:.\Generated_Source\PSoC5/uart_solinst.c ****                 if( (loc_txBufferRead == loc_txBufferWrite) &&
1133:.\Generated_Source\PSoC5/uart_solinst.c ****                     ((uart_solinst_TXSTATUS_REG & uart_solinst_TX_STS_FIFO_FULL) == 0u) )
1134:.\Generated_Source\PSoC5/uart_solinst.c ****                 {
1135:.\Generated_Source\PSoC5/uart_solinst.c ****                     /* Add directly to the FIFO. */
1136:.\Generated_Source\PSoC5/uart_solinst.c ****                     uart_solinst_TXDATA_REG = txDataByte;
1137:.\Generated_Source\PSoC5/uart_solinst.c ****                 }
1138:.\Generated_Source\PSoC5/uart_solinst.c ****                 else
1139:.\Generated_Source\PSoC5/uart_solinst.c ****                 {
1140:.\Generated_Source\PSoC5/uart_solinst.c ****                     if(loc_txBufferWrite >= uart_solinst_TXBUFFERSIZE)
1141:.\Generated_Source\PSoC5/uart_solinst.c ****                     {
1142:.\Generated_Source\PSoC5/uart_solinst.c ****                         loc_txBufferWrite = 0u;
1143:.\Generated_Source\PSoC5/uart_solinst.c ****                     }
1144:.\Generated_Source\PSoC5/uart_solinst.c ****                     /* Add to the software buffer. */
1145:.\Generated_Source\PSoC5/uart_solinst.c ****                     uart_solinst_txBuffer[loc_txBufferWrite] = txDataByte;
1146:.\Generated_Source\PSoC5/uart_solinst.c ****                     loc_txBufferWrite++;
1147:.\Generated_Source\PSoC5/uart_solinst.c **** 
1148:.\Generated_Source\PSoC5/uart_solinst.c ****                     /* Finally, update the real output pointer */
1149:.\Generated_Source\PSoC5/uart_solinst.c ****                     #if ((uart_solinst_TXBUFFERSIZE > uart_solinst_MAX_BYTE_VALUE) && (CY_PSOC3))
1150:.\Generated_Source\PSoC5/uart_solinst.c ****                         CyIntDisable(uart_solinst_TX_VECT_NUM);
1151:.\Generated_Source\PSoC5/uart_solinst.c ****                     #endif /* End TXBUFFERSIZE > 255 */
1152:.\Generated_Source\PSoC5/uart_solinst.c ****                     uart_solinst_txBufferWrite = loc_txBufferWrite;
1153:.\Generated_Source\PSoC5/uart_solinst.c ****                     #if ((uart_solinst_TXBUFFERSIZE > uart_solinst_MAX_BYTE_VALUE) && (CY_PSOC3))
1154:.\Generated_Source\PSoC5/uart_solinst.c ****                         CyIntEnable(uart_solinst_TX_VECT_NUM);
1155:.\Generated_Source\PSoC5/uart_solinst.c ****                     #endif /* End TXBUFFERSIZE > 255 */
1156:.\Generated_Source\PSoC5/uart_solinst.c ****                 }
1157:.\Generated_Source\PSoC5/uart_solinst.c **** 
1158:.\Generated_Source\PSoC5/uart_solinst.c ****             #else /* uart_solinst_TXBUFFERSIZE > uart_solinst_FIFO_LENGTH */
1159:.\Generated_Source\PSoC5/uart_solinst.c **** 
1160:.\Generated_Source\PSoC5/uart_solinst.c ****                 while((uart_solinst_TXSTATUS_REG & uart_solinst_TX_STS_FIFO_FULL) != 0u)
 931              		.loc 1 1160 0
 932 000a 46F26953 		movw	r3, #:lower16:1073767785
 933 000e C4F20003 		movt	r3, #:upper16:1073767785
 934 0012 1B78     		ldrb	r3, [r3, #0]
 935 0014 DBB2     		uxtb	r3, r3
 936 0016 03F00403 		and	r3, r3, #4
 937 001a 002B     		cmp	r3, #0
 938 001c F5D1     		bne	.L45
1161:.\Generated_Source\PSoC5/uart_solinst.c ****                 {
1162:.\Generated_Source\PSoC5/uart_solinst.c ****                     ; /* Wait for room in the FIFO. */
1163:.\Generated_Source\PSoC5/uart_solinst.c ****                 }
1164:.\Generated_Source\PSoC5/uart_solinst.c **** 
1165:.\Generated_Source\PSoC5/uart_solinst.c ****                 /* Add directly to the FIFO. */
1166:.\Generated_Source\PSoC5/uart_solinst.c ****                 uart_solinst_TXDATA_REG = txDataByte;
 939              		.loc 1 1166 0
ARM GAS  C:\Users\karunmj\AppData\Local\Temp\ccOxugR9.s 			page 38


 940 001e 46F24953 		movw	r3, #:lower16:1073767753
 941 0022 C4F20003 		movt	r3, #:upper16:1073767753
 942 0026 FA79     		ldrb	r2, [r7, #7]
 943 0028 1A70     		strb	r2, [r3, #0]
1167:.\Generated_Source\PSoC5/uart_solinst.c **** 
1168:.\Generated_Source\PSoC5/uart_solinst.c ****             #endif /* End uart_solinst_TXBUFFERSIZE > uart_solinst_FIFO_LENGTH */
1169:.\Generated_Source\PSoC5/uart_solinst.c ****     }
 944              		.loc 1 1169 0
 945 002a 07F10C07 		add	r7, r7, #12
 946 002e BD46     		mov	sp, r7
 947 0030 80BC     		pop	{r7}
 948 0032 7047     		bx	lr
 949              		.cfi_endproc
 950              	.LFE19:
 951              		.size	uart_solinst_PutChar, .-uart_solinst_PutChar
 952              		.section	.text.uart_solinst_PutString,"ax",%progbits
 953              		.align	2
 954              		.global	uart_solinst_PutString
 955              		.thumb
 956              		.thumb_func
 957              		.type	uart_solinst_PutString, %function
 958              	uart_solinst_PutString:
 959              	.LFB20:
1170:.\Generated_Source\PSoC5/uart_solinst.c **** 
1171:.\Generated_Source\PSoC5/uart_solinst.c **** 
1172:.\Generated_Source\PSoC5/uart_solinst.c ****     /*******************************************************************************
1173:.\Generated_Source\PSoC5/uart_solinst.c ****     * Function Name: uart_solinst_PutString
1174:.\Generated_Source\PSoC5/uart_solinst.c ****     ********************************************************************************
1175:.\Generated_Source\PSoC5/uart_solinst.c ****     *
1176:.\Generated_Source\PSoC5/uart_solinst.c ****     * Summary:
1177:.\Generated_Source\PSoC5/uart_solinst.c ****     *  Write a Sequence of bytes on the Transmit line. Data comes from RAM or ROM.
1178:.\Generated_Source\PSoC5/uart_solinst.c ****     *
1179:.\Generated_Source\PSoC5/uart_solinst.c ****     * Parameters:
1180:.\Generated_Source\PSoC5/uart_solinst.c ****     *  string: char pointer to character string of Data to Send.
1181:.\Generated_Source\PSoC5/uart_solinst.c ****     *
1182:.\Generated_Source\PSoC5/uart_solinst.c ****     * Return:
1183:.\Generated_Source\PSoC5/uart_solinst.c ****     *  None.
1184:.\Generated_Source\PSoC5/uart_solinst.c ****     *
1185:.\Generated_Source\PSoC5/uart_solinst.c ****     * Global Variables:
1186:.\Generated_Source\PSoC5/uart_solinst.c ****     *  uart_solinst_initVar - checked to identify that the component has been
1187:.\Generated_Source\PSoC5/uart_solinst.c ****     *     initialized.
1188:.\Generated_Source\PSoC5/uart_solinst.c ****     *
1189:.\Generated_Source\PSoC5/uart_solinst.c ****     * Reentrant:
1190:.\Generated_Source\PSoC5/uart_solinst.c ****     *  No.
1191:.\Generated_Source\PSoC5/uart_solinst.c ****     *
1192:.\Generated_Source\PSoC5/uart_solinst.c ****     * Theory:
1193:.\Generated_Source\PSoC5/uart_solinst.c ****     *  This function will block if there is not enough memory to place the whole
1194:.\Generated_Source\PSoC5/uart_solinst.c ****     *  string, it will block until the entire string has been written to the
1195:.\Generated_Source\PSoC5/uart_solinst.c ****     *  transmit buffer.
1196:.\Generated_Source\PSoC5/uart_solinst.c ****     *
1197:.\Generated_Source\PSoC5/uart_solinst.c ****     *******************************************************************************/
1198:.\Generated_Source\PSoC5/uart_solinst.c ****     void uart_solinst_PutString(const char8 string[]) 
1199:.\Generated_Source\PSoC5/uart_solinst.c ****     {
 960              		.loc 1 1199 0
 961              		.cfi_startproc
 962              		@ args = 0, pretend = 0, frame = 16
 963              		@ frame_needed = 1, uses_anonymous_args = 0
ARM GAS  C:\Users\karunmj\AppData\Local\Temp\ccOxugR9.s 			page 39


 964 0000 80B5     		push	{r7, lr}
 965              	.LCFI55:
 966              		.cfi_def_cfa_offset 8
 967 0002 84B0     		sub	sp, sp, #16
 968              	.LCFI56:
 969              		.cfi_def_cfa_offset 24
 970 0004 00AF     		add	r7, sp, #0
 971              		.cfi_offset 14, -4
 972              		.cfi_offset 7, -8
 973              	.LCFI57:
 974              		.cfi_def_cfa_register 7
 975 0006 7860     		str	r0, [r7, #4]
1200:.\Generated_Source\PSoC5/uart_solinst.c ****         uint16 buf_index = 0u;
 976              		.loc 1 1200 0
 977 0008 4FF00003 		mov	r3, #0
 978 000c FB81     		strh	r3, [r7, #14]	@ movhi
1201:.\Generated_Source\PSoC5/uart_solinst.c ****         /* If not Initialized then skip this function*/
1202:.\Generated_Source\PSoC5/uart_solinst.c ****         if(uart_solinst_initVar != 0u)
 979              		.loc 1 1202 0
 980 000e 40F20003 		movw	r3, #:lower16:uart_solinst_initVar
 981 0012 C0F20003 		movt	r3, #:upper16:uart_solinst_initVar
 982 0016 1B78     		ldrb	r3, [r3, #0]	@ zero_extendqisi2
 983 0018 002B     		cmp	r3, #0
 984 001a 11D0     		beq	.L51
1203:.\Generated_Source\PSoC5/uart_solinst.c ****         {
1204:.\Generated_Source\PSoC5/uart_solinst.c ****             /* This is a blocking function, it will not exit until all data is sent*/
1205:.\Generated_Source\PSoC5/uart_solinst.c ****             while(string[buf_index] != (char8)0)
 985              		.loc 1 1205 0
 986 001c 0AE0     		b	.L49
 987              	.L50:
1206:.\Generated_Source\PSoC5/uart_solinst.c ****             {
1207:.\Generated_Source\PSoC5/uart_solinst.c ****                 uart_solinst_PutChar((uint8)string[buf_index]);
 988              		.loc 1 1207 0
 989 001e FA89     		ldrh	r2, [r7, #14]
 990 0020 7B68     		ldr	r3, [r7, #4]
 991 0022 1344     		add	r3, r2, r3
 992 0024 1B78     		ldrb	r3, [r3, #0]	@ zero_extendqisi2
 993 0026 1846     		mov	r0, r3
 994 0028 FFF7FEFF 		bl	uart_solinst_PutChar
1208:.\Generated_Source\PSoC5/uart_solinst.c ****                 buf_index++;
 995              		.loc 1 1208 0
 996 002c FB89     		ldrh	r3, [r7, #14]	@ movhi
 997 002e 03F10103 		add	r3, r3, #1
 998 0032 FB81     		strh	r3, [r7, #14]	@ movhi
 999              	.L49:
 1000              		.loc 1 1205 0
 1001 0034 FA89     		ldrh	r2, [r7, #14]
 1002 0036 7B68     		ldr	r3, [r7, #4]
 1003 0038 1344     		add	r3, r2, r3
 1004 003a 1B78     		ldrb	r3, [r3, #0]	@ zero_extendqisi2
 1005 003c 002B     		cmp	r3, #0
 1006 003e EED1     		bne	.L50
 1007              	.L51:
1209:.\Generated_Source\PSoC5/uart_solinst.c ****             }
1210:.\Generated_Source\PSoC5/uart_solinst.c ****         }
1211:.\Generated_Source\PSoC5/uart_solinst.c ****     }
 1008              		.loc 1 1211 0
ARM GAS  C:\Users\karunmj\AppData\Local\Temp\ccOxugR9.s 			page 40


 1009 0040 07F11007 		add	r7, r7, #16
 1010 0044 BD46     		mov	sp, r7
 1011 0046 80BD     		pop	{r7, pc}
 1012              		.cfi_endproc
 1013              	.LFE20:
 1014              		.size	uart_solinst_PutString, .-uart_solinst_PutString
 1015              		.section	.text.uart_solinst_PutArray,"ax",%progbits
 1016              		.align	2
 1017              		.global	uart_solinst_PutArray
 1018              		.thumb
 1019              		.thumb_func
 1020              		.type	uart_solinst_PutArray, %function
 1021              	uart_solinst_PutArray:
 1022              	.LFB21:
1212:.\Generated_Source\PSoC5/uart_solinst.c **** 
1213:.\Generated_Source\PSoC5/uart_solinst.c **** 
1214:.\Generated_Source\PSoC5/uart_solinst.c ****     /*******************************************************************************
1215:.\Generated_Source\PSoC5/uart_solinst.c ****     * Function Name: uart_solinst_PutArray
1216:.\Generated_Source\PSoC5/uart_solinst.c ****     ********************************************************************************
1217:.\Generated_Source\PSoC5/uart_solinst.c ****     *
1218:.\Generated_Source\PSoC5/uart_solinst.c ****     * Summary:
1219:.\Generated_Source\PSoC5/uart_solinst.c ****     *  Write a Sequence of bytes on the Transmit line. Data comes from RAM or ROM.
1220:.\Generated_Source\PSoC5/uart_solinst.c ****     *
1221:.\Generated_Source\PSoC5/uart_solinst.c ****     * Parameters:
1222:.\Generated_Source\PSoC5/uart_solinst.c ****     *  string: Address of the memory array residing in RAM or ROM.
1223:.\Generated_Source\PSoC5/uart_solinst.c ****     *  byteCount: Number of Bytes to be transmitted.
1224:.\Generated_Source\PSoC5/uart_solinst.c ****     *
1225:.\Generated_Source\PSoC5/uart_solinst.c ****     * Return:
1226:.\Generated_Source\PSoC5/uart_solinst.c ****     *  None.
1227:.\Generated_Source\PSoC5/uart_solinst.c ****     *
1228:.\Generated_Source\PSoC5/uart_solinst.c ****     * Global Variables:
1229:.\Generated_Source\PSoC5/uart_solinst.c ****     *  uart_solinst_initVar - checked to identify that the component has been
1230:.\Generated_Source\PSoC5/uart_solinst.c ****     *     initialized.
1231:.\Generated_Source\PSoC5/uart_solinst.c ****     *
1232:.\Generated_Source\PSoC5/uart_solinst.c ****     * Reentrant:
1233:.\Generated_Source\PSoC5/uart_solinst.c ****     *  No.
1234:.\Generated_Source\PSoC5/uart_solinst.c ****     *
1235:.\Generated_Source\PSoC5/uart_solinst.c ****     *******************************************************************************/
1236:.\Generated_Source\PSoC5/uart_solinst.c ****     void uart_solinst_PutArray(const uint8 string[], uint8 byteCount)
1237:.\Generated_Source\PSoC5/uart_solinst.c ****                                                                     
1238:.\Generated_Source\PSoC5/uart_solinst.c ****     {
 1023              		.loc 1 1238 0
 1024              		.cfi_startproc
 1025              		@ args = 0, pretend = 0, frame = 16
 1026              		@ frame_needed = 1, uses_anonymous_args = 0
 1027 0000 80B5     		push	{r7, lr}
 1028              	.LCFI58:
 1029              		.cfi_def_cfa_offset 8
 1030 0002 84B0     		sub	sp, sp, #16
 1031              	.LCFI59:
 1032              		.cfi_def_cfa_offset 24
 1033 0004 00AF     		add	r7, sp, #0
 1034              		.cfi_offset 14, -4
 1035              		.cfi_offset 7, -8
 1036              	.LCFI60:
 1037              		.cfi_def_cfa_register 7
 1038 0006 7860     		str	r0, [r7, #4]
ARM GAS  C:\Users\karunmj\AppData\Local\Temp\ccOxugR9.s 			page 41


 1039 0008 0B46     		mov	r3, r1
 1040 000a FB70     		strb	r3, [r7, #3]
1239:.\Generated_Source\PSoC5/uart_solinst.c ****         uint8 buf_index = 0u;
 1041              		.loc 1 1239 0
 1042 000c 4FF00003 		mov	r3, #0
 1043 0010 FB73     		strb	r3, [r7, #15]
1240:.\Generated_Source\PSoC5/uart_solinst.c ****         /* If not Initialized then skip this function*/
1241:.\Generated_Source\PSoC5/uart_solinst.c ****         if(uart_solinst_initVar != 0u)
 1044              		.loc 1 1241 0
 1045 0012 40F20003 		movw	r3, #:lower16:uart_solinst_initVar
 1046 0016 C0F20003 		movt	r3, #:upper16:uart_solinst_initVar
 1047 001a 1B78     		ldrb	r3, [r3, #0]	@ zero_extendqisi2
 1048 001c 002B     		cmp	r3, #0
 1049 001e 0ED0     		beq	.L55
 1050              	.L54:
1242:.\Generated_Source\PSoC5/uart_solinst.c ****         {
1243:.\Generated_Source\PSoC5/uart_solinst.c ****             do
1244:.\Generated_Source\PSoC5/uart_solinst.c ****             {
1245:.\Generated_Source\PSoC5/uart_solinst.c ****                 uart_solinst_PutChar(string[buf_index]);
 1051              		.loc 1 1245 0
 1052 0020 FA7B     		ldrb	r2, [r7, #15]	@ zero_extendqisi2
 1053 0022 7B68     		ldr	r3, [r7, #4]
 1054 0024 1344     		add	r3, r2, r3
 1055 0026 1B78     		ldrb	r3, [r3, #0]	@ zero_extendqisi2
 1056 0028 1846     		mov	r0, r3
 1057 002a FFF7FEFF 		bl	uart_solinst_PutChar
1246:.\Generated_Source\PSoC5/uart_solinst.c ****                 buf_index++;
 1058              		.loc 1 1246 0
 1059 002e FB7B     		ldrb	r3, [r7, #15]
 1060 0030 03F10103 		add	r3, r3, #1
 1061 0034 FB73     		strb	r3, [r7, #15]
1247:.\Generated_Source\PSoC5/uart_solinst.c ****             }while(buf_index < byteCount);
 1062              		.loc 1 1247 0
 1063 0036 FA7B     		ldrb	r2, [r7, #15]	@ zero_extendqisi2
 1064 0038 FB78     		ldrb	r3, [r7, #3]	@ zero_extendqisi2
 1065 003a 9A42     		cmp	r2, r3
 1066 003c F0D3     		bcc	.L54
 1067              	.L55:
1248:.\Generated_Source\PSoC5/uart_solinst.c ****         }
1249:.\Generated_Source\PSoC5/uart_solinst.c ****     }
 1068              		.loc 1 1249 0
 1069 003e 07F11007 		add	r7, r7, #16
 1070 0042 BD46     		mov	sp, r7
 1071 0044 80BD     		pop	{r7, pc}
 1072              		.cfi_endproc
 1073              	.LFE21:
 1074              		.size	uart_solinst_PutArray, .-uart_solinst_PutArray
 1075 0046 00BF     		.section	.text.uart_solinst_PutCRLF,"ax",%progbits
 1076              		.align	2
 1077              		.global	uart_solinst_PutCRLF
 1078              		.thumb
 1079              		.thumb_func
 1080              		.type	uart_solinst_PutCRLF, %function
 1081              	uart_solinst_PutCRLF:
 1082              	.LFB22:
1250:.\Generated_Source\PSoC5/uart_solinst.c **** 
1251:.\Generated_Source\PSoC5/uart_solinst.c **** 
ARM GAS  C:\Users\karunmj\AppData\Local\Temp\ccOxugR9.s 			page 42


1252:.\Generated_Source\PSoC5/uart_solinst.c ****     /*******************************************************************************
1253:.\Generated_Source\PSoC5/uart_solinst.c ****     * Function Name: uart_solinst_PutCRLF
1254:.\Generated_Source\PSoC5/uart_solinst.c ****     ********************************************************************************
1255:.\Generated_Source\PSoC5/uart_solinst.c ****     *
1256:.\Generated_Source\PSoC5/uart_solinst.c ****     * Summary:
1257:.\Generated_Source\PSoC5/uart_solinst.c ****     *  Write a character and then carriage return and line feed.
1258:.\Generated_Source\PSoC5/uart_solinst.c ****     *
1259:.\Generated_Source\PSoC5/uart_solinst.c ****     * Parameters:
1260:.\Generated_Source\PSoC5/uart_solinst.c ****     *  txDataByte: uint8 Character to send.
1261:.\Generated_Source\PSoC5/uart_solinst.c ****     *
1262:.\Generated_Source\PSoC5/uart_solinst.c ****     * Return:
1263:.\Generated_Source\PSoC5/uart_solinst.c ****     *  None.
1264:.\Generated_Source\PSoC5/uart_solinst.c ****     *
1265:.\Generated_Source\PSoC5/uart_solinst.c ****     * Global Variables:
1266:.\Generated_Source\PSoC5/uart_solinst.c ****     *  uart_solinst_initVar - checked to identify that the component has been
1267:.\Generated_Source\PSoC5/uart_solinst.c ****     *     initialized.
1268:.\Generated_Source\PSoC5/uart_solinst.c ****     *
1269:.\Generated_Source\PSoC5/uart_solinst.c ****     * Reentrant:
1270:.\Generated_Source\PSoC5/uart_solinst.c ****     *  No.
1271:.\Generated_Source\PSoC5/uart_solinst.c ****     *
1272:.\Generated_Source\PSoC5/uart_solinst.c ****     *******************************************************************************/
1273:.\Generated_Source\PSoC5/uart_solinst.c ****     void uart_solinst_PutCRLF(uint8 txDataByte) 
1274:.\Generated_Source\PSoC5/uart_solinst.c ****     {
 1083              		.loc 1 1274 0
 1084              		.cfi_startproc
 1085              		@ args = 0, pretend = 0, frame = 8
 1086              		@ frame_needed = 1, uses_anonymous_args = 0
 1087 0000 80B5     		push	{r7, lr}
 1088              	.LCFI61:
 1089              		.cfi_def_cfa_offset 8
 1090 0002 82B0     		sub	sp, sp, #8
 1091              	.LCFI62:
 1092              		.cfi_def_cfa_offset 16
 1093 0004 00AF     		add	r7, sp, #0
 1094              		.cfi_offset 14, -4
 1095              		.cfi_offset 7, -8
 1096              	.LCFI63:
 1097              		.cfi_def_cfa_register 7
 1098 0006 0346     		mov	r3, r0
 1099 0008 FB71     		strb	r3, [r7, #7]
1275:.\Generated_Source\PSoC5/uart_solinst.c ****         /* If not Initialized then skip this function*/
1276:.\Generated_Source\PSoC5/uart_solinst.c ****         if(uart_solinst_initVar != 0u)
 1100              		.loc 1 1276 0
 1101 000a 40F20003 		movw	r3, #:lower16:uart_solinst_initVar
 1102 000e C0F20003 		movt	r3, #:upper16:uart_solinst_initVar
 1103 0012 1B78     		ldrb	r3, [r3, #0]	@ zero_extendqisi2
 1104 0014 002B     		cmp	r3, #0
 1105 0016 0BD0     		beq	.L58
1277:.\Generated_Source\PSoC5/uart_solinst.c ****         {
1278:.\Generated_Source\PSoC5/uart_solinst.c ****             uart_solinst_PutChar(txDataByte);
 1106              		.loc 1 1278 0
 1107 0018 FB79     		ldrb	r3, [r7, #7]	@ zero_extendqisi2
 1108 001a 1846     		mov	r0, r3
 1109 001c FFF7FEFF 		bl	uart_solinst_PutChar
1279:.\Generated_Source\PSoC5/uart_solinst.c ****             uart_solinst_PutChar(0x0Du);
 1110              		.loc 1 1279 0
 1111 0020 4FF00D00 		mov	r0, #13
ARM GAS  C:\Users\karunmj\AppData\Local\Temp\ccOxugR9.s 			page 43


 1112 0024 FFF7FEFF 		bl	uart_solinst_PutChar
1280:.\Generated_Source\PSoC5/uart_solinst.c ****             uart_solinst_PutChar(0x0Au);
 1113              		.loc 1 1280 0
 1114 0028 4FF00A00 		mov	r0, #10
 1115 002c FFF7FEFF 		bl	uart_solinst_PutChar
 1116              	.L58:
1281:.\Generated_Source\PSoC5/uart_solinst.c ****         }
1282:.\Generated_Source\PSoC5/uart_solinst.c ****     }
 1117              		.loc 1 1282 0
 1118 0030 07F10807 		add	r7, r7, #8
 1119 0034 BD46     		mov	sp, r7
 1120 0036 80BD     		pop	{r7, pc}
 1121              		.cfi_endproc
 1122              	.LFE22:
 1123              		.size	uart_solinst_PutCRLF, .-uart_solinst_PutCRLF
 1124              		.section	.text.uart_solinst_GetTxBufferSize,"ax",%progbits
 1125              		.align	2
 1126              		.global	uart_solinst_GetTxBufferSize
 1127              		.thumb
 1128              		.thumb_func
 1129              		.type	uart_solinst_GetTxBufferSize, %function
 1130              	uart_solinst_GetTxBufferSize:
 1131              	.LFB23:
1283:.\Generated_Source\PSoC5/uart_solinst.c **** 
1284:.\Generated_Source\PSoC5/uart_solinst.c **** 
1285:.\Generated_Source\PSoC5/uart_solinst.c ****     /*******************************************************************************
1286:.\Generated_Source\PSoC5/uart_solinst.c ****     * Function Name: uart_solinst_GetTxBufferSize
1287:.\Generated_Source\PSoC5/uart_solinst.c ****     ********************************************************************************
1288:.\Generated_Source\PSoC5/uart_solinst.c ****     *
1289:.\Generated_Source\PSoC5/uart_solinst.c ****     * Summary:
1290:.\Generated_Source\PSoC5/uart_solinst.c ****     *  Determine the amount of space left in the TX buffer and return the count in
1291:.\Generated_Source\PSoC5/uart_solinst.c ****     *  bytes
1292:.\Generated_Source\PSoC5/uart_solinst.c ****     *
1293:.\Generated_Source\PSoC5/uart_solinst.c ****     * Parameters:
1294:.\Generated_Source\PSoC5/uart_solinst.c ****     *  None.
1295:.\Generated_Source\PSoC5/uart_solinst.c ****     *
1296:.\Generated_Source\PSoC5/uart_solinst.c ****     * Return:
1297:.\Generated_Source\PSoC5/uart_solinst.c ****     *  Integer count of the number of bytes left in the TX buffer
1298:.\Generated_Source\PSoC5/uart_solinst.c ****     *
1299:.\Generated_Source\PSoC5/uart_solinst.c ****     * Global Variables:
1300:.\Generated_Source\PSoC5/uart_solinst.c ****     *  uart_solinst_txBufferWrite - used to calculate left space.
1301:.\Generated_Source\PSoC5/uart_solinst.c ****     *  uart_solinst_txBufferRead - used to calculate left space.
1302:.\Generated_Source\PSoC5/uart_solinst.c ****     *
1303:.\Generated_Source\PSoC5/uart_solinst.c ****     * Reentrant:
1304:.\Generated_Source\PSoC5/uart_solinst.c ****     *  No.
1305:.\Generated_Source\PSoC5/uart_solinst.c ****     *
1306:.\Generated_Source\PSoC5/uart_solinst.c ****     * Theory:
1307:.\Generated_Source\PSoC5/uart_solinst.c ****     *  Allows the user to find out how full the TX Buffer is.
1308:.\Generated_Source\PSoC5/uart_solinst.c ****     *
1309:.\Generated_Source\PSoC5/uart_solinst.c ****     *******************************************************************************/
1310:.\Generated_Source\PSoC5/uart_solinst.c ****     uint8 uart_solinst_GetTxBufferSize(void)
1311:.\Generated_Source\PSoC5/uart_solinst.c ****                                                             
1312:.\Generated_Source\PSoC5/uart_solinst.c ****     {
 1132              		.loc 1 1312 0
 1133              		.cfi_startproc
 1134              		@ args = 0, pretend = 0, frame = 8
 1135              		@ frame_needed = 1, uses_anonymous_args = 0
ARM GAS  C:\Users\karunmj\AppData\Local\Temp\ccOxugR9.s 			page 44


 1136              		@ link register save eliminated.
 1137 0000 80B4     		push	{r7}
 1138              	.LCFI64:
 1139              		.cfi_def_cfa_offset 4
 1140 0002 83B0     		sub	sp, sp, #12
 1141              	.LCFI65:
 1142              		.cfi_def_cfa_offset 16
 1143 0004 00AF     		add	r7, sp, #0
 1144              		.cfi_offset 7, -4
 1145              	.LCFI66:
 1146              		.cfi_def_cfa_register 7
1313:.\Generated_Source\PSoC5/uart_solinst.c ****         uint8 size;
1314:.\Generated_Source\PSoC5/uart_solinst.c **** 
1315:.\Generated_Source\PSoC5/uart_solinst.c ****         #if(uart_solinst_TXBUFFERSIZE > uart_solinst_FIFO_LENGTH)
1316:.\Generated_Source\PSoC5/uart_solinst.c **** 
1317:.\Generated_Source\PSoC5/uart_solinst.c ****             /* Disable Tx interrupt. */
1318:.\Generated_Source\PSoC5/uart_solinst.c ****             /* Protect variables that could change on interrupt. */
1319:.\Generated_Source\PSoC5/uart_solinst.c ****             #if(uart_solinst_TX_INTERRUPT_ENABLED)
1320:.\Generated_Source\PSoC5/uart_solinst.c ****                 uart_solinst_DisableTxInt();
1321:.\Generated_Source\PSoC5/uart_solinst.c ****             #endif /* End uart_solinst_TX_INTERRUPT_ENABLED */
1322:.\Generated_Source\PSoC5/uart_solinst.c **** 
1323:.\Generated_Source\PSoC5/uart_solinst.c ****             if(uart_solinst_txBufferRead == uart_solinst_txBufferWrite)
1324:.\Generated_Source\PSoC5/uart_solinst.c ****             {
1325:.\Generated_Source\PSoC5/uart_solinst.c ****                 size = 0u;
1326:.\Generated_Source\PSoC5/uart_solinst.c ****             }
1327:.\Generated_Source\PSoC5/uart_solinst.c ****             else if(uart_solinst_txBufferRead < uart_solinst_txBufferWrite)
1328:.\Generated_Source\PSoC5/uart_solinst.c ****             {
1329:.\Generated_Source\PSoC5/uart_solinst.c ****                 size = (uart_solinst_txBufferWrite - uart_solinst_txBufferRead);
1330:.\Generated_Source\PSoC5/uart_solinst.c ****             }
1331:.\Generated_Source\PSoC5/uart_solinst.c ****             else
1332:.\Generated_Source\PSoC5/uart_solinst.c ****             {
1333:.\Generated_Source\PSoC5/uart_solinst.c ****                 size = (uart_solinst_TXBUFFERSIZE - uart_solinst_txBufferRead) + uart_solinst_txBuf
1334:.\Generated_Source\PSoC5/uart_solinst.c ****             }
1335:.\Generated_Source\PSoC5/uart_solinst.c **** 
1336:.\Generated_Source\PSoC5/uart_solinst.c ****             /* Enable Tx interrupt. */
1337:.\Generated_Source\PSoC5/uart_solinst.c ****             #if(uart_solinst_TX_INTERRUPT_ENABLED)
1338:.\Generated_Source\PSoC5/uart_solinst.c ****                 uart_solinst_EnableTxInt();
1339:.\Generated_Source\PSoC5/uart_solinst.c ****             #endif /* End uart_solinst_TX_INTERRUPT_ENABLED */
1340:.\Generated_Source\PSoC5/uart_solinst.c **** 
1341:.\Generated_Source\PSoC5/uart_solinst.c ****         #else /* uart_solinst_TXBUFFERSIZE > uart_solinst_FIFO_LENGTH */
1342:.\Generated_Source\PSoC5/uart_solinst.c **** 
1343:.\Generated_Source\PSoC5/uart_solinst.c ****             size = uart_solinst_TXSTATUS_REG;
 1147              		.loc 1 1343 0
 1148 0006 46F26953 		movw	r3, #:lower16:1073767785
 1149 000a C4F20003 		movt	r3, #:upper16:1073767785
 1150 000e 1B78     		ldrb	r3, [r3, #0]
 1151 0010 FB71     		strb	r3, [r7, #7]
1344:.\Generated_Source\PSoC5/uart_solinst.c **** 
1345:.\Generated_Source\PSoC5/uart_solinst.c ****             /* Is the fifo is full. */
1346:.\Generated_Source\PSoC5/uart_solinst.c ****             if((size & uart_solinst_TX_STS_FIFO_FULL) != 0u)
 1152              		.loc 1 1346 0
 1153 0012 FB79     		ldrb	r3, [r7, #7]	@ zero_extendqisi2
 1154 0014 03F00403 		and	r3, r3, #4
 1155 0018 002B     		cmp	r3, #0
 1156 001a 03D0     		beq	.L60
1347:.\Generated_Source\PSoC5/uart_solinst.c ****             {
1348:.\Generated_Source\PSoC5/uart_solinst.c ****                 size = uart_solinst_FIFO_LENGTH;
ARM GAS  C:\Users\karunmj\AppData\Local\Temp\ccOxugR9.s 			page 45


 1157              		.loc 1 1348 0
 1158 001c 4FF00403 		mov	r3, #4
 1159 0020 FB71     		strb	r3, [r7, #7]
 1160 0022 0BE0     		b	.L61
 1161              	.L60:
1349:.\Generated_Source\PSoC5/uart_solinst.c ****             }
1350:.\Generated_Source\PSoC5/uart_solinst.c ****             else if((size & uart_solinst_TX_STS_FIFO_EMPTY) != 0u)
 1162              		.loc 1 1350 0
 1163 0024 FB79     		ldrb	r3, [r7, #7]	@ zero_extendqisi2
 1164 0026 03F00203 		and	r3, r3, #2
 1165 002a 002B     		cmp	r3, #0
 1166 002c 03D0     		beq	.L62
1351:.\Generated_Source\PSoC5/uart_solinst.c ****             {
1352:.\Generated_Source\PSoC5/uart_solinst.c ****                 size = 0u;
 1167              		.loc 1 1352 0
 1168 002e 4FF00003 		mov	r3, #0
 1169 0032 FB71     		strb	r3, [r7, #7]
 1170 0034 02E0     		b	.L61
 1171              	.L62:
1353:.\Generated_Source\PSoC5/uart_solinst.c ****             }
1354:.\Generated_Source\PSoC5/uart_solinst.c ****             else
1355:.\Generated_Source\PSoC5/uart_solinst.c ****             {
1356:.\Generated_Source\PSoC5/uart_solinst.c ****                 /* We only know there is data in the fifo. */
1357:.\Generated_Source\PSoC5/uart_solinst.c ****                 size = 1u;
 1172              		.loc 1 1357 0
 1173 0036 4FF00103 		mov	r3, #1
 1174 003a FB71     		strb	r3, [r7, #7]
 1175              	.L61:
1358:.\Generated_Source\PSoC5/uart_solinst.c ****             }
1359:.\Generated_Source\PSoC5/uart_solinst.c **** 
1360:.\Generated_Source\PSoC5/uart_solinst.c ****         #endif /* End uart_solinst_TXBUFFERSIZE > uart_solinst_FIFO_LENGTH */
1361:.\Generated_Source\PSoC5/uart_solinst.c **** 
1362:.\Generated_Source\PSoC5/uart_solinst.c ****         return(size);
 1176              		.loc 1 1362 0
 1177 003c FB79     		ldrb	r3, [r7, #7]	@ zero_extendqisi2
1363:.\Generated_Source\PSoC5/uart_solinst.c ****     }
 1178              		.loc 1 1363 0
 1179 003e 1846     		mov	r0, r3
 1180 0040 07F10C07 		add	r7, r7, #12
 1181 0044 BD46     		mov	sp, r7
 1182 0046 80BC     		pop	{r7}
 1183 0048 7047     		bx	lr
 1184              		.cfi_endproc
 1185              	.LFE23:
 1186              		.size	uart_solinst_GetTxBufferSize, .-uart_solinst_GetTxBufferSize
 1187 004a 00BF     		.section	.text.uart_solinst_ClearTxBuffer,"ax",%progbits
 1188              		.align	2
 1189              		.global	uart_solinst_ClearTxBuffer
 1190              		.thumb
 1191              		.thumb_func
 1192              		.type	uart_solinst_ClearTxBuffer, %function
 1193              	uart_solinst_ClearTxBuffer:
 1194              	.LFB24:
1364:.\Generated_Source\PSoC5/uart_solinst.c **** 
1365:.\Generated_Source\PSoC5/uart_solinst.c **** 
1366:.\Generated_Source\PSoC5/uart_solinst.c ****     /*******************************************************************************
1367:.\Generated_Source\PSoC5/uart_solinst.c ****     * Function Name: uart_solinst_ClearTxBuffer
ARM GAS  C:\Users\karunmj\AppData\Local\Temp\ccOxugR9.s 			page 46


1368:.\Generated_Source\PSoC5/uart_solinst.c ****     ********************************************************************************
1369:.\Generated_Source\PSoC5/uart_solinst.c ****     *
1370:.\Generated_Source\PSoC5/uart_solinst.c ****     * Summary:
1371:.\Generated_Source\PSoC5/uart_solinst.c ****     *  Clears the TX RAM buffer by setting the read and write pointers both to zero.
1372:.\Generated_Source\PSoC5/uart_solinst.c ****     *  Clears the hardware TX FIFO.  Any data present in the FIFO will not be sent.
1373:.\Generated_Source\PSoC5/uart_solinst.c ****     *
1374:.\Generated_Source\PSoC5/uart_solinst.c ****     * Parameters:
1375:.\Generated_Source\PSoC5/uart_solinst.c ****     *  None.
1376:.\Generated_Source\PSoC5/uart_solinst.c ****     *
1377:.\Generated_Source\PSoC5/uart_solinst.c ****     * Return:
1378:.\Generated_Source\PSoC5/uart_solinst.c ****     *  None.
1379:.\Generated_Source\PSoC5/uart_solinst.c ****     *
1380:.\Generated_Source\PSoC5/uart_solinst.c ****     * Global Variables:
1381:.\Generated_Source\PSoC5/uart_solinst.c ****     *  uart_solinst_txBufferWrite - cleared to zero.
1382:.\Generated_Source\PSoC5/uart_solinst.c ****     *  uart_solinst_txBufferRead - cleared to zero.
1383:.\Generated_Source\PSoC5/uart_solinst.c ****     *
1384:.\Generated_Source\PSoC5/uart_solinst.c ****     * Reentrant:
1385:.\Generated_Source\PSoC5/uart_solinst.c ****     *  No.
1386:.\Generated_Source\PSoC5/uart_solinst.c ****     *
1387:.\Generated_Source\PSoC5/uart_solinst.c ****     * Theory:
1388:.\Generated_Source\PSoC5/uart_solinst.c ****     *  Setting the pointers to zero makes the system believe there is no data to
1389:.\Generated_Source\PSoC5/uart_solinst.c ****     *  read and writing will resume at address 0 overwriting any data that may have
1390:.\Generated_Source\PSoC5/uart_solinst.c ****     *  remained in the RAM.
1391:.\Generated_Source\PSoC5/uart_solinst.c ****     *
1392:.\Generated_Source\PSoC5/uart_solinst.c ****     * Side Effects:
1393:.\Generated_Source\PSoC5/uart_solinst.c ****     *  Any received data not read from the RAM buffer will be lost when overwritten.
1394:.\Generated_Source\PSoC5/uart_solinst.c ****     *
1395:.\Generated_Source\PSoC5/uart_solinst.c ****     *******************************************************************************/
1396:.\Generated_Source\PSoC5/uart_solinst.c ****     void uart_solinst_ClearTxBuffer(void) 
1397:.\Generated_Source\PSoC5/uart_solinst.c ****     {
 1195              		.loc 1 1397 0
 1196              		.cfi_startproc
 1197              		@ args = 0, pretend = 0, frame = 8
 1198              		@ frame_needed = 1, uses_anonymous_args = 0
 1199 0000 80B5     		push	{r7, lr}
 1200              	.LCFI67:
 1201              		.cfi_def_cfa_offset 8
 1202 0002 82B0     		sub	sp, sp, #8
 1203              	.LCFI68:
 1204              		.cfi_def_cfa_offset 16
 1205 0004 00AF     		add	r7, sp, #0
 1206              		.cfi_offset 14, -4
 1207              		.cfi_offset 7, -8
 1208              	.LCFI69:
 1209              		.cfi_def_cfa_register 7
1398:.\Generated_Source\PSoC5/uart_solinst.c ****         uint8 enableInterrupts;
1399:.\Generated_Source\PSoC5/uart_solinst.c **** 
1400:.\Generated_Source\PSoC5/uart_solinst.c ****         /* Enter critical section */
1401:.\Generated_Source\PSoC5/uart_solinst.c ****         enableInterrupts = CyEnterCriticalSection();
 1210              		.loc 1 1401 0
 1211 0006 FFF7FEFF 		bl	CyEnterCriticalSection
 1212 000a 0346     		mov	r3, r0
 1213 000c FB71     		strb	r3, [r7, #7]
1402:.\Generated_Source\PSoC5/uart_solinst.c ****         /* clear the HW FIFO */
1403:.\Generated_Source\PSoC5/uart_solinst.c ****         uart_solinst_TXDATA_AUX_CTL_REG |=  uart_solinst_TX_FIFO_CLR;
 1214              		.loc 1 1403 0
 1215 000e 46F29953 		movw	r3, #:lower16:1073767833
ARM GAS  C:\Users\karunmj\AppData\Local\Temp\ccOxugR9.s 			page 47


 1216 0012 C4F20003 		movt	r3, #:upper16:1073767833
 1217 0016 46F29952 		movw	r2, #:lower16:1073767833
 1218 001a C4F20002 		movt	r2, #:upper16:1073767833
 1219 001e 1278     		ldrb	r2, [r2, #0]
 1220 0020 D2B2     		uxtb	r2, r2
 1221 0022 42F00102 		orr	r2, r2, #1
 1222 0026 D2B2     		uxtb	r2, r2
 1223 0028 1A70     		strb	r2, [r3, #0]
1404:.\Generated_Source\PSoC5/uart_solinst.c ****         uart_solinst_TXDATA_AUX_CTL_REG &= (uint8)~uart_solinst_TX_FIFO_CLR;
 1224              		.loc 1 1404 0
 1225 002a 46F29953 		movw	r3, #:lower16:1073767833
 1226 002e C4F20003 		movt	r3, #:upper16:1073767833
 1227 0032 46F29952 		movw	r2, #:lower16:1073767833
 1228 0036 C4F20002 		movt	r2, #:upper16:1073767833
 1229 003a 1278     		ldrb	r2, [r2, #0]
 1230 003c D2B2     		uxtb	r2, r2
 1231 003e 02F0FE02 		and	r2, r2, #254
 1232 0042 1A70     		strb	r2, [r3, #0]
1405:.\Generated_Source\PSoC5/uart_solinst.c ****         /* Exit critical section */
1406:.\Generated_Source\PSoC5/uart_solinst.c ****         CyExitCriticalSection(enableInterrupts);
 1233              		.loc 1 1406 0
 1234 0044 FB79     		ldrb	r3, [r7, #7]	@ zero_extendqisi2
 1235 0046 1846     		mov	r0, r3
 1236 0048 FFF7FEFF 		bl	CyExitCriticalSection
1407:.\Generated_Source\PSoC5/uart_solinst.c **** 
1408:.\Generated_Source\PSoC5/uart_solinst.c ****         #if(uart_solinst_TXBUFFERSIZE > uart_solinst_FIFO_LENGTH)
1409:.\Generated_Source\PSoC5/uart_solinst.c **** 
1410:.\Generated_Source\PSoC5/uart_solinst.c ****             /* Disable Tx interrupt. */
1411:.\Generated_Source\PSoC5/uart_solinst.c ****             /* Protect variables that could change on interrupt. */
1412:.\Generated_Source\PSoC5/uart_solinst.c ****             #if(uart_solinst_TX_INTERRUPT_ENABLED)
1413:.\Generated_Source\PSoC5/uart_solinst.c ****                 uart_solinst_DisableTxInt();
1414:.\Generated_Source\PSoC5/uart_solinst.c ****             #endif /* End uart_solinst_TX_INTERRUPT_ENABLED */
1415:.\Generated_Source\PSoC5/uart_solinst.c **** 
1416:.\Generated_Source\PSoC5/uart_solinst.c ****             uart_solinst_txBufferRead = 0u;
1417:.\Generated_Source\PSoC5/uart_solinst.c ****             uart_solinst_txBufferWrite = 0u;
1418:.\Generated_Source\PSoC5/uart_solinst.c **** 
1419:.\Generated_Source\PSoC5/uart_solinst.c ****             /* Enable Tx interrupt. */
1420:.\Generated_Source\PSoC5/uart_solinst.c ****             #if(uart_solinst_TX_INTERRUPT_ENABLED)
1421:.\Generated_Source\PSoC5/uart_solinst.c ****                 uart_solinst_EnableTxInt();
1422:.\Generated_Source\PSoC5/uart_solinst.c ****             #endif /* End uart_solinst_TX_INTERRUPT_ENABLED */
1423:.\Generated_Source\PSoC5/uart_solinst.c **** 
1424:.\Generated_Source\PSoC5/uart_solinst.c ****         #endif /* End uart_solinst_TXBUFFERSIZE > uart_solinst_FIFO_LENGTH */
1425:.\Generated_Source\PSoC5/uart_solinst.c ****     }
 1237              		.loc 1 1425 0
 1238 004c 07F10807 		add	r7, r7, #8
 1239 0050 BD46     		mov	sp, r7
 1240 0052 80BD     		pop	{r7, pc}
 1241              		.cfi_endproc
 1242              	.LFE24:
 1243              		.size	uart_solinst_ClearTxBuffer, .-uart_solinst_ClearTxBuffer
 1244              		.section	.text.uart_solinst_SendBreak,"ax",%progbits
 1245              		.align	2
 1246              		.global	uart_solinst_SendBreak
 1247              		.thumb
 1248              		.thumb_func
 1249              		.type	uart_solinst_SendBreak, %function
 1250              	uart_solinst_SendBreak:
ARM GAS  C:\Users\karunmj\AppData\Local\Temp\ccOxugR9.s 			page 48


 1251              	.LFB25:
1426:.\Generated_Source\PSoC5/uart_solinst.c **** 
1427:.\Generated_Source\PSoC5/uart_solinst.c **** 
1428:.\Generated_Source\PSoC5/uart_solinst.c ****     /*******************************************************************************
1429:.\Generated_Source\PSoC5/uart_solinst.c ****     * Function Name: uart_solinst_SendBreak
1430:.\Generated_Source\PSoC5/uart_solinst.c ****     ********************************************************************************
1431:.\Generated_Source\PSoC5/uart_solinst.c ****     *
1432:.\Generated_Source\PSoC5/uart_solinst.c ****     * Summary:
1433:.\Generated_Source\PSoC5/uart_solinst.c ****     *  Write a Break command to the UART
1434:.\Generated_Source\PSoC5/uart_solinst.c ****     *
1435:.\Generated_Source\PSoC5/uart_solinst.c ****     * Parameters:
1436:.\Generated_Source\PSoC5/uart_solinst.c ****     *  uint8 retMode:  Wait mode,
1437:.\Generated_Source\PSoC5/uart_solinst.c ****     *   0 - Initialize registers for Break, sends the Break signal and return
1438:.\Generated_Source\PSoC5/uart_solinst.c ****     *       imediately.
1439:.\Generated_Source\PSoC5/uart_solinst.c ****     *   1 - Wait until Break sending is complete, reinitialize registers to normal
1440:.\Generated_Source\PSoC5/uart_solinst.c ****     *       transmission mode then return.
1441:.\Generated_Source\PSoC5/uart_solinst.c ****     *   2 - Reinitialize registers to normal transmission mode then return.
1442:.\Generated_Source\PSoC5/uart_solinst.c ****     *   3 - both steps: 0 and 1
1443:.\Generated_Source\PSoC5/uart_solinst.c ****     *       init registers for Break, send Break signal
1444:.\Generated_Source\PSoC5/uart_solinst.c ****     *       wait until Break sending is complete, reinit registers to normal
1445:.\Generated_Source\PSoC5/uart_solinst.c ****     *       transmission mode then return.
1446:.\Generated_Source\PSoC5/uart_solinst.c ****     *
1447:.\Generated_Source\PSoC5/uart_solinst.c ****     * Return:
1448:.\Generated_Source\PSoC5/uart_solinst.c ****     *  None.
1449:.\Generated_Source\PSoC5/uart_solinst.c ****     *
1450:.\Generated_Source\PSoC5/uart_solinst.c ****     * Global Variables:
1451:.\Generated_Source\PSoC5/uart_solinst.c ****     *  uart_solinst_initVar - checked to identify that the component has been
1452:.\Generated_Source\PSoC5/uart_solinst.c ****     *     initialized.
1453:.\Generated_Source\PSoC5/uart_solinst.c ****     *  tx_period - static variable, used for keeping TX period configuration.
1454:.\Generated_Source\PSoC5/uart_solinst.c ****     *
1455:.\Generated_Source\PSoC5/uart_solinst.c ****     * Reentrant:
1456:.\Generated_Source\PSoC5/uart_solinst.c ****     *  No.
1457:.\Generated_Source\PSoC5/uart_solinst.c ****     *
1458:.\Generated_Source\PSoC5/uart_solinst.c ****     * Theory:
1459:.\Generated_Source\PSoC5/uart_solinst.c ****     *  SendBreak function initializes registers to send 13-bit break signal. It is
1460:.\Generated_Source\PSoC5/uart_solinst.c ****     *  important to return the registers configuration to normal for continue 8-bit
1461:.\Generated_Source\PSoC5/uart_solinst.c ****     *  operation.
1462:.\Generated_Source\PSoC5/uart_solinst.c ****     *  Trere are 3 variants for this API usage:
1463:.\Generated_Source\PSoC5/uart_solinst.c ****     *  1) SendBreak(3) - function will send the Break signal and take care on the
1464:.\Generated_Source\PSoC5/uart_solinst.c ****     *     configuration returning. Funcition will block CPU untill transmition
1465:.\Generated_Source\PSoC5/uart_solinst.c ****     *     complete.
1466:.\Generated_Source\PSoC5/uart_solinst.c ****     *  2) User may want to use bloking time if UART configured to the low speed
1467:.\Generated_Source\PSoC5/uart_solinst.c ****     *     operation
1468:.\Generated_Source\PSoC5/uart_solinst.c ****     *     Emample for this case:
1469:.\Generated_Source\PSoC5/uart_solinst.c ****     *     SendBreak(0);     - init Break signal transmition
1470:.\Generated_Source\PSoC5/uart_solinst.c ****     *         Add your code here to use CPU time
1471:.\Generated_Source\PSoC5/uart_solinst.c ****     *     SendBreak(1);     - complete Break operation
1472:.\Generated_Source\PSoC5/uart_solinst.c ****     *  3) Same to 2) but user may want to init and use the interrupt for complete
1473:.\Generated_Source\PSoC5/uart_solinst.c ****     *     break operation.
1474:.\Generated_Source\PSoC5/uart_solinst.c ****     *     Example for this case:
1475:.\Generated_Source\PSoC5/uart_solinst.c ****     *     Init TX interrupt whith "TX - On TX Complete" parameter
1476:.\Generated_Source\PSoC5/uart_solinst.c ****     *     SendBreak(0);     - init Break signal transmition
1477:.\Generated_Source\PSoC5/uart_solinst.c ****     *         Add your code here to use CPU time
1478:.\Generated_Source\PSoC5/uart_solinst.c ****     *     When interrupt appear with UART_TX_STS_COMPLETE status:
1479:.\Generated_Source\PSoC5/uart_solinst.c ****     *     SendBreak(2);     - complete Break operation
1480:.\Generated_Source\PSoC5/uart_solinst.c ****     *
1481:.\Generated_Source\PSoC5/uart_solinst.c ****     * Side Effects:
ARM GAS  C:\Users\karunmj\AppData\Local\Temp\ccOxugR9.s 			page 49


1482:.\Generated_Source\PSoC5/uart_solinst.c ****     *   Uses static variable to keep registers configuration.
1483:.\Generated_Source\PSoC5/uart_solinst.c ****     *
1484:.\Generated_Source\PSoC5/uart_solinst.c ****     *******************************************************************************/
1485:.\Generated_Source\PSoC5/uart_solinst.c ****     void uart_solinst_SendBreak(uint8 retMode) 
1486:.\Generated_Source\PSoC5/uart_solinst.c ****     {
 1252              		.loc 1 1486 0
 1253              		.cfi_startproc
 1254              		@ args = 0, pretend = 0, frame = 16
 1255              		@ frame_needed = 1, uses_anonymous_args = 0
 1256              		@ link register save eliminated.
 1257 0000 80B4     		push	{r7}
 1258              	.LCFI70:
 1259              		.cfi_def_cfa_offset 4
 1260 0002 85B0     		sub	sp, sp, #20
 1261              	.LCFI71:
 1262              		.cfi_def_cfa_offset 24
 1263 0004 00AF     		add	r7, sp, #0
 1264              		.cfi_offset 7, -4
 1265              	.LCFI72:
 1266              		.cfi_def_cfa_register 7
 1267 0006 0346     		mov	r3, r0
 1268 0008 FB71     		strb	r3, [r7, #7]
1487:.\Generated_Source\PSoC5/uart_solinst.c **** 
1488:.\Generated_Source\PSoC5/uart_solinst.c ****         /* If not Initialized then skip this function*/
1489:.\Generated_Source\PSoC5/uart_solinst.c ****         if(uart_solinst_initVar != 0u)
 1269              		.loc 1 1489 0
 1270 000a 40F20003 		movw	r3, #:lower16:uart_solinst_initVar
 1271 000e C0F20003 		movt	r3, #:upper16:uart_solinst_initVar
 1272 0012 1B78     		ldrb	r3, [r3, #0]	@ zero_extendqisi2
 1273 0014 002B     		cmp	r3, #0
 1274 0016 54D0     		beq	.L76
 1275              	.LBB2:
1490:.\Generated_Source\PSoC5/uart_solinst.c ****         {
1491:.\Generated_Source\PSoC5/uart_solinst.c ****             /*Set the Counter to 13-bits and transmit a 00 byte*/
1492:.\Generated_Source\PSoC5/uart_solinst.c ****             /*When that is done then reset the counter value back*/
1493:.\Generated_Source\PSoC5/uart_solinst.c ****             uint8 tmpStat;
1494:.\Generated_Source\PSoC5/uart_solinst.c **** 
1495:.\Generated_Source\PSoC5/uart_solinst.c ****             #if(uart_solinst_HD_ENABLED) /* Half Duplex mode*/
1496:.\Generated_Source\PSoC5/uart_solinst.c **** 
1497:.\Generated_Source\PSoC5/uart_solinst.c ****                 if( (retMode == uart_solinst_SEND_BREAK) ||
1498:.\Generated_Source\PSoC5/uart_solinst.c ****                     (retMode == uart_solinst_SEND_WAIT_REINIT ) )
1499:.\Generated_Source\PSoC5/uart_solinst.c ****                 {
1500:.\Generated_Source\PSoC5/uart_solinst.c ****                     /* CTRL_HD_SEND_BREAK - sends break bits in HD mode*/
1501:.\Generated_Source\PSoC5/uart_solinst.c ****                     uart_solinst_WriteControlRegister(uart_solinst_ReadControlRegister() |
1502:.\Generated_Source\PSoC5/uart_solinst.c ****                                                           uart_solinst_CTRL_HD_SEND_BREAK);
1503:.\Generated_Source\PSoC5/uart_solinst.c ****                     /* Send zeros*/
1504:.\Generated_Source\PSoC5/uart_solinst.c ****                     uart_solinst_TXDATA_REG = 0u;
1505:.\Generated_Source\PSoC5/uart_solinst.c **** 
1506:.\Generated_Source\PSoC5/uart_solinst.c ****                     do /*wait until transmit starts*/
1507:.\Generated_Source\PSoC5/uart_solinst.c ****                     {
1508:.\Generated_Source\PSoC5/uart_solinst.c ****                         tmpStat = uart_solinst_TXSTATUS_REG;
1509:.\Generated_Source\PSoC5/uart_solinst.c ****                     }while((tmpStat & uart_solinst_TX_STS_FIFO_EMPTY) != 0u);
1510:.\Generated_Source\PSoC5/uart_solinst.c ****                 }
1511:.\Generated_Source\PSoC5/uart_solinst.c **** 
1512:.\Generated_Source\PSoC5/uart_solinst.c ****                 if( (retMode == uart_solinst_WAIT_FOR_COMPLETE_REINIT) ||
1513:.\Generated_Source\PSoC5/uart_solinst.c ****                     (retMode == uart_solinst_SEND_WAIT_REINIT) )
1514:.\Generated_Source\PSoC5/uart_solinst.c ****                 {
ARM GAS  C:\Users\karunmj\AppData\Local\Temp\ccOxugR9.s 			page 50


1515:.\Generated_Source\PSoC5/uart_solinst.c ****                     do /*wait until transmit complete*/
1516:.\Generated_Source\PSoC5/uart_solinst.c ****                     {
1517:.\Generated_Source\PSoC5/uart_solinst.c ****                         tmpStat = uart_solinst_TXSTATUS_REG;
1518:.\Generated_Source\PSoC5/uart_solinst.c ****                     }while(((uint8)~tmpStat & uart_solinst_TX_STS_COMPLETE) != 0u);
1519:.\Generated_Source\PSoC5/uart_solinst.c ****                 }
1520:.\Generated_Source\PSoC5/uart_solinst.c **** 
1521:.\Generated_Source\PSoC5/uart_solinst.c ****                 if( (retMode == uart_solinst_WAIT_FOR_COMPLETE_REINIT) ||
1522:.\Generated_Source\PSoC5/uart_solinst.c ****                     (retMode == uart_solinst_REINIT) ||
1523:.\Generated_Source\PSoC5/uart_solinst.c ****                     (retMode == uart_solinst_SEND_WAIT_REINIT) )
1524:.\Generated_Source\PSoC5/uart_solinst.c ****                 {
1525:.\Generated_Source\PSoC5/uart_solinst.c ****                     uart_solinst_WriteControlRegister(uart_solinst_ReadControlRegister() &
1526:.\Generated_Source\PSoC5/uart_solinst.c ****                                                   (uint8)~uart_solinst_CTRL_HD_SEND_BREAK);
1527:.\Generated_Source\PSoC5/uart_solinst.c ****                 }
1528:.\Generated_Source\PSoC5/uart_solinst.c **** 
1529:.\Generated_Source\PSoC5/uart_solinst.c ****             #else /* uart_solinst_HD_ENABLED Full Duplex mode */
1530:.\Generated_Source\PSoC5/uart_solinst.c **** 
1531:.\Generated_Source\PSoC5/uart_solinst.c ****                 static uint8 tx_period;
1532:.\Generated_Source\PSoC5/uart_solinst.c **** 
1533:.\Generated_Source\PSoC5/uart_solinst.c ****                 if( (retMode == uart_solinst_SEND_BREAK) ||
 1276              		.loc 1 1533 0
 1277 0018 FB79     		ldrb	r3, [r7, #7]	@ zero_extendqisi2
 1278 001a 002B     		cmp	r3, #0
 1279 001c 02D0     		beq	.L68
 1280 001e FB79     		ldrb	r3, [r7, #7]	@ zero_extendqisi2
 1281 0020 032B     		cmp	r3, #3
 1282 0022 23D1     		bne	.L69
 1283              	.L68:
1534:.\Generated_Source\PSoC5/uart_solinst.c ****                     (retMode == uart_solinst_SEND_WAIT_REINIT) )
1535:.\Generated_Source\PSoC5/uart_solinst.c ****                 {
1536:.\Generated_Source\PSoC5/uart_solinst.c ****                     /* CTRL_HD_SEND_BREAK - skip to send parity bit at Break signal in Full Duplex 
1537:.\Generated_Source\PSoC5/uart_solinst.c ****                     #if( (uart_solinst_PARITY_TYPE != uart_solinst__B_UART__NONE_REVB) || \
1538:.\Generated_Source\PSoC5/uart_solinst.c ****                                         (uart_solinst_PARITY_TYPE_SW != 0u) )
1539:.\Generated_Source\PSoC5/uart_solinst.c ****                         uart_solinst_WriteControlRegister(uart_solinst_ReadControlRegister() |
1540:.\Generated_Source\PSoC5/uart_solinst.c ****                                                               uart_solinst_CTRL_HD_SEND_BREAK);
1541:.\Generated_Source\PSoC5/uart_solinst.c ****                     #endif /* End uart_solinst_PARITY_TYPE != uart_solinst__B_UART__NONE_REVB  */
1542:.\Generated_Source\PSoC5/uart_solinst.c **** 
1543:.\Generated_Source\PSoC5/uart_solinst.c ****                     #if(uart_solinst_TXCLKGEN_DP)
1544:.\Generated_Source\PSoC5/uart_solinst.c ****                         tx_period = uart_solinst_TXBITCLKTX_COMPLETE_REG;
 1284              		.loc 1 1544 0
 1285 0024 46F23A53 		movw	r3, #:lower16:1073767738
 1286 0028 C4F20003 		movt	r3, #:upper16:1073767738
 1287 002c 1B78     		ldrb	r3, [r3, #0]
 1288 002e DAB2     		uxtb	r2, r3
 1289 0030 40F20003 		movw	r3, #:lower16:tx_period.2282
 1290 0034 C0F20003 		movt	r3, #:upper16:tx_period.2282
 1291 0038 1A70     		strb	r2, [r3, #0]
1545:.\Generated_Source\PSoC5/uart_solinst.c ****                         uart_solinst_TXBITCLKTX_COMPLETE_REG = uart_solinst_TXBITCTR_BREAKBITS;
 1292              		.loc 1 1545 0
 1293 003a 46F23A53 		movw	r3, #:lower16:1073767738
 1294 003e C4F20003 		movt	r3, #:upper16:1073767738
 1295 0042 4FF06702 		mov	r2, #103
 1296 0046 1A70     		strb	r2, [r3, #0]
1546:.\Generated_Source\PSoC5/uart_solinst.c ****                     #else
1547:.\Generated_Source\PSoC5/uart_solinst.c ****                         tx_period = uart_solinst_TXBITCTR_PERIOD_REG;
1548:.\Generated_Source\PSoC5/uart_solinst.c ****                         uart_solinst_TXBITCTR_PERIOD_REG = uart_solinst_TXBITCTR_BREAKBITS8X;
1549:.\Generated_Source\PSoC5/uart_solinst.c ****                     #endif /* End uart_solinst_TXCLKGEN_DP */
1550:.\Generated_Source\PSoC5/uart_solinst.c **** 
ARM GAS  C:\Users\karunmj\AppData\Local\Temp\ccOxugR9.s 			page 51


1551:.\Generated_Source\PSoC5/uart_solinst.c ****                     /* Send zeros*/
1552:.\Generated_Source\PSoC5/uart_solinst.c ****                     uart_solinst_TXDATA_REG = 0u;
 1297              		.loc 1 1552 0
 1298 0048 46F24953 		movw	r3, #:lower16:1073767753
 1299 004c C4F20003 		movt	r3, #:upper16:1073767753
 1300 0050 4FF00002 		mov	r2, #0
 1301 0054 1A70     		strb	r2, [r3, #0]
 1302              	.L70:
1553:.\Generated_Source\PSoC5/uart_solinst.c **** 
1554:.\Generated_Source\PSoC5/uart_solinst.c ****                     do /* wait until transmit starts */
1555:.\Generated_Source\PSoC5/uart_solinst.c ****                     {
1556:.\Generated_Source\PSoC5/uart_solinst.c ****                         tmpStat = uart_solinst_TXSTATUS_REG;
 1303              		.loc 1 1556 0
 1304 0056 46F26953 		movw	r3, #:lower16:1073767785
 1305 005a C4F20003 		movt	r3, #:upper16:1073767785
 1306 005e 1B78     		ldrb	r3, [r3, #0]
 1307 0060 FB73     		strb	r3, [r7, #15]
1557:.\Generated_Source\PSoC5/uart_solinst.c ****                     }while((tmpStat & uart_solinst_TX_STS_FIFO_EMPTY) != 0u);
 1308              		.loc 1 1557 0
 1309 0062 FB7B     		ldrb	r3, [r7, #15]	@ zero_extendqisi2
 1310 0064 03F00203 		and	r3, r3, #2
 1311 0068 002B     		cmp	r3, #0
 1312 006a F4D1     		bne	.L70
 1313              	.L69:
1558:.\Generated_Source\PSoC5/uart_solinst.c ****                 }
1559:.\Generated_Source\PSoC5/uart_solinst.c **** 
1560:.\Generated_Source\PSoC5/uart_solinst.c ****                 if( (retMode == uart_solinst_WAIT_FOR_COMPLETE_REINIT) ||
 1314              		.loc 1 1560 0
 1315 006c FB79     		ldrb	r3, [r7, #7]	@ zero_extendqisi2
 1316 006e 012B     		cmp	r3, #1
 1317 0070 02D0     		beq	.L71
 1318 0072 FB79     		ldrb	r3, [r7, #7]	@ zero_extendqisi2
 1319 0074 032B     		cmp	r3, #3
 1320 0076 11D1     		bne	.L72
 1321              	.L71:
1561:.\Generated_Source\PSoC5/uart_solinst.c ****                     (retMode == uart_solinst_SEND_WAIT_REINIT) )
1562:.\Generated_Source\PSoC5/uart_solinst.c ****                 {
1563:.\Generated_Source\PSoC5/uart_solinst.c ****                     do /*wait until transmit complete*/
1564:.\Generated_Source\PSoC5/uart_solinst.c ****                     {
1565:.\Generated_Source\PSoC5/uart_solinst.c ****                         tmpStat = uart_solinst_TXSTATUS_REG;
 1322              		.loc 1 1565 0
 1323 0078 46F26953 		movw	r3, #:lower16:1073767785
 1324 007c C4F20003 		movt	r3, #:upper16:1073767785
 1325 0080 1B78     		ldrb	r3, [r3, #0]
 1326 0082 FB73     		strb	r3, [r7, #15]
1566:.\Generated_Source\PSoC5/uart_solinst.c ****                     }while(((uint8)~tmpStat & uart_solinst_TX_STS_COMPLETE) != 0u);
 1327              		.loc 1 1566 0
 1328 0084 FB7B     		ldrb	r3, [r7, #15]	@ zero_extendqisi2
 1329 0086 03F00103 		and	r3, r3, #1
 1330 008a 002B     		cmp	r3, #0
 1331 008c 02D1     		bne	.L73
 1332 008e 4FF00103 		mov	r3, #1
 1333 0092 01E0     		b	.L74
 1334              	.L73:
 1335 0094 4FF00003 		mov	r3, #0
 1336              	.L74:
 1337 0098 002B     		cmp	r3, #0
ARM GAS  C:\Users\karunmj\AppData\Local\Temp\ccOxugR9.s 			page 52


 1338 009a EDD1     		bne	.L71
 1339              	.L72:
1567:.\Generated_Source\PSoC5/uart_solinst.c ****                 }
1568:.\Generated_Source\PSoC5/uart_solinst.c **** 
1569:.\Generated_Source\PSoC5/uart_solinst.c ****                 if( (retMode == uart_solinst_WAIT_FOR_COMPLETE_REINIT) ||
 1340              		.loc 1 1569 0
 1341 009c FB79     		ldrb	r3, [r7, #7]	@ zero_extendqisi2
 1342 009e 012B     		cmp	r3, #1
 1343 00a0 05D0     		beq	.L75
 1344 00a2 FB79     		ldrb	r3, [r7, #7]	@ zero_extendqisi2
 1345 00a4 022B     		cmp	r3, #2
 1346 00a6 02D0     		beq	.L75
 1347 00a8 FB79     		ldrb	r3, [r7, #7]	@ zero_extendqisi2
 1348 00aa 032B     		cmp	r3, #3
 1349 00ac 09D1     		bne	.L76
 1350              	.L75:
1570:.\Generated_Source\PSoC5/uart_solinst.c ****                     (retMode == uart_solinst_REINIT) ||
1571:.\Generated_Source\PSoC5/uart_solinst.c ****                     (retMode == uart_solinst_SEND_WAIT_REINIT) )
1572:.\Generated_Source\PSoC5/uart_solinst.c ****                 {
1573:.\Generated_Source\PSoC5/uart_solinst.c **** 
1574:.\Generated_Source\PSoC5/uart_solinst.c ****                     #if(uart_solinst_TXCLKGEN_DP)
1575:.\Generated_Source\PSoC5/uart_solinst.c ****                         uart_solinst_TXBITCLKTX_COMPLETE_REG = tx_period;
 1351              		.loc 1 1575 0
 1352 00ae 46F23A53 		movw	r3, #:lower16:1073767738
 1353 00b2 C4F20003 		movt	r3, #:upper16:1073767738
 1354 00b6 40F20002 		movw	r2, #:lower16:tx_period.2282
 1355 00ba C0F20002 		movt	r2, #:upper16:tx_period.2282
 1356 00be 1278     		ldrb	r2, [r2, #0]	@ zero_extendqisi2
 1357 00c0 1A70     		strb	r2, [r3, #0]
 1358              	.L76:
 1359              	.LBE2:
1576:.\Generated_Source\PSoC5/uart_solinst.c ****                     #else
1577:.\Generated_Source\PSoC5/uart_solinst.c ****                         uart_solinst_TXBITCTR_PERIOD_REG = tx_period;
1578:.\Generated_Source\PSoC5/uart_solinst.c ****                     #endif /* End uart_solinst_TXCLKGEN_DP */
1579:.\Generated_Source\PSoC5/uart_solinst.c **** 
1580:.\Generated_Source\PSoC5/uart_solinst.c ****                     #if( (uart_solinst_PARITY_TYPE != uart_solinst__B_UART__NONE_REVB) || \
1581:.\Generated_Source\PSoC5/uart_solinst.c ****                          (uart_solinst_PARITY_TYPE_SW != 0u) )
1582:.\Generated_Source\PSoC5/uart_solinst.c ****                         uart_solinst_WriteControlRegister(uart_solinst_ReadControlRegister() &
1583:.\Generated_Source\PSoC5/uart_solinst.c ****                                                       (uint8)~uart_solinst_CTRL_HD_SEND_BREAK);
1584:.\Generated_Source\PSoC5/uart_solinst.c ****                     #endif /* End uart_solinst_PARITY_TYPE != NONE */
1585:.\Generated_Source\PSoC5/uart_solinst.c ****                 }
1586:.\Generated_Source\PSoC5/uart_solinst.c ****             #endif    /* End uart_solinst_HD_ENABLED */
1587:.\Generated_Source\PSoC5/uart_solinst.c ****         }
1588:.\Generated_Source\PSoC5/uart_solinst.c ****     }
 1360              		.loc 1 1588 0
 1361 00c2 07F11407 		add	r7, r7, #20
 1362 00c6 BD46     		mov	sp, r7
 1363 00c8 80BC     		pop	{r7}
 1364 00ca 7047     		bx	lr
 1365              		.cfi_endproc
 1366              	.LFE25:
 1367              		.size	uart_solinst_SendBreak, .-uart_solinst_SendBreak
 1368              		.section	.text.uart_solinst_SetTxAddressMode,"ax",%progbits
 1369              		.align	2
 1370              		.global	uart_solinst_SetTxAddressMode
 1371              		.thumb
 1372              		.thumb_func
ARM GAS  C:\Users\karunmj\AppData\Local\Temp\ccOxugR9.s 			page 53


 1373              		.type	uart_solinst_SetTxAddressMode, %function
 1374              	uart_solinst_SetTxAddressMode:
 1375              	.LFB26:
1589:.\Generated_Source\PSoC5/uart_solinst.c **** 
1590:.\Generated_Source\PSoC5/uart_solinst.c **** 
1591:.\Generated_Source\PSoC5/uart_solinst.c ****     /*******************************************************************************
1592:.\Generated_Source\PSoC5/uart_solinst.c ****     * Function Name: uart_solinst_SetTxAddressMode
1593:.\Generated_Source\PSoC5/uart_solinst.c ****     ********************************************************************************
1594:.\Generated_Source\PSoC5/uart_solinst.c ****     *
1595:.\Generated_Source\PSoC5/uart_solinst.c ****     * Summary:
1596:.\Generated_Source\PSoC5/uart_solinst.c ****     *  Set the transmit addressing mode
1597:.\Generated_Source\PSoC5/uart_solinst.c ****     *
1598:.\Generated_Source\PSoC5/uart_solinst.c ****     * Parameters:
1599:.\Generated_Source\PSoC5/uart_solinst.c ****     *  addressMode: 0 -> Space
1600:.\Generated_Source\PSoC5/uart_solinst.c ****     *               1 -> Mark
1601:.\Generated_Source\PSoC5/uart_solinst.c ****     *
1602:.\Generated_Source\PSoC5/uart_solinst.c ****     * Return:
1603:.\Generated_Source\PSoC5/uart_solinst.c ****     *  None.
1604:.\Generated_Source\PSoC5/uart_solinst.c ****     *
1605:.\Generated_Source\PSoC5/uart_solinst.c ****     *******************************************************************************/
1606:.\Generated_Source\PSoC5/uart_solinst.c ****     void uart_solinst_SetTxAddressMode(uint8 addressMode) 
1607:.\Generated_Source\PSoC5/uart_solinst.c ****     {
 1376              		.loc 1 1607 0
 1377              		.cfi_startproc
 1378              		@ args = 0, pretend = 0, frame = 8
 1379              		@ frame_needed = 1, uses_anonymous_args = 0
 1380 0000 80B5     		push	{r7, lr}
 1381              	.LCFI73:
 1382              		.cfi_def_cfa_offset 8
 1383 0002 82B0     		sub	sp, sp, #8
 1384              	.LCFI74:
 1385              		.cfi_def_cfa_offset 16
 1386 0004 00AF     		add	r7, sp, #0
 1387              		.cfi_offset 14, -4
 1388              		.cfi_offset 7, -8
 1389              	.LCFI75:
 1390              		.cfi_def_cfa_register 7
 1391 0006 0346     		mov	r3, r0
 1392 0008 FB71     		strb	r3, [r7, #7]
1608:.\Generated_Source\PSoC5/uart_solinst.c ****         /* Mark/Space sending enable*/
1609:.\Generated_Source\PSoC5/uart_solinst.c ****         if(addressMode != 0u)
 1393              		.loc 1 1609 0
 1394 000a FB79     		ldrb	r3, [r7, #7]	@ zero_extendqisi2
 1395 000c 002B     		cmp	r3, #0
 1396 000e 09D0     		beq	.L78
1610:.\Generated_Source\PSoC5/uart_solinst.c ****         {
1611:.\Generated_Source\PSoC5/uart_solinst.c ****             #if( uart_solinst_CONTROL_REG_REMOVED == 0u )
1612:.\Generated_Source\PSoC5/uart_solinst.c ****                 uart_solinst_WriteControlRegister(uart_solinst_ReadControlRegister() |
 1397              		.loc 1 1612 0
 1398 0010 FFF7FEFF 		bl	uart_solinst_ReadControlRegister
 1399 0014 0346     		mov	r3, r0
 1400 0016 43F00403 		orr	r3, r3, #4
 1401 001a DBB2     		uxtb	r3, r3
 1402 001c 1846     		mov	r0, r3
 1403 001e FFF7FEFF 		bl	uart_solinst_WriteControlRegister
 1404 0022 07E0     		b	.L80
 1405              	.L78:
ARM GAS  C:\Users\karunmj\AppData\Local\Temp\ccOxugR9.s 			page 54


1613:.\Generated_Source\PSoC5/uart_solinst.c ****                                                       uart_solinst_CTRL_MARK);
1614:.\Generated_Source\PSoC5/uart_solinst.c ****             #endif /* End uart_solinst_CONTROL_REG_REMOVED == 0u */
1615:.\Generated_Source\PSoC5/uart_solinst.c ****         }
1616:.\Generated_Source\PSoC5/uart_solinst.c ****         else
1617:.\Generated_Source\PSoC5/uart_solinst.c ****         {
1618:.\Generated_Source\PSoC5/uart_solinst.c ****             #if( uart_solinst_CONTROL_REG_REMOVED == 0u )
1619:.\Generated_Source\PSoC5/uart_solinst.c ****                 uart_solinst_WriteControlRegister(uart_solinst_ReadControlRegister() &
 1406              		.loc 1 1619 0
 1407 0024 FFF7FEFF 		bl	uart_solinst_ReadControlRegister
 1408 0028 0346     		mov	r3, r0
 1409 002a 03F0FB03 		and	r3, r3, #251
 1410 002e 1846     		mov	r0, r3
 1411 0030 FFF7FEFF 		bl	uart_solinst_WriteControlRegister
 1412              	.L80:
1620:.\Generated_Source\PSoC5/uart_solinst.c ****                                                     (uint8)~uart_solinst_CTRL_MARK);
1621:.\Generated_Source\PSoC5/uart_solinst.c ****             #endif /* End uart_solinst_CONTROL_REG_REMOVED == 0u */
1622:.\Generated_Source\PSoC5/uart_solinst.c ****         }
1623:.\Generated_Source\PSoC5/uart_solinst.c ****     }
 1413              		.loc 1 1623 0
 1414 0034 07F10807 		add	r7, r7, #8
 1415 0038 BD46     		mov	sp, r7
 1416 003a 80BD     		pop	{r7, pc}
 1417              		.cfi_endproc
 1418              	.LFE26:
 1419              		.size	uart_solinst_SetTxAddressMode, .-uart_solinst_SetTxAddressMode
 1420              		.bss
 1421              	tx_period.2282:
 1422 0001 00       		.space	1
 1423              		.text
 1424              	.Letext0: