ARM GAS  C:\Users\karunmj\AppData\Local\Temp\ccOxugR9.s 			page 1


   1              		.syntax unified
   2              		.cpu cortex-m3
   3              		.fpu softvfp
   4              		.eabi_attribute 20, 1
   5              		.eabi_attribute 21, 1
   6              		.eabi_attribute 23, 3
   7              		.eabi_attribute 24, 1
   8              		.eabi_attribute 25, 1
   9              		.eabi_attribute 26, 1
  10              		.eabi_attribute 30, 6
  11              		.eabi_attribute 18, 4
  12              		.thumb
  13              		.file	"uart_solinst.c"
  14              		.section	.debug_abbrev,"",%progbits
  15              	.Ldebug_abbrev0:
  16              		.section	.debug_info,"",%progbits
  17              	.Ldebug_info0:
  18              		.section	.debug_line,"",%progbits
  19              	.Ldebug_line0:
  20 0000 BE020000 		.text
  20      02006500 
  20      00000201 
  20      FB0E0D00 
  20      01010101 
  21              	.Ltext0:
  22              		.cfi_sections	.debug_frame
  23              		.global	uart_solinst_initVar
  24              		.bss
  25              		.type	uart_solinst_initVar, %object
  26              		.size	uart_solinst_initVar, 1
  27              	uart_solinst_initVar:
  28 0000 00       		.space	1
  29              		.section	.text.uart_solinst_Start,"ax",%progbits
  30              		.align	2
  31              		.global	uart_solinst_Start
  32              		.thumb
  33              		.thumb_func
  34              		.type	uart_solinst_Start, %function
  35              	uart_solinst_Start:
  36              	.LFB0:
  37              		.file 1 ".\\Generated_Source\\PSoC5\\uart_solinst.c"
   1:.\Generated_Source\PSoC5/uart_solinst.c **** /*******************************************************************************
   2:.\Generated_Source\PSoC5/uart_solinst.c **** * File Name: uart_solinst.c
   3:.\Generated_Source\PSoC5/uart_solinst.c **** * Version 2.30
   4:.\Generated_Source\PSoC5/uart_solinst.c **** *
   5:.\Generated_Source\PSoC5/uart_solinst.c **** * Description:
   6:.\Generated_Source\PSoC5/uart_solinst.c **** *  This file provides all API functionality of the UART component
   7:.\Generated_Source\PSoC5/uart_solinst.c **** *
   8:.\Generated_Source\PSoC5/uart_solinst.c **** * Note:
   9:.\Generated_Source\PSoC5/uart_solinst.c **** *
  10:.\Generated_Source\PSoC5/uart_solinst.c **** ********************************************************************************
  11:.\Generated_Source\PSoC5/uart_solinst.c **** * Copyright 2008-2012, Cypress Semiconductor Corporation.  All rights reserved.
  12:.\Generated_Source\PSoC5/uart_solinst.c **** * You may use this file only in accordance with the license, terms, conditions,
  13:.\Generated_Source\PSoC5/uart_solinst.c **** * disclaimers, and limitations in the end user license agreement accompanying
  14:.\Generated_Source\PSoC5/uart_solinst.c **** * the software package with which this file was provided.
  15:.\Generated_Source\PSoC5/uart_solinst.c **** *******************************************************************************/
  16:.\Generated_Source\PSoC5/uart_solinst.c **** 
ARM GAS  C:\Users\karunmj\AppData\Local\Temp\ccOxugR9.s 			page 2


  17:.\Generated_Source\PSoC5/uart_solinst.c **** #include "uart_solinst.h"
  18:.\Generated_Source\PSoC5/uart_solinst.c **** #include "CyLib.h"
  19:.\Generated_Source\PSoC5/uart_solinst.c **** #if(uart_solinst_INTERNAL_CLOCK_USED)
  20:.\Generated_Source\PSoC5/uart_solinst.c ****     #include "uart_solinst_IntClock.h"
  21:.\Generated_Source\PSoC5/uart_solinst.c **** #endif /* End uart_solinst_INTERNAL_CLOCK_USED */
  22:.\Generated_Source\PSoC5/uart_solinst.c **** 
  23:.\Generated_Source\PSoC5/uart_solinst.c **** 
  24:.\Generated_Source\PSoC5/uart_solinst.c **** /***************************************
  25:.\Generated_Source\PSoC5/uart_solinst.c **** * Global data allocation
  26:.\Generated_Source\PSoC5/uart_solinst.c **** ***************************************/
  27:.\Generated_Source\PSoC5/uart_solinst.c **** 
  28:.\Generated_Source\PSoC5/uart_solinst.c **** uint8 uart_solinst_initVar = 0u;
  29:.\Generated_Source\PSoC5/uart_solinst.c **** #if( uart_solinst_TX_ENABLED && (uart_solinst_TXBUFFERSIZE > uart_solinst_FIFO_LENGTH))
  30:.\Generated_Source\PSoC5/uart_solinst.c ****     volatile uint8 uart_solinst_txBuffer[uart_solinst_TXBUFFERSIZE];
  31:.\Generated_Source\PSoC5/uart_solinst.c ****     volatile uint8 uart_solinst_txBufferRead = 0u;
  32:.\Generated_Source\PSoC5/uart_solinst.c ****     uint8 uart_solinst_txBufferWrite = 0u;
  33:.\Generated_Source\PSoC5/uart_solinst.c **** #endif /* End uart_solinst_TX_ENABLED */
  34:.\Generated_Source\PSoC5/uart_solinst.c **** #if( ( uart_solinst_RX_ENABLED || uart_solinst_HD_ENABLED ) && \
  35:.\Generated_Source\PSoC5/uart_solinst.c ****      (uart_solinst_RXBUFFERSIZE > uart_solinst_FIFO_LENGTH) )
  36:.\Generated_Source\PSoC5/uart_solinst.c ****     volatile uint8 uart_solinst_rxBuffer[uart_solinst_RXBUFFERSIZE];
  37:.\Generated_Source\PSoC5/uart_solinst.c ****     volatile uint8 uart_solinst_rxBufferRead = 0u;
  38:.\Generated_Source\PSoC5/uart_solinst.c ****     volatile uint8 uart_solinst_rxBufferWrite = 0u;
  39:.\Generated_Source\PSoC5/uart_solinst.c ****     volatile uint8 uart_solinst_rxBufferLoopDetect = 0u;
  40:.\Generated_Source\PSoC5/uart_solinst.c ****     volatile uint8 uart_solinst_rxBufferOverflow = 0u;
  41:.\Generated_Source\PSoC5/uart_solinst.c ****     #if (uart_solinst_RXHW_ADDRESS_ENABLED)
  42:.\Generated_Source\PSoC5/uart_solinst.c ****         volatile uint8 uart_solinst_rxAddressMode = uart_solinst_RXADDRESSMODE;
  43:.\Generated_Source\PSoC5/uart_solinst.c ****         volatile uint8 uart_solinst_rxAddressDetected = 0u;
  44:.\Generated_Source\PSoC5/uart_solinst.c ****     #endif /* End EnableHWAddress */
  45:.\Generated_Source\PSoC5/uart_solinst.c **** #endif /* End uart_solinst_RX_ENABLED */
  46:.\Generated_Source\PSoC5/uart_solinst.c **** 
  47:.\Generated_Source\PSoC5/uart_solinst.c **** 
  48:.\Generated_Source\PSoC5/uart_solinst.c **** /*******************************************************************************
  49:.\Generated_Source\PSoC5/uart_solinst.c **** * Function Name: uart_solinst_Start
  50:.\Generated_Source\PSoC5/uart_solinst.c **** ********************************************************************************
  51:.\Generated_Source\PSoC5/uart_solinst.c **** *
  52:.\Generated_Source\PSoC5/uart_solinst.c **** * Summary:
  53:.\Generated_Source\PSoC5/uart_solinst.c **** *  Initialize and Enable the UART component.
  54:.\Generated_Source\PSoC5/uart_solinst.c **** *  Enable the clock input to enable operation.
  55:.\Generated_Source\PSoC5/uart_solinst.c **** *
  56:.\Generated_Source\PSoC5/uart_solinst.c **** * Parameters:
  57:.\Generated_Source\PSoC5/uart_solinst.c **** *  None.
  58:.\Generated_Source\PSoC5/uart_solinst.c **** *
  59:.\Generated_Source\PSoC5/uart_solinst.c **** * Return:
  60:.\Generated_Source\PSoC5/uart_solinst.c **** *  None.
  61:.\Generated_Source\PSoC5/uart_solinst.c **** *
  62:.\Generated_Source\PSoC5/uart_solinst.c **** * Global variables:
  63:.\Generated_Source\PSoC5/uart_solinst.c **** *  The uart_solinst_intiVar variable is used to indicate initial
  64:.\Generated_Source\PSoC5/uart_solinst.c **** *  configuration of this component. The variable is initialized to zero (0u)
  65:.\Generated_Source\PSoC5/uart_solinst.c **** *  and set to one (1u) the first time UART_Start() is called. This allows for
  66:.\Generated_Source\PSoC5/uart_solinst.c **** *  component initialization without re-initialization in all subsequent calls
  67:.\Generated_Source\PSoC5/uart_solinst.c **** *  to the uart_solinst_Start() routine.
  68:.\Generated_Source\PSoC5/uart_solinst.c **** *
  69:.\Generated_Source\PSoC5/uart_solinst.c **** * Reentrant:
  70:.\Generated_Source\PSoC5/uart_solinst.c **** *  No.
  71:.\Generated_Source\PSoC5/uart_solinst.c **** *
  72:.\Generated_Source\PSoC5/uart_solinst.c **** *******************************************************************************/
  73:.\Generated_Source\PSoC5/uart_solinst.c **** void uart_solinst_Start(void) 
ARM GAS  C:\Users\karunmj\AppData\Local\Temp\ccOxugR9.s 			page 3


  74:.\Generated_Source\PSoC5/uart_solinst.c **** {
  38              		.loc 1 74 0
  39              		.cfi_startproc
  40              		@ args = 0, pretend = 0, frame = 0
  41              		@ frame_needed = 1, uses_anonymous_args = 0
  42 0000 80B5     		push	{r7, lr}
  43              	.LCFI0:
  44              		.cfi_def_cfa_offset 8
  45 0002 00AF     		add	r7, sp, #0
  46              		.cfi_offset 14, -4
  47              		.cfi_offset 7, -8
  48              	.LCFI1:
  49              		.cfi_def_cfa_register 7
  75:.\Generated_Source\PSoC5/uart_solinst.c ****     /* If not Initialized then initialize all required hardware and software */
  76:.\Generated_Source\PSoC5/uart_solinst.c ****     if(uart_solinst_initVar == 0u)
  50              		.loc 1 76 0
  51 0004 40F20003 		movw	r3, #:lower16:uart_solinst_initVar
  52 0008 C0F20003 		movt	r3, #:upper16:uart_solinst_initVar
  53 000c 1B78     		ldrb	r3, [r3, #0]	@ zero_extendqisi2
  54 000e 002B     		cmp	r3, #0
  55 0010 08D1     		bne	.L2
  77:.\Generated_Source\PSoC5/uart_solinst.c ****     {
  78:.\Generated_Source\PSoC5/uart_solinst.c ****         uart_solinst_Init();
  56              		.loc 1 78 0
  57 0012 FFF7FEFF 		bl	uart_solinst_Init
  79:.\Generated_Source\PSoC5/uart_solinst.c ****         uart_solinst_initVar = 1u;
  58              		.loc 1 79 0
  59 0016 40F20003 		movw	r3, #:lower16:uart_solinst_initVar
  60 001a C0F20003 		movt	r3, #:upper16:uart_solinst_initVar
  61 001e 4FF00102 		mov	r2, #1
  62 0022 1A70     		strb	r2, [r3, #0]
  63              	.L2:
  80:.\Generated_Source\PSoC5/uart_solinst.c ****     }
  81:.\Generated_Source\PSoC5/uart_solinst.c ****     uart_solinst_Enable();
  64              		.loc 1 81 0
  65 0024 FFF7FEFF 		bl	uart_solinst_Enable
  82:.\Generated_Source\PSoC5/uart_solinst.c **** }
  66              		.loc 1 82 0
  67 0028 80BD     		pop	{r7, pc}
  68              		.cfi_endproc
  69              	.LFE0:
  70              		.size	uart_solinst_Start, .-uart_solinst_Start
  71 002a 00BF     		.section	.text.uart_solinst_Init,"ax",%progbits
  72              		.align	2
  73              		.global	uart_solinst_Init
  74              		.thumb
  75              		.thumb_func
  76              		.type	uart_solinst_Init, %function
  77              	uart_solinst_Init:
  78              	.LFB1:
  83:.\Generated_Source\PSoC5/uart_solinst.c **** 
  84:.\Generated_Source\PSoC5/uart_solinst.c **** 
  85:.\Generated_Source\PSoC5/uart_solinst.c **** /*******************************************************************************
  86:.\Generated_Source\PSoC5/uart_solinst.c **** * Function Name: uart_solinst_Init
  87:.\Generated_Source\PSoC5/uart_solinst.c **** ********************************************************************************
  88:.\Generated_Source\PSoC5/uart_solinst.c **** *
  89:.\Generated_Source\PSoC5/uart_solinst.c **** * Summary:
ARM GAS  C:\Users\karunmj\AppData\Local\Temp\ccOxugR9.s 			page 4


  90:.\Generated_Source\PSoC5/uart_solinst.c **** *  Initialize component's parameters to the parameters set by user in the
  91:.\Generated_Source\PSoC5/uart_solinst.c **** *  customizer of the component placed onto schematic. Usually called in
  92:.\Generated_Source\PSoC5/uart_solinst.c **** *  uart_solinst_Start().
  93:.\Generated_Source\PSoC5/uart_solinst.c **** *
  94:.\Generated_Source\PSoC5/uart_solinst.c **** * Parameters:
  95:.\Generated_Source\PSoC5/uart_solinst.c **** *  None.
  96:.\Generated_Source\PSoC5/uart_solinst.c **** *
  97:.\Generated_Source\PSoC5/uart_solinst.c **** * Return:
  98:.\Generated_Source\PSoC5/uart_solinst.c **** *  None.
  99:.\Generated_Source\PSoC5/uart_solinst.c **** *
 100:.\Generated_Source\PSoC5/uart_solinst.c **** *******************************************************************************/
 101:.\Generated_Source\PSoC5/uart_solinst.c **** void uart_solinst_Init(void) 
 102:.\Generated_Source\PSoC5/uart_solinst.c **** {
  79              		.loc 1 102 0
  80              		.cfi_startproc
  81              		@ args = 0, pretend = 0, frame = 0
  82              		@ frame_needed = 1, uses_anonymous_args = 0
  83 0000 80B5     		push	{r7, lr}
  84              	.LCFI2:
  85              		.cfi_def_cfa_offset 8
  86 0002 00AF     		add	r7, sp, #0
  87              		.cfi_offset 14, -4
  88              		.cfi_offset 7, -8
  89              	.LCFI3:
  90              		.cfi_def_cfa_register 7
 103:.\Generated_Source\PSoC5/uart_solinst.c ****     #if(uart_solinst_RX_ENABLED || uart_solinst_HD_ENABLED)
 104:.\Generated_Source\PSoC5/uart_solinst.c **** 
 105:.\Generated_Source\PSoC5/uart_solinst.c ****         #if(uart_solinst_RX_INTERRUPT_ENABLED && (uart_solinst_RXBUFFERSIZE > uart_solinst_FIFO_LEN
 106:.\Generated_Source\PSoC5/uart_solinst.c ****             /* Set the RX Interrupt. */
 107:.\Generated_Source\PSoC5/uart_solinst.c ****             (void)CyIntSetVector(uart_solinst_RX_VECT_NUM, &uart_solinst_RXISR);
 108:.\Generated_Source\PSoC5/uart_solinst.c ****             CyIntSetPriority(uart_solinst_RX_VECT_NUM, uart_solinst_RX_PRIOR_NUM);
 109:.\Generated_Source\PSoC5/uart_solinst.c ****         #endif /* End uart_solinst_RX_INTERRUPT_ENABLED */
 110:.\Generated_Source\PSoC5/uart_solinst.c **** 
 111:.\Generated_Source\PSoC5/uart_solinst.c ****         #if (uart_solinst_RXHW_ADDRESS_ENABLED)
 112:.\Generated_Source\PSoC5/uart_solinst.c ****             uart_solinst_SetRxAddressMode(uart_solinst_RXAddressMode);
  91              		.loc 1 112 0
  92 0004 4FF00300 		mov	r0, #3
  93 0008 FFF7FEFF 		bl	uart_solinst_SetRxAddressMode
 113:.\Generated_Source\PSoC5/uart_solinst.c ****             uart_solinst_SetRxAddress1(uart_solinst_RXHWADDRESS1);
  94              		.loc 1 113 0
  95 000c 4FF0FF00 		mov	r0, #255
  96 0010 FFF7FEFF 		bl	uart_solinst_SetRxAddress1
 114:.\Generated_Source\PSoC5/uart_solinst.c ****             uart_solinst_SetRxAddress2(uart_solinst_RXHWADDRESS2);
  97              		.loc 1 114 0
  98 0014 4FF00000 		mov	r0, #0
  99 0018 FFF7FEFF 		bl	uart_solinst_SetRxAddress2
 115:.\Generated_Source\PSoC5/uart_solinst.c ****         #endif /* End uart_solinst_RXHW_ADDRESS_ENABLED */
 116:.\Generated_Source\PSoC5/uart_solinst.c **** 
 117:.\Generated_Source\PSoC5/uart_solinst.c ****         /* Init Count7 period */
 118:.\Generated_Source\PSoC5/uart_solinst.c ****         uart_solinst_RXBITCTR_PERIOD_REG = uart_solinst_RXBITCTR_INIT;
 100              		.loc 1 118 0
 101 001c 46F28A53 		movw	r3, #:lower16:1073767818
 102 0020 C4F20003 		movt	r3, #:upper16:1073767818
 103 0024 4FF07202 		mov	r2, #114
 104 0028 1A70     		strb	r2, [r3, #0]
 119:.\Generated_Source\PSoC5/uart_solinst.c ****         /* Configure the Initial RX interrupt mask */
 120:.\Generated_Source\PSoC5/uart_solinst.c ****         uart_solinst_RXSTATUS_MASK_REG  = uart_solinst_INIT_RX_INTERRUPTS_MASK;
ARM GAS  C:\Users\karunmj\AppData\Local\Temp\ccOxugR9.s 			page 5


 105              		.loc 1 120 0
 106 002a 46F28D43 		movw	r3, #:lower16:1073767565
 107 002e C4F20003 		movt	r3, #:upper16:1073767565
 108 0032 4FF02002 		mov	r2, #32
 109 0036 1A70     		strb	r2, [r3, #0]
 121:.\Generated_Source\PSoC5/uart_solinst.c ****     #endif /* End uart_solinst_RX_ENABLED || uart_solinst_HD_ENABLED*/
 122:.\Generated_Source\PSoC5/uart_solinst.c **** 
 123:.\Generated_Source\PSoC5/uart_solinst.c ****     #if(uart_solinst_TX_ENABLED)
 124:.\Generated_Source\PSoC5/uart_solinst.c ****         #if(uart_solinst_TX_INTERRUPT_ENABLED && (uart_solinst_TXBUFFERSIZE > uart_solinst_FIFO_LEN
 125:.\Generated_Source\PSoC5/uart_solinst.c ****             /* Set the TX Interrupt. */
 126:.\Generated_Source\PSoC5/uart_solinst.c ****             (void)CyIntSetVector(uart_solinst_TX_VECT_NUM, &uart_solinst_TXISR);
 127:.\Generated_Source\PSoC5/uart_solinst.c ****             CyIntSetPriority(uart_solinst_TX_VECT_NUM, uart_solinst_TX_PRIOR_NUM);
 128:.\Generated_Source\PSoC5/uart_solinst.c ****         #endif /* End uart_solinst_TX_INTERRUPT_ENABLED */
 129:.\Generated_Source\PSoC5/uart_solinst.c **** 
 130:.\Generated_Source\PSoC5/uart_solinst.c ****         /* Write Counter Value for TX Bit Clk Generator*/
 131:.\Generated_Source\PSoC5/uart_solinst.c ****         #if(uart_solinst_TXCLKGEN_DP)
 132:.\Generated_Source\PSoC5/uart_solinst.c ****             uart_solinst_TXBITCLKGEN_CTR_REG = uart_solinst_BIT_CENTER;
 110              		.loc 1 132 0
 111 0038 46F22A53 		movw	r3, #:lower16:1073767722
 112 003c C4F20003 		movt	r3, #:upper16:1073767722
 113 0040 4FF00702 		mov	r2, #7
 114 0044 1A70     		strb	r2, [r3, #0]
 133:.\Generated_Source\PSoC5/uart_solinst.c ****             uart_solinst_TXBITCLKTX_COMPLETE_REG = (uart_solinst_NUMBER_OF_DATA_BITS +
 115              		.loc 1 133 0
 116 0046 46F23A53 		movw	r3, #:lower16:1073767738
 117 004a C4F20003 		movt	r3, #:upper16:1073767738
 118 004e 4FF04802 		mov	r2, #72
 119 0052 1A70     		strb	r2, [r3, #0]
 134:.\Generated_Source\PSoC5/uart_solinst.c ****                         uart_solinst_NUMBER_OF_START_BIT) * uart_solinst_OVER_SAMPLE_COUNT;
 135:.\Generated_Source\PSoC5/uart_solinst.c ****         #else
 136:.\Generated_Source\PSoC5/uart_solinst.c ****             uart_solinst_TXBITCTR_PERIOD_REG = ((uart_solinst_NUMBER_OF_DATA_BITS +
 137:.\Generated_Source\PSoC5/uart_solinst.c ****                         uart_solinst_NUMBER_OF_START_BIT) * uart_solinst_OVER_SAMPLE_8) - 1u;
 138:.\Generated_Source\PSoC5/uart_solinst.c ****         #endif /* End uart_solinst_TXCLKGEN_DP */
 139:.\Generated_Source\PSoC5/uart_solinst.c **** 
 140:.\Generated_Source\PSoC5/uart_solinst.c ****         /* Configure the Initial TX interrupt mask */
 141:.\Generated_Source\PSoC5/uart_solinst.c ****         #if(uart_solinst_TX_INTERRUPT_ENABLED && (uart_solinst_TXBUFFERSIZE > uart_solinst_FIFO_LEN
 142:.\Generated_Source\PSoC5/uart_solinst.c ****             uart_solinst_TXSTATUS_MASK_REG = uart_solinst_TX_STS_FIFO_EMPTY;
 143:.\Generated_Source\PSoC5/uart_solinst.c ****         #else
 144:.\Generated_Source\PSoC5/uart_solinst.c ****             uart_solinst_TXSTATUS_MASK_REG = uart_solinst_INIT_TX_INTERRUPTS_MASK;
 120              		.loc 1 144 0
 121 0054 46F28953 		movw	r3, #:lower16:1073767817
 122 0058 C4F20003 		movt	r3, #:upper16:1073767817
 123 005c 4FF00002 		mov	r2, #0
 124 0060 1A70     		strb	r2, [r3, #0]
 145:.\Generated_Source\PSoC5/uart_solinst.c ****         #endif /*End uart_solinst_TX_INTERRUPT_ENABLED*/
 146:.\Generated_Source\PSoC5/uart_solinst.c **** 
 147:.\Generated_Source\PSoC5/uart_solinst.c ****     #endif /* End uart_solinst_TX_ENABLED */
 148:.\Generated_Source\PSoC5/uart_solinst.c **** 
 149:.\Generated_Source\PSoC5/uart_solinst.c ****     #if(uart_solinst_PARITY_TYPE_SW)  /* Write Parity to Control Register */
 150:.\Generated_Source\PSoC5/uart_solinst.c ****         uart_solinst_WriteControlRegister( \
 151:.\Generated_Source\PSoC5/uart_solinst.c ****             (uart_solinst_ReadControlRegister() & (uint8)~uart_solinst_CTRL_PARITY_TYPE_MASK) | \
 152:.\Generated_Source\PSoC5/uart_solinst.c ****             (uint8)(uart_solinst_PARITY_TYPE << uart_solinst_CTRL_PARITY_TYPE0_SHIFT) );
 153:.\Generated_Source\PSoC5/uart_solinst.c ****     #endif /* End uart_solinst_PARITY_TYPE_SW */
 154:.\Generated_Source\PSoC5/uart_solinst.c **** }
 125              		.loc 1 154 0
 126 0062 80BD     		pop	{r7, pc}
 127              		.cfi_endproc
ARM GAS  C:\Users\karunmj\AppData\Local\Temp\ccOxugR9.s 			page 6


 128              	.LFE1:
 129              		.size	uart_solinst_Init, .-uart_solinst_Init
 130              		.section	.text.uart_solinst_Enable,"ax",%progbits
 131              		.align	2
 132              		.global	uart_solinst_Enable
 133              		.thumb
 134              		.thumb_func
 135              		.type	uart_solinst_Enable, %function
 136              	uart_solinst_Enable:
 137              	.LFB2:
 155:.\Generated_Source\PSoC5/uart_solinst.c **** 
 156:.\Generated_Source\PSoC5/uart_solinst.c **** 
 157:.\Generated_Source\PSoC5/uart_solinst.c **** /*******************************************************************************
 158:.\Generated_Source\PSoC5/uart_solinst.c **** * Function Name: uart_solinst_Enable
 159:.\Generated_Source\PSoC5/uart_solinst.c **** ********************************************************************************
 160:.\Generated_Source\PSoC5/uart_solinst.c **** *
 161:.\Generated_Source\PSoC5/uart_solinst.c **** * Summary:
 162:.\Generated_Source\PSoC5/uart_solinst.c **** *  Enables the UART block operation
 163:.\Generated_Source\PSoC5/uart_solinst.c **** *
 164:.\Generated_Source\PSoC5/uart_solinst.c **** * Parameters:
 165:.\Generated_Source\PSoC5/uart_solinst.c **** *  None.
 166:.\Generated_Source\PSoC5/uart_solinst.c **** *
 167:.\Generated_Source\PSoC5/uart_solinst.c **** * Return:
 168:.\Generated_Source\PSoC5/uart_solinst.c **** *  None.
 169:.\Generated_Source\PSoC5/uart_solinst.c **** *
 170:.\Generated_Source\PSoC5/uart_solinst.c **** * Global Variables:
 171:.\Generated_Source\PSoC5/uart_solinst.c **** *  uart_solinst_rxAddressDetected - set to initial state (0).
 172:.\Generated_Source\PSoC5/uart_solinst.c **** *
 173:.\Generated_Source\PSoC5/uart_solinst.c **** *******************************************************************************/
 174:.\Generated_Source\PSoC5/uart_solinst.c **** void uart_solinst_Enable(void) 
 175:.\Generated_Source\PSoC5/uart_solinst.c **** {
 138              		.loc 1 175 0
 139              		.cfi_startproc
 140              		@ args = 0, pretend = 0, frame = 8
 141              		@ frame_needed = 1, uses_anonymous_args = 0
 142 0000 80B5     		push	{r7, lr}
 143              	.LCFI4:
 144              		.cfi_def_cfa_offset 8
 145 0002 82B0     		sub	sp, sp, #8
 146              	.LCFI5:
 147              		.cfi_def_cfa_offset 16
 148 0004 00AF     		add	r7, sp, #0
 149              		.cfi_offset 14, -4
 150              		.cfi_offset 7, -8
 151              	.LCFI6:
 152              		.cfi_def_cfa_register 7
 176:.\Generated_Source\PSoC5/uart_solinst.c ****     uint8 enableInterrupts;
 177:.\Generated_Source\PSoC5/uart_solinst.c ****     enableInterrupts = CyEnterCriticalSection();
 153              		.loc 1 177 0
 154 0006 FFF7FEFF 		bl	CyEnterCriticalSection
 155 000a 0346     		mov	r3, r0
 156 000c FB71     		strb	r3, [r7, #7]
 178:.\Generated_Source\PSoC5/uart_solinst.c **** 
 179:.\Generated_Source\PSoC5/uart_solinst.c ****     #if(uart_solinst_RX_ENABLED || uart_solinst_HD_ENABLED)
 180:.\Generated_Source\PSoC5/uart_solinst.c ****         /*RX Counter (Count7) Enable */
 181:.\Generated_Source\PSoC5/uart_solinst.c ****         uart_solinst_RXBITCTR_CONTROL_REG |= uart_solinst_CNTR_ENABLE;
 157              		.loc 1 181 0
ARM GAS  C:\Users\karunmj\AppData\Local\Temp\ccOxugR9.s 			page 7


 158 000e 46F29A53 		movw	r3, #:lower16:1073767834
 159 0012 C4F20003 		movt	r3, #:upper16:1073767834
 160 0016 46F29A52 		movw	r2, #:lower16:1073767834
 161 001a C4F20002 		movt	r2, #:upper16:1073767834
 162 001e 1278     		ldrb	r2, [r2, #0]
 163 0020 D2B2     		uxtb	r2, r2
 164 0022 42F02002 		orr	r2, r2, #32
 165 0026 D2B2     		uxtb	r2, r2
 166 0028 1A70     		strb	r2, [r3, #0]
 182:.\Generated_Source\PSoC5/uart_solinst.c ****         /* Enable the RX Interrupt. */
 183:.\Generated_Source\PSoC5/uart_solinst.c ****         uart_solinst_RXSTATUS_ACTL_REG  |= uart_solinst_INT_ENABLE;
 167              		.loc 1 183 0
 168 002a 46F29D43 		movw	r3, #:lower16:1073767581
 169 002e C4F20003 		movt	r3, #:upper16:1073767581
 170 0032 46F29D42 		movw	r2, #:lower16:1073767581
 171 0036 C4F20002 		movt	r2, #:upper16:1073767581
 172 003a 1278     		ldrb	r2, [r2, #0]
 173 003c D2B2     		uxtb	r2, r2
 174 003e 42F01002 		orr	r2, r2, #16
 175 0042 D2B2     		uxtb	r2, r2
 176 0044 1A70     		strb	r2, [r3, #0]
 184:.\Generated_Source\PSoC5/uart_solinst.c ****         #if(uart_solinst_RX_INTERRUPT_ENABLED && (uart_solinst_RXBUFFERSIZE > uart_solinst_FIFO_LEN
 185:.\Generated_Source\PSoC5/uart_solinst.c ****             CyIntEnable(uart_solinst_RX_VECT_NUM);
 186:.\Generated_Source\PSoC5/uart_solinst.c ****             #if (uart_solinst_RXHW_ADDRESS_ENABLED)
 187:.\Generated_Source\PSoC5/uart_solinst.c ****                 uart_solinst_rxAddressDetected = 0u;
 188:.\Generated_Source\PSoC5/uart_solinst.c ****             #endif /* End uart_solinst_RXHW_ADDRESS_ENABLED */
 189:.\Generated_Source\PSoC5/uart_solinst.c ****         #endif /* End uart_solinst_RX_INTERRUPT_ENABLED */
 190:.\Generated_Source\PSoC5/uart_solinst.c ****     #endif /* End uart_solinst_RX_ENABLED || uart_solinst_HD_ENABLED*/
 191:.\Generated_Source\PSoC5/uart_solinst.c **** 
 192:.\Generated_Source\PSoC5/uart_solinst.c ****     #if(uart_solinst_TX_ENABLED)
 193:.\Generated_Source\PSoC5/uart_solinst.c ****         /*TX Counter (DP/Count7) Enable */
 194:.\Generated_Source\PSoC5/uart_solinst.c ****         #if(!uart_solinst_TXCLKGEN_DP)
 195:.\Generated_Source\PSoC5/uart_solinst.c ****             uart_solinst_TXBITCTR_CONTROL_REG |= uart_solinst_CNTR_ENABLE;
 196:.\Generated_Source\PSoC5/uart_solinst.c ****         #endif /* End uart_solinst_TXCLKGEN_DP */
 197:.\Generated_Source\PSoC5/uart_solinst.c ****         /* Enable the TX Interrupt. */
 198:.\Generated_Source\PSoC5/uart_solinst.c ****         uart_solinst_TXSTATUS_ACTL_REG |= uart_solinst_INT_ENABLE;
 177              		.loc 1 198 0
 178 0046 46F29953 		movw	r3, #:lower16:1073767833
 179 004a C4F20003 		movt	r3, #:upper16:1073767833
 180 004e 46F29952 		movw	r2, #:lower16:1073767833
 181 0052 C4F20002 		movt	r2, #:upper16:1073767833
 182 0056 1278     		ldrb	r2, [r2, #0]
 183 0058 D2B2     		uxtb	r2, r2
 184 005a 42F01002 		orr	r2, r2, #16
 185 005e D2B2     		uxtb	r2, r2
 186 0060 1A70     		strb	r2, [r3, #0]
 199:.\Generated_Source\PSoC5/uart_solinst.c ****         #if(uart_solinst_TX_INTERRUPT_ENABLED && (uart_solinst_TXBUFFERSIZE > uart_solinst_FIFO_LEN
 200:.\Generated_Source\PSoC5/uart_solinst.c ****             CyIntEnable(uart_solinst_TX_VECT_NUM);
 201:.\Generated_Source\PSoC5/uart_solinst.c ****         #endif /* End uart_solinst_TX_INTERRUPT_ENABLED*/
 202:.\Generated_Source\PSoC5/uart_solinst.c ****      #endif /* End uart_solinst_TX_ENABLED */
 203:.\Generated_Source\PSoC5/uart_solinst.c **** 
 204:.\Generated_Source\PSoC5/uart_solinst.c ****     #if(uart_solinst_INTERNAL_CLOCK_USED)
 205:.\Generated_Source\PSoC5/uart_solinst.c ****         /* Enable the clock. */
 206:.\Generated_Source\PSoC5/uart_solinst.c ****         uart_solinst_IntClock_Start();
 187              		.loc 1 206 0
 188 0062 FFF7FEFF 		bl	uart_solinst_IntClock_Start
 207:.\Generated_Source\PSoC5/uart_solinst.c ****     #endif /* End uart_solinst_INTERNAL_CLOCK_USED */
ARM GAS  C:\Users\karunmj\AppData\Local\Temp\ccOxugR9.s 			page 8


 208:.\Generated_Source\PSoC5/uart_solinst.c **** 
 209:.\Generated_Source\PSoC5/uart_solinst.c ****     CyExitCriticalSection(enableInterrupts);
 189              		.loc 1 209 0
 190 0066 FB79     		ldrb	r3, [r7, #7]	@ zero_extendqisi2
 191 0068 1846     		mov	r0, r3
 192 006a FFF7FEFF 		bl	CyExitCriticalSection
 210:.\Generated_Source\PSoC5/uart_solinst.c **** }
 193              		.loc 1 210 0
 194 006e 07F10807 		add	r7, r7, #8
 195 0072 BD46     		mov	sp, r7
 196 0074 80BD     		pop	{r7, pc}
 197              		.cfi_endproc
 198              	.LFE2:
 199              		.size	uart_solinst_Enable, .-uart_solinst_Enable
 200 0076 00BF     		.section	.text.uart_solinst_Stop,"ax",%progbits
 201              		.align	2
 202              		.global	uart_solinst_Stop
 203              		.thumb
 204              		.thumb_func
 205              		.type	uart_solinst_Stop, %function
 206              	uart_solinst_Stop:
 207              	.LFB3:
 211:.\Generated_Source\PSoC5/uart_solinst.c **** 
 212:.\Generated_Source\PSoC5/uart_solinst.c **** 
 213:.\Generated_Source\PSoC5/uart_solinst.c **** /*******************************************************************************
 214:.\Generated_Source\PSoC5/uart_solinst.c **** * Function Name: uart_solinst_Stop
 215:.\Generated_Source\PSoC5/uart_solinst.c **** ********************************************************************************
 216:.\Generated_Source\PSoC5/uart_solinst.c **** *
 217:.\Generated_Source\PSoC5/uart_solinst.c **** * Summary:
 218:.\Generated_Source\PSoC5/uart_solinst.c **** *  Disable the UART component
 219:.\Generated_Source\PSoC5/uart_solinst.c **** *
 220:.\Generated_Source\PSoC5/uart_solinst.c **** * Parameters:
 221:.\Generated_Source\PSoC5/uart_solinst.c **** *  None.
 222:.\Generated_Source\PSoC5/uart_solinst.c **** *
 223:.\Generated_Source\PSoC5/uart_solinst.c **** * Return:
 224:.\Generated_Source\PSoC5/uart_solinst.c **** *  None.
 225:.\Generated_Source\PSoC5/uart_solinst.c **** *
 226:.\Generated_Source\PSoC5/uart_solinst.c **** *******************************************************************************/
 227:.\Generated_Source\PSoC5/uart_solinst.c **** void uart_solinst_Stop(void) 
 228:.\Generated_Source\PSoC5/uart_solinst.c **** {
 208              		.loc 1 228 0
 209              		.cfi_startproc
 210              		@ args = 0, pretend = 0, frame = 8
 211              		@ frame_needed = 1, uses_anonymous_args = 0
 212 0000 80B5     		push	{r7, lr}
 213              	.LCFI7:
 214              		.cfi_def_cfa_offset 8
 215 0002 82B0     		sub	sp, sp, #8
 216              	.LCFI8:
 217              		.cfi_def_cfa_offset 16
 218 0004 00AF     		add	r7, sp, #0
 219              		.cfi_offset 14, -4
 220              		.cfi_offset 7, -8
 221              	.LCFI9:
 222              		.cfi_def_cfa_register 7
 229:.\Generated_Source\PSoC5/uart_solinst.c ****     uint8 enableInterrupts;
 230:.\Generated_Source\PSoC5/uart_solinst.c ****     enableInterrupts = CyEnterCriticalSection();
ARM GAS  C:\Users\karunmj\AppData\Local\Temp\ccOxugR9.s 			page 9


 223              		.loc 1 230 0
 224 0006 FFF7FEFF 		bl	CyEnterCriticalSection
 225 000a 0346     		mov	r3, r0
 226 000c FB71     		strb	r3, [r7, #7]
 231:.\Generated_Source\PSoC5/uart_solinst.c **** 
 232:.\Generated_Source\PSoC5/uart_solinst.c ****     /* Write Bit Counter Disable */
 233:.\Generated_Source\PSoC5/uart_solinst.c ****     #if(uart_solinst_RX_ENABLED || uart_solinst_HD_ENABLED)
 234:.\Generated_Source\PSoC5/uart_solinst.c ****         uart_solinst_RXBITCTR_CONTROL_REG &= (uint8)~uart_solinst_CNTR_ENABLE;
 227              		.loc 1 234 0
 228 000e 46F29A53 		movw	r3, #:lower16:1073767834
 229 0012 C4F20003 		movt	r3, #:upper16:1073767834
 230 0016 46F29A52 		movw	r2, #:lower16:1073767834
 231 001a C4F20002 		movt	r2, #:upper16:1073767834
 232 001e 1278     		ldrb	r2, [r2, #0]
 233 0020 D2B2     		uxtb	r2, r2
 234 0022 02F0DF02 		and	r2, r2, #223
 235 0026 1A70     		strb	r2, [r3, #0]
 235:.\Generated_Source\PSoC5/uart_solinst.c ****     #endif /* End uart_solinst_RX_ENABLED */
 236:.\Generated_Source\PSoC5/uart_solinst.c **** 
 237:.\Generated_Source\PSoC5/uart_solinst.c ****     #if(uart_solinst_TX_ENABLED)
 238:.\Generated_Source\PSoC5/uart_solinst.c ****         #if(!uart_solinst_TXCLKGEN_DP)
 239:.\Generated_Source\PSoC5/uart_solinst.c ****             uart_solinst_TXBITCTR_CONTROL_REG &= (uint8)~uart_solinst_CNTR_ENABLE;
 240:.\Generated_Source\PSoC5/uart_solinst.c ****         #endif /* End uart_solinst_TXCLKGEN_DP */
 241:.\Generated_Source\PSoC5/uart_solinst.c ****     #endif /* uart_solinst_TX_ENABLED */
 242:.\Generated_Source\PSoC5/uart_solinst.c **** 
 243:.\Generated_Source\PSoC5/uart_solinst.c ****     #if(uart_solinst_INTERNAL_CLOCK_USED)
 244:.\Generated_Source\PSoC5/uart_solinst.c ****         /* Disable the clock. */
 245:.\Generated_Source\PSoC5/uart_solinst.c ****         uart_solinst_IntClock_Stop();
 236              		.loc 1 245 0
 237 0028 FFF7FEFF 		bl	uart_solinst_IntClock_Stop
 246:.\Generated_Source\PSoC5/uart_solinst.c ****     #endif /* End uart_solinst_INTERNAL_CLOCK_USED */
 247:.\Generated_Source\PSoC5/uart_solinst.c **** 
 248:.\Generated_Source\PSoC5/uart_solinst.c ****     /* Disable internal interrupt component */
 249:.\Generated_Source\PSoC5/uart_solinst.c ****     #if(uart_solinst_RX_ENABLED || uart_solinst_HD_ENABLED)
 250:.\Generated_Source\PSoC5/uart_solinst.c ****         uart_solinst_RXSTATUS_ACTL_REG  &= (uint8)~uart_solinst_INT_ENABLE;
 238              		.loc 1 250 0
 239 002c 46F29D43 		movw	r3, #:lower16:1073767581
 240 0030 C4F20003 		movt	r3, #:upper16:1073767581
 241 0034 46F29D42 		movw	r2, #:lower16:1073767581
 242 0038 C4F20002 		movt	r2, #:upper16:1073767581
 243 003c 1278     		ldrb	r2, [r2, #0]
 244 003e D2B2     		uxtb	r2, r2
 245 0040 02F0EF02 		and	r2, r2, #239
 246 0044 1A70     		strb	r2, [r3, #0]
 251:.\Generated_Source\PSoC5/uart_solinst.c ****         #if(uart_solinst_RX_INTERRUPT_ENABLED && (uart_solinst_RXBUFFERSIZE > uart_solinst_FIFO_LEN
 252:.\Generated_Source\PSoC5/uart_solinst.c ****             uart_solinst_DisableRxInt();
 253:.\Generated_Source\PSoC5/uart_solinst.c ****         #endif /* End uart_solinst_RX_INTERRUPT_ENABLED */
 254:.\Generated_Source\PSoC5/uart_solinst.c ****     #endif /* End uart_solinst_RX_ENABLED */
 255:.\Generated_Source\PSoC5/uart_solinst.c **** 
 256:.\Generated_Source\PSoC5/uart_solinst.c ****     #if(uart_solinst_TX_ENABLED)
 257:.\Generated_Source\PSoC5/uart_solinst.c ****         uart_solinst_TXSTATUS_ACTL_REG &= (uint8)~uart_solinst_INT_ENABLE;
 247              		.loc 1 257 0
 248 0046 46F29953 		movw	r3, #:lower16:1073767833
 249 004a C4F20003 		movt	r3, #:upper16:1073767833
 250 004e 46F29952 		movw	r2, #:lower16:1073767833
 251 0052 C4F20002 		movt	r2, #:upper16:1073767833
 252 0056 1278     		ldrb	r2, [r2, #0]
ARM GAS  C:\Users\karunmj\AppData\Local\Temp\ccOxugR9.s 			page 10


 253 0058 D2B2     		uxtb	r2, r2
 254 005a 02F0EF02 		and	r2, r2, #239
 255 005e 1A70     		strb	r2, [r3, #0]
 258:.\Generated_Source\PSoC5/uart_solinst.c ****         #if(uart_solinst_TX_INTERRUPT_ENABLED && (uart_solinst_TXBUFFERSIZE > uart_solinst_FIFO_LEN
 259:.\Generated_Source\PSoC5/uart_solinst.c ****             uart_solinst_DisableTxInt();
 260:.\Generated_Source\PSoC5/uart_solinst.c ****         #endif /* End uart_solinst_TX_INTERRUPT_ENABLED */
 261:.\Generated_Source\PSoC5/uart_solinst.c ****     #endif /* End uart_solinst_TX_ENABLED */
 262:.\Generated_Source\PSoC5/uart_solinst.c **** 
 263:.\Generated_Source\PSoC5/uart_solinst.c ****     CyExitCriticalSection(enableInterrupts);
 256              		.loc 1 263 0
 257 0060 FB79     		ldrb	r3, [r7, #7]	@ zero_extendqisi2
 258 0062 1846     		mov	r0, r3
 259 0064 FFF7FEFF 		bl	CyExitCriticalSection
 264:.\Generated_Source\PSoC5/uart_solinst.c **** }
 260              		.loc 1 264 0
 261 0068 07F10807 		add	r7, r7, #8
 262 006c BD46     		mov	sp, r7
 263 006e 80BD     		pop	{r7, pc}
 264              		.cfi_endproc
 265              	.LFE3:
 266              		.size	uart_solinst_Stop, .-uart_solinst_Stop
 267              		.section	.text.uart_solinst_ReadControlRegister,"ax",%progbits
 268              		.align	2
 269              		.global	uart_solinst_ReadControlRegister
 270              		.thumb
 271              		.thumb_func
 272              		.type	uart_solinst_ReadControlRegister, %function
 273              	uart_solinst_ReadControlRegister:
 274              	.LFB4:
 265:.\Generated_Source\PSoC5/uart_solinst.c **** 
 266:.\Generated_Source\PSoC5/uart_solinst.c **** 
 267:.\Generated_Source\PSoC5/uart_solinst.c **** /*******************************************************************************
 268:.\Generated_Source\PSoC5/uart_solinst.c **** * Function Name: uart_solinst_ReadControlRegister
 269:.\Generated_Source\PSoC5/uart_solinst.c **** ********************************************************************************
 270:.\Generated_Source\PSoC5/uart_solinst.c **** *
 271:.\Generated_Source\PSoC5/uart_solinst.c **** * Summary:
 272:.\Generated_Source\PSoC5/uart_solinst.c **** *  Read the current state of the control register
 273:.\Generated_Source\PSoC5/uart_solinst.c **** *
 274:.\Generated_Source\PSoC5/uart_solinst.c **** * Parameters:
 275:.\Generated_Source\PSoC5/uart_solinst.c **** *  None.
 276:.\Generated_Source\PSoC5/uart_solinst.c **** *
 277:.\Generated_Source\PSoC5/uart_solinst.c **** * Return:
 278:.\Generated_Source\PSoC5/uart_solinst.c **** *  Current state of the control register.
 279:.\Generated_Source\PSoC5/uart_solinst.c **** *
 280:.\Generated_Source\PSoC5/uart_solinst.c **** *******************************************************************************/
 281:.\Generated_Source\PSoC5/uart_solinst.c **** uint8 uart_solinst_ReadControlRegister(void) 
 282:.\Generated_Source\PSoC5/uart_solinst.c **** {
 275              		.loc 1 282 0
 276              		.cfi_startproc
 277              		@ args = 0, pretend = 0, frame = 0
 278              		@ frame_needed = 1, uses_anonymous_args = 0
 279              		@ link register save eliminated.
 280 0000 80B4     		push	{r7}
 281              	.LCFI10:
 282              		.cfi_def_cfa_offset 4
 283 0002 00AF     		add	r7, sp, #0
 284              		.cfi_offset 7, -4
ARM GAS  C:\Users\karunmj\AppData\Local\Temp\ccOxugR9.s 			page 11


 285              	.LCFI11:
 286              		.cfi_def_cfa_register 7
 283:.\Generated_Source\PSoC5/uart_solinst.c ****     #if( uart_solinst_CONTROL_REG_REMOVED )
 284:.\Generated_Source\PSoC5/uart_solinst.c ****         return(0u);
 285:.\Generated_Source\PSoC5/uart_solinst.c ****     #else
 286:.\Generated_Source\PSoC5/uart_solinst.c ****         return(uart_solinst_CONTROL_REG);
 287              		.loc 1 286 0
 288 0004 46F27943 		movw	r3, #:lower16:1073767545
 289 0008 C4F20003 		movt	r3, #:upper16:1073767545
 290 000c 1B78     		ldrb	r3, [r3, #0]
 291 000e DBB2     		uxtb	r3, r3
 287:.\Generated_Source\PSoC5/uart_solinst.c ****     #endif /* End uart_solinst_CONTROL_REG_REMOVED */
 288:.\Generated_Source\PSoC5/uart_solinst.c **** }
 292              		.loc 1 288 0
 293 0010 1846     		mov	r0, r3
 294 0012 BD46     		mov	sp, r7
 295 0014 80BC     		pop	{r7}
 296 0016 7047     		bx	lr
 297              		.cfi_endproc
 298              	.LFE4:
 299              		.size	uart_solinst_ReadControlRegister, .-uart_solinst_ReadControlRegister
 300              		.section	.text.uart_solinst_WriteControlRegister,"ax",%progbits
 301              		.align	2
 302              		.global	uart_solinst_WriteControlRegister
 303              		.thumb
 304              		.thumb_func
 305              		.type	uart_solinst_WriteControlRegister, %function
 306              	uart_solinst_WriteControlRegister:
 307              	.LFB5:
 289:.\Generated_Source\PSoC5/uart_solinst.c **** 
 290:.\Generated_Source\PSoC5/uart_solinst.c **** 
 291:.\Generated_Source\PSoC5/uart_solinst.c **** /*******************************************************************************
 292:.\Generated_Source\PSoC5/uart_solinst.c **** * Function Name: uart_solinst_WriteControlRegister
 293:.\Generated_Source\PSoC5/uart_solinst.c **** ********************************************************************************
 294:.\Generated_Source\PSoC5/uart_solinst.c **** *
 295:.\Generated_Source\PSoC5/uart_solinst.c **** * Summary:
 296:.\Generated_Source\PSoC5/uart_solinst.c **** *  Writes an 8-bit value into the control register
 297:.\Generated_Source\PSoC5/uart_solinst.c **** *
 298:.\Generated_Source\PSoC5/uart_solinst.c **** * Parameters:
 299:.\Generated_Source\PSoC5/uart_solinst.c **** *  control:  control register value
 300:.\Generated_Source\PSoC5/uart_solinst.c **** *
 301:.\Generated_Source\PSoC5/uart_solinst.c **** * Return:
 302:.\Generated_Source\PSoC5/uart_solinst.c **** *  None.
 303:.\Generated_Source\PSoC5/uart_solinst.c **** *
 304:.\Generated_Source\PSoC5/uart_solinst.c **** *******************************************************************************/
 305:.\Generated_Source\PSoC5/uart_solinst.c **** void  uart_solinst_WriteControlRegister(uint8 control) 
 306:.\Generated_Source\PSoC5/uart_solinst.c **** {
 308              		.loc 1 306 0
 309              		.cfi_startproc
 310              		@ args = 0, pretend = 0, frame = 8
 311              		@ frame_needed = 1, uses_anonymous_args = 0
 312              		@ link register save eliminated.
 313 0000 80B4     		push	{r7}
 314              	.LCFI12:
 315              		.cfi_def_cfa_offset 4
 316 0002 83B0     		sub	sp, sp, #12
 317              	.LCFI13:
ARM GAS  C:\Users\karunmj\AppData\Local\Temp\ccOxugR9.s 			page 12


 318              		.cfi_def_cfa_offset 16
 319 0004 00AF     		add	r7, sp, #0
 320              		.cfi_offset 7, -4
 321              	.LCFI14:
 322              		.cfi_def_cfa_register 7
 323 0006 0346     		mov	r3, r0
 324 0008 FB71     		strb	r3, [r7, #7]
 307:.\Generated_Source\PSoC5/uart_solinst.c ****     #if( uart_solinst_CONTROL_REG_REMOVED )
 308:.\Generated_Source\PSoC5/uart_solinst.c ****         if(control != 0u) { }      /* release compiler warning */
 309:.\Generated_Source\PSoC5/uart_solinst.c ****     #else
 310:.\Generated_Source\PSoC5/uart_solinst.c ****        uart_solinst_CONTROL_REG = control;
 325              		.loc 1 310 0
 326 000a 46F27943 		movw	r3, #:lower16:1073767545
 327 000e C4F20003 		movt	r3, #:upper16:1073767545
 328 0012 FA79     		ldrb	r2, [r7, #7]
 329 0014 1A70     		strb	r2, [r3, #0]
 311:.\Generated_Source\PSoC5/uart_solinst.c ****     #endif /* End uart_solinst_CONTROL_REG_REMOVED */
 312:.\Generated_Source\PSoC5/uart_solinst.c **** }
 330              		.loc 1 312 0
 331 0016 07F10C07 		add	r7, r7, #12
 332 001a BD46     		mov	sp, r7
 333 001c 80BC     		pop	{r7}
 334 001e 7047     		bx	lr
 335              		.cfi_endproc
 336              	.LFE5:
 337              		.size	uart_solinst_WriteControlRegister, .-uart_solinst_WriteControlRegister
 338              		.section	.text.uart_solinst_SetRxInterruptMode,"ax",%progbits
 339              		.align	2
 340              		.global	uart_solinst_SetRxInterruptMode
 341              		.thumb
 342              		.thumb_func
 343              		.type	uart_solinst_SetRxInterruptMode, %function
 344              	uart_solinst_SetRxInterruptMode:
 345              	.LFB6:
 313:.\Generated_Source\PSoC5/uart_solinst.c **** 
 314:.\Generated_Source\PSoC5/uart_solinst.c **** 
 315:.\Generated_Source\PSoC5/uart_solinst.c **** #if(uart_solinst_RX_ENABLED || uart_solinst_HD_ENABLED)
 316:.\Generated_Source\PSoC5/uart_solinst.c **** 
 317:.\Generated_Source\PSoC5/uart_solinst.c ****     #if(uart_solinst_RX_INTERRUPT_ENABLED)
 318:.\Generated_Source\PSoC5/uart_solinst.c **** 
 319:.\Generated_Source\PSoC5/uart_solinst.c ****         /*******************************************************************************
 320:.\Generated_Source\PSoC5/uart_solinst.c ****         * Function Name: uart_solinst_EnableRxInt
 321:.\Generated_Source\PSoC5/uart_solinst.c ****         ********************************************************************************
 322:.\Generated_Source\PSoC5/uart_solinst.c ****         *
 323:.\Generated_Source\PSoC5/uart_solinst.c ****         * Summary:
 324:.\Generated_Source\PSoC5/uart_solinst.c ****         *  Enable RX interrupt generation
 325:.\Generated_Source\PSoC5/uart_solinst.c ****         *
 326:.\Generated_Source\PSoC5/uart_solinst.c ****         * Parameters:
 327:.\Generated_Source\PSoC5/uart_solinst.c ****         *  None.
 328:.\Generated_Source\PSoC5/uart_solinst.c ****         *
 329:.\Generated_Source\PSoC5/uart_solinst.c ****         * Return:
 330:.\Generated_Source\PSoC5/uart_solinst.c ****         *  None.
 331:.\Generated_Source\PSoC5/uart_solinst.c ****         *
 332:.\Generated_Source\PSoC5/uart_solinst.c ****         * Theory:
 333:.\Generated_Source\PSoC5/uart_solinst.c ****         *  Enable the interrupt output -or- the interrupt component itself
 334:.\Generated_Source\PSoC5/uart_solinst.c ****         *
 335:.\Generated_Source\PSoC5/uart_solinst.c ****         *******************************************************************************/
ARM GAS  C:\Users\karunmj\AppData\Local\Temp\ccOxugR9.s 			page 13


 336:.\Generated_Source\PSoC5/uart_solinst.c ****         void uart_solinst_EnableRxInt(void) 
 337:.\Generated_Source\PSoC5/uart_solinst.c ****         {
 338:.\Generated_Source\PSoC5/uart_solinst.c ****             CyIntEnable(uart_solinst_RX_VECT_NUM);
 339:.\Generated_Source\PSoC5/uart_solinst.c ****         }
 340:.\Generated_Source\PSoC5/uart_solinst.c **** 
 341:.\Generated_Source\PSoC5/uart_solinst.c **** 
 342:.\Generated_Source\PSoC5/uart_solinst.c ****         /*******************************************************************************
 343:.\Generated_Source\PSoC5/uart_solinst.c ****         * Function Name: uart_solinst_DisableRxInt
 344:.\Generated_Source\PSoC5/uart_solinst.c ****         ********************************************************************************
 345:.\Generated_Source\PSoC5/uart_solinst.c ****         *
 346:.\Generated_Source\PSoC5/uart_solinst.c ****         * Summary:
 347:.\Generated_Source\PSoC5/uart_solinst.c ****         *  Disable RX interrupt generation
 348:.\Generated_Source\PSoC5/uart_solinst.c ****         *
 349:.\Generated_Source\PSoC5/uart_solinst.c ****         * Parameters:
 350:.\Generated_Source\PSoC5/uart_solinst.c ****         *  None.
 351:.\Generated_Source\PSoC5/uart_solinst.c ****         *
 352:.\Generated_Source\PSoC5/uart_solinst.c ****         * Return:
 353:.\Generated_Source\PSoC5/uart_solinst.c ****         *  None.
 354:.\Generated_Source\PSoC5/uart_solinst.c ****         *
 355:.\Generated_Source\PSoC5/uart_solinst.c ****         * Theory:
 356:.\Generated_Source\PSoC5/uart_solinst.c ****         *  Disable the interrupt output -or- the interrupt component itself
 357:.\Generated_Source\PSoC5/uart_solinst.c ****         *
 358:.\Generated_Source\PSoC5/uart_solinst.c ****         *******************************************************************************/
 359:.\Generated_Source\PSoC5/uart_solinst.c ****         void uart_solinst_DisableRxInt(void) 
 360:.\Generated_Source\PSoC5/uart_solinst.c ****         {
 361:.\Generated_Source\PSoC5/uart_solinst.c ****             CyIntDisable(uart_solinst_RX_VECT_NUM);
 362:.\Generated_Source\PSoC5/uart_solinst.c ****         }
 363:.\Generated_Source\PSoC5/uart_solinst.c **** 
 364:.\Generated_Source\PSoC5/uart_solinst.c ****     #endif /* uart_solinst_RX_INTERRUPT_ENABLED */
 365:.\Generated_Source\PSoC5/uart_solinst.c **** 
 366:.\Generated_Source\PSoC5/uart_solinst.c **** 
 367:.\Generated_Source\PSoC5/uart_solinst.c ****     /*******************************************************************************
 368:.\Generated_Source\PSoC5/uart_solinst.c ****     * Function Name: uart_solinst_SetRxInterruptMode
 369:.\Generated_Source\PSoC5/uart_solinst.c ****     ********************************************************************************
 370:.\Generated_Source\PSoC5/uart_solinst.c ****     *
 371:.\Generated_Source\PSoC5/uart_solinst.c ****     * Summary:
 372:.\Generated_Source\PSoC5/uart_solinst.c ****     *  Configure which status bits trigger an interrupt event
 373:.\Generated_Source\PSoC5/uart_solinst.c ****     *
 374:.\Generated_Source\PSoC5/uart_solinst.c ****     * Parameters:
 375:.\Generated_Source\PSoC5/uart_solinst.c ****     *  IntSrc:  An or'd combination of the desired status bit masks (defined in
 376:.\Generated_Source\PSoC5/uart_solinst.c ****     *           the header file)
 377:.\Generated_Source\PSoC5/uart_solinst.c ****     *
 378:.\Generated_Source\PSoC5/uart_solinst.c ****     * Return:
 379:.\Generated_Source\PSoC5/uart_solinst.c ****     *  None.
 380:.\Generated_Source\PSoC5/uart_solinst.c ****     *
 381:.\Generated_Source\PSoC5/uart_solinst.c ****     * Theory:
 382:.\Generated_Source\PSoC5/uart_solinst.c ****     *  Enables the output of specific status bits to the interrupt controller
 383:.\Generated_Source\PSoC5/uart_solinst.c ****     *
 384:.\Generated_Source\PSoC5/uart_solinst.c ****     *******************************************************************************/
 385:.\Generated_Source\PSoC5/uart_solinst.c ****     void uart_solinst_SetRxInterruptMode(uint8 intSrc) 
 386:.\Generated_Source\PSoC5/uart_solinst.c ****     {
 346              		.loc 1 386 0
 347              		.cfi_startproc
 348              		@ args = 0, pretend = 0, frame = 8
 349              		@ frame_needed = 1, uses_anonymous_args = 0
 350              		@ link register save eliminated.
 351 0000 80B4     		push	{r7}
ARM GAS  C:\Users\karunmj\AppData\Local\Temp\ccOxugR9.s 			page 14


 352              	.LCFI15:
 353              		.cfi_def_cfa_offset 4
 354 0002 83B0     		sub	sp, sp, #12
 355              	.LCFI16:
 356              		.cfi_def_cfa_offset 16
 357 0004 00AF     		add	r7, sp, #0
 358              		.cfi_offset 7, -4
 359              	.LCFI17:
 360              		.cfi_def_cfa_register 7
 361 0006 0346     		mov	r3, r0
 362 0008 FB71     		strb	r3, [r7, #7]
 387:.\Generated_Source\PSoC5/uart_solinst.c ****         uart_solinst_RXSTATUS_MASK_REG  = intSrc;
 363              		.loc 1 387 0
 364 000a 46F28D43 		movw	r3, #:lower16:1073767565
 365 000e C4F20003 		movt	r3, #:upper16:1073767565
 366 0012 FA79     		ldrb	r2, [r7, #7]
 367 0014 1A70     		strb	r2, [r3, #0]
 388:.\Generated_Source\PSoC5/uart_solinst.c ****     }
 368              		.loc 1 388 0
 369 0016 07F10C07 		add	r7, r7, #12
 370 001a BD46     		mov	sp, r7
 371 001c 80BC     		pop	{r7}
 372 001e 7047     		bx	lr
 373              		.cfi_endproc
 374              	.LFE6:
 375              		.size	uart_solinst_SetRxInterruptMode, .-uart_solinst_SetRxInterruptMode
 376              		.section	.text.uart_solinst_ReadRxData,"ax",%progbits
 377              		.align	2
 378              		.global	uart_solinst_ReadRxData
 379              		.thumb
 380              		.thumb_func
 381              		.type	uart_solinst_ReadRxData, %function
 382              	uart_solinst_ReadRxData:
 383              	.LFB7:
 389:.\Generated_Source\PSoC5/uart_solinst.c **** 
 390:.\Generated_Source\PSoC5/uart_solinst.c **** 
 391:.\Generated_Source\PSoC5/uart_solinst.c ****     /*******************************************************************************
 392:.\Generated_Source\PSoC5/uart_solinst.c ****     * Function Name: uart_solinst_ReadRxData
 393:.\Generated_Source\PSoC5/uart_solinst.c ****     ********************************************************************************
 394:.\Generated_Source\PSoC5/uart_solinst.c ****     *
 395:.\Generated_Source\PSoC5/uart_solinst.c ****     * Summary:
 396:.\Generated_Source\PSoC5/uart_solinst.c ****     *  Returns data in RX Data register without checking status register to
 397:.\Generated_Source\PSoC5/uart_solinst.c ****     *  determine if data is valid
 398:.\Generated_Source\PSoC5/uart_solinst.c ****     *
 399:.\Generated_Source\PSoC5/uart_solinst.c ****     * Parameters:
 400:.\Generated_Source\PSoC5/uart_solinst.c ****     *  None.
 401:.\Generated_Source\PSoC5/uart_solinst.c ****     *
 402:.\Generated_Source\PSoC5/uart_solinst.c ****     * Return:
 403:.\Generated_Source\PSoC5/uart_solinst.c ****     *  Received data from RX register
 404:.\Generated_Source\PSoC5/uart_solinst.c ****     *
 405:.\Generated_Source\PSoC5/uart_solinst.c ****     * Global Variables:
 406:.\Generated_Source\PSoC5/uart_solinst.c ****     *  uart_solinst_rxBuffer - RAM buffer pointer for save received data.
 407:.\Generated_Source\PSoC5/uart_solinst.c ****     *  uart_solinst_rxBufferWrite - cyclic index for write to rxBuffer,
 408:.\Generated_Source\PSoC5/uart_solinst.c ****     *     checked to identify new data.
 409:.\Generated_Source\PSoC5/uart_solinst.c ****     *  uart_solinst_rxBufferRead - cyclic index for read from rxBuffer,
 410:.\Generated_Source\PSoC5/uart_solinst.c ****     *     incremented after each byte has been read from buffer.
 411:.\Generated_Source\PSoC5/uart_solinst.c ****     *  uart_solinst_rxBufferLoopDetect - creared if loop condition was detected
ARM GAS  C:\Users\karunmj\AppData\Local\Temp\ccOxugR9.s 			page 15


 412:.\Generated_Source\PSoC5/uart_solinst.c ****     *     in RX ISR.
 413:.\Generated_Source\PSoC5/uart_solinst.c ****     *
 414:.\Generated_Source\PSoC5/uart_solinst.c ****     * Reentrant:
 415:.\Generated_Source\PSoC5/uart_solinst.c ****     *  No.
 416:.\Generated_Source\PSoC5/uart_solinst.c ****     *
 417:.\Generated_Source\PSoC5/uart_solinst.c ****     *******************************************************************************/
 418:.\Generated_Source\PSoC5/uart_solinst.c ****     uint8 uart_solinst_ReadRxData(void) 
 419:.\Generated_Source\PSoC5/uart_solinst.c ****     {
 384              		.loc 1 419 0
 385              		.cfi_startproc
 386              		@ args = 0, pretend = 0, frame = 8
 387              		@ frame_needed = 1, uses_anonymous_args = 0
 388              		@ link register save eliminated.
 389 0000 80B4     		push	{r7}
 390              	.LCFI18:
 391              		.cfi_def_cfa_offset 4
 392 0002 83B0     		sub	sp, sp, #12
 393              	.LCFI19:
 394              		.cfi_def_cfa_offset 16
 395 0004 00AF     		add	r7, sp, #0
 396              		.cfi_offset 7, -4
 397              	.LCFI20:
 398              		.cfi_def_cfa_register 7
 420:.\Generated_Source\PSoC5/uart_solinst.c ****         uint8 rxData;
 421:.\Generated_Source\PSoC5/uart_solinst.c **** 
 422:.\Generated_Source\PSoC5/uart_solinst.c ****         #if(uart_solinst_RXBUFFERSIZE > uart_solinst_FIFO_LENGTH)
 423:.\Generated_Source\PSoC5/uart_solinst.c ****             uint8 loc_rxBufferRead;
 424:.\Generated_Source\PSoC5/uart_solinst.c ****             uint8 loc_rxBufferWrite;
 425:.\Generated_Source\PSoC5/uart_solinst.c ****             /* Protect variables that could change on interrupt. */
 426:.\Generated_Source\PSoC5/uart_solinst.c ****             /* Disable Rx interrupt. */
 427:.\Generated_Source\PSoC5/uart_solinst.c ****             #if(uart_solinst_RX_INTERRUPT_ENABLED)
 428:.\Generated_Source\PSoC5/uart_solinst.c ****                 uart_solinst_DisableRxInt();
 429:.\Generated_Source\PSoC5/uart_solinst.c ****             #endif /* uart_solinst_RX_INTERRUPT_ENABLED */
 430:.\Generated_Source\PSoC5/uart_solinst.c ****             loc_rxBufferRead = uart_solinst_rxBufferRead;
 431:.\Generated_Source\PSoC5/uart_solinst.c ****             loc_rxBufferWrite = uart_solinst_rxBufferWrite;
 432:.\Generated_Source\PSoC5/uart_solinst.c **** 
 433:.\Generated_Source\PSoC5/uart_solinst.c ****             if( (uart_solinst_rxBufferLoopDetect != 0u) || (loc_rxBufferRead != loc_rxBufferWrite) 
 434:.\Generated_Source\PSoC5/uart_solinst.c ****             {
 435:.\Generated_Source\PSoC5/uart_solinst.c ****                 rxData = uart_solinst_rxBuffer[loc_rxBufferRead];
 436:.\Generated_Source\PSoC5/uart_solinst.c ****                 loc_rxBufferRead++;
 437:.\Generated_Source\PSoC5/uart_solinst.c **** 
 438:.\Generated_Source\PSoC5/uart_solinst.c ****                 if(loc_rxBufferRead >= uart_solinst_RXBUFFERSIZE)
 439:.\Generated_Source\PSoC5/uart_solinst.c ****                 {
 440:.\Generated_Source\PSoC5/uart_solinst.c ****                     loc_rxBufferRead = 0u;
 441:.\Generated_Source\PSoC5/uart_solinst.c ****                 }
 442:.\Generated_Source\PSoC5/uart_solinst.c ****                 /* Update the real pointer */
 443:.\Generated_Source\PSoC5/uart_solinst.c ****                 uart_solinst_rxBufferRead = loc_rxBufferRead;
 444:.\Generated_Source\PSoC5/uart_solinst.c **** 
 445:.\Generated_Source\PSoC5/uart_solinst.c ****                 if(uart_solinst_rxBufferLoopDetect != 0u )
 446:.\Generated_Source\PSoC5/uart_solinst.c ****                 {
 447:.\Generated_Source\PSoC5/uart_solinst.c ****                     uart_solinst_rxBufferLoopDetect = 0u;
 448:.\Generated_Source\PSoC5/uart_solinst.c ****                     #if( (uart_solinst_RX_INTERRUPT_ENABLED) && (uart_solinst_FLOW_CONTROL != 0u) &
 449:.\Generated_Source\PSoC5/uart_solinst.c ****                          (uart_solinst_RXBUFFERSIZE > uart_solinst_FIFO_LENGTH) )
 450:.\Generated_Source\PSoC5/uart_solinst.c ****                         /* When Hardware Flow Control selected - return RX mask */
 451:.\Generated_Source\PSoC5/uart_solinst.c ****                         #if( uart_solinst_HD_ENABLED )
 452:.\Generated_Source\PSoC5/uart_solinst.c ****                             if((uart_solinst_CONTROL_REG & uart_solinst_CTRL_HD_SEND) == 0u)
 453:.\Generated_Source\PSoC5/uart_solinst.c ****                             {   /* In Half duplex mode return RX mask only in RX
ARM GAS  C:\Users\karunmj\AppData\Local\Temp\ccOxugR9.s 			page 16


 454:.\Generated_Source\PSoC5/uart_solinst.c ****                                 *  configuration set, otherwise
 455:.\Generated_Source\PSoC5/uart_solinst.c ****                                 *  mask will be returned in LoadRxConfig() API.
 456:.\Generated_Source\PSoC5/uart_solinst.c ****                                 */
 457:.\Generated_Source\PSoC5/uart_solinst.c ****                                 uart_solinst_RXSTATUS_MASK_REG  |= uart_solinst_RX_STS_FIFO_NOTEMPT
 458:.\Generated_Source\PSoC5/uart_solinst.c ****                             }
 459:.\Generated_Source\PSoC5/uart_solinst.c ****                         #else
 460:.\Generated_Source\PSoC5/uart_solinst.c ****                             uart_solinst_RXSTATUS_MASK_REG  |= uart_solinst_RX_STS_FIFO_NOTEMPTY;
 461:.\Generated_Source\PSoC5/uart_solinst.c ****                         #endif /* end uart_solinst_HD_ENABLED */
 462:.\Generated_Source\PSoC5/uart_solinst.c ****                     #endif /* uart_solinst_RX_INTERRUPT_ENABLED and Hardware flow control*/
 463:.\Generated_Source\PSoC5/uart_solinst.c ****                 }
 464:.\Generated_Source\PSoC5/uart_solinst.c ****             }
 465:.\Generated_Source\PSoC5/uart_solinst.c ****             else
 466:.\Generated_Source\PSoC5/uart_solinst.c ****             {   /* Needs to check status for RX_STS_FIFO_NOTEMPTY bit*/
 467:.\Generated_Source\PSoC5/uart_solinst.c ****                 rxData = uart_solinst_RXDATA_REG;
 468:.\Generated_Source\PSoC5/uart_solinst.c ****             }
 469:.\Generated_Source\PSoC5/uart_solinst.c **** 
 470:.\Generated_Source\PSoC5/uart_solinst.c ****             /* Enable Rx interrupt. */
 471:.\Generated_Source\PSoC5/uart_solinst.c ****             #if(uart_solinst_RX_INTERRUPT_ENABLED)
 472:.\Generated_Source\PSoC5/uart_solinst.c ****                 uart_solinst_EnableRxInt();
 473:.\Generated_Source\PSoC5/uart_solinst.c ****             #endif /* End uart_solinst_RX_INTERRUPT_ENABLED */
 474:.\Generated_Source\PSoC5/uart_solinst.c **** 
 475:.\Generated_Source\PSoC5/uart_solinst.c ****         #else /* uart_solinst_RXBUFFERSIZE > uart_solinst_FIFO_LENGTH */
 476:.\Generated_Source\PSoC5/uart_solinst.c **** 
 477:.\Generated_Source\PSoC5/uart_solinst.c ****             /* Needs to check status for RX_STS_FIFO_NOTEMPTY bit*/
 478:.\Generated_Source\PSoC5/uart_solinst.c ****             rxData = uart_solinst_RXDATA_REG;
 399              		.loc 1 478 0
 400 0006 46F24D43 		movw	r3, #:lower16:1073767501
 401 000a C4F20003 		movt	r3, #:upper16:1073767501
 402 000e 1B78     		ldrb	r3, [r3, #0]
 403 0010 FB71     		strb	r3, [r7, #7]
 479:.\Generated_Source\PSoC5/uart_solinst.c **** 
 480:.\Generated_Source\PSoC5/uart_solinst.c ****         #endif /* uart_solinst_RXBUFFERSIZE > uart_solinst_FIFO_LENGTH */
 481:.\Generated_Source\PSoC5/uart_solinst.c **** 
 482:.\Generated_Source\PSoC5/uart_solinst.c ****         return(rxData);
 404              		.loc 1 482 0
 405 0012 FB79     		ldrb	r3, [r7, #7]	@ zero_extendqisi2
 483:.\Generated_Source\PSoC5/uart_solinst.c ****     }
 406              		.loc 1 483 0
 407 0014 1846     		mov	r0, r3
 408 0016 07F10C07 		add	r7, r7, #12
 409 001a BD46     		mov	sp, r7
 410 001c 80BC     		pop	{r7}
 411 001e 7047     		bx	lr
 412              		.cfi_endproc
 413              	.LFE7:
 414              		.size	uart_solinst_ReadRxData, .-uart_solinst_ReadRxData
 415              		.section	.text.uart_solinst_ReadRxStatus,"ax",%progbits
 416              		.align	2
 417              		.global	uart_solinst_ReadRxStatus
 418              		.thumb
 419              		.thumb_func
 420              		.type	uart_solinst_ReadRxStatus, %function
 421              	uart_solinst_ReadRxStatus:
 422              	.LFB8:
 484:.\Generated_Source\PSoC5/uart_solinst.c **** 
 485:.\Generated_Source\PSoC5/uart_solinst.c **** 
 486:.\Generated_Source\PSoC5/uart_solinst.c ****     /*******************************************************************************
ARM GAS  C:\Users\karunmj\AppData\Local\Temp\ccOxugR9.s 			page 17


 487:.\Generated_Source\PSoC5/uart_solinst.c ****     * Function Name: uart_solinst_ReadRxStatus
 488:.\Generated_Source\PSoC5/uart_solinst.c ****     ********************************************************************************
 489:.\Generated_Source\PSoC5/uart_solinst.c ****     *
 490:.\Generated_Source\PSoC5/uart_solinst.c ****     * Summary:
 491:.\Generated_Source\PSoC5/uart_solinst.c ****     *  Read the current state of the status register
 492:.\Generated_Source\PSoC5/uart_solinst.c ****     *  And detect software buffer overflow.
 493:.\Generated_Source\PSoC5/uart_solinst.c ****     *
 494:.\Generated_Source\PSoC5/uart_solinst.c ****     * Parameters:
 495:.\Generated_Source\PSoC5/uart_solinst.c ****     *  None.
 496:.\Generated_Source\PSoC5/uart_solinst.c ****     *
 497:.\Generated_Source\PSoC5/uart_solinst.c ****     * Return:
 498:.\Generated_Source\PSoC5/uart_solinst.c ****     *  Current state of the status register.
 499:.\Generated_Source\PSoC5/uart_solinst.c ****     *
 500:.\Generated_Source\PSoC5/uart_solinst.c ****     * Global Variables:
 501:.\Generated_Source\PSoC5/uart_solinst.c ****     *  uart_solinst_rxBufferOverflow - used to indicate overload condition.
 502:.\Generated_Source\PSoC5/uart_solinst.c ****     *   It set to one in RX interrupt when there isn?t free space in
 503:.\Generated_Source\PSoC5/uart_solinst.c ****     *   uart_solinst_rxBufferRead to write new data. This condition returned
 504:.\Generated_Source\PSoC5/uart_solinst.c ****     *   and cleared to zero by this API as an
 505:.\Generated_Source\PSoC5/uart_solinst.c ****     *   uart_solinst_RX_STS_SOFT_BUFF_OVER bit along with RX Status register
 506:.\Generated_Source\PSoC5/uart_solinst.c ****     *   bits.
 507:.\Generated_Source\PSoC5/uart_solinst.c ****     *
 508:.\Generated_Source\PSoC5/uart_solinst.c ****     *******************************************************************************/
 509:.\Generated_Source\PSoC5/uart_solinst.c ****     uint8 uart_solinst_ReadRxStatus(void) 
 510:.\Generated_Source\PSoC5/uart_solinst.c ****     {
 423              		.loc 1 510 0
 424              		.cfi_startproc
 425              		@ args = 0, pretend = 0, frame = 8
 426              		@ frame_needed = 1, uses_anonymous_args = 0
 427              		@ link register save eliminated.
 428 0000 80B4     		push	{r7}
 429              	.LCFI21:
 430              		.cfi_def_cfa_offset 4
 431 0002 83B0     		sub	sp, sp, #12
 432              	.LCFI22:
 433              		.cfi_def_cfa_offset 16
 434 0004 00AF     		add	r7, sp, #0
 435              		.cfi_offset 7, -4
 436              	.LCFI23:
 437              		.cfi_def_cfa_register 7
 511:.\Generated_Source\PSoC5/uart_solinst.c ****         uint8 status;
 512:.\Generated_Source\PSoC5/uart_solinst.c **** 
 513:.\Generated_Source\PSoC5/uart_solinst.c ****         status = uart_solinst_RXSTATUS_REG & uart_solinst_RX_HW_MASK;
 438              		.loc 1 513 0
 439 0006 46F26D43 		movw	r3, #:lower16:1073767533
 440 000a C4F20003 		movt	r3, #:upper16:1073767533
 441 000e 1B78     		ldrb	r3, [r3, #0]
 442 0010 DBB2     		uxtb	r3, r3
 443 0012 03F07F03 		and	r3, r3, #127
 444 0016 FB71     		strb	r3, [r7, #7]
 514:.\Generated_Source\PSoC5/uart_solinst.c **** 
 515:.\Generated_Source\PSoC5/uart_solinst.c ****         #if(uart_solinst_RXBUFFERSIZE > uart_solinst_FIFO_LENGTH)
 516:.\Generated_Source\PSoC5/uart_solinst.c ****             if( uart_solinst_rxBufferOverflow != 0u )
 517:.\Generated_Source\PSoC5/uart_solinst.c ****             {
 518:.\Generated_Source\PSoC5/uart_solinst.c ****                 status |= uart_solinst_RX_STS_SOFT_BUFF_OVER;
 519:.\Generated_Source\PSoC5/uart_solinst.c ****                 uart_solinst_rxBufferOverflow = 0u;
 520:.\Generated_Source\PSoC5/uart_solinst.c ****             }
 521:.\Generated_Source\PSoC5/uart_solinst.c ****         #endif /* uart_solinst_RXBUFFERSIZE */
ARM GAS  C:\Users\karunmj\AppData\Local\Temp\ccOxugR9.s 			page 18


 522:.\Generated_Source\PSoC5/uart_solinst.c **** 
 523:.\Generated_Source\PSoC5/uart_solinst.c ****         return(status);
 445              		.loc 1 523 0
 446 0018 FB79     		ldrb	r3, [r7, #7]	@ zero_extendqisi2
 524:.\Generated_Source\PSoC5/uart_solinst.c ****     }
 447              		.loc 1 524 0
 448 001a 1846     		mov	r0, r3
 449 001c 07F10C07 		add	r7, r7, #12
 450 0020 BD46     		mov	sp, r7
 451 0022 80BC     		pop	{r7}
 452 0024 7047     		bx	lr
 453              		.cfi_endproc
 454              	.LFE8:
 455              		.size	uart_solinst_ReadRxStatus, .-uart_solinst_ReadRxStatus
 456 0026 00BF     		.section	.text.uart_solinst_GetChar,"ax",%progbits
 457              		.align	2
 458              		.global	uart_solinst_GetChar
 459              		.thumb
 460              		.thumb_func
 461              		.type	uart_solinst_GetChar, %function
 462              	uart_solinst_GetChar:
 463              	.LFB9:
 525:.\Generated_Source\PSoC5/uart_solinst.c **** 
 526:.\Generated_Source\PSoC5/uart_solinst.c **** 
 527:.\Generated_Source\PSoC5/uart_solinst.c ****     /*******************************************************************************
 528:.\Generated_Source\PSoC5/uart_solinst.c ****     * Function Name: uart_solinst_GetChar
 529:.\Generated_Source\PSoC5/uart_solinst.c ****     ********************************************************************************
 530:.\Generated_Source\PSoC5/uart_solinst.c ****     *
 531:.\Generated_Source\PSoC5/uart_solinst.c ****     * Summary:
 532:.\Generated_Source\PSoC5/uart_solinst.c ****     *  Reads UART RX buffer immediately, if data is not available or an error
 533:.\Generated_Source\PSoC5/uart_solinst.c ****     *  condition exists, zero is returned; otherwise, character is read and
 534:.\Generated_Source\PSoC5/uart_solinst.c ****     *  returned.
 535:.\Generated_Source\PSoC5/uart_solinst.c ****     *
 536:.\Generated_Source\PSoC5/uart_solinst.c ****     * Parameters:
 537:.\Generated_Source\PSoC5/uart_solinst.c ****     *  None.
 538:.\Generated_Source\PSoC5/uart_solinst.c ****     *
 539:.\Generated_Source\PSoC5/uart_solinst.c ****     * Return:
 540:.\Generated_Source\PSoC5/uart_solinst.c ****     *  Character read from UART RX buffer. ASCII characters from 1 to 255 are valid.
 541:.\Generated_Source\PSoC5/uart_solinst.c ****     *  A returned zero signifies an error condition or no data available.
 542:.\Generated_Source\PSoC5/uart_solinst.c ****     *
 543:.\Generated_Source\PSoC5/uart_solinst.c ****     * Global Variables:
 544:.\Generated_Source\PSoC5/uart_solinst.c ****     *  uart_solinst_rxBuffer - RAM buffer pointer for save received data.
 545:.\Generated_Source\PSoC5/uart_solinst.c ****     *  uart_solinst_rxBufferWrite - cyclic index for write to rxBuffer,
 546:.\Generated_Source\PSoC5/uart_solinst.c ****     *     checked to identify new data.
 547:.\Generated_Source\PSoC5/uart_solinst.c ****     *  uart_solinst_rxBufferRead - cyclic index for read from rxBuffer,
 548:.\Generated_Source\PSoC5/uart_solinst.c ****     *     incremented after each byte has been read from buffer.
 549:.\Generated_Source\PSoC5/uart_solinst.c ****     *  uart_solinst_rxBufferLoopDetect - creared if loop condition was detected
 550:.\Generated_Source\PSoC5/uart_solinst.c ****     *     in RX ISR.
 551:.\Generated_Source\PSoC5/uart_solinst.c ****     *
 552:.\Generated_Source\PSoC5/uart_solinst.c ****     * Reentrant:
 553:.\Generated_Source\PSoC5/uart_solinst.c ****     *  No.
 554:.\Generated_Source\PSoC5/uart_solinst.c ****     *
 555:.\Generated_Source\PSoC5/uart_solinst.c ****     *******************************************************************************/
 556:.\Generated_Source\PSoC5/uart_solinst.c ****     uint8 uart_solinst_GetChar(void) 
 557:.\Generated_Source\PSoC5/uart_solinst.c ****     {
 464              		.loc 1 557 0
 465              		.cfi_startproc
ARM GAS  C:\Users\karunmj\AppData\Local\Temp\ccOxugR9.s 			page 19


 466              		@ args = 0, pretend = 0, frame = 8
 467              		@ frame_needed = 1, uses_anonymous_args = 0
 468              		@ link register save eliminated.
 469 0000 80B4     		push	{r7}
 470              	.LCFI24:
 471              		.cfi_def_cfa_offset 4
 472 0002 83B0     		sub	sp, sp, #12
 473              	.LCFI25:
 474              		.cfi_def_cfa_offset 16
 475 0004 00AF     		add	r7, sp, #0
 476              		.cfi_offset 7, -4
 477              	.LCFI26:
 478              		.cfi_def_cfa_register 7
 558:.\Generated_Source\PSoC5/uart_solinst.c ****         uint8 rxData = 0u;
 479              		.loc 1 558 0
 480 0006 4FF00003 		mov	r3, #0
 481 000a BB71     		strb	r3, [r7, #6]
 559:.\Generated_Source\PSoC5/uart_solinst.c ****         uint8 rxStatus;
 560:.\Generated_Source\PSoC5/uart_solinst.c **** 
 561:.\Generated_Source\PSoC5/uart_solinst.c ****         #if(uart_solinst_RXBUFFERSIZE > uart_solinst_FIFO_LENGTH)
 562:.\Generated_Source\PSoC5/uart_solinst.c ****             uint8 loc_rxBufferRead;
 563:.\Generated_Source\PSoC5/uart_solinst.c ****             uint8 loc_rxBufferWrite;
 564:.\Generated_Source\PSoC5/uart_solinst.c ****             /* Protect variables that could change on interrupt. */
 565:.\Generated_Source\PSoC5/uart_solinst.c ****             /* Disable Rx interrupt. */
 566:.\Generated_Source\PSoC5/uart_solinst.c ****             #if(uart_solinst_RX_INTERRUPT_ENABLED)
 567:.\Generated_Source\PSoC5/uart_solinst.c ****                 uart_solinst_DisableRxInt();
 568:.\Generated_Source\PSoC5/uart_solinst.c ****             #endif /* uart_solinst_RX_INTERRUPT_ENABLED */
 569:.\Generated_Source\PSoC5/uart_solinst.c ****             loc_rxBufferRead = uart_solinst_rxBufferRead;
 570:.\Generated_Source\PSoC5/uart_solinst.c ****             loc_rxBufferWrite = uart_solinst_rxBufferWrite;
 571:.\Generated_Source\PSoC5/uart_solinst.c **** 
 572:.\Generated_Source\PSoC5/uart_solinst.c ****             if( (uart_solinst_rxBufferLoopDetect != 0u) || (loc_rxBufferRead != loc_rxBufferWrite) 
 573:.\Generated_Source\PSoC5/uart_solinst.c ****             {
 574:.\Generated_Source\PSoC5/uart_solinst.c ****                 rxData = uart_solinst_rxBuffer[loc_rxBufferRead];
 575:.\Generated_Source\PSoC5/uart_solinst.c ****                 loc_rxBufferRead++;
 576:.\Generated_Source\PSoC5/uart_solinst.c ****                 if(loc_rxBufferRead >= uart_solinst_RXBUFFERSIZE)
 577:.\Generated_Source\PSoC5/uart_solinst.c ****                 {
 578:.\Generated_Source\PSoC5/uart_solinst.c ****                     loc_rxBufferRead = 0u;
 579:.\Generated_Source\PSoC5/uart_solinst.c ****                 }
 580:.\Generated_Source\PSoC5/uart_solinst.c ****                 /* Update the real pointer */
 581:.\Generated_Source\PSoC5/uart_solinst.c ****                 uart_solinst_rxBufferRead = loc_rxBufferRead;
 582:.\Generated_Source\PSoC5/uart_solinst.c **** 
 583:.\Generated_Source\PSoC5/uart_solinst.c ****                 if(uart_solinst_rxBufferLoopDetect > 0u )
 584:.\Generated_Source\PSoC5/uart_solinst.c ****                 {
 585:.\Generated_Source\PSoC5/uart_solinst.c ****                     uart_solinst_rxBufferLoopDetect = 0u;
 586:.\Generated_Source\PSoC5/uart_solinst.c ****                     #if( (uart_solinst_RX_INTERRUPT_ENABLED) && (uart_solinst_FLOW_CONTROL != 0u) )
 587:.\Generated_Source\PSoC5/uart_solinst.c ****                         /* When Hardware Flow Control selected - return RX mask */
 588:.\Generated_Source\PSoC5/uart_solinst.c ****                         #if( uart_solinst_HD_ENABLED )
 589:.\Generated_Source\PSoC5/uart_solinst.c ****                             if((uart_solinst_CONTROL_REG & uart_solinst_CTRL_HD_SEND) == 0u)
 590:.\Generated_Source\PSoC5/uart_solinst.c ****                             {   /* In Half duplex mode return RX mask only if
 591:.\Generated_Source\PSoC5/uart_solinst.c ****                                 *  RX configuration set, otherwise
 592:.\Generated_Source\PSoC5/uart_solinst.c ****                                 *  mask will be returned in LoadRxConfig() API.
 593:.\Generated_Source\PSoC5/uart_solinst.c ****                                 */
 594:.\Generated_Source\PSoC5/uart_solinst.c ****                                 uart_solinst_RXSTATUS_MASK_REG  |= uart_solinst_RX_STS_FIFO_NOTEMPT
 595:.\Generated_Source\PSoC5/uart_solinst.c ****                             }
 596:.\Generated_Source\PSoC5/uart_solinst.c ****                         #else
 597:.\Generated_Source\PSoC5/uart_solinst.c ****                             uart_solinst_RXSTATUS_MASK_REG  |= uart_solinst_RX_STS_FIFO_NOTEMPTY;
 598:.\Generated_Source\PSoC5/uart_solinst.c ****                         #endif /* end uart_solinst_HD_ENABLED */
ARM GAS  C:\Users\karunmj\AppData\Local\Temp\ccOxugR9.s 			page 20


 599:.\Generated_Source\PSoC5/uart_solinst.c ****                     #endif /* uart_solinst_RX_INTERRUPT_ENABLED and Hardware flow control*/
 600:.\Generated_Source\PSoC5/uart_solinst.c ****                 }
 601:.\Generated_Source\PSoC5/uart_solinst.c **** 
 602:.\Generated_Source\PSoC5/uart_solinst.c ****             }
 603:.\Generated_Source\PSoC5/uart_solinst.c ****             else
 604:.\Generated_Source\PSoC5/uart_solinst.c ****             {   rxStatus = uart_solinst_RXSTATUS_REG;
 605:.\Generated_Source\PSoC5/uart_solinst.c ****                 if((rxStatus & uart_solinst_RX_STS_FIFO_NOTEMPTY) != 0u)
 606:.\Generated_Source\PSoC5/uart_solinst.c ****                 {   /* Read received data from FIFO*/
 607:.\Generated_Source\PSoC5/uart_solinst.c ****                     rxData = uart_solinst_RXDATA_REG;
 608:.\Generated_Source\PSoC5/uart_solinst.c ****                     /*Check status on error*/
 609:.\Generated_Source\PSoC5/uart_solinst.c ****                     if((rxStatus & (uart_solinst_RX_STS_BREAK | uart_solinst_RX_STS_PAR_ERROR |
 610:.\Generated_Source\PSoC5/uart_solinst.c ****                                    uart_solinst_RX_STS_STOP_ERROR | uart_solinst_RX_STS_OVERRUN)) !
 611:.\Generated_Source\PSoC5/uart_solinst.c ****                     {
 612:.\Generated_Source\PSoC5/uart_solinst.c ****                         rxData = 0u;
 613:.\Generated_Source\PSoC5/uart_solinst.c ****                     }
 614:.\Generated_Source\PSoC5/uart_solinst.c ****                 }
 615:.\Generated_Source\PSoC5/uart_solinst.c ****             }
 616:.\Generated_Source\PSoC5/uart_solinst.c **** 
 617:.\Generated_Source\PSoC5/uart_solinst.c ****             /* Enable Rx interrupt. */
 618:.\Generated_Source\PSoC5/uart_solinst.c ****             #if(uart_solinst_RX_INTERRUPT_ENABLED)
 619:.\Generated_Source\PSoC5/uart_solinst.c ****                 uart_solinst_EnableRxInt();
 620:.\Generated_Source\PSoC5/uart_solinst.c ****             #endif /* uart_solinst_RX_INTERRUPT_ENABLED */
 621:.\Generated_Source\PSoC5/uart_solinst.c **** 
 622:.\Generated_Source\PSoC5/uart_solinst.c ****         #else /* uart_solinst_RXBUFFERSIZE > uart_solinst_FIFO_LENGTH */
 623:.\Generated_Source\PSoC5/uart_solinst.c **** 
 624:.\Generated_Source\PSoC5/uart_solinst.c ****             rxStatus =uart_solinst_RXSTATUS_REG;
 482              		.loc 1 624 0
 483 000c 46F26D43 		movw	r3, #:lower16:1073767533
 484 0010 C4F20003 		movt	r3, #:upper16:1073767533
 485 0014 1B78     		ldrb	r3, [r3, #0]
 486 0016 FB71     		strb	r3, [r7, #7]
 625:.\Generated_Source\PSoC5/uart_solinst.c ****             if((rxStatus & uart_solinst_RX_STS_FIFO_NOTEMPTY) != 0u)
 487              		.loc 1 625 0
 488 0018 FB79     		ldrb	r3, [r7, #7]	@ zero_extendqisi2
 489 001a 03F02003 		and	r3, r3, #32
 490 001e 002B     		cmp	r3, #0
 491 0020 0DD0     		beq	.L21
 626:.\Generated_Source\PSoC5/uart_solinst.c ****             {   /* Read received data from FIFO*/
 627:.\Generated_Source\PSoC5/uart_solinst.c ****                 rxData = uart_solinst_RXDATA_REG;
 492              		.loc 1 627 0
 493 0022 46F24D43 		movw	r3, #:lower16:1073767501
 494 0026 C4F20003 		movt	r3, #:upper16:1073767501
 495 002a 1B78     		ldrb	r3, [r3, #0]
 496 002c BB71     		strb	r3, [r7, #6]
 628:.\Generated_Source\PSoC5/uart_solinst.c ****                 /*Check status on error*/
 629:.\Generated_Source\PSoC5/uart_solinst.c ****                 if((rxStatus & (uart_solinst_RX_STS_BREAK | uart_solinst_RX_STS_PAR_ERROR |
 497              		.loc 1 629 0
 498 002e FB79     		ldrb	r3, [r7, #7]	@ zero_extendqisi2
 499 0030 03F01E03 		and	r3, r3, #30
 500 0034 002B     		cmp	r3, #0
 501 0036 02D0     		beq	.L21
 630:.\Generated_Source\PSoC5/uart_solinst.c ****                                uart_solinst_RX_STS_STOP_ERROR | uart_solinst_RX_STS_OVERRUN)) != 0u
 631:.\Generated_Source\PSoC5/uart_solinst.c ****                 {
 632:.\Generated_Source\PSoC5/uart_solinst.c ****                     rxData = 0u;
 502              		.loc 1 632 0
 503 0038 4FF00003 		mov	r3, #0
 504 003c BB71     		strb	r3, [r7, #6]
ARM GAS  C:\Users\karunmj\AppData\Local\Temp\ccOxugR9.s 			page 21


 505              	.L21:
 633:.\Generated_Source\PSoC5/uart_solinst.c ****                 }
 634:.\Generated_Source\PSoC5/uart_solinst.c ****             }
 635:.\Generated_Source\PSoC5/uart_solinst.c ****         #endif /* uart_solinst_RXBUFFERSIZE > uart_solinst_FIFO_LENGTH */
 636:.\Generated_Source\PSoC5/uart_solinst.c **** 
 637:.\Generated_Source\PSoC5/uart_solinst.c ****         return(rxData);
 506              		.loc 1 637 0
 507 003e BB79     		ldrb	r3, [r7, #6]	@ zero_extendqisi2
 638:.\Generated_Source\PSoC5/uart_solinst.c ****     }
 508              		.loc 1 638 0
 509 0040 1846     		mov	r0, r3
 510 0042 07F10C07 		add	r7, r7, #12
 511 0046 BD46     		mov	sp, r7
 512 0048 80BC     		pop	{r7}
 513 004a 7047     		bx	lr
 514              		.cfi_endproc
 515              	.LFE9:
 516              		.size	uart_solinst_GetChar, .-uart_solinst_GetChar
 517              		.section	.text.uart_solinst_GetByte,"ax",%progbits
 518              		.align	2
 519              		.global	uart_solinst_GetByte
 520              		.thumb
 521              		.thumb_func
 522              		.type	uart_solinst_GetByte, %function
 523              	uart_solinst_GetByte:
 524              	.LFB10:
 639:.\Generated_Source\PSoC5/uart_solinst.c **** 
 640:.\Generated_Source\PSoC5/uart_solinst.c **** 
 641:.\Generated_Source\PSoC5/uart_solinst.c ****     /*******************************************************************************
 642:.\Generated_Source\PSoC5/uart_solinst.c ****     * Function Name: uart_solinst_GetByte
 643:.\Generated_Source\PSoC5/uart_solinst.c ****     ********************************************************************************
 644:.\Generated_Source\PSoC5/uart_solinst.c ****     *
 645:.\Generated_Source\PSoC5/uart_solinst.c ****     * Summary:
 646:.\Generated_Source\PSoC5/uart_solinst.c ****     *  Grab the next available byte of data from the recieve FIFO
 647:.\Generated_Source\PSoC5/uart_solinst.c ****     *
 648:.\Generated_Source\PSoC5/uart_solinst.c ****     * Parameters:
 649:.\Generated_Source\PSoC5/uart_solinst.c ****     *  None.
 650:.\Generated_Source\PSoC5/uart_solinst.c ****     *
 651:.\Generated_Source\PSoC5/uart_solinst.c ****     * Return:
 652:.\Generated_Source\PSoC5/uart_solinst.c ****     *  MSB contains Status Register and LSB contains UART RX data
 653:.\Generated_Source\PSoC5/uart_solinst.c ****     *
 654:.\Generated_Source\PSoC5/uart_solinst.c ****     * Reentrant:
 655:.\Generated_Source\PSoC5/uart_solinst.c ****     *  No.
 656:.\Generated_Source\PSoC5/uart_solinst.c ****     *
 657:.\Generated_Source\PSoC5/uart_solinst.c ****     *******************************************************************************/
 658:.\Generated_Source\PSoC5/uart_solinst.c ****     uint16 uart_solinst_GetByte(void) 
 659:.\Generated_Source\PSoC5/uart_solinst.c ****     {
 525              		.loc 1 659 0
 526              		.cfi_startproc
 527              		@ args = 0, pretend = 0, frame = 0
 528              		@ frame_needed = 1, uses_anonymous_args = 0
 529 0000 98B5     		push	{r3, r4, r7, lr}
 530              	.LCFI27:
 531              		.cfi_def_cfa_offset 16
 532 0002 00AF     		add	r7, sp, #0
 533              		.cfi_offset 14, -4
 534              		.cfi_offset 7, -8
ARM GAS  C:\Users\karunmj\AppData\Local\Temp\ccOxugR9.s 			page 22


 535              		.cfi_offset 4, -12
 536              		.cfi_offset 3, -16
 537              	.LCFI28:
 538              		.cfi_def_cfa_register 7
 660:.\Generated_Source\PSoC5/uart_solinst.c ****         return ( ((uint16)uart_solinst_ReadRxStatus() << 8u) | uart_solinst_ReadRxData() );
 539              		.loc 1 660 0
 540 0004 FFF7FEFF 		bl	uart_solinst_ReadRxStatus
 541 0008 0346     		mov	r3, r0
 542 000a 4FEA0323 		lsl	r3, r3, #8
 543 000e 9CB2     		uxth	r4, r3
 544 0010 FFF7FEFF 		bl	uart_solinst_ReadRxData
 545 0014 0346     		mov	r3, r0
 546 0016 2246     		mov	r2, r4	@ movhi
 547 0018 42EA0303 		orr	r3, r2, r3
 548 001c 9BB2     		uxth	r3, r3
 549 001e 9BB2     		uxth	r3, r3
 661:.\Generated_Source\PSoC5/uart_solinst.c ****     }
 550              		.loc 1 661 0
 551 0020 1846     		mov	r0, r3
 552 0022 98BD     		pop	{r3, r4, r7, pc}
 553              		.cfi_endproc
 554              	.LFE10:
 555              		.size	uart_solinst_GetByte, .-uart_solinst_GetByte
 556              		.section	.text.uart_solinst_GetRxBufferSize,"ax",%progbits
 557              		.align	2
 558              		.global	uart_solinst_GetRxBufferSize
 559              		.thumb
 560              		.thumb_func
 561              		.type	uart_solinst_GetRxBufferSize, %function
 562              	uart_solinst_GetRxBufferSize:
 563              	.LFB11:
 662:.\Generated_Source\PSoC5/uart_solinst.c **** 
 663:.\Generated_Source\PSoC5/uart_solinst.c **** 
 664:.\Generated_Source\PSoC5/uart_solinst.c ****     /*******************************************************************************
 665:.\Generated_Source\PSoC5/uart_solinst.c ****     * Function Name: uart_solinst_GetRxBufferSize
 666:.\Generated_Source\PSoC5/uart_solinst.c ****     ********************************************************************************
 667:.\Generated_Source\PSoC5/uart_solinst.c ****     *
 668:.\Generated_Source\PSoC5/uart_solinst.c ****     * Summary:
 669:.\Generated_Source\PSoC5/uart_solinst.c ****     *  Determine the amount of bytes left in the RX buffer and return the count in
 670:.\Generated_Source\PSoC5/uart_solinst.c ****     *  bytes
 671:.\Generated_Source\PSoC5/uart_solinst.c ****     *
 672:.\Generated_Source\PSoC5/uart_solinst.c ****     * Parameters:
 673:.\Generated_Source\PSoC5/uart_solinst.c ****     *  None.
 674:.\Generated_Source\PSoC5/uart_solinst.c ****     *
 675:.\Generated_Source\PSoC5/uart_solinst.c ****     * Return:
 676:.\Generated_Source\PSoC5/uart_solinst.c ****     *  uint8: Integer count of the number of bytes left
 677:.\Generated_Source\PSoC5/uart_solinst.c ****     *  in the RX buffer
 678:.\Generated_Source\PSoC5/uart_solinst.c ****     *
 679:.\Generated_Source\PSoC5/uart_solinst.c ****     * Global Variables:
 680:.\Generated_Source\PSoC5/uart_solinst.c ****     *  uart_solinst_rxBufferWrite - used to calculate left bytes.
 681:.\Generated_Source\PSoC5/uart_solinst.c ****     *  uart_solinst_rxBufferRead - used to calculate left bytes.
 682:.\Generated_Source\PSoC5/uart_solinst.c ****     *  uart_solinst_rxBufferLoopDetect - checked to decide left bytes amount.
 683:.\Generated_Source\PSoC5/uart_solinst.c ****     *
 684:.\Generated_Source\PSoC5/uart_solinst.c ****     * Reentrant:
 685:.\Generated_Source\PSoC5/uart_solinst.c ****     *  No.
 686:.\Generated_Source\PSoC5/uart_solinst.c ****     *
 687:.\Generated_Source\PSoC5/uart_solinst.c ****     * Theory:
ARM GAS  C:\Users\karunmj\AppData\Local\Temp\ccOxugR9.s 			page 23


 688:.\Generated_Source\PSoC5/uart_solinst.c ****     *  Allows the user to find out how full the RX Buffer is.
 689:.\Generated_Source\PSoC5/uart_solinst.c ****     *
 690:.\Generated_Source\PSoC5/uart_solinst.c ****     *******************************************************************************/
 691:.\Generated_Source\PSoC5/uart_solinst.c ****     uint8 uart_solinst_GetRxBufferSize(void)
 692:.\Generated_Source\PSoC5/uart_solinst.c ****                                                             
 693:.\Generated_Source\PSoC5/uart_solinst.c ****     {
 564              		.loc 1 693 0
 565              		.cfi_startproc
 566              		@ args = 0, pretend = 0, frame = 8
 567              		@ frame_needed = 1, uses_anonymous_args = 0
 568              		@ link register save eliminated.
 569 0000 80B4     		push	{r7}
 570              	.LCFI29:
 571              		.cfi_def_cfa_offset 4
 572 0002 83B0     		sub	sp, sp, #12
 573              	.LCFI30:
 574              		.cfi_def_cfa_offset 16
 575 0004 00AF     		add	r7, sp, #0
 576              		.cfi_offset 7, -4
 577              	.LCFI31:
 578              		.cfi_def_cfa_register 7
 694:.\Generated_Source\PSoC5/uart_solinst.c ****         uint8 size;
 695:.\Generated_Source\PSoC5/uart_solinst.c **** 
 696:.\Generated_Source\PSoC5/uart_solinst.c ****         #if(uart_solinst_RXBUFFERSIZE > uart_solinst_FIFO_LENGTH)
 697:.\Generated_Source\PSoC5/uart_solinst.c **** 
 698:.\Generated_Source\PSoC5/uart_solinst.c ****             /* Disable Rx interrupt. */
 699:.\Generated_Source\PSoC5/uart_solinst.c ****             /* Protect variables that could change on interrupt. */
 700:.\Generated_Source\PSoC5/uart_solinst.c ****             #if(uart_solinst_RX_INTERRUPT_ENABLED)
 701:.\Generated_Source\PSoC5/uart_solinst.c ****                 uart_solinst_DisableRxInt();
 702:.\Generated_Source\PSoC5/uart_solinst.c ****             #endif /* uart_solinst_RX_INTERRUPT_ENABLED */
 703:.\Generated_Source\PSoC5/uart_solinst.c **** 
 704:.\Generated_Source\PSoC5/uart_solinst.c ****             if(uart_solinst_rxBufferRead == uart_solinst_rxBufferWrite)
 705:.\Generated_Source\PSoC5/uart_solinst.c ****             {
 706:.\Generated_Source\PSoC5/uart_solinst.c ****                 if(uart_solinst_rxBufferLoopDetect > 0u)
 707:.\Generated_Source\PSoC5/uart_solinst.c ****                 {
 708:.\Generated_Source\PSoC5/uart_solinst.c ****                     size = uart_solinst_RXBUFFERSIZE;
 709:.\Generated_Source\PSoC5/uart_solinst.c ****                 }
 710:.\Generated_Source\PSoC5/uart_solinst.c ****                 else
 711:.\Generated_Source\PSoC5/uart_solinst.c ****                 {
 712:.\Generated_Source\PSoC5/uart_solinst.c ****                     size = 0u;
 713:.\Generated_Source\PSoC5/uart_solinst.c ****                 }
 714:.\Generated_Source\PSoC5/uart_solinst.c ****             }
 715:.\Generated_Source\PSoC5/uart_solinst.c ****             else if(uart_solinst_rxBufferRead < uart_solinst_rxBufferWrite)
 716:.\Generated_Source\PSoC5/uart_solinst.c ****             {
 717:.\Generated_Source\PSoC5/uart_solinst.c ****                 size = (uart_solinst_rxBufferWrite - uart_solinst_rxBufferRead);
 718:.\Generated_Source\PSoC5/uart_solinst.c ****             }
 719:.\Generated_Source\PSoC5/uart_solinst.c ****             else
 720:.\Generated_Source\PSoC5/uart_solinst.c ****             {
 721:.\Generated_Source\PSoC5/uart_solinst.c ****                 size = (uart_solinst_RXBUFFERSIZE - uart_solinst_rxBufferRead) + uart_solinst_rxBuf
 722:.\Generated_Source\PSoC5/uart_solinst.c ****             }
 723:.\Generated_Source\PSoC5/uart_solinst.c **** 
 724:.\Generated_Source\PSoC5/uart_solinst.c ****             /* Enable Rx interrupt. */
 725:.\Generated_Source\PSoC5/uart_solinst.c ****             #if(uart_solinst_RX_INTERRUPT_ENABLED)
 726:.\Generated_Source\PSoC5/uart_solinst.c ****                 uart_solinst_EnableRxInt();
 727:.\Generated_Source\PSoC5/uart_solinst.c ****             #endif /* End uart_solinst_RX_INTERRUPT_ENABLED */
 728:.\Generated_Source\PSoC5/uart_solinst.c **** 
 729:.\Generated_Source\PSoC5/uart_solinst.c ****         #else /* uart_solinst_RXBUFFERSIZE > uart_solinst_FIFO_LENGTH */
ARM GAS  C:\Users\karunmj\AppData\Local\Temp\ccOxugR9.s 			page 24


 730:.\Generated_Source\PSoC5/uart_solinst.c **** 
 731:.\Generated_Source\PSoC5/uart_solinst.c ****             /* We can only know if there is data in the fifo. */
 732:.\Generated_Source\PSoC5/uart_solinst.c ****             size = ((uart_solinst_RXSTATUS_REG & uart_solinst_RX_STS_FIFO_NOTEMPTY) != 0u) ? 1u : 0
 579              		.loc 1 732 0
 580 0006 46F26D43 		movw	r3, #:lower16:1073767533
 581 000a C4F20003 		movt	r3, #:upper16:1073767533
 582 000e 1B78     		ldrb	r3, [r3, #0]
 583 0010 DBB2     		uxtb	r3, r3
 584 0012 03F02003 		and	r3, r3, #32
 585 0016 002B     		cmp	r3, #0
 586 0018 02D0     		beq	.L26
 587 001a 4FF00103 		mov	r3, #1
 588 001e 01E0     		b	.L27
 589              	.L26:
 590 0020 4FF00003 		mov	r3, #0
 591              	.L27:
 592 0024 FB71     		strb	r3, [r7, #7]
 733:.\Generated_Source\PSoC5/uart_solinst.c **** 
 734:.\Generated_Source\PSoC5/uart_solinst.c ****         #endif /* End uart_solinst_RXBUFFERSIZE > uart_solinst_FIFO_LENGTH */
 735:.\Generated_Source\PSoC5/uart_solinst.c **** 
 736:.\Generated_Source\PSoC5/uart_solinst.c ****         return(size);
 593              		.loc 1 736 0
 594 0026 FB79     		ldrb	r3, [r7, #7]	@ zero_extendqisi2
 737:.\Generated_Source\PSoC5/uart_solinst.c ****     }
 595              		.loc 1 737 0
 596 0028 1846     		mov	r0, r3
 597 002a 07F10C07 		add	r7, r7, #12
 598 002e BD46     		mov	sp, r7
 599 0030 80BC     		pop	{r7}
 600 0032 7047     		bx	lr
 601              		.cfi_endproc
 602              	.LFE11:
 603              		.size	uart_solinst_GetRxBufferSize, .-uart_solinst_GetRxBufferSize
 604              		.section	.text.uart_solinst_ClearRxBuffer,"ax",%progbits
 605              		.align	2
 606              		.global	uart_solinst_ClearRxBuffer
 607              		.thumb
 608              		.thumb_func
 609              		.type	uart_solinst_ClearRxBuffer, %function
 610              	uart_solinst_ClearRxBuffer:
 611              	.LFB12:
 738:.\Generated_Source\PSoC5/uart_solinst.c **** 
 739:.\Generated_Source\PSoC5/uart_solinst.c **** 
 740:.\Generated_Source\PSoC5/uart_solinst.c ****     /*******************************************************************************
 741:.\Generated_Source\PSoC5/uart_solinst.c ****     * Function Name: uart_solinst_ClearRxBuffer
 742:.\Generated_Source\PSoC5/uart_solinst.c ****     ********************************************************************************
 743:.\Generated_Source\PSoC5/uart_solinst.c ****     *
 744:.\Generated_Source\PSoC5/uart_solinst.c ****     * Summary:
 745:.\Generated_Source\PSoC5/uart_solinst.c ****     *  Clears the RX RAM buffer by setting the read and write pointers both to zero.
 746:.\Generated_Source\PSoC5/uart_solinst.c ****     *  Clears hardware RX FIFO.
 747:.\Generated_Source\PSoC5/uart_solinst.c ****     *
 748:.\Generated_Source\PSoC5/uart_solinst.c ****     * Parameters:
 749:.\Generated_Source\PSoC5/uart_solinst.c ****     *  None.
 750:.\Generated_Source\PSoC5/uart_solinst.c ****     *
 751:.\Generated_Source\PSoC5/uart_solinst.c ****     * Return:
 752:.\Generated_Source\PSoC5/uart_solinst.c ****     *  None.
 753:.\Generated_Source\PSoC5/uart_solinst.c ****     *
ARM GAS  C:\Users\karunmj\AppData\Local\Temp\ccOxugR9.s 			page 25


 754:.\Generated_Source\PSoC5/uart_solinst.c ****     * Global Variables:
 755:.\Generated_Source\PSoC5/uart_solinst.c ****     *  uart_solinst_rxBufferWrite - cleared to zero.
 756:.\Generated_Source\PSoC5/uart_solinst.c ****     *  uart_solinst_rxBufferRead - cleared to zero.
 757:.\Generated_Source\PSoC5/uart_solinst.c ****     *  uart_solinst_rxBufferLoopDetect - cleared to zero.
 758:.\Generated_Source\PSoC5/uart_solinst.c ****     *  uart_solinst_rxBufferOverflow - cleared to zero.
 759:.\Generated_Source\PSoC5/uart_solinst.c ****     *
 760:.\Generated_Source\PSoC5/uart_solinst.c ****     * Reentrant:
 761:.\Generated_Source\PSoC5/uart_solinst.c ****     *  No.
 762:.\Generated_Source\PSoC5/uart_solinst.c ****     *
 763:.\Generated_Source\PSoC5/uart_solinst.c ****     * Theory:
 764:.\Generated_Source\PSoC5/uart_solinst.c ****     *  Setting the pointers to zero makes the system believe there is no data to
 765:.\Generated_Source\PSoC5/uart_solinst.c ****     *  read and writing will resume at address 0 overwriting any data that may
 766:.\Generated_Source\PSoC5/uart_solinst.c ****     *  have remained in the RAM.
 767:.\Generated_Source\PSoC5/uart_solinst.c ****     *
 768:.\Generated_Source\PSoC5/uart_solinst.c ****     * Side Effects:
 769:.\Generated_Source\PSoC5/uart_solinst.c ****     *  Any received data not read from the RAM or FIFO buffer will be lost.
 770:.\Generated_Source\PSoC5/uart_solinst.c ****     *******************************************************************************/
 771:.\Generated_Source\PSoC5/uart_solinst.c ****     void uart_solinst_ClearRxBuffer(void) 
 772:.\Generated_Source\PSoC5/uart_solinst.c ****     {
 612              		.loc 1 772 0
 613              		.cfi_startproc
 614              		@ args = 0, pretend = 0, frame = 8
 615              		@ frame_needed = 1, uses_anonymous_args = 0
 616 0000 80B5     		push	{r7, lr}
 617              	.LCFI32:
 618              		.cfi_def_cfa_offset 8
 619 0002 82B0     		sub	sp, sp, #8
 620              	.LCFI33:
 621              		.cfi_def_cfa_offset 16
 622 0004 00AF     		add	r7, sp, #0
 623              		.cfi_offset 14, -4
 624              		.cfi_offset 7, -8
 625              	.LCFI34:
 626              		.cfi_def_cfa_register 7
 773:.\Generated_Source\PSoC5/uart_solinst.c ****         uint8 enableInterrupts;
 774:.\Generated_Source\PSoC5/uart_solinst.c **** 
 775:.\Generated_Source\PSoC5/uart_solinst.c ****         /* clear the HW FIFO */
 776:.\Generated_Source\PSoC5/uart_solinst.c ****         /* Enter critical section */
 777:.\Generated_Source\PSoC5/uart_solinst.c ****         enableInterrupts = CyEnterCriticalSection();
 627              		.loc 1 777 0
 628 0006 FFF7FEFF 		bl	CyEnterCriticalSection
 629 000a 0346     		mov	r3, r0
 630 000c FB71     		strb	r3, [r7, #7]
 778:.\Generated_Source\PSoC5/uart_solinst.c ****         uart_solinst_RXDATA_AUX_CTL_REG |=  uart_solinst_RX_FIFO_CLR;
 631              		.loc 1 778 0
 632 000e 46F29D43 		movw	r3, #:lower16:1073767581
 633 0012 C4F20003 		movt	r3, #:upper16:1073767581
 634 0016 46F29D42 		movw	r2, #:lower16:1073767581
 635 001a C4F20002 		movt	r2, #:upper16:1073767581
 636 001e 1278     		ldrb	r2, [r2, #0]
 637 0020 D2B2     		uxtb	r2, r2
 638 0022 42F00102 		orr	r2, r2, #1
 639 0026 D2B2     		uxtb	r2, r2
 640 0028 1A70     		strb	r2, [r3, #0]
 779:.\Generated_Source\PSoC5/uart_solinst.c ****         uart_solinst_RXDATA_AUX_CTL_REG &= (uint8)~uart_solinst_RX_FIFO_CLR;
 641              		.loc 1 779 0
 642 002a 46F29D43 		movw	r3, #:lower16:1073767581
ARM GAS  C:\Users\karunmj\AppData\Local\Temp\ccOxugR9.s 			page 26


 643 002e C4F20003 		movt	r3, #:upper16:1073767581
 644 0032 46F29D42 		movw	r2, #:lower16:1073767581
 645 0036 C4F20002 		movt	r2, #:upper16:1073767581
 646 003a 1278     		ldrb	r2, [r2, #0]
 647 003c D2B2     		uxtb	r2, r2
 648 003e 02F0FE02 		and	r2, r2, #254
 649 0042 1A70     		strb	r2, [r3, #0]
 780:.\Generated_Source\PSoC5/uart_solinst.c ****         /* Exit critical section */
 781:.\Generated_Source\PSoC5/uart_solinst.c ****         CyExitCriticalSection(enableInterrupts);
 650              		.loc 1 781 0
 651 0044 FB79     		ldrb	r3, [r7, #7]	@ zero_extendqisi2
 652 0046 1846     		mov	r0, r3
 653 0048 FFF7FEFF 		bl	CyExitCriticalSection
 782:.\Generated_Source\PSoC5/uart_solinst.c **** 
 783:.\Generated_Source\PSoC5/uart_solinst.c ****         #if(uart_solinst_RXBUFFERSIZE > uart_solinst_FIFO_LENGTH)
 784:.\Generated_Source\PSoC5/uart_solinst.c ****             /* Disable Rx interrupt. */
 785:.\Generated_Source\PSoC5/uart_solinst.c ****             /* Protect variables that could change on interrupt. */
 786:.\Generated_Source\PSoC5/uart_solinst.c ****             #if(uart_solinst_RX_INTERRUPT_ENABLED)
 787:.\Generated_Source\PSoC5/uart_solinst.c ****                 uart_solinst_DisableRxInt();
 788:.\Generated_Source\PSoC5/uart_solinst.c ****             #endif /* End uart_solinst_RX_INTERRUPT_ENABLED */
 789:.\Generated_Source\PSoC5/uart_solinst.c **** 
 790:.\Generated_Source\PSoC5/uart_solinst.c ****             uart_solinst_rxBufferRead = 0u;
 791:.\Generated_Source\PSoC5/uart_solinst.c ****             uart_solinst_rxBufferWrite = 0u;
 792:.\Generated_Source\PSoC5/uart_solinst.c ****             uart_solinst_rxBufferLoopDetect = 0u;
 793:.\Generated_Source\PSoC5/uart_solinst.c ****             uart_solinst_rxBufferOverflow = 0u;
 794:.\Generated_Source\PSoC5/uart_solinst.c **** 
 795:.\Generated_Source\PSoC5/uart_solinst.c ****             /* Enable Rx interrupt. */
 796:.\Generated_Source\PSoC5/uart_solinst.c ****             #if(uart_solinst_RX_INTERRUPT_ENABLED)
 797:.\Generated_Source\PSoC5/uart_solinst.c ****                 uart_solinst_EnableRxInt();
 798:.\Generated_Source\PSoC5/uart_solinst.c ****             #endif /* End uart_solinst_RX_INTERRUPT_ENABLED */
 799:.\Generated_Source\PSoC5/uart_solinst.c ****         #endif /* End uart_solinst_RXBUFFERSIZE > uart_solinst_FIFO_LENGTH */
 800:.\Generated_Source\PSoC5/uart_solinst.c **** 
 801:.\Generated_Source\PSoC5/uart_solinst.c ****     }
 654              		.loc 1 801 0
 655 004c 07F10807 		add	r7, r7, #8
 656 0050 BD46     		mov	sp, r7
 657 0052 80BD     		pop	{r7, pc}
 658              		.cfi_endproc
 659              	.LFE12:
 660              		.size	uart_solinst_ClearRxBuffer, .-uart_solinst_ClearRxBuffer
 661              		.section	.text.uart_solinst_SetRxAddressMode,"ax",%progbits
 662              		.align	2
 663              		.global	uart_solinst_SetRxAddressMode
 664              		.thumb
 665              		.thumb_func
 666              		.type	uart_solinst_SetRxAddressMode, %function
 667              	uart_solinst_SetRxAddressMode:
 668              	.LFB13:
 802:.\Generated_Source\PSoC5/uart_solinst.c **** 
 803:.\Generated_Source\PSoC5/uart_solinst.c **** 
 804:.\Generated_Source\PSoC5/uart_solinst.c ****     /*******************************************************************************
 805:.\Generated_Source\PSoC5/uart_solinst.c ****     * Function Name: uart_solinst_SetRxAddressMode
 806:.\Generated_Source\PSoC5/uart_solinst.c ****     ********************************************************************************
 807:.\Generated_Source\PSoC5/uart_solinst.c ****     *
 808:.\Generated_Source\PSoC5/uart_solinst.c ****     * Summary:
 809:.\Generated_Source\PSoC5/uart_solinst.c ****     *  Set the receive addressing mode
 810:.\Generated_Source\PSoC5/uart_solinst.c ****     *
ARM GAS  C:\Users\karunmj\AppData\Local\Temp\ccOxugR9.s 			page 27


 811:.\Generated_Source\PSoC5/uart_solinst.c ****     * Parameters:
 812:.\Generated_Source\PSoC5/uart_solinst.c ****     *  addressMode: Enumerated value indicating the mode of RX addressing
 813:.\Generated_Source\PSoC5/uart_solinst.c ****     *  uart_solinst__B_UART__AM_SW_BYTE_BYTE -  Software Byte-by-Byte address
 814:.\Generated_Source\PSoC5/uart_solinst.c ****     *                                               detection
 815:.\Generated_Source\PSoC5/uart_solinst.c ****     *  uart_solinst__B_UART__AM_SW_DETECT_TO_BUFFER - Software Detect to Buffer
 816:.\Generated_Source\PSoC5/uart_solinst.c ****     *                                               address detection
 817:.\Generated_Source\PSoC5/uart_solinst.c ****     *  uart_solinst__B_UART__AM_HW_BYTE_BY_BYTE - Hardware Byte-by-Byte address
 818:.\Generated_Source\PSoC5/uart_solinst.c ****     *                                               detection
 819:.\Generated_Source\PSoC5/uart_solinst.c ****     *  uart_solinst__B_UART__AM_HW_DETECT_TO_BUFFER - Hardware Detect to Buffer
 820:.\Generated_Source\PSoC5/uart_solinst.c ****     *                                               address detection
 821:.\Generated_Source\PSoC5/uart_solinst.c ****     *  uart_solinst__B_UART__AM_NONE - No address detection
 822:.\Generated_Source\PSoC5/uart_solinst.c ****     *
 823:.\Generated_Source\PSoC5/uart_solinst.c ****     * Return:
 824:.\Generated_Source\PSoC5/uart_solinst.c ****     *  None.
 825:.\Generated_Source\PSoC5/uart_solinst.c ****     *
 826:.\Generated_Source\PSoC5/uart_solinst.c ****     * Global Variables:
 827:.\Generated_Source\PSoC5/uart_solinst.c ****     *  uart_solinst_rxAddressMode - the parameter stored in this variable for
 828:.\Generated_Source\PSoC5/uart_solinst.c ****     *   the farther usage in RX ISR.
 829:.\Generated_Source\PSoC5/uart_solinst.c ****     *  uart_solinst_rxAddressDetected - set to initial state (0).
 830:.\Generated_Source\PSoC5/uart_solinst.c ****     *
 831:.\Generated_Source\PSoC5/uart_solinst.c ****     *******************************************************************************/
 832:.\Generated_Source\PSoC5/uart_solinst.c ****     void uart_solinst_SetRxAddressMode(uint8 addressMode)
 833:.\Generated_Source\PSoC5/uart_solinst.c ****                                                         
 834:.\Generated_Source\PSoC5/uart_solinst.c ****     {
 669              		.loc 1 834 0
 670              		.cfi_startproc
 671              		@ args = 0, pretend = 0, frame = 16
 672              		@ frame_needed = 1, uses_anonymous_args = 0
 673              		@ link register save eliminated.
 674 0000 80B4     		push	{r7}
 675              	.LCFI35:
 676              		.cfi_def_cfa_offset 4
 677 0002 85B0     		sub	sp, sp, #20
 678              	.LCFI36:
 679              		.cfi_def_cfa_offset 24
 680 0004 00AF     		add	r7, sp, #0
 681              		.cfi_offset 7, -4
 682              	.LCFI37:
 683              		.cfi_def_cfa_register 7
 684 0006 0346     		mov	r3, r0
 685 0008 FB71     		strb	r3, [r7, #7]
 835:.\Generated_Source\PSoC5/uart_solinst.c ****         #if(uart_solinst_RXHW_ADDRESS_ENABLED)
 836:.\Generated_Source\PSoC5/uart_solinst.c ****             #if(uart_solinst_CONTROL_REG_REMOVED)
 837:.\Generated_Source\PSoC5/uart_solinst.c ****                 if(addressMode != 0u) { }     /* release compiler warning */
 838:.\Generated_Source\PSoC5/uart_solinst.c ****             #else /* uart_solinst_CONTROL_REG_REMOVED */
 839:.\Generated_Source\PSoC5/uart_solinst.c ****                 uint8 tmpCtrl;
 840:.\Generated_Source\PSoC5/uart_solinst.c ****                 tmpCtrl = uart_solinst_CONTROL_REG & (uint8)~uart_solinst_CTRL_RXADDR_MODE_MASK;
 686              		.loc 1 840 0
 687 000a 46F27943 		movw	r3, #:lower16:1073767545
 688 000e C4F20003 		movt	r3, #:upper16:1073767545
 689 0012 1B78     		ldrb	r3, [r3, #0]
 690 0014 DBB2     		uxtb	r3, r3
 691 0016 03F01F03 		and	r3, r3, #31
 692 001a FB73     		strb	r3, [r7, #15]
 841:.\Generated_Source\PSoC5/uart_solinst.c ****                 tmpCtrl |= (uint8)(addressMode << uart_solinst_CTRL_RXADDR_MODE0_SHIFT);
 693              		.loc 1 841 0
 694 001c FB79     		ldrb	r3, [r7, #7]
ARM GAS  C:\Users\karunmj\AppData\Local\Temp\ccOxugR9.s 			page 28


 695 001e 4FEA4313 		lsl	r3, r3, #5
 696 0022 DAB2     		uxtb	r2, r3
 697 0024 FB7B     		ldrb	r3, [r7, #15]
 698 0026 42EA0303 		orr	r3, r2, r3
 699 002a FB73     		strb	r3, [r7, #15]
 842:.\Generated_Source\PSoC5/uart_solinst.c ****                 uart_solinst_CONTROL_REG = tmpCtrl;
 700              		.loc 1 842 0
 701 002c 46F27943 		movw	r3, #:lower16:1073767545
 702 0030 C4F20003 		movt	r3, #:upper16:1073767545
 703 0034 FA7B     		ldrb	r2, [r7, #15]
 704 0036 1A70     		strb	r2, [r3, #0]
 843:.\Generated_Source\PSoC5/uart_solinst.c ****                 #if(uart_solinst_RX_INTERRUPT_ENABLED && \
 844:.\Generated_Source\PSoC5/uart_solinst.c ****                    (uart_solinst_RXBUFFERSIZE > uart_solinst_FIFO_LENGTH) )
 845:.\Generated_Source\PSoC5/uart_solinst.c ****                     uart_solinst_rxAddressMode = addressMode;
 846:.\Generated_Source\PSoC5/uart_solinst.c ****                     uart_solinst_rxAddressDetected = 0u;
 847:.\Generated_Source\PSoC5/uart_solinst.c ****                 #endif /* End uart_solinst_RXBUFFERSIZE > uart_solinst_FIFO_LENGTH*/
 848:.\Generated_Source\PSoC5/uart_solinst.c ****             #endif /* End uart_solinst_CONTROL_REG_REMOVED */
 849:.\Generated_Source\PSoC5/uart_solinst.c ****         #else /* uart_solinst_RXHW_ADDRESS_ENABLED */
 850:.\Generated_Source\PSoC5/uart_solinst.c ****             if(addressMode != 0u) { }     /* release compiler warning */
 851:.\Generated_Source\PSoC5/uart_solinst.c ****         #endif /* End uart_solinst_RXHW_ADDRESS_ENABLED */
 852:.\Generated_Source\PSoC5/uart_solinst.c ****     }
 705              		.loc 1 852 0
 706 0038 07F11407 		add	r7, r7, #20
 707 003c BD46     		mov	sp, r7
 708 003e 80BC     		pop	{r7}
 709 0040 7047     		bx	lr
 710              		.cfi_endproc
 711              	.LFE13:
 712              		.size	uart_solinst_SetRxAddressMode, .-uart_solinst_SetRxAddressMode
 713 0042 00BF     		.section	.text.uart_solinst_SetRxAddress1,"ax",%progbits
 714              		.align	2
 715              		.global	uart_solinst_SetRxAddress1
 716              		.thumb
 717              		.thumb_func
 718              		.type	uart_solinst_SetRxAddress1, %function
 719              	uart_solinst_SetRxAddress1:
 720              	.LFB14:
 853:.\Generated_Source\PSoC5/uart_solinst.c **** 
 854:.\Generated_Source\PSoC5/uart_solinst.c **** 
 855:.\Generated_Source\PSoC5/uart_solinst.c ****     /*******************************************************************************
 856:.\Generated_Source\PSoC5/uart_solinst.c ****     * Function Name: uart_solinst_SetRxAddress1
 857:.\Generated_Source\PSoC5/uart_solinst.c ****     ********************************************************************************
 858:.\Generated_Source\PSoC5/uart_solinst.c ****     *
 859:.\Generated_Source\PSoC5/uart_solinst.c ****     * Summary:
 860:.\Generated_Source\PSoC5/uart_solinst.c ****     *  Set the first hardware address compare value
 861:.\Generated_Source\PSoC5/uart_solinst.c ****     *
 862:.\Generated_Source\PSoC5/uart_solinst.c ****     * Parameters:
 863:.\Generated_Source\PSoC5/uart_solinst.c ****     *  address
 864:.\Generated_Source\PSoC5/uart_solinst.c ****     *
 865:.\Generated_Source\PSoC5/uart_solinst.c ****     * Return:
 866:.\Generated_Source\PSoC5/uart_solinst.c ****     *  None.
 867:.\Generated_Source\PSoC5/uart_solinst.c ****     *
 868:.\Generated_Source\PSoC5/uart_solinst.c ****     *******************************************************************************/
 869:.\Generated_Source\PSoC5/uart_solinst.c ****     void uart_solinst_SetRxAddress1(uint8 address) 
 870:.\Generated_Source\PSoC5/uart_solinst.c **** 
 871:.\Generated_Source\PSoC5/uart_solinst.c ****     {
 721              		.loc 1 871 0
ARM GAS  C:\Users\karunmj\AppData\Local\Temp\ccOxugR9.s 			page 29


 722              		.cfi_startproc
 723              		@ args = 0, pretend = 0, frame = 8
 724              		@ frame_needed = 1, uses_anonymous_args = 0
 725              		@ link register save eliminated.
 726 0000 80B4     		push	{r7}
 727              	.LCFI38:
 728              		.cfi_def_cfa_offset 4
 729 0002 83B0     		sub	sp, sp, #12
 730              	.LCFI39:
 731              		.cfi_def_cfa_offset 16
 732 0004 00AF     		add	r7, sp, #0
 733              		.cfi_offset 7, -4
 734              	.LCFI40:
 735              		.cfi_def_cfa_register 7
 736 0006 0346     		mov	r3, r0
 737 0008 FB71     		strb	r3, [r7, #7]
 872:.\Generated_Source\PSoC5/uart_solinst.c ****         uart_solinst_RXADDRESS1_REG = address;
 738              		.loc 1 872 0
 739 000a 46F22D43 		movw	r3, #:lower16:1073767469
 740 000e C4F20003 		movt	r3, #:upper16:1073767469
 741 0012 FA79     		ldrb	r2, [r7, #7]
 742 0014 1A70     		strb	r2, [r3, #0]
 873:.\Generated_Source\PSoC5/uart_solinst.c ****     }
 743              		.loc 1 873 0
 744 0016 07F10C07 		add	r7, r7, #12
 745 001a BD46     		mov	sp, r7
 746 001c 80BC     		pop	{r7}
 747 001e 7047     		bx	lr
 748              		.cfi_endproc
 749              	.LFE14:
 750              		.size	uart_solinst_SetRxAddress1, .-uart_solinst_SetRxAddress1
 751              		.section	.text.uart_solinst_SetRxAddress2,"ax",%progbits
 752              		.align	2
 753              		.global	uart_solinst_SetRxAddress2
 754              		.thumb
 755              		.thumb_func
 756              		.type	uart_solinst_SetRxAddress2, %function
 757              	uart_solinst_SetRxAddress2:
 758              	.LFB15:
 874:.\Generated_Source\PSoC5/uart_solinst.c **** 
 875:.\Generated_Source\PSoC5/uart_solinst.c **** 
 876:.\Generated_Source\PSoC5/uart_solinst.c ****     /*******************************************************************************
 877:.\Generated_Source\PSoC5/uart_solinst.c ****     * Function Name: uart_solinst_SetRxAddress2
 878:.\Generated_Source\PSoC5/uart_solinst.c ****     ********************************************************************************
 879:.\Generated_Source\PSoC5/uart_solinst.c ****     *
 880:.\Generated_Source\PSoC5/uart_solinst.c ****     * Summary:
 881:.\Generated_Source\PSoC5/uart_solinst.c ****     *  Set the second hardware address compare value
 882:.\Generated_Source\PSoC5/uart_solinst.c ****     *
 883:.\Generated_Source\PSoC5/uart_solinst.c ****     * Parameters:
 884:.\Generated_Source\PSoC5/uart_solinst.c ****     *  address
 885:.\Generated_Source\PSoC5/uart_solinst.c ****     *
 886:.\Generated_Source\PSoC5/uart_solinst.c ****     * Return:
 887:.\Generated_Source\PSoC5/uart_solinst.c ****     *  None.
 888:.\Generated_Source\PSoC5/uart_solinst.c ****     *
 889:.\Generated_Source\PSoC5/uart_solinst.c ****     *******************************************************************************/
 890:.\Generated_Source\PSoC5/uart_solinst.c ****     void uart_solinst_SetRxAddress2(uint8 address) 
 891:.\Generated_Source\PSoC5/uart_solinst.c ****     {
ARM GAS  C:\Users\karunmj\AppData\Local\Temp\ccOxugR9.s 			page 30


 759              		.loc 1 891 0
 760              		.cfi_startproc
 761              		@ args = 0, pretend = 0, frame = 8
 762              		@ frame_needed = 1, uses_anonymous_args = 0
 763              		@ link register save eliminated.
 764 0000 80B4     		push	{r7}
 765              	.LCFI41:
 766              		.cfi_def_cfa_offset 4
 767 0002 83B0     		sub	sp, sp, #12
 768              	.LCFI42:
 769              		.cfi_def_cfa_offset 16
 770 0004 00AF     		add	r7, sp, #0
 771              		.cfi_offset 7, -4
 772              	.LCFI43:
 773              		.cfi_def_cfa_register 7
 774 0006 0346     		mov	r3, r0
 775 0008 FB71     		strb	r3, [r7, #7]
 892:.\Generated_Source\PSoC5/uart_solinst.c ****         uart_solinst_RXADDRESS2_REG = address;
 776              		.loc 1 892 0
 777 000a 46F23D43 		movw	r3, #:lower16:1073767485
 778 000e C4F20003 		movt	r3, #:upper16:1073767485
 779 0012 FA79     		ldrb	r2, [r7, #7]
 780 0014 1A70     		strb	r2, [r3, #0]
 893:.\Generated_Source\PSoC5/uart_solinst.c ****     }
 781              		.loc 1 893 0
 782 0016 07F10C07 		add	r7, r7, #12
 783 001a BD46     		mov	sp, r7
 784 001c 80BC     		pop	{r7}
 785 001e 7047     		bx	lr
 786              		.cfi_endproc
 787              	.LFE15:
 788              		.size	uart_solinst_SetRxAddress2, .-uart_solinst_SetRxAddress2
 789              		.section	.text.uart_solinst_SetTxInterruptMode,"ax",%progbits
 790              		.align	2
 791              		.global	uart_solinst_SetTxInterruptMode
 792              		.thumb
 793              		.thumb_func
 794              		.type	uart_solinst_SetTxInterruptMode, %function
 795              	uart_solinst_SetTxInterruptMode:
 796              	.LFB16:
 894:.\Generated_Source\PSoC5/uart_solinst.c **** 
 895:.\Generated_Source\PSoC5/uart_solinst.c **** #endif  /* uart_solinst_RX_ENABLED || uart_solinst_HD_ENABLED*/
 896:.\Generated_Source\PSoC5/uart_solinst.c **** 
 897:.\Generated_Source\PSoC5/uart_solinst.c **** 
 898:.\Generated_Source\PSoC5/uart_solinst.c **** #if( (uart_solinst_TX_ENABLED) || (uart_solinst_HD_ENABLED) )
 899:.\Generated_Source\PSoC5/uart_solinst.c **** 
 900:.\Generated_Source\PSoC5/uart_solinst.c ****     #if(uart_solinst_TX_INTERRUPT_ENABLED)
 901:.\Generated_Source\PSoC5/uart_solinst.c **** 
 902:.\Generated_Source\PSoC5/uart_solinst.c ****         /*******************************************************************************
 903:.\Generated_Source\PSoC5/uart_solinst.c ****         * Function Name: uart_solinst_EnableTxInt
 904:.\Generated_Source\PSoC5/uart_solinst.c ****         ********************************************************************************
 905:.\Generated_Source\PSoC5/uart_solinst.c ****         *
 906:.\Generated_Source\PSoC5/uart_solinst.c ****         * Summary:
 907:.\Generated_Source\PSoC5/uart_solinst.c ****         *  Enable TX interrupt generation
 908:.\Generated_Source\PSoC5/uart_solinst.c ****         *
 909:.\Generated_Source\PSoC5/uart_solinst.c ****         * Parameters:
 910:.\Generated_Source\PSoC5/uart_solinst.c ****         *  None.
ARM GAS  C:\Users\karunmj\AppData\Local\Temp\ccOxugR9.s 			page 31


 911:.\Generated_Source\PSoC5/uart_solinst.c ****         *
 912:.\Generated_Source\PSoC5/uart_solinst.c ****         * Return:
 913:.\Generated_Source\PSoC5/uart_solinst.c ****         *  None.
 914:.\Generated_Source\PSoC5/uart_solinst.c ****         *
 915:.\Generated_Source\PSoC5/uart_solinst.c ****         * Theory:
 916:.\Generated_Source\PSoC5/uart_solinst.c ****         *  Enable the interrupt output -or- the interrupt component itself
 917:.\Generated_Source\PSoC5/uart_solinst.c ****         *
 918:.\Generated_Source\PSoC5/uart_solinst.c ****         *******************************************************************************/
 919:.\Generated_Source\PSoC5/uart_solinst.c ****         void uart_solinst_EnableTxInt(void) 
 920:.\Generated_Source\PSoC5/uart_solinst.c ****         {
 921:.\Generated_Source\PSoC5/uart_solinst.c ****             CyIntEnable(uart_solinst_TX_VECT_NUM);
 922:.\Generated_Source\PSoC5/uart_solinst.c ****         }
 923:.\Generated_Source\PSoC5/uart_solinst.c **** 
 924:.\Generated_Source\PSoC5/uart_solinst.c **** 
 925:.\Generated_Source\PSoC5/uart_solinst.c ****         /*******************************************************************************
 926:.\Generated_Source\PSoC5/uart_solinst.c ****         * Function Name: uart_solinst_DisableTxInt
 927:.\Generated_Source\PSoC5/uart_solinst.c ****         ********************************************************************************
 928:.\Generated_Source\PSoC5/uart_solinst.c ****         *
 929:.\Generated_Source\PSoC5/uart_solinst.c ****         * Summary:
 930:.\Generated_Source\PSoC5/uart_solinst.c ****         *  Disable TX interrupt generation
 931:.\Generated_Source\PSoC5/uart_solinst.c ****         *
 932:.\Generated_Source\PSoC5/uart_solinst.c ****         * Parameters:
 933:.\Generated_Source\PSoC5/uart_solinst.c ****         *  None.
 934:.\Generated_Source\PSoC5/uart_solinst.c ****         *
 935:.\Generated_Source\PSoC5/uart_solinst.c ****         * Return:
 936:.\Generated_Source\PSoC5/uart_solinst.c ****         *  None.
 937:.\Generated_Source\PSoC5/uart_solinst.c ****         *
 938:.\Generated_Source\PSoC5/uart_solinst.c ****         * Theory:
 939:.\Generated_Source\PSoC5/uart_solinst.c ****         *  Disable the interrupt output -or- the interrupt component itself
 940:.\Generated_Source\PSoC5/uart_solinst.c ****         *
 941:.\Generated_Source\PSoC5/uart_solinst.c ****         *******************************************************************************/
 942:.\Generated_Source\PSoC5/uart_solinst.c ****         void uart_solinst_DisableTxInt(void) 
 943:.\Generated_Source\PSoC5/uart_solinst.c ****         {
 944:.\Generated_Source\PSoC5/uart_solinst.c ****             CyIntDisable(uart_solinst_TX_VECT_NUM);
 945:.\Generated_Source\PSoC5/uart_solinst.c ****         }
 946:.\Generated_Source\PSoC5/uart_solinst.c **** 
 947:.\Generated_Source\PSoC5/uart_solinst.c ****     #endif /* uart_solinst_TX_INTERRUPT_ENABLED */
 948:.\Generated_Source\PSoC5/uart_solinst.c **** 
 949:.\Generated_Source\PSoC5/uart_solinst.c **** 
 950:.\Generated_Source\PSoC5/uart_solinst.c ****     /*******************************************************************************
 951:.\Generated_Source\PSoC5/uart_solinst.c ****     * Function Name: uart_solinst_SetTxInterruptMode
 952:.\Generated_Source\PSoC5/uart_solinst.c ****     ********************************************************************************
 953:.\Generated_Source\PSoC5/uart_solinst.c ****     *
 954:.\Generated_Source\PSoC5/uart_solinst.c ****     * Summary:
 955:.\Generated_Source\PSoC5/uart_solinst.c ****     *  Configure which status bits trigger an interrupt event
 956:.\Generated_Source\PSoC5/uart_solinst.c ****     *
 957:.\Generated_Source\PSoC5/uart_solinst.c ****     * Parameters:
 958:.\Generated_Source\PSoC5/uart_solinst.c ****     *  intSrc: An or'd combination of the desired status bit masks (defined in
 959:.\Generated_Source\PSoC5/uart_solinst.c ****     *          the header file)
 960:.\Generated_Source\PSoC5/uart_solinst.c ****     *
 961:.\Generated_Source\PSoC5/uart_solinst.c ****     * Return:
 962:.\Generated_Source\PSoC5/uart_solinst.c ****     *  None.
 963:.\Generated_Source\PSoC5/uart_solinst.c ****     *
 964:.\Generated_Source\PSoC5/uart_solinst.c ****     * Theory:
 965:.\Generated_Source\PSoC5/uart_solinst.c ****     *  Enables the output of specific status bits to the interrupt controller
 966:.\Generated_Source\PSoC5/uart_solinst.c ****     *
 967:.\Generated_Source\PSoC5/uart_solinst.c ****     *******************************************************************************/
ARM GAS  C:\Users\karunmj\AppData\Local\Temp\ccOxugR9.s 			page 32


 968:.\Generated_Source\PSoC5/uart_solinst.c ****     void uart_solinst_SetTxInterruptMode(uint8 intSrc) 
 969:.\Generated_Source\PSoC5/uart_solinst.c ****     {
 797              		.loc 1 969 0
 798              		.cfi_startproc
 799              		@ args = 0, pretend = 0, frame = 8
 800              		@ frame_needed = 1, uses_anonymous_args = 0
 801              		@ link register save eliminated.
 802 0000 80B4     		push	{r7}
 803              	.LCFI44:
 804              		.cfi_def_cfa_offset 4
 805 0002 83B0     		sub	sp, sp, #12
 806              	.LCFI45:
 807              		.cfi_def_cfa_offset 16
 808 0004 00AF     		add	r7, sp, #0
 809              		.cfi_offset 7, -4
 810              	.LCFI46:
 811              		.cfi_def_cfa_register 7
 812 0006 0346     		mov	r3, r0
 813 0008 FB71     		strb	r3, [r7, #7]
 970:.\Generated_Source\PSoC5/uart_solinst.c ****         uart_solinst_TXSTATUS_MASK_REG = intSrc;
 814              		.loc 1 970 0
 815 000a 46F28953 		movw	r3, #:lower16:1073767817
 816 000e C4F20003 		movt	r3, #:upper16:1073767817
 817 0012 FA79     		ldrb	r2, [r7, #7]
 818 0014 1A70     		strb	r2, [r3, #0]
 971:.\Generated_Source\PSoC5/uart_solinst.c ****     }
 819              		.loc 1 971 0
 820 0016 07F10C07 		add	r7, r7, #12
 821 001a BD46     		mov	sp, r7
 822 001c 80BC     		pop	{r7}
 823 001e 7047     		bx	lr
 824              		.cfi_endproc
 825              	.LFE16:
 826              		.size	uart_solinst_SetTxInterruptMode, .-uart_solinst_SetTxInterruptMode
 827              		.section	.text.uart_solinst_WriteTxData,"ax",%progbits
 828              		.align	2
 829              		.global	uart_solinst_WriteTxData
 830              		.thumb
 831              		.thumb_func
 832              		.type	uart_solinst_WriteTxData, %function
 833              	uart_solinst_WriteTxData:
 834              	.LFB17:
 972:.\Generated_Source\PSoC5/uart_solinst.c **** 
 973:.\Generated_Source\PSoC5/uart_solinst.c **** 
 974:.\Generated_Source\PSoC5/uart_solinst.c ****     /*******************************************************************************
 975:.\Generated_Source\PSoC5/uart_solinst.c ****     * Function Name: uart_solinst_WriteTxData
 976:.\Generated_Source\PSoC5/uart_solinst.c ****     ********************************************************************************
 977:.\Generated_Source\PSoC5/uart_solinst.c ****     *
 978:.\Generated_Source\PSoC5/uart_solinst.c ****     * Summary:
 979:.\Generated_Source\PSoC5/uart_solinst.c ****     *  Write a byte of data to the Transmit FIFO or TX buffer to be sent when the
 980:.\Generated_Source\PSoC5/uart_solinst.c ****     *  bus is available. WriteTxData sends a byte without checking for buffer room
 981:.\Generated_Source\PSoC5/uart_solinst.c ****     *  or status. It is up to the user to separately check status.
 982:.\Generated_Source\PSoC5/uart_solinst.c ****     *
 983:.\Generated_Source\PSoC5/uart_solinst.c ****     * Parameters:
 984:.\Generated_Source\PSoC5/uart_solinst.c ****     *  TXDataByte: byte of data to place in the transmit FIFO
 985:.\Generated_Source\PSoC5/uart_solinst.c ****     *
 986:.\Generated_Source\PSoC5/uart_solinst.c ****     * Return:
ARM GAS  C:\Users\karunmj\AppData\Local\Temp\ccOxugR9.s 			page 33


 987:.\Generated_Source\PSoC5/uart_solinst.c ****     * void
 988:.\Generated_Source\PSoC5/uart_solinst.c ****     *
 989:.\Generated_Source\PSoC5/uart_solinst.c ****     * Global Variables:
 990:.\Generated_Source\PSoC5/uart_solinst.c ****     *  uart_solinst_txBuffer - RAM buffer pointer for save data for transmission
 991:.\Generated_Source\PSoC5/uart_solinst.c ****     *  uart_solinst_txBufferWrite - cyclic index for write to txBuffer,
 992:.\Generated_Source\PSoC5/uart_solinst.c ****     *    incremented after each byte saved to buffer.
 993:.\Generated_Source\PSoC5/uart_solinst.c ****     *  uart_solinst_txBufferRead - cyclic index for read from txBuffer,
 994:.\Generated_Source\PSoC5/uart_solinst.c ****     *    checked to identify the condition to write to FIFO directly or to TX buffer
 995:.\Generated_Source\PSoC5/uart_solinst.c ****     *  uart_solinst_initVar - checked to identify that the component has been
 996:.\Generated_Source\PSoC5/uart_solinst.c ****     *    initialized.
 997:.\Generated_Source\PSoC5/uart_solinst.c ****     *
 998:.\Generated_Source\PSoC5/uart_solinst.c ****     * Reentrant:
 999:.\Generated_Source\PSoC5/uart_solinst.c ****     *  No.
1000:.\Generated_Source\PSoC5/uart_solinst.c ****     *
1001:.\Generated_Source\PSoC5/uart_solinst.c ****     *******************************************************************************/
1002:.\Generated_Source\PSoC5/uart_solinst.c ****     void uart_solinst_WriteTxData(uint8 txDataByte) 
1003:.\Generated_Source\PSoC5/uart_solinst.c ****     {
 835              		.loc 1 1003 0
 836              		.cfi_startproc
 837              		@ args = 0, pretend = 0, frame = 8
 838              		@ frame_needed = 1, uses_anonymous_args = 0
 839              		@ link register save eliminated.
 840 0000 80B4     		push	{r7}
 841              	.LCFI47:
 842              		.cfi_def_cfa_offset 4
 843 0002 83B0     		sub	sp, sp, #12
 844              	.LCFI48:
 845              		.cfi_def_cfa_offset 16
 846 0004 00AF     		add	r7, sp, #0
 847              		.cfi_offset 7, -4
 848              	.LCFI49:
 849              		.cfi_def_cfa_register 7
 850 0006 0346     		mov	r3, r0
 851 0008 FB71     		strb	r3, [r7, #7]
1004:.\Generated_Source\PSoC5/uart_solinst.c ****         /* If not Initialized then skip this function*/
1005:.\Generated_Source\PSoC5/uart_solinst.c ****         if(uart_solinst_initVar != 0u)
 852              		.loc 1 1005 0
 853 000a 40F20003 		movw	r3, #:lower16:uart_solinst_initVar
 854 000e C0F20003 		movt	r3, #:upper16:uart_solinst_initVar
 855 0012 1B78     		ldrb	r3, [r3, #0]	@ zero_extendqisi2
 856 0014 002B     		cmp	r3, #0
 857 0016 05D0     		beq	.L41
1006:.\Generated_Source\PSoC5/uart_solinst.c ****         {
1007:.\Generated_Source\PSoC5/uart_solinst.c ****             #if(uart_solinst_TXBUFFERSIZE > uart_solinst_FIFO_LENGTH)
1008:.\Generated_Source\PSoC5/uart_solinst.c **** 
1009:.\Generated_Source\PSoC5/uart_solinst.c ****                 /* Disable Tx interrupt. */
1010:.\Generated_Source\PSoC5/uart_solinst.c ****                 /* Protect variables that could change on interrupt. */
1011:.\Generated_Source\PSoC5/uart_solinst.c ****                 #if(uart_solinst_TX_INTERRUPT_ENABLED)
1012:.\Generated_Source\PSoC5/uart_solinst.c ****                     uart_solinst_DisableTxInt();
1013:.\Generated_Source\PSoC5/uart_solinst.c ****                 #endif /* End uart_solinst_TX_INTERRUPT_ENABLED */
1014:.\Generated_Source\PSoC5/uart_solinst.c **** 
1015:.\Generated_Source\PSoC5/uart_solinst.c ****                 if( (uart_solinst_txBufferRead == uart_solinst_txBufferWrite) &&
1016:.\Generated_Source\PSoC5/uart_solinst.c ****                     ((uart_solinst_TXSTATUS_REG & uart_solinst_TX_STS_FIFO_FULL) == 0u) )
1017:.\Generated_Source\PSoC5/uart_solinst.c ****                 {
1018:.\Generated_Source\PSoC5/uart_solinst.c ****                     /* Add directly to the FIFO. */
1019:.\Generated_Source\PSoC5/uart_solinst.c ****                     uart_solinst_TXDATA_REG = txDataByte;
1020:.\Generated_Source\PSoC5/uart_solinst.c ****                 }
ARM GAS  C:\Users\karunmj\AppData\Local\Temp\ccOxugR9.s 			page 34


1021:.\Generated_Source\PSoC5/uart_solinst.c ****                 else
1022:.\Generated_Source\PSoC5/uart_solinst.c ****                 {
1023:.\Generated_Source\PSoC5/uart_solinst.c ****                     if(uart_solinst_txBufferWrite >= uart_solinst_TXBUFFERSIZE)
1024:.\Generated_Source\PSoC5/uart_solinst.c ****                     {
1025:.\Generated_Source\PSoC5/uart_solinst.c ****                         uart_solinst_txBufferWrite = 0u;
1026:.\Generated_Source\PSoC5/uart_solinst.c ****                     }
1027:.\Generated_Source\PSoC5/uart_solinst.c **** 
1028:.\Generated_Source\PSoC5/uart_solinst.c ****                     uart_solinst_txBuffer[uart_solinst_txBufferWrite] = txDataByte;
1029:.\Generated_Source\PSoC5/uart_solinst.c **** 
1030:.\Generated_Source\PSoC5/uart_solinst.c ****                     /* Add to the software buffer. */
1031:.\Generated_Source\PSoC5/uart_solinst.c ****                     uart_solinst_txBufferWrite++;
1032:.\Generated_Source\PSoC5/uart_solinst.c **** 
1033:.\Generated_Source\PSoC5/uart_solinst.c ****                 }
1034:.\Generated_Source\PSoC5/uart_solinst.c **** 
1035:.\Generated_Source\PSoC5/uart_solinst.c ****                 /* Enable Tx interrupt. */
1036:.\Generated_Source\PSoC5/uart_solinst.c ****                 #if(uart_solinst_TX_INTERRUPT_ENABLED)
1037:.\Generated_Source\PSoC5/uart_solinst.c ****                     uart_solinst_EnableTxInt();
1038:.\Generated_Source\PSoC5/uart_solinst.c ****                 #endif /* End uart_solinst_TX_INTERRUPT_ENABLED */
1039:.\Generated_Source\PSoC5/uart_solinst.c **** 
1040:.\Generated_Source\PSoC5/uart_solinst.c ****             #else /* uart_solinst_TXBUFFERSIZE > uart_solinst_FIFO_LENGTH */
1041:.\Generated_Source\PSoC5/uart_solinst.c **** 
1042:.\Generated_Source\PSoC5/uart_solinst.c ****                 /* Add directly to the FIFO. */
1043:.\Generated_Source\PSoC5/uart_solinst.c ****                 uart_solinst_TXDATA_REG = txDataByte;
 858              		.loc 1 1043 0
 859 0018 46F24953 		movw	r3, #:lower16:1073767753
 860 001c C4F20003 		movt	r3, #:upper16:1073767753
 861 0020 FA79     		ldrb	r2, [r7, #7]
 862 0022 1A70     		strb	r2, [r3, #0]
 863              	.L41:
1044:.\Generated_Source\PSoC5/uart_solinst.c **** 
1045:.\Generated_Source\PSoC5/uart_solinst.c ****             #endif /* End uart_solinst_TXBUFFERSIZE > uart_solinst_FIFO_LENGTH */
1046:.\Generated_Source\PSoC5/uart_solinst.c ****         }
1047:.\Generated_Source\PSoC5/uart_solinst.c ****     }
 864              		.loc 1 1047 0
 865 0024 07F10C07 		add	r7, r7, #12
 866 0028 BD46     		mov	sp, r7
 867 002a 80BC     		pop	{r7}
 868 002c 7047     		bx	lr
 869              		.cfi_endproc
 870              	.LFE17:
 871              		.size	uart_solinst_WriteTxData, .-uart_solinst_WriteTxData
 872 002e 00BF     		.section	.text.uart_solinst_ReadTxStatus,"ax",%progbits
 873              		.align	2
 874              		.global	uart_solinst_ReadTxStatus
 875              		.thumb
 876              		.thumb_func
 877              		.type	uart_solinst_ReadTxStatus, %function
 878              	uart_solinst_ReadTxStatus:
 879              	.LFB18:
1048:.\Generated_Source\PSoC5/uart_solinst.c **** 
1049:.\Generated_Source\PSoC5/uart_solinst.c **** 
1050:.\Generated_Source\PSoC5/uart_solinst.c ****     /*******************************************************************************
1051:.\Generated_Source\PSoC5/uart_solinst.c ****     * Function Name: uart_solinst_ReadTxStatus
1052:.\Generated_Source\PSoC5/uart_solinst.c ****     ********************************************************************************
1053:.\Generated_Source\PSoC5/uart_solinst.c ****     *
1054:.\Generated_Source\PSoC5/uart_solinst.c ****     * Summary:
1055:.\Generated_Source\PSoC5/uart_solinst.c ****     *  Read the status register for the component
ARM GAS  C:\Users\karunmj\AppData\Local\Temp\ccOxugR9.s 			page 35


1056:.\Generated_Source\PSoC5/uart_solinst.c ****     *
1057:.\Generated_Source\PSoC5/uart_solinst.c ****     * Parameters:
1058:.\Generated_Source\PSoC5/uart_solinst.c ****     *  None.
1059:.\Generated_Source\PSoC5/uart_solinst.c ****     *
1060:.\Generated_Source\PSoC5/uart_solinst.c ****     * Return:
1061:.\Generated_Source\PSoC5/uart_solinst.c ****     *  Contents of the status register
1062:.\Generated_Source\PSoC5/uart_solinst.c ****     *
1063:.\Generated_Source\PSoC5/uart_solinst.c ****     * Theory:
1064:.\Generated_Source\PSoC5/uart_solinst.c ****     *  This function reads the status register which is clear on read. It is up to
1065:.\Generated_Source\PSoC5/uart_solinst.c ****     *  the user to handle all bits in this return value accordingly, even if the bit
1066:.\Generated_Source\PSoC5/uart_solinst.c ****     *  was not enabled as an interrupt source the event happened and must be handled
1067:.\Generated_Source\PSoC5/uart_solinst.c ****     *  accordingly.
1068:.\Generated_Source\PSoC5/uart_solinst.c ****     *
1069:.\Generated_Source\PSoC5/uart_solinst.c ****     *******************************************************************************/
1070:.\Generated_Source\PSoC5/uart_solinst.c ****     uint8 uart_solinst_ReadTxStatus(void) 
1071:.\Generated_Source\PSoC5/uart_solinst.c ****     {
 880              		.loc 1 1071 0
 881              		.cfi_startproc
 882              		@ args = 0, pretend = 0, frame = 0
 883              		@ frame_needed = 1, uses_anonymous_args = 0
 884              		@ link register save eliminated.
 885 0000 80B4     		push	{r7}
 886              	.LCFI50:
 887              		.cfi_def_cfa_offset 4
 888 0002 00AF     		add	r7, sp, #0
 889              		.cfi_offset 7, -4
 890              	.LCFI51:
 891              		.cfi_def_cfa_register 7
1072:.\Generated_Source\PSoC5/uart_solinst.c ****         return(uart_solinst_TXSTATUS_REG);
 892              		.loc 1 1072 0
 893 0004 46F26953 		movw	r3, #:lower16:1073767785
 894 0008 C4F20003 		movt	r3, #:upper16:1073767785
 895 000c 1B78     		ldrb	r3, [r3, #0]
 896 000e DBB2     		uxtb	r3, r3
1073:.\Generated_Source\PSoC5/uart_solinst.c ****     }
 897              		.loc 1 1073 0
 898 0010 1846     		mov	r0, r3
 899 0012 BD46     		mov	sp, r7
 900 0014 80BC     		pop	{r7}
 901 0016 7047     		bx	lr
 902              		.cfi_endproc
 903              	.LFE18:
 904              		.size	uart_solinst_ReadTxStatus, .-uart_solinst_ReadTxStatus
 905              		.section	.text.uart_solinst_PutChar,"ax",%progbits
 906              		.align	2
 907              		.global	uart_solinst_PutChar
 908              		.thumb
 909              		.thumb_func
 910              		.type	uart_solinst_PutChar, %function
 911              	uart_solinst_PutChar:
 912              	.LFB19:
1074:.\Generated_Source\PSoC5/uart_solinst.c **** 
1075:.\Generated_Source\PSoC5/uart_solinst.c **** 
1076:.\Generated_Source\PSoC5/uart_solinst.c ****     /*******************************************************************************
1077:.\Generated_Source\PSoC5/uart_solinst.c ****     * Function Name: uart_solinst_PutChar
1078:.\Generated_Source\PSoC5/uart_solinst.c ****     ********************************************************************************
1079:.\Generated_Source\PSoC5/uart_solinst.c ****     *
ARM GAS  C:\Users\karunmj\AppData\Local\Temp\ccOxugR9.s 			page 36


1080:.\Generated_Source\PSoC5/uart_solinst.c ****     * Summary:
1081:.\Generated_Source\PSoC5/uart_solinst.c ****     *  Wait to send byte until TX register or buffer has room.
1082:.\Generated_Source\PSoC5/uart_solinst.c ****     *
1083:.\Generated_Source\PSoC5/uart_solinst.c ****     * Parameters:
1084:.\Generated_Source\PSoC5/uart_solinst.c ****     *  txDataByte: The 8-bit data value to send across the UART.
1085:.\Generated_Source\PSoC5/uart_solinst.c ****     *
1086:.\Generated_Source\PSoC5/uart_solinst.c ****     * Return:
1087:.\Generated_Source\PSoC5/uart_solinst.c ****     *  None.
1088:.\Generated_Source\PSoC5/uart_solinst.c ****     *
1089:.\Generated_Source\PSoC5/uart_solinst.c ****     * Global Variables:
1090:.\Generated_Source\PSoC5/uart_solinst.c ****     *  uart_solinst_txBuffer - RAM buffer pointer for save data for transmission
1091:.\Generated_Source\PSoC5/uart_solinst.c ****     *  uart_solinst_txBufferWrite - cyclic index for write to txBuffer,
1092:.\Generated_Source\PSoC5/uart_solinst.c ****     *     checked to identify free space in txBuffer and incremented after each byte
1093:.\Generated_Source\PSoC5/uart_solinst.c ****     *     saved to buffer.
1094:.\Generated_Source\PSoC5/uart_solinst.c ****     *  uart_solinst_txBufferRead - cyclic index for read from txBuffer,
1095:.\Generated_Source\PSoC5/uart_solinst.c ****     *     checked to identify free space in txBuffer.
1096:.\Generated_Source\PSoC5/uart_solinst.c ****     *  uart_solinst_initVar - checked to identify that the component has been
1097:.\Generated_Source\PSoC5/uart_solinst.c ****     *     initialized.
1098:.\Generated_Source\PSoC5/uart_solinst.c ****     *
1099:.\Generated_Source\PSoC5/uart_solinst.c ****     * Reentrant:
1100:.\Generated_Source\PSoC5/uart_solinst.c ****     *  No.
1101:.\Generated_Source\PSoC5/uart_solinst.c ****     *
1102:.\Generated_Source\PSoC5/uart_solinst.c ****     * Theory:
1103:.\Generated_Source\PSoC5/uart_solinst.c ****     *  Allows the user to transmit any byte of data in a single transfer
1104:.\Generated_Source\PSoC5/uart_solinst.c ****     *
1105:.\Generated_Source\PSoC5/uart_solinst.c ****     *******************************************************************************/
1106:.\Generated_Source\PSoC5/uart_solinst.c ****     void uart_solinst_PutChar(uint8 txDataByte) 
1107:.\Generated_Source\PSoC5/uart_solinst.c ****     {
 913              		.loc 1 1107 0
 914              		.cfi_startproc
 915              		@ args = 0, pretend = 0, frame = 8
 916              		@ frame_needed = 1, uses_anonymous_args = 0
 917              		@ link register save eliminated.
 918 0000 80B4     		push	{r7}
 919              	.LCFI52:
 920              		.cfi_def_cfa_offset 4
 921 0002 83B0     		sub	sp, sp, #12
 922              	.LCFI53:
 923              		.cfi_def_cfa_offset 16
 924 0004 00AF     		add	r7, sp, #0
 925              		.cfi_offset 7, -4
 926              	.LCFI54:
 927              		.cfi_def_cfa_register 7
 928 0006 0346     		mov	r3, r0
 929 0008 FB71     		strb	r3, [r7, #7]
 930              	.L45:
1108:.\Generated_Source\PSoC5/uart_solinst.c ****             #if(uart_solinst_TXBUFFERSIZE > uart_solinst_FIFO_LENGTH)
1109:.\Generated_Source\PSoC5/uart_solinst.c ****                 /* The temporary output pointer is used since it takes two instructions
1110:.\Generated_Source\PSoC5/uart_solinst.c ****                 *  to increment with a wrap, and we can't risk doing that with the real
1111:.\Generated_Source\PSoC5/uart_solinst.c ****                 *  pointer and getting an interrupt in between instructions.
1112:.\Generated_Source\PSoC5/uart_solinst.c ****                 */
1113:.\Generated_Source\PSoC5/uart_solinst.c ****                 uint8 loc_txBufferWrite;
1114:.\Generated_Source\PSoC5/uart_solinst.c ****                 uint8 loc_txBufferRead;
1115:.\Generated_Source\PSoC5/uart_solinst.c **** 
1116:.\Generated_Source\PSoC5/uart_solinst.c ****                 do{
1117:.\Generated_Source\PSoC5/uart_solinst.c ****                     /* Block if software buffer is full, so we don't overwrite. */
1118:.\Generated_Source\PSoC5/uart_solinst.c ****                     #if ((uart_solinst_TXBUFFERSIZE > uart_solinst_MAX_BYTE_VALUE) && (CY_PSOC3))
ARM GAS  C:\Users\karunmj\AppData\Local\Temp\ccOxugR9.s 			page 37


1119:.\Generated_Source\PSoC5/uart_solinst.c ****                         /* Disable TX interrupt to protect variables that could change on interrupt
1120:.\Generated_Source\PSoC5/uart_solinst.c ****                         CyIntDisable(uart_solinst_TX_VECT_NUM);
1121:.\Generated_Source\PSoC5/uart_solinst.c ****                     #endif /* End TXBUFFERSIZE > 255 */
1122:.\Generated_Source\PSoC5/uart_solinst.c ****                     loc_txBufferWrite = uart_solinst_txBufferWrite;
1123:.\Generated_Source\PSoC5/uart_solinst.c ****                     loc_txBufferRead = uart_solinst_txBufferRead;
1124:.\Generated_Source\PSoC5/uart_solinst.c ****                     #if ((uart_solinst_TXBUFFERSIZE > uart_solinst_MAX_BYTE_VALUE) && (CY_PSOC3))
1125:.\Generated_Source\PSoC5/uart_solinst.c ****                         /* Enable interrupt to continue transmission */
1126:.\Generated_Source\PSoC5/uart_solinst.c ****                         CyIntEnable(uart_solinst_TX_VECT_NUM);
1127:.\Generated_Source\PSoC5/uart_solinst.c ****                     #endif /* End TXBUFFERSIZE > 255 */
1128:.\Generated_Source\PSoC5/uart_solinst.c ****                 }while( (loc_txBufferWrite < loc_txBufferRead) ? (loc_txBufferWrite == (loc_txBuffe
1129:.\Generated_Source\PSoC5/uart_solinst.c ****                                         ((loc_txBufferWrite - loc_txBufferRead) ==
1130:.\Generated_Source\PSoC5/uart_solinst.c ****                                         (uint8)(uart_solinst_TXBUFFERSIZE - 1u)) );
1131:.\Generated_Source\PSoC5/uart_solinst.c **** 
1132:.\Generated_Source\PSoC5/uart_solinst.c ****                 if( (loc_txBufferRead == loc_txBufferWrite) &&
1133:.\Generated_Source\PSoC5/uart_solinst.c ****                     ((uart_solinst_TXSTATUS_REG & uart_solinst_TX_STS_FIFO_FULL) == 0u) )
1134:.\Generated_Source\PSoC5/uart_solinst.c ****                 {
1135:.\Generated_Source\PSoC5/uart_solinst.c ****                     /* Add directly to the FIFO. */
1136:.\Generated_Source\PSoC5/uart_solinst.c ****                     uart_solinst_TXDATA_REG = txDataByte;
1137:.\Generated_Source\PSoC5/uart_solinst.c ****                 }
1138:.\Generated_Source\PSoC5/uart_solinst.c ****                 else
1139:.\Generated_Source\PSoC5/uart_solinst.c ****                 {
1140:.\Generated_Source\PSoC5/uart_solinst.c ****                     if(loc_txBufferWrite >= uart_solinst_TXBUFFERSIZE)
1141:.\Generated_Source\PSoC5/uart_solinst.c ****                     {
1142:.\Generated_Source\PSoC5/uart_solinst.c ****                         loc_txBufferWrite = 0u;
1143:.\Generated_Source\PSoC5/uart_solinst.c ****                     }
1144:.\Generated_Source\PSoC5/uart_solinst.c ****                     /* Add to the software buffer. */
1145:.\Generated_Source\PSoC5/uart_solinst.c ****                     uart_solinst_txBuffer[loc_txBufferWrite] = txDataByte;
1146:.\Generated_Source\PSoC5/uart_solinst.c ****                     loc_txBufferWrite++;
1147:.\Generated_Source\PSoC5/uart_solinst.c **** 
1148:.\Generated_Source\PSoC5/uart_solinst.c ****                     /* Finally, update the real output pointer */
1149:.\Generated_Source\PSoC5/uart_solinst.c ****                     #if ((uart_solinst_TXBUFFERSIZE > uart_solinst_MAX_BYTE_VALUE) && (CY_PSOC3))
1150:.\Generated_Source\PSoC5/uart_solinst.c ****                         CyIntDisable(uart_solinst_TX_VECT_NUM);
1151:.\Generated_Source\PSoC5/uart_solinst.c ****                     #endif /* End TXBUFFERSIZE > 255 */
1152:.\Generated_Source\PSoC5/uart_solinst.c ****                     uart_solinst_txBufferWrite = loc_txBufferWrite;
1153:.\Generated_Source\PSoC5/uart_solinst.c ****                     #if ((uart_solinst_TXBUFFERSIZE > uart_solinst_MAX_BYTE_VALUE) && (CY_PSOC3))
1154:.\Generated_Source\PSoC5/uart_solinst.c ****                         CyIntEnable(uart_solinst_TX_VECT_NUM);
1155:.\Generated_Source\PSoC5/uart_solinst.c ****                     #endif /* End TXBUFFERSIZE > 255 */
1156:.\Generated_Source\PSoC5/uart_solinst.c ****                 }
1157:.\Generated_Source\PSoC5/uart_solinst.c **** 
1158:.\Generated_Source\PSoC5/uart_solinst.c ****             #else /* uart_solinst_TXBUFFERSIZE > uart_solinst_FIFO_LENGTH */
1159:.\Generated_Source\PSoC5/uart_solinst.c **** 
1160:.\Generated_Source\PSoC5/uart_solinst.c ****                 while((uart_solinst_TXSTATUS_REG & uart_solinst_TX_STS_FIFO_FULL) != 0u)
 931              		.loc 1 1160 0
 932 000a 46F26953 		movw	r3, #:lower16:1073767785
 933 000e C4F20003 		movt	r3, #:upper16:1073767785
 934 0012 1B78     		ldrb	r3, [r3, #0]
 935 0014 DBB2     		uxtb	r3, r3
 936 0016 03F00403 		and	r3, r3, #4
 937 001a 002B     		cmp	r3, #0
 938 001c F5D1     		bne	.L45
1161:.\Generated_Source\PSoC5/uart_solinst.c ****                 {
1162:.\Generated_Source\PSoC5/uart_solinst.c ****                     ; /* Wait for room in the FIFO. */
1163:.\Generated_Source\PSoC5/uart_solinst.c ****                 }
1164:.\Generated_Source\PSoC5/uart_solinst.c **** 
1165:.\Generated_Source\PSoC5/uart_solinst.c ****                 /* Add directly to the FIFO. */
1166:.\Generated_Source\PSoC5/uart_solinst.c ****                 uart_solinst_TXDATA_REG = txDataByte;
 939              		.loc 1 1166 0
ARM GAS  C:\Users\karunmj\AppData\Local\Temp\ccOxugR9.s 			page 38


 940 001e 46F24953 		movw	r3, #:lower16:1073767753
 941 0022 C4F20003 		movt	r3, #:upper16:1073767753
 942 0026 FA79     		ldrb	r2, [r7, #7]
 943 0028 1A70     		strb	r2, [r3, #0]
1167:.\Generated_Source\PSoC5/uart_solinst.c **** 
1168:.\Generated_Source\PSoC5/uart_solinst.c ****             #endif /* End uart_solinst_TXBUFFERSIZE > uart_solinst_FIFO_LENGTH */
1169:.\Generated_Source\PSoC5/uart_solinst.c ****     }
 944              		.loc 1 1169 0
 945 002a 07F10C07 		add	r7, r7, #12
 946 002e BD46     		mov	sp, r7
 947 0030 80BC     		pop	{r7}
 948 0032 7047     		bx	lr
 949              		.cfi_endproc
 950              	.LFE19:
 951              		.size	uart_solinst_PutChar, .-uart_solinst_PutChar
 952              		.section	.text.uart_solinst_PutString,"ax",%progbits
 953              		.align	2
 954              		.global	uart_solinst_PutString
 955              		.thumb
 956              		.thumb_func
 957              		.type	uart_solinst_PutString, %function
 958              	uart_solinst_PutString:
 959              	.LFB20:
1170:.\Generated_Source\PSoC5/uart_solinst.c **** 
1171:.\Generated_Source\PSoC5/uart_solinst.c **** 
1172:.\Generated_Source\PSoC5/uart_solinst.c ****     /*******************************************************************************
1173:.\Generated_Source\PSoC5/uart_solinst.c ****     * Function Name: uart_solinst_PutString
1174:.\Generated_Source\PSoC5/uart_solinst.c ****     ********************************************************************************
1175:.\Generated_Source\PSoC5/uart_solinst.c ****     *
1176:.\Generated_Source\PSoC5/uart_solinst.c ****     * Summary:
1177:.\Generated_Source\PSoC5/uart_solinst.c ****     *  Write a Sequence of bytes on the Transmit line. Data comes from RAM or ROM.
1178:.\Generated_Source\PSoC5/uart_solinst.c ****     *
1179:.\Generated_Source\PSoC5/uart_solinst.c ****     * Parameters:
1180:.\Generated_Source\PSoC5/uart_solinst.c ****     *  string: char pointer to character string of Data to Send.
1181:.\Generated_Source\PSoC5/uart_solinst.c ****     *
1182:.\Generated_Source\PSoC5/uart_solinst.c ****     * Return:
1183:.\Generated_Source\PSoC5/uart_solinst.c ****     *  None.
1184:.\Generated_Source\PSoC5/uart_solinst.c ****     *
1185:.\Generated_Source\PSoC5/uart_solinst.c ****     * Global Variables:
1186:.\Generated_Source\PSoC5/uart_solinst.c ****     *  uart_solinst_initVar - checked to identify that the component has been
1187:.\Generated_Source\PSoC5/uart_solinst.c ****     *     initialized.
1188:.\Generated_Source\PSoC5/uart_solinst.c ****     *
1189:.\Generated_Source\PSoC5/uart_solinst.c ****     * Reentrant:
1190:.\Generated_Source\PSoC5/uart_solinst.c ****     *  No.
1191:.\Generated_Source\PSoC5/uart_solinst.c ****     *
1192:.\Generated_Source\PSoC5/uart_solinst.c ****     * Theory:
1193:.\Generated_Source\PSoC5/uart_solinst.c ****     *  This function will block if there is not enough memory to place the whole
1194:.\Generated_Source\PSoC5/uart_solinst.c ****     *  string, it will block until the entire string has been written to the
1195:.\Generated_Source\PSoC5/uart_solinst.c ****     *  transmit buffer.
1196:.\Generated_Source\PSoC5/uart_solinst.c ****     *
1197:.\Generated_Source\PSoC5/uart_solinst.c ****     *******************************************************************************/
1198:.\Generated_Source\PSoC5/uart_solinst.c ****     void uart_solinst_PutString(const char8 string[]) 
1199:.\Generated_Source\PSoC5/uart_solinst.c ****     {
 960              		.loc 1 1199 0
 961              		.cfi_startproc
 962              		@ args = 0, pretend = 0, frame = 16
 963              		@ frame_needed = 1, uses_anonymous_args = 0
ARM GAS  C:\Users\karunmj\AppData\Local\Temp\ccOxugR9.s 			page 39


 964 0000 80B5     		push	{r7, lr}
 965              	.LCFI55:
 966              		.cfi_def_cfa_offset 8
 967 0002 84B0     		sub	sp, sp, #16
 968              	.LCFI56:
 969              		.cfi_def_cfa_offset 24
 970 0004 00AF     		add	r7, sp, #0
 971              		.cfi_offset 14, -4
 972              		.cfi_offset 7, -8
 973              	.LCFI57:
 974              		.cfi_def_cfa_register 7
 975 0006 7860     		str	r0, [r7, #4]
1200:.\Generated_Source\PSoC5/uart_solinst.c ****         uint16 buf_index = 0u;
 976              		.loc 1 1200 0
 977 0008 4FF00003 		mov	r3, #0
 978 000c FB81     		strh	r3, [r7, #14]	@ movhi
1201:.\Generated_Source\PSoC5/uart_solinst.c ****         /* If not Initialized then skip this function*/
1202:.\Generated_Source\PSoC5/uart_solinst.c ****         if(uart_solinst_initVar != 0u)
 979              		.loc 1 1202 0
 980 000e 40F20003 		movw	r3, #:lower16:uart_solinst_initVar
 981 0012 C0F20003 		movt	r3, #:upper16:uart_solinst_initVar
 982 0016 1B78     		ldrb	r3, [r3, #0]	@ zero_extendqisi2
 983 0018 002B     		cmp	r3, #0
 984 001a 11D0     		beq	.L51
1203:.\Generated_Source\PSoC5/uart_solinst.c ****         {
1204:.\Generated_Source\PSoC5/uart_solinst.c ****             /* This is a blocking function, it will not exit until all data is sent*/
1205:.\Generated_Source\PSoC5/uart_solinst.c ****             while(string[buf_index] != (char8)0)
 985              		.loc 1 1205 0
 986 001c 0AE0     		b	.L49
 987              	.L50:
1206:.\Generated_Source\PSoC5/uart_solinst.c ****             {
1207:.\Generated_Source\PSoC5/uart_solinst.c ****                 uart_solinst_PutChar((uint8)string[buf_index]);
 988              		.loc 1 1207 0
 989 001e FA89     		ldrh	r2, [r7, #14]
 990 0020 7B68     		ldr	r3, [r7, #4]
 991 0022 1344     		add	r3, r2, r3
 992 0024 1B78     		ldrb	r3, [r3, #0]	@ zero_extendqisi2
 993 0026 1846     		mov	r0, r3
 994 0028 FFF7FEFF 		bl	uart_solinst_PutChar
1208:.\Generated_Source\PSoC5/uart_solinst.c ****                 buf_index++;
 995              		.loc 1 1208 0
 996 002c FB89     		ldrh	r3, [r7, #14]	@ movhi
 997 002e 03F10103 		add	r3, r3, #1
 998 0032 FB81     		strh	r3, [r7, #14]	@ movhi
 999              	.L49:
 1000              		.loc 1 1205 0
 1001 0034 FA89     		ldrh	r2, [r7, #14]
 1002 0036 7B68     		ldr	r3, [r7, #4]
 1003 0038 1344     		add	r3, r2, r3
 1004 003a 1B78     		ldrb	r3, [r3, #0]	@ zero_extendqisi2
 1005 003c 002B     		cmp	r3, #0
 1006 003e EED1     		bne	.L50
 1007              	.L51:
1209:.\Generated_Source\PSoC5/uart_solinst.c ****             }
1210:.\Generated_Source\PSoC5/uart_solinst.c ****         }
1211:.\Generated_Source\PSoC5/uart_solinst.c ****     }
 1008              		.loc 1 1211 0
ARM GAS  C:\Users\karunmj\AppData\Local\Temp\ccOxugR9.s 			page 40


 1009 0040 07F11007 		add	r7, r7, #16
 1010 0044 BD46     		mov	sp, r7
 1011 0046 80BD     		pop	{r7, pc}
 1012              		.cfi_endproc
 1013              	.LFE20:
 1014              		.size	uart_solinst_PutString, .-uart_solinst_PutString
 1015              		.section	.text.uart_solinst_PutArray,"ax",%progbits
 1016              		.align	2
 1017              		.global	uart_solinst_PutArray
 1018              		.thumb
 1019              		.thumb_func
 1020              		.type	uart_solinst_PutArray, %function
 1021              	uart_solinst_PutArray:
 1022              	.LFB21:
1212:.\Generated_Source\PSoC5/uart_solinst.c **** 
1213:.\Generated_Source\PSoC5/uart_solinst.c **** 
1214:.\Generated_Source\PSoC5/uart_solinst.c ****     /*******************************************************************************
1215:.\Generated_Source\PSoC5/uart_solinst.c ****     * Function Name: uart_solinst_PutArray
1216:.\Generated_Source\PSoC5/uart_solinst.c ****     ********************************************************************************
1217:.\Generated_Source\PSoC5/uart_solinst.c ****     *
1218:.\Generated_Source\PSoC5/uart_solinst.c ****     * Summary:
1219:.\Generated_Source\PSoC5/uart_solinst.c ****     *  Write a Sequence of bytes on the Transmit line. Data comes from RAM or ROM.
1220:.\Generated_Source\PSoC5/uart_solinst.c ****     *
1221:.\Generated_Source\PSoC5/uart_solinst.c ****     * Parameters:
1222:.\Generated_Source\PSoC5/uart_solinst.c ****     *  string: Address of the memory array residing in RAM or ROM.
1223:.\Generated_Source\PSoC5/uart_solinst.c ****     *  byteCount: Number of Bytes to be transmitted.
1224:.\Generated_Source\PSoC5/uart_solinst.c ****     *
1225:.\Generated_Source\PSoC5/uart_solinst.c ****     * Return:
1226:.\Generated_Source\PSoC5/uart_solinst.c ****     *  None.
1227:.\Generated_Source\PSoC5/uart_solinst.c ****     *
1228:.\Generated_Source\PSoC5/uart_solinst.c ****     * Global Variables:
1229:.\Generated_Source\PSoC5/uart_solinst.c ****     *  uart_solinst_initVar - checked to identify that the component has been
1230:.\Generated_Source\PSoC5/uart_solinst.c ****     *     initialized.
1231:.\Generated_Source\PSoC5/uart_solinst.c ****     *
1232:.\Generated_Source\PSoC5/uart_solinst.c ****     * Reentrant:
1233:.\Generated_Source\PSoC5/uart_solinst.c ****     *  No.
1234:.\Generated_Source\PSoC5/uart_solinst.c ****     *
1235:.\Generated_Source\PSoC5/uart_solinst.c ****     *******************************************************************************/
1236:.\Generated_Source\PSoC5/uart_solinst.c ****     void uart_solinst_PutArray(const uint8 string[], uint8 byteCount)
1237:.\Generated_Source\PSoC5/uart_solinst.c ****                                                                     
1238:.\Generated_Source\PSoC5/uart_solinst.c ****     {
 1023              		.loc 1 1238 0
 1024              		.cfi_startproc
 1025              		@ args = 0, pretend = 0, frame = 16
 1026              		@ frame_needed = 1, uses_anonymous_args = 0
 1027 0000 80B5     		push	{r7, lr}
 1028              	.LCFI58:
 1029              		.cfi_def_cfa_offset 8
 1030 0002 84B0     		sub	sp, sp, #16
 1031              	.LCFI59:
 1032              		.cfi_def_cfa_offset 24
 1033 0004 00AF     		add	r7, sp, #0
 1034              		.cfi_offset 14, -4
 1035              		.cfi_offset 7, -8
 1036              	.LCFI60:
 1037              		.cfi_def_cfa_register 7
 1038 0006 7860     		str	r0, [r7, #4]
ARM GAS  C:\Users\karunmj\AppData\Local\Temp\ccOxugR9.s 			page 41


 1039 0008 0B46     		mov	r3, r1
 1040 000a FB70     		strb	r3, [r7, #3]
1239:.\Generated_Source\PSoC5/uart_solinst.c ****         uint8 buf_index = 0u;
 1041              		.loc 1 1239 0
 1042 000c 4FF00003 		mov	r3, #0
 1043 0010 FB73     		strb	r3, [r7, #15]
1240:.\Generated_Source\PSoC5/uart_solinst.c ****         /* If not Initialized then skip this function*/
1241:.\Generated_Source\PSoC5/uart_solinst.c ****         if(uart_solinst_initVar != 0u)
 1044              		.loc 1 1241 0
 1045 0012 40F20003 		movw	r3, #:lower16:uart_solinst_initVar
 1046 0016 C0F20003 		movt	r3, #:upper16:uart_solinst_initVar
 1047 001a 1B78     		ldrb	r3, [r3, #0]	@ zero_extendqisi2
 1048 001c 002B     		cmp	r3, #0
 1049 001e 0ED0     		beq	.L55
 1050              	.L54:
1242:.\Generated_Source\PSoC5/uart_solinst.c ****         {
1243:.\Generated_Source\PSoC5/uart_solinst.c ****             do
1244:.\Generated_Source\PSoC5/uart_solinst.c ****             {
1245:.\Generated_Source\PSoC5/uart_solinst.c ****                 uart_solinst_PutChar(string[buf_index]);
 1051              		.loc 1 1245 0
 1052 0020 FA7B     		ldrb	r2, [r7, #15]	@ zero_extendqisi2
 1053 0022 7B68     		ldr	r3, [r7, #4]
 1054 0024 1344     		add	r3, r2, r3
 1055 0026 1B78     		ldrb	r3, [r3, #0]	@ zero_extendqisi2
 1056 0028 1846     		mov	r0, r3
 1057 002a FFF7FEFF 		bl	uart_solinst_PutChar
1246:.\Generated_Source\PSoC5/uart_solinst.c ****                 buf_index++;
 1058              		.loc 1 1246 0
 1059 002e FB7B     		ldrb	r3, [r7, #15]
 1060 0030 03F10103 		add	r3, r3, #1
 1061 0034 FB73     		strb	r3, [r7, #15]
1247:.\Generated_Source\PSoC5/uart_solinst.c ****             }while(buf_index < byteCount);
 1062              		.loc 1 1247 0
 1063 0036 FA7B     		ldrb	r2, [r7, #15]	@ zero_extendqisi2
 1064 0038 FB78     		ldrb	r3, [r7, #3]	@ zero_extendqisi2
 1065 003a 9A42     		cmp	r2, r3
 1066 003c F0D3     		bcc	.L54
 1067              	.L55:
1248:.\Generated_Source\PSoC5/uart_solinst.c ****         }
1249:.\Generated_Source\PSoC5/uart_solinst.c ****     }
 1068              		.loc 1 1249 0
 1069 003e 07F11007 		add	r7, r7, #16
 1070 0042 BD46     		mov	sp, r7
 1071 0044 80BD     		pop	{r7, pc}
 1072              		.cfi_endproc
 1073              	.LFE21:
 1074              		.size	uart_solinst_PutArray, .-uart_solinst_PutArray
 1075 0046 00BF     		.section	.text.uart_solinst_PutCRLF,"ax",%progbits
 1076              		.align	2
 1077              		.global	uart_solinst_PutCRLF
 1078              		.thumb
 1079              		.thumb_func
 1080              		.type	uart_solinst_PutCRLF, %function
 1081              	uart_solinst_PutCRLF:
 1082              	.LFB22:
1250:.\Generated_Source\PSoC5/uart_solinst.c **** 
1251:.\Generated_Source\PSoC5/uart_solinst.c **** 
ARM GAS  C:\Users\karunmj\AppData\Local\Temp\ccOxugR9.s 			page 42


1252:.\Generated_Source\PSoC5/uart_solinst.c ****     /*******************************************************************************
1253:.\Generated_Source\PSoC5/uart_solinst.c ****     * Function Name: uart_solinst_PutCRLF
1254:.\Generated_Source\PSoC5/uart_solinst.c ****     ********************************************************************************
1255:.\Generated_Source\PSoC5/uart_solinst.c ****     *
1256:.\Generated_Source\PSoC5/uart_solinst.c ****     * Summary:
1257:.\Generated_Source\PSoC5/uart_solinst.c ****     *  Write a character and then carriage return and line feed.
1258:.\Generated_Source\PSoC5/uart_solinst.c ****     *
1259:.\Generated_Source\PSoC5/uart_solinst.c ****     * Parameters:
1260:.\Generated_Source\PSoC5/uart_solinst.c ****     *  txDataByte: uint8 Character to send.
1261:.\Generated_Source\PSoC5/uart_solinst.c ****     *
1262:.\Generated_Source\PSoC5/uart_solinst.c ****     * Return:
1263:.\Generated_Source\PSoC5/uart_solinst.c ****     *  None.
1264:.\Generated_Source\PSoC5/uart_solinst.c ****     *
1265:.\Generated_Source\PSoC5/uart_solinst.c ****     * Global Variables:
1266:.\Generated_Source\PSoC5/uart_solinst.c ****     *  uart_solinst_initVar - checked to identify that the component has been
1267:.\Generated_Source\PSoC5/uart_solinst.c ****     *     initialized.
1268:.\Generated_Source\PSoC5/uart_solinst.c ****     *
1269:.\Generated_Source\PSoC5/uart_solinst.c ****     * Reentrant:
1270:.\Generated_Source\PSoC5/uart_solinst.c ****     *  No.
1271:.\Generated_Source\PSoC5/uart_solinst.c ****     *
1272:.\Generated_Source\PSoC5/uart_solinst.c ****     *******************************************************************************/
1273:.\Generated_Source\PSoC5/uart_solinst.c ****     void uart_solinst_PutCRLF(uint8 txDataByte) 
1274:.\Generated_Source\PSoC5/uart_solinst.c ****     {
 1083              		.loc 1 1274 0
 1084              		.cfi_startproc
 1085              		@ args = 0, pretend = 0, frame = 8
 1086              		@ frame_needed = 1, uses_anonymous_args = 0
 1087 0000 80B5     		push	{r7, lr}
 1088              	.LCFI61:
 1089              		.cfi_def_cfa_offset 8
 1090 0002 82B0     		sub	sp, sp, #8
 1091              	.LCFI62:
 1092              		.cfi_def_cfa_offset 16
 1093 0004 00AF     		add	r7, sp, #0
 1094              		.cfi_offset 14, -4
 1095              		.cfi_offset 7, -8
 1096              	.LCFI63:
 1097              		.cfi_def_cfa_register 7
 1098 0006 0346     		mov	r3, r0
 1099 0008 FB71     		strb	r3, [r7, #7]
1275:.\Generated_Source\PSoC5/uart_solinst.c ****         /* If not Initialized then skip this function*/
1276:.\Generated_Source\PSoC5/uart_solinst.c ****         if(uart_solinst_initVar != 0u)
 1100              		.loc 1 1276 0
 1101 000a 40F20003 		movw	r3, #:lower16:uart_solinst_initVar
 1102 000e C0F20003 		movt	r3, #:upper16:uart_solinst_initVar
 1103 0012 1B78     		ldrb	r3, [r3, #0]	@ zero_extendqisi2
 1104 0014 002B     		cmp	r3, #0
 1105 0016 0BD0     		beq	.L58
1277:.\Generated_Source\PSoC5/uart_solinst.c ****         {
1278:.\Generated_Source\PSoC5/uart_solinst.c ****             uart_solinst_PutChar(txDataByte);
 1106              		.loc 1 1278 0
 1107 0018 FB79     		ldrb	r3, [r7, #7]	@ zero_extendqisi2
 1108 001a 1846     		mov	r0, r3
 1109 001c FFF7FEFF 		bl	uart_solinst_PutChar
1279:.\Generated_Source\PSoC5/uart_solinst.c ****             uart_solinst_PutChar(0x0Du);
 1110              		.loc 1 1279 0
 1111 0020 4FF00D00 		mov	r0, #13
ARM GAS  C:\Users\karunmj\AppData\Local\Temp\ccOxugR9.s 			page 43


 1112 0024 FFF7FEFF 		bl	uart_solinst_PutChar
1280:.\Generated_Source\PSoC5/uart_solinst.c ****             uart_solinst_PutChar(0x0Au);
 1113              		.loc 1 1280 0
 1114 0028 4FF00A00 		mov	r0, #10
 1115 002c FFF7FEFF 		bl	uart_solinst_PutChar
 1116              	.L58:
1281:.\Generated_Source\PSoC5/uart_solinst.c ****         }
1282:.\Generated_Source\PSoC5/uart_solinst.c ****     }
 1117              		.loc 1 1282 0
 1118 0030 07F10807 		add	r7, r7, #8
 1119 0034 BD46     		mov	sp, r7
 1120 0036 80BD     		pop	{r7, pc}
 1121              		.cfi_endproc
 1122              	.LFE22:
 1123              		.size	uart_solinst_PutCRLF, .-uart_solinst_PutCRLF
 1124              		.section	.text.uart_solinst_GetTxBufferSize,"ax",%progbits
 1125              		.align	2
 1126              		.global	uart_solinst_GetTxBufferSize
 1127              		.thumb
 1128              		.thumb_func
 1129              		.type	uart_solinst_GetTxBufferSize, %function
 1130              	uart_solinst_GetTxBufferSize:
 1131              	.LFB23:
1283:.\Generated_Source\PSoC5/uart_solinst.c **** 
1284:.\Generated_Source\PSoC5/uart_solinst.c **** 
1285:.\Generated_Source\PSoC5/uart_solinst.c ****     /*******************************************************************************
1286:.\Generated_Source\PSoC5/uart_solinst.c ****     * Function Name: uart_solinst_GetTxBufferSize
1287:.\Generated_Source\PSoC5/uart_solinst.c ****     ********************************************************************************
1288:.\Generated_Source\PSoC5/uart_solinst.c ****     *
1289:.\Generated_Source\PSoC5/uart_solinst.c ****     * Summary:
1290:.\Generated_Source\PSoC5/uart_solinst.c ****     *  Determine the amount of space left in the TX buffer and return the count in
1291:.\Generated_Source\PSoC5/uart_solinst.c ****     *  bytes
1292:.\Generated_Source\PSoC5/uart_solinst.c ****     *
1293:.\Generated_Source\PSoC5/uart_solinst.c ****     * Parameters:
1294:.\Generated_Source\PSoC5/uart_solinst.c ****     *  None.
1295:.\Generated_Source\PSoC5/uart_solinst.c ****     *
1296:.\Generated_Source\PSoC5/uart_solinst.c ****     * Return:
1297:.\Generated_Source\PSoC5/uart_solinst.c ****     *  Integer count of the number of bytes left in the TX buffer
1298:.\Generated_Source\PSoC5/uart_solinst.c ****     *
1299:.\Generated_Source\PSoC5/uart_solinst.c ****     * Global Variables:
1300:.\Generated_Source\PSoC5/uart_solinst.c ****     *  uart_solinst_txBufferWrite - used to calculate left space.
1301:.\Generated_Source\PSoC5/uart_solinst.c ****     *  uart_solinst_txBufferRead - used to calculate left space.
1302:.\Generated_Source\PSoC5/uart_solinst.c ****     *
1303:.\Generated_Source\PSoC5/uart_solinst.c ****     * Reentrant:
1304:.\Generated_Source\PSoC5/uart_solinst.c ****     *  No.
1305:.\Generated_Source\PSoC5/uart_solinst.c ****     *
1306:.\Generated_Source\PSoC5/uart_solinst.c ****     * Theory:
1307:.\Generated_Source\PSoC5/uart_solinst.c ****     *  Allows the user to find out how full the TX Buffer is.
1308:.\Generated_Source\PSoC5/uart_solinst.c ****     *
1309:.\Generated_Source\PSoC5/uart_solinst.c ****     *******************************************************************************/
1310:.\Generated_Source\PSoC5/uart_solinst.c ****     uint8 uart_solinst_GetTxBufferSize(void)
1311:.\Generated_Source\PSoC5/uart_solinst.c ****                                                             
1312:.\Generated_Source\PSoC5/uart_solinst.c ****     {
 1132              		.loc 1 1312 0
 1133              		.cfi_startproc
 1134              		@ args = 0, pretend = 0, frame = 8
 1135              		@ frame_needed = 1, uses_anonymous_args = 0
ARM GAS  C:\Users\karunmj\AppData\Local\Temp\ccOxugR9.s 			page 44


 1136              		@ link register save eliminated.
 1137 0000 80B4     		push	{r7}
 1138              	.LCFI64:
 1139              		.cfi_def_cfa_offset 4
 1140 0002 83B0     		sub	sp, sp, #12
 1141              	.LCFI65:
 1142              		.cfi_def_cfa_offset 16
 1143 0004 00AF     		add	r7, sp, #0
 1144              		.cfi_offset 7, -4
 1145              	.LCFI66:
 1146              		.cfi_def_cfa_register 7
1313:.\Generated_Source\PSoC5/uart_solinst.c ****         uint8 size;
1314:.\Generated_Source\PSoC5/uart_solinst.c **** 
1315:.\Generated_Source\PSoC5/uart_solinst.c ****         #if(uart_solinst_TXBUFFERSIZE > uart_solinst_FIFO_LENGTH)
1316:.\Generated_Source\PSoC5/uart_solinst.c **** 
1317:.\Generated_Source\PSoC5/uart_solinst.c ****             /* Disable Tx interrupt. */
1318:.\Generated_Source\PSoC5/uart_solinst.c ****             /* Protect variables that could change on interrupt. */
1319:.\Generated_Source\PSoC5/uart_solinst.c ****             #if(uart_solinst_TX_INTERRUPT_ENABLED)
1320:.\Generated_Source\PSoC5/uart_solinst.c ****                 uart_solinst_DisableTxInt();
1321:.\Generated_Source\PSoC5/uart_solinst.c ****             #endif /* End uart_solinst_TX_INTERRUPT_ENABLED */
1322:.\Generated_Source\PSoC5/uart_solinst.c **** 
1323:.\Generated_Source\PSoC5/uart_solinst.c ****             if(uart_solinst_txBufferRead == uart_solinst_txBufferWrite)
1324:.\Generated_Source\PSoC5/uart_solinst.c ****             {
1325:.\Generated_Source\PSoC5/uart_solinst.c ****                 size = 0u;
1326:.\Generated_Source\PSoC5/uart_solinst.c ****             }
1327:.\Generated_Source\PSoC5/uart_solinst.c ****             else if(uart_solinst_txBufferRead < uart_solinst_txBufferWrite)
1328:.\Generated_Source\PSoC5/uart_solinst.c ****             {
1329:.\Generated_Source\PSoC5/uart_solinst.c ****                 size = (uart_solinst_txBufferWrite - uart_solinst_txBufferRead);
1330:.\Generated_Source\PSoC5/uart_solinst.c ****             }
1331:.\Generated_Source\PSoC5/uart_solinst.c ****             else
1332:.\Generated_Source\PSoC5/uart_solinst.c ****             {
1333:.\Generated_Source\PSoC5/uart_solinst.c ****                 size = (uart_solinst_TXBUFFERSIZE - uart_solinst_txBufferRead) + uart_solinst_txBuf
1334:.\Generated_Source\PSoC5/uart_solinst.c ****             }
1335:.\Generated_Source\PSoC5/uart_solinst.c **** 
1336:.\Generated_Source\PSoC5/uart_solinst.c ****             /* Enable Tx interrupt. */
1337:.\Generated_Source\PSoC5/uart_solinst.c ****             #if(uart_solinst_TX_INTERRUPT_ENABLED)
1338:.\Generated_Source\PSoC5/uart_solinst.c ****                 uart_solinst_EnableTxInt();
1339:.\Generated_Source\PSoC5/uart_solinst.c ****             #endif /* End uart_solinst_TX_INTERRUPT_ENABLED */
1340:.\Generated_Source\PSoC5/uart_solinst.c **** 
1341:.\Generated_Source\PSoC5/uart_solinst.c ****         #else /* uart_solinst_TXBUFFERSIZE > uart_solinst_FIFO_LENGTH */
1342:.\Generated_Source\PSoC5/uart_solinst.c **** 
1343:.\Generated_Source\PSoC5/uart_solinst.c ****             size = uart_solinst_TXSTATUS_REG;
 1147              		.loc 1 1343 0
 1148 0006 46F26953 		movw	r3, #:lower16:1073767785
 1149 000a C4F20003 		movt	r3, #:upper16:1073767785
 1150 000e 1B78     		ldrb	r3, [r3, #0]
 1151 0010 FB71     		strb	r3, [r7, #7]
1344:.\Generated_Source\PSoC5/uart_solinst.c **** 
1345:.\Generated_Source\PSoC5/uart_solinst.c ****             /* Is the fifo is full. */
1346:.\Generated_Source\PSoC5/uart_solinst.c ****             if((size & uart_solinst_TX_STS_FIFO_FULL) != 0u)
 1152              		.loc 1 1346 0
 1153 0012 FB79     		ldrb	r3, [r7, #7]	@ zero_extendqisi2
 1154 0014 03F00403 		and	r3, r3, #4
 1155 0018 002B     		cmp	r3, #0
 1156 001a 03D0     		beq	.L60
1347:.\Generated_Source\PSoC5/uart_solinst.c ****             {
1348:.\Generated_Source\PSoC5/uart_solinst.c ****                 size = uart_solinst_FIFO_LENGTH;
ARM GAS  C:\Users\karunmj\AppData\Local\Temp\ccOxugR9.s 			page 45


 1157              		.loc 1 1348 0
 1158 001c 4FF00403 		mov	r3, #4
 1159 0020 FB71     		strb	r3, [r7, #7]
 1160 0022 0BE0     		b	.L61
 1161              	.L60:
1349:.\Generated_Source\PSoC5/uart_solinst.c ****             }
1350:.\Generated_Source\PSoC5/uart_solinst.c ****             else if((size & uart_solinst_TX_STS_FIFO_EMPTY) != 0u)
 1162              		.loc 1 1350 0
 1163 0024 FB79     		ldrb	r3, [r7, #7]	@ zero_extendqisi2
 1164 0026 03F00203 		and	r3, r3, #2
 1165 002a 002B     		cmp	r3, #0
 1166 002c 03D0     		beq	.L62
1351:.\Generated_Source\PSoC5/uart_solinst.c ****             {
1352:.\Generated_Source\PSoC5/uart_solinst.c ****                 size = 0u;
 1167              		.loc 1 1352 0
 1168 002e 4FF00003 		mov	r3, #0
 1169 0032 FB71     		strb	r3, [r7, #7]
 1170 0034 02E0     		b	.L61
 1171              	.L62:
1353:.\Generated_Source\PSoC5/uart_solinst.c ****             }
1354:.\Generated_Source\PSoC5/uart_solinst.c ****             else
1355:.\Generated_Source\PSoC5/uart_solinst.c ****             {
1356:.\Generated_Source\PSoC5/uart_solinst.c ****                 /* We only know there is data in the fifo. */
1357:.\Generated_Source\PSoC5/uart_solinst.c ****                 size = 1u;
 1172              		.loc 1 1357 0
 1173 0036 4FF00103 		mov	r3, #1
 1174 003a FB71     		strb	r3, [r7, #7]
 1175              	.L61:
1358:.\Generated_Source\PSoC5/uart_solinst.c ****             }
1359:.\Generated_Source\PSoC5/uart_solinst.c **** 
1360:.\Generated_Source\PSoC5/uart_solinst.c ****         #endif /* End uart_solinst_TXBUFFERSIZE > uart_solinst_FIFO_LENGTH */
1361:.\Generated_Source\PSoC5/uart_solinst.c **** 
1362:.\Generated_Source\PSoC5/uart_solinst.c ****         return(size);
 1176              		.loc 1 1362 0
 1177 003c FB79     		ldrb	r3, [r7, #7]	@ zero_extendqisi2
1363:.\Generated_Source\PSoC5/uart_solinst.c ****     }
 1178              		.loc 1 1363 0
 1179 003e 1846     		mov	r0, r3
 1180 0040 07F10C07 		add	r7, r7, #12
 1181 0044 BD46     		mov	sp, r7
 1182 0046 80BC     		pop	{r7}
 1183 0048 7047     		bx	lr
 1184              		.cfi_endproc
 1185              	.LFE23:
 1186              		.size	uart_solinst_GetTxBufferSize, .-uart_solinst_GetTxBufferSize
 1187 004a 00BF     		.section	.text.uart_solinst_ClearTxBuffer,"ax",%progbits
 1188              		.align	2
 1189              		.global	uart_solinst_ClearTxBuffer
 1190              		.thumb
 1191              		.thumb_func
 1192              		.type	uart_solinst_ClearTxBuffer, %function
 1193              	uart_solinst_ClearTxBuffer:
 1194              	.LFB24:
1364:.\Generated_Source\PSoC5/uart_solinst.c **** 
1365:.\Generated_Source\PSoC5/uart_solinst.c **** 
1366:.\Generated_Source\PSoC5/uart_solinst.c ****     /*******************************************************************************
1367:.\Generated_Source\PSoC5/uart_solinst.c ****     * Function Name: uart_solinst_ClearTxBuffer
ARM GAS  C:\Users\karunmj\AppData\Local\Temp\ccOxugR9.s 			page 46


1368:.\Generated_Source\PSoC5/uart_solinst.c ****     ********************************************************************************
1369:.\Generated_Source\PSoC5/uart_solinst.c ****     *
1370:.\Generated_Source\PSoC5/uart_solinst.c ****     * Summary:
1371:.\Generated_Source\PSoC5/uart_solinst.c ****     *  Clears the TX RAM buffer by setting the read and write pointers both to zero.
1372:.\Generated_Source\PSoC5/uart_solinst.c ****     *  Clears the hardware TX FIFO.  Any data present in the FIFO will not be sent.
1373:.\Generated_Source\PSoC5/uart_solinst.c ****     *
1374:.\Generated_Source\PSoC5/uart_solinst.c ****     * Parameters:
1375:.\Generated_Source\PSoC5/uart_solinst.c ****     *  None.
1376:.\Generated_Source\PSoC5/uart_solinst.c ****     *
1377:.\Generated_Source\PSoC5/uart_solinst.c ****     * Return:
1378:.\Generated_Source\PSoC5/uart_solinst.c ****     *  None.
1379:.\Generated_Source\PSoC5/uart_solinst.c ****     *
1380:.\Generated_Source\PSoC5/uart_solinst.c ****     * Global Variables:
1381:.\Generated_Source\PSoC5/uart_solinst.c ****     *  uart_solinst_txBufferWrite - cleared to zero.
1382:.\Generated_Source\PSoC5/uart_solinst.c ****     *  uart_solinst_txBufferRead - cleared to zero.
1383:.\Generated_Source\PSoC5/uart_solinst.c ****     *
1384:.\Generated_Source\PSoC5/uart_solinst.c ****     * Reentrant:
1385:.\Generated_Source\PSoC5/uart_solinst.c ****     *  No.
1386:.\Generated_Source\PSoC5/uart_solinst.c ****     *
1387:.\Generated_Source\PSoC5/uart_solinst.c ****     * Theory:
1388:.\Generated_Source\PSoC5/uart_solinst.c ****     *  Setting the pointers to zero makes the system believe there is no data to
1389:.\Generated_Source\PSoC5/uart_solinst.c ****     *  read and writing will resume at address 0 overwriting any data that may have
1390:.\Generated_Source\PSoC5/uart_solinst.c ****     *  remained in the RAM.
1391:.\Generated_Source\PSoC5/uart_solinst.c ****     *
1392:.\Generated_Source\PSoC5/uart_solinst.c ****     * Side Effects:
1393:.\Generated_Source\PSoC5/uart_solinst.c ****     *  Any received data not read from the RAM buffer will be lost when overwritten.
1394:.\Generated_Source\PSoC5/uart_solinst.c ****     *
1395:.\Generated_Source\PSoC5/uart_solinst.c ****     *******************************************************************************/
1396:.\Generated_Source\PSoC5/uart_solinst.c ****     void uart_solinst_ClearTxBuffer(void) 
1397:.\Generated_Source\PSoC5/uart_solinst.c ****     {
 1195              		.loc 1 1397 0
 1196              		.cfi_startproc
 1197              		@ args = 0, pretend = 0, frame = 8
 1198              		@ frame_needed = 1, uses_anonymous_args = 0
 1199 0000 80B5     		push	{r7, lr}
 1200              	.LCFI67:
 1201              		.cfi_def_cfa_offset 8
 1202 0002 82B0     		sub	sp, sp, #8
 1203              	.LCFI68:
 1204              		.cfi_def_cfa_offset 16
 1205 0004 00AF     		add	r7, sp, #0
 1206              		.cfi_offset 14, -4
 1207              		.cfi_offset 7, -8
 1208              	.LCFI69:
 1209              		.cfi_def_cfa_register 7
1398:.\Generated_Source\PSoC5/uart_solinst.c ****         uint8 enableInterrupts;
1399:.\Generated_Source\PSoC5/uart_solinst.c **** 
1400:.\Generated_Source\PSoC5/uart_solinst.c ****         /* Enter critical section */
1401:.\Generated_Source\PSoC5/uart_solinst.c ****         enableInterrupts = CyEnterCriticalSection();
 1210              		.loc 1 1401 0
 1211 0006 FFF7FEFF 		bl	CyEnterCriticalSection
 1212 000a 0346     		mov	r3, r0
 1213 000c FB71     		strb	r3, [r7, #7]
1402:.\Generated_Source\PSoC5/uart_solinst.c ****         /* clear the HW FIFO */
1403:.\Generated_Source\PSoC5/uart_solinst.c ****         uart_solinst_TXDATA_AUX_CTL_REG |=  uart_solinst_TX_FIFO_CLR;
 1214              		.loc 1 1403 0
 1215 000e 46F29953 		movw	r3, #:lower16:1073767833
ARM GAS  C:\Users\karunmj\AppData\Local\Temp\ccOxugR9.s 			page 47


 1216 0012 C4F20003 		movt	r3, #:upper16:1073767833
 1217 0016 46F29952 		movw	r2, #:lower16:1073767833
 1218 001a C4F20002 		movt	r2, #:upper16:1073767833
 1219 001e 1278     		ldrb	r2, [r2, #0]
 1220 0020 D2B2     		uxtb	r2, r2
 1221 0022 42F00102 		orr	r2, r2, #1
 1222 0026 D2B2     		uxtb	r2, r2
 1223 0028 1A70     		strb	r2, [r3, #0]
1404:.\Generated_Source\PSoC5/uart_solinst.c ****         uart_solinst_TXDATA_AUX_CTL_REG &= (uint8)~uart_solinst_TX_FIFO_CLR;
 1224              		.loc 1 1404 0
 1225 002a 46F29953 		movw	r3, #:lower16:1073767833
 1226 002e C4F20003 		movt	r3, #:upper16:1073767833
 1227 0032 46F29952 		movw	r2, #:lower16:1073767833
 1228 0036 C4F20002 		movt	r2, #:upper16:1073767833
 1229 003a 1278     		ldrb	r2, [r2, #0]
 1230 003c D2B2     		uxtb	r2, r2
 1231 003e 02F0FE02 		and	r2, r2, #254
 1232 0042 1A70     		strb	r2, [r3, #0]
1405:.\Generated_Source\PSoC5/uart_solinst.c ****         /* Exit critical section */
1406:.\Generated_Source\PSoC5/uart_solinst.c ****         CyExitCriticalSection(enableInterrupts);
 1233              		.loc 1 1406 0
 1234 0044 FB79     		ldrb	r3, [r7, #7]	@ zero_extendqisi2
 1235 0046 1846     		mov	r0, r3
 1236 0048 FFF7FEFF 		bl	CyExitCriticalSection
1407:.\Generated_Source\PSoC5/uart_solinst.c **** 
1408:.\Generated_Source\PSoC5/uart_solinst.c ****         #if(uart_solinst_TXBUFFERSIZE > uart_solinst_FIFO_LENGTH)
1409:.\Generated_Source\PSoC5/uart_solinst.c **** 
1410:.\Generated_Source\PSoC5/uart_solinst.c ****             /* Disable Tx interrupt. */
1411:.\Generated_Source\PSoC5/uart_solinst.c ****             /* Protect variables that could change on interrupt. */
1412:.\Generated_Source\PSoC5/uart_solinst.c ****             #if(uart_solinst_TX_INTERRUPT_ENABLED)
1413:.\Generated_Source\PSoC5/uart_solinst.c ****                 uart_solinst_DisableTxInt();
1414:.\Generated_Source\PSoC5/uart_solinst.c ****             #endif /* End uart_solinst_TX_INTERRUPT_ENABLED */
1415:.\Generated_Source\PSoC5/uart_solinst.c **** 
1416:.\Generated_Source\PSoC5/uart_solinst.c ****             uart_solinst_txBufferRead = 0u;
1417:.\Generated_Source\PSoC5/uart_solinst.c ****             uart_solinst_txBufferWrite = 0u;
1418:.\Generated_Source\PSoC5/uart_solinst.c **** 
1419:.\Generated_Source\PSoC5/uart_solinst.c ****             /* Enable Tx interrupt. */
1420:.\Generated_Source\PSoC5/uart_solinst.c ****             #if(uart_solinst_TX_INTERRUPT_ENABLED)
1421:.\Generated_Source\PSoC5/uart_solinst.c ****                 uart_solinst_EnableTxInt();
1422:.\Generated_Source\PSoC5/uart_solinst.c ****             #endif /* End uart_solinst_TX_INTERRUPT_ENABLED */
1423:.\Generated_Source\PSoC5/uart_solinst.c **** 
1424:.\Generated_Source\PSoC5/uart_solinst.c ****         #endif /* End uart_solinst_TXBUFFERSIZE > uart_solinst_FIFO_LENGTH */
1425:.\Generated_Source\PSoC5/uart_solinst.c ****     }
 1237              		.loc 1 1425 0
 1238 004c 07F10807 		add	r7, r7, #8
 1239 0050 BD46     		mov	sp, r7
 1240 0052 80BD     		pop	{r7, pc}
 1241              		.cfi_endproc
 1242              	.LFE24:
 1243              		.size	uart_solinst_ClearTxBuffer, .-uart_solinst_ClearTxBuffer
 1244              		.section	.text.uart_solinst_SendBreak,"ax",%progbits
 1245              		.align	2
 1246              		.global	uart_solinst_SendBreak
 1247              		.thumb
 1248              		.thumb_func
 1249              		.type	uart_solinst_SendBreak, %function
 1250              	uart_solinst_SendBreak:
ARM GAS  C:\Users\karunmj\AppData\Local\Temp\ccOxugR9.s 			page 48


 1251              	.LFB25:
1426:.\Generated_Source\PSoC5/uart_solinst.c **** 
1427:.\Generated_Source\PSoC5/uart_solinst.c **** 
1428:.\Generated_Source\PSoC5/uart_solinst.c ****     /*******************************************************************************
1429:.\Generated_Source\PSoC5/uart_solinst.c ****     * Function Name: uart_solinst_SendBreak
1430:.\Generated_Source\PSoC5/uart_solinst.c ****     ********************************************************************************
1431:.\Generated_Source\PSoC5/uart_solinst.c ****     *
1432:.\Generated_Source\PSoC5/uart_solinst.c ****     * Summary:
1433:.\Generated_Source\PSoC5/uart_solinst.c ****     *  Write a Break command to the UART
1434:.\Generated_Source\PSoC5/uart_solinst.c ****     *
1435:.\Generated_Source\PSoC5/uart_solinst.c ****     * Parameters:
1436:.\Generated_Source\PSoC5/uart_solinst.c ****     *  uint8 retMode:  Wait mode,
1437:.\Generated_Source\PSoC5/uart_solinst.c ****     *   0 - Initialize registers for Break, sends the Break signal and return
1438:.\Generated_Source\PSoC5/uart_solinst.c ****     *       imediately.
1439:.\Generated_Source\PSoC5/uart_solinst.c ****     *   1 - Wait until Break sending is complete, reinitialize registers to normal
1440:.\Generated_Source\PSoC5/uart_solinst.c ****     *       transmission mode then return.
1441:.\Generated_Source\PSoC5/uart_solinst.c ****     *   2 - Reinitialize registers to normal transmission mode then return.
1442:.\Generated_Source\PSoC5/uart_solinst.c ****     *   3 - both steps: 0 and 1
1443:.\Generated_Source\PSoC5/uart_solinst.c ****     *       init registers for Break, send Break signal
1444:.\Generated_Source\PSoC5/uart_solinst.c ****     *       wait until Break sending is complete, reinit registers to normal
1445:.\Generated_Source\PSoC5/uart_solinst.c ****     *       transmission mode then return.
1446:.\Generated_Source\PSoC5/uart_solinst.c ****     *
1447:.\Generated_Source\PSoC5/uart_solinst.c ****     * Return:
1448:.\Generated_Source\PSoC5/uart_solinst.c ****     *  None.
1449:.\Generated_Source\PSoC5/uart_solinst.c ****     *
1450:.\Generated_Source\PSoC5/uart_solinst.c ****     * Global Variables:
1451:.\Generated_Source\PSoC5/uart_solinst.c ****     *  uart_solinst_initVar - checked to identify that the component has been
1452:.\Generated_Source\PSoC5/uart_solinst.c ****     *     initialized.
1453:.\Generated_Source\PSoC5/uart_solinst.c ****     *  tx_period - static variable, used for keeping TX period configuration.
1454:.\Generated_Source\PSoC5/uart_solinst.c ****     *
1455:.\Generated_Source\PSoC5/uart_solinst.c ****     * Reentrant:
1456:.\Generated_Source\PSoC5/uart_solinst.c ****     *  No.
1457:.\Generated_Source\PSoC5/uart_solinst.c ****     *
1458:.\Generated_Source\PSoC5/uart_solinst.c ****     * Theory:
1459:.\Generated_Source\PSoC5/uart_solinst.c ****     *  SendBreak function initializes registers to send 13-bit break signal. It is
1460:.\Generated_Source\PSoC5/uart_solinst.c ****     *  important to return the registers configuration to normal for continue 8-bit
1461:.\Generated_Source\PSoC5/uart_solinst.c ****     *  operation.
1462:.\Generated_Source\PSoC5/uart_solinst.c ****     *  Trere are 3 variants for this API usage:
1463:.\Generated_Source\PSoC5/uart_solinst.c ****     *  1) SendBreak(3) - function will send the Break signal and take care on the
1464:.\Generated_Source\PSoC5/uart_solinst.c ****     *     configuration returning. Funcition will block CPU untill transmition
1465:.\Generated_Source\PSoC5/uart_solinst.c ****     *     complete.
1466:.\Generated_Source\PSoC5/uart_solinst.c ****     *  2) User may want to use bloking time if UART configured to the low speed
1467:.\Generated_Source\PSoC5/uart_solinst.c ****     *     operation
1468:.\Generated_Source\PSoC5/uart_solinst.c ****     *     Emample for this case:
1469:.\Generated_Source\PSoC5/uart_solinst.c ****     *     SendBreak(0);     - init Break signal transmition
1470:.\Generated_Source\PSoC5/uart_solinst.c ****     *         Add your code here to use CPU time
1471:.\Generated_Source\PSoC5/uart_solinst.c ****     *     SendBreak(1);     - complete Break operation
1472:.\Generated_Source\PSoC5/uart_solinst.c ****     *  3) Same to 2) but user may want to init and use the interrupt for complete
1473:.\Generated_Source\PSoC5/uart_solinst.c ****     *     break operation.
1474:.\Generated_Source\PSoC5/uart_solinst.c ****     *     Example for this case:
1475:.\Generated_Source\PSoC5/uart_solinst.c ****     *     Init TX interrupt whith "TX - On TX Complete" parameter
1476:.\Generated_Source\PSoC5/uart_solinst.c ****     *     SendBreak(0);     - init Break signal transmition
1477:.\Generated_Source\PSoC5/uart_solinst.c ****     *         Add your code here to use CPU time
1478:.\Generated_Source\PSoC5/uart_solinst.c ****     *     When interrupt appear with UART_TX_STS_COMPLETE status:
1479:.\Generated_Source\PSoC5/uart_solinst.c ****     *     SendBreak(2);     - complete Break operation
1480:.\Generated_Source\PSoC5/uart_solinst.c ****     *
1481:.\Generated_Source\PSoC5/uart_solinst.c ****     * Side Effects:
ARM GAS  C:\Users\karunmj\AppData\Local\Temp\ccOxugR9.s 			page 49


1482:.\Generated_Source\PSoC5/uart_solinst.c ****     *   Uses static variable to keep registers configuration.
1483:.\Generated_Source\PSoC5/uart_solinst.c ****     *
1484:.\Generated_Source\PSoC5/uart_solinst.c ****     *******************************************************************************/
1485:.\Generated_Source\PSoC5/uart_solinst.c ****     void uart_solinst_SendBreak(uint8 retMode) 
1486:.\Generated_Source\PSoC5/uart_solinst.c ****     {
 1252              		.loc 1 1486 0
 1253              		.cfi_startproc
 1254              		@ args = 0, pretend = 0, frame = 16
 1255              		@ frame_needed = 1, uses_anonymous_args = 0
 1256              		@ link register save eliminated.
 1257 0000 80B4     		push	{r7}
 1258              	.LCFI70:
 1259              		.cfi_def_cfa_offset 4
 1260 0002 85B0     		sub	sp, sp, #20
 1261              	.LCFI71:
 1262              		.cfi_def_cfa_offset 24
 1263 0004 00AF     		add	r7, sp, #0
 1264              		.cfi_offset 7, -4
 1265              	.LCFI72:
 1266              		.cfi_def_cfa_register 7
 1267 0006 0346     		mov	r3, r0
 1268 0008 FB71     		strb	r3, [r7, #7]
1487:.\Generated_Source\PSoC5/uart_solinst.c **** 
1488:.\Generated_Source\PSoC5/uart_solinst.c ****         /* If not Initialized then skip this function*/
1489:.\Generated_Source\PSoC5/uart_solinst.c ****         if(uart_solinst_initVar != 0u)
 1269              		.loc 1 1489 0
 1270 000a 40F20003 		movw	r3, #:lower16:uart_solinst_initVar
 1271 000e C0F20003 		movt	r3, #:upper16:uart_solinst_initVar
 1272 0012 1B78     		ldrb	r3, [r3, #0]	@ zero_extendqisi2
 1273 0014 002B     		cmp	r3, #0
 1274 0016 54D0     		beq	.L76
 1275              	.LBB2:
1490:.\Generated_Source\PSoC5/uart_solinst.c ****         {
1491:.\Generated_Source\PSoC5/uart_solinst.c ****             /*Set the Counter to 13-bits and transmit a 00 byte*/
1492:.\Generated_Source\PSoC5/uart_solinst.c ****             /*When that is done then reset the counter value back*/
1493:.\Generated_Source\PSoC5/uart_solinst.c ****             uint8 tmpStat;
1494:.\Generated_Source\PSoC5/uart_solinst.c **** 
1495:.\Generated_Source\PSoC5/uart_solinst.c ****             #if(uart_solinst_HD_ENABLED) /* Half Duplex mode*/
1496:.\Generated_Source\PSoC5/uart_solinst.c **** 
1497:.\Generated_Source\PSoC5/uart_solinst.c ****                 if( (retMode == uart_solinst_SEND_BREAK) ||
1498:.\Generated_Source\PSoC5/uart_solinst.c ****                     (retMode == uart_solinst_SEND_WAIT_REINIT ) )
1499:.\Generated_Source\PSoC5/uart_solinst.c ****                 {
1500:.\Generated_Source\PSoC5/uart_solinst.c ****                     /* CTRL_HD_SEND_BREAK - sends break bits in HD mode*/
1501:.\Generated_Source\PSoC5/uart_solinst.c ****                     uart_solinst_WriteControlRegister(uart_solinst_ReadControlRegister() |
1502:.\Generated_Source\PSoC5/uart_solinst.c ****                                                           uart_solinst_CTRL_HD_SEND_BREAK);
1503:.\Generated_Source\PSoC5/uart_solinst.c ****                     /* Send zeros*/
1504:.\Generated_Source\PSoC5/uart_solinst.c ****                     uart_solinst_TXDATA_REG = 0u;
1505:.\Generated_Source\PSoC5/uart_solinst.c **** 
1506:.\Generated_Source\PSoC5/uart_solinst.c ****                     do /*wait until transmit starts*/
1507:.\Generated_Source\PSoC5/uart_solinst.c ****                     {
1508:.\Generated_Source\PSoC5/uart_solinst.c ****                         tmpStat = uart_solinst_TXSTATUS_REG;
1509:.\Generated_Source\PSoC5/uart_solinst.c ****                     }while((tmpStat & uart_solinst_TX_STS_FIFO_EMPTY) != 0u);
1510:.\Generated_Source\PSoC5/uart_solinst.c ****                 }
1511:.\Generated_Source\PSoC5/uart_solinst.c **** 
1512:.\Generated_Source\PSoC5/uart_solinst.c ****                 if( (retMode == uart_solinst_WAIT_FOR_COMPLETE_REINIT) ||
1513:.\Generated_Source\PSoC5/uart_solinst.c ****                     (retMode == uart_solinst_SEND_WAIT_REINIT) )
1514:.\Generated_Source\PSoC5/uart_solinst.c ****                 {
ARM GAS  C:\Users\karunmj\AppData\Local\Temp\ccOxugR9.s 			page 50


1515:.\Generated_Source\PSoC5/uart_solinst.c ****                     do /*wait until transmit complete*/
1516:.\Generated_Source\PSoC5/uart_solinst.c ****                     {
1517:.\Generated_Source\PSoC5/uart_solinst.c ****                         tmpStat = uart_solinst_TXSTATUS_REG;
1518:.\Generated_Source\PSoC5/uart_solinst.c ****                     }while(((uint8)~tmpStat & uart_solinst_TX_STS_COMPLETE) != 0u);
1519:.\Generated_Source\PSoC5/uart_solinst.c ****                 }
1520:.\Generated_Source\PSoC5/uart_solinst.c **** 
1521:.\Generated_Source\PSoC5/uart_solinst.c ****                 if( (retMode == uart_solinst_WAIT_FOR_COMPLETE_REINIT) ||
1522:.\Generated_Source\PSoC5/uart_solinst.c ****                     (retMode == uart_solinst_REINIT) ||
1523:.\Generated_Source\PSoC5/uart_solinst.c ****                     (retMode == uart_solinst_SEND_WAIT_REINIT) )
1524:.\Generated_Source\PSoC5/uart_solinst.c ****                 {
1525:.\Generated_Source\PSoC5/uart_solinst.c ****                     uart_solinst_WriteControlRegister(uart_solinst_ReadControlRegister() &
1526:.\Generated_Source\PSoC5/uart_solinst.c ****                                                   (uint8)~uart_solinst_CTRL_HD_SEND_BREAK);
1527:.\Generated_Source\PSoC5/uart_solinst.c ****                 }
1528:.\Generated_Source\PSoC5/uart_solinst.c **** 
1529:.\Generated_Source\PSoC5/uart_solinst.c ****             #else /* uart_solinst_HD_ENABLED Full Duplex mode */
1530:.\Generated_Source\PSoC5/uart_solinst.c **** 
1531:.\Generated_Source\PSoC5/uart_solinst.c ****                 static uint8 tx_period;
1532:.\Generated_Source\PSoC5/uart_solinst.c **** 
1533:.\Generated_Source\PSoC5/uart_solinst.c ****                 if( (retMode == uart_solinst_SEND_BREAK) ||
 1276              		.loc 1 1533 0
 1277 0018 FB79     		ldrb	r3, [r7, #7]	@ zero_extendqisi2
 1278 001a 002B     		cmp	r3, #0
 1279 001c 02D0     		beq	.L68
 1280 001e FB79     		ldrb	r3, [r7, #7]	@ zero_extendqisi2
 1281 0020 032B     		cmp	r3, #3
 1282 0022 23D1     		bne	.L69
 1283              	.L68:
1534:.\Generated_Source\PSoC5/uart_solinst.c ****                     (retMode == uart_solinst_SEND_WAIT_REINIT) )
1535:.\Generated_Source\PSoC5/uart_solinst.c ****                 {
1536:.\Generated_Source\PSoC5/uart_solinst.c ****                     /* CTRL_HD_SEND_BREAK - skip to send parity bit at Break signal in Full Duplex 
1537:.\Generated_Source\PSoC5/uart_solinst.c ****                     #if( (uart_solinst_PARITY_TYPE != uart_solinst__B_UART__NONE_REVB) || \
1538:.\Generated_Source\PSoC5/uart_solinst.c ****                                         (uart_solinst_PARITY_TYPE_SW != 0u) )
1539:.\Generated_Source\PSoC5/uart_solinst.c ****                         uart_solinst_WriteControlRegister(uart_solinst_ReadControlRegister() |
1540:.\Generated_Source\PSoC5/uart_solinst.c ****                                                               uart_solinst_CTRL_HD_SEND_BREAK);
1541:.\Generated_Source\PSoC5/uart_solinst.c ****                     #endif /* End uart_solinst_PARITY_TYPE != uart_solinst__B_UART__NONE_REVB  */
1542:.\Generated_Source\PSoC5/uart_solinst.c **** 
1543:.\Generated_Source\PSoC5/uart_solinst.c ****                     #if(uart_solinst_TXCLKGEN_DP)
1544:.\Generated_Source\PSoC5/uart_solinst.c ****                         tx_period = uart_solinst_TXBITCLKTX_COMPLETE_REG;
 1284              		.loc 1 1544 0
 1285 0024 46F23A53 		movw	r3, #:lower16:1073767738
 1286 0028 C4F20003 		movt	r3, #:upper16:1073767738
 1287 002c 1B78     		ldrb	r3, [r3, #0]
 1288 002e DAB2     		uxtb	r2, r3
 1289 0030 40F20003 		movw	r3, #:lower16:tx_period.2282
 1290 0034 C0F20003 		movt	r3, #:upper16:tx_period.2282
 1291 0038 1A70     		strb	r2, [r3, #0]
1545:.\Generated_Source\PSoC5/uart_solinst.c ****                         uart_solinst_TXBITCLKTX_COMPLETE_REG = uart_solinst_TXBITCTR_BREAKBITS;
 1292              		.loc 1 1545 0
 1293 003a 46F23A53 		movw	r3, #:lower16:1073767738
 1294 003e C4F20003 		movt	r3, #:upper16:1073767738
 1295 0042 4FF06702 		mov	r2, #103
 1296 0046 1A70     		strb	r2, [r3, #0]
1546:.\Generated_Source\PSoC5/uart_solinst.c ****                     #else
1547:.\Generated_Source\PSoC5/uart_solinst.c ****                         tx_period = uart_solinst_TXBITCTR_PERIOD_REG;
1548:.\Generated_Source\PSoC5/uart_solinst.c ****                         uart_solinst_TXBITCTR_PERIOD_REG = uart_solinst_TXBITCTR_BREAKBITS8X;
1549:.\Generated_Source\PSoC5/uart_solinst.c ****                     #endif /* End uart_solinst_TXCLKGEN_DP */
1550:.\Generated_Source\PSoC5/uart_solinst.c **** 
ARM GAS  C:\Users\karunmj\AppData\Local\Temp\ccOxugR9.s 			page 51


1551:.\Generated_Source\PSoC5/uart_solinst.c ****                     /* Send zeros*/
1552:.\Generated_Source\PSoC5/uart_solinst.c ****                     uart_solinst_TXDATA_REG = 0u;
 1297              		.loc 1 1552 0
 1298 0048 46F24953 		movw	r3, #:lower16:1073767753
 1299 004c C4F20003 		movt	r3, #:upper16:1073767753
 1300 0050 4FF00002 		mov	r2, #0
 1301 0054 1A70     		strb	r2, [r3, #0]
 1302              	.L70:
1553:.\Generated_Source\PSoC5/uart_solinst.c **** 
1554:.\Generated_Source\PSoC5/uart_solinst.c ****                     do /* wait until transmit starts */
1555:.\Generated_Source\PSoC5/uart_solinst.c ****                     {
1556:.\Generated_Source\PSoC5/uart_solinst.c ****                         tmpStat = uart_solinst_TXSTATUS_REG;
 1303              		.loc 1 1556 0
 1304 0056 46F26953 		movw	r3, #:lower16:1073767785
 1305 005a C4F20003 		movt	r3, #:upper16:1073767785
 1306 005e 1B78     		ldrb	r3, [r3, #0]
 1307 0060 FB73     		strb	r3, [r7, #15]
1557:.\Generated_Source\PSoC5/uart_solinst.c ****                     }while((tmpStat & uart_solinst_TX_STS_FIFO_EMPTY) != 0u);
 1308              		.loc 1 1557 0
 1309 0062 FB7B     		ldrb	r3, [r7, #15]	@ zero_extendqisi2
 1310 0064 03F00203 		and	r3, r3, #2
 1311 0068 002B     		cmp	r3, #0
 1312 006a F4D1     		bne	.L70
 1313              	.L69:
1558:.\Generated_Source\PSoC5/uart_solinst.c ****                 }
1559:.\Generated_Source\PSoC5/uart_solinst.c **** 
1560:.\Generated_Source\PSoC5/uart_solinst.c ****                 if( (retMode == uart_solinst_WAIT_FOR_COMPLETE_REINIT) ||
 1314              		.loc 1 1560 0
 1315 006c FB79     		ldrb	r3, [r7, #7]	@ zero_extendqisi2
 1316 006e 012B     		cmp	r3, #1
 1317 0070 02D0     		beq	.L71
 1318 0072 FB79     		ldrb	r3, [r7, #7]	@ zero_extendqisi2
 1319 0074 032B     		cmp	r3, #3
 1320 0076 11D1     		bne	.L72
 1321              	.L71:
1561:.\Generated_Source\PSoC5/uart_solinst.c ****                     (retMode == uart_solinst_SEND_WAIT_REINIT) )
1562:.\Generated_Source\PSoC5/uart_solinst.c ****                 {
1563:.\Generated_Source\PSoC5/uart_solinst.c ****                     do /*wait until transmit complete*/
1564:.\Generated_Source\PSoC5/uart_solinst.c ****                     {
1565:.\Generated_Source\PSoC5/uart_solinst.c ****                         tmpStat = uart_solinst_TXSTATUS_REG;
 1322              		.loc 1 1565 0
 1323 0078 46F26953 		movw	r3, #:lower16:1073767785
 1324 007c C4F20003 		movt	r3, #:upper16:1073767785
 1325 0080 1B78     		ldrb	r3, [r3, #0]
 1326 0082 FB73     		strb	r3, [r7, #15]
1566:.\Generated_Source\PSoC5/uart_solinst.c ****                     }while(((uint8)~tmpStat & uart_solinst_TX_STS_COMPLETE) != 0u);
 1327              		.loc 1 1566 0
 1328 0084 FB7B     		ldrb	r3, [r7, #15]	@ zero_extendqisi2
 1329 0086 03F00103 		and	r3, r3, #1
 1330 008a 002B     		cmp	r3, #0
 1331 008c 02D1     		bne	.L73
 1332 008e 4FF00103 		mov	r3, #1
 1333 0092 01E0     		b	.L74
 1334              	.L73:
 1335 0094 4FF00003 		mov	r3, #0
 1336              	.L74:
 1337 0098 002B     		cmp	r3, #0
ARM GAS  C:\Users\karunmj\AppData\Local\Temp\ccOxugR9.s 			page 52


 1338 009a EDD1     		bne	.L71
 1339              	.L72:
1567:.\Generated_Source\PSoC5/uart_solinst.c ****                 }
1568:.\Generated_Source\PSoC5/uart_solinst.c **** 
1569:.\Generated_Source\PSoC5/uart_solinst.c ****                 if( (retMode == uart_solinst_WAIT_FOR_COMPLETE_REINIT) ||
 1340              		.loc 1 1569 0
 1341 009c FB79     		ldrb	r3, [r7, #7]	@ zero_extendqisi2
 1342 009e 012B     		cmp	r3, #1
 1343 00a0 05D0     		beq	.L75
 1344 00a2 FB79     		ldrb	r3, [r7, #7]	@ zero_extendqisi2
 1345 00a4 022B     		cmp	r3, #2
 1346 00a6 02D0     		beq	.L75
 1347 00a8 FB79     		ldrb	r3, [r7, #7]	@ zero_extendqisi2
 1348 00aa 032B     		cmp	r3, #3
 1349 00ac 09D1     		bne	.L76
 1350              	.L75:
1570:.\Generated_Source\PSoC5/uart_solinst.c ****                     (retMode == uart_solinst_REINIT) ||
1571:.\Generated_Source\PSoC5/uart_solinst.c ****                     (retMode == uart_solinst_SEND_WAIT_REINIT) )
1572:.\Generated_Source\PSoC5/uart_solinst.c ****                 {
1573:.\Generated_Source\PSoC5/uart_solinst.c **** 
1574:.\Generated_Source\PSoC5/uart_solinst.c ****                     #if(uart_solinst_TXCLKGEN_DP)
1575:.\Generated_Source\PSoC5/uart_solinst.c ****                         uart_solinst_TXBITCLKTX_COMPLETE_REG = tx_period;
 1351              		.loc 1 1575 0
 1352 00ae 46F23A53 		movw	r3, #:lower16:1073767738
 1353 00b2 C4F20003 		movt	r3, #:upper16:1073767738
 1354 00b6 40F20002 		movw	r2, #:lower16:tx_period.2282
 1355 00ba C0F20002 		movt	r2, #:upper16:tx_period.2282
 1356 00be 1278     		ldrb	r2, [r2, #0]	@ zero_extendqisi2
 1357 00c0 1A70     		strb	r2, [r3, #0]
 1358              	.L76:
 1359              	.LBE2:
1576:.\Generated_Source\PSoC5/uart_solinst.c ****                     #else
1577:.\Generated_Source\PSoC5/uart_solinst.c ****                         uart_solinst_TXBITCTR_PERIOD_REG = tx_period;
1578:.\Generated_Source\PSoC5/uart_solinst.c ****                     #endif /* End uart_solinst_TXCLKGEN_DP */
1579:.\Generated_Source\PSoC5/uart_solinst.c **** 
1580:.\Generated_Source\PSoC5/uart_solinst.c ****                     #if( (uart_solinst_PARITY_TYPE != uart_solinst__B_UART__NONE_REVB) || \
1581:.\Generated_Source\PSoC5/uart_solinst.c ****                          (uart_solinst_PARITY_TYPE_SW != 0u) )
1582:.\Generated_Source\PSoC5/uart_solinst.c ****                         uart_solinst_WriteControlRegister(uart_solinst_ReadControlRegister() &
1583:.\Generated_Source\PSoC5/uart_solinst.c ****                                                       (uint8)~uart_solinst_CTRL_HD_SEND_BREAK);
1584:.\Generated_Source\PSoC5/uart_solinst.c ****                     #endif /* End uart_solinst_PARITY_TYPE != NONE */
1585:.\Generated_Source\PSoC5/uart_solinst.c ****                 }
1586:.\Generated_Source\PSoC5/uart_solinst.c ****             #endif    /* End uart_solinst_HD_ENABLED */
1587:.\Generated_Source\PSoC5/uart_solinst.c ****         }
1588:.\Generated_Source\PSoC5/uart_solinst.c ****     }
 1360              		.loc 1 1588 0
 1361 00c2 07F11407 		add	r7, r7, #20
 1362 00c6 BD46     		mov	sp, r7
 1363 00c8 80BC     		pop	{r7}
 1364 00ca 7047     		bx	lr
 1365              		.cfi_endproc
 1366              	.LFE25:
 1367              		.size	uart_solinst_SendBreak, .-uart_solinst_SendBreak
 1368              		.section	.text.uart_solinst_SetTxAddressMode,"ax",%progbits
 1369              		.align	2
 1370              		.global	uart_solinst_SetTxAddressMode
 1371              		.thumb
 1372              		.thumb_func
ARM GAS  C:\Users\karunmj\AppData\Local\Temp\ccOxugR9.s 			page 53


 1373              		.type	uart_solinst_SetTxAddressMode, %function
 1374              	uart_solinst_SetTxAddressMode:
 1375              	.LFB26:
1589:.\Generated_Source\PSoC5/uart_solinst.c **** 
1590:.\Generated_Source\PSoC5/uart_solinst.c **** 
1591:.\Generated_Source\PSoC5/uart_solinst.c ****     /*******************************************************************************
1592:.\Generated_Source\PSoC5/uart_solinst.c ****     * Function Name: uart_solinst_SetTxAddressMode
1593:.\Generated_Source\PSoC5/uart_solinst.c ****     ********************************************************************************
1594:.\Generated_Source\PSoC5/uart_solinst.c ****     *
1595:.\Generated_Source\PSoC5/uart_solinst.c ****     * Summary:
1596:.\Generated_Source\PSoC5/uart_solinst.c ****     *  Set the transmit addressing mode
1597:.\Generated_Source\PSoC5/uart_solinst.c ****     *
1598:.\Generated_Source\PSoC5/uart_solinst.c ****     * Parameters:
1599:.\Generated_Source\PSoC5/uart_solinst.c ****     *  addressMode: 0 -> Space
1600:.\Generated_Source\PSoC5/uart_solinst.c ****     *               1 -> Mark
1601:.\Generated_Source\PSoC5/uart_solinst.c ****     *
1602:.\Generated_Source\PSoC5/uart_solinst.c ****     * Return:
1603:.\Generated_Source\PSoC5/uart_solinst.c ****     *  None.
1604:.\Generated_Source\PSoC5/uart_solinst.c ****     *
1605:.\Generated_Source\PSoC5/uart_solinst.c ****     *******************************************************************************/
1606:.\Generated_Source\PSoC5/uart_solinst.c ****     void uart_solinst_SetTxAddressMode(uint8 addressMode) 
1607:.\Generated_Source\PSoC5/uart_solinst.c ****     {
 1376              		.loc 1 1607 0
 1377              		.cfi_startproc
 1378              		@ args = 0, pretend = 0, frame = 8
 1379              		@ frame_needed = 1, uses_anonymous_args = 0
 1380 0000 80B5     		push	{r7, lr}
 1381              	.LCFI73:
 1382              		.cfi_def_cfa_offset 8
 1383 0002 82B0     		sub	sp, sp, #8
 1384              	.LCFI74:
 1385              		.cfi_def_cfa_offset 16
 1386 0004 00AF     		add	r7, sp, #0
 1387              		.cfi_offset 14, -4
 1388              		.cfi_offset 7, -8
 1389              	.LCFI75:
 1390              		.cfi_def_cfa_register 7
 1391 0006 0346     		mov	r3, r0
 1392 0008 FB71     		strb	r3, [r7, #7]
1608:.\Generated_Source\PSoC5/uart_solinst.c ****         /* Mark/Space sending enable*/
1609:.\Generated_Source\PSoC5/uart_solinst.c ****         if(addressMode != 0u)
 1393              		.loc 1 1609 0
 1394 000a FB79     		ldrb	r3, [r7, #7]	@ zero_extendqisi2
 1395 000c 002B     		cmp	r3, #0
 1396 000e 09D0     		beq	.L78
1610:.\Generated_Source\PSoC5/uart_solinst.c ****         {
1611:.\Generated_Source\PSoC5/uart_solinst.c ****             #if( uart_solinst_CONTROL_REG_REMOVED == 0u )
1612:.\Generated_Source\PSoC5/uart_solinst.c ****                 uart_solinst_WriteControlRegister(uart_solinst_ReadControlRegister() |
 1397              		.loc 1 1612 0
 1398 0010 FFF7FEFF 		bl	uart_solinst_ReadControlRegister
 1399 0014 0346     		mov	r3, r0
 1400 0016 43F00403 		orr	r3, r3, #4
 1401 001a DBB2     		uxtb	r3, r3
 1402 001c 1846     		mov	r0, r3
 1403 001e FFF7FEFF 		bl	uart_solinst_WriteControlRegister
 1404 0022 07E0     		b	.L80
 1405              	.L78:
ARM GAS  C:\Users\karunmj\AppData\Local\Temp\ccOxugR9.s 			page 54


1613:.\Generated_Source\PSoC5/uart_solinst.c ****                                                       uart_solinst_CTRL_MARK);
1614:.\Generated_Source\PSoC5/uart_solinst.c ****             #endif /* End uart_solinst_CONTROL_REG_REMOVED == 0u */
1615:.\Generated_Source\PSoC5/uart_solinst.c ****         }
1616:.\Generated_Source\PSoC5/uart_solinst.c ****         else
1617:.\Generated_Source\PSoC5/uart_solinst.c ****         {
1618:.\Generated_Source\PSoC5/uart_solinst.c ****             #if( uart_solinst_CONTROL_REG_REMOVED == 0u )
1619:.\Generated_Source\PSoC5/uart_solinst.c ****                 uart_solinst_WriteControlRegister(uart_solinst_ReadControlRegister() &
 1406              		.loc 1 1619 0
 1407 0024 FFF7FEFF 		bl	uart_solinst_ReadControlRegister
 1408 0028 0346     		mov	r3, r0
 1409 002a 03F0FB03 		and	r3, r3, #251
 1410 002e 1846     		mov	r0, r3
 1411 0030 FFF7FEFF 		bl	uart_solinst_WriteControlRegister
 1412              	.L80:
1620:.\Generated_Source\PSoC5/uart_solinst.c ****                                                     (uint8)~uart_solinst_CTRL_MARK);
1621:.\Generated_Source\PSoC5/uart_solinst.c ****             #endif /* End uart_solinst_CONTROL_REG_REMOVED == 0u */
1622:.\Generated_Source\PSoC5/uart_solinst.c ****         }
1623:.\Generated_Source\PSoC5/uart_solinst.c ****     }
 1413              		.loc 1 1623 0
 1414 0034 07F10807 		add	r7, r7, #8
 1415 0038 BD46     		mov	sp, r7
 1416 003a 80BD     		pop	{r7, pc}
 1417              		.cfi_endproc
 1418              	.LFE26:
 1419              		.size	uart_solinst_SetTxAddressMode, .-uart_solinst_SetTxAddressMode
 1420              		.bss
 1421              	tx_period.2282:
 1422 0001 00       		.space	1
 1423              		.text
 1424              	.Letext0:
 1425              		.section	.debug_loc,"",%progbits
 1426              	.Ldebug_loc0:
 1427              	.LLST0:
 1428 0000 00000000 		.4byte	.LFB0
 1429 0004 02000000 		.4byte	.LCFI0
 1430 0008 0100     		.2byte	0x1
 1431 000a 5D       		.byte	0x5d
 1432 000b 02000000 		.4byte	.LCFI0
 1433 000f 04000000 		.4byte	.LCFI1
 1434 0013 0200     		.2byte	0x2
 1435 0015 7D       		.byte	0x7d
 1436 0016 08       		.sleb128 8
 1437 0017 04000000 		.4byte	.LCFI1
 1438 001b 2A000000 		.4byte	.LFE0
 1439 001f 0200     		.2byte	0x2
 1440 0021 77       		.byte	0x77
 1441 0022 08       		.sleb128 8
 1442 0023 00000000 		.4byte	0x0
 1443 0027 00000000 		.4byte	0x0
 1444              	.LLST1:
 1445 002b 00000000 		.4byte	.LFB1
 1446 002f 02000000 		.4byte	.LCFI2
 1447 0033 0100     		.2byte	0x1
 1448 0035 5D       		.byte	0x5d
 1449 0036 02000000 		.4byte	.LCFI2
 1450 003a 04000000 		.4byte	.LCFI3
 1451 003e 0200     		.2byte	0x2
ARM GAS  C:\Users\karunmj\AppData\Local\Temp\ccOxugR9.s 			page 55


 1452 0040 7D       		.byte	0x7d
 1453 0041 08       		.sleb128 8
 1454 0042 04000000 		.4byte	.LCFI3
 1455 0046 64000000 		.4byte	.LFE1
 1456 004a 0200     		.2byte	0x2
 1457 004c 77       		.byte	0x77
 1458 004d 08       		.sleb128 8
 1459 004e 00000000 		.4byte	0x0
 1460 0052 00000000 		.4byte	0x0
 1461              	.LLST2:
 1462 0056 00000000 		.4byte	.LFB2
 1463 005a 02000000 		.4byte	.LCFI4
 1464 005e 0100     		.2byte	0x1
 1465 0060 5D       		.byte	0x5d
 1466 0061 02000000 		.4byte	.LCFI4
 1467 0065 04000000 		.4byte	.LCFI5
 1468 0069 0200     		.2byte	0x2
 1469 006b 7D       		.byte	0x7d
 1470 006c 08       		.sleb128 8
 1471 006d 04000000 		.4byte	.LCFI5
 1472 0071 06000000 		.4byte	.LCFI6
 1473 0075 0200     		.2byte	0x2
 1474 0077 7D       		.byte	0x7d
 1475 0078 10       		.sleb128 16
 1476 0079 06000000 		.4byte	.LCFI6
 1477 007d 76000000 		.4byte	.LFE2
 1478 0081 0200     		.2byte	0x2
 1479 0083 77       		.byte	0x77
 1480 0084 10       		.sleb128 16
 1481 0085 00000000 		.4byte	0x0
 1482 0089 00000000 		.4byte	0x0
 1483              	.LLST3:
 1484 008d 00000000 		.4byte	.LFB3
 1485 0091 02000000 		.4byte	.LCFI7
 1486 0095 0100     		.2byte	0x1
 1487 0097 5D       		.byte	0x5d
 1488 0098 02000000 		.4byte	.LCFI7
 1489 009c 04000000 		.4byte	.LCFI8
 1490 00a0 0200     		.2byte	0x2
 1491 00a2 7D       		.byte	0x7d
 1492 00a3 08       		.sleb128 8
 1493 00a4 04000000 		.4byte	.LCFI8
 1494 00a8 06000000 		.4byte	.LCFI9
 1495 00ac 0200     		.2byte	0x2
 1496 00ae 7D       		.byte	0x7d
 1497 00af 10       		.sleb128 16
 1498 00b0 06000000 		.4byte	.LCFI9
 1499 00b4 70000000 		.4byte	.LFE3
 1500 00b8 0200     		.2byte	0x2
 1501 00ba 77       		.byte	0x77
 1502 00bb 10       		.sleb128 16
 1503 00bc 00000000 		.4byte	0x0
 1504 00c0 00000000 		.4byte	0x0
 1505              	.LLST4:
 1506 00c4 00000000 		.4byte	.LFB4
 1507 00c8 02000000 		.4byte	.LCFI10
 1508 00cc 0100     		.2byte	0x1
ARM GAS  C:\Users\karunmj\AppData\Local\Temp\ccOxugR9.s 			page 56


 1509 00ce 5D       		.byte	0x5d
 1510 00cf 02000000 		.4byte	.LCFI10
 1511 00d3 04000000 		.4byte	.LCFI11
 1512 00d7 0200     		.2byte	0x2
 1513 00d9 7D       		.byte	0x7d
 1514 00da 04       		.sleb128 4
 1515 00db 04000000 		.4byte	.LCFI11
 1516 00df 18000000 		.4byte	.LFE4
 1517 00e3 0200     		.2byte	0x2
 1518 00e5 77       		.byte	0x77
 1519 00e6 04       		.sleb128 4
 1520 00e7 00000000 		.4byte	0x0
 1521 00eb 00000000 		.4byte	0x0
 1522              	.LLST5:
 1523 00ef 00000000 		.4byte	.LFB5
 1524 00f3 02000000 		.4byte	.LCFI12
 1525 00f7 0100     		.2byte	0x1
 1526 00f9 5D       		.byte	0x5d
 1527 00fa 02000000 		.4byte	.LCFI12
 1528 00fe 04000000 		.4byte	.LCFI13
 1529 0102 0200     		.2byte	0x2
 1530 0104 7D       		.byte	0x7d
 1531 0105 04       		.sleb128 4
 1532 0106 04000000 		.4byte	.LCFI13
 1533 010a 06000000 		.4byte	.LCFI14
 1534 010e 0200     		.2byte	0x2
 1535 0110 7D       		.byte	0x7d
 1536 0111 10       		.sleb128 16
 1537 0112 06000000 		.4byte	.LCFI14
 1538 0116 20000000 		.4byte	.LFE5
 1539 011a 0200     		.2byte	0x2
 1540 011c 77       		.byte	0x77
 1541 011d 10       		.sleb128 16
 1542 011e 00000000 		.4byte	0x0
 1543 0122 00000000 		.4byte	0x0
 1544              	.LLST6:
 1545 0126 00000000 		.4byte	.LFB6
 1546 012a 02000000 		.4byte	.LCFI15
 1547 012e 0100     		.2byte	0x1
 1548 0130 5D       		.byte	0x5d
 1549 0131 02000000 		.4byte	.LCFI15
 1550 0135 04000000 		.4byte	.LCFI16
 1551 0139 0200     		.2byte	0x2
 1552 013b 7D       		.byte	0x7d
 1553 013c 04       		.sleb128 4
 1554 013d 04000000 		.4byte	.LCFI16
 1555 0141 06000000 		.4byte	.LCFI17
 1556 0145 0200     		.2byte	0x2
 1557 0147 7D       		.byte	0x7d
 1558 0148 10       		.sleb128 16
 1559 0149 06000000 		.4byte	.LCFI17
 1560 014d 20000000 		.4byte	.LFE6
 1561 0151 0200     		.2byte	0x2
 1562 0153 77       		.byte	0x77
 1563 0154 10       		.sleb128 16
 1564 0155 00000000 		.4byte	0x0
 1565 0159 00000000 		.4byte	0x0
ARM GAS  C:\Users\karunmj\AppData\Local\Temp\ccOxugR9.s 			page 57


 1566              	.LLST7:
 1567 015d 00000000 		.4byte	.LFB7
 1568 0161 02000000 		.4byte	.LCFI18
 1569 0165 0100     		.2byte	0x1
 1570 0167 5D       		.byte	0x5d
 1571 0168 02000000 		.4byte	.LCFI18
 1572 016c 04000000 		.4byte	.LCFI19
 1573 0170 0200     		.2byte	0x2
 1574 0172 7D       		.byte	0x7d
 1575 0173 04       		.sleb128 4
 1576 0174 04000000 		.4byte	.LCFI19
 1577 0178 06000000 		.4byte	.LCFI20
 1578 017c 0200     		.2byte	0x2
 1579 017e 7D       		.byte	0x7d
 1580 017f 10       		.sleb128 16
 1581 0180 06000000 		.4byte	.LCFI20
 1582 0184 20000000 		.4byte	.LFE7
 1583 0188 0200     		.2byte	0x2
 1584 018a 77       		.byte	0x77
 1585 018b 10       		.sleb128 16
 1586 018c 00000000 		.4byte	0x0
 1587 0190 00000000 		.4byte	0x0
 1588              	.LLST8:
 1589 0194 00000000 		.4byte	.LFB8
 1590 0198 02000000 		.4byte	.LCFI21
 1591 019c 0100     		.2byte	0x1
 1592 019e 5D       		.byte	0x5d
 1593 019f 02000000 		.4byte	.LCFI21
 1594 01a3 04000000 		.4byte	.LCFI22
 1595 01a7 0200     		.2byte	0x2
 1596 01a9 7D       		.byte	0x7d
 1597 01aa 04       		.sleb128 4
 1598 01ab 04000000 		.4byte	.LCFI22
 1599 01af 06000000 		.4byte	.LCFI23
 1600 01b3 0200     		.2byte	0x2
 1601 01b5 7D       		.byte	0x7d
 1602 01b6 10       		.sleb128 16
 1603 01b7 06000000 		.4byte	.LCFI23
 1604 01bb 26000000 		.4byte	.LFE8
 1605 01bf 0200     		.2byte	0x2
 1606 01c1 77       		.byte	0x77
 1607 01c2 10       		.sleb128 16
 1608 01c3 00000000 		.4byte	0x0
 1609 01c7 00000000 		.4byte	0x0
 1610              	.LLST9:
 1611 01cb 00000000 		.4byte	.LFB9
 1612 01cf 02000000 		.4byte	.LCFI24
 1613 01d3 0100     		.2byte	0x1
 1614 01d5 5D       		.byte	0x5d
 1615 01d6 02000000 		.4byte	.LCFI24
 1616 01da 04000000 		.4byte	.LCFI25
 1617 01de 0200     		.2byte	0x2
 1618 01e0 7D       		.byte	0x7d
 1619 01e1 04       		.sleb128 4
 1620 01e2 04000000 		.4byte	.LCFI25
 1621 01e6 06000000 		.4byte	.LCFI26
 1622 01ea 0200     		.2byte	0x2
ARM GAS  C:\Users\karunmj\AppData\Local\Temp\ccOxugR9.s 			page 58


 1623 01ec 7D       		.byte	0x7d
 1624 01ed 10       		.sleb128 16
 1625 01ee 06000000 		.4byte	.LCFI26
 1626 01f2 4C000000 		.4byte	.LFE9
 1627 01f6 0200     		.2byte	0x2
 1628 01f8 77       		.byte	0x77
 1629 01f9 10       		.sleb128 16
 1630 01fa 00000000 		.4byte	0x0
 1631 01fe 00000000 		.4byte	0x0
 1632              	.LLST10:
 1633 0202 00000000 		.4byte	.LFB10
 1634 0206 02000000 		.4byte	.LCFI27
 1635 020a 0100     		.2byte	0x1
 1636 020c 5D       		.byte	0x5d
 1637 020d 02000000 		.4byte	.LCFI27
 1638 0211 04000000 		.4byte	.LCFI28
 1639 0215 0200     		.2byte	0x2
 1640 0217 7D       		.byte	0x7d
 1641 0218 10       		.sleb128 16
 1642 0219 04000000 		.4byte	.LCFI28
 1643 021d 24000000 		.4byte	.LFE10
 1644 0221 0200     		.2byte	0x2
 1645 0223 77       		.byte	0x77
 1646 0224 10       		.sleb128 16
 1647 0225 00000000 		.4byte	0x0
 1648 0229 00000000 		.4byte	0x0
 1649              	.LLST11:
 1650 022d 00000000 		.4byte	.LFB11
 1651 0231 02000000 		.4byte	.LCFI29
 1652 0235 0100     		.2byte	0x1
 1653 0237 5D       		.byte	0x5d
 1654 0238 02000000 		.4byte	.LCFI29
 1655 023c 04000000 		.4byte	.LCFI30
 1656 0240 0200     		.2byte	0x2
 1657 0242 7D       		.byte	0x7d
 1658 0243 04       		.sleb128 4
 1659 0244 04000000 		.4byte	.LCFI30
 1660 0248 06000000 		.4byte	.LCFI31
 1661 024c 0200     		.2byte	0x2
 1662 024e 7D       		.byte	0x7d
 1663 024f 10       		.sleb128 16
 1664 0250 06000000 		.4byte	.LCFI31
 1665 0254 34000000 		.4byte	.LFE11
 1666 0258 0200     		.2byte	0x2
 1667 025a 77       		.byte	0x77
 1668 025b 10       		.sleb128 16
 1669 025c 00000000 		.4byte	0x0
 1670 0260 00000000 		.4byte	0x0
 1671              	.LLST12:
 1672 0264 00000000 		.4byte	.LFB12
 1673 0268 02000000 		.4byte	.LCFI32
 1674 026c 0100     		.2byte	0x1
 1675 026e 5D       		.byte	0x5d
 1676 026f 02000000 		.4byte	.LCFI32
 1677 0273 04000000 		.4byte	.LCFI33
 1678 0277 0200     		.2byte	0x2
 1679 0279 7D       		.byte	0x7d
ARM GAS  C:\Users\karunmj\AppData\Local\Temp\ccOxugR9.s 			page 59


 1680 027a 08       		.sleb128 8
 1681 027b 04000000 		.4byte	.LCFI33
 1682 027f 06000000 		.4byte	.LCFI34
 1683 0283 0200     		.2byte	0x2
 1684 0285 7D       		.byte	0x7d
 1685 0286 10       		.sleb128 16
 1686 0287 06000000 		.4byte	.LCFI34
 1687 028b 54000000 		.4byte	.LFE12
 1688 028f 0200     		.2byte	0x2
 1689 0291 77       		.byte	0x77
 1690 0292 10       		.sleb128 16
 1691 0293 00000000 		.4byte	0x0
 1692 0297 00000000 		.4byte	0x0
 1693              	.LLST13:
 1694 029b 00000000 		.4byte	.LFB13
 1695 029f 02000000 		.4byte	.LCFI35
 1696 02a3 0100     		.2byte	0x1
 1697 02a5 5D       		.byte	0x5d
 1698 02a6 02000000 		.4byte	.LCFI35
 1699 02aa 04000000 		.4byte	.LCFI36
 1700 02ae 0200     		.2byte	0x2
 1701 02b0 7D       		.byte	0x7d
 1702 02b1 04       		.sleb128 4
 1703 02b2 04000000 		.4byte	.LCFI36
 1704 02b6 06000000 		.4byte	.LCFI37
 1705 02ba 0200     		.2byte	0x2
 1706 02bc 7D       		.byte	0x7d
 1707 02bd 18       		.sleb128 24
 1708 02be 06000000 		.4byte	.LCFI37
 1709 02c2 42000000 		.4byte	.LFE13
 1710 02c6 0200     		.2byte	0x2
 1711 02c8 77       		.byte	0x77
 1712 02c9 18       		.sleb128 24
 1713 02ca 00000000 		.4byte	0x0
 1714 02ce 00000000 		.4byte	0x0
 1715              	.LLST14:
 1716 02d2 00000000 		.4byte	.LFB14
 1717 02d6 02000000 		.4byte	.LCFI38
 1718 02da 0100     		.2byte	0x1
 1719 02dc 5D       		.byte	0x5d
 1720 02dd 02000000 		.4byte	.LCFI38
 1721 02e1 04000000 		.4byte	.LCFI39
 1722 02e5 0200     		.2byte	0x2
 1723 02e7 7D       		.byte	0x7d
 1724 02e8 04       		.sleb128 4
 1725 02e9 04000000 		.4byte	.LCFI39
 1726 02ed 06000000 		.4byte	.LCFI40
 1727 02f1 0200     		.2byte	0x2
 1728 02f3 7D       		.byte	0x7d
 1729 02f4 10       		.sleb128 16
 1730 02f5 06000000 		.4byte	.LCFI40
 1731 02f9 20000000 		.4byte	.LFE14
 1732 02fd 0200     		.2byte	0x2
 1733 02ff 77       		.byte	0x77
 1734 0300 10       		.sleb128 16
 1735 0301 00000000 		.4byte	0x0
 1736 0305 00000000 		.4byte	0x0
ARM GAS  C:\Users\karunmj\AppData\Local\Temp\ccOxugR9.s 			page 60


 1737              	.LLST15:
 1738 0309 00000000 		.4byte	.LFB15
 1739 030d 02000000 		.4byte	.LCFI41
 1740 0311 0100     		.2byte	0x1
 1741 0313 5D       		.byte	0x5d
 1742 0314 02000000 		.4byte	.LCFI41
 1743 0318 04000000 		.4byte	.LCFI42
 1744 031c 0200     		.2byte	0x2
 1745 031e 7D       		.byte	0x7d
 1746 031f 04       		.sleb128 4
 1747 0320 04000000 		.4byte	.LCFI42
 1748 0324 06000000 		.4byte	.LCFI43
 1749 0328 0200     		.2byte	0x2
 1750 032a 7D       		.byte	0x7d
 1751 032b 10       		.sleb128 16
 1752 032c 06000000 		.4byte	.LCFI43
 1753 0330 20000000 		.4byte	.LFE15
 1754 0334 0200     		.2byte	0x2
 1755 0336 77       		.byte	0x77
 1756 0337 10       		.sleb128 16
 1757 0338 00000000 		.4byte	0x0
 1758 033c 00000000 		.4byte	0x0
 1759              	.LLST16:
 1760 0340 00000000 		.4byte	.LFB16
 1761 0344 02000000 		.4byte	.LCFI44
 1762 0348 0100     		.2byte	0x1
 1763 034a 5D       		.byte	0x5d
 1764 034b 02000000 		.4byte	.LCFI44
 1765 034f 04000000 		.4byte	.LCFI45
 1766 0353 0200     		.2byte	0x2
 1767 0355 7D       		.byte	0x7d
 1768 0356 04       		.sleb128 4
 1769 0357 04000000 		.4byte	.LCFI45
 1770 035b 06000000 		.4byte	.LCFI46
 1771 035f 0200     		.2byte	0x2
 1772 0361 7D       		.byte	0x7d
 1773 0362 10       		.sleb128 16
 1774 0363 06000000 		.4byte	.LCFI46
 1775 0367 20000000 		.4byte	.LFE16
 1776 036b 0200     		.2byte	0x2
 1777 036d 77       		.byte	0x77
 1778 036e 10       		.sleb128 16
 1779 036f 00000000 		.4byte	0x0
 1780 0373 00000000 		.4byte	0x0
 1781              	.LLST17:
 1782 0377 00000000 		.4byte	.LFB17
 1783 037b 02000000 		.4byte	.LCFI47
 1784 037f 0100     		.2byte	0x1
 1785 0381 5D       		.byte	0x5d
 1786 0382 02000000 		.4byte	.LCFI47
 1787 0386 04000000 		.4byte	.LCFI48
 1788 038a 0200     		.2byte	0x2
 1789 038c 7D       		.byte	0x7d
 1790 038d 04       		.sleb128 4
 1791 038e 04000000 		.4byte	.LCFI48
 1792 0392 06000000 		.4byte	.LCFI49
 1793 0396 0200     		.2byte	0x2
ARM GAS  C:\Users\karunmj\AppData\Local\Temp\ccOxugR9.s 			page 61


 1794 0398 7D       		.byte	0x7d
 1795 0399 10       		.sleb128 16
 1796 039a 06000000 		.4byte	.LCFI49
 1797 039e 2E000000 		.4byte	.LFE17
 1798 03a2 0200     		.2byte	0x2
 1799 03a4 77       		.byte	0x77
 1800 03a5 10       		.sleb128 16
 1801 03a6 00000000 		.4byte	0x0
 1802 03aa 00000000 		.4byte	0x0
 1803              	.LLST18:
 1804 03ae 00000000 		.4byte	.LFB18
 1805 03b2 02000000 		.4byte	.LCFI50
 1806 03b6 0100     		.2byte	0x1
 1807 03b8 5D       		.byte	0x5d
 1808 03b9 02000000 		.4byte	.LCFI50
 1809 03bd 04000000 		.4byte	.LCFI51
 1810 03c1 0200     		.2byte	0x2
 1811 03c3 7D       		.byte	0x7d
 1812 03c4 04       		.sleb128 4
 1813 03c5 04000000 		.4byte	.LCFI51
 1814 03c9 18000000 		.4byte	.LFE18
 1815 03cd 0200     		.2byte	0x2
 1816 03cf 77       		.byte	0x77
 1817 03d0 04       		.sleb128 4
 1818 03d1 00000000 		.4byte	0x0
 1819 03d5 00000000 		.4byte	0x0
 1820              	.LLST19:
 1821 03d9 00000000 		.4byte	.LFB19
 1822 03dd 02000000 		.4byte	.LCFI52
 1823 03e1 0100     		.2byte	0x1
 1824 03e3 5D       		.byte	0x5d
 1825 03e4 02000000 		.4byte	.LCFI52
 1826 03e8 04000000 		.4byte	.LCFI53
 1827 03ec 0200     		.2byte	0x2
 1828 03ee 7D       		.byte	0x7d
 1829 03ef 04       		.sleb128 4
 1830 03f0 04000000 		.4byte	.LCFI53
 1831 03f4 06000000 		.4byte	.LCFI54
 1832 03f8 0200     		.2byte	0x2
 1833 03fa 7D       		.byte	0x7d
 1834 03fb 10       		.sleb128 16
 1835 03fc 06000000 		.4byte	.LCFI54
 1836 0400 34000000 		.4byte	.LFE19
 1837 0404 0200     		.2byte	0x2
 1838 0406 77       		.byte	0x77
 1839 0407 10       		.sleb128 16
 1840 0408 00000000 		.4byte	0x0
 1841 040c 00000000 		.4byte	0x0
 1842              	.LLST20:
 1843 0410 00000000 		.4byte	.LFB20
 1844 0414 02000000 		.4byte	.LCFI55
 1845 0418 0100     		.2byte	0x1
 1846 041a 5D       		.byte	0x5d
 1847 041b 02000000 		.4byte	.LCFI55
 1848 041f 04000000 		.4byte	.LCFI56
 1849 0423 0200     		.2byte	0x2
 1850 0425 7D       		.byte	0x7d
ARM GAS  C:\Users\karunmj\AppData\Local\Temp\ccOxugR9.s 			page 62


 1851 0426 08       		.sleb128 8
 1852 0427 04000000 		.4byte	.LCFI56
 1853 042b 06000000 		.4byte	.LCFI57
 1854 042f 0200     		.2byte	0x2
 1855 0431 7D       		.byte	0x7d
 1856 0432 18       		.sleb128 24
 1857 0433 06000000 		.4byte	.LCFI57
 1858 0437 48000000 		.4byte	.LFE20
 1859 043b 0200     		.2byte	0x2
 1860 043d 77       		.byte	0x77
 1861 043e 18       		.sleb128 24
 1862 043f 00000000 		.4byte	0x0
 1863 0443 00000000 		.4byte	0x0
 1864              	.LLST21:
 1865 0447 00000000 		.4byte	.LFB21
 1866 044b 02000000 		.4byte	.LCFI58
 1867 044f 0100     		.2byte	0x1
 1868 0451 5D       		.byte	0x5d
 1869 0452 02000000 		.4byte	.LCFI58
 1870 0456 04000000 		.4byte	.LCFI59
 1871 045a 0200     		.2byte	0x2
 1872 045c 7D       		.byte	0x7d
 1873 045d 08       		.sleb128 8
 1874 045e 04000000 		.4byte	.LCFI59
 1875 0462 06000000 		.4byte	.LCFI60
 1876 0466 0200     		.2byte	0x2
 1877 0468 7D       		.byte	0x7d
 1878 0469 18       		.sleb128 24
 1879 046a 06000000 		.4byte	.LCFI60
 1880 046e 46000000 		.4byte	.LFE21
 1881 0472 0200     		.2byte	0x2
 1882 0474 77       		.byte	0x77
 1883 0475 18       		.sleb128 24
 1884 0476 00000000 		.4byte	0x0
 1885 047a 00000000 		.4byte	0x0
 1886              	.LLST22:
 1887 047e 00000000 		.4byte	.LFB22
 1888 0482 02000000 		.4byte	.LCFI61
 1889 0486 0100     		.2byte	0x1
 1890 0488 5D       		.byte	0x5d
 1891 0489 02000000 		.4byte	.LCFI61
 1892 048d 04000000 		.4byte	.LCFI62
 1893 0491 0200     		.2byte	0x2
 1894 0493 7D       		.byte	0x7d
 1895 0494 08       		.sleb128 8
 1896 0495 04000000 		.4byte	.LCFI62
 1897 0499 06000000 		.4byte	.LCFI63
 1898 049d 0200     		.2byte	0x2
 1899 049f 7D       		.byte	0x7d
 1900 04a0 10       		.sleb128 16
 1901 04a1 06000000 		.4byte	.LCFI63
 1902 04a5 38000000 		.4byte	.LFE22
 1903 04a9 0200     		.2byte	0x2
 1904 04ab 77       		.byte	0x77
 1905 04ac 10       		.sleb128 16
 1906 04ad 00000000 		.4byte	0x0
 1907 04b1 00000000 		.4byte	0x0
ARM GAS  C:\Users\karunmj\AppData\Local\Temp\ccOxugR9.s 			page 63


 1908              	.LLST23:
 1909 04b5 00000000 		.4byte	.LFB23
 1910 04b9 02000000 		.4byte	.LCFI64
 1911 04bd 0100     		.2byte	0x1
 1912 04bf 5D       		.byte	0x5d
 1913 04c0 02000000 		.4byte	.LCFI64
 1914 04c4 04000000 		.4byte	.LCFI65
 1915 04c8 0200     		.2byte	0x2
 1916 04ca 7D       		.byte	0x7d
 1917 04cb 04       		.sleb128 4
 1918 04cc 04000000 		.4byte	.LCFI65
 1919 04d0 06000000 		.4byte	.LCFI66
 1920 04d4 0200     		.2byte	0x2
 1921 04d6 7D       		.byte	0x7d
 1922 04d7 10       		.sleb128 16
 1923 04d8 06000000 		.4byte	.LCFI66
 1924 04dc 4A000000 		.4byte	.LFE23
 1925 04e0 0200     		.2byte	0x2
 1926 04e2 77       		.byte	0x77
 1927 04e3 10       		.sleb128 16
 1928 04e4 00000000 		.4byte	0x0
 1929 04e8 00000000 		.4byte	0x0
 1930              	.LLST24:
 1931 04ec 00000000 		.4byte	.LFB24
 1932 04f0 02000000 		.4byte	.LCFI67
 1933 04f4 0100     		.2byte	0x1
 1934 04f6 5D       		.byte	0x5d
 1935 04f7 02000000 		.4byte	.LCFI67
 1936 04fb 04000000 		.4byte	.LCFI68
 1937 04ff 0200     		.2byte	0x2
 1938 0501 7D       		.byte	0x7d
 1939 0502 08       		.sleb128 8
 1940 0503 04000000 		.4byte	.LCFI68
 1941 0507 06000000 		.4byte	.LCFI69
 1942 050b 0200     		.2byte	0x2
 1943 050d 7D       		.byte	0x7d
 1944 050e 10       		.sleb128 16
 1945 050f 06000000 		.4byte	.LCFI69
 1946 0513 54000000 		.4byte	.LFE24
 1947 0517 0200     		.2byte	0x2
 1948 0519 77       		.byte	0x77
 1949 051a 10       		.sleb128 16
 1950 051b 00000000 		.4byte	0x0
 1951 051f 00000000 		.4byte	0x0
 1952              	.LLST25:
 1953 0523 00000000 		.4byte	.LFB25
 1954 0527 02000000 		.4byte	.LCFI70
 1955 052b 0100     		.2byte	0x1
 1956 052d 5D       		.byte	0x5d
 1957 052e 02000000 		.4byte	.LCFI70
 1958 0532 04000000 		.4byte	.LCFI71
 1959 0536 0200     		.2byte	0x2
 1960 0538 7D       		.byte	0x7d
 1961 0539 04       		.sleb128 4
 1962 053a 04000000 		.4byte	.LCFI71
 1963 053e 06000000 		.4byte	.LCFI72
 1964 0542 0200     		.2byte	0x2
ARM GAS  C:\Users\karunmj\AppData\Local\Temp\ccOxugR9.s 			page 64


 1965 0544 7D       		.byte	0x7d
 1966 0545 18       		.sleb128 24
 1967 0546 06000000 		.4byte	.LCFI72
 1968 054a CC000000 		.4byte	.LFE25
 1969 054e 0200     		.2byte	0x2
 1970 0550 77       		.byte	0x77
 1971 0551 18       		.sleb128 24
 1972 0552 00000000 		.4byte	0x0
 1973 0556 00000000 		.4byte	0x0
 1974              	.LLST26:
 1975 055a 00000000 		.4byte	.LFB26
 1976 055e 02000000 		.4byte	.LCFI73
 1977 0562 0100     		.2byte	0x1
 1978 0564 5D       		.byte	0x5d
 1979 0565 02000000 		.4byte	.LCFI73
 1980 0569 04000000 		.4byte	.LCFI74
 1981 056d 0200     		.2byte	0x2
 1982 056f 7D       		.byte	0x7d
 1983 0570 08       		.sleb128 8
 1984 0571 04000000 		.4byte	.LCFI74
 1985 0575 06000000 		.4byte	.LCFI75
 1986 0579 0200     		.2byte	0x2
 1987 057b 7D       		.byte	0x7d
 1988 057c 10       		.sleb128 16
 1989 057d 06000000 		.4byte	.LCFI75
 1990 0581 3C000000 		.4byte	.LFE26
 1991 0585 0200     		.2byte	0x2
 1992 0587 77       		.byte	0x77
 1993 0588 10       		.sleb128 16
 1994 0589 00000000 		.4byte	0x0
 1995 058d 00000000 		.4byte	0x0
 1996              		.file 2 ".\\Generated_Source\\PSoC5\\/cytypes.h"
 1997              		.section	.debug_info
 1998 0000 67050000 		.4byte	0x567
 1999 0004 0200     		.2byte	0x2
 2000 0006 00000000 		.4byte	.Ldebug_abbrev0
 2001 000a 04       		.byte	0x4
 2002 000b 01       		.uleb128 0x1
 2003 000c 81000000 		.4byte	.LASF59
 2004 0010 01       		.byte	0x1
 2005 0011 C4000000 		.4byte	.LASF60
 2006 0015 40030000 		.4byte	.LASF61
 2007 0019 00000000 		.4byte	0x0
 2008 001d 00000000 		.4byte	0x0
 2009 0021 00000000 		.4byte	.Ldebug_ranges0+0x0
 2010 0025 00000000 		.4byte	.Ldebug_line0
 2011 0029 02       		.uleb128 0x2
 2012 002a 01       		.byte	0x1
 2013 002b 06       		.byte	0x6
 2014 002c B8000000 		.4byte	.LASF0
 2015 0030 02       		.uleb128 0x2
 2016 0031 01       		.byte	0x1
 2017 0032 08       		.byte	0x8
 2018 0033 8F030000 		.4byte	.LASF1
 2019 0037 02       		.uleb128 0x2
 2020 0038 02       		.byte	0x2
 2021 0039 05       		.byte	0x5
ARM GAS  C:\Users\karunmj\AppData\Local\Temp\ccOxugR9.s 			page 65


 2022 003a B1030000 		.4byte	.LASF2
 2023 003e 02       		.uleb128 0x2
 2024 003f 02       		.byte	0x2
 2025 0040 07       		.byte	0x7
 2026 0041 18020000 		.4byte	.LASF3
 2027 0045 02       		.uleb128 0x2
 2028 0046 04       		.byte	0x4
 2029 0047 05       		.byte	0x5
 2030 0048 46010000 		.4byte	.LASF4
 2031 004c 02       		.uleb128 0x2
 2032 004d 04       		.byte	0x4
 2033 004e 07       		.byte	0x7
 2034 004f BA010000 		.4byte	.LASF5
 2035 0053 02       		.uleb128 0x2
 2036 0054 08       		.byte	0x8
 2037 0055 05       		.byte	0x5
 2038 0056 AA000000 		.4byte	.LASF6
 2039 005a 02       		.uleb128 0x2
 2040 005b 08       		.byte	0x8
 2041 005c 07       		.byte	0x7
 2042 005d 6A000000 		.4byte	.LASF7
 2043 0061 03       		.uleb128 0x3
 2044 0062 04       		.byte	0x4
 2045 0063 05       		.byte	0x5
 2046 0064 696E7400 		.ascii	"int\000"
 2047 0068 02       		.uleb128 0x2
 2048 0069 04       		.byte	0x4
 2049 006a 07       		.byte	0x7
 2050 006b AD010000 		.4byte	.LASF8
 2051 006f 04       		.uleb128 0x4
 2052 0070 4F010000 		.4byte	.LASF9
 2053 0074 02       		.byte	0x2
 2054 0075 4C       		.byte	0x4c
 2055 0076 30000000 		.4byte	0x30
 2056 007a 04       		.uleb128 0x4
 2057 007b 1A000000 		.4byte	.LASF10
 2058 007f 02       		.byte	0x2
 2059 0080 4D       		.byte	0x4d
 2060 0081 3E000000 		.4byte	0x3e
 2061 0085 02       		.uleb128 0x2
 2062 0086 04       		.byte	0x4
 2063 0087 04       		.byte	0x4
 2064 0088 3A030000 		.4byte	.LASF11
 2065 008c 02       		.uleb128 0x2
 2066 008d 08       		.byte	0x8
 2067 008e 04       		.byte	0x4
 2068 008f 55010000 		.4byte	.LASF12
 2069 0093 04       		.uleb128 0x4
 2070 0094 21040000 		.4byte	.LASF13
 2071 0098 02       		.byte	0x2
 2072 0099 5D       		.byte	0x5d
 2073 009a 9E000000 		.4byte	0x9e
 2074 009e 02       		.uleb128 0x2
 2075 009f 01       		.byte	0x1
 2076 00a0 08       		.byte	0x8
 2077 00a1 02040000 		.4byte	.LASF14
 2078 00a5 05       		.uleb128 0x5
ARM GAS  C:\Users\karunmj\AppData\Local\Temp\ccOxugR9.s 			page 66


 2079 00a6 04       		.byte	0x4
 2080 00a7 07       		.byte	0x7
 2081 00a8 06       		.uleb128 0x6
 2082 00a9 01       		.byte	0x1
 2083 00aa 54040000 		.4byte	.LASF15
 2084 00ae 01       		.byte	0x1
 2085 00af 49       		.byte	0x49
 2086 00b0 01       		.byte	0x1
 2087 00b1 00000000 		.4byte	.LFB0
 2088 00b5 2A000000 		.4byte	.LFE0
 2089 00b9 00000000 		.4byte	.LLST0
 2090 00bd 06       		.uleb128 0x6
 2091 00be 01       		.byte	0x1
 2092 00bf 06030000 		.4byte	.LASF16
 2093 00c3 01       		.byte	0x1
 2094 00c4 65       		.byte	0x65
 2095 00c5 01       		.byte	0x1
 2096 00c6 00000000 		.4byte	.LFB1
 2097 00ca 64000000 		.4byte	.LFE1
 2098 00ce 2B000000 		.4byte	.LLST1
 2099 00d2 07       		.uleb128 0x7
 2100 00d3 01       		.byte	0x1
 2101 00d4 9D030000 		.4byte	.LASF17
 2102 00d8 01       		.byte	0x1
 2103 00d9 AE       		.byte	0xae
 2104 00da 01       		.byte	0x1
 2105 00db 00000000 		.4byte	.LFB2
 2106 00df 76000000 		.4byte	.LFE2
 2107 00e3 56000000 		.4byte	.LLST2
 2108 00e7 FA000000 		.4byte	0xfa
 2109 00eb 08       		.uleb128 0x8
 2110 00ec 3C040000 		.4byte	.LASF19
 2111 00f0 01       		.byte	0x1
 2112 00f1 B0       		.byte	0xb0
 2113 00f2 6F000000 		.4byte	0x6f
 2114 00f6 02       		.byte	0x2
 2115 00f7 91       		.byte	0x91
 2116 00f8 77       		.sleb128 -9
 2117 00f9 00       		.byte	0x0
 2118 00fa 07       		.uleb128 0x7
 2119 00fb 01       		.byte	0x1
 2120 00fc 34010000 		.4byte	.LASF18
 2121 0100 01       		.byte	0x1
 2122 0101 E3       		.byte	0xe3
 2123 0102 01       		.byte	0x1
 2124 0103 00000000 		.4byte	.LFB3
 2125 0107 70000000 		.4byte	.LFE3
 2126 010b 8D000000 		.4byte	.LLST3
 2127 010f 22010000 		.4byte	0x122
 2128 0113 08       		.uleb128 0x8
 2129 0114 3C040000 		.4byte	.LASF19
 2130 0118 01       		.byte	0x1
 2131 0119 E5       		.byte	0xe5
 2132 011a 6F000000 		.4byte	0x6f
 2133 011e 02       		.byte	0x2
 2134 011f 91       		.byte	0x91
 2135 0120 77       		.sleb128 -9
ARM GAS  C:\Users\karunmj\AppData\Local\Temp\ccOxugR9.s 			page 67


 2136 0121 00       		.byte	0x0
 2137 0122 09       		.uleb128 0x9
 2138 0123 01       		.byte	0x1
 2139 0124 8B020000 		.4byte	.LASF30
 2140 0128 01       		.byte	0x1
 2141 0129 1901     		.2byte	0x119
 2142 012b 01       		.byte	0x1
 2143 012c 6F000000 		.4byte	0x6f
 2144 0130 00000000 		.4byte	.LFB4
 2145 0134 18000000 		.4byte	.LFE4
 2146 0138 C4000000 		.4byte	.LLST4
 2147 013c 0A       		.uleb128 0xa
 2148 013d 01       		.byte	0x1
 2149 013e 18030000 		.4byte	.LASF20
 2150 0142 01       		.byte	0x1
 2151 0143 3101     		.2byte	0x131
 2152 0145 01       		.byte	0x1
 2153 0146 00000000 		.4byte	.LFB5
 2154 014a 20000000 		.4byte	.LFE5
 2155 014e EF000000 		.4byte	.LLST5
 2156 0152 66010000 		.4byte	0x166
 2157 0156 0B       		.uleb128 0xb
 2158 0157 7D010000 		.4byte	.LASF22
 2159 015b 01       		.byte	0x1
 2160 015c 3101     		.2byte	0x131
 2161 015e 6F000000 		.4byte	0x6f
 2162 0162 02       		.byte	0x2
 2163 0163 91       		.byte	0x91
 2164 0164 77       		.sleb128 -9
 2165 0165 00       		.byte	0x0
 2166 0166 0A       		.uleb128 0xa
 2167 0167 01       		.byte	0x1
 2168 0168 85010000 		.4byte	.LASF21
 2169 016c 01       		.byte	0x1
 2170 016d 8101     		.2byte	0x181
 2171 016f 01       		.byte	0x1
 2172 0170 00000000 		.4byte	.LFB6
 2173 0174 20000000 		.4byte	.LFE6
 2174 0178 26010000 		.4byte	.LLST6
 2175 017c 90010000 		.4byte	0x190
 2176 0180 0B       		.uleb128 0xb
 2177 0181 64020000 		.4byte	.LASF23
 2178 0185 01       		.byte	0x1
 2179 0186 8101     		.2byte	0x181
 2180 0188 6F000000 		.4byte	0x6f
 2181 018c 02       		.byte	0x2
 2182 018d 91       		.byte	0x91
 2183 018e 77       		.sleb128 -9
 2184 018f 00       		.byte	0x0
 2185 0190 0C       		.uleb128 0xc
 2186 0191 01       		.byte	0x1
 2187 0192 2B020000 		.4byte	.LASF25
 2188 0196 01       		.byte	0x1
 2189 0197 A201     		.2byte	0x1a2
 2190 0199 01       		.byte	0x1
 2191 019a 6F000000 		.4byte	0x6f
 2192 019e 00000000 		.4byte	.LFB7
ARM GAS  C:\Users\karunmj\AppData\Local\Temp\ccOxugR9.s 			page 68


 2193 01a2 20000000 		.4byte	.LFE7
 2194 01a6 5D010000 		.4byte	.LLST7
 2195 01aa BE010000 		.4byte	0x1be
 2196 01ae 0D       		.uleb128 0xd
 2197 01af C5030000 		.4byte	.LASF24
 2198 01b3 01       		.byte	0x1
 2199 01b4 A401     		.2byte	0x1a4
 2200 01b6 6F000000 		.4byte	0x6f
 2201 01ba 02       		.byte	0x2
 2202 01bb 91       		.byte	0x91
 2203 01bc 77       		.sleb128 -9
 2204 01bd 00       		.byte	0x0
 2205 01be 0C       		.uleb128 0xc
 2206 01bf 01       		.byte	0x1
 2207 01c0 07040000 		.4byte	.LASF26
 2208 01c4 01       		.byte	0x1
 2209 01c5 FD01     		.2byte	0x1fd
 2210 01c7 01       		.byte	0x1
 2211 01c8 6F000000 		.4byte	0x6f
 2212 01cc 00000000 		.4byte	.LFB8
 2213 01d0 26000000 		.4byte	.LFE8
 2214 01d4 94010000 		.4byte	.LLST8
 2215 01d8 EC010000 		.4byte	0x1ec
 2216 01dc 0D       		.uleb128 0xd
 2217 01dd 4D040000 		.4byte	.LASF27
 2218 01e1 01       		.byte	0x1
 2219 01e2 FF01     		.2byte	0x1ff
 2220 01e4 6F000000 		.4byte	0x6f
 2221 01e8 02       		.byte	0x2
 2222 01e9 91       		.byte	0x91
 2223 01ea 77       		.sleb128 -9
 2224 01eb 00       		.byte	0x0
 2225 01ec 0C       		.uleb128 0xc
 2226 01ed 01       		.byte	0x1
 2227 01ee 27040000 		.4byte	.LASF28
 2228 01f2 01       		.byte	0x1
 2229 01f3 2C02     		.2byte	0x22c
 2230 01f5 01       		.byte	0x1
 2231 01f6 6F000000 		.4byte	0x6f
 2232 01fa 00000000 		.4byte	.LFB9
 2233 01fe 4C000000 		.4byte	.LFE9
 2234 0202 CB010000 		.4byte	.LLST9
 2235 0206 29020000 		.4byte	0x229
 2236 020a 0D       		.uleb128 0xd
 2237 020b C5030000 		.4byte	.LASF24
 2238 020f 01       		.byte	0x1
 2239 0210 2E02     		.2byte	0x22e
 2240 0212 6F000000 		.4byte	0x6f
 2241 0216 02       		.byte	0x2
 2242 0217 91       		.byte	0x91
 2243 0218 76       		.sleb128 -10
 2244 0219 0D       		.uleb128 0xd
 2245 021a FD020000 		.4byte	.LASF29
 2246 021e 01       		.byte	0x1
 2247 021f 2F02     		.2byte	0x22f
 2248 0221 6F000000 		.4byte	0x6f
 2249 0225 02       		.byte	0x2
ARM GAS  C:\Users\karunmj\AppData\Local\Temp\ccOxugR9.s 			page 69


 2250 0226 91       		.byte	0x91
 2251 0227 77       		.sleb128 -9
 2252 0228 00       		.byte	0x0
 2253 0229 09       		.uleb128 0x9
 2254 022a 01       		.byte	0x1
 2255 022b CC010000 		.4byte	.LASF31
 2256 022f 01       		.byte	0x1
 2257 0230 9202     		.2byte	0x292
 2258 0232 01       		.byte	0x1
 2259 0233 7A000000 		.4byte	0x7a
 2260 0237 00000000 		.4byte	.LFB10
 2261 023b 24000000 		.4byte	.LFE10
 2262 023f 02020000 		.4byte	.LLST10
 2263 0243 0C       		.uleb128 0xc
 2264 0244 01       		.byte	0x1
 2265 0245 F6010000 		.4byte	.LASF32
 2266 0249 01       		.byte	0x1
 2267 024a B302     		.2byte	0x2b3
 2268 024c 01       		.byte	0x1
 2269 024d 6F000000 		.4byte	0x6f
 2270 0251 00000000 		.4byte	.LFB11
 2271 0255 34000000 		.4byte	.LFE11
 2272 0259 2D020000 		.4byte	.LLST11
 2273 025d 71020000 		.4byte	0x271
 2274 0261 0D       		.uleb128 0xd
 2275 0262 13020000 		.4byte	.LASF33
 2276 0266 01       		.byte	0x1
 2277 0267 B602     		.2byte	0x2b6
 2278 0269 6F000000 		.4byte	0x6f
 2279 026d 02       		.byte	0x2
 2280 026e 91       		.byte	0x91
 2281 026f 77       		.sleb128 -9
 2282 0270 00       		.byte	0x0
 2283 0271 0A       		.uleb128 0xa
 2284 0272 01       		.byte	0x1
 2285 0273 EC000000 		.4byte	.LASF34
 2286 0277 01       		.byte	0x1
 2287 0278 0303     		.2byte	0x303
 2288 027a 01       		.byte	0x1
 2289 027b 00000000 		.4byte	.LFB12
 2290 027f 54000000 		.4byte	.LFE12
 2291 0283 64020000 		.4byte	.LLST12
 2292 0287 9B020000 		.4byte	0x29b
 2293 028b 0D       		.uleb128 0xd
 2294 028c 3C040000 		.4byte	.LASF19
 2295 0290 01       		.byte	0x1
 2296 0291 0503     		.2byte	0x305
 2297 0293 6F000000 		.4byte	0x6f
 2298 0297 02       		.byte	0x2
 2299 0298 91       		.byte	0x91
 2300 0299 77       		.sleb128 -9
 2301 029a 00       		.byte	0x0
 2302 029b 0A       		.uleb128 0xa
 2303 029c 01       		.byte	0x1
 2304 029d 21000000 		.4byte	.LASF35
 2305 02a1 01       		.byte	0x1
 2306 02a2 4003     		.2byte	0x340
ARM GAS  C:\Users\karunmj\AppData\Local\Temp\ccOxugR9.s 			page 70


 2307 02a4 01       		.byte	0x1
 2308 02a5 00000000 		.4byte	.LFB13
 2309 02a9 42000000 		.4byte	.LFE13
 2310 02ad 9B020000 		.4byte	.LLST13
 2311 02b1 D4020000 		.4byte	0x2d4
 2312 02b5 0B       		.uleb128 0xb
 2313 02b6 5C010000 		.4byte	.LASF36
 2314 02ba 01       		.byte	0x1
 2315 02bb 4003     		.2byte	0x340
 2316 02bd 6F000000 		.4byte	0x6f
 2317 02c1 02       		.byte	0x2
 2318 02c2 91       		.byte	0x91
 2319 02c3 6F       		.sleb128 -17
 2320 02c4 0D       		.uleb128 0xd
 2321 02c5 AC020000 		.4byte	.LASF37
 2322 02c9 01       		.byte	0x1
 2323 02ca 4703     		.2byte	0x347
 2324 02cc 6F000000 		.4byte	0x6f
 2325 02d0 02       		.byte	0x2
 2326 02d1 91       		.byte	0x91
 2327 02d2 77       		.sleb128 -9
 2328 02d3 00       		.byte	0x0
 2329 02d4 0A       		.uleb128 0xa
 2330 02d5 01       		.byte	0x1
 2331 02d6 CC030000 		.4byte	.LASF38
 2332 02da 01       		.byte	0x1
 2333 02db 6503     		.2byte	0x365
 2334 02dd 01       		.byte	0x1
 2335 02de 00000000 		.4byte	.LFB14
 2336 02e2 20000000 		.4byte	.LFE14
 2337 02e6 D2020000 		.4byte	.LLST14
 2338 02ea FE020000 		.4byte	0x2fe
 2339 02ee 0B       		.uleb128 0xb
 2340 02ef DA020000 		.4byte	.LASF39
 2341 02f3 01       		.byte	0x1
 2342 02f4 6503     		.2byte	0x365
 2343 02f6 6F000000 		.4byte	0x6f
 2344 02fa 02       		.byte	0x2
 2345 02fb 91       		.byte	0x91
 2346 02fc 77       		.sleb128 -9
 2347 02fd 00       		.byte	0x0
 2348 02fe 0A       		.uleb128 0xa
 2349 02ff 01       		.byte	0x1
 2350 0300 E7030000 		.4byte	.LASF40
 2351 0304 01       		.byte	0x1
 2352 0305 7A03     		.2byte	0x37a
 2353 0307 01       		.byte	0x1
 2354 0308 00000000 		.4byte	.LFB15
 2355 030c 20000000 		.4byte	.LFE15
 2356 0310 09030000 		.4byte	.LLST15
 2357 0314 28030000 		.4byte	0x328
 2358 0318 0B       		.uleb128 0xb
 2359 0319 DA020000 		.4byte	.LASF39
 2360 031d 01       		.byte	0x1
 2361 031e 7A03     		.2byte	0x37a
 2362 0320 6F000000 		.4byte	0x6f
 2363 0324 02       		.byte	0x2
ARM GAS  C:\Users\karunmj\AppData\Local\Temp\ccOxugR9.s 			page 71


 2364 0325 91       		.byte	0x91
 2365 0326 77       		.sleb128 -9
 2366 0327 00       		.byte	0x0
 2367 0328 0A       		.uleb128 0xa
 2368 0329 01       		.byte	0x1
 2369 032a 6B020000 		.4byte	.LASF41
 2370 032e 01       		.byte	0x1
 2371 032f C803     		.2byte	0x3c8
 2372 0331 01       		.byte	0x1
 2373 0332 00000000 		.4byte	.LFB16
 2374 0336 20000000 		.4byte	.LFE16
 2375 033a 40030000 		.4byte	.LLST16
 2376 033e 52030000 		.4byte	0x352
 2377 0342 0B       		.uleb128 0xb
 2378 0343 64020000 		.4byte	.LASF23
 2379 0347 01       		.byte	0x1
 2380 0348 C803     		.2byte	0x3c8
 2381 034a 6F000000 		.4byte	0x6f
 2382 034e 02       		.byte	0x2
 2383 034f 91       		.byte	0x91
 2384 0350 77       		.sleb128 -9
 2385 0351 00       		.byte	0x0
 2386 0352 0A       		.uleb128 0xa
 2387 0353 01       		.byte	0x1
 2388 0354 51000000 		.4byte	.LASF42
 2389 0358 01       		.byte	0x1
 2390 0359 EA03     		.2byte	0x3ea
 2391 035b 01       		.byte	0x1
 2392 035c 00000000 		.4byte	.LFB17
 2393 0360 2E000000 		.4byte	.LFE17
 2394 0364 77030000 		.4byte	.LLST17
 2395 0368 7C030000 		.4byte	0x37c
 2396 036c 0B       		.uleb128 0xb
 2397 036d 3F000000 		.4byte	.LASF43
 2398 0371 01       		.byte	0x1
 2399 0372 EA03     		.2byte	0x3ea
 2400 0374 6F000000 		.4byte	0x6f
 2401 0378 02       		.byte	0x2
 2402 0379 91       		.byte	0x91
 2403 037a 77       		.sleb128 -9
 2404 037b 00       		.byte	0x0
 2405 037c 09       		.uleb128 0x9
 2406 037d 01       		.byte	0x1
 2407 037e 00000000 		.4byte	.LASF44
 2408 0382 01       		.byte	0x1
 2409 0383 2E04     		.2byte	0x42e
 2410 0385 01       		.byte	0x1
 2411 0386 6F000000 		.4byte	0x6f
 2412 038a 00000000 		.4byte	.LFB18
 2413 038e 18000000 		.4byte	.LFE18
 2414 0392 AE030000 		.4byte	.LLST18
 2415 0396 0A       		.uleb128 0xa
 2416 0397 01       		.byte	0x1
 2417 0398 68010000 		.4byte	.LASF45
 2418 039c 01       		.byte	0x1
 2419 039d 5204     		.2byte	0x452
 2420 039f 01       		.byte	0x1
ARM GAS  C:\Users\karunmj\AppData\Local\Temp\ccOxugR9.s 			page 72


 2421 03a0 00000000 		.4byte	.LFB19
 2422 03a4 34000000 		.4byte	.LFE19
 2423 03a8 D9030000 		.4byte	.LLST19
 2424 03ac C0030000 		.4byte	0x3c0
 2425 03b0 0B       		.uleb128 0xb
 2426 03b1 3F000000 		.4byte	.LASF43
 2427 03b5 01       		.byte	0x1
 2428 03b6 5204     		.2byte	0x452
 2429 03b8 6F000000 		.4byte	0x6f
 2430 03bc 02       		.byte	0x2
 2431 03bd 91       		.byte	0x91
 2432 03be 77       		.sleb128 -9
 2433 03bf 00       		.byte	0x0
 2434 03c0 0A       		.uleb128 0xa
 2435 03c1 01       		.byte	0x1
 2436 03c2 43020000 		.4byte	.LASF46
 2437 03c6 01       		.byte	0x1
 2438 03c7 AE04     		.2byte	0x4ae
 2439 03c9 01       		.byte	0x1
 2440 03ca 00000000 		.4byte	.LFB20
 2441 03ce 48000000 		.4byte	.LFE20
 2442 03d2 10040000 		.4byte	.LLST20
 2443 03d6 F9030000 		.4byte	0x3f9
 2444 03da 0B       		.uleb128 0xb
 2445 03db 4A000000 		.4byte	.LASF47
 2446 03df 01       		.byte	0x1
 2447 03e0 AE04     		.2byte	0x4ae
 2448 03e2 F9030000 		.4byte	0x3f9
 2449 03e6 02       		.byte	0x2
 2450 03e7 91       		.byte	0x91
 2451 03e8 6C       		.sleb128 -20
 2452 03e9 0D       		.uleb128 0xd
 2453 03ea 7C040000 		.4byte	.LASF48
 2454 03ee 01       		.byte	0x1
 2455 03ef B004     		.2byte	0x4b0
 2456 03f1 7A000000 		.4byte	0x7a
 2457 03f5 02       		.byte	0x2
 2458 03f6 91       		.byte	0x91
 2459 03f7 76       		.sleb128 -10
 2460 03f8 00       		.byte	0x0
 2461 03f9 0E       		.uleb128 0xe
 2462 03fa 04       		.byte	0x4
 2463 03fb FF030000 		.4byte	0x3ff
 2464 03ff 0F       		.uleb128 0xf
 2465 0400 93000000 		.4byte	0x93
 2466 0404 0A       		.uleb128 0xa
 2467 0405 01       		.byte	0x1
 2468 0406 07010000 		.4byte	.LASF49
 2469 040a 01       		.byte	0x1
 2470 040b D404     		.2byte	0x4d4
 2471 040d 01       		.byte	0x1
 2472 040e 00000000 		.4byte	.LFB21
 2473 0412 46000000 		.4byte	.LFE21
 2474 0416 47040000 		.4byte	.LLST21
 2475 041a 4C040000 		.4byte	0x44c
 2476 041e 0B       		.uleb128 0xb
 2477 041f 4A000000 		.4byte	.LASF47
ARM GAS  C:\Users\karunmj\AppData\Local\Temp\ccOxugR9.s 			page 73


 2478 0423 01       		.byte	0x1
 2479 0424 D404     		.2byte	0x4d4
 2480 0426 4C040000 		.4byte	0x44c
 2481 042a 02       		.byte	0x2
 2482 042b 91       		.byte	0x91
 2483 042c 6C       		.sleb128 -20
 2484 042d 0B       		.uleb128 0xb
 2485 042e BB030000 		.4byte	.LASF50
 2486 0432 01       		.byte	0x1
 2487 0433 D404     		.2byte	0x4d4
 2488 0435 6F000000 		.4byte	0x6f
 2489 0439 02       		.byte	0x2
 2490 043a 91       		.byte	0x91
 2491 043b 6B       		.sleb128 -21
 2492 043c 0D       		.uleb128 0xd
 2493 043d 7C040000 		.4byte	.LASF48
 2494 0441 01       		.byte	0x1
 2495 0442 D704     		.2byte	0x4d7
 2496 0444 6F000000 		.4byte	0x6f
 2497 0448 02       		.byte	0x2
 2498 0449 91       		.byte	0x91
 2499 044a 77       		.sleb128 -9
 2500 044b 00       		.byte	0x0
 2501 044c 0E       		.uleb128 0xe
 2502 044d 04       		.byte	0x4
 2503 044e 52040000 		.4byte	0x452
 2504 0452 0F       		.uleb128 0xf
 2505 0453 6F000000 		.4byte	0x6f
 2506 0457 0A       		.uleb128 0xa
 2507 0458 01       		.byte	0x1
 2508 0459 E1010000 		.4byte	.LASF51
 2509 045d 01       		.byte	0x1
 2510 045e F904     		.2byte	0x4f9
 2511 0460 01       		.byte	0x1
 2512 0461 00000000 		.4byte	.LFB22
 2513 0465 38000000 		.4byte	.LFE22
 2514 0469 7E040000 		.4byte	.LLST22
 2515 046d 81040000 		.4byte	0x481
 2516 0471 0B       		.uleb128 0xb
 2517 0472 3F000000 		.4byte	.LASF43
 2518 0476 01       		.byte	0x1
 2519 0477 F904     		.2byte	0x4f9
 2520 0479 6F000000 		.4byte	0x6f
 2521 047d 02       		.byte	0x2
 2522 047e 91       		.byte	0x91
 2523 047f 77       		.sleb128 -9
 2524 0480 00       		.byte	0x0
 2525 0481 0C       		.uleb128 0xc
 2526 0482 01       		.byte	0x1
 2527 0483 8D000000 		.4byte	.LASF52
 2528 0487 01       		.byte	0x1
 2529 0488 1E05     		.2byte	0x51e
 2530 048a 01       		.byte	0x1
 2531 048b 6F000000 		.4byte	0x6f
 2532 048f 00000000 		.4byte	.LFB23
 2533 0493 4A000000 		.4byte	.LFE23
 2534 0497 B5040000 		.4byte	.LLST23
ARM GAS  C:\Users\karunmj\AppData\Local\Temp\ccOxugR9.s 			page 74


 2535 049b AF040000 		.4byte	0x4af
 2536 049f 0D       		.uleb128 0xd
 2537 04a0 13020000 		.4byte	.LASF33
 2538 04a4 01       		.byte	0x1
 2539 04a5 2105     		.2byte	0x521
 2540 04a7 6F000000 		.4byte	0x6f
 2541 04ab 02       		.byte	0x2
 2542 04ac 91       		.byte	0x91
 2543 04ad 77       		.sleb128 -9
 2544 04ae 00       		.byte	0x0
 2545 04af 0A       		.uleb128 0xa
 2546 04b0 01       		.byte	0x1
 2547 04b1 E2020000 		.4byte	.LASF53
 2548 04b5 01       		.byte	0x1
 2549 04b6 7405     		.2byte	0x574
 2550 04b8 01       		.byte	0x1
 2551 04b9 00000000 		.4byte	.LFB24
 2552 04bd 54000000 		.4byte	.LFE24
 2553 04c1 EC040000 		.4byte	.LLST24
 2554 04c5 D9040000 		.4byte	0x4d9
 2555 04c9 0D       		.uleb128 0xd
 2556 04ca 3C040000 		.4byte	.LASF19
 2557 04ce 01       		.byte	0x1
 2558 04cf 7605     		.2byte	0x576
 2559 04d1 6F000000 		.4byte	0x6f
 2560 04d5 02       		.byte	0x2
 2561 04d6 91       		.byte	0x91
 2562 04d7 77       		.sleb128 -9
 2563 04d8 00       		.byte	0x0
 2564 04d9 0A       		.uleb128 0xa
 2565 04da 01       		.byte	0x1
 2566 04db 1D010000 		.4byte	.LASF54
 2567 04df 01       		.byte	0x1
 2568 04e0 CD05     		.2byte	0x5cd
 2569 04e2 01       		.byte	0x1
 2570 04e3 00000000 		.4byte	.LFB25
 2571 04e7 CC000000 		.4byte	.LFE25
 2572 04eb 23050000 		.4byte	.LLST25
 2573 04ef 2E050000 		.4byte	0x52e
 2574 04f3 0B       		.uleb128 0xb
 2575 04f4 A5010000 		.4byte	.LASF55
 2576 04f8 01       		.byte	0x1
 2577 04f9 CD05     		.2byte	0x5cd
 2578 04fb 6F000000 		.4byte	0x6f
 2579 04ff 02       		.byte	0x2
 2580 0500 91       		.byte	0x91
 2581 0501 6F       		.sleb128 -17
 2582 0502 10       		.uleb128 0x10
 2583 0503 18000000 		.4byte	.LBB2
 2584 0507 C2000000 		.4byte	.LBE2
 2585 050b 0D       		.uleb128 0xd
 2586 050c B4020000 		.4byte	.LASF56
 2587 0510 01       		.byte	0x1
 2588 0511 D505     		.2byte	0x5d5
 2589 0513 6F000000 		.4byte	0x6f
 2590 0517 02       		.byte	0x2
 2591 0518 91       		.byte	0x91
ARM GAS  C:\Users\karunmj\AppData\Local\Temp\ccOxugR9.s 			page 75


 2592 0519 77       		.sleb128 -9
 2593 051a 0D       		.uleb128 0xd
 2594 051b 5A020000 		.4byte	.LASF57
 2595 051f 01       		.byte	0x1
 2596 0520 FB05     		.2byte	0x5fb
 2597 0522 6F000000 		.4byte	0x6f
 2598 0526 05       		.byte	0x5
 2599 0527 03       		.byte	0x3
 2600 0528 01000000 		.4byte	tx_period.2282
 2601 052c 00       		.byte	0x0
 2602 052d 00       		.byte	0x0
 2603 052e 0A       		.uleb128 0xa
 2604 052f 01       		.byte	0x1
 2605 0530 BC020000 		.4byte	.LASF58
 2606 0534 01       		.byte	0x1
 2607 0535 4606     		.2byte	0x646
 2608 0537 01       		.byte	0x1
 2609 0538 00000000 		.4byte	.LFB26
 2610 053c 3C000000 		.4byte	.LFE26
 2611 0540 5A050000 		.4byte	.LLST26
 2612 0544 58050000 		.4byte	0x558
 2613 0548 0B       		.uleb128 0xb
 2614 0549 5C010000 		.4byte	.LASF36
 2615 054d 01       		.byte	0x1
 2616 054e 4606     		.2byte	0x646
 2617 0550 6F000000 		.4byte	0x6f
 2618 0554 02       		.byte	0x2
 2619 0555 91       		.byte	0x91
 2620 0556 77       		.sleb128 -9
 2621 0557 00       		.byte	0x0
 2622 0558 11       		.uleb128 0x11
 2623 0559 67040000 		.4byte	.LASF62
 2624 055d 01       		.byte	0x1
 2625 055e 1C       		.byte	0x1c
 2626 055f 6F000000 		.4byte	0x6f
 2627 0563 01       		.byte	0x1
 2628 0564 05       		.byte	0x5
 2629 0565 03       		.byte	0x3
 2630 0566 00000000 		.4byte	uart_solinst_initVar
 2631 056a 00       		.byte	0x0
 2632              		.section	.debug_abbrev
 2633 0000 01       		.uleb128 0x1
 2634 0001 11       		.uleb128 0x11
 2635 0002 01       		.byte	0x1
 2636 0003 25       		.uleb128 0x25
 2637 0004 0E       		.uleb128 0xe
 2638 0005 13       		.uleb128 0x13
 2639 0006 0B       		.uleb128 0xb
 2640 0007 03       		.uleb128 0x3
 2641 0008 0E       		.uleb128 0xe
 2642 0009 1B       		.uleb128 0x1b
 2643 000a 0E       		.uleb128 0xe
 2644 000b 11       		.uleb128 0x11
 2645 000c 01       		.uleb128 0x1
 2646 000d 52       		.uleb128 0x52
 2647 000e 01       		.uleb128 0x1
 2648 000f 55       		.uleb128 0x55
ARM GAS  C:\Users\karunmj\AppData\Local\Temp\ccOxugR9.s 			page 76


 2649 0010 06       		.uleb128 0x6
 2650 0011 10       		.uleb128 0x10
 2651 0012 06       		.uleb128 0x6
 2652 0013 00       		.byte	0x0
 2653 0014 00       		.byte	0x0
 2654 0015 02       		.uleb128 0x2
 2655 0016 24       		.uleb128 0x24
 2656 0017 00       		.byte	0x0
 2657 0018 0B       		.uleb128 0xb
 2658 0019 0B       		.uleb128 0xb
 2659 001a 3E       		.uleb128 0x3e
 2660 001b 0B       		.uleb128 0xb
 2661 001c 03       		.uleb128 0x3
 2662 001d 0E       		.uleb128 0xe
 2663 001e 00       		.byte	0x0
 2664 001f 00       		.byte	0x0
 2665 0020 03       		.uleb128 0x3
 2666 0021 24       		.uleb128 0x24
 2667 0022 00       		.byte	0x0
 2668 0023 0B       		.uleb128 0xb
 2669 0024 0B       		.uleb128 0xb
 2670 0025 3E       		.uleb128 0x3e
 2671 0026 0B       		.uleb128 0xb
 2672 0027 03       		.uleb128 0x3
 2673 0028 08       		.uleb128 0x8
 2674 0029 00       		.byte	0x0
 2675 002a 00       		.byte	0x0
 2676 002b 04       		.uleb128 0x4
 2677 002c 16       		.uleb128 0x16
 2678 002d 00       		.byte	0x0
 2679 002e 03       		.uleb128 0x3
 2680 002f 0E       		.uleb128 0xe
 2681 0030 3A       		.uleb128 0x3a
 2682 0031 0B       		.uleb128 0xb
 2683 0032 3B       		.uleb128 0x3b
 2684 0033 0B       		.uleb128 0xb
 2685 0034 49       		.uleb128 0x49
 2686 0035 13       		.uleb128 0x13
 2687 0036 00       		.byte	0x0
 2688 0037 00       		.byte	0x0
 2689 0038 05       		.uleb128 0x5
 2690 0039 24       		.uleb128 0x24
 2691 003a 00       		.byte	0x0
 2692 003b 0B       		.uleb128 0xb
 2693 003c 0B       		.uleb128 0xb
 2694 003d 3E       		.uleb128 0x3e
 2695 003e 0B       		.uleb128 0xb
 2696 003f 00       		.byte	0x0
 2697 0040 00       		.byte	0x0
 2698 0041 06       		.uleb128 0x6
 2699 0042 2E       		.uleb128 0x2e
 2700 0043 00       		.byte	0x0
 2701 0044 3F       		.uleb128 0x3f
 2702 0045 0C       		.uleb128 0xc
 2703 0046 03       		.uleb128 0x3
 2704 0047 0E       		.uleb128 0xe
 2705 0048 3A       		.uleb128 0x3a
ARM GAS  C:\Users\karunmj\AppData\Local\Temp\ccOxugR9.s 			page 77


 2706 0049 0B       		.uleb128 0xb
 2707 004a 3B       		.uleb128 0x3b
 2708 004b 0B       		.uleb128 0xb
 2709 004c 27       		.uleb128 0x27
 2710 004d 0C       		.uleb128 0xc
 2711 004e 11       		.uleb128 0x11
 2712 004f 01       		.uleb128 0x1
 2713 0050 12       		.uleb128 0x12
 2714 0051 01       		.uleb128 0x1
 2715 0052 40       		.uleb128 0x40
 2716 0053 06       		.uleb128 0x6
 2717 0054 00       		.byte	0x0
 2718 0055 00       		.byte	0x0
 2719 0056 07       		.uleb128 0x7
 2720 0057 2E       		.uleb128 0x2e
 2721 0058 01       		.byte	0x1
 2722 0059 3F       		.uleb128 0x3f
 2723 005a 0C       		.uleb128 0xc
 2724 005b 03       		.uleb128 0x3
 2725 005c 0E       		.uleb128 0xe
 2726 005d 3A       		.uleb128 0x3a
 2727 005e 0B       		.uleb128 0xb
 2728 005f 3B       		.uleb128 0x3b
 2729 0060 0B       		.uleb128 0xb
 2730 0061 27       		.uleb128 0x27
 2731 0062 0C       		.uleb128 0xc
 2732 0063 11       		.uleb128 0x11
 2733 0064 01       		.uleb128 0x1
 2734 0065 12       		.uleb128 0x12
 2735 0066 01       		.uleb128 0x1
 2736 0067 40       		.uleb128 0x40
 2737 0068 06       		.uleb128 0x6
 2738 0069 01       		.uleb128 0x1
 2739 006a 13       		.uleb128 0x13
 2740 006b 00       		.byte	0x0
 2741 006c 00       		.byte	0x0
 2742 006d 08       		.uleb128 0x8
 2743 006e 34       		.uleb128 0x34
 2744 006f 00       		.byte	0x0
 2745 0070 03       		.uleb128 0x3
 2746 0071 0E       		.uleb128 0xe
 2747 0072 3A       		.uleb128 0x3a
 2748 0073 0B       		.uleb128 0xb
 2749 0074 3B       		.uleb128 0x3b
 2750 0075 0B       		.uleb128 0xb
 2751 0076 49       		.uleb128 0x49
 2752 0077 13       		.uleb128 0x13
 2753 0078 02       		.uleb128 0x2
 2754 0079 0A       		.uleb128 0xa
 2755 007a 00       		.byte	0x0
 2756 007b 00       		.byte	0x0
 2757 007c 09       		.uleb128 0x9
 2758 007d 2E       		.uleb128 0x2e
 2759 007e 00       		.byte	0x0
 2760 007f 3F       		.uleb128 0x3f
 2761 0080 0C       		.uleb128 0xc
 2762 0081 03       		.uleb128 0x3
ARM GAS  C:\Users\karunmj\AppData\Local\Temp\ccOxugR9.s 			page 78


 2763 0082 0E       		.uleb128 0xe
 2764 0083 3A       		.uleb128 0x3a
 2765 0084 0B       		.uleb128 0xb
 2766 0085 3B       		.uleb128 0x3b
 2767 0086 05       		.uleb128 0x5
 2768 0087 27       		.uleb128 0x27
 2769 0088 0C       		.uleb128 0xc
 2770 0089 49       		.uleb128 0x49
 2771 008a 13       		.uleb128 0x13
 2772 008b 11       		.uleb128 0x11
 2773 008c 01       		.uleb128 0x1
 2774 008d 12       		.uleb128 0x12
 2775 008e 01       		.uleb128 0x1
 2776 008f 40       		.uleb128 0x40
 2777 0090 06       		.uleb128 0x6
 2778 0091 00       		.byte	0x0
 2779 0092 00       		.byte	0x0
 2780 0093 0A       		.uleb128 0xa
 2781 0094 2E       		.uleb128 0x2e
 2782 0095 01       		.byte	0x1
 2783 0096 3F       		.uleb128 0x3f
 2784 0097 0C       		.uleb128 0xc
 2785 0098 03       		.uleb128 0x3
 2786 0099 0E       		.uleb128 0xe
 2787 009a 3A       		.uleb128 0x3a
 2788 009b 0B       		.uleb128 0xb
 2789 009c 3B       		.uleb128 0x3b
 2790 009d 05       		.uleb128 0x5
 2791 009e 27       		.uleb128 0x27
 2792 009f 0C       		.uleb128 0xc
 2793 00a0 11       		.uleb128 0x11
 2794 00a1 01       		.uleb128 0x1
 2795 00a2 12       		.uleb128 0x12
 2796 00a3 01       		.uleb128 0x1
 2797 00a4 40       		.uleb128 0x40
 2798 00a5 06       		.uleb128 0x6
 2799 00a6 01       		.uleb128 0x1
 2800 00a7 13       		.uleb128 0x13
 2801 00a8 00       		.byte	0x0
 2802 00a9 00       		.byte	0x0
 2803 00aa 0B       		.uleb128 0xb
 2804 00ab 05       		.uleb128 0x5
 2805 00ac 00       		.byte	0x0
 2806 00ad 03       		.uleb128 0x3
 2807 00ae 0E       		.uleb128 0xe
 2808 00af 3A       		.uleb128 0x3a
 2809 00b0 0B       		.uleb128 0xb
 2810 00b1 3B       		.uleb128 0x3b
 2811 00b2 05       		.uleb128 0x5
 2812 00b3 49       		.uleb128 0x49
 2813 00b4 13       		.uleb128 0x13
 2814 00b5 02       		.uleb128 0x2
 2815 00b6 0A       		.uleb128 0xa
 2816 00b7 00       		.byte	0x0
 2817 00b8 00       		.byte	0x0
 2818 00b9 0C       		.uleb128 0xc
 2819 00ba 2E       		.uleb128 0x2e
ARM GAS  C:\Users\karunmj\AppData\Local\Temp\ccOxugR9.s 			page 79


 2820 00bb 01       		.byte	0x1
 2821 00bc 3F       		.uleb128 0x3f
 2822 00bd 0C       		.uleb128 0xc
 2823 00be 03       		.uleb128 0x3
 2824 00bf 0E       		.uleb128 0xe
 2825 00c0 3A       		.uleb128 0x3a
 2826 00c1 0B       		.uleb128 0xb
 2827 00c2 3B       		.uleb128 0x3b
 2828 00c3 05       		.uleb128 0x5
 2829 00c4 27       		.uleb128 0x27
 2830 00c5 0C       		.uleb128 0xc
 2831 00c6 49       		.uleb128 0x49
 2832 00c7 13       		.uleb128 0x13
 2833 00c8 11       		.uleb128 0x11
 2834 00c9 01       		.uleb128 0x1
 2835 00ca 12       		.uleb128 0x12
 2836 00cb 01       		.uleb128 0x1
 2837 00cc 40       		.uleb128 0x40
 2838 00cd 06       		.uleb128 0x6
 2839 00ce 01       		.uleb128 0x1
 2840 00cf 13       		.uleb128 0x13
 2841 00d0 00       		.byte	0x0
 2842 00d1 00       		.byte	0x0
 2843 00d2 0D       		.uleb128 0xd
 2844 00d3 34       		.uleb128 0x34
 2845 00d4 00       		.byte	0x0
 2846 00d5 03       		.uleb128 0x3
 2847 00d6 0E       		.uleb128 0xe
 2848 00d7 3A       		.uleb128 0x3a
 2849 00d8 0B       		.uleb128 0xb
 2850 00d9 3B       		.uleb128 0x3b
 2851 00da 05       		.uleb128 0x5
 2852 00db 49       		.uleb128 0x49
 2853 00dc 13       		.uleb128 0x13
 2854 00dd 02       		.uleb128 0x2
 2855 00de 0A       		.uleb128 0xa
 2856 00df 00       		.byte	0x0
 2857 00e0 00       		.byte	0x0
 2858 00e1 0E       		.uleb128 0xe
 2859 00e2 0F       		.uleb128 0xf
 2860 00e3 00       		.byte	0x0
 2861 00e4 0B       		.uleb128 0xb
 2862 00e5 0B       		.uleb128 0xb
 2863 00e6 49       		.uleb128 0x49
 2864 00e7 13       		.uleb128 0x13
 2865 00e8 00       		.byte	0x0
 2866 00e9 00       		.byte	0x0
 2867 00ea 0F       		.uleb128 0xf
 2868 00eb 26       		.uleb128 0x26
 2869 00ec 00       		.byte	0x0
 2870 00ed 49       		.uleb128 0x49
 2871 00ee 13       		.uleb128 0x13
 2872 00ef 00       		.byte	0x0
 2873 00f0 00       		.byte	0x0
 2874 00f1 10       		.uleb128 0x10
 2875 00f2 0B       		.uleb128 0xb
 2876 00f3 01       		.byte	0x1
ARM GAS  C:\Users\karunmj\AppData\Local\Temp\ccOxugR9.s 			page 80


 2877 00f4 11       		.uleb128 0x11
 2878 00f5 01       		.uleb128 0x1
 2879 00f6 12       		.uleb128 0x12
 2880 00f7 01       		.uleb128 0x1
 2881 00f8 00       		.byte	0x0
 2882 00f9 00       		.byte	0x0
 2883 00fa 11       		.uleb128 0x11
 2884 00fb 34       		.uleb128 0x34
 2885 00fc 00       		.byte	0x0
 2886 00fd 03       		.uleb128 0x3
 2887 00fe 0E       		.uleb128 0xe
 2888 00ff 3A       		.uleb128 0x3a
 2889 0100 0B       		.uleb128 0xb
 2890 0101 3B       		.uleb128 0x3b
 2891 0102 0B       		.uleb128 0xb
 2892 0103 49       		.uleb128 0x49
 2893 0104 13       		.uleb128 0x13
 2894 0105 3F       		.uleb128 0x3f
 2895 0106 0C       		.uleb128 0xc
 2896 0107 02       		.uleb128 0x2
 2897 0108 0A       		.uleb128 0xa
 2898 0109 00       		.byte	0x0
 2899 010a 00       		.byte	0x0
 2900 010b 00       		.byte	0x0
 2901              		.section	.debug_pubnames,"",%progbits
 2902 0000 40030000 		.4byte	0x340
 2903 0004 0200     		.2byte	0x2
 2904 0006 00000000 		.4byte	.Ldebug_info0
 2905 000a 6B050000 		.4byte	0x56b
 2906 000e A8000000 		.4byte	0xa8
 2907 0012 75617274 		.ascii	"uart_solinst_Start\000"
 2907      5F736F6C 
 2907      696E7374 
 2907      5F537461 
 2907      727400
 2908 0025 BD000000 		.4byte	0xbd
 2909 0029 75617274 		.ascii	"uart_solinst_Init\000"
 2909      5F736F6C 
 2909      696E7374 
 2909      5F496E69 
 2909      7400
 2910 003b D2000000 		.4byte	0xd2
 2911 003f 75617274 		.ascii	"uart_solinst_Enable\000"
 2911      5F736F6C 
 2911      696E7374 
 2911      5F456E61 
 2911      626C6500 
 2912 0053 FA000000 		.4byte	0xfa
 2913 0057 75617274 		.ascii	"uart_solinst_Stop\000"
 2913      5F736F6C 
 2913      696E7374 
 2913      5F53746F 
 2913      7000
 2914 0069 22010000 		.4byte	0x122
 2915 006d 75617274 		.ascii	"uart_solinst_ReadControlRegister\000"
 2915      5F736F6C 
 2915      696E7374 
ARM GAS  C:\Users\karunmj\AppData\Local\Temp\ccOxugR9.s 			page 81


 2915      5F526561 
 2915      64436F6E 
 2916 008e 3C010000 		.4byte	0x13c
 2917 0092 75617274 		.ascii	"uart_solinst_WriteControlRegister\000"
 2917      5F736F6C 
 2917      696E7374 
 2917      5F577269 
 2917      7465436F 
 2918 00b4 66010000 		.4byte	0x166
 2919 00b8 75617274 		.ascii	"uart_solinst_SetRxInterruptMode\000"
 2919      5F736F6C 
 2919      696E7374 
 2919      5F536574 
 2919      5278496E 
 2920 00d8 90010000 		.4byte	0x190
 2921 00dc 75617274 		.ascii	"uart_solinst_ReadRxData\000"
 2921      5F736F6C 
 2921      696E7374 
 2921      5F526561 
 2921      64527844 
 2922 00f4 BE010000 		.4byte	0x1be
 2923 00f8 75617274 		.ascii	"uart_solinst_ReadRxStatus\000"
 2923      5F736F6C 
 2923      696E7374 
 2923      5F526561 
 2923      64527853 
 2924 0112 EC010000 		.4byte	0x1ec
 2925 0116 75617274 		.ascii	"uart_solinst_GetChar\000"
 2925      5F736F6C 
 2925      696E7374 
 2925      5F476574 
 2925      43686172 
 2926 012b 29020000 		.4byte	0x229
 2927 012f 75617274 		.ascii	"uart_solinst_GetByte\000"
 2927      5F736F6C 
 2927      696E7374 
 2927      5F476574 
 2927      42797465 
 2928 0144 43020000 		.4byte	0x243
 2929 0148 75617274 		.ascii	"uart_solinst_GetRxBufferSize\000"
 2929      5F736F6C 
 2929      696E7374 
 2929      5F476574 
 2929      52784275 
 2930 0165 71020000 		.4byte	0x271
 2931 0169 75617274 		.ascii	"uart_solinst_ClearRxBuffer\000"
 2931      5F736F6C 
 2931      696E7374 
 2931      5F436C65 
 2931      61725278 
 2932 0184 9B020000 		.4byte	0x29b
 2933 0188 75617274 		.ascii	"uart_solinst_SetRxAddressMode\000"
 2933      5F736F6C 
 2933      696E7374 
 2933      5F536574 
 2933      52784164 
 2934 01a6 D4020000 		.4byte	0x2d4
ARM GAS  C:\Users\karunmj\AppData\Local\Temp\ccOxugR9.s 			page 82


 2935 01aa 75617274 		.ascii	"uart_solinst_SetRxAddress1\000"
 2935      5F736F6C 
 2935      696E7374 
 2935      5F536574 
 2935      52784164 
 2936 01c5 FE020000 		.4byte	0x2fe
 2937 01c9 75617274 		.ascii	"uart_solinst_SetRxAddress2\000"
 2937      5F736F6C 
 2937      696E7374 
 2937      5F536574 
 2937      52784164 
 2938 01e4 28030000 		.4byte	0x328
 2939 01e8 75617274 		.ascii	"uart_solinst_SetTxInterruptMode\000"
 2939      5F736F6C 
 2939      696E7374 
 2939      5F536574 
 2939      5478496E 
 2940 0208 52030000 		.4byte	0x352
 2941 020c 75617274 		.ascii	"uart_solinst_WriteTxData\000"
 2941      5F736F6C 
 2941      696E7374 
 2941      5F577269 
 2941      74655478 
 2942 0225 7C030000 		.4byte	0x37c
 2943 0229 75617274 		.ascii	"uart_solinst_ReadTxStatus\000"
 2943      5F736F6C 
 2943      696E7374 
 2943      5F526561 
 2943      64547853 
 2944 0243 96030000 		.4byte	0x396
 2945 0247 75617274 		.ascii	"uart_solinst_PutChar\000"
 2945      5F736F6C 
 2945      696E7374 
 2945      5F507574 
 2945      43686172 
 2946 025c C0030000 		.4byte	0x3c0
 2947 0260 75617274 		.ascii	"uart_solinst_PutString\000"
 2947      5F736F6C 
 2947      696E7374 
 2947      5F507574 
 2947      53747269 
 2948 0277 04040000 		.4byte	0x404
 2949 027b 75617274 		.ascii	"uart_solinst_PutArray\000"
 2949      5F736F6C 
 2949      696E7374 
 2949      5F507574 
 2949      41727261 
 2950 0291 57040000 		.4byte	0x457
 2951 0295 75617274 		.ascii	"uart_solinst_PutCRLF\000"
 2951      5F736F6C 
 2951      696E7374 
 2951      5F507574 
 2951      43524C46 
 2952 02aa 81040000 		.4byte	0x481
 2953 02ae 75617274 		.ascii	"uart_solinst_GetTxBufferSize\000"
 2953      5F736F6C 
 2953      696E7374 
ARM GAS  C:\Users\karunmj\AppData\Local\Temp\ccOxugR9.s 			page 83


 2953      5F476574 
 2953      54784275 
 2954 02cb AF040000 		.4byte	0x4af
 2955 02cf 75617274 		.ascii	"uart_solinst_ClearTxBuffer\000"
 2955      5F736F6C 
 2955      696E7374 
 2955      5F436C65 
 2955      61725478 
 2956 02ea D9040000 		.4byte	0x4d9
 2957 02ee 75617274 		.ascii	"uart_solinst_SendBreak\000"
 2957      5F736F6C 
 2957      696E7374 
 2957      5F53656E 
 2957      64427265 
 2958 0305 2E050000 		.4byte	0x52e
 2959 0309 75617274 		.ascii	"uart_solinst_SetTxAddressMode\000"
 2959      5F736F6C 
 2959      696E7374 
 2959      5F536574 
 2959      54784164 
 2960 0327 58050000 		.4byte	0x558
 2961 032b 75617274 		.ascii	"uart_solinst_initVar\000"
 2961      5F736F6C 
 2961      696E7374 
 2961      5F696E69 
 2961      74566172 
 2962 0340 00000000 		.4byte	0x0
 2963              		.section	.debug_aranges,"",%progbits
 2964 0000 EC000000 		.4byte	0xec
 2965 0004 0200     		.2byte	0x2
 2966 0006 00000000 		.4byte	.Ldebug_info0
 2967 000a 04       		.byte	0x4
 2968 000b 00       		.byte	0x0
 2969 000c 0000     		.2byte	0x0
 2970 000e 0000     		.2byte	0x0
 2971 0010 00000000 		.4byte	.LFB0
 2972 0014 2A000000 		.4byte	.LFE0-.LFB0
 2973 0018 00000000 		.4byte	.LFB1
 2974 001c 64000000 		.4byte	.LFE1-.LFB1
 2975 0020 00000000 		.4byte	.LFB2
 2976 0024 76000000 		.4byte	.LFE2-.LFB2
 2977 0028 00000000 		.4byte	.LFB3
 2978 002c 70000000 		.4byte	.LFE3-.LFB3
 2979 0030 00000000 		.4byte	.LFB4
 2980 0034 18000000 		.4byte	.LFE4-.LFB4
 2981 0038 00000000 		.4byte	.LFB5
 2982 003c 20000000 		.4byte	.LFE5-.LFB5
 2983 0040 00000000 		.4byte	.LFB6
 2984 0044 20000000 		.4byte	.LFE6-.LFB6
 2985 0048 00000000 		.4byte	.LFB7
 2986 004c 20000000 		.4byte	.LFE7-.LFB7
 2987 0050 00000000 		.4byte	.LFB8
 2988 0054 26000000 		.4byte	.LFE8-.LFB8
 2989 0058 00000000 		.4byte	.LFB9
 2990 005c 4C000000 		.4byte	.LFE9-.LFB9
 2991 0060 00000000 		.4byte	.LFB10
 2992 0064 24000000 		.4byte	.LFE10-.LFB10
ARM GAS  C:\Users\karunmj\AppData\Local\Temp\ccOxugR9.s 			page 84


 2993 0068 00000000 		.4byte	.LFB11
 2994 006c 34000000 		.4byte	.LFE11-.LFB11
 2995 0070 00000000 		.4byte	.LFB12
 2996 0074 54000000 		.4byte	.LFE12-.LFB12
 2997 0078 00000000 		.4byte	.LFB13
 2998 007c 42000000 		.4byte	.LFE13-.LFB13
 2999 0080 00000000 		.4byte	.LFB14
 3000 0084 20000000 		.4byte	.LFE14-.LFB14
 3001 0088 00000000 		.4byte	.LFB15
 3002 008c 20000000 		.4byte	.LFE15-.LFB15
 3003 0090 00000000 		.4byte	.LFB16
 3004 0094 20000000 		.4byte	.LFE16-.LFB16
 3005 0098 00000000 		.4byte	.LFB17
 3006 009c 2E000000 		.4byte	.LFE17-.LFB17
 3007 00a0 00000000 		.4byte	.LFB18
 3008 00a4 18000000 		.4byte	.LFE18-.LFB18
 3009 00a8 00000000 		.4byte	.LFB19
 3010 00ac 34000000 		.4byte	.LFE19-.LFB19
 3011 00b0 00000000 		.4byte	.LFB20
 3012 00b4 48000000 		.4byte	.LFE20-.LFB20
 3013 00b8 00000000 		.4byte	.LFB21
 3014 00bc 46000000 		.4byte	.LFE21-.LFB21
 3015 00c0 00000000 		.4byte	.LFB22
 3016 00c4 38000000 		.4byte	.LFE22-.LFB22
 3017 00c8 00000000 		.4byte	.LFB23
 3018 00cc 4A000000 		.4byte	.LFE23-.LFB23
 3019 00d0 00000000 		.4byte	.LFB24
 3020 00d4 54000000 		.4byte	.LFE24-.LFB24
 3021 00d8 00000000 		.4byte	.LFB25
 3022 00dc CC000000 		.4byte	.LFE25-.LFB25
 3023 00e0 00000000 		.4byte	.LFB26
 3024 00e4 3C000000 		.4byte	.LFE26-.LFB26
 3025 00e8 00000000 		.4byte	0x0
 3026 00ec 00000000 		.4byte	0x0
 3027              		.section	.debug_ranges,"",%progbits
 3028              	.Ldebug_ranges0:
 3029 0000 00000000 		.4byte	.Ltext0
 3030 0004 00000000 		.4byte	.Letext0
 3031 0008 00000000 		.4byte	.LFB0
 3032 000c 2A000000 		.4byte	.LFE0
 3033 0010 00000000 		.4byte	.LFB1
 3034 0014 64000000 		.4byte	.LFE1
 3035 0018 00000000 		.4byte	.LFB2
 3036 001c 76000000 		.4byte	.LFE2
 3037 0020 00000000 		.4byte	.LFB3
 3038 0024 70000000 		.4byte	.LFE3
 3039 0028 00000000 		.4byte	.LFB4
 3040 002c 18000000 		.4byte	.LFE4
 3041 0030 00000000 		.4byte	.LFB5
 3042 0034 20000000 		.4byte	.LFE5
 3043 0038 00000000 		.4byte	.LFB6
 3044 003c 20000000 		.4byte	.LFE6
 3045 0040 00000000 		.4byte	.LFB7
 3046 0044 20000000 		.4byte	.LFE7
 3047 0048 00000000 		.4byte	.LFB8
 3048 004c 26000000 		.4byte	.LFE8
 3049 0050 00000000 		.4byte	.LFB9
ARM GAS  C:\Users\karunmj\AppData\Local\Temp\ccOxugR9.s 			page 85


 3050 0054 4C000000 		.4byte	.LFE9
 3051 0058 00000000 		.4byte	.LFB10
 3052 005c 24000000 		.4byte	.LFE10
 3053 0060 00000000 		.4byte	.LFB11
 3054 0064 34000000 		.4byte	.LFE11
 3055 0068 00000000 		.4byte	.LFB12
 3056 006c 54000000 		.4byte	.LFE12
 3057 0070 00000000 		.4byte	.LFB13
 3058 0074 42000000 		.4byte	.LFE13
 3059 0078 00000000 		.4byte	.LFB14
 3060 007c 20000000 		.4byte	.LFE14
 3061 0080 00000000 		.4byte	.LFB15
 3062 0084 20000000 		.4byte	.LFE15
 3063 0088 00000000 		.4byte	.LFB16
 3064 008c 20000000 		.4byte	.LFE16
 3065 0090 00000000 		.4byte	.LFB17
 3066 0094 2E000000 		.4byte	.LFE17
 3067 0098 00000000 		.4byte	.LFB18
 3068 009c 18000000 		.4byte	.LFE18
 3069 00a0 00000000 		.4byte	.LFB19
 3070 00a4 34000000 		.4byte	.LFE19
 3071 00a8 00000000 		.4byte	.LFB20
 3072 00ac 48000000 		.4byte	.LFE20
 3073 00b0 00000000 		.4byte	.LFB21
 3074 00b4 46000000 		.4byte	.LFE21
 3075 00b8 00000000 		.4byte	.LFB22
 3076 00bc 38000000 		.4byte	.LFE22
 3077 00c0 00000000 		.4byte	.LFB23
 3078 00c4 4A000000 		.4byte	.LFE23
 3079 00c8 00000000 		.4byte	.LFB24
 3080 00cc 54000000 		.4byte	.LFE24
 3081 00d0 00000000 		.4byte	.LFB25
 3082 00d4 CC000000 		.4byte	.LFE25
 3083 00d8 00000000 		.4byte	.LFB26
 3084 00dc 3C000000 		.4byte	.LFE26
 3085 00e0 00000000 		.4byte	0x0
 3086 00e4 00000000 		.4byte	0x0
 3087              		.section	.debug_str,"MS",%progbits,1
 3088              	.LASF44:
 3089 0000 75617274 		.ascii	"uart_solinst_ReadTxStatus\000"
 3089      5F736F6C 
 3089      696E7374 
 3089      5F526561 
 3089      64547853 
 3090              	.LASF10:
 3091 001a 75696E74 		.ascii	"uint16\000"
 3091      313600
 3092              	.LASF35:
 3093 0021 75617274 		.ascii	"uart_solinst_SetRxAddressMode\000"
 3093      5F736F6C 
 3093      696E7374 
 3093      5F536574 
 3093      52784164 
 3094              	.LASF43:
 3095 003f 74784461 		.ascii	"txDataByte\000"
 3095      74614279 
 3095      746500
ARM GAS  C:\Users\karunmj\AppData\Local\Temp\ccOxugR9.s 			page 86


 3096              	.LASF47:
 3097 004a 73747269 		.ascii	"string\000"
 3097      6E6700
 3098              	.LASF42:
 3099 0051 75617274 		.ascii	"uart_solinst_WriteTxData\000"
 3099      5F736F6C 
 3099      696E7374 
 3099      5F577269 
 3099      74655478 
 3100              	.LASF7:
 3101 006a 6C6F6E67 		.ascii	"long long unsigned int\000"
 3101      206C6F6E 
 3101      6720756E 
 3101      7369676E 
 3101      65642069 
 3102              	.LASF59:
 3103 0081 474E5520 		.ascii	"GNU C 4.4.1\000"
 3103      4320342E 
 3103      342E3100 
 3104              	.LASF52:
 3105 008d 75617274 		.ascii	"uart_solinst_GetTxBufferSize\000"
 3105      5F736F6C 
 3105      696E7374 
 3105      5F476574 
 3105      54784275 
 3106              	.LASF6:
 3107 00aa 6C6F6E67 		.ascii	"long long int\000"
 3107      206C6F6E 
 3107      6720696E 
 3107      7400
 3108              	.LASF0:
 3109 00b8 7369676E 		.ascii	"signed char\000"
 3109      65642063 
 3109      68617200 
 3110              	.LASF60:
 3111 00c4 2E5C4765 		.ascii	".\\Generated_Source\\PSoC5\\uart_solinst.c\000"
 3111      6E657261 
 3111      7465645F 
 3111      536F7572 
 3111      63655C50 
 3112              	.LASF34:
 3113 00ec 75617274 		.ascii	"uart_solinst_ClearRxBuffer\000"
 3113      5F736F6C 
 3113      696E7374 
 3113      5F436C65 
 3113      61725278 
 3114              	.LASF49:
 3115 0107 75617274 		.ascii	"uart_solinst_PutArray\000"
 3115      5F736F6C 
 3115      696E7374 
 3115      5F507574 
 3115      41727261 
 3116              	.LASF54:
 3117 011d 75617274 		.ascii	"uart_solinst_SendBreak\000"
 3117      5F736F6C 
 3117      696E7374 
 3117      5F53656E 
ARM GAS  C:\Users\karunmj\AppData\Local\Temp\ccOxugR9.s 			page 87


 3117      64427265 
 3118              	.LASF18:
 3119 0134 75617274 		.ascii	"uart_solinst_Stop\000"
 3119      5F736F6C 
 3119      696E7374 
 3119      5F53746F 
 3119      7000
 3120              	.LASF4:
 3121 0146 6C6F6E67 		.ascii	"long int\000"
 3121      20696E74 
 3121      00
 3122              	.LASF9:
 3123 014f 75696E74 		.ascii	"uint8\000"
 3123      3800
 3124              	.LASF12:
 3125 0155 646F7562 		.ascii	"double\000"
 3125      6C6500
 3126              	.LASF36:
 3127 015c 61646472 		.ascii	"addressMode\000"
 3127      6573734D 
 3127      6F646500 
 3128              	.LASF45:
 3129 0168 75617274 		.ascii	"uart_solinst_PutChar\000"
 3129      5F736F6C 
 3129      696E7374 
 3129      5F507574 
 3129      43686172 
 3130              	.LASF22:
 3131 017d 636F6E74 		.ascii	"control\000"
 3131      726F6C00 
 3132              	.LASF21:
 3133 0185 75617274 		.ascii	"uart_solinst_SetRxInterruptMode\000"
 3133      5F736F6C 
 3133      696E7374 
 3133      5F536574 
 3133      5278496E 
 3134              	.LASF55:
 3135 01a5 7265744D 		.ascii	"retMode\000"
 3135      6F646500 
 3136              	.LASF8:
 3137 01ad 756E7369 		.ascii	"unsigned int\000"
 3137      676E6564 
 3137      20696E74 
 3137      00
 3138              	.LASF5:
 3139 01ba 6C6F6E67 		.ascii	"long unsigned int\000"
 3139      20756E73 
 3139      69676E65 
 3139      6420696E 
 3139      7400
 3140              	.LASF31:
 3141 01cc 75617274 		.ascii	"uart_solinst_GetByte\000"
 3141      5F736F6C 
 3141      696E7374 
 3141      5F476574 
 3141      42797465 
 3142              	.LASF51:
ARM GAS  C:\Users\karunmj\AppData\Local\Temp\ccOxugR9.s 			page 88


 3143 01e1 75617274 		.ascii	"uart_solinst_PutCRLF\000"
 3143      5F736F6C 
 3143      696E7374 
 3143      5F507574 
 3143      43524C46 
 3144              	.LASF32:
 3145 01f6 75617274 		.ascii	"uart_solinst_GetRxBufferSize\000"
 3145      5F736F6C 
 3145      696E7374 
 3145      5F476574 
 3145      52784275 
 3146              	.LASF33:
 3147 0213 73697A65 		.ascii	"size\000"
 3147      00
 3148              	.LASF3:
 3149 0218 73686F72 		.ascii	"short unsigned int\000"
 3149      7420756E 
 3149      7369676E 
 3149      65642069 
 3149      6E7400
 3150              	.LASF25:
 3151 022b 75617274 		.ascii	"uart_solinst_ReadRxData\000"
 3151      5F736F6C 
 3151      696E7374 
 3151      5F526561 
 3151      64527844 
 3152              	.LASF46:
 3153 0243 75617274 		.ascii	"uart_solinst_PutString\000"
 3153      5F736F6C 
 3153      696E7374 
 3153      5F507574 
 3153      53747269 
 3154              	.LASF57:
 3155 025a 74785F70 		.ascii	"tx_period\000"
 3155      6572696F 
 3155      6400
 3156              	.LASF23:
 3157 0264 696E7453 		.ascii	"intSrc\000"
 3157      726300
 3158              	.LASF41:
 3159 026b 75617274 		.ascii	"uart_solinst_SetTxInterruptMode\000"
 3159      5F736F6C 
 3159      696E7374 
 3159      5F536574 
 3159      5478496E 
 3160              	.LASF30:
 3161 028b 75617274 		.ascii	"uart_solinst_ReadControlRegister\000"
 3161      5F736F6C 
 3161      696E7374 
 3161      5F526561 
 3161      64436F6E 
 3162              	.LASF37:
 3163 02ac 746D7043 		.ascii	"tmpCtrl\000"
 3163      74726C00 
 3164              	.LASF56:
 3165 02b4 746D7053 		.ascii	"tmpStat\000"
 3165      74617400 
ARM GAS  C:\Users\karunmj\AppData\Local\Temp\ccOxugR9.s 			page 89


 3166              	.LASF58:
 3167 02bc 75617274 		.ascii	"uart_solinst_SetTxAddressMode\000"
 3167      5F736F6C 
 3167      696E7374 
 3167      5F536574 
 3167      54784164 
 3168              	.LASF39:
 3169 02da 61646472 		.ascii	"address\000"
 3169      65737300 
 3170              	.LASF53:
 3171 02e2 75617274 		.ascii	"uart_solinst_ClearTxBuffer\000"
 3171      5F736F6C 
 3171      696E7374 
 3171      5F436C65 
 3171      61725478 
 3172              	.LASF29:
 3173 02fd 72785374 		.ascii	"rxStatus\000"
 3173      61747573 
 3173      00
 3174              	.LASF16:
 3175 0306 75617274 		.ascii	"uart_solinst_Init\000"
 3175      5F736F6C 
 3175      696E7374 
 3175      5F496E69 
 3175      7400
 3176              	.LASF20:
 3177 0318 75617274 		.ascii	"uart_solinst_WriteControlRegister\000"
 3177      5F736F6C 
 3177      696E7374 
 3177      5F577269 
 3177      7465436F 
 3178              	.LASF11:
 3179 033a 666C6F61 		.ascii	"float\000"
 3179      7400
 3180              	.LASF61:
 3181 0340 433A5C55 		.ascii	"C:\\Users\\karunmj\\Documents\\GitHub\\m2m\\hardwar"
 3181      73657273 
 3181      5C6B6172 
 3181      756E6D6A 
 3181      5C446F63 
 3182 036d 655C7073 		.ascii	"e\\psoc5\\PSoC_Datalogger_SMS.cydsn\000"
 3182      6F63355C 
 3182      50536F43 
 3182      5F446174 
 3182      616C6F67 
 3183              	.LASF1:
 3184 038f 756E7369 		.ascii	"unsigned char\000"
 3184      676E6564 
 3184      20636861 
 3184      7200
 3185              	.LASF17:
 3186 039d 75617274 		.ascii	"uart_solinst_Enable\000"
 3186      5F736F6C 
 3186      696E7374 
 3186      5F456E61 
 3186      626C6500 
 3187              	.LASF2:
ARM GAS  C:\Users\karunmj\AppData\Local\Temp\ccOxugR9.s 			page 90


 3188 03b1 73686F72 		.ascii	"short int\000"
 3188      7420696E 
 3188      7400
 3189              	.LASF50:
 3190 03bb 62797465 		.ascii	"byteCount\000"
 3190      436F756E 
 3190      7400
 3191              	.LASF24:
 3192 03c5 72784461 		.ascii	"rxData\000"
 3192      746100
 3193              	.LASF38:
 3194 03cc 75617274 		.ascii	"uart_solinst_SetRxAddress1\000"
 3194      5F736F6C 
 3194      696E7374 
 3194      5F536574 
 3194      52784164 
 3195              	.LASF40:
 3196 03e7 75617274 		.ascii	"uart_solinst_SetRxAddress2\000"
 3196      5F736F6C 
 3196      696E7374 
 3196      5F536574 
 3196      52784164 
 3197              	.LASF14:
 3198 0402 63686172 		.ascii	"char\000"
 3198      00
 3199              	.LASF26:
 3200 0407 75617274 		.ascii	"uart_solinst_ReadRxStatus\000"
 3200      5F736F6C 
 3200      696E7374 
 3200      5F526561 
 3200      64527853 
 3201              	.LASF13:
 3202 0421 63686172 		.ascii	"char8\000"
 3202      3800
 3203              	.LASF28:
 3204 0427 75617274 		.ascii	"uart_solinst_GetChar\000"
 3204      5F736F6C 
 3204      696E7374 
 3204      5F476574 
 3204      43686172 
 3205              	.LASF19:
 3206 043c 656E6162 		.ascii	"enableInterrupts\000"
 3206      6C65496E 
 3206      74657272 
 3206      75707473 
 3206      00
 3207              	.LASF27:
 3208 044d 73746174 		.ascii	"status\000"
 3208      757300
 3209              	.LASF15:
 3210 0454 75617274 		.ascii	"uart_solinst_Start\000"
 3210      5F736F6C 
 3210      696E7374 
 3210      5F537461 
 3210      727400
 3211              	.LASF62:
 3212 0467 75617274 		.ascii	"uart_solinst_initVar\000"
ARM GAS  C:\Users\karunmj\AppData\Local\Temp\ccOxugR9.s 			page 91


 3212      5F736F6C 
 3212      696E7374 
 3212      5F696E69 
 3212      74566172 
 3213              	.LASF48:
 3214 047c 6275665F 		.ascii	"buf_index\000"
 3214      696E6465 
 3214      7800
 3215              		.ident	"GCC: (Sourcery G++ Lite 2010q1-188) 4.4.1"
