ARM GAS  C:\Users\karunmj\AppData\Local\Temp\ccWcGP4e.s 			page 1


   1              		.syntax unified
   2              		.cpu cortex-m3
   3              		.fpu softvfp
   4              		.eabi_attribute 20, 1
   5              		.eabi_attribute 21, 1
   6              		.eabi_attribute 23, 3
   7              		.eabi_attribute 24, 1
   8              		.eabi_attribute 25, 1
   9              		.eabi_attribute 26, 1
  10              		.eabi_attribute 30, 6
  11              		.eabi_attribute 18, 4
  12              		.thumb
  13              		.file	"ultrasonic.c"
  20 0000 21010000 		.text
  20      02006C00 
  20      00000201 
  20      FB0E0D00 
  20      01010101 
  21              	.Ltext0:
  22              		.cfi_sections	.debug_frame
  23              		.comm	uart_ultrasonic_received_string,128,4
  24              		.global	uart_ultrasonic_string_index
  25              		.bss
  26              		.type	uart_ultrasonic_string_index, %object
  27              		.size	uart_ultrasonic_string_index, 1
  28              	uart_ultrasonic_string_index:
  29 0000 00       		.space	1
  30              		.section	.text.ultrasonic_start,"ax",%progbits
  31              		.align	2
  32              		.global	ultrasonic_start
  33              		.thumb
  34              		.thumb_func
  35              		.type	ultrasonic_start, %function
  36              	ultrasonic_start:
  37              	.LFB29:
  38              		.file 1 ".\\ultrasonic.c"
   1:.\ultrasonic.c **** /* ========================================
   2:.\ultrasonic.c ****  *
   3:.\ultrasonic.c ****  * Copyright YOUR COMPANY, THE YEAR
   4:.\ultrasonic.c ****  * All Rights Reserved
   5:.\ultrasonic.c ****  * UNPUBLISHED, LICENSED SOFTWARE.
   6:.\ultrasonic.c ****  *
   7:.\ultrasonic.c ****  * CONFIDENTIAL AND PROPRIETARY INFORMATION
   8:.\ultrasonic.c ****  * WHICH IS THE PROPERTY OF your company.
   9:.\ultrasonic.c ****  *
  10:.\ultrasonic.c ****  * ========================================
  11:.\ultrasonic.c **** */
  12:.\ultrasonic.c **** #include "ultrasonic.h"
  13:.\ultrasonic.c **** #include "debug.h"
  14:.\ultrasonic.c **** 
  15:.\ultrasonic.c **** // prototype modem interrupt
ARM GAS  C:\Users\karunmj\AppData\Local\Temp\ccWcGP4e.s 			page 2


  16:.\ultrasonic.c **** CY_ISR_PROTO(isr_byte_ultrasonic_rx);
  17:.\ultrasonic.c **** 
  18:.\ultrasonic.c **** // Declare variables
  19:.\ultrasonic.c **** uint8 uart_ultrasonic_received_string[MAX_STRING_LENGTH];
  20:.\ultrasonic.c **** uint8 uart_ultrasonic_string_index = 0;
  21:.\ultrasonic.c **** //uint8 rx_char_hold;
  22:.\ultrasonic.c **** 
  23:.\ultrasonic.c **** 
  24:.\ultrasonic.c **** 
  25:.\ultrasonic.c **** // Start the UART
  26:.\ultrasonic.c **** void ultrasonic_start(){
  39              		.loc 1 26 0
  40              		.cfi_startproc
  41              		@ args = 0, pretend = 0, frame = 0
  42              		@ frame_needed = 1, uses_anonymous_args = 0
  43 0000 80B5     		push	{r7, lr}
  44              	.LCFI0:
  45              		.cfi_def_cfa_offset 8
  46 0002 00AF     		add	r7, sp, #0
  47              		.cfi_offset 14, -4
  48              		.cfi_offset 7, -8
  49              	.LCFI1:
  50              		.cfi_def_cfa_register 7
  27:.\ultrasonic.c ****     uart_ultrasonic_Start();
  51              		.loc 1 27 0
  52 0004 FFF7FEFF 		bl	uart_ultrasonic_Start
  28:.\ultrasonic.c **** }
  53              		.loc 1 28 0
  54 0008 80BD     		pop	{r7, pc}
  55              		.cfi_endproc
  56              	.LFE29:
  57              		.size	ultrasonic_start, .-ultrasonic_start
  58 000a 00BF     		.section	.text.ultrasonic_stop,"ax",%progbits
  59              		.align	2
  60              		.global	ultrasonic_stop
  61              		.thumb
  62              		.thumb_func
  63              		.type	ultrasonic_stop, %function
  64              	ultrasonic_stop:
  65              	.LFB30:
  29:.\ultrasonic.c **** // Stop the UART
  30:.\ultrasonic.c **** void ultrasonic_stop(){
  66              		.loc 1 30 0
  67              		.cfi_startproc
  68              		@ args = 0, pretend = 0, frame = 0
  69              		@ frame_needed = 1, uses_anonymous_args = 0
  70 0000 80B5     		push	{r7, lr}
  71              	.LCFI2:
  72              		.cfi_def_cfa_offset 8
  73 0002 00AF     		add	r7, sp, #0
  74              		.cfi_offset 14, -4
  75              		.cfi_offset 7, -8
  76              	.LCFI3:
  77              		.cfi_def_cfa_register 7
  31:.\ultrasonic.c ****     uart_ultrasonic_Stop();
  78              		.loc 1 31 0
  79 0004 FFF7FEFF 		bl	uart_ultrasonic_Stop
ARM GAS  C:\Users\karunmj\AppData\Local\Temp\ccWcGP4e.s 			page 3


  32:.\ultrasonic.c **** }
  80              		.loc 1 32 0
  81 0008 80BD     		pop	{r7, pc}
  82              		.cfi_endproc
  83              	.LFE30:
  84              		.size	ultrasonic_stop, .-ultrasonic_stop
  85 000a 00BF     		.section	.text.ultrasonic_power_on,"ax",%progbits
  86              		.align	2
  87              		.global	ultrasonic_power_on
  88              		.thumb
  89              		.thumb_func
  90              		.type	ultrasonic_power_on, %function
  91              	ultrasonic_power_on:
  92              	.LFB31:
  33:.\ultrasonic.c **** 
  34:.\ultrasonic.c **** 
  35:.\ultrasonic.c **** 
  36:.\ultrasonic.c **** // Provide power to the ultrasonic sensor
  37:.\ultrasonic.c **** uint8 ultrasonic_power_on(){
  93              		.loc 1 37 0
  94              		.cfi_startproc
  95              		@ args = 0, pretend = 0, frame = 0
  96              		@ frame_needed = 1, uses_anonymous_args = 0
  97 0000 80B5     		push	{r7, lr}
  98              	.LCFI4:
  99              		.cfi_def_cfa_offset 8
 100 0002 00AF     		add	r7, sp, #0
 101              		.cfi_offset 14, -4
 102              		.cfi_offset 7, -8
 103              	.LCFI5:
 104              		.cfi_def_cfa_register 7
  38:.\ultrasonic.c ****     ultrasonic_voltage_pin_Write(0u);
 105              		.loc 1 38 0
 106 0004 4FF00000 		mov	r0, #0
 107 0008 FFF7FEFF 		bl	ultrasonic_voltage_pin_Write
  39:.\ultrasonic.c ****     return 1u;
 108              		.loc 1 39 0
 109 000c 4FF00103 		mov	r3, #1
  40:.\ultrasonic.c **** }
 110              		.loc 1 40 0
 111 0010 1846     		mov	r0, r3
 112 0012 80BD     		pop	{r7, pc}
 113              		.cfi_endproc
 114              	.LFE31:
 115              		.size	ultrasonic_power_on, .-ultrasonic_power_on
 116              		.section	.text.ultrasonic_power_off,"ax",%progbits
 117              		.align	2
 118              		.global	ultrasonic_power_off
 119              		.thumb
 120              		.thumb_func
 121              		.type	ultrasonic_power_off, %function
 122              	ultrasonic_power_off:
 123              	.LFB32:
  41:.\ultrasonic.c **** // Cut power to the ultrasonic sensor
  42:.\ultrasonic.c **** uint8 ultrasonic_power_off(){
 124              		.loc 1 42 0
 125              		.cfi_startproc
ARM GAS  C:\Users\karunmj\AppData\Local\Temp\ccWcGP4e.s 			page 4


 126              		@ args = 0, pretend = 0, frame = 0
 127              		@ frame_needed = 1, uses_anonymous_args = 0
 128 0000 80B5     		push	{r7, lr}
 129              	.LCFI6:
 130              		.cfi_def_cfa_offset 8
 131 0002 00AF     		add	r7, sp, #0
 132              		.cfi_offset 14, -4
 133              		.cfi_offset 7, -8
 134              	.LCFI7:
 135              		.cfi_def_cfa_register 7
  43:.\ultrasonic.c ****     ultrasonic_voltage_pin_Write(1u);
 136              		.loc 1 43 0
 137 0004 4FF00100 		mov	r0, #1
 138 0008 FFF7FEFF 		bl	ultrasonic_voltage_pin_Write
  44:.\ultrasonic.c ****     return 0u;
 139              		.loc 1 44 0
 140 000c 4FF00003 		mov	r3, #0
  45:.\ultrasonic.c **** }
 141              		.loc 1 45 0
 142 0010 1846     		mov	r0, r3
 143 0012 80BD     		pop	{r7, pc}
 144              		.cfi_endproc
 145              	.LFE32:
 146              		.size	ultrasonic_power_off, .-ultrasonic_power_off
 147              		.global	__aeabi_d2f
 148              		.global	__aeabi_fcmpgt
 149              		.global	__aeabi_fdiv
 150              		.global	__aeabi_f2iz
 151              		.global	__aeabi_i2f
 152              		.section	.rodata
 153              		.align	2
 154              	.LC0:
 155 0000 556C7472 		.ascii	"Ultrasonic Warning.  depth > 5 digits.  Truncated d"
 155      61736F6E 
 155      69632057 
 155      61726E69 
 155      6E672E20 
 156 0033 65707468 		.ascii	"epth reported.\000"
 156      20726570 
 156      6F727465 
 156      642E00
 157 0042 0000     		.align	2
 158              	.LC1:
 159 0044 556C7472 		.ascii	"Ultrasonic No Reading Found.  R_count <= 7.\000"
 159      61736F6E 
 159      6963204E 
 159      6F205265 
 159      6164696E 
 160              		.align	2
 161              	.LC2:
 162 0070 556C7472 		.ascii	"Ultrasonic Invalid Reading.\000"
 162      61736F6E 
 162      69632049 
 162      6E76616C 
 162      69642052 
 163              		.section	.text.ultrasonic_get_reading,"ax",%progbits
 164              		.align	2
ARM GAS  C:\Users\karunmj\AppData\Local\Temp\ccWcGP4e.s 			page 5


 165              		.global	ultrasonic_get_reading
 166              		.thumb
 167              		.thumb_func
 168              		.type	ultrasonic_get_reading, %function
 169              	ultrasonic_get_reading:
 170              	.LFB33:
  46:.\ultrasonic.c **** 
  47:.\ultrasonic.c **** 
  48:.\ultrasonic.c **** 
  49:.\ultrasonic.c **** // Start ISR, Fill array, Return array, Stop ISR
  50:.\ultrasonic.c **** uint8 ultrasonic_get_reading(UltrasonicReading *reading) {
 171              		.loc 1 50 0
 172              		.cfi_startproc
 173              		@ args = 0, pretend = 0, frame = 32
 174              		@ frame_needed = 1, uses_anonymous_args = 0
 175 0000 90B5     		push	{r4, r7, lr}
 176              	.LCFI8:
 177              		.cfi_def_cfa_offset 12
 178 0002 89B0     		sub	sp, sp, #36
 179              	.LCFI9:
 180              		.cfi_def_cfa_offset 48
 181 0004 00AF     		add	r7, sp, #0
 182              		.cfi_offset 14, -4
 183              		.cfi_offset 7, -8
 184              		.cfi_offset 4, -12
 185              	.LCFI10:
 186              		.cfi_def_cfa_register 7
 187 0006 7860     		str	r0, [r7, #4]
  51:.\ultrasonic.c ****     
  52:.\ultrasonic.c ****     int i, index, R_count;
  53:.\ultrasonic.c ****     uint8 depth[DEPTH_STRING_LENGTH], s;
  54:.\ultrasonic.c **** 
  55:.\ultrasonic.c ****     // Reset variables
  56:.\ultrasonic.c ****     (*reading).valid = 0u;
 188              		.loc 1 56 0
 189 0008 7B68     		ldr	r3, [r7, #4]
 190 000a 4FF00002 		mov	r2, #0
 191 000e 1A72     		strb	r2, [r3, #8]
  57:.\ultrasonic.c ****     (*reading).temp = -9999;    
 192              		.loc 1 57 0
 193 0010 7B68     		ldr	r3, [r7, #4]
 194 0012 5D4A     		ldr	r2, .L24	@ float
 195 0014 1A60     		str	r2, [r3, #0]	@ float
  58:.\ultrasonic.c ****     (*reading).depth = -9999;
 196              		.loc 1 58 0
 197 0016 7B68     		ldr	r3, [r7, #4]
 198 0018 5B4A     		ldr	r2, .L24	@ float
 199 001a 5A60     		str	r2, [r3, #4]	@ float
  59:.\ultrasonic.c ****     void uart_ultrasonic_string_reset();
  60:.\ultrasonic.c **** 
  61:.\ultrasonic.c ****     isr_byte_ultrasonic_rx_StartEx(isr_byte_ultrasonic_rx); // Start the ISR to read the UART
 200              		.loc 1 61 0
 201 001c 40F20000 		movw	r0, #:lower16:isr_byte_ultrasonic_rx
 202 0020 C0F20000 		movt	r0, #:upper16:isr_byte_ultrasonic_rx
 203 0024 FFF7FEFF 		bl	isr_byte_ultrasonic_rx_StartEx
  62:.\ultrasonic.c ****     ultrasonic_power_on();                                  // Power on the sensor
 204              		.loc 1 62 0
ARM GAS  C:\Users\karunmj\AppData\Local\Temp\ccWcGP4e.s 			page 6


 205 0028 FFF7FEFF 		bl	ultrasonic_power_on
  63:.\ultrasonic.c ****     CyDelay(1500u);                                         // Wait for UART to get readings from s
 206              		.loc 1 63 0
 207 002c 40F2DC50 		movw	r0, #1500
 208 0030 FFF7FEFF 		bl	CyDelay
  64:.\ultrasonic.c ****     
  65:.\ultrasonic.c ****     isr_byte_ultrasonic_rx_Stop();                            // Stop the ISR to read the UART
 209              		.loc 1 65 0
 210 0034 FFF7FEFF 		bl	isr_byte_ultrasonic_rx_Stop
  66:.\ultrasonic.c ****     ultrasonic_power_off();                                 // Power off the sensor
 211              		.loc 1 66 0
 212 0038 FFF7FEFF 		bl	ultrasonic_power_off
  67:.\ultrasonic.c **** 
  68:.\ultrasonic.c ****     // store relevant strings to ultrasonic_packet
  69:.\ultrasonic.c ****     index = 0; R_count = 0;
 213              		.loc 1 69 0
 214 003c 4FF00003 		mov	r3, #0
 215 0040 7B61     		str	r3, [r7, #20]
 216 0042 4FF00003 		mov	r3, #0
 217 0046 BB61     		str	r3, [r7, #24]
  70:.\ultrasonic.c ****     for(i = 0; i < strlen(uart_ultrasonic_received_string); i++){
 218              		.loc 1 70 0
 219 0048 4FF00003 		mov	r3, #0
 220 004c 3B61     		str	r3, [r7, #16]
 221 004e 2AE0     		b	.L10
 222              	.L15:
  71:.\ultrasonic.c ****         s = uart_ultrasonic_received_string[i];
 223              		.loc 1 71 0
 224 0050 3A69     		ldr	r2, [r7, #16]
 225 0052 40F20003 		movw	r3, #:lower16:uart_ultrasonic_received_string
 226 0056 C0F20003 		movt	r3, #:upper16:uart_ultrasonic_received_string
 227 005a 9B5C     		ldrb	r3, [r3, r2]
 228 005c FB77     		strb	r3, [r7, #31]
  72:.\ultrasonic.c ****         
  73:.\ultrasonic.c ****         if(R_count > 7 && s == '\r'){
 229              		.loc 1 73 0
 230 005e BB69     		ldr	r3, [r7, #24]
 231 0060 072B     		cmp	r3, #7
 232 0062 07DD     		ble	.L11
 233 0064 FB7F     		ldrb	r3, [r7, #31]	@ zero_extendqisi2
 234 0066 0D2B     		cmp	r3, #13
 235 0068 04D1     		bne	.L11
  74:.\ultrasonic.c ****             (*reading).valid = 1u;
 236              		.loc 1 74 0
 237 006a 7B68     		ldr	r3, [r7, #4]
 238 006c 4FF00102 		mov	r2, #1
 239 0070 1A72     		strb	r2, [r3, #8]
  75:.\ultrasonic.c ****             break; 
 240              		.loc 1 75 0
 241 0072 22E0     		b	.L12
 242              	.L11:
  76:.\ultrasonic.c ****         }else if(R_count > 7){
 243              		.loc 1 76 0
 244 0074 BB69     		ldr	r3, [r7, #24]
 245 0076 072B     		cmp	r3, #7
 246 0078 0ADD     		ble	.L13
  77:.\ultrasonic.c ****             depth[index] = s;
ARM GAS  C:\Users\karunmj\AppData\Local\Temp\ccWcGP4e.s 			page 7


 247              		.loc 1 77 0
 248 007a 7B69     		ldr	r3, [r7, #20]
 249 007c 07F12002 		add	r2, r7, #32
 250 0080 1344     		add	r3, r2, r3
 251 0082 FA7F     		ldrb	r2, [r7, #31]
 252 0084 03F8142C 		strb	r2, [r3, #-20]
  78:.\ultrasonic.c ****             index++;
 253              		.loc 1 78 0
 254 0088 7B69     		ldr	r3, [r7, #20]
 255 008a 03F10103 		add	r3, r3, #1
 256 008e 7B61     		str	r3, [r7, #20]
 257              	.L13:
  79:.\ultrasonic.c ****         }
  80:.\ultrasonic.c ****         if(s == 'R'){
 258              		.loc 1 80 0
 259 0090 FB7F     		ldrb	r3, [r7, #31]	@ zero_extendqisi2
 260 0092 522B     		cmp	r3, #82
 261 0094 03D1     		bne	.L14
  81:.\ultrasonic.c ****             R_count++;      // increment everytime an "R" ascii character is encountered
 262              		.loc 1 81 0
 263 0096 BB69     		ldr	r3, [r7, #24]
 264 0098 03F10103 		add	r3, r3, #1
 265 009c BB61     		str	r3, [r7, #24]
 266              	.L14:
 267              		.loc 1 70 0
 268 009e 3B69     		ldr	r3, [r7, #16]
 269 00a0 03F10103 		add	r3, r3, #1
 270 00a4 3B61     		str	r3, [r7, #16]
 271              	.L10:
 272 00a6 3C69     		ldr	r4, [r7, #16]
 273 00a8 40F20000 		movw	r0, #:lower16:uart_ultrasonic_received_string
 274 00ac C0F20000 		movt	r0, #:upper16:uart_ultrasonic_received_string
 275 00b0 FFF7FEFF 		bl	strlen
 276 00b4 0346     		mov	r3, r0
 277 00b6 9C42     		cmp	r4, r3
 278 00b8 CAD3     		bcc	.L15
 279              	.L12:
  82:.\ultrasonic.c ****         }
  83:.\ultrasonic.c ****     }
  84:.\ultrasonic.c ****     
  85:.\ultrasonic.c ****     if ((*reading).valid) {
 280              		.loc 1 85 0
 281 00ba 7B68     		ldr	r3, [r7, #4]
 282 00bc 1B7A     		ldrb	r3, [r3, #8]	@ zero_extendqisi2
 283 00be 002B     		cmp	r3, #0
 284 00c0 3DD0     		beq	.L16
  86:.\ultrasonic.c ****         (*reading).depth = (float)atof(depth);
 285              		.loc 1 86 0
 286 00c2 07F10C03 		add	r3, r7, #12
 287 00c6 1846     		mov	r0, r3
 288 00c8 FFF7FEFF 		bl	atof
 289 00cc 0246     		mov	r2, r0
 290 00ce 0B46     		mov	r3, r1
 291 00d0 1046     		mov	r0, r2
 292 00d2 1946     		mov	r1, r3
 293 00d4 FFF7FEFF 		bl	__aeabi_d2f
 294 00d8 0246     		mov	r2, r0
ARM GAS  C:\Users\karunmj\AppData\Local\Temp\ccWcGP4e.s 			page 8


 295 00da 7B68     		ldr	r3, [r7, #4]
 296 00dc 5A60     		str	r2, [r3, #4]	@ float
  87:.\ultrasonic.c ****         if ((*reading).depth > 9999) { // Recorded depth greater than 4 digit spec... (eg 13582 vs 
 297              		.loc 1 87 0
 298 00de 7B68     		ldr	r3, [r7, #4]
 299 00e0 5B68     		ldr	r3, [r3, #4]	@ float
 300 00e2 4FF00002 		mov	r2, #0
 301 00e6 1446     		mov	r4, r2
 302 00e8 1846     		mov	r0, r3
 303 00ea 2849     		ldr	r1, .L24+4	@ float
 304 00ec FFF7FEFF 		bl	__aeabi_fcmpgt
 305 00f0 0346     		mov	r3, r0
 306 00f2 002B     		cmp	r3, #0
 307 00f4 02D0     		beq	.L17
 308              	.L18:
 309 00f6 4FF00103 		mov	r3, #1
 310 00fa 1C46     		mov	r4, r3
 311              	.L17:
 312 00fc E3B2     		uxtb	r3, r4
 313 00fe 002B     		cmp	r3, #0
 314 0100 3AD0     		beq	.L23
  88:.\ultrasonic.c ****             (*reading).depth = (float) (int)( (*reading).depth  / 10) ;
 315              		.loc 1 88 0
 316 0102 7B68     		ldr	r3, [r7, #4]
 317 0104 5B68     		ldr	r3, [r3, #4]	@ float
 318 0106 1846     		mov	r0, r3
 319 0108 2149     		ldr	r1, .L24+8	@ float
 320 010a FFF7FEFF 		bl	__aeabi_fdiv
 321 010e 0346     		mov	r3, r0
 322 0110 1846     		mov	r0, r3
 323 0112 FFF7FEFF 		bl	__aeabi_f2iz
 324 0116 0346     		mov	r3, r0
 325 0118 1846     		mov	r0, r3
 326 011a FFF7FEFF 		bl	__aeabi_i2f
 327 011e 0246     		mov	r2, r0
 328 0120 7B68     		ldr	r3, [r7, #4]
 329 0122 5A60     		str	r2, [r3, #4]	@ float
  89:.\ultrasonic.c ****             
  90:.\ultrasonic.c ****             debug_write("Ultrasonic Warning.  depth > 5 digits.  Truncated depth reported.");
 330              		.loc 1 90 0
 331 0124 40F20000 		movw	r0, #:lower16:.LC0
 332 0128 C0F20000 		movt	r0, #:upper16:.LC0
 333 012c FFF7FEFF 		bl	debug_write
  91:.\ultrasonic.c ****             debug_write(uart_ultrasonic_received_string);           
 334              		.loc 1 91 0
 335 0130 40F20000 		movw	r0, #:lower16:uart_ultrasonic_received_string
 336 0134 C0F20000 		movt	r0, #:upper16:uart_ultrasonic_received_string
 337 0138 FFF7FEFF 		bl	debug_write
 338 013c 1DE0     		b	.L20
 339              	.L16:
  92:.\ultrasonic.c ****         }
  93:.\ultrasonic.c ****     }    
  94:.\ultrasonic.c ****     else if(R_count <= 7){
 340              		.loc 1 94 0
 341 013e BB69     		ldr	r3, [r7, #24]
 342 0140 072B     		cmp	r3, #7
 343 0142 0CDC     		bgt	.L21
ARM GAS  C:\Users\karunmj\AppData\Local\Temp\ccWcGP4e.s 			page 9


  95:.\ultrasonic.c ****         debug_write("Ultrasonic No Reading Found.  R_count <= 7.");
 344              		.loc 1 95 0
 345 0144 40F20000 		movw	r0, #:lower16:.LC1
 346 0148 C0F20000 		movt	r0, #:upper16:.LC1
 347 014c FFF7FEFF 		bl	debug_write
  96:.\ultrasonic.c ****         debug_write(uart_ultrasonic_received_string);
 348              		.loc 1 96 0
 349 0150 40F20000 		movw	r0, #:lower16:uart_ultrasonic_received_string
 350 0154 C0F20000 		movt	r0, #:upper16:uart_ultrasonic_received_string
 351 0158 FFF7FEFF 		bl	debug_write
 352 015c 0DE0     		b	.L20
 353              	.L21:
  97:.\ultrasonic.c ****     }
  98:.\ultrasonic.c ****     else {
  99:.\ultrasonic.c ****         debug_write("Ultrasonic Invalid Reading.");
 354              		.loc 1 99 0
 355 015e 40F20000 		movw	r0, #:lower16:.LC2
 356 0162 C0F20000 		movt	r0, #:upper16:.LC2
 357 0166 FFF7FEFF 		bl	debug_write
 100:.\ultrasonic.c ****         debug_write(uart_ultrasonic_received_string);
 358              		.loc 1 100 0
 359 016a 40F20000 		movw	r0, #:lower16:uart_ultrasonic_received_string
 360 016e C0F20000 		movt	r0, #:upper16:uart_ultrasonic_received_string
 361 0172 FFF7FEFF 		bl	debug_write
 362 0176 00E0     		b	.L20
 363              	.L23:
 364              		.loc 1 91 0
 365 0178 00BF     		nop
 366              	.L20:
 101:.\ultrasonic.c ****     }
 102:.\ultrasonic.c ****     
 103:.\ultrasonic.c ****     return (*reading).valid;
 367              		.loc 1 103 0
 368 017a 7B68     		ldr	r3, [r7, #4]
 369 017c 1B7A     		ldrb	r3, [r3, #8]	@ zero_extendqisi2
 104:.\ultrasonic.c **** }
 370              		.loc 1 104 0
 371 017e 1846     		mov	r0, r3
 372 0180 07F12407 		add	r7, r7, #36
 373 0184 BD46     		mov	sp, r7
 374 0186 90BD     		pop	{r4, r7, pc}
 375              	.L25:
 376              		.align	2
 377              	.L24:
 378 0188 003C1CC6 		.word	-971228160
 379 018c 003C1C46 		.word	1176255488
 380 0190 00002041 		.word	1092616192
 381              		.cfi_endproc
 382              	.LFE33:
 383              		.size	ultrasonic_get_reading, .-ultrasonic_get_reading
 384              		.section	.text.uart_ultrasonic_string_reset,"ax",%progbits
 385              		.align	2
 386              		.global	uart_ultrasonic_string_reset
 387              		.thumb
 388              		.thumb_func
 389              		.type	uart_ultrasonic_string_reset, %function
 390              	uart_ultrasonic_string_reset:
ARM GAS  C:\Users\karunmj\AppData\Local\Temp\ccWcGP4e.s 			page 10


 391              	.LFB34:
 105:.\ultrasonic.c **** /*
 106:.\ultrasonic.c **** uint8 ultrasonic_read(uint8* ultrasonic_packet, uint8 ultrasonic_packet_size){
 107:.\ultrasonic.c ****     uint8 uart_ultrasonic_received_string[ultrasonic_packet_size];
 108:.\ultrasonic.c ****     uint8 i, j, r_count, rx_char;
 109:.\ultrasonic.c ****     
 110:.\ultrasonic.c ****     
 111:.\ultrasonic.c ****     isr_byte_ultrasonic_rx_StartEx(isr_byte_ultrasonic_rx); // Start the ISR to read the UART
 112:.\ultrasonic.c ****     ultrasonic_voltage_pin_Write(0u);                       // Power on the sensor
 113:.\ultrasonic.c ****     CyDelay(1000u);                                         // Wait for readings
 114:.\ultrasonic.c ****     
 115:.\ultrasonic.c ****     // store stream of characters in uart_ultrasonic_received_string
 116:.\ultrasonic.c ****     for(i = 0; i < ultrasonic_packet_size;){    
 117:.\ultrasonic.c ****         rx_char = uart_ultrasonic_GetChar();
 118:.\ultrasonic.c ****         if(rx_char){
 119:.\ultrasonic.c ****             uart_ultrasonic_received_string[i] = rx_char;
 120:.\ultrasonic.c ****             i++;
 121:.\ultrasonic.c ****         }
 122:.\ultrasonic.c ****     }
 123:.\ultrasonic.c ****     
 124:.\ultrasonic.c ****     // set all elements of ultrasonic_packet to zero
 125:.\ultrasonic.c ****     for(i = 0; i < ultrasonic_packet_size; i++){
 126:.\ultrasonic.c ****         ultrasonic_packet[i] = 0u;
 127:.\ultrasonic.c ****     }
 128:.\ultrasonic.c ****     
 129:.\ultrasonic.c ****     // store relavent strings to ultrasonic_packet
 130:.\ultrasonic.c ****     for(r_count = 0, i = 0, j = 0;r_count < 2;i++){
 131:.\ultrasonic.c ****         rx_char = uart_ultrasonic_received_string[i];
 132:.\ultrasonic.c ****         if(rx_char == 82u){
 133:.\ultrasonic.c ****             r_count++;      // increment everytime an "R" ascii character is encountered
 134:.\ultrasonic.c ****         }
 135:.\ultrasonic.c ****         if(r_count > 0){
 136:.\ultrasonic.c ****             ultrasonic_packet[j] = uart_ultrasonic_received_string[i];
 137:.\ultrasonic.c ****             j++;
 138:.\ultrasonic.c ****         }
 139:.\ultrasonic.c ****         if(i > ultrasonic_packet_size || j > 14){
 140:.\ultrasonic.c ****             return 0u; 
 141:.\ultrasonic.c ****         }
 142:.\ultrasonic.c ****     }
 143:.\ultrasonic.c ****     
 144:.\ultrasonic.c ****     ultrasonic_voltage_pin_Write(1u); // cut power to stop the sensing
 145:.\ultrasonic.c ****     return 1u; 
 146:.\ultrasonic.c **** }
 147:.\ultrasonic.c **** */
 148:.\ultrasonic.c **** void uart_ultrasonic_string_reset(){
 392              		.loc 1 148 0
 393              		.cfi_startproc
 394              		@ args = 0, pretend = 0, frame = 8
 395              		@ frame_needed = 1, uses_anonymous_args = 0
 396 0000 80B5     		push	{r7, lr}
 397              	.LCFI11:
 398              		.cfi_def_cfa_offset 8
 399 0002 82B0     		sub	sp, sp, #8
 400              	.LCFI12:
 401              		.cfi_def_cfa_offset 16
 402 0004 00AF     		add	r7, sp, #0
 403              		.cfi_offset 14, -4
ARM GAS  C:\Users\karunmj\AppData\Local\Temp\ccWcGP4e.s 			page 11


 404              		.cfi_offset 7, -8
 405              	.LCFI13:
 406              		.cfi_def_cfa_register 7
 149:.\ultrasonic.c ****     // reset uart_received_string to zero
 150:.\ultrasonic.c ****     uint8 i = 0;
 407              		.loc 1 150 0
 408 0006 4FF00003 		mov	r3, #0
 409 000a FB71     		strb	r3, [r7, #7]
 151:.\ultrasonic.c ****     
 152:.\ultrasonic.c ****     for(i = 0; i < MAX_STRING_LENGTH; i++){
 410              		.loc 1 152 0
 411 000c 4FF00003 		mov	r3, #0
 412 0010 FB71     		strb	r3, [r7, #7]
 413 0012 0BE0     		b	.L27
 414              	.L28:
 153:.\ultrasonic.c ****         uart_ultrasonic_received_string[i] = 0;
 415              		.loc 1 153 0
 416 0014 FA79     		ldrb	r2, [r7, #7]	@ zero_extendqisi2
 417 0016 40F20003 		movw	r3, #:lower16:uart_ultrasonic_received_string
 418 001a C0F20003 		movt	r3, #:upper16:uart_ultrasonic_received_string
 419 001e 4FF00001 		mov	r1, #0
 420 0022 9954     		strb	r1, [r3, r2]
 421              		.loc 1 152 0
 422 0024 FB79     		ldrb	r3, [r7, #7]
 423 0026 03F10103 		add	r3, r3, #1
 424 002a FB71     		strb	r3, [r7, #7]
 425              	.L27:
 426 002c FB79     		ldrb	r3, [r7, #7]	@ zero_extendqisi2
 427 002e 5BB2     		sxtb	r3, r3
 428 0030 002B     		cmp	r3, #0
 429 0032 EFDA     		bge	.L28
 154:.\ultrasonic.c ****     }
 155:.\ultrasonic.c ****     uart_ultrasonic_string_index = 0;
 430              		.loc 1 155 0
 431 0034 40F20003 		movw	r3, #:lower16:uart_ultrasonic_string_index
 432 0038 C0F20003 		movt	r3, #:upper16:uart_ultrasonic_string_index
 433 003c 4FF00002 		mov	r2, #0
 434 0040 1A70     		strb	r2, [r3, #0]
 156:.\ultrasonic.c ****     uart_ultrasonic_ClearRxBuffer();
 435              		.loc 1 156 0
 436 0042 FFF7FEFF 		bl	uart_ultrasonic_ClearRxBuffer
 157:.\ultrasonic.c **** }
 437              		.loc 1 157 0
 438 0046 07F10807 		add	r7, r7, #8
 439 004a BD46     		mov	sp, r7
 440 004c 80BD     		pop	{r7, pc}
 441              		.cfi_endproc
 442              	.LFE34:
 443              		.size	uart_ultrasonic_string_reset, .-uart_ultrasonic_string_reset
 444 004e 00BF     		.section	.text.isr_byte_ultrasonic_rx,"ax",%progbits
 445              		.align	2
 446              		.global	isr_byte_ultrasonic_rx
 447              		.thumb
 448              		.thumb_func
 449              		.type	isr_byte_ultrasonic_rx, %function
 450              	isr_byte_ultrasonic_rx:
 451              	.LFB35:
ARM GAS  C:\Users\karunmj\AppData\Local\Temp\ccWcGP4e.s 			page 12


 158:.\ultrasonic.c **** 
 159:.\ultrasonic.c **** 
 160:.\ultrasonic.c **** CY_ISR(isr_byte_ultrasonic_rx){
 452              		.loc 1 160 0
 453              		.cfi_startproc
 454              		@ args = 0, pretend = 0, frame = 8
 455              		@ frame_needed = 1, uses_anonymous_args = 0
 456 0000 80B5     		push	{r7, lr}
 457              	.LCFI14:
 458              		.cfi_def_cfa_offset 8
 459 0002 82B0     		sub	sp, sp, #8
 460              	.LCFI15:
 461              		.cfi_def_cfa_offset 16
 462 0004 00AF     		add	r7, sp, #0
 463              		.cfi_offset 14, -4
 464              		.cfi_offset 7, -8
 465              	.LCFI16:
 466              		.cfi_def_cfa_register 7
 161:.\ultrasonic.c ****     // hold the next char in the rx register as a temporary variable
 162:.\ultrasonic.c ****     uint8 rx_char_hold = uart_ultrasonic_GetChar();
 467              		.loc 1 162 0
 468 0006 FFF7FEFF 		bl	uart_ultrasonic_GetChar
 469 000a 0346     		mov	r3, r0
 470 000c FB71     		strb	r3, [r7, #7]
 163:.\ultrasonic.c ****     
 164:.\ultrasonic.c ****     // store the char in uart_received_string
 165:.\ultrasonic.c ****     if(rx_char_hold) {
 471              		.loc 1 165 0
 472 000e FB79     		ldrb	r3, [r7, #7]	@ zero_extendqisi2
 473 0010 002B     		cmp	r3, #0
 474 0012 27D0     		beq	.L32
 166:.\ultrasonic.c ****         uart_ultrasonic_received_string[uart_ultrasonic_string_index] = rx_char_hold;
 475              		.loc 1 166 0
 476 0014 40F20003 		movw	r3, #:lower16:uart_ultrasonic_string_index
 477 0018 C0F20003 		movt	r3, #:upper16:uart_ultrasonic_string_index
 478 001c 1B78     		ldrb	r3, [r3, #0]	@ zero_extendqisi2
 479 001e 1A46     		mov	r2, r3
 480 0020 40F20003 		movw	r3, #:lower16:uart_ultrasonic_received_string
 481 0024 C0F20003 		movt	r3, #:upper16:uart_ultrasonic_received_string
 482 0028 F979     		ldrb	r1, [r7, #7]
 483 002a 9954     		strb	r1, [r3, r2]
 167:.\ultrasonic.c ****         uart_ultrasonic_string_index++;
 484              		.loc 1 167 0
 485 002c 40F20003 		movw	r3, #:lower16:uart_ultrasonic_string_index
 486 0030 C0F20003 		movt	r3, #:upper16:uart_ultrasonic_string_index
 487 0034 1B78     		ldrb	r3, [r3, #0]	@ zero_extendqisi2
 488 0036 03F10103 		add	r3, r3, #1
 489 003a DAB2     		uxtb	r2, r3
 490 003c 40F20003 		movw	r3, #:lower16:uart_ultrasonic_string_index
 491 0040 C0F20003 		movt	r3, #:upper16:uart_ultrasonic_string_index
 492 0044 1A70     		strb	r2, [r3, #0]
 168:.\ultrasonic.c ****         
 169:.\ultrasonic.c ****         if (uart_ultrasonic_string_index >= MAX_STRING_LENGTH) {
 493              		.loc 1 169 0
 494 0046 40F20003 		movw	r3, #:lower16:uart_ultrasonic_string_index
 495 004a C0F20003 		movt	r3, #:upper16:uart_ultrasonic_string_index
 496 004e 1B78     		ldrb	r3, [r3, #0]	@ zero_extendqisi2
ARM GAS  C:\Users\karunmj\AppData\Local\Temp\ccWcGP4e.s 			page 13


 497 0050 5BB2     		sxtb	r3, r3
 498 0052 002B     		cmp	r3, #0
 499 0054 06DA     		bge	.L32
 170:.\ultrasonic.c ****             uart_ultrasonic_string_index = 0; // reset the index to prevent an overflow
 500              		.loc 1 170 0
 501 0056 40F20003 		movw	r3, #:lower16:uart_ultrasonic_string_index
 502 005a C0F20003 		movt	r3, #:upper16:uart_ultrasonic_string_index
 503 005e 4FF00002 		mov	r2, #0
 504 0062 1A70     		strb	r2, [r3, #0]
 505              	.L32:
 171:.\ultrasonic.c ****         }
 172:.\ultrasonic.c ****     }   
 173:.\ultrasonic.c **** }
 506              		.loc 1 173 0
 507 0064 07F10807 		add	r7, r7, #8
 508 0068 BD46     		mov	sp, r7
 509 006a 80BD     		pop	{r7, pc}
 510              		.cfi_endproc
 511              	.LFE35:
 512              		.size	isr_byte_ultrasonic_rx, .-isr_byte_ultrasonic_rx
 513              		.text
 514              	.Letext0: