ARM GAS  C:\Users\cps\AppData\Local\Temp\cccPWgWa.s 			page 1


   1              		.syntax unified
   2              		.cpu cortex-m3
   3              		.fpu softvfp
   4              		.eabi_attribute 20, 1
   5              		.eabi_attribute 21, 1
   6              		.eabi_attribute 23, 3
   7              		.eabi_attribute 24, 1
   8              		.eabi_attribute 25, 1
   9              		.eabi_attribute 26, 1
  10              		.eabi_attribute 30, 1
  11              		.eabi_attribute 34, 1
  12              		.eabi_attribute 18, 4
  13              		.thumb
  14              		.file	"main.c"
  15              		.text
  16              	.Ltext0:
  17              		.cfi_sections	.debug_frame
  18              		.section	.text.TakeAnalogReadings,"ax",%progbits
  19              		.align	2
  20              		.global	TakeAnalogReadings
  21              		.thumb
  22              		.thumb_func
  23              		.type	TakeAnalogReadings, %function
  24              	TakeAnalogReadings:
  25              	.LFB64:
  26              		.file 1 ".\\main.c"
   1:.\main.c      **** /* ========================================
   2:.\main.c      ****  *
   3:.\main.c      ****  * Copyright YOUR COMPANY, THE YEAR
   4:.\main.c      ****  * All Rights Reserved
   5:.\main.c      ****  * UNPUBLISHED, LICENSED SOFTWARE.
   6:.\main.c      ****  *
   7:.\main.c      ****  * CONFIDENTIAL AND PROPRIETARY INFORMATION
   8:.\main.c      ****  * WHICH IS THE PROPERTY OF your company.
   9:.\main.c      ****  *
  10:.\main.c      ****  * ========================================
  11:.\main.c      **** */
  12:.\main.c      **** #include <project.h>
  13:.\main.c      **** 
  14:.\main.c      **** void TakeAnalogReadings();
  15:.\main.c      **** 
  16:.\main.c      **** int main()
  17:.\main.c      **** {
  18:.\main.c      ****     CyGlobalIntEnable; /* Enable global interrupts. */
  19:.\main.c      **** 
  20:.\main.c      ****     /* Place your initialization/startup code here (e.g. MyInst_Start()) */
  21:.\main.c      **** 
  22:.\main.c      ****     for(;;)
  23:.\main.c      ****     {
  24:.\main.c      ****         TakeAnalogReadings();
  25:.\main.c      **** 		CyDelay(1000u);
  26:.\main.c      ****     }
  27:.\main.c      **** }
  28:.\main.c      **** 
  29:.\main.c      **** void TakeAnalogReadings(){
  27              		.loc 1 29 0
  28              		.cfi_startproc
ARM GAS  C:\Users\cps\AppData\Local\Temp\cccPWgWa.s 			page 2


  29              		@ args = 0, pretend = 0, frame = 0
  30              		@ frame_needed = 0, uses_anonymous_args = 0
  31 0000 10B5     		push	{r4, lr}
  32              		.cfi_def_cfa_offset 8
  33              		.cfi_offset 4, -8
  34              		.cfi_offset 14, -4
  30:.\main.c      **** 	
  31:.\main.c      **** 	ADC_DelSig_1_Start(); // Initialize and start the ADC.
  35              		.loc 1 31 0
  36 0002 FFF7FEFF 		bl	ADC_DelSig_1_Start
  37              	.LVL0:
  32:.\main.c      ****  	ADC_DelSig_1_StartConvert();
  38              		.loc 1 32 0
  39 0006 FFF7FEFF 		bl	ADC_DelSig_1_StartConvert
  40              	.LVL1:
  33:.\main.c      **** 
  34:.\main.c      **** 	//pwoer on all the sensors
  35:.\main.c      **** 	Power_Reg_Write(0b00000000);
  41              		.loc 1 35 0
  42 000a 0020     		movs	r0, #0
  43 000c FFF7FEFF 		bl	Power_Reg_Write
  44              	.LVL2:
  36:.\main.c      **** 	//take readings from four sensors
  37:.\main.c      **** 	float voltReading[4];
  38:.\main.c      **** 	uint8 channel;
  39:.\main.c      **** 	for(channel=0;channel<4;channel++){
  45              		.loc 1 39 0
  46 0010 0024     		movs	r4, #0
  47 0012 0FE0     		b	.L2
  48              	.LVL3:
  49              	.L4:
  40:.\main.c      **** 		AMux_FastSelect(channel);
  50              		.loc 1 40 0
  51 0014 2046     		mov	r0, r4
  52 0016 FFF7FEFF 		bl	AMux_FastSelect
  53              	.LVL4:
  41:.\main.c      **** 		CyDelay(10u);
  54              		.loc 1 41 0
  55 001a 0A20     		movs	r0, #10
  56 001c FFF7FEFF 		bl	CyDelay
  57              	.LVL5:
  42:.\main.c      **** 	 	if(ADC_DelSig_1_IsEndConversion(ADC_DelSig_1_WAIT_FOR_RESULT) != 0){
  58              		.loc 1 42 0
  59 0020 0020     		movs	r0, #0
  60 0022 FFF7FEFF 		bl	ADC_DelSig_1_IsEndConversion
  61              	.LVL6:
  62 0026 18B1     		cbz	r0, .L3
  63              	.LBB2:
  43:.\main.c      **** 	 		uint32 adcResult = ADC_DelSig_1_GetResult32();
  64              		.loc 1 43 0
  65 0028 FFF7FEFF 		bl	ADC_DelSig_1_GetResult32
  66              	.LVL7:
  44:.\main.c      **** 	 		voltReading[channel] = ADC_DelSig_1_CountsTo_Volts(adcResult);
  67              		.loc 1 44 0
  68 002c FFF7FEFF 		bl	ADC_DelSig_1_CountsTo_Volts
  69              	.LVL8:
  70              	.L3:
ARM GAS  C:\Users\cps\AppData\Local\Temp\cccPWgWa.s 			page 3


  71              	.LBE2:
  39:.\main.c      **** 		AMux_FastSelect(channel);
  72              		.loc 1 39 0 discriminator 2
  73 0030 0134     		adds	r4, r4, #1
  74              	.LVL9:
  75 0032 E4B2     		uxtb	r4, r4
  76              	.LVL10:
  77              	.L2:
  39:.\main.c      **** 		AMux_FastSelect(channel);
  78              		.loc 1 39 0 is_stmt 0 discriminator 1
  79 0034 032C     		cmp	r4, #3
  80 0036 EDD9     		bls	.L4
  45:.\main.c      **** 	 	}
  46:.\main.c      **** 	}
  47:.\main.c      ****  	
  48:.\main.c      **** 	//turn off sensor
  49:.\main.c      **** 	ADC_DelSig_1_StopConvert();
  81              		.loc 1 49 0 is_stmt 1
  82 0038 FFF7FEFF 		bl	ADC_DelSig_1_StopConvert
  83              	.LVL11:
  50:.\main.c      **** 	ADC_DelSig_1_Stop();
  84              		.loc 1 50 0
  85 003c FFF7FEFF 		bl	ADC_DelSig_1_Stop
  86              	.LVL12:
  51:.\main.c      ****  	//pwoer off all the sensors
  52:.\main.c      **** 	Power_Reg_Write(0b11111111);
  87              		.loc 1 52 0
  88 0040 FF20     		movs	r0, #255
  89 0042 FFF7FEFF 		bl	Power_Reg_Write
  90              	.LVL13:
  91 0046 10BD     		pop	{r4, pc}
  92              		.cfi_endproc
  93              	.LFE64:
  94              		.size	TakeAnalogReadings, .-TakeAnalogReadings
  95              		.section	.text.main,"ax",%progbits
  96              		.align	2
  97              		.global	main
  98              		.thumb
  99              		.thumb_func
 100              		.type	main, %function
 101              	main:
 102              	.LFB63:
  17:.\main.c      ****     CyGlobalIntEnable; /* Enable global interrupts. */
 103              		.loc 1 17 0
 104              		.cfi_startproc
 105              		@ Volatile: function does not return.
 106              		@ args = 0, pretend = 0, frame = 0
 107              		@ frame_needed = 0, uses_anonymous_args = 0
 108 0000 08B5     		push	{r3, lr}
 109              		.cfi_def_cfa_offset 8
 110              		.cfi_offset 3, -8
 111              		.cfi_offset 14, -4
  18:.\main.c      **** 
 112              		.loc 1 18 0
 113              	@ 18 ".\main.c" 1
 114 0002 62B6     		CPSIE   i
 115              	@ 0 "" 2
ARM GAS  C:\Users\cps\AppData\Local\Temp\cccPWgWa.s 			page 4


 116              		.thumb
 117              	.L7:
  24:.\main.c      **** 		CyDelay(1000u);
 118              		.loc 1 24 0 discriminator 1
 119 0004 FFF7FEFF 		bl	TakeAnalogReadings
 120              	.LVL14:
  25:.\main.c      ****     }
 121              		.loc 1 25 0 discriminator 1
 122 0008 4FF47A70 		mov	r0, #1000
 123 000c FFF7FEFF 		bl	CyDelay
 124              	.LVL15:
  26:.\main.c      **** }
 125              		.loc 1 26 0 discriminator 1
 126 0010 F8E7     		b	.L7
 127              		.cfi_endproc
 128              	.LFE63:
 129              		.size	main, .-main
 130 0012 00BF     		.text
 131              	.Letext0:
 132              		.file 2 "c:\\program files (x86)\\cypress\\psoc creator\\3.3\\psoc creator\\import\\gnu\\arm\\4.9.
 133              		.file 3 "c:\\program files (x86)\\cypress\\psoc creator\\3.3\\psoc creator\\import\\gnu\\arm\\4.9.
 134              		.file 4 "Generated_Source\\PSoC5/cytypes.h"
 135              		.file 5 "Generated_Source\\PSoC5/ADC_DelSig_1.h"
 136              		.file 6 "Generated_Source\\PSoC5/Power_Reg.h"
 137              		.file 7 "Generated_Source\\PSoC5/AMux.h"
 138              		.file 8 "Generated_Source\\PSoC5/CyLib.h"
 139              		.file 9 "Generated_Source\\PSoC5/core_cm3.h"