ARM GAS  C:\Users\cps\AppData\Local\Temp\ccuHVRkn.s 			page 1


   1              		.syntax unified
   2              		.cpu cortex-m3
   3              		.fpu softvfp
   4              		.eabi_attribute 20, 1
   5              		.eabi_attribute 21, 1
   6              		.eabi_attribute 23, 3
   7              		.eabi_attribute 24, 1
   8              		.eabi_attribute 25, 1
   9              		.eabi_attribute 26, 1
  10              		.eabi_attribute 30, 1
  11              		.eabi_attribute 34, 1
  12              		.eabi_attribute 18, 4
  13              		.thumb
  14              		.file	"I2C_1_MASTER.c"
  15              		.text
  16              	.Ltext0:
  17              		.cfi_sections	.debug_frame
  18              		.section	.text.I2C_1_MasterWriteBuf,"ax",%progbits
  19              		.align	2
  20              		.global	I2C_1_MasterWriteBuf
  21              		.thumb
  22              		.thumb_func
  23              		.type	I2C_1_MasterWriteBuf, %function
  24              	I2C_1_MasterWriteBuf:
  25              	.LFB0:
  26              		.file 1 ".\\Generated_Source\\PSoC5\\I2C_1_MASTER.c"
   1:.\Generated_Source\PSoC5/I2C_1_MASTER.c **** /*******************************************************************************
   2:.\Generated_Source\PSoC5/I2C_1_MASTER.c **** * File Name: I2C_1_MASTER.c
   3:.\Generated_Source\PSoC5/I2C_1_MASTER.c **** * Version 3.30
   4:.\Generated_Source\PSoC5/I2C_1_MASTER.c **** *
   5:.\Generated_Source\PSoC5/I2C_1_MASTER.c **** * Description:
   6:.\Generated_Source\PSoC5/I2C_1_MASTER.c **** *  This file provides the source code of APIs for the I2C component Master mode.
   7:.\Generated_Source\PSoC5/I2C_1_MASTER.c **** *
   8:.\Generated_Source\PSoC5/I2C_1_MASTER.c **** * Note:
   9:.\Generated_Source\PSoC5/I2C_1_MASTER.c **** *
  10:.\Generated_Source\PSoC5/I2C_1_MASTER.c **** *******************************************************************************
  11:.\Generated_Source\PSoC5/I2C_1_MASTER.c **** * Copyright 2012, Cypress Semiconductor Corporation.  All rights reserved.
  12:.\Generated_Source\PSoC5/I2C_1_MASTER.c **** * You may use this file only in accordance with the license, terms, conditions,
  13:.\Generated_Source\PSoC5/I2C_1_MASTER.c **** * disclaimers, and limitations in the end user license agreement accompanying
  14:.\Generated_Source\PSoC5/I2C_1_MASTER.c **** * the software package with which this file was provided.
  15:.\Generated_Source\PSoC5/I2C_1_MASTER.c **** *******************************************************************************/
  16:.\Generated_Source\PSoC5/I2C_1_MASTER.c **** 
  17:.\Generated_Source\PSoC5/I2C_1_MASTER.c **** #include "I2C_1_PVT.h"
  18:.\Generated_Source\PSoC5/I2C_1_MASTER.c **** 
  19:.\Generated_Source\PSoC5/I2C_1_MASTER.c **** #if(I2C_1_MODE_MASTER_ENABLED)
  20:.\Generated_Source\PSoC5/I2C_1_MASTER.c **** 
  21:.\Generated_Source\PSoC5/I2C_1_MASTER.c **** /**********************************
  22:.\Generated_Source\PSoC5/I2C_1_MASTER.c **** *      System variables
  23:.\Generated_Source\PSoC5/I2C_1_MASTER.c **** **********************************/
  24:.\Generated_Source\PSoC5/I2C_1_MASTER.c **** 
  25:.\Generated_Source\PSoC5/I2C_1_MASTER.c **** volatile uint8 I2C_1_mstrStatus;     /* Master Status byte  */
  26:.\Generated_Source\PSoC5/I2C_1_MASTER.c **** volatile uint8 I2C_1_mstrControl;    /* Master Control byte */
  27:.\Generated_Source\PSoC5/I2C_1_MASTER.c **** 
  28:.\Generated_Source\PSoC5/I2C_1_MASTER.c **** /* Transmit buffer variables */
  29:.\Generated_Source\PSoC5/I2C_1_MASTER.c **** volatile uint8 * I2C_1_mstrRdBufPtr;     /* Pointer to Master Read buffer */
  30:.\Generated_Source\PSoC5/I2C_1_MASTER.c **** volatile uint8   I2C_1_mstrRdBufSize;    /* Master Read buffer size       */
  31:.\Generated_Source\PSoC5/I2C_1_MASTER.c **** volatile uint8   I2C_1_mstrRdBufIndex;   /* Master Read buffer Index      */
ARM GAS  C:\Users\cps\AppData\Local\Temp\ccuHVRkn.s 			page 2


  32:.\Generated_Source\PSoC5/I2C_1_MASTER.c **** 
  33:.\Generated_Source\PSoC5/I2C_1_MASTER.c **** /* Receive buffer variables */
  34:.\Generated_Source\PSoC5/I2C_1_MASTER.c **** volatile uint8 * I2C_1_mstrWrBufPtr;     /* Pointer to Master Write buffer */
  35:.\Generated_Source\PSoC5/I2C_1_MASTER.c **** volatile uint8   I2C_1_mstrWrBufSize;    /* Master Write buffer size       */
  36:.\Generated_Source\PSoC5/I2C_1_MASTER.c **** volatile uint8   I2C_1_mstrWrBufIndex;   /* Master Write buffer Index      */
  37:.\Generated_Source\PSoC5/I2C_1_MASTER.c **** 
  38:.\Generated_Source\PSoC5/I2C_1_MASTER.c **** 
  39:.\Generated_Source\PSoC5/I2C_1_MASTER.c **** /*******************************************************************************
  40:.\Generated_Source\PSoC5/I2C_1_MASTER.c **** * Function Name: I2C_1_MasterWriteBuf
  41:.\Generated_Source\PSoC5/I2C_1_MASTER.c **** ********************************************************************************
  42:.\Generated_Source\PSoC5/I2C_1_MASTER.c **** *
  43:.\Generated_Source\PSoC5/I2C_1_MASTER.c **** * Summary:
  44:.\Generated_Source\PSoC5/I2C_1_MASTER.c **** *  Automatically writes an entire buffer of data to a slave device. Once the
  45:.\Generated_Source\PSoC5/I2C_1_MASTER.c **** *  data transfer is initiated by this function, further data transfer is handled
  46:.\Generated_Source\PSoC5/I2C_1_MASTER.c **** *  by the included ISR in byte by byte mode.
  47:.\Generated_Source\PSoC5/I2C_1_MASTER.c **** *
  48:.\Generated_Source\PSoC5/I2C_1_MASTER.c **** * Parameters:
  49:.\Generated_Source\PSoC5/I2C_1_MASTER.c **** *  slaveAddr: 7-bit slave address.
  50:.\Generated_Source\PSoC5/I2C_1_MASTER.c **** *  xferData:  Pointer to buffer of data to be sent.
  51:.\Generated_Source\PSoC5/I2C_1_MASTER.c **** *  cnt:       Size of buffer to send.
  52:.\Generated_Source\PSoC5/I2C_1_MASTER.c **** *  mode:      Transfer mode defines: start or restart condition generation at
  53:.\Generated_Source\PSoC5/I2C_1_MASTER.c **** *             begin of the transfer and complete the transfer or halt before
  54:.\Generated_Source\PSoC5/I2C_1_MASTER.c **** *             generating a stop.
  55:.\Generated_Source\PSoC5/I2C_1_MASTER.c **** *
  56:.\Generated_Source\PSoC5/I2C_1_MASTER.c **** * Return:
  57:.\Generated_Source\PSoC5/I2C_1_MASTER.c **** *  Status error - zero means no errors.
  58:.\Generated_Source\PSoC5/I2C_1_MASTER.c **** *
  59:.\Generated_Source\PSoC5/I2C_1_MASTER.c **** * Side Effects:
  60:.\Generated_Source\PSoC5/I2C_1_MASTER.c **** *  The included ISR will start transfer after start or restart condition will
  61:.\Generated_Source\PSoC5/I2C_1_MASTER.c **** *  be generated.
  62:.\Generated_Source\PSoC5/I2C_1_MASTER.c **** *
  63:.\Generated_Source\PSoC5/I2C_1_MASTER.c **** * Global variables:
  64:.\Generated_Source\PSoC5/I2C_1_MASTER.c **** *  I2C_1_mstrStatus  - used to store current status of I2C Master.
  65:.\Generated_Source\PSoC5/I2C_1_MASTER.c **** *  I2C_1_state       - used to store current state of software FSM.
  66:.\Generated_Source\PSoC5/I2C_1_MASTER.c **** *  I2C_1_mstrControl - used to control master end of transaction with
  67:.\Generated_Source\PSoC5/I2C_1_MASTER.c **** *  or without the Stop generation.
  68:.\Generated_Source\PSoC5/I2C_1_MASTER.c **** *  I2C_1_mstrWrBufPtr - used to store pointer to master write buffer.
  69:.\Generated_Source\PSoC5/I2C_1_MASTER.c **** *  I2C_1_mstrWrBufIndex - used to current index within master write
  70:.\Generated_Source\PSoC5/I2C_1_MASTER.c **** *  buffer.
  71:.\Generated_Source\PSoC5/I2C_1_MASTER.c **** *  I2C_1_mstrWrBufSize - used to store master write buffer size.
  72:.\Generated_Source\PSoC5/I2C_1_MASTER.c **** *
  73:.\Generated_Source\PSoC5/I2C_1_MASTER.c **** * Reentrant:
  74:.\Generated_Source\PSoC5/I2C_1_MASTER.c **** *  No
  75:.\Generated_Source\PSoC5/I2C_1_MASTER.c **** *
  76:.\Generated_Source\PSoC5/I2C_1_MASTER.c **** *******************************************************************************/
  77:.\Generated_Source\PSoC5/I2C_1_MASTER.c **** uint8 I2C_1_MasterWriteBuf(uint8 slaveAddress, uint8 * wrData, uint8 cnt, uint8 mode)
  78:.\Generated_Source\PSoC5/I2C_1_MASTER.c ****       
  79:.\Generated_Source\PSoC5/I2C_1_MASTER.c **** {
  27              		.loc 1 79 0
  28              		.cfi_startproc
  29              		@ args = 0, pretend = 0, frame = 0
  30              		@ frame_needed = 0, uses_anonymous_args = 0
  31              		@ link register save eliminated.
  32              	.LVL0:
  33 0000 70B4     		push	{r4, r5, r6}
  34              		.cfi_def_cfa_offset 12
  35              		.cfi_offset 4, -12
ARM GAS  C:\Users\cps\AppData\Local\Temp\ccuHVRkn.s 			page 3


  36              		.cfi_offset 5, -8
  37              		.cfi_offset 6, -4
  38              	.LVL1:
  80:.\Generated_Source\PSoC5/I2C_1_MASTER.c ****     uint8 errStatus;
  81:.\Generated_Source\PSoC5/I2C_1_MASTER.c **** 
  82:.\Generated_Source\PSoC5/I2C_1_MASTER.c ****     errStatus = I2C_1_MSTR_NOT_READY;
  83:.\Generated_Source\PSoC5/I2C_1_MASTER.c **** 
  84:.\Generated_Source\PSoC5/I2C_1_MASTER.c ****     if(NULL != wrData)
  39              		.loc 1 84 0
  40 0002 0029     		cmp	r1, #0
  41 0004 47D0     		beq	.L7
  42 0006 0D46     		mov	r5, r1
  85:.\Generated_Source\PSoC5/I2C_1_MASTER.c ****     {
  86:.\Generated_Source\PSoC5/I2C_1_MASTER.c ****         /* Check I2C state before transfer: valid are IDLE or HALT */
  87:.\Generated_Source\PSoC5/I2C_1_MASTER.c ****         if(I2C_1_SM_IDLE == I2C_1_state)
  43              		.loc 1 87 0
  44 0008 2549     		ldr	r1, .L11
  45              	.LVL2:
  46 000a 0978     		ldrb	r1, [r1]	@ zero_extendqisi2
  47 000c C9B2     		uxtb	r1, r1
  48 000e 1029     		cmp	r1, #16
  49 0010 06D1     		bne	.L3
  88:.\Generated_Source\PSoC5/I2C_1_MASTER.c ****         {
  89:.\Generated_Source\PSoC5/I2C_1_MASTER.c ****             /* Check if free: Master is ready to transaction */
  90:.\Generated_Source\PSoC5/I2C_1_MASTER.c ****             if(I2C_1_CHECK_BUS_FREE(I2C_1_MCSR_REG))
  50              		.loc 1 90 0
  51 0012 2449     		ldr	r1, .L11+4
  52 0014 0978     		ldrb	r1, [r1]	@ zero_extendqisi2
  53 0016 11F0100F 		tst	r1, #16
  54 001a 10D1     		bne	.L8
  91:.\Generated_Source\PSoC5/I2C_1_MASTER.c ****             {
  92:.\Generated_Source\PSoC5/I2C_1_MASTER.c ****                 errStatus = I2C_1_MSTR_NO_ERROR;
  55              		.loc 1 92 0
  56 001c 0024     		movs	r4, #0
  57 001e 11E0     		b	.L4
  58              	.L3:
  93:.\Generated_Source\PSoC5/I2C_1_MASTER.c ****             }
  94:.\Generated_Source\PSoC5/I2C_1_MASTER.c ****             else
  95:.\Generated_Source\PSoC5/I2C_1_MASTER.c ****             {
  96:.\Generated_Source\PSoC5/I2C_1_MASTER.c ****                 errStatus = I2C_1_MSTR_BUS_BUSY;
  97:.\Generated_Source\PSoC5/I2C_1_MASTER.c ****             }
  98:.\Generated_Source\PSoC5/I2C_1_MASTER.c ****         }
  99:.\Generated_Source\PSoC5/I2C_1_MASTER.c ****         else if(I2C_1_SM_MSTR_HALT == I2C_1_state)
  59              		.loc 1 99 0
  60 0020 1F49     		ldr	r1, .L11
  61 0022 0978     		ldrb	r1, [r1]	@ zero_extendqisi2
  62 0024 C9B2     		uxtb	r1, r1
  63 0026 6029     		cmp	r1, #96
  64 0028 0BD1     		bne	.L9
  65              	.LVL3:
 100:.\Generated_Source\PSoC5/I2C_1_MASTER.c ****         {
 101:.\Generated_Source\PSoC5/I2C_1_MASTER.c ****             errStatus = I2C_1_MSTR_NO_ERROR;
 102:.\Generated_Source\PSoC5/I2C_1_MASTER.c **** 
 103:.\Generated_Source\PSoC5/I2C_1_MASTER.c ****             CyIntClearPending(I2C_1_ISR_NUMBER);
  66              		.loc 1 103 0
  67 002a 0124     		movs	r4, #1
  68 002c 1E49     		ldr	r1, .L11+8
ARM GAS  C:\Users\cps\AppData\Local\Temp\ccuHVRkn.s 			page 4


  69 002e 0C60     		str	r4, [r1]
 104:.\Generated_Source\PSoC5/I2C_1_MASTER.c ****             I2C_1_mstrStatus &= ((uint8) ~I2C_1_MSTAT_XFER_HALT);
  70              		.loc 1 104 0
  71 0030 1E4C     		ldr	r4, .L11+12
  72 0032 2178     		ldrb	r1, [r4]	@ zero_extendqisi2
  73 0034 01F0F701 		and	r1, r1, #247
  74 0038 2170     		strb	r1, [r4]
 101:.\Generated_Source\PSoC5/I2C_1_MASTER.c **** 
  75              		.loc 1 101 0
  76 003a 0024     		movs	r4, #0
  77 003c 02E0     		b	.L4
  78              	.LVL4:
  79              	.L8:
  96:.\Generated_Source\PSoC5/I2C_1_MASTER.c ****             }
  80              		.loc 1 96 0
  81 003e 0124     		movs	r4, #1
  82 0040 00E0     		b	.L4
  83              	.L9:
  82:.\Generated_Source\PSoC5/I2C_1_MASTER.c **** 
  84              		.loc 1 82 0
  85 0042 0224     		movs	r4, #2
  86              	.LVL5:
  87              	.L4:
 105:.\Generated_Source\PSoC5/I2C_1_MASTER.c ****         }
 106:.\Generated_Source\PSoC5/I2C_1_MASTER.c ****         else
 107:.\Generated_Source\PSoC5/I2C_1_MASTER.c ****         {
 108:.\Generated_Source\PSoC5/I2C_1_MASTER.c ****             /* errStatus = I2C_1_MSTR_NOT_READY was send before */
 109:.\Generated_Source\PSoC5/I2C_1_MASTER.c ****         }
 110:.\Generated_Source\PSoC5/I2C_1_MASTER.c **** 
 111:.\Generated_Source\PSoC5/I2C_1_MASTER.c ****         if(I2C_1_MSTR_NO_ERROR == errStatus)
  88              		.loc 1 111 0
  89 0044 44BB     		cbnz	r4, .L2
 112:.\Generated_Source\PSoC5/I2C_1_MASTER.c ****         {
 113:.\Generated_Source\PSoC5/I2C_1_MASTER.c ****             I2C_1_state    = I2C_1_SM_MSTR_WR_ADDR;
  90              		.loc 1 113 0
  91 0046 4526     		movs	r6, #69
  92 0048 1549     		ldr	r1, .L11
  93 004a 0E70     		strb	r6, [r1]
 114:.\Generated_Source\PSoC5/I2C_1_MASTER.c ****             I2C_1_DATA_REG = ((uint8) (slaveAddress << I2C_1_SLAVE_ADDR_SHIFT));
  94              		.loc 1 114 0
  95 004c 4100     		lsls	r1, r0, #1
  96 004e C9B2     		uxtb	r1, r1
  97 0050 1748     		ldr	r0, .L11+16
  98              	.LVL6:
  99 0052 0170     		strb	r1, [r0]
 115:.\Generated_Source\PSoC5/I2C_1_MASTER.c **** 
 116:.\Generated_Source\PSoC5/I2C_1_MASTER.c ****             I2C_1_mstrWrBufIndex = 0u;
 100              		.loc 1 116 0
 101 0054 0020     		movs	r0, #0
 102 0056 1749     		ldr	r1, .L11+20
 103 0058 0870     		strb	r0, [r1]
 117:.\Generated_Source\PSoC5/I2C_1_MASTER.c ****             I2C_1_mstrWrBufSize  = cnt;
 104              		.loc 1 117 0
 105 005a 1749     		ldr	r1, .L11+24
 106 005c 0A70     		strb	r2, [r1]
 118:.\Generated_Source\PSoC5/I2C_1_MASTER.c ****             I2C_1_mstrWrBufPtr   = (volatile uint8 *) wrData;
 107              		.loc 1 118 0
ARM GAS  C:\Users\cps\AppData\Local\Temp\ccuHVRkn.s 			page 5


 108 005e 174A     		ldr	r2, .L11+28
 109              	.LVL7:
 110 0060 1560     		str	r5, [r2]
 119:.\Generated_Source\PSoC5/I2C_1_MASTER.c **** 
 120:.\Generated_Source\PSoC5/I2C_1_MASTER.c ****             I2C_1_mstrControl = mode;    /* Save transaction mode */
 111              		.loc 1 120 0
 112 0062 174A     		ldr	r2, .L11+32
 113 0064 1370     		strb	r3, [r2]
 114              	.LVL8:
 121:.\Generated_Source\PSoC5/I2C_1_MASTER.c **** 
 122:.\Generated_Source\PSoC5/I2C_1_MASTER.c ****             /* Generate a Start or ReStart depends on mode */
 123:.\Generated_Source\PSoC5/I2C_1_MASTER.c ****             if(I2C_1_CHECK_RESTART(mode))
 115              		.loc 1 123 0
 116 0066 13F0010F 		tst	r3, #1
 117 006a 05D0     		beq	.L5
 124:.\Generated_Source\PSoC5/I2C_1_MASTER.c ****             {
 125:.\Generated_Source\PSoC5/I2C_1_MASTER.c ****                 I2C_1_GENERATE_RESTART;
 118              		.loc 1 125 0
 119 006c 3222     		movs	r2, #50
 120 006e 154B     		ldr	r3, .L11+36
 121              	.LVL9:
 122 0070 1A70     		strb	r2, [r3]
 123              	.LVL10:
 124 0072 203B     		subs	r3, r3, #32
 125 0074 1870     		strb	r0, [r3]
 126 0076 05E0     		b	.L6
 127              	.LVL11:
 128              	.L5:
 126:.\Generated_Source\PSoC5/I2C_1_MASTER.c ****             }
 127:.\Generated_Source\PSoC5/I2C_1_MASTER.c ****             else
 128:.\Generated_Source\PSoC5/I2C_1_MASTER.c ****             {
 129:.\Generated_Source\PSoC5/I2C_1_MASTER.c ****                 I2C_1_GENERATE_START;
 129              		.loc 1 129 0
 130 0078 8222     		movs	r2, #130
 131 007a 124B     		ldr	r3, .L11+36
 132              	.LVL12:
 133 007c 1A70     		strb	r2, [r3]
 134              	.LVL13:
 135 007e 0022     		movs	r2, #0
 136 0080 203B     		subs	r3, r3, #32
 137 0082 1A70     		strb	r2, [r3]
 138              	.L6:
 130:.\Generated_Source\PSoC5/I2C_1_MASTER.c ****             }
 131:.\Generated_Source\PSoC5/I2C_1_MASTER.c **** 
 132:.\Generated_Source\PSoC5/I2C_1_MASTER.c ****             I2C_1_mstrStatus &= ((uint8) ~I2C_1_MSTAT_WR_CMPLT);
 139              		.loc 1 132 0
 140 0084 094A     		ldr	r2, .L11+12
 141 0086 1378     		ldrb	r3, [r2]	@ zero_extendqisi2
 142 0088 03F0FD03 		and	r3, r3, #253
 143 008c 1370     		strb	r3, [r2]
 133:.\Generated_Source\PSoC5/I2C_1_MASTER.c **** 
 134:.\Generated_Source\PSoC5/I2C_1_MASTER.c ****             I2C_1_EnableInt();   /* Enable intr to complete transfer */
 144              		.loc 1 134 0
 145 008e 0122     		movs	r2, #1
 146 0090 0D4B     		ldr	r3, .L11+40
 147 0092 1A60     		str	r2, [r3]
 148 0094 00E0     		b	.L2
ARM GAS  C:\Users\cps\AppData\Local\Temp\ccuHVRkn.s 			page 6


 149              	.LVL14:
 150              	.L7:
  82:.\Generated_Source\PSoC5/I2C_1_MASTER.c **** 
 151              		.loc 1 82 0
 152 0096 0224     		movs	r4, #2
 153              	.LVL15:
 154              	.L2:
 135:.\Generated_Source\PSoC5/I2C_1_MASTER.c ****         }
 136:.\Generated_Source\PSoC5/I2C_1_MASTER.c ****     }
 137:.\Generated_Source\PSoC5/I2C_1_MASTER.c **** 
 138:.\Generated_Source\PSoC5/I2C_1_MASTER.c ****     return(errStatus);
 139:.\Generated_Source\PSoC5/I2C_1_MASTER.c **** }
 155              		.loc 1 139 0
 156 0098 2046     		mov	r0, r4
 157 009a 70BC     		pop	{r4, r5, r6}
 158              		.cfi_restore 6
 159              		.cfi_restore 5
 160              		.cfi_restore 4
 161              		.cfi_def_cfa_offset 0
 162              	.LVL16:
 163 009c 7047     		bx	lr
 164              	.L12:
 165 009e 00BF     		.align	2
 166              	.L11:
 167 00a0 00000000 		.word	I2C_1_state
 168 00a4 6B640040 		.word	1073767531
 169 00a8 80E200E0 		.word	-536812928
 170 00ac 00000000 		.word	I2C_1_mstrStatus
 171 00b0 09640040 		.word	1073767433
 172 00b4 00000000 		.word	I2C_1_mstrWrBufIndex
 173 00b8 00000000 		.word	I2C_1_mstrWrBufSize
 174 00bc 00000000 		.word	I2C_1_mstrWrBufPtr
 175 00c0 00000000 		.word	I2C_1_mstrControl
 176 00c4 79640040 		.word	1073767545
 177 00c8 00E100E0 		.word	-536813312
 178              		.cfi_endproc
 179              	.LFE0:
 180              		.size	I2C_1_MasterWriteBuf, .-I2C_1_MasterWriteBuf
 181              		.section	.text.I2C_1_MasterReadBuf,"ax",%progbits
 182              		.align	2
 183              		.global	I2C_1_MasterReadBuf
 184              		.thumb
 185              		.thumb_func
 186              		.type	I2C_1_MasterReadBuf, %function
 187              	I2C_1_MasterReadBuf:
 188              	.LFB1:
 140:.\Generated_Source\PSoC5/I2C_1_MASTER.c **** 
 141:.\Generated_Source\PSoC5/I2C_1_MASTER.c **** 
 142:.\Generated_Source\PSoC5/I2C_1_MASTER.c **** /*******************************************************************************
 143:.\Generated_Source\PSoC5/I2C_1_MASTER.c **** * Function Name: I2C_1_MasterReadBuf
 144:.\Generated_Source\PSoC5/I2C_1_MASTER.c **** ********************************************************************************
 145:.\Generated_Source\PSoC5/I2C_1_MASTER.c **** *
 146:.\Generated_Source\PSoC5/I2C_1_MASTER.c **** * Summary:
 147:.\Generated_Source\PSoC5/I2C_1_MASTER.c **** *  Automatically writes an entire buffer of data to a slave device. Once the
 148:.\Generated_Source\PSoC5/I2C_1_MASTER.c **** *  data transfer is initiated by this function, further data transfer is handled
 149:.\Generated_Source\PSoC5/I2C_1_MASTER.c **** *  by the included ISR in byte by byte mode.
 150:.\Generated_Source\PSoC5/I2C_1_MASTER.c **** *
ARM GAS  C:\Users\cps\AppData\Local\Temp\ccuHVRkn.s 			page 7


 151:.\Generated_Source\PSoC5/I2C_1_MASTER.c **** * Parameters:
 152:.\Generated_Source\PSoC5/I2C_1_MASTER.c **** *  slaveAddr: 7-bit slave address.
 153:.\Generated_Source\PSoC5/I2C_1_MASTER.c **** *  xferData:  Pointer to buffer where to put data from slave.
 154:.\Generated_Source\PSoC5/I2C_1_MASTER.c **** *  cnt:       Size of buffer to read.
 155:.\Generated_Source\PSoC5/I2C_1_MASTER.c **** *  mode:      Transfer mode defines: start or restart condition generation at
 156:.\Generated_Source\PSoC5/I2C_1_MASTER.c **** *             begin of the transfer and complete the transfer or halt before
 157:.\Generated_Source\PSoC5/I2C_1_MASTER.c **** *             generating a stop.
 158:.\Generated_Source\PSoC5/I2C_1_MASTER.c **** *
 159:.\Generated_Source\PSoC5/I2C_1_MASTER.c **** * Return:
 160:.\Generated_Source\PSoC5/I2C_1_MASTER.c **** *  Status error - zero means no errors.
 161:.\Generated_Source\PSoC5/I2C_1_MASTER.c **** *
 162:.\Generated_Source\PSoC5/I2C_1_MASTER.c **** * Side Effects:
 163:.\Generated_Source\PSoC5/I2C_1_MASTER.c **** *  The included ISR will start transfer after start or restart condition will
 164:.\Generated_Source\PSoC5/I2C_1_MASTER.c **** *  be generated.
 165:.\Generated_Source\PSoC5/I2C_1_MASTER.c **** *
 166:.\Generated_Source\PSoC5/I2C_1_MASTER.c **** * Global variables:
 167:.\Generated_Source\PSoC5/I2C_1_MASTER.c **** *  I2C_1_mstrStatus  - used to store current status of I2C Master.
 168:.\Generated_Source\PSoC5/I2C_1_MASTER.c **** *  I2C_1_state       - used to store current state of software FSM.
 169:.\Generated_Source\PSoC5/I2C_1_MASTER.c **** *  I2C_1_mstrControl - used to control master end of transaction with
 170:.\Generated_Source\PSoC5/I2C_1_MASTER.c **** *  or without the Stop generation.
 171:.\Generated_Source\PSoC5/I2C_1_MASTER.c **** *  I2C_1_mstrRdBufPtr - used to store pointer to master write buffer.
 172:.\Generated_Source\PSoC5/I2C_1_MASTER.c **** *  I2C_1_mstrRdBufIndex - used to current index within master write
 173:.\Generated_Source\PSoC5/I2C_1_MASTER.c **** *  buffer.
 174:.\Generated_Source\PSoC5/I2C_1_MASTER.c **** *  I2C_1_mstrRdBufSize - used to store master write buffer size.
 175:.\Generated_Source\PSoC5/I2C_1_MASTER.c **** *
 176:.\Generated_Source\PSoC5/I2C_1_MASTER.c **** * Reentrant:
 177:.\Generated_Source\PSoC5/I2C_1_MASTER.c **** *  No
 178:.\Generated_Source\PSoC5/I2C_1_MASTER.c **** *
 179:.\Generated_Source\PSoC5/I2C_1_MASTER.c **** *******************************************************************************/
 180:.\Generated_Source\PSoC5/I2C_1_MASTER.c **** uint8 I2C_1_MasterReadBuf(uint8 slaveAddress, uint8 * rdData, uint8 cnt, uint8 mode)
 181:.\Generated_Source\PSoC5/I2C_1_MASTER.c ****       
 182:.\Generated_Source\PSoC5/I2C_1_MASTER.c **** {
 189              		.loc 1 182 0
 190              		.cfi_startproc
 191              		@ args = 0, pretend = 0, frame = 0
 192              		@ frame_needed = 0, uses_anonymous_args = 0
 193              		@ link register save eliminated.
 194              	.LVL17:
 195 0000 70B4     		push	{r4, r5, r6}
 196              		.cfi_def_cfa_offset 12
 197              		.cfi_offset 4, -12
 198              		.cfi_offset 5, -8
 199              		.cfi_offset 6, -4
 200              	.LVL18:
 183:.\Generated_Source\PSoC5/I2C_1_MASTER.c ****     uint8 errStatus;
 184:.\Generated_Source\PSoC5/I2C_1_MASTER.c **** 
 185:.\Generated_Source\PSoC5/I2C_1_MASTER.c ****     errStatus = I2C_1_MSTR_NOT_READY;
 186:.\Generated_Source\PSoC5/I2C_1_MASTER.c **** 
 187:.\Generated_Source\PSoC5/I2C_1_MASTER.c ****     if(NULL != rdData)
 201              		.loc 1 187 0
 202 0002 0029     		cmp	r1, #0
 203 0004 49D0     		beq	.L19
 204 0006 0D46     		mov	r5, r1
 188:.\Generated_Source\PSoC5/I2C_1_MASTER.c ****     {
 189:.\Generated_Source\PSoC5/I2C_1_MASTER.c ****         /* Check I2C state before transfer: valid are IDLE or HALT */
 190:.\Generated_Source\PSoC5/I2C_1_MASTER.c ****         if(I2C_1_SM_IDLE == I2C_1_state)
 205              		.loc 1 190 0
ARM GAS  C:\Users\cps\AppData\Local\Temp\ccuHVRkn.s 			page 8


 206 0008 2649     		ldr	r1, .L23
 207              	.LVL19:
 208 000a 0978     		ldrb	r1, [r1]	@ zero_extendqisi2
 209 000c C9B2     		uxtb	r1, r1
 210 000e 1029     		cmp	r1, #16
 211 0010 06D1     		bne	.L15
 191:.\Generated_Source\PSoC5/I2C_1_MASTER.c ****         {
 192:.\Generated_Source\PSoC5/I2C_1_MASTER.c ****             /* Check if free: Master is ready to transaction */
 193:.\Generated_Source\PSoC5/I2C_1_MASTER.c ****             if(I2C_1_CHECK_BUS_FREE(I2C_1_MCSR_REG))
 212              		.loc 1 193 0
 213 0012 2549     		ldr	r1, .L23+4
 214 0014 0978     		ldrb	r1, [r1]	@ zero_extendqisi2
 215 0016 11F0100F 		tst	r1, #16
 216 001a 10D1     		bne	.L20
 194:.\Generated_Source\PSoC5/I2C_1_MASTER.c ****             {
 195:.\Generated_Source\PSoC5/I2C_1_MASTER.c ****                 errStatus = I2C_1_MSTR_NO_ERROR;
 217              		.loc 1 195 0
 218 001c 0024     		movs	r4, #0
 219 001e 11E0     		b	.L16
 220              	.L15:
 196:.\Generated_Source\PSoC5/I2C_1_MASTER.c ****             }
 197:.\Generated_Source\PSoC5/I2C_1_MASTER.c ****             else
 198:.\Generated_Source\PSoC5/I2C_1_MASTER.c ****             {
 199:.\Generated_Source\PSoC5/I2C_1_MASTER.c ****                 errStatus = I2C_1_MSTR_BUS_BUSY;
 200:.\Generated_Source\PSoC5/I2C_1_MASTER.c ****             }
 201:.\Generated_Source\PSoC5/I2C_1_MASTER.c ****         }
 202:.\Generated_Source\PSoC5/I2C_1_MASTER.c ****         else if(I2C_1_SM_MSTR_HALT == I2C_1_state)
 221              		.loc 1 202 0
 222 0020 2049     		ldr	r1, .L23
 223 0022 0978     		ldrb	r1, [r1]	@ zero_extendqisi2
 224 0024 C9B2     		uxtb	r1, r1
 225 0026 6029     		cmp	r1, #96
 226 0028 0BD1     		bne	.L21
 227              	.LVL20:
 203:.\Generated_Source\PSoC5/I2C_1_MASTER.c ****         {
 204:.\Generated_Source\PSoC5/I2C_1_MASTER.c ****             errStatus = I2C_1_MSTR_NO_ERROR;
 205:.\Generated_Source\PSoC5/I2C_1_MASTER.c **** 
 206:.\Generated_Source\PSoC5/I2C_1_MASTER.c ****             CyIntClearPending(I2C_1_ISR_NUMBER);
 228              		.loc 1 206 0
 229 002a 0124     		movs	r4, #1
 230 002c 1F49     		ldr	r1, .L23+8
 231 002e 0C60     		str	r4, [r1]
 207:.\Generated_Source\PSoC5/I2C_1_MASTER.c ****             I2C_1_mstrStatus &= ((uint8) ~I2C_1_MSTAT_XFER_HALT);
 232              		.loc 1 207 0
 233 0030 1F4C     		ldr	r4, .L23+12
 234 0032 2178     		ldrb	r1, [r4]	@ zero_extendqisi2
 235 0034 01F0F701 		and	r1, r1, #247
 236 0038 2170     		strb	r1, [r4]
 204:.\Generated_Source\PSoC5/I2C_1_MASTER.c **** 
 237              		.loc 1 204 0
 238 003a 0024     		movs	r4, #0
 239 003c 02E0     		b	.L16
 240              	.LVL21:
 241              	.L20:
 199:.\Generated_Source\PSoC5/I2C_1_MASTER.c ****             }
 242              		.loc 1 199 0
 243 003e 0124     		movs	r4, #1
ARM GAS  C:\Users\cps\AppData\Local\Temp\ccuHVRkn.s 			page 9


 244 0040 00E0     		b	.L16
 245              	.L21:
 185:.\Generated_Source\PSoC5/I2C_1_MASTER.c **** 
 246              		.loc 1 185 0
 247 0042 0224     		movs	r4, #2
 248              	.LVL22:
 249              	.L16:
 208:.\Generated_Source\PSoC5/I2C_1_MASTER.c ****         }
 209:.\Generated_Source\PSoC5/I2C_1_MASTER.c ****         else
 210:.\Generated_Source\PSoC5/I2C_1_MASTER.c ****         {
 211:.\Generated_Source\PSoC5/I2C_1_MASTER.c ****             /* errStatus = I2C_1_MSTR_NOT_READY was send before */
 212:.\Generated_Source\PSoC5/I2C_1_MASTER.c ****         }
 213:.\Generated_Source\PSoC5/I2C_1_MASTER.c **** 
 214:.\Generated_Source\PSoC5/I2C_1_MASTER.c ****         if(I2C_1_MSTR_NO_ERROR == errStatus)
 250              		.loc 1 214 0
 251 0044 54BB     		cbnz	r4, .L14
 215:.\Generated_Source\PSoC5/I2C_1_MASTER.c ****         {
 216:.\Generated_Source\PSoC5/I2C_1_MASTER.c ****             I2C_1_state    = I2C_1_SM_MSTR_RD_ADDR;
 252              		.loc 1 216 0
 253 0046 4926     		movs	r6, #73
 254 0048 1649     		ldr	r1, .L23
 255 004a 0E70     		strb	r6, [r1]
 217:.\Generated_Source\PSoC5/I2C_1_MASTER.c ****             I2C_1_DATA_REG = (((uint8) (slaveAddress << I2C_1_SLAVE_ADDR_SHIFT)) |
 256              		.loc 1 217 0
 257 004c 4100     		lsls	r1, r0, #1
 258 004e C9B2     		uxtb	r1, r1
 259 0050 41F00101 		orr	r1, r1, #1
 260 0054 1748     		ldr	r0, .L23+16
 261              	.LVL23:
 262 0056 0170     		strb	r1, [r0]
 218:.\Generated_Source\PSoC5/I2C_1_MASTER.c ****                                                    I2C_1_READ_FLAG);
 219:.\Generated_Source\PSoC5/I2C_1_MASTER.c **** 
 220:.\Generated_Source\PSoC5/I2C_1_MASTER.c ****             I2C_1_mstrRdBufIndex  = 0u;
 263              		.loc 1 220 0
 264 0058 0020     		movs	r0, #0
 265 005a 1749     		ldr	r1, .L23+20
 266 005c 0870     		strb	r0, [r1]
 221:.\Generated_Source\PSoC5/I2C_1_MASTER.c ****             I2C_1_mstrRdBufSize   = cnt;
 267              		.loc 1 221 0
 268 005e 1749     		ldr	r1, .L23+24
 269 0060 0A70     		strb	r2, [r1]
 222:.\Generated_Source\PSoC5/I2C_1_MASTER.c ****             I2C_1_mstrRdBufPtr    = (volatile uint8 *) rdData;
 270              		.loc 1 222 0
 271 0062 174A     		ldr	r2, .L23+28
 272              	.LVL24:
 273 0064 1560     		str	r5, [r2]
 223:.\Generated_Source\PSoC5/I2C_1_MASTER.c **** 
 224:.\Generated_Source\PSoC5/I2C_1_MASTER.c ****             I2C_1_mstrControl = mode;    /* Save transaction mode */
 274              		.loc 1 224 0
 275 0066 174A     		ldr	r2, .L23+32
 276 0068 1370     		strb	r3, [r2]
 277              	.LVL25:
 225:.\Generated_Source\PSoC5/I2C_1_MASTER.c **** 
 226:.\Generated_Source\PSoC5/I2C_1_MASTER.c ****             /* Generate a Start or ReStart depends on mode */
 227:.\Generated_Source\PSoC5/I2C_1_MASTER.c ****             if(I2C_1_CHECK_RESTART(mode))
 278              		.loc 1 227 0
 279 006a 13F0010F 		tst	r3, #1
ARM GAS  C:\Users\cps\AppData\Local\Temp\ccuHVRkn.s 			page 10


 280 006e 05D0     		beq	.L17
 228:.\Generated_Source\PSoC5/I2C_1_MASTER.c ****             {
 229:.\Generated_Source\PSoC5/I2C_1_MASTER.c ****                 I2C_1_GENERATE_RESTART;
 281              		.loc 1 229 0
 282 0070 3222     		movs	r2, #50
 283 0072 154B     		ldr	r3, .L23+36
 284              	.LVL26:
 285 0074 1A70     		strb	r2, [r3]
 286              	.LVL27:
 287 0076 203B     		subs	r3, r3, #32
 288 0078 1870     		strb	r0, [r3]
 289 007a 05E0     		b	.L18
 290              	.LVL28:
 291              	.L17:
 230:.\Generated_Source\PSoC5/I2C_1_MASTER.c ****             }
 231:.\Generated_Source\PSoC5/I2C_1_MASTER.c ****             else
 232:.\Generated_Source\PSoC5/I2C_1_MASTER.c ****             {
 233:.\Generated_Source\PSoC5/I2C_1_MASTER.c ****                 I2C_1_GENERATE_START;
 292              		.loc 1 233 0
 293 007c 8222     		movs	r2, #130
 294 007e 124B     		ldr	r3, .L23+36
 295              	.LVL29:
 296 0080 1A70     		strb	r2, [r3]
 297              	.LVL30:
 298 0082 0022     		movs	r2, #0
 299 0084 203B     		subs	r3, r3, #32
 300 0086 1A70     		strb	r2, [r3]
 301              	.L18:
 234:.\Generated_Source\PSoC5/I2C_1_MASTER.c ****             }
 235:.\Generated_Source\PSoC5/I2C_1_MASTER.c **** 
 236:.\Generated_Source\PSoC5/I2C_1_MASTER.c ****             I2C_1_mstrStatus &= ((uint8) ~I2C_1_MSTAT_RD_CMPLT);
 302              		.loc 1 236 0
 303 0088 094A     		ldr	r2, .L23+12
 304 008a 1378     		ldrb	r3, [r2]	@ zero_extendqisi2
 305 008c 03F0FE03 		and	r3, r3, #254
 306 0090 1370     		strb	r3, [r2]
 237:.\Generated_Source\PSoC5/I2C_1_MASTER.c **** 
 238:.\Generated_Source\PSoC5/I2C_1_MASTER.c ****             I2C_1_EnableInt();   /* Enable intr to complete transfer */
 307              		.loc 1 238 0
 308 0092 0122     		movs	r2, #1
 309 0094 0D4B     		ldr	r3, .L23+40
 310 0096 1A60     		str	r2, [r3]
 311 0098 00E0     		b	.L14
 312              	.LVL31:
 313              	.L19:
 185:.\Generated_Source\PSoC5/I2C_1_MASTER.c **** 
 314              		.loc 1 185 0
 315 009a 0224     		movs	r4, #2
 316              	.LVL32:
 317              	.L14:
 239:.\Generated_Source\PSoC5/I2C_1_MASTER.c ****         }
 240:.\Generated_Source\PSoC5/I2C_1_MASTER.c ****     }
 241:.\Generated_Source\PSoC5/I2C_1_MASTER.c **** 
 242:.\Generated_Source\PSoC5/I2C_1_MASTER.c ****     return(errStatus);
 243:.\Generated_Source\PSoC5/I2C_1_MASTER.c **** }
 318              		.loc 1 243 0
 319 009c 2046     		mov	r0, r4
ARM GAS  C:\Users\cps\AppData\Local\Temp\ccuHVRkn.s 			page 11


 320 009e 70BC     		pop	{r4, r5, r6}
 321              		.cfi_restore 6
 322              		.cfi_restore 5
 323              		.cfi_restore 4
 324              		.cfi_def_cfa_offset 0
 325              	.LVL33:
 326 00a0 7047     		bx	lr
 327              	.L24:
 328 00a2 00BF     		.align	2
 329              	.L23:
 330 00a4 00000000 		.word	I2C_1_state
 331 00a8 6B640040 		.word	1073767531
 332 00ac 80E200E0 		.word	-536812928
 333 00b0 00000000 		.word	I2C_1_mstrStatus
 334 00b4 09640040 		.word	1073767433
 335 00b8 00000000 		.word	I2C_1_mstrRdBufIndex
 336 00bc 00000000 		.word	I2C_1_mstrRdBufSize
 337 00c0 00000000 		.word	I2C_1_mstrRdBufPtr
 338 00c4 00000000 		.word	I2C_1_mstrControl
 339 00c8 79640040 		.word	1073767545
 340 00cc 00E100E0 		.word	-536813312
 341              		.cfi_endproc
 342              	.LFE1:
 343              		.size	I2C_1_MasterReadBuf, .-I2C_1_MasterReadBuf
 344              		.section	.text.I2C_1_MasterSendStart,"ax",%progbits
 345              		.align	2
 346              		.global	I2C_1_MasterSendStart
 347              		.thumb
 348              		.thumb_func
 349              		.type	I2C_1_MasterSendStart, %function
 350              	I2C_1_MasterSendStart:
 351              	.LFB2:
 244:.\Generated_Source\PSoC5/I2C_1_MASTER.c **** 
 245:.\Generated_Source\PSoC5/I2C_1_MASTER.c **** 
 246:.\Generated_Source\PSoC5/I2C_1_MASTER.c **** /*******************************************************************************
 247:.\Generated_Source\PSoC5/I2C_1_MASTER.c **** * Function Name: I2C_1_MasterSendStart
 248:.\Generated_Source\PSoC5/I2C_1_MASTER.c **** ********************************************************************************
 249:.\Generated_Source\PSoC5/I2C_1_MASTER.c **** *
 250:.\Generated_Source\PSoC5/I2C_1_MASTER.c **** * Summary:
 251:.\Generated_Source\PSoC5/I2C_1_MASTER.c **** *  Generates Start condition and sends slave address with read/write bit.
 252:.\Generated_Source\PSoC5/I2C_1_MASTER.c **** *
 253:.\Generated_Source\PSoC5/I2C_1_MASTER.c **** * Parameters:
 254:.\Generated_Source\PSoC5/I2C_1_MASTER.c **** *  slaveAddress:  7-bit slave address.
 255:.\Generated_Source\PSoC5/I2C_1_MASTER.c **** *  R_nW:          Zero, send write command, non-zero send read command.
 256:.\Generated_Source\PSoC5/I2C_1_MASTER.c **** *
 257:.\Generated_Source\PSoC5/I2C_1_MASTER.c **** * Return:
 258:.\Generated_Source\PSoC5/I2C_1_MASTER.c **** *  Status error - zero means no errors.
 259:.\Generated_Source\PSoC5/I2C_1_MASTER.c **** *
 260:.\Generated_Source\PSoC5/I2C_1_MASTER.c **** * Side Effects:
 261:.\Generated_Source\PSoC5/I2C_1_MASTER.c **** *  This function is entered without a 'byte complete' bit set in the I2C_CSR
 262:.\Generated_Source\PSoC5/I2C_1_MASTER.c **** *  register. It does not exit until it will be set.
 263:.\Generated_Source\PSoC5/I2C_1_MASTER.c **** *
 264:.\Generated_Source\PSoC5/I2C_1_MASTER.c **** * Global variables:
 265:.\Generated_Source\PSoC5/I2C_1_MASTER.c **** *  I2C_1_state - used to store current state of software FSM.
 266:.\Generated_Source\PSoC5/I2C_1_MASTER.c **** *
 267:.\Generated_Source\PSoC5/I2C_1_MASTER.c **** * Reentrant:
 268:.\Generated_Source\PSoC5/I2C_1_MASTER.c **** *  No
ARM GAS  C:\Users\cps\AppData\Local\Temp\ccuHVRkn.s 			page 12


 269:.\Generated_Source\PSoC5/I2C_1_MASTER.c **** *
 270:.\Generated_Source\PSoC5/I2C_1_MASTER.c **** *******************************************************************************/
 271:.\Generated_Source\PSoC5/I2C_1_MASTER.c **** uint8 I2C_1_MasterSendStart(uint8 slaveAddress, uint8 R_nW)
 272:.\Generated_Source\PSoC5/I2C_1_MASTER.c ****       
 273:.\Generated_Source\PSoC5/I2C_1_MASTER.c **** {
 352              		.loc 1 273 0
 353              		.cfi_startproc
 354              		@ args = 0, pretend = 0, frame = 0
 355              		@ frame_needed = 0, uses_anonymous_args = 0
 356              		@ link register save eliminated.
 357              	.LVL34:
 274:.\Generated_Source\PSoC5/I2C_1_MASTER.c ****     uint8 errStatus;
 275:.\Generated_Source\PSoC5/I2C_1_MASTER.c **** 
 276:.\Generated_Source\PSoC5/I2C_1_MASTER.c ****     errStatus = I2C_1_MSTR_NOT_READY;
 277:.\Generated_Source\PSoC5/I2C_1_MASTER.c **** 
 278:.\Generated_Source\PSoC5/I2C_1_MASTER.c ****     /* If IDLE, check if bus is free */
 279:.\Generated_Source\PSoC5/I2C_1_MASTER.c ****     if(I2C_1_SM_IDLE == I2C_1_state)
 358              		.loc 1 279 0
 359 0000 1A4B     		ldr	r3, .L33
 360 0002 1B78     		ldrb	r3, [r3]	@ zero_extendqisi2
 361 0004 DBB2     		uxtb	r3, r3
 362 0006 102B     		cmp	r3, #16
 363 0008 2AD1     		bne	.L30
 280:.\Generated_Source\PSoC5/I2C_1_MASTER.c ****     {
 281:.\Generated_Source\PSoC5/I2C_1_MASTER.c ****         /* If bus is free, generate Start condition */
 282:.\Generated_Source\PSoC5/I2C_1_MASTER.c ****         if(I2C_1_CHECK_BUS_FREE(I2C_1_MCSR_REG))
 364              		.loc 1 282 0
 365 000a 194B     		ldr	r3, .L33+4
 366 000c 1B78     		ldrb	r3, [r3]	@ zero_extendqisi2
 367 000e 13F0100F 		tst	r3, #16
 368 0012 27D1     		bne	.L31
 283:.\Generated_Source\PSoC5/I2C_1_MASTER.c ****         {
 284:.\Generated_Source\PSoC5/I2C_1_MASTER.c ****             I2C_1_DisableInt();  /* Disable ISR for Manual functions */
 369              		.loc 1 284 0
 370 0014 0122     		movs	r2, #1
 371 0016 174B     		ldr	r3, .L33+8
 372 0018 1A60     		str	r2, [r3]
 285:.\Generated_Source\PSoC5/I2C_1_MASTER.c **** 
 286:.\Generated_Source\PSoC5/I2C_1_MASTER.c ****             slaveAddress = ((uint8) (slaveAddress << I2C_1_SLAVE_ADDR_SHIFT)); /* Set Address */
 373              		.loc 1 286 0
 374 001a 9040     		lsls	r0, r0, r2
 375              	.LVL35:
 376 001c C0B2     		uxtb	r0, r0
 377              	.LVL36:
 287:.\Generated_Source\PSoC5/I2C_1_MASTER.c ****             if(0u != R_nW)                                      /* Set the Read/Write flag */
 378              		.loc 1 287 0
 379 001e 21B1     		cbz	r1, .L27
 288:.\Generated_Source\PSoC5/I2C_1_MASTER.c ****             {
 289:.\Generated_Source\PSoC5/I2C_1_MASTER.c ****                 slaveAddress |= I2C_1_READ_FLAG;
 380              		.loc 1 289 0
 381 0020 1043     		orrs	r0, r0, r2
 382              	.LVL37:
 290:.\Generated_Source\PSoC5/I2C_1_MASTER.c ****                 I2C_1_state = I2C_1_SM_MSTR_RD_ADDR;
 383              		.loc 1 290 0
 384 0022 4922     		movs	r2, #73
 385 0024 114B     		ldr	r3, .L33
 386 0026 1A70     		strb	r2, [r3]
ARM GAS  C:\Users\cps\AppData\Local\Temp\ccuHVRkn.s 			page 13


 387 0028 02E0     		b	.L28
 388              	.L27:
 291:.\Generated_Source\PSoC5/I2C_1_MASTER.c ****             }
 292:.\Generated_Source\PSoC5/I2C_1_MASTER.c ****             else
 293:.\Generated_Source\PSoC5/I2C_1_MASTER.c ****             {
 294:.\Generated_Source\PSoC5/I2C_1_MASTER.c ****                 I2C_1_state = I2C_1_SM_MSTR_WR_ADDR;
 389              		.loc 1 294 0
 390 002a 4522     		movs	r2, #69
 391 002c 0F4B     		ldr	r3, .L33
 392 002e 1A70     		strb	r2, [r3]
 393              	.L28:
 295:.\Generated_Source\PSoC5/I2C_1_MASTER.c ****             }
 296:.\Generated_Source\PSoC5/I2C_1_MASTER.c ****             I2C_1_DATA_REG = slaveAddress;   /* Write address to data reg */
 394              		.loc 1 296 0
 395 0030 114B     		ldr	r3, .L33+12
 396 0032 1870     		strb	r0, [r3]
 297:.\Generated_Source\PSoC5/I2C_1_MASTER.c **** 
 298:.\Generated_Source\PSoC5/I2C_1_MASTER.c **** 
 299:.\Generated_Source\PSoC5/I2C_1_MASTER.c ****             I2C_1_GENERATE_START;
 397              		.loc 1 299 0
 398 0034 8222     		movs	r2, #130
 399 0036 7033     		adds	r3, r3, #112
 400 0038 1A70     		strb	r2, [r3]
 401 003a 0022     		movs	r2, #0
 402 003c 203B     		subs	r3, r3, #32
 403 003e 1A70     		strb	r2, [r3]
 404              	.L29:
 300:.\Generated_Source\PSoC5/I2C_1_MASTER.c ****             while(I2C_1_WAIT_BYTE_COMPLETE(I2C_1_CSR_REG))
 405              		.loc 1 300 0 discriminator 1
 406 0040 0B4B     		ldr	r3, .L33+4
 407 0042 1B78     		ldrb	r3, [r3]	@ zero_extendqisi2
 408 0044 13F0010F 		tst	r3, #1
 409 0048 FAD0     		beq	.L29
 301:.\Generated_Source\PSoC5/I2C_1_MASTER.c ****             {
 302:.\Generated_Source\PSoC5/I2C_1_MASTER.c ****                 ; /* Wait for the address to be transfered */
 303:.\Generated_Source\PSoC5/I2C_1_MASTER.c ****             }
 304:.\Generated_Source\PSoC5/I2C_1_MASTER.c **** 
 305:.\Generated_Source\PSoC5/I2C_1_MASTER.c ****             #if(I2C_1_MODE_MULTI_MASTER_SLAVE_ENABLED)
 306:.\Generated_Source\PSoC5/I2C_1_MASTER.c ****                 if(I2C_1_CHECK_START_GEN(I2C_1_MCSR_REG))
 307:.\Generated_Source\PSoC5/I2C_1_MASTER.c ****                 {
 308:.\Generated_Source\PSoC5/I2C_1_MASTER.c ****                     I2C_1_CLEAR_START_GEN;
 309:.\Generated_Source\PSoC5/I2C_1_MASTER.c **** 
 310:.\Generated_Source\PSoC5/I2C_1_MASTER.c ****                     /* Start condition was not generated: reset FSM to IDLE */
 311:.\Generated_Source\PSoC5/I2C_1_MASTER.c ****                     I2C_1_state = I2C_1_SM_IDLE;
 312:.\Generated_Source\PSoC5/I2C_1_MASTER.c ****                     errStatus = I2C_1_MSTR_ERR_ABORT_START_GEN;
 313:.\Generated_Source\PSoC5/I2C_1_MASTER.c ****                 }
 314:.\Generated_Source\PSoC5/I2C_1_MASTER.c ****                 else
 315:.\Generated_Source\PSoC5/I2C_1_MASTER.c ****             #endif /* (I2C_1_MODE_MULTI_MASTER_SLAVE_ENABLED) */
 316:.\Generated_Source\PSoC5/I2C_1_MASTER.c **** 
 317:.\Generated_Source\PSoC5/I2C_1_MASTER.c ****             #if(I2C_1_MODE_MULTI_MASTER_ENABLED)
 318:.\Generated_Source\PSoC5/I2C_1_MASTER.c **** 
 319:.\Generated_Source\PSoC5/I2C_1_MASTER.c ****                 if(I2C_1_CHECK_LOST_ARB(I2C_1_CSR_REG))
 320:.\Generated_Source\PSoC5/I2C_1_MASTER.c ****                 {
 321:.\Generated_Source\PSoC5/I2C_1_MASTER.c ****                     I2C_1_BUS_RELEASE;
 322:.\Generated_Source\PSoC5/I2C_1_MASTER.c **** 
 323:.\Generated_Source\PSoC5/I2C_1_MASTER.c ****                     /* Master lost arbitrage: reset FSM to IDLE */
 324:.\Generated_Source\PSoC5/I2C_1_MASTER.c ****                     I2C_1_state = I2C_1_SM_IDLE;
ARM GAS  C:\Users\cps\AppData\Local\Temp\ccuHVRkn.s 			page 14


 325:.\Generated_Source\PSoC5/I2C_1_MASTER.c ****                     errStatus = I2C_1_MSTR_ERR_ARB_LOST;
 326:.\Generated_Source\PSoC5/I2C_1_MASTER.c ****                 }
 327:.\Generated_Source\PSoC5/I2C_1_MASTER.c ****                 else
 328:.\Generated_Source\PSoC5/I2C_1_MASTER.c ****             #endif /* (I2C_1_MODE_MULTI_MASTER_ENABLED) */
 329:.\Generated_Source\PSoC5/I2C_1_MASTER.c **** 
 330:.\Generated_Source\PSoC5/I2C_1_MASTER.c ****                 if(I2C_1_CHECK_ADDR_NAK(I2C_1_CSR_REG))
 410              		.loc 1 330 0
 411 004a 094B     		ldr	r3, .L33+4
 412 004c 1B78     		ldrb	r3, [r3]	@ zero_extendqisi2
 413 004e 03F00A03 		and	r3, r3, #10
 414 0052 0A2B     		cmp	r3, #10
 415 0054 08D1     		bne	.L32
 331:.\Generated_Source\PSoC5/I2C_1_MASTER.c ****                 {
 332:.\Generated_Source\PSoC5/I2C_1_MASTER.c ****                     /* Address has been NACKed: reset FSM to IDLE */
 333:.\Generated_Source\PSoC5/I2C_1_MASTER.c ****                     I2C_1_state = I2C_1_SM_IDLE;
 416              		.loc 1 333 0
 417 0056 1022     		movs	r2, #16
 418 0058 044B     		ldr	r3, .L33
 419 005a 1A70     		strb	r2, [r3]
 420              	.LVL38:
 334:.\Generated_Source\PSoC5/I2C_1_MASTER.c ****                     errStatus = I2C_1_MSTR_ERR_LB_NAK;
 421              		.loc 1 334 0
 422 005c 0320     		movs	r0, #3
 423              	.LVL39:
 424 005e 7047     		bx	lr
 425              	.LVL40:
 426              	.L30:
 276:.\Generated_Source\PSoC5/I2C_1_MASTER.c **** 
 427              		.loc 1 276 0
 428 0060 0220     		movs	r0, #2
 429              	.LVL41:
 430 0062 7047     		bx	lr
 431              	.LVL42:
 432              	.L31:
 335:.\Generated_Source\PSoC5/I2C_1_MASTER.c ****                 }
 336:.\Generated_Source\PSoC5/I2C_1_MASTER.c ****                 else
 337:.\Generated_Source\PSoC5/I2C_1_MASTER.c ****                 {
 338:.\Generated_Source\PSoC5/I2C_1_MASTER.c ****                     /* Start was sent witout errors */
 339:.\Generated_Source\PSoC5/I2C_1_MASTER.c ****                     errStatus = I2C_1_MSTR_NO_ERROR;
 340:.\Generated_Source\PSoC5/I2C_1_MASTER.c ****                 }
 341:.\Generated_Source\PSoC5/I2C_1_MASTER.c ****         }
 342:.\Generated_Source\PSoC5/I2C_1_MASTER.c ****         else
 343:.\Generated_Source\PSoC5/I2C_1_MASTER.c ****         {
 344:.\Generated_Source\PSoC5/I2C_1_MASTER.c ****             errStatus = I2C_1_MSTR_BUS_BUSY; /* Bus is busy */
 433              		.loc 1 344 0
 434 0064 0120     		movs	r0, #1
 435              	.LVL43:
 436 0066 7047     		bx	lr
 437              	.LVL44:
 438              	.L32:
 339:.\Generated_Source\PSoC5/I2C_1_MASTER.c ****                 }
 439              		.loc 1 339 0
 440 0068 0020     		movs	r0, #0
 441              	.LVL45:
 345:.\Generated_Source\PSoC5/I2C_1_MASTER.c ****         }
 346:.\Generated_Source\PSoC5/I2C_1_MASTER.c ****     }
 347:.\Generated_Source\PSoC5/I2C_1_MASTER.c **** 
ARM GAS  C:\Users\cps\AppData\Local\Temp\ccuHVRkn.s 			page 15


 348:.\Generated_Source\PSoC5/I2C_1_MASTER.c ****     return(errStatus);
 349:.\Generated_Source\PSoC5/I2C_1_MASTER.c **** }
 442              		.loc 1 349 0
 443 006a 7047     		bx	lr
 444              	.L34:
 445              		.align	2
 446              	.L33:
 447 006c 00000000 		.word	I2C_1_state
 448 0070 6B640040 		.word	1073767531
 449 0074 80E100E0 		.word	-536813184
 450 0078 09640040 		.word	1073767433
 451              		.cfi_endproc
 452              	.LFE2:
 453              		.size	I2C_1_MasterSendStart, .-I2C_1_MasterSendStart
 454              		.section	.text.I2C_1_MasterSendRestart,"ax",%progbits
 455              		.align	2
 456              		.global	I2C_1_MasterSendRestart
 457              		.thumb
 458              		.thumb_func
 459              		.type	I2C_1_MasterSendRestart, %function
 460              	I2C_1_MasterSendRestart:
 461              	.LFB3:
 350:.\Generated_Source\PSoC5/I2C_1_MASTER.c **** 
 351:.\Generated_Source\PSoC5/I2C_1_MASTER.c **** 
 352:.\Generated_Source\PSoC5/I2C_1_MASTER.c **** /*******************************************************************************
 353:.\Generated_Source\PSoC5/I2C_1_MASTER.c **** * Function Name: I2C_1_MasterSendRestart
 354:.\Generated_Source\PSoC5/I2C_1_MASTER.c **** ********************************************************************************
 355:.\Generated_Source\PSoC5/I2C_1_MASTER.c **** *
 356:.\Generated_Source\PSoC5/I2C_1_MASTER.c **** * Summary:
 357:.\Generated_Source\PSoC5/I2C_1_MASTER.c **** *  Generates ReStart condition and sends slave address with read/write bit.
 358:.\Generated_Source\PSoC5/I2C_1_MASTER.c **** *
 359:.\Generated_Source\PSoC5/I2C_1_MASTER.c **** * Parameters:
 360:.\Generated_Source\PSoC5/I2C_1_MASTER.c **** *  slaveAddress:  7-bit slave address.
 361:.\Generated_Source\PSoC5/I2C_1_MASTER.c **** *  R_nW:          Zero, send write command, non-zero send read command.
 362:.\Generated_Source\PSoC5/I2C_1_MASTER.c **** *
 363:.\Generated_Source\PSoC5/I2C_1_MASTER.c **** * Return:
 364:.\Generated_Source\PSoC5/I2C_1_MASTER.c **** *  Status error - zero means no errors.
 365:.\Generated_Source\PSoC5/I2C_1_MASTER.c **** *
 366:.\Generated_Source\PSoC5/I2C_1_MASTER.c **** * Side Effects:
 367:.\Generated_Source\PSoC5/I2C_1_MASTER.c **** *  This function is entered without a 'byte complete' bit set in the I2C_CSR
 368:.\Generated_Source\PSoC5/I2C_1_MASTER.c **** *  register. It does not exit until it will be set.
 369:.\Generated_Source\PSoC5/I2C_1_MASTER.c **** *
 370:.\Generated_Source\PSoC5/I2C_1_MASTER.c **** * Global variables:
 371:.\Generated_Source\PSoC5/I2C_1_MASTER.c **** *  I2C_1_state - used to store current state of software FSM.
 372:.\Generated_Source\PSoC5/I2C_1_MASTER.c **** *
 373:.\Generated_Source\PSoC5/I2C_1_MASTER.c **** * Reentrant:
 374:.\Generated_Source\PSoC5/I2C_1_MASTER.c **** *  No
 375:.\Generated_Source\PSoC5/I2C_1_MASTER.c **** *
 376:.\Generated_Source\PSoC5/I2C_1_MASTER.c **** *******************************************************************************/
 377:.\Generated_Source\PSoC5/I2C_1_MASTER.c **** uint8 I2C_1_MasterSendRestart(uint8 slaveAddress, uint8 R_nW)
 378:.\Generated_Source\PSoC5/I2C_1_MASTER.c ****       
 379:.\Generated_Source\PSoC5/I2C_1_MASTER.c **** {
 462              		.loc 1 379 0
 463              		.cfi_startproc
 464              		@ args = 0, pretend = 0, frame = 0
 465              		@ frame_needed = 0, uses_anonymous_args = 0
 466              		@ link register save eliminated.
ARM GAS  C:\Users\cps\AppData\Local\Temp\ccuHVRkn.s 			page 16


 467              	.LVL46:
 380:.\Generated_Source\PSoC5/I2C_1_MASTER.c ****     uint8 errStatus;
 381:.\Generated_Source\PSoC5/I2C_1_MASTER.c **** 
 382:.\Generated_Source\PSoC5/I2C_1_MASTER.c ****     errStatus = I2C_1_MSTR_NOT_READY;
 383:.\Generated_Source\PSoC5/I2C_1_MASTER.c **** 
 384:.\Generated_Source\PSoC5/I2C_1_MASTER.c ****     /* Check if START condition was generated */
 385:.\Generated_Source\PSoC5/I2C_1_MASTER.c ****     if(I2C_1_CHECK_MASTER_MODE(I2C_1_MCSR_REG))
 468              		.loc 1 385 0
 469 0000 184B     		ldr	r3, .L43
 470 0002 1B78     		ldrb	r3, [r3]	@ zero_extendqisi2
 471 0004 13F0040F 		tst	r3, #4
 472 0008 28D0     		beq	.L41
 386:.\Generated_Source\PSoC5/I2C_1_MASTER.c ****     {
 387:.\Generated_Source\PSoC5/I2C_1_MASTER.c ****         slaveAddress = ((uint8) (slaveAddress << I2C_1_SLAVE_ADDR_SHIFT)); /* Set Address */
 473              		.loc 1 387 0
 474 000a 4000     		lsls	r0, r0, #1
 475              	.LVL47:
 476 000c C0B2     		uxtb	r0, r0
 477              	.LVL48:
 388:.\Generated_Source\PSoC5/I2C_1_MASTER.c ****         if(0u != R_nW)  /* Set the Read/Write flag */
 478              		.loc 1 388 0
 479 000e 29B1     		cbz	r1, .L37
 389:.\Generated_Source\PSoC5/I2C_1_MASTER.c ****         {
 390:.\Generated_Source\PSoC5/I2C_1_MASTER.c ****             slaveAddress |= I2C_1_READ_FLAG;
 480              		.loc 1 390 0
 481 0010 40F00100 		orr	r0, r0, #1
 482              	.LVL49:
 391:.\Generated_Source\PSoC5/I2C_1_MASTER.c ****             I2C_1_state = I2C_1_SM_MSTR_RD_ADDR;
 483              		.loc 1 391 0
 484 0014 4922     		movs	r2, #73
 485 0016 144B     		ldr	r3, .L43+4
 486 0018 1A70     		strb	r2, [r3]
 487 001a 02E0     		b	.L38
 488              	.L37:
 392:.\Generated_Source\PSoC5/I2C_1_MASTER.c ****         }
 393:.\Generated_Source\PSoC5/I2C_1_MASTER.c ****         else
 394:.\Generated_Source\PSoC5/I2C_1_MASTER.c ****         {
 395:.\Generated_Source\PSoC5/I2C_1_MASTER.c ****             I2C_1_state = I2C_1_SM_MSTR_WR_ADDR;
 489              		.loc 1 395 0
 490 001c 4522     		movs	r2, #69
 491 001e 124B     		ldr	r3, .L43+4
 492 0020 1A70     		strb	r2, [r3]
 493              	.L38:
 396:.\Generated_Source\PSoC5/I2C_1_MASTER.c ****         }
 397:.\Generated_Source\PSoC5/I2C_1_MASTER.c ****         I2C_1_DATA_REG = slaveAddress;    /* Write address to data reg */
 494              		.loc 1 397 0
 495 0022 124B     		ldr	r3, .L43+8
 496 0024 1870     		strb	r0, [r3]
 398:.\Generated_Source\PSoC5/I2C_1_MASTER.c **** 
 399:.\Generated_Source\PSoC5/I2C_1_MASTER.c **** 
 400:.\Generated_Source\PSoC5/I2C_1_MASTER.c ****         I2C_1_GENERATE_RESTART_MANUAL;
 497              		.loc 1 400 0
 498 0026 3222     		movs	r2, #50
 499 0028 7033     		adds	r3, r3, #112
 500 002a 1A70     		strb	r2, [r3]
 501 002c 0022     		movs	r2, #0
 502 002e 203B     		subs	r3, r3, #32
ARM GAS  C:\Users\cps\AppData\Local\Temp\ccuHVRkn.s 			page 17


 503 0030 1A70     		strb	r2, [r3]
 504              	.L39:
 505              		.loc 1 400 0 is_stmt 0 discriminator 2
 506 0032 0C4B     		ldr	r3, .L43
 507 0034 1B78     		ldrb	r3, [r3]	@ zero_extendqisi2
 508 0036 13F0010F 		tst	r3, #1
 509 003a FAD1     		bne	.L39
 510              	.L40:
 401:.\Generated_Source\PSoC5/I2C_1_MASTER.c ****         while(I2C_1_WAIT_BYTE_COMPLETE(I2C_1_CSR_REG))
 511              		.loc 1 401 0 is_stmt 1 discriminator 1
 512 003c 094B     		ldr	r3, .L43
 513 003e 1B78     		ldrb	r3, [r3]	@ zero_extendqisi2
 514 0040 13F0010F 		tst	r3, #1
 515 0044 FAD0     		beq	.L40
 402:.\Generated_Source\PSoC5/I2C_1_MASTER.c ****         {
 403:.\Generated_Source\PSoC5/I2C_1_MASTER.c ****             ; /* Wait for the address to be transfered */
 404:.\Generated_Source\PSoC5/I2C_1_MASTER.c ****         }
 405:.\Generated_Source\PSoC5/I2C_1_MASTER.c **** 
 406:.\Generated_Source\PSoC5/I2C_1_MASTER.c ****         #if(I2C_1_MODE_MULTI_MASTER_ENABLED)
 407:.\Generated_Source\PSoC5/I2C_1_MASTER.c ****             if(I2C_1_CHECK_LOST_ARB(I2C_1_CSR_REG))
 408:.\Generated_Source\PSoC5/I2C_1_MASTER.c ****             {
 409:.\Generated_Source\PSoC5/I2C_1_MASTER.c ****                 I2C_1_BUS_RELEASE;
 410:.\Generated_Source\PSoC5/I2C_1_MASTER.c **** 
 411:.\Generated_Source\PSoC5/I2C_1_MASTER.c ****                 /* Master lost arbitrage: reset FSM to IDLE */
 412:.\Generated_Source\PSoC5/I2C_1_MASTER.c ****                 I2C_1_state = I2C_1_SM_IDLE;
 413:.\Generated_Source\PSoC5/I2C_1_MASTER.c ****                 errStatus = I2C_1_MSTR_ERR_ARB_LOST;
 414:.\Generated_Source\PSoC5/I2C_1_MASTER.c ****             }
 415:.\Generated_Source\PSoC5/I2C_1_MASTER.c ****             else
 416:.\Generated_Source\PSoC5/I2C_1_MASTER.c ****         #endif /* (I2C_1_MODE_MULTI_MASTER_ENABLED) */
 417:.\Generated_Source\PSoC5/I2C_1_MASTER.c **** 
 418:.\Generated_Source\PSoC5/I2C_1_MASTER.c ****             if(I2C_1_CHECK_ADDR_NAK(I2C_1_CSR_REG))
 516              		.loc 1 418 0
 517 0046 074B     		ldr	r3, .L43
 518 0048 1B78     		ldrb	r3, [r3]	@ zero_extendqisi2
 519 004a 03F00A03 		and	r3, r3, #10
 520 004e 0A2B     		cmp	r3, #10
 521 0050 06D1     		bne	.L42
 419:.\Generated_Source\PSoC5/I2C_1_MASTER.c ****             {
 420:.\Generated_Source\PSoC5/I2C_1_MASTER.c ****                 /* Address has been NACKed: reset FSM to IDLE */
 421:.\Generated_Source\PSoC5/I2C_1_MASTER.c ****                 I2C_1_state = I2C_1_SM_IDLE;
 522              		.loc 1 421 0
 523 0052 1022     		movs	r2, #16
 524 0054 044B     		ldr	r3, .L43+4
 525 0056 1A70     		strb	r2, [r3]
 526              	.LVL50:
 422:.\Generated_Source\PSoC5/I2C_1_MASTER.c ****                 errStatus = I2C_1_MSTR_ERR_LB_NAK;
 527              		.loc 1 422 0
 528 0058 0320     		movs	r0, #3
 529              	.LVL51:
 530 005a 7047     		bx	lr
 531              	.LVL52:
 532              	.L41:
 382:.\Generated_Source\PSoC5/I2C_1_MASTER.c **** 
 533              		.loc 1 382 0
 534 005c 0220     		movs	r0, #2
 535              	.LVL53:
 536 005e 7047     		bx	lr
ARM GAS  C:\Users\cps\AppData\Local\Temp\ccuHVRkn.s 			page 18


 537              	.LVL54:
 538              	.L42:
 423:.\Generated_Source\PSoC5/I2C_1_MASTER.c ****             }
 424:.\Generated_Source\PSoC5/I2C_1_MASTER.c ****             else
 425:.\Generated_Source\PSoC5/I2C_1_MASTER.c ****             {
 426:.\Generated_Source\PSoC5/I2C_1_MASTER.c ****                 /* ReStart was sent witout errors */
 427:.\Generated_Source\PSoC5/I2C_1_MASTER.c ****                 errStatus = I2C_1_MSTR_NO_ERROR;
 539              		.loc 1 427 0
 540 0060 0020     		movs	r0, #0
 541              	.LVL55:
 428:.\Generated_Source\PSoC5/I2C_1_MASTER.c ****             }
 429:.\Generated_Source\PSoC5/I2C_1_MASTER.c ****     }
 430:.\Generated_Source\PSoC5/I2C_1_MASTER.c **** 
 431:.\Generated_Source\PSoC5/I2C_1_MASTER.c ****     return(errStatus);
 432:.\Generated_Source\PSoC5/I2C_1_MASTER.c **** }
 542              		.loc 1 432 0
 543 0062 7047     		bx	lr
 544              	.L44:
 545              		.align	2
 546              	.L43:
 547 0064 6B640040 		.word	1073767531
 548 0068 00000000 		.word	I2C_1_state
 549 006c 09640040 		.word	1073767433
 550              		.cfi_endproc
 551              	.LFE3:
 552              		.size	I2C_1_MasterSendRestart, .-I2C_1_MasterSendRestart
 553              		.section	.text.I2C_1_MasterSendStop,"ax",%progbits
 554              		.align	2
 555              		.global	I2C_1_MasterSendStop
 556              		.thumb
 557              		.thumb_func
 558              		.type	I2C_1_MasterSendStop, %function
 559              	I2C_1_MasterSendStop:
 560              	.LFB4:
 433:.\Generated_Source\PSoC5/I2C_1_MASTER.c **** 
 434:.\Generated_Source\PSoC5/I2C_1_MASTER.c **** 
 435:.\Generated_Source\PSoC5/I2C_1_MASTER.c **** /*******************************************************************************
 436:.\Generated_Source\PSoC5/I2C_1_MASTER.c **** * Function Name: I2C_1_MasterSendStop
 437:.\Generated_Source\PSoC5/I2C_1_MASTER.c **** ********************************************************************************
 438:.\Generated_Source\PSoC5/I2C_1_MASTER.c **** *
 439:.\Generated_Source\PSoC5/I2C_1_MASTER.c **** * Summary:
 440:.\Generated_Source\PSoC5/I2C_1_MASTER.c **** *  Generates I2C Stop condition on bus. Function do nothing if Start or Restart
 441:.\Generated_Source\PSoC5/I2C_1_MASTER.c **** *  condition was failed before call this function.
 442:.\Generated_Source\PSoC5/I2C_1_MASTER.c **** *
 443:.\Generated_Source\PSoC5/I2C_1_MASTER.c **** * Parameters:
 444:.\Generated_Source\PSoC5/I2C_1_MASTER.c **** *  None
 445:.\Generated_Source\PSoC5/I2C_1_MASTER.c **** *
 446:.\Generated_Source\PSoC5/I2C_1_MASTER.c **** * Return:
 447:.\Generated_Source\PSoC5/I2C_1_MASTER.c **** *  Status error - zero means no errors.
 448:.\Generated_Source\PSoC5/I2C_1_MASTER.c **** *
 449:.\Generated_Source\PSoC5/I2C_1_MASTER.c **** * Side Effects:
 450:.\Generated_Source\PSoC5/I2C_1_MASTER.c **** *  The Stop generation is required to complete transaction.
 451:.\Generated_Source\PSoC5/I2C_1_MASTER.c **** *  This function does not wait whileStop condition will be generated.
 452:.\Generated_Source\PSoC5/I2C_1_MASTER.c **** *
 453:.\Generated_Source\PSoC5/I2C_1_MASTER.c **** * Global variables:
 454:.\Generated_Source\PSoC5/I2C_1_MASTER.c **** *  I2C_1_state - used to store current state of software FSM.
 455:.\Generated_Source\PSoC5/I2C_1_MASTER.c **** *
ARM GAS  C:\Users\cps\AppData\Local\Temp\ccuHVRkn.s 			page 19


 456:.\Generated_Source\PSoC5/I2C_1_MASTER.c **** * Reentrant:
 457:.\Generated_Source\PSoC5/I2C_1_MASTER.c **** *  No
 458:.\Generated_Source\PSoC5/I2C_1_MASTER.c **** *
 459:.\Generated_Source\PSoC5/I2C_1_MASTER.c **** *******************************************************************************/
 460:.\Generated_Source\PSoC5/I2C_1_MASTER.c **** uint8 I2C_1_MasterSendStop(void) 
 461:.\Generated_Source\PSoC5/I2C_1_MASTER.c **** {
 561              		.loc 1 461 0
 562              		.cfi_startproc
 563              		@ args = 0, pretend = 0, frame = 0
 564              		@ frame_needed = 0, uses_anonymous_args = 0
 565              		@ link register save eliminated.
 566              	.LVL56:
 462:.\Generated_Source\PSoC5/I2C_1_MASTER.c ****     uint8 errStatus;
 463:.\Generated_Source\PSoC5/I2C_1_MASTER.c **** 
 464:.\Generated_Source\PSoC5/I2C_1_MASTER.c ****     errStatus = I2C_1_MSTR_NOT_READY;
 465:.\Generated_Source\PSoC5/I2C_1_MASTER.c **** 
 466:.\Generated_Source\PSoC5/I2C_1_MASTER.c ****     /* Check if START condition was generated */
 467:.\Generated_Source\PSoC5/I2C_1_MASTER.c ****     if(I2C_1_CHECK_MASTER_MODE(I2C_1_MCSR_REG))
 567              		.loc 1 467 0
 568 0000 0D4B     		ldr	r3, .L50
 569 0002 1B78     		ldrb	r3, [r3]	@ zero_extendqisi2
 570 0004 13F0040F 		tst	r3, #4
 571 0008 14D0     		beq	.L49
 468:.\Generated_Source\PSoC5/I2C_1_MASTER.c ****     {
 469:.\Generated_Source\PSoC5/I2C_1_MASTER.c ****         I2C_1_GENERATE_STOP_MANUAL;              /* Generate STOP */
 572              		.loc 1 469 0
 573 000a 5222     		movs	r2, #82
 574 000c 0B4B     		ldr	r3, .L50+4
 575 000e 1A70     		strb	r2, [r3]
 576 0010 0022     		movs	r2, #0
 577 0012 203B     		subs	r3, r3, #32
 578 0014 1A70     		strb	r2, [r3]
 579              	.L47:
 580              		.loc 1 469 0 is_stmt 0 discriminator 2
 581 0016 084B     		ldr	r3, .L50
 582 0018 1B78     		ldrb	r3, [r3]	@ zero_extendqisi2
 583 001a 13F0010F 		tst	r3, #1
 584 001e FAD1     		bne	.L47
 470:.\Generated_Source\PSoC5/I2C_1_MASTER.c ****         I2C_1_state = I2C_1_SM_IDLE;  /* Reset state to IDLE */
 585              		.loc 1 470 0 is_stmt 1
 586 0020 1022     		movs	r2, #16
 587 0022 074B     		ldr	r3, .L50+8
 588 0024 1A70     		strb	r2, [r3]
 589              	.L48:
 471:.\Generated_Source\PSoC5/I2C_1_MASTER.c **** 
 472:.\Generated_Source\PSoC5/I2C_1_MASTER.c ****         while(I2C_1_WAIT_STOP_COMPLETE(I2C_1_CSR_REG))
 590              		.loc 1 472 0 discriminator 1
 591 0026 044B     		ldr	r3, .L50
 592 0028 1B78     		ldrb	r3, [r3]	@ zero_extendqisi2
 593 002a 13F0210F 		tst	r3, #33
 594 002e FAD0     		beq	.L48
 473:.\Generated_Source\PSoC5/I2C_1_MASTER.c ****         {
 474:.\Generated_Source\PSoC5/I2C_1_MASTER.c ****             ; /* Wait for Stop to be generated */
 475:.\Generated_Source\PSoC5/I2C_1_MASTER.c ****         }
 476:.\Generated_Source\PSoC5/I2C_1_MASTER.c **** 
 477:.\Generated_Source\PSoC5/I2C_1_MASTER.c ****         errStatus = I2C_1_MSTR_NO_ERROR;
 595              		.loc 1 477 0
ARM GAS  C:\Users\cps\AppData\Local\Temp\ccuHVRkn.s 			page 20


 596 0030 0020     		movs	r0, #0
 597 0032 7047     		bx	lr
 598              	.L49:
 464:.\Generated_Source\PSoC5/I2C_1_MASTER.c **** 
 599              		.loc 1 464 0
 600 0034 0220     		movs	r0, #2
 601              	.LVL57:
 478:.\Generated_Source\PSoC5/I2C_1_MASTER.c ****         #if(I2C_1_MODE_MULTI_MASTER_ENABLED)
 479:.\Generated_Source\PSoC5/I2C_1_MASTER.c ****             if(I2C_1_CHECK_LOST_ARB(I2C_1_CSR_REG))
 480:.\Generated_Source\PSoC5/I2C_1_MASTER.c ****             {
 481:.\Generated_Source\PSoC5/I2C_1_MASTER.c ****                 I2C_1_BUS_RELEASE;
 482:.\Generated_Source\PSoC5/I2C_1_MASTER.c **** 
 483:.\Generated_Source\PSoC5/I2C_1_MASTER.c ****                 /* NACK was generated by enother instead Stop */
 484:.\Generated_Source\PSoC5/I2C_1_MASTER.c ****                 errStatus = I2C_1_MSTR_ERR_ARB_LOST;
 485:.\Generated_Source\PSoC5/I2C_1_MASTER.c ****             }
 486:.\Generated_Source\PSoC5/I2C_1_MASTER.c ****         #endif /* (I2C_1_MODE_MULTI_MASTER_ENABLED) */
 487:.\Generated_Source\PSoC5/I2C_1_MASTER.c ****     }
 488:.\Generated_Source\PSoC5/I2C_1_MASTER.c **** 
 489:.\Generated_Source\PSoC5/I2C_1_MASTER.c ****     return(errStatus);
 490:.\Generated_Source\PSoC5/I2C_1_MASTER.c **** }
 602              		.loc 1 490 0
 603 0036 7047     		bx	lr
 604              	.L51:
 605              		.align	2
 606              	.L50:
 607 0038 6B640040 		.word	1073767531
 608 003c 79640040 		.word	1073767545
 609 0040 00000000 		.word	I2C_1_state
 610              		.cfi_endproc
 611              	.LFE4:
 612              		.size	I2C_1_MasterSendStop, .-I2C_1_MasterSendStop
 613              		.section	.text.I2C_1_MasterWriteByte,"ax",%progbits
 614              		.align	2
 615              		.global	I2C_1_MasterWriteByte
 616              		.thumb
 617              		.thumb_func
 618              		.type	I2C_1_MasterWriteByte, %function
 619              	I2C_1_MasterWriteByte:
 620              	.LFB5:
 491:.\Generated_Source\PSoC5/I2C_1_MASTER.c **** 
 492:.\Generated_Source\PSoC5/I2C_1_MASTER.c **** 
 493:.\Generated_Source\PSoC5/I2C_1_MASTER.c **** /*******************************************************************************
 494:.\Generated_Source\PSoC5/I2C_1_MASTER.c **** * Function Name: I2C_1_MasterWriteByte
 495:.\Generated_Source\PSoC5/I2C_1_MASTER.c **** ********************************************************************************
 496:.\Generated_Source\PSoC5/I2C_1_MASTER.c **** *
 497:.\Generated_Source\PSoC5/I2C_1_MASTER.c **** * Summary:
 498:.\Generated_Source\PSoC5/I2C_1_MASTER.c **** *  Sends one byte to a slave. A valid Start or ReStart condition must be
 499:.\Generated_Source\PSoC5/I2C_1_MASTER.c **** *  generated before this call this function. Function do nothing if Start or
 500:.\Generated_Source\PSoC5/I2C_1_MASTER.c **** *  Restart condition was failed before call this function.
 501:.\Generated_Source\PSoC5/I2C_1_MASTER.c **** *
 502:.\Generated_Source\PSoC5/I2C_1_MASTER.c **** * Parameters:
 503:.\Generated_Source\PSoC5/I2C_1_MASTER.c **** *  data:  The data byte to send to the slave.
 504:.\Generated_Source\PSoC5/I2C_1_MASTER.c **** *
 505:.\Generated_Source\PSoC5/I2C_1_MASTER.c **** * Return:
 506:.\Generated_Source\PSoC5/I2C_1_MASTER.c **** *  Status error - zero means no errors.
 507:.\Generated_Source\PSoC5/I2C_1_MASTER.c **** *
 508:.\Generated_Source\PSoC5/I2C_1_MASTER.c **** * Side Effects:
ARM GAS  C:\Users\cps\AppData\Local\Temp\ccuHVRkn.s 			page 21


 509:.\Generated_Source\PSoC5/I2C_1_MASTER.c **** *  This function is entered without a 'byte complete' bit set in the I2C_CSR
 510:.\Generated_Source\PSoC5/I2C_1_MASTER.c **** *  register. It does not exit until it will be set.
 511:.\Generated_Source\PSoC5/I2C_1_MASTER.c **** *
 512:.\Generated_Source\PSoC5/I2C_1_MASTER.c **** * Global variables:
 513:.\Generated_Source\PSoC5/I2C_1_MASTER.c **** *  I2C_1_state - used to store current state of software FSM.
 514:.\Generated_Source\PSoC5/I2C_1_MASTER.c **** *
 515:.\Generated_Source\PSoC5/I2C_1_MASTER.c **** *******************************************************************************/
 516:.\Generated_Source\PSoC5/I2C_1_MASTER.c **** uint8 I2C_1_MasterWriteByte(uint8 theByte) 
 517:.\Generated_Source\PSoC5/I2C_1_MASTER.c **** {
 621              		.loc 1 517 0
 622              		.cfi_startproc
 623              		@ args = 0, pretend = 0, frame = 0
 624              		@ frame_needed = 0, uses_anonymous_args = 0
 625              		@ link register save eliminated.
 626              	.LVL58:
 518:.\Generated_Source\PSoC5/I2C_1_MASTER.c ****     uint8 errStatus;
 519:.\Generated_Source\PSoC5/I2C_1_MASTER.c **** 
 520:.\Generated_Source\PSoC5/I2C_1_MASTER.c ****     errStatus = I2C_1_MSTR_NOT_READY;
 521:.\Generated_Source\PSoC5/I2C_1_MASTER.c **** 
 522:.\Generated_Source\PSoC5/I2C_1_MASTER.c ****     /* Check if START condition was generated */
 523:.\Generated_Source\PSoC5/I2C_1_MASTER.c ****     if(I2C_1_CHECK_MASTER_MODE(I2C_1_MCSR_REG))
 627              		.loc 1 523 0
 628 0000 154B     		ldr	r3, .L58
 629 0002 1B78     		ldrb	r3, [r3]	@ zero_extendqisi2
 630 0004 13F0040F 		tst	r3, #4
 631 0008 23D0     		beq	.L57
 524:.\Generated_Source\PSoC5/I2C_1_MASTER.c ****     {
 525:.\Generated_Source\PSoC5/I2C_1_MASTER.c ****         I2C_1_DATA_REG = theByte;                        /* Write DATA register */
 632              		.loc 1 525 0
 633 000a 144B     		ldr	r3, .L58+4
 634 000c 1870     		strb	r0, [r3]
 526:.\Generated_Source\PSoC5/I2C_1_MASTER.c ****         I2C_1_TRANSMIT_DATA_MANUAL;                      /* Set transmit mode */
 635              		.loc 1 526 0
 636 000e 0622     		movs	r2, #6
 637 0010 7033     		adds	r3, r3, #112
 638 0012 1A70     		strb	r2, [r3]
 639 0014 0022     		movs	r2, #0
 640 0016 203B     		subs	r3, r3, #32
 641 0018 1A70     		strb	r2, [r3]
 642              	.L54:
 643              		.loc 1 526 0 is_stmt 0 discriminator 2
 644 001a 0F4B     		ldr	r3, .L58
 645 001c 1B78     		ldrb	r3, [r3]	@ zero_extendqisi2
 646 001e 13F0010F 		tst	r3, #1
 647 0022 FAD1     		bne	.L54
 527:.\Generated_Source\PSoC5/I2C_1_MASTER.c ****         I2C_1_state = I2C_1_SM_MSTR_WR_DATA;  /* Set state WR_DATA */
 648              		.loc 1 527 0 is_stmt 1
 649 0024 4622     		movs	r2, #70
 650 0026 0E4B     		ldr	r3, .L58+8
 651 0028 1A70     		strb	r2, [r3]
 652              	.L55:
 528:.\Generated_Source\PSoC5/I2C_1_MASTER.c **** 
 529:.\Generated_Source\PSoC5/I2C_1_MASTER.c ****         /* Make sure the last byte has been transfered first */
 530:.\Generated_Source\PSoC5/I2C_1_MASTER.c ****         while(I2C_1_WAIT_BYTE_COMPLETE(I2C_1_CSR_REG))
 653              		.loc 1 530 0 discriminator 1
 654 002a 0B4B     		ldr	r3, .L58
 655 002c 1B78     		ldrb	r3, [r3]	@ zero_extendqisi2
ARM GAS  C:\Users\cps\AppData\Local\Temp\ccuHVRkn.s 			page 22


 656 002e 13F0010F 		tst	r3, #1
 657 0032 FAD0     		beq	.L55
 531:.\Generated_Source\PSoC5/I2C_1_MASTER.c ****         {
 532:.\Generated_Source\PSoC5/I2C_1_MASTER.c ****             ; /* Wait for byte to be written */
 533:.\Generated_Source\PSoC5/I2C_1_MASTER.c ****         }
 534:.\Generated_Source\PSoC5/I2C_1_MASTER.c **** 
 535:.\Generated_Source\PSoC5/I2C_1_MASTER.c ****         #if(I2C_1_MODE_MULTI_MASTER_ENABLED)
 536:.\Generated_Source\PSoC5/I2C_1_MASTER.c ****             if(I2C_1_CHECK_LOST_ARB(I2C_1_CSR_REG))
 537:.\Generated_Source\PSoC5/I2C_1_MASTER.c ****             {
 538:.\Generated_Source\PSoC5/I2C_1_MASTER.c ****                 I2C_1_BUS_RELEASE;
 539:.\Generated_Source\PSoC5/I2C_1_MASTER.c **** 
 540:.\Generated_Source\PSoC5/I2C_1_MASTER.c ****                 /* Master lost arbitrage: reset FSM to IDLE */
 541:.\Generated_Source\PSoC5/I2C_1_MASTER.c ****                 I2C_1_state = I2C_1_SM_IDLE;
 542:.\Generated_Source\PSoC5/I2C_1_MASTER.c ****                 errStatus = I2C_1_MSTR_ERR_ARB_LOST;
 543:.\Generated_Source\PSoC5/I2C_1_MASTER.c ****             }
 544:.\Generated_Source\PSoC5/I2C_1_MASTER.c ****             /* Check LRB bit */
 545:.\Generated_Source\PSoC5/I2C_1_MASTER.c ****             else
 546:.\Generated_Source\PSoC5/I2C_1_MASTER.c ****         #endif /* (I2C_1_MODE_MULTI_MASTER_ENABLED) */
 547:.\Generated_Source\PSoC5/I2C_1_MASTER.c **** 
 548:.\Generated_Source\PSoC5/I2C_1_MASTER.c ****             if(I2C_1_CHECK_DATA_ACK(I2C_1_CSR_REG))
 658              		.loc 1 548 0
 659 0034 084B     		ldr	r3, .L58
 660 0036 1B78     		ldrb	r3, [r3]	@ zero_extendqisi2
 661 0038 13F0020F 		tst	r3, #2
 662 003c 04D1     		bne	.L56
 549:.\Generated_Source\PSoC5/I2C_1_MASTER.c ****             {
 550:.\Generated_Source\PSoC5/I2C_1_MASTER.c ****                 I2C_1_state = I2C_1_SM_MSTR_HALT;     /* Set state to HALT */
 663              		.loc 1 550 0
 664 003e 6022     		movs	r2, #96
 665 0040 074B     		ldr	r3, .L58+8
 666 0042 1A70     		strb	r2, [r3]
 667              	.LVL59:
 551:.\Generated_Source\PSoC5/I2C_1_MASTER.c ****                 errStatus = I2C_1_MSTR_NO_ERROR;                 /* The LRB was ACKed */
 668              		.loc 1 551 0
 669 0044 0020     		movs	r0, #0
 670              	.LVL60:
 671 0046 7047     		bx	lr
 672              	.LVL61:
 673              	.L56:
 552:.\Generated_Source\PSoC5/I2C_1_MASTER.c ****             }
 553:.\Generated_Source\PSoC5/I2C_1_MASTER.c ****             else
 554:.\Generated_Source\PSoC5/I2C_1_MASTER.c ****             {
 555:.\Generated_Source\PSoC5/I2C_1_MASTER.c ****                 I2C_1_state = I2C_1_SM_MSTR_HALT;     /* Set state to HALT */
 674              		.loc 1 555 0
 675 0048 6022     		movs	r2, #96
 676 004a 054B     		ldr	r3, .L58+8
 677 004c 1A70     		strb	r2, [r3]
 678              	.LVL62:
 556:.\Generated_Source\PSoC5/I2C_1_MASTER.c ****                 errStatus = I2C_1_MSTR_ERR_LB_NAK;               /* The LRB was NACKed */
 679              		.loc 1 556 0
 680 004e 0320     		movs	r0, #3
 681              	.LVL63:
 682 0050 7047     		bx	lr
 683              	.LVL64:
 684              	.L57:
 520:.\Generated_Source\PSoC5/I2C_1_MASTER.c **** 
 685              		.loc 1 520 0
ARM GAS  C:\Users\cps\AppData\Local\Temp\ccuHVRkn.s 			page 23


 686 0052 0220     		movs	r0, #2
 687              	.LVL65:
 557:.\Generated_Source\PSoC5/I2C_1_MASTER.c ****             }
 558:.\Generated_Source\PSoC5/I2C_1_MASTER.c ****     }
 559:.\Generated_Source\PSoC5/I2C_1_MASTER.c **** 
 560:.\Generated_Source\PSoC5/I2C_1_MASTER.c ****     return(errStatus);
 561:.\Generated_Source\PSoC5/I2C_1_MASTER.c **** }
 688              		.loc 1 561 0
 689 0054 7047     		bx	lr
 690              	.L59:
 691 0056 00BF     		.align	2
 692              	.L58:
 693 0058 6B640040 		.word	1073767531
 694 005c 09640040 		.word	1073767433
 695 0060 00000000 		.word	I2C_1_state
 696              		.cfi_endproc
 697              	.LFE5:
 698              		.size	I2C_1_MasterWriteByte, .-I2C_1_MasterWriteByte
 699              		.section	.text.I2C_1_MasterReadByte,"ax",%progbits
 700              		.align	2
 701              		.global	I2C_1_MasterReadByte
 702              		.thumb
 703              		.thumb_func
 704              		.type	I2C_1_MasterReadByte, %function
 705              	I2C_1_MasterReadByte:
 706              	.LFB6:
 562:.\Generated_Source\PSoC5/I2C_1_MASTER.c **** 
 563:.\Generated_Source\PSoC5/I2C_1_MASTER.c **** 
 564:.\Generated_Source\PSoC5/I2C_1_MASTER.c **** /*******************************************************************************
 565:.\Generated_Source\PSoC5/I2C_1_MASTER.c **** * Function Name: I2C_1_MasterReadByte
 566:.\Generated_Source\PSoC5/I2C_1_MASTER.c **** ********************************************************************************
 567:.\Generated_Source\PSoC5/I2C_1_MASTER.c **** *
 568:.\Generated_Source\PSoC5/I2C_1_MASTER.c **** * Summary:
 569:.\Generated_Source\PSoC5/I2C_1_MASTER.c **** *  Reads one byte from a slave and ACK or NACK the transfer. A valid Start or
 570:.\Generated_Source\PSoC5/I2C_1_MASTER.c **** *  ReStart condition must be generated before this call this function. Function
 571:.\Generated_Source\PSoC5/I2C_1_MASTER.c **** *  do nothing if Start or Restart condition was failed before call this
 572:.\Generated_Source\PSoC5/I2C_1_MASTER.c **** *  function.
 573:.\Generated_Source\PSoC5/I2C_1_MASTER.c **** *
 574:.\Generated_Source\PSoC5/I2C_1_MASTER.c **** * Parameters:
 575:.\Generated_Source\PSoC5/I2C_1_MASTER.c **** *  acknNack:  Zero, response with NACK, if non-zero response with ACK.
 576:.\Generated_Source\PSoC5/I2C_1_MASTER.c **** *
 577:.\Generated_Source\PSoC5/I2C_1_MASTER.c **** * Return:
 578:.\Generated_Source\PSoC5/I2C_1_MASTER.c **** *  Byte read from slave.
 579:.\Generated_Source\PSoC5/I2C_1_MASTER.c **** *
 580:.\Generated_Source\PSoC5/I2C_1_MASTER.c **** * Side Effects:
 581:.\Generated_Source\PSoC5/I2C_1_MASTER.c **** *  This function is entered without a 'byte complete' bit set in the I2C_CSR
 582:.\Generated_Source\PSoC5/I2C_1_MASTER.c **** *  register. It does not exit until it will be set.
 583:.\Generated_Source\PSoC5/I2C_1_MASTER.c **** *
 584:.\Generated_Source\PSoC5/I2C_1_MASTER.c **** * Global variables:
 585:.\Generated_Source\PSoC5/I2C_1_MASTER.c **** *  I2C_1_state - used to store current state of software FSM.
 586:.\Generated_Source\PSoC5/I2C_1_MASTER.c **** *
 587:.\Generated_Source\PSoC5/I2C_1_MASTER.c **** * Reentrant:
 588:.\Generated_Source\PSoC5/I2C_1_MASTER.c **** *  No
 589:.\Generated_Source\PSoC5/I2C_1_MASTER.c **** *
 590:.\Generated_Source\PSoC5/I2C_1_MASTER.c **** *******************************************************************************/
 591:.\Generated_Source\PSoC5/I2C_1_MASTER.c **** uint8 I2C_1_MasterReadByte(uint8 acknNak) 
 592:.\Generated_Source\PSoC5/I2C_1_MASTER.c **** {
ARM GAS  C:\Users\cps\AppData\Local\Temp\ccuHVRkn.s 			page 24


 707              		.loc 1 592 0
 708              		.cfi_startproc
 709              		@ args = 0, pretend = 0, frame = 0
 710              		@ frame_needed = 0, uses_anonymous_args = 0
 711              		@ link register save eliminated.
 712              	.LVL66:
 593:.\Generated_Source\PSoC5/I2C_1_MASTER.c ****     uint8 theByte;
 594:.\Generated_Source\PSoC5/I2C_1_MASTER.c **** 
 595:.\Generated_Source\PSoC5/I2C_1_MASTER.c ****     theByte = 0u;
 596:.\Generated_Source\PSoC5/I2C_1_MASTER.c **** 
 597:.\Generated_Source\PSoC5/I2C_1_MASTER.c ****     /* Check if START condition was generated */
 598:.\Generated_Source\PSoC5/I2C_1_MASTER.c ****     if(I2C_1_CHECK_MASTER_MODE(I2C_1_MCSR_REG))
 713              		.loc 1 598 0
 714 0000 194B     		ldr	r3, .L68
 715 0002 1B78     		ldrb	r3, [r3]	@ zero_extendqisi2
 716 0004 13F0040F 		tst	r3, #4
 717 0008 2BD0     		beq	.L67
 599:.\Generated_Source\PSoC5/I2C_1_MASTER.c ****     {
 600:.\Generated_Source\PSoC5/I2C_1_MASTER.c ****         /* When address phase need release the bus and receive the byte, then decide ACK or NACK */
 601:.\Generated_Source\PSoC5/I2C_1_MASTER.c ****         if(I2C_1_SM_MSTR_RD_ADDR == I2C_1_state)
 718              		.loc 1 601 0
 719 000a 184B     		ldr	r3, .L68+4
 720 000c 1B78     		ldrb	r3, [r3]	@ zero_extendqisi2
 721 000e DBB2     		uxtb	r3, r3
 722 0010 492B     		cmp	r3, #73
 723 0012 0DD1     		bne	.L64
 602:.\Generated_Source\PSoC5/I2C_1_MASTER.c ****         {
 603:.\Generated_Source\PSoC5/I2C_1_MASTER.c ****             I2C_1_state = I2C_1_SM_MSTR_RD_DATA;
 724              		.loc 1 603 0
 725 0014 4A22     		movs	r2, #74
 726 0016 154B     		ldr	r3, .L68+4
 727 0018 1A70     		strb	r2, [r3]
 604:.\Generated_Source\PSoC5/I2C_1_MASTER.c ****             I2C_1_READY_TO_READ_MANUAL;
 728              		.loc 1 604 0
 729 001a 0222     		movs	r2, #2
 730 001c 144B     		ldr	r3, .L68+8
 731 001e 1A70     		strb	r2, [r3]
 732 0020 0022     		movs	r2, #0
 733 0022 203B     		subs	r3, r3, #32
 734 0024 1A70     		strb	r2, [r3]
 735              	.L63:
 736              		.loc 1 604 0 is_stmt 0 discriminator 2
 737 0026 104B     		ldr	r3, .L68
 738 0028 1B78     		ldrb	r3, [r3]	@ zero_extendqisi2
 739 002a 13F0010F 		tst	r3, #1
 740 002e FAD1     		bne	.L63
 741              	.L64:
 605:.\Generated_Source\PSoC5/I2C_1_MASTER.c ****         }
 606:.\Generated_Source\PSoC5/I2C_1_MASTER.c **** 
 607:.\Generated_Source\PSoC5/I2C_1_MASTER.c ****         while(I2C_1_WAIT_BYTE_COMPLETE(I2C_1_CSR_REG))
 742              		.loc 1 607 0 is_stmt 1 discriminator 1
 743 0030 0D4B     		ldr	r3, .L68
 744 0032 1B78     		ldrb	r3, [r3]	@ zero_extendqisi2
 745 0034 13F0010F 		tst	r3, #1
 746 0038 FAD0     		beq	.L64
 608:.\Generated_Source\PSoC5/I2C_1_MASTER.c ****         {
 609:.\Generated_Source\PSoC5/I2C_1_MASTER.c ****             ; /* Wait for byte to be read */
ARM GAS  C:\Users\cps\AppData\Local\Temp\ccuHVRkn.s 			page 25


 610:.\Generated_Source\PSoC5/I2C_1_MASTER.c ****         }
 611:.\Generated_Source\PSoC5/I2C_1_MASTER.c **** 
 612:.\Generated_Source\PSoC5/I2C_1_MASTER.c ****         theByte = I2C_1_DATA_REG;
 747              		.loc 1 612 0
 748 003a 0E4B     		ldr	r3, .L68+12
 749 003c 1A78     		ldrb	r2, [r3]	@ zero_extendqisi2
 750 003e D2B2     		uxtb	r2, r2
 751              	.LVL67:
 613:.\Generated_Source\PSoC5/I2C_1_MASTER.c **** 
 614:.\Generated_Source\PSoC5/I2C_1_MASTER.c ****         /* Now if the ACK flag was set, ACK the data which will release the bus and
 615:.\Generated_Source\PSoC5/I2C_1_MASTER.c ****            start the next byte in otherwise do NOTHING to the CSR reg.
 616:.\Generated_Source\PSoC5/I2C_1_MASTER.c ****            This will allow the calling routine to generate a repeat start or
 617:.\Generated_Source\PSoC5/I2C_1_MASTER.c ****            stop depending on it's preference. */
 618:.\Generated_Source\PSoC5/I2C_1_MASTER.c ****         if(acknNak != 0u)   /* Do ACK */
 752              		.loc 1 618 0
 753 0040 58B1     		cbz	r0, .L65
 619:.\Generated_Source\PSoC5/I2C_1_MASTER.c ****         {
 620:.\Generated_Source\PSoC5/I2C_1_MASTER.c ****             I2C_1_ACK_AND_RECEIVE_MANUAL;
 754              		.loc 1 620 0
 755 0042 0221     		movs	r1, #2
 756 0044 7033     		adds	r3, r3, #112
 757 0046 1970     		strb	r1, [r3]
 758 0048 0021     		movs	r1, #0
 759 004a 203B     		subs	r3, r3, #32
 760 004c 1970     		strb	r1, [r3]
 761              	.L66:
 762              		.loc 1 620 0 is_stmt 0 discriminator 2
 763 004e 064B     		ldr	r3, .L68
 764 0050 1B78     		ldrb	r3, [r3]	@ zero_extendqisi2
 765 0052 13F0010F 		tst	r3, #1
 766 0056 FAD1     		bne	.L66
 767 0058 04E0     		b	.L61
 768              	.L65:
 621:.\Generated_Source\PSoC5/I2C_1_MASTER.c ****         }
 622:.\Generated_Source\PSoC5/I2C_1_MASTER.c ****         else                /* Do NACK */
 623:.\Generated_Source\PSoC5/I2C_1_MASTER.c ****         {
 624:.\Generated_Source\PSoC5/I2C_1_MASTER.c ****             /* Do nothing to be able work with ReStart */
 625:.\Generated_Source\PSoC5/I2C_1_MASTER.c ****             I2C_1_state = I2C_1_SM_MSTR_HALT;
 769              		.loc 1 625 0 is_stmt 1
 770 005a 6021     		movs	r1, #96
 771 005c 034B     		ldr	r3, .L68+4
 772 005e 1970     		strb	r1, [r3]
 773 0060 00E0     		b	.L61
 774              	.LVL68:
 775              	.L67:
 595:.\Generated_Source\PSoC5/I2C_1_MASTER.c **** 
 776              		.loc 1 595 0
 777 0062 0022     		movs	r2, #0
 778              	.LVL69:
 779              	.L61:
 626:.\Generated_Source\PSoC5/I2C_1_MASTER.c ****         }
 627:.\Generated_Source\PSoC5/I2C_1_MASTER.c ****     }
 628:.\Generated_Source\PSoC5/I2C_1_MASTER.c **** 
 629:.\Generated_Source\PSoC5/I2C_1_MASTER.c ****     return(theByte);
 630:.\Generated_Source\PSoC5/I2C_1_MASTER.c **** }
 780              		.loc 1 630 0
 781 0064 1046     		mov	r0, r2
ARM GAS  C:\Users\cps\AppData\Local\Temp\ccuHVRkn.s 			page 26


 782              	.LVL70:
 783 0066 7047     		bx	lr
 784              	.L69:
 785              		.align	2
 786              	.L68:
 787 0068 6B640040 		.word	1073767531
 788 006c 00000000 		.word	I2C_1_state
 789 0070 79640040 		.word	1073767545
 790 0074 09640040 		.word	1073767433
 791              		.cfi_endproc
 792              	.LFE6:
 793              		.size	I2C_1_MasterReadByte, .-I2C_1_MasterReadByte
 794              		.section	.text.I2C_1_MasterStatus,"ax",%progbits
 795              		.align	2
 796              		.global	I2C_1_MasterStatus
 797              		.thumb
 798              		.thumb_func
 799              		.type	I2C_1_MasterStatus, %function
 800              	I2C_1_MasterStatus:
 801              	.LFB7:
 631:.\Generated_Source\PSoC5/I2C_1_MASTER.c **** 
 632:.\Generated_Source\PSoC5/I2C_1_MASTER.c **** 
 633:.\Generated_Source\PSoC5/I2C_1_MASTER.c **** /*******************************************************************************
 634:.\Generated_Source\PSoC5/I2C_1_MASTER.c **** * Function Name: I2C_1_MasterStatus
 635:.\Generated_Source\PSoC5/I2C_1_MASTER.c **** ********************************************************************************
 636:.\Generated_Source\PSoC5/I2C_1_MASTER.c **** *
 637:.\Generated_Source\PSoC5/I2C_1_MASTER.c **** * Summary:
 638:.\Generated_Source\PSoC5/I2C_1_MASTER.c **** *  Returns the master's communication status.
 639:.\Generated_Source\PSoC5/I2C_1_MASTER.c **** *
 640:.\Generated_Source\PSoC5/I2C_1_MASTER.c **** * Parameters:
 641:.\Generated_Source\PSoC5/I2C_1_MASTER.c **** *  None
 642:.\Generated_Source\PSoC5/I2C_1_MASTER.c **** *
 643:.\Generated_Source\PSoC5/I2C_1_MASTER.c **** * Return:
 644:.\Generated_Source\PSoC5/I2C_1_MASTER.c **** *  Current status of I2C master.
 645:.\Generated_Source\PSoC5/I2C_1_MASTER.c **** *
 646:.\Generated_Source\PSoC5/I2C_1_MASTER.c **** * Global variables:
 647:.\Generated_Source\PSoC5/I2C_1_MASTER.c **** *  I2C_1_mstrStatus - used to store current status of I2C Master.
 648:.\Generated_Source\PSoC5/I2C_1_MASTER.c **** *
 649:.\Generated_Source\PSoC5/I2C_1_MASTER.c **** *******************************************************************************/
 650:.\Generated_Source\PSoC5/I2C_1_MASTER.c **** uint8 I2C_1_MasterStatus(void) 
 651:.\Generated_Source\PSoC5/I2C_1_MASTER.c **** {
 802              		.loc 1 651 0
 803              		.cfi_startproc
 804              		@ args = 0, pretend = 0, frame = 0
 805              		@ frame_needed = 0, uses_anonymous_args = 0
 806              		@ link register save eliminated.
 652:.\Generated_Source\PSoC5/I2C_1_MASTER.c ****     uint8 status;
 653:.\Generated_Source\PSoC5/I2C_1_MASTER.c **** 
 654:.\Generated_Source\PSoC5/I2C_1_MASTER.c ****     status = I2C_1_mstrStatus;
 807              		.loc 1 654 0
 808 0000 054B     		ldr	r3, .L72
 809 0002 1878     		ldrb	r0, [r3]	@ zero_extendqisi2
 810 0004 C0B2     		uxtb	r0, r0
 811              	.LVL71:
 655:.\Generated_Source\PSoC5/I2C_1_MASTER.c **** 
 656:.\Generated_Source\PSoC5/I2C_1_MASTER.c ****     /* When in Master state only transaction is in progress */
 657:.\Generated_Source\PSoC5/I2C_1_MASTER.c ****     if(I2C_1_CHECK_SM_MASTER)
ARM GAS  C:\Users\cps\AppData\Local\Temp\ccuHVRkn.s 			page 27


 812              		.loc 1 657 0
 813 0006 054B     		ldr	r3, .L72+4
 814 0008 1B78     		ldrb	r3, [r3]	@ zero_extendqisi2
 815 000a 13F0400F 		tst	r3, #64
 816 000e 01D0     		beq	.L71
 658:.\Generated_Source\PSoC5/I2C_1_MASTER.c ****     {
 659:.\Generated_Source\PSoC5/I2C_1_MASTER.c ****         /* Add transaction in progress activity to master status */
 660:.\Generated_Source\PSoC5/I2C_1_MASTER.c ****         status |= I2C_1_MSTAT_XFER_INP;
 817              		.loc 1 660 0
 818 0010 40F00400 		orr	r0, r0, #4
 819              	.LVL72:
 820              	.L71:
 661:.\Generated_Source\PSoC5/I2C_1_MASTER.c ****     }
 662:.\Generated_Source\PSoC5/I2C_1_MASTER.c ****     else
 663:.\Generated_Source\PSoC5/I2C_1_MASTER.c ****     {
 664:.\Generated_Source\PSoC5/I2C_1_MASTER.c ****         /* Current master status is valid */
 665:.\Generated_Source\PSoC5/I2C_1_MASTER.c ****     }
 666:.\Generated_Source\PSoC5/I2C_1_MASTER.c **** 
 667:.\Generated_Source\PSoC5/I2C_1_MASTER.c ****     return(status);
 668:.\Generated_Source\PSoC5/I2C_1_MASTER.c **** }
 821              		.loc 1 668 0
 822 0014 7047     		bx	lr
 823              	.L73:
 824 0016 00BF     		.align	2
 825              	.L72:
 826 0018 00000000 		.word	I2C_1_mstrStatus
 827 001c 00000000 		.word	I2C_1_state
 828              		.cfi_endproc
 829              	.LFE7:
 830              		.size	I2C_1_MasterStatus, .-I2C_1_MasterStatus
 831              		.section	.text.I2C_1_MasterClearStatus,"ax",%progbits
 832              		.align	2
 833              		.global	I2C_1_MasterClearStatus
 834              		.thumb
 835              		.thumb_func
 836              		.type	I2C_1_MasterClearStatus, %function
 837              	I2C_1_MasterClearStatus:
 838              	.LFB8:
 669:.\Generated_Source\PSoC5/I2C_1_MASTER.c **** 
 670:.\Generated_Source\PSoC5/I2C_1_MASTER.c **** 
 671:.\Generated_Source\PSoC5/I2C_1_MASTER.c **** /*******************************************************************************
 672:.\Generated_Source\PSoC5/I2C_1_MASTER.c **** * Function Name: I2C_1_MasterClearStatus
 673:.\Generated_Source\PSoC5/I2C_1_MASTER.c **** ********************************************************************************
 674:.\Generated_Source\PSoC5/I2C_1_MASTER.c **** *
 675:.\Generated_Source\PSoC5/I2C_1_MASTER.c **** * Summary:
 676:.\Generated_Source\PSoC5/I2C_1_MASTER.c **** *  Clears all status flags and returns the master status.
 677:.\Generated_Source\PSoC5/I2C_1_MASTER.c **** *
 678:.\Generated_Source\PSoC5/I2C_1_MASTER.c **** * Parameters:
 679:.\Generated_Source\PSoC5/I2C_1_MASTER.c **** *  None
 680:.\Generated_Source\PSoC5/I2C_1_MASTER.c **** *
 681:.\Generated_Source\PSoC5/I2C_1_MASTER.c **** * Return:
 682:.\Generated_Source\PSoC5/I2C_1_MASTER.c **** *  Current status of I2C master.
 683:.\Generated_Source\PSoC5/I2C_1_MASTER.c **** *
 684:.\Generated_Source\PSoC5/I2C_1_MASTER.c **** * Global variables:
 685:.\Generated_Source\PSoC5/I2C_1_MASTER.c **** *  I2C_1_mstrStatus - used to store current status of I2C Master.
 686:.\Generated_Source\PSoC5/I2C_1_MASTER.c **** *
 687:.\Generated_Source\PSoC5/I2C_1_MASTER.c **** * Reentrant:
ARM GAS  C:\Users\cps\AppData\Local\Temp\ccuHVRkn.s 			page 28


 688:.\Generated_Source\PSoC5/I2C_1_MASTER.c **** *  No
 689:.\Generated_Source\PSoC5/I2C_1_MASTER.c **** *
 690:.\Generated_Source\PSoC5/I2C_1_MASTER.c **** *******************************************************************************/
 691:.\Generated_Source\PSoC5/I2C_1_MASTER.c **** uint8 I2C_1_MasterClearStatus(void) 
 692:.\Generated_Source\PSoC5/I2C_1_MASTER.c **** {
 839              		.loc 1 692 0
 840              		.cfi_startproc
 841              		@ args = 0, pretend = 0, frame = 0
 842              		@ frame_needed = 0, uses_anonymous_args = 0
 843              		@ link register save eliminated.
 693:.\Generated_Source\PSoC5/I2C_1_MASTER.c ****     /* Current master status */
 694:.\Generated_Source\PSoC5/I2C_1_MASTER.c ****     uint8 status;
 695:.\Generated_Source\PSoC5/I2C_1_MASTER.c **** 
 696:.\Generated_Source\PSoC5/I2C_1_MASTER.c ****     /* Read and clear master status */
 697:.\Generated_Source\PSoC5/I2C_1_MASTER.c ****     status = I2C_1_mstrStatus;
 844              		.loc 1 697 0
 845 0000 024B     		ldr	r3, .L75
 846 0002 1878     		ldrb	r0, [r3]	@ zero_extendqisi2
 847              	.LVL73:
 698:.\Generated_Source\PSoC5/I2C_1_MASTER.c ****     I2C_1_mstrStatus = I2C_1_MSTAT_CLEAR;
 848              		.loc 1 698 0
 849 0004 0022     		movs	r2, #0
 850 0006 1A70     		strb	r2, [r3]
 699:.\Generated_Source\PSoC5/I2C_1_MASTER.c **** 
 700:.\Generated_Source\PSoC5/I2C_1_MASTER.c ****     return(status);
 701:.\Generated_Source\PSoC5/I2C_1_MASTER.c **** }
 851              		.loc 1 701 0
 852 0008 7047     		bx	lr
 853              	.L76:
 854 000a 00BF     		.align	2
 855              	.L75:
 856 000c 00000000 		.word	I2C_1_mstrStatus
 857              		.cfi_endproc
 858              	.LFE8:
 859              		.size	I2C_1_MasterClearStatus, .-I2C_1_MasterClearStatus
 860              		.section	.text.I2C_1_MasterGetReadBufSize,"ax",%progbits
 861              		.align	2
 862              		.global	I2C_1_MasterGetReadBufSize
 863              		.thumb
 864              		.thumb_func
 865              		.type	I2C_1_MasterGetReadBufSize, %function
 866              	I2C_1_MasterGetReadBufSize:
 867              	.LFB9:
 702:.\Generated_Source\PSoC5/I2C_1_MASTER.c **** 
 703:.\Generated_Source\PSoC5/I2C_1_MASTER.c **** 
 704:.\Generated_Source\PSoC5/I2C_1_MASTER.c **** /*******************************************************************************
 705:.\Generated_Source\PSoC5/I2C_1_MASTER.c **** * Function Name: I2C_1_MasterGetReadBufSize
 706:.\Generated_Source\PSoC5/I2C_1_MASTER.c **** ********************************************************************************
 707:.\Generated_Source\PSoC5/I2C_1_MASTER.c **** *
 708:.\Generated_Source\PSoC5/I2C_1_MASTER.c **** * Summary:
 709:.\Generated_Source\PSoC5/I2C_1_MASTER.c **** *  Returns the amount of bytes that has been transferred with an
 710:.\Generated_Source\PSoC5/I2C_1_MASTER.c **** *  I2C_MasterReadBuf command.
 711:.\Generated_Source\PSoC5/I2C_1_MASTER.c **** *
 712:.\Generated_Source\PSoC5/I2C_1_MASTER.c **** * Parameters:
 713:.\Generated_Source\PSoC5/I2C_1_MASTER.c **** *  None
 714:.\Generated_Source\PSoC5/I2C_1_MASTER.c **** *
 715:.\Generated_Source\PSoC5/I2C_1_MASTER.c **** * Return:
ARM GAS  C:\Users\cps\AppData\Local\Temp\ccuHVRkn.s 			page 29


 716:.\Generated_Source\PSoC5/I2C_1_MASTER.c **** *  Byte count of transfer. If the transfer is not yet complete, it will return
 717:.\Generated_Source\PSoC5/I2C_1_MASTER.c **** *  the byte count transferred so far.
 718:.\Generated_Source\PSoC5/I2C_1_MASTER.c **** *
 719:.\Generated_Source\PSoC5/I2C_1_MASTER.c **** * Global variables:
 720:.\Generated_Source\PSoC5/I2C_1_MASTER.c **** *  I2C_1_mstrRdBufIndex - used to current index within master read
 721:.\Generated_Source\PSoC5/I2C_1_MASTER.c **** *  buffer.
 722:.\Generated_Source\PSoC5/I2C_1_MASTER.c **** *
 723:.\Generated_Source\PSoC5/I2C_1_MASTER.c **** *******************************************************************************/
 724:.\Generated_Source\PSoC5/I2C_1_MASTER.c **** uint8 I2C_1_MasterGetReadBufSize(void) 
 725:.\Generated_Source\PSoC5/I2C_1_MASTER.c **** {
 868              		.loc 1 725 0
 869              		.cfi_startproc
 870              		@ args = 0, pretend = 0, frame = 0
 871              		@ frame_needed = 0, uses_anonymous_args = 0
 872              		@ link register save eliminated.
 726:.\Generated_Source\PSoC5/I2C_1_MASTER.c ****     return(I2C_1_mstrRdBufIndex);
 873              		.loc 1 726 0
 874 0000 014B     		ldr	r3, .L78
 875 0002 1878     		ldrb	r0, [r3]	@ zero_extendqisi2
 727:.\Generated_Source\PSoC5/I2C_1_MASTER.c **** }
 876              		.loc 1 727 0
 877 0004 7047     		bx	lr
 878              	.L79:
 879 0006 00BF     		.align	2
 880              	.L78:
 881 0008 00000000 		.word	I2C_1_mstrRdBufIndex
 882              		.cfi_endproc
 883              	.LFE9:
 884              		.size	I2C_1_MasterGetReadBufSize, .-I2C_1_MasterGetReadBufSize
 885              		.section	.text.I2C_1_MasterGetWriteBufSize,"ax",%progbits
 886              		.align	2
 887              		.global	I2C_1_MasterGetWriteBufSize
 888              		.thumb
 889              		.thumb_func
 890              		.type	I2C_1_MasterGetWriteBufSize, %function
 891              	I2C_1_MasterGetWriteBufSize:
 892              	.LFB10:
 728:.\Generated_Source\PSoC5/I2C_1_MASTER.c **** 
 729:.\Generated_Source\PSoC5/I2C_1_MASTER.c **** 
 730:.\Generated_Source\PSoC5/I2C_1_MASTER.c **** /*******************************************************************************
 731:.\Generated_Source\PSoC5/I2C_1_MASTER.c **** * Function Name: I2C_1_MasterGetWriteBufSize
 732:.\Generated_Source\PSoC5/I2C_1_MASTER.c **** ********************************************************************************
 733:.\Generated_Source\PSoC5/I2C_1_MASTER.c **** *
 734:.\Generated_Source\PSoC5/I2C_1_MASTER.c **** * Summary:
 735:.\Generated_Source\PSoC5/I2C_1_MASTER.c **** *  Returns the amount of bytes that has been transferred with an
 736:.\Generated_Source\PSoC5/I2C_1_MASTER.c **** *  I2C_MasterWriteBuf command.
 737:.\Generated_Source\PSoC5/I2C_1_MASTER.c **** *
 738:.\Generated_Source\PSoC5/I2C_1_MASTER.c **** * Parameters:
 739:.\Generated_Source\PSoC5/I2C_1_MASTER.c **** *  None
 740:.\Generated_Source\PSoC5/I2C_1_MASTER.c **** *
 741:.\Generated_Source\PSoC5/I2C_1_MASTER.c **** * Return:
 742:.\Generated_Source\PSoC5/I2C_1_MASTER.c **** *  Byte count of transfer. If the transfer is not yet complete, it will return
 743:.\Generated_Source\PSoC5/I2C_1_MASTER.c **** *  the byte count transferred so far.
 744:.\Generated_Source\PSoC5/I2C_1_MASTER.c **** *
 745:.\Generated_Source\PSoC5/I2C_1_MASTER.c **** * Global variables:
 746:.\Generated_Source\PSoC5/I2C_1_MASTER.c **** *  I2C_1_mstrWrBufIndex - used to current index within master write
 747:.\Generated_Source\PSoC5/I2C_1_MASTER.c **** *  buffer.
ARM GAS  C:\Users\cps\AppData\Local\Temp\ccuHVRkn.s 			page 30


 748:.\Generated_Source\PSoC5/I2C_1_MASTER.c **** *
 749:.\Generated_Source\PSoC5/I2C_1_MASTER.c **** *******************************************************************************/
 750:.\Generated_Source\PSoC5/I2C_1_MASTER.c **** uint8 I2C_1_MasterGetWriteBufSize(void) 
 751:.\Generated_Source\PSoC5/I2C_1_MASTER.c **** {
 893              		.loc 1 751 0
 894              		.cfi_startproc
 895              		@ args = 0, pretend = 0, frame = 0
 896              		@ frame_needed = 0, uses_anonymous_args = 0
 897              		@ link register save eliminated.
 752:.\Generated_Source\PSoC5/I2C_1_MASTER.c ****     return(I2C_1_mstrWrBufIndex);
 898              		.loc 1 752 0
 899 0000 014B     		ldr	r3, .L81
 900 0002 1878     		ldrb	r0, [r3]	@ zero_extendqisi2
 753:.\Generated_Source\PSoC5/I2C_1_MASTER.c **** }
 901              		.loc 1 753 0
 902 0004 7047     		bx	lr
 903              	.L82:
 904 0006 00BF     		.align	2
 905              	.L81:
 906 0008 00000000 		.word	I2C_1_mstrWrBufIndex
 907              		.cfi_endproc
 908              	.LFE10:
 909              		.size	I2C_1_MasterGetWriteBufSize, .-I2C_1_MasterGetWriteBufSize
 910              		.section	.text.I2C_1_MasterClearReadBuf,"ax",%progbits
 911              		.align	2
 912              		.global	I2C_1_MasterClearReadBuf
 913              		.thumb
 914              		.thumb_func
 915              		.type	I2C_1_MasterClearReadBuf, %function
 916              	I2C_1_MasterClearReadBuf:
 917              	.LFB11:
 754:.\Generated_Source\PSoC5/I2C_1_MASTER.c **** 
 755:.\Generated_Source\PSoC5/I2C_1_MASTER.c **** 
 756:.\Generated_Source\PSoC5/I2C_1_MASTER.c **** /*******************************************************************************
 757:.\Generated_Source\PSoC5/I2C_1_MASTER.c **** * Function Name: I2C_1_MasterClearReadBuf
 758:.\Generated_Source\PSoC5/I2C_1_MASTER.c **** ********************************************************************************
 759:.\Generated_Source\PSoC5/I2C_1_MASTER.c **** *
 760:.\Generated_Source\PSoC5/I2C_1_MASTER.c **** * Summary:
 761:.\Generated_Source\PSoC5/I2C_1_MASTER.c **** *  Resets the read buffer pointer back to the first byte in the buffer.
 762:.\Generated_Source\PSoC5/I2C_1_MASTER.c **** *
 763:.\Generated_Source\PSoC5/I2C_1_MASTER.c **** * Parameters:
 764:.\Generated_Source\PSoC5/I2C_1_MASTER.c **** *  None
 765:.\Generated_Source\PSoC5/I2C_1_MASTER.c **** *
 766:.\Generated_Source\PSoC5/I2C_1_MASTER.c **** * Return:
 767:.\Generated_Source\PSoC5/I2C_1_MASTER.c **** *  None
 768:.\Generated_Source\PSoC5/I2C_1_MASTER.c **** *
 769:.\Generated_Source\PSoC5/I2C_1_MASTER.c **** * Global variables:
 770:.\Generated_Source\PSoC5/I2C_1_MASTER.c **** *  I2C_1_mstrRdBufIndex - used to current index within master read
 771:.\Generated_Source\PSoC5/I2C_1_MASTER.c **** *   buffer.
 772:.\Generated_Source\PSoC5/I2C_1_MASTER.c **** *  I2C_1_mstrStatus - used to store current status of I2C Master.
 773:.\Generated_Source\PSoC5/I2C_1_MASTER.c **** *
 774:.\Generated_Source\PSoC5/I2C_1_MASTER.c **** * Reentrant:
 775:.\Generated_Source\PSoC5/I2C_1_MASTER.c **** *  No
 776:.\Generated_Source\PSoC5/I2C_1_MASTER.c **** *
 777:.\Generated_Source\PSoC5/I2C_1_MASTER.c **** *******************************************************************************/
 778:.\Generated_Source\PSoC5/I2C_1_MASTER.c **** void I2C_1_MasterClearReadBuf(void) 
 779:.\Generated_Source\PSoC5/I2C_1_MASTER.c **** {
ARM GAS  C:\Users\cps\AppData\Local\Temp\ccuHVRkn.s 			page 31


 918              		.loc 1 779 0
 919              		.cfi_startproc
 920              		@ args = 0, pretend = 0, frame = 0
 921              		@ frame_needed = 0, uses_anonymous_args = 0
 922              		@ link register save eliminated.
 780:.\Generated_Source\PSoC5/I2C_1_MASTER.c ****     I2C_1_mstrRdBufIndex = 0u;
 923              		.loc 1 780 0
 924 0000 0022     		movs	r2, #0
 925 0002 044B     		ldr	r3, .L84
 926 0004 1A70     		strb	r2, [r3]
 781:.\Generated_Source\PSoC5/I2C_1_MASTER.c ****     I2C_1_mstrStatus    &= ((uint8) ~I2C_1_MSTAT_RD_CMPLT);
 927              		.loc 1 781 0
 928 0006 044A     		ldr	r2, .L84+4
 929 0008 1378     		ldrb	r3, [r2]	@ zero_extendqisi2
 930 000a 03F0FE03 		and	r3, r3, #254
 931 000e 1370     		strb	r3, [r2]
 932 0010 7047     		bx	lr
 933              	.L85:
 934 0012 00BF     		.align	2
 935              	.L84:
 936 0014 00000000 		.word	I2C_1_mstrRdBufIndex
 937 0018 00000000 		.word	I2C_1_mstrStatus
 938              		.cfi_endproc
 939              	.LFE11:
 940              		.size	I2C_1_MasterClearReadBuf, .-I2C_1_MasterClearReadBuf
 941              		.section	.text.I2C_1_MasterClearWriteBuf,"ax",%progbits
 942              		.align	2
 943              		.global	I2C_1_MasterClearWriteBuf
 944              		.thumb
 945              		.thumb_func
 946              		.type	I2C_1_MasterClearWriteBuf, %function
 947              	I2C_1_MasterClearWriteBuf:
 948              	.LFB12:
 782:.\Generated_Source\PSoC5/I2C_1_MASTER.c **** }
 783:.\Generated_Source\PSoC5/I2C_1_MASTER.c **** 
 784:.\Generated_Source\PSoC5/I2C_1_MASTER.c **** 
 785:.\Generated_Source\PSoC5/I2C_1_MASTER.c **** /*******************************************************************************
 786:.\Generated_Source\PSoC5/I2C_1_MASTER.c **** * Function Name: I2C_1_MasterClearWriteBuf
 787:.\Generated_Source\PSoC5/I2C_1_MASTER.c **** ********************************************************************************
 788:.\Generated_Source\PSoC5/I2C_1_MASTER.c **** *
 789:.\Generated_Source\PSoC5/I2C_1_MASTER.c **** * Summary:
 790:.\Generated_Source\PSoC5/I2C_1_MASTER.c **** *  Resets the write buffer pointer back to the first byte in the buffer.
 791:.\Generated_Source\PSoC5/I2C_1_MASTER.c **** *
 792:.\Generated_Source\PSoC5/I2C_1_MASTER.c **** * Parameters:
 793:.\Generated_Source\PSoC5/I2C_1_MASTER.c **** *  None
 794:.\Generated_Source\PSoC5/I2C_1_MASTER.c **** *
 795:.\Generated_Source\PSoC5/I2C_1_MASTER.c **** * Return:
 796:.\Generated_Source\PSoC5/I2C_1_MASTER.c **** *  None
 797:.\Generated_Source\PSoC5/I2C_1_MASTER.c **** *
 798:.\Generated_Source\PSoC5/I2C_1_MASTER.c **** * Global variables:
 799:.\Generated_Source\PSoC5/I2C_1_MASTER.c **** *  I2C_1_mstrRdBufIndex - used to current index within master read
 800:.\Generated_Source\PSoC5/I2C_1_MASTER.c **** *   buffer.
 801:.\Generated_Source\PSoC5/I2C_1_MASTER.c **** *  I2C_1_mstrStatus - used to store current status of I2C Master.
 802:.\Generated_Source\PSoC5/I2C_1_MASTER.c **** *
 803:.\Generated_Source\PSoC5/I2C_1_MASTER.c **** * Reentrant:
 804:.\Generated_Source\PSoC5/I2C_1_MASTER.c **** *  No
 805:.\Generated_Source\PSoC5/I2C_1_MASTER.c **** *
ARM GAS  C:\Users\cps\AppData\Local\Temp\ccuHVRkn.s 			page 32


 806:.\Generated_Source\PSoC5/I2C_1_MASTER.c **** *******************************************************************************/
 807:.\Generated_Source\PSoC5/I2C_1_MASTER.c **** void I2C_1_MasterClearWriteBuf(void) 
 808:.\Generated_Source\PSoC5/I2C_1_MASTER.c **** {
 949              		.loc 1 808 0
 950              		.cfi_startproc
 951              		@ args = 0, pretend = 0, frame = 0
 952              		@ frame_needed = 0, uses_anonymous_args = 0
 953              		@ link register save eliminated.
 809:.\Generated_Source\PSoC5/I2C_1_MASTER.c ****     I2C_1_mstrWrBufIndex = 0u;
 954              		.loc 1 809 0
 955 0000 0022     		movs	r2, #0
 956 0002 044B     		ldr	r3, .L87
 957 0004 1A70     		strb	r2, [r3]
 810:.\Generated_Source\PSoC5/I2C_1_MASTER.c ****     I2C_1_mstrStatus    &= ((uint8) ~I2C_1_MSTAT_WR_CMPLT);
 958              		.loc 1 810 0
 959 0006 044A     		ldr	r2, .L87+4
 960 0008 1378     		ldrb	r3, [r2]	@ zero_extendqisi2
 961 000a 03F0FD03 		and	r3, r3, #253
 962 000e 1370     		strb	r3, [r2]
 963 0010 7047     		bx	lr
 964              	.L88:
 965 0012 00BF     		.align	2
 966              	.L87:
 967 0014 00000000 		.word	I2C_1_mstrWrBufIndex
 968 0018 00000000 		.word	I2C_1_mstrStatus
 969              		.cfi_endproc
 970              	.LFE12:
 971              		.size	I2C_1_MasterClearWriteBuf, .-I2C_1_MasterClearWriteBuf
 972              		.section	.text.I2C_1_Workaround,"ax",%progbits
 973              		.align	2
 974              		.global	I2C_1_Workaround
 975              		.thumb
 976              		.thumb_func
 977              		.type	I2C_1_Workaround, %function
 978              	I2C_1_Workaround:
 979              	.LFB13:
 811:.\Generated_Source\PSoC5/I2C_1_MASTER.c **** }
 812:.\Generated_Source\PSoC5/I2C_1_MASTER.c **** 
 813:.\Generated_Source\PSoC5/I2C_1_MASTER.c **** 
 814:.\Generated_Source\PSoC5/I2C_1_MASTER.c **** /*******************************************************************************
 815:.\Generated_Source\PSoC5/I2C_1_MASTER.c **** * Function Name: I2C_1_Workaround
 816:.\Generated_Source\PSoC5/I2C_1_MASTER.c **** ********************************************************************************
 817:.\Generated_Source\PSoC5/I2C_1_MASTER.c **** *
 818:.\Generated_Source\PSoC5/I2C_1_MASTER.c **** * Summary:
 819:.\Generated_Source\PSoC5/I2C_1_MASTER.c **** *  Do nothing. This fake fuction use as workaround for CDT 78083.
 820:.\Generated_Source\PSoC5/I2C_1_MASTER.c **** *
 821:.\Generated_Source\PSoC5/I2C_1_MASTER.c **** * Parameters:
 822:.\Generated_Source\PSoC5/I2C_1_MASTER.c **** *  None
 823:.\Generated_Source\PSoC5/I2C_1_MASTER.c **** *
 824:.\Generated_Source\PSoC5/I2C_1_MASTER.c **** * Return:
 825:.\Generated_Source\PSoC5/I2C_1_MASTER.c **** *  None
 826:.\Generated_Source\PSoC5/I2C_1_MASTER.c **** *
 827:.\Generated_Source\PSoC5/I2C_1_MASTER.c **** * Reentrant:
 828:.\Generated_Source\PSoC5/I2C_1_MASTER.c **** *  No
 829:.\Generated_Source\PSoC5/I2C_1_MASTER.c **** *
 830:.\Generated_Source\PSoC5/I2C_1_MASTER.c **** *******************************************************************************/
 831:.\Generated_Source\PSoC5/I2C_1_MASTER.c **** void I2C_1_Workaround(void) 
ARM GAS  C:\Users\cps\AppData\Local\Temp\ccuHVRkn.s 			page 33


 832:.\Generated_Source\PSoC5/I2C_1_MASTER.c **** {
 980              		.loc 1 832 0
 981              		.cfi_startproc
 982              		@ args = 0, pretend = 0, frame = 0
 983              		@ frame_needed = 0, uses_anonymous_args = 0
 984              		@ link register save eliminated.
 985 0000 7047     		bx	lr
 986              		.cfi_endproc
 987              	.LFE13:
 988              		.size	I2C_1_Workaround, .-I2C_1_Workaround
 989              		.comm	I2C_1_mstrWrBufIndex,1,1
 990              		.comm	I2C_1_mstrWrBufSize,1,1
 991              		.comm	I2C_1_mstrWrBufPtr,4,4
 992              		.comm	I2C_1_mstrRdBufIndex,1,1
 993              		.comm	I2C_1_mstrRdBufSize,1,1
 994              		.comm	I2C_1_mstrRdBufPtr,4,4
 995              		.comm	I2C_1_mstrControl,1,1
 996              		.comm	I2C_1_mstrStatus,1,1
 997 0002 00BF     		.text
 998              	.Letext0:
 999              		.file 2 ".\\Generated_Source\\PSoC5\\cytypes.h"
 1000              		.file 3 ".\\Generated_Source\\PSoC5\\I2C_1_PVT.h"