ARM GAS  C:\Users\cps\AppData\Local\Temp\cctMVIYz.s 			page 1


   1              		.syntax unified
   2              		.cpu cortex-m3
   3              		.fpu softvfp
   4              		.eabi_attribute 20, 1
   5              		.eabi_attribute 21, 1
   6              		.eabi_attribute 23, 3
   7              		.eabi_attribute 24, 1
   8              		.eabi_attribute 25, 1
   9              		.eabi_attribute 26, 1
  10              		.eabi_attribute 30, 1
  11              		.eabi_attribute 34, 1
  12              		.eabi_attribute 18, 4
  13              		.thumb
  14              		.file	"Sensirion_I2C.c"
  15              		.text
  16              	.Ltext0:
  17              		.cfi_sections	.debug_frame
  18              		.section	.text.Sensirion_I2C_Init,"ax",%progbits
  19              		.align	2
  20              		.global	Sensirion_I2C_Init
  21              		.thumb
  22              		.thumb_func
  23              		.type	Sensirion_I2C_Init, %function
  24              	Sensirion_I2C_Init:
  25              	.LFB0:
  26              		.file 1 ".\\Generated_Source\\PSoC5\\Sensirion_I2C.c"
   1:.\Generated_Source\PSoC5/Sensirion_I2C.c **** /*******************************************************************************
   2:.\Generated_Source\PSoC5/Sensirion_I2C.c **** * File Name: Sensirion_I2C.c
   3:.\Generated_Source\PSoC5/Sensirion_I2C.c **** * Version 3.30
   4:.\Generated_Source\PSoC5/Sensirion_I2C.c **** *
   5:.\Generated_Source\PSoC5/Sensirion_I2C.c **** * Description:
   6:.\Generated_Source\PSoC5/Sensirion_I2C.c **** *  This file provides the source code of APIs for the I2C component.
   7:.\Generated_Source\PSoC5/Sensirion_I2C.c **** *  Actual protocol and operation code resides in the interrupt service routine
   8:.\Generated_Source\PSoC5/Sensirion_I2C.c **** *  file.
   9:.\Generated_Source\PSoC5/Sensirion_I2C.c **** *
  10:.\Generated_Source\PSoC5/Sensirion_I2C.c **** * Note:
  11:.\Generated_Source\PSoC5/Sensirion_I2C.c **** *
  12:.\Generated_Source\PSoC5/Sensirion_I2C.c **** *******************************************************************************
  13:.\Generated_Source\PSoC5/Sensirion_I2C.c **** * Copyright 2008-2012, Cypress Semiconductor Corporation. All rights reserved.
  14:.\Generated_Source\PSoC5/Sensirion_I2C.c **** * You may use this file only in accordance with the license, terms, conditions,
  15:.\Generated_Source\PSoC5/Sensirion_I2C.c **** * disclaimers, and limitations in the end user license agreement accompanying
  16:.\Generated_Source\PSoC5/Sensirion_I2C.c **** * the software package with which this file was provided.
  17:.\Generated_Source\PSoC5/Sensirion_I2C.c **** *******************************************************************************/
  18:.\Generated_Source\PSoC5/Sensirion_I2C.c **** 
  19:.\Generated_Source\PSoC5/Sensirion_I2C.c **** #include "Sensirion_I2C_PVT.h"
  20:.\Generated_Source\PSoC5/Sensirion_I2C.c **** 
  21:.\Generated_Source\PSoC5/Sensirion_I2C.c **** 
  22:.\Generated_Source\PSoC5/Sensirion_I2C.c **** /**********************************
  23:.\Generated_Source\PSoC5/Sensirion_I2C.c **** *      System variables
  24:.\Generated_Source\PSoC5/Sensirion_I2C.c **** **********************************/
  25:.\Generated_Source\PSoC5/Sensirion_I2C.c **** 
  26:.\Generated_Source\PSoC5/Sensirion_I2C.c **** uint8 Sensirion_I2C_initVar = 0u;    /* Defines if component was initialized */
  27:.\Generated_Source\PSoC5/Sensirion_I2C.c **** 
  28:.\Generated_Source\PSoC5/Sensirion_I2C.c **** volatile uint8 Sensirion_I2C_state;  /* Current state of I2C FSM */
  29:.\Generated_Source\PSoC5/Sensirion_I2C.c **** 
  30:.\Generated_Source\PSoC5/Sensirion_I2C.c **** 
  31:.\Generated_Source\PSoC5/Sensirion_I2C.c **** /*******************************************************************************
ARM GAS  C:\Users\cps\AppData\Local\Temp\cctMVIYz.s 			page 2


  32:.\Generated_Source\PSoC5/Sensirion_I2C.c **** * Function Name: Sensirion_I2C_Init
  33:.\Generated_Source\PSoC5/Sensirion_I2C.c **** ********************************************************************************
  34:.\Generated_Source\PSoC5/Sensirion_I2C.c **** *
  35:.\Generated_Source\PSoC5/Sensirion_I2C.c **** * Summary:
  36:.\Generated_Source\PSoC5/Sensirion_I2C.c **** *  Initializes I2C registers with initial values provided from customizer.
  37:.\Generated_Source\PSoC5/Sensirion_I2C.c **** *
  38:.\Generated_Source\PSoC5/Sensirion_I2C.c **** * Parameters:
  39:.\Generated_Source\PSoC5/Sensirion_I2C.c **** *  None
  40:.\Generated_Source\PSoC5/Sensirion_I2C.c **** *
  41:.\Generated_Source\PSoC5/Sensirion_I2C.c **** * Return:
  42:.\Generated_Source\PSoC5/Sensirion_I2C.c **** *  None
  43:.\Generated_Source\PSoC5/Sensirion_I2C.c **** *
  44:.\Generated_Source\PSoC5/Sensirion_I2C.c **** * Global variables:
  45:.\Generated_Source\PSoC5/Sensirion_I2C.c **** *  None
  46:.\Generated_Source\PSoC5/Sensirion_I2C.c **** *
  47:.\Generated_Source\PSoC5/Sensirion_I2C.c **** * Reentrant:
  48:.\Generated_Source\PSoC5/Sensirion_I2C.c **** *  No
  49:.\Generated_Source\PSoC5/Sensirion_I2C.c **** *
  50:.\Generated_Source\PSoC5/Sensirion_I2C.c **** *******************************************************************************/
  51:.\Generated_Source\PSoC5/Sensirion_I2C.c **** void Sensirion_I2C_Init(void) 
  52:.\Generated_Source\PSoC5/Sensirion_I2C.c **** {
  27              		.loc 1 52 0
  28              		.cfi_startproc
  29              		@ args = 0, pretend = 0, frame = 0
  30              		@ frame_needed = 0, uses_anonymous_args = 0
  31 0000 38B5     		push	{r3, r4, r5, lr}
  32              		.cfi_def_cfa_offset 16
  33              		.cfi_offset 3, -16
  34              		.cfi_offset 4, -12
  35              		.cfi_offset 5, -8
  36              		.cfi_offset 14, -4
  53:.\Generated_Source\PSoC5/Sensirion_I2C.c ****     #if(Sensirion_I2C_FF_IMPLEMENTED)
  54:.\Generated_Source\PSoC5/Sensirion_I2C.c ****         Sensirion_I2C_CFG_REG  = Sensirion_I2C_DEFAULT_CFG;
  55:.\Generated_Source\PSoC5/Sensirion_I2C.c ****         Sensirion_I2C_XCFG_REG = Sensirion_I2C_DEFAULT_XCFG;
  56:.\Generated_Source\PSoC5/Sensirion_I2C.c **** 
  57:.\Generated_Source\PSoC5/Sensirion_I2C.c ****         #if(CY_PSOC5A)
  58:.\Generated_Source\PSoC5/Sensirion_I2C.c ****             Sensirion_I2C_CLKDIV_REG  = LO8(Sensirion_I2C_DEFAULT_DIVIDE_FACTOR);
  59:.\Generated_Source\PSoC5/Sensirion_I2C.c ****         #else
  60:.\Generated_Source\PSoC5/Sensirion_I2C.c ****             Sensirion_I2C_CLKDIV1_REG = LO8(Sensirion_I2C_DEFAULT_DIVIDE_FACTOR);
  61:.\Generated_Source\PSoC5/Sensirion_I2C.c ****             Sensirion_I2C_CLKDIV2_REG = HI8(Sensirion_I2C_DEFAULT_DIVIDE_FACTOR);
  62:.\Generated_Source\PSoC5/Sensirion_I2C.c ****         #endif /* (CY_PSOC5A) */
  63:.\Generated_Source\PSoC5/Sensirion_I2C.c **** 
  64:.\Generated_Source\PSoC5/Sensirion_I2C.c ****     #else
  65:.\Generated_Source\PSoC5/Sensirion_I2C.c ****         uint8 enableInterrupts;
  66:.\Generated_Source\PSoC5/Sensirion_I2C.c **** 
  67:.\Generated_Source\PSoC5/Sensirion_I2C.c ****         Sensirion_I2C_CFG_REG      = Sensirion_I2C_DEFAULT_CFG;      /* control  */
  37              		.loc 1 67 0
  38 0002 0024     		movs	r4, #0
  39 0004 134B     		ldr	r3, .L3
  40 0006 1C70     		strb	r4, [r3]
  68:.\Generated_Source\PSoC5/Sensirion_I2C.c ****         Sensirion_I2C_INT_MASK_REG = Sensirion_I2C_DEFAULT_INT_MASK; /* int_mask */
  41              		.loc 1 68 0
  42 0008 0125     		movs	r5, #1
  43 000a 1233     		adds	r3, r3, #18
  44 000c 1D70     		strb	r5, [r3]
  69:.\Generated_Source\PSoC5/Sensirion_I2C.c **** 
  70:.\Generated_Source\PSoC5/Sensirion_I2C.c ****         /* Enable interrupts from block */
ARM GAS  C:\Users\cps\AppData\Local\Temp\cctMVIYz.s 			page 3


  71:.\Generated_Source\PSoC5/Sensirion_I2C.c ****         enableInterrupts = CyEnterCriticalSection();
  45              		.loc 1 71 0
  46 000e FFF7FEFF 		bl	CyEnterCriticalSection
  47              	.LVL0:
  72:.\Generated_Source\PSoC5/Sensirion_I2C.c ****         Sensirion_I2C_INT_ENABLE_REG |= Sensirion_I2C_INTR_ENABLE; /* aux_ctl */
  48              		.loc 1 72 0
  49 0012 114A     		ldr	r2, .L3+4
  50 0014 1378     		ldrb	r3, [r2]	@ zero_extendqisi2
  51 0016 43F01003 		orr	r3, r3, #16
  52 001a 1370     		strb	r3, [r2]
  73:.\Generated_Source\PSoC5/Sensirion_I2C.c ****         CyExitCriticalSection(enableInterrupts);
  53              		.loc 1 73 0
  54 001c FFF7FEFF 		bl	CyExitCriticalSection
  55              	.LVL1:
  74:.\Generated_Source\PSoC5/Sensirion_I2C.c **** 
  75:.\Generated_Source\PSoC5/Sensirion_I2C.c ****         #if(Sensirion_I2C_MODE_MASTER_ENABLED)
  76:.\Generated_Source\PSoC5/Sensirion_I2C.c ****             Sensirion_I2C_MCLK_PRD_REG = Sensirion_I2C_DEFAULT_MCLK_PRD;
  56              		.loc 1 76 0
  57 0020 0F22     		movs	r2, #15
  58 0022 0E4B     		ldr	r3, .L3+8
  59 0024 1A70     		strb	r2, [r3]
  77:.\Generated_Source\PSoC5/Sensirion_I2C.c ****             Sensirion_I2C_MCLK_CMP_REG = Sensirion_I2C_DEFAULT_MCLK_CMP;
  60              		.loc 1 77 0
  61 0026 0822     		movs	r2, #8
  62 0028 1033     		adds	r3, r3, #16
  63 002a 1A70     		strb	r2, [r3]
  78:.\Generated_Source\PSoC5/Sensirion_I2C.c ****          #endif /* (Sensirion_I2C_MODE_MASTER_ENABLED) */
  79:.\Generated_Source\PSoC5/Sensirion_I2C.c **** 
  80:.\Generated_Source\PSoC5/Sensirion_I2C.c ****         #if(Sensirion_I2C_MODE_SLAVE_ENABLED)
  81:.\Generated_Source\PSoC5/Sensirion_I2C.c ****             Sensirion_I2C_PERIOD_REG = Sensirion_I2C_DEFAULT_PERIOD;
  82:.\Generated_Source\PSoC5/Sensirion_I2C.c ****         #endif  /* (Sensirion_I2C_MODE_SLAVE_ENABLED) */
  83:.\Generated_Source\PSoC5/Sensirion_I2C.c **** 
  84:.\Generated_Source\PSoC5/Sensirion_I2C.c ****     #endif /* (Sensirion_I2C_FF_IMPLEMENTED) */
  85:.\Generated_Source\PSoC5/Sensirion_I2C.c **** 
  86:.\Generated_Source\PSoC5/Sensirion_I2C.c ****     #if(Sensirion_I2C_TIMEOUT_ENABLED)
  87:.\Generated_Source\PSoC5/Sensirion_I2C.c ****         Sensirion_I2C_TimeoutInit();
  88:.\Generated_Source\PSoC5/Sensirion_I2C.c ****     #endif /* (Sensirion_I2C_TIMEOUT_ENABLED) */
  89:.\Generated_Source\PSoC5/Sensirion_I2C.c **** 
  90:.\Generated_Source\PSoC5/Sensirion_I2C.c ****     /* Disable Interrupt and set vector and priority */
  91:.\Generated_Source\PSoC5/Sensirion_I2C.c ****     CyIntDisable    (Sensirion_I2C_ISR_NUMBER);
  64              		.loc 1 91 0
  65 002c 0C4B     		ldr	r3, .L3+12
  66 002e 1D60     		str	r5, [r3]
  92:.\Generated_Source\PSoC5/Sensirion_I2C.c ****     CyIntSetPriority(Sensirion_I2C_ISR_NUMBER, Sensirion_I2C_ISR_PRIORITY);
  67              		.loc 1 92 0
  68 0030 2046     		mov	r0, r4
  69 0032 0721     		movs	r1, #7
  70 0034 FFF7FEFF 		bl	CyIntSetPriority
  71              	.LVL2:
  93:.\Generated_Source\PSoC5/Sensirion_I2C.c ****     #if(Sensirion_I2C_INTERN_I2C_INTR_HANDLER)
  94:.\Generated_Source\PSoC5/Sensirion_I2C.c ****         (void) CyIntSetVector(Sensirion_I2C_ISR_NUMBER, &Sensirion_I2C_ISR);
  72              		.loc 1 94 0
  73 0038 2046     		mov	r0, r4
  74 003a 0A49     		ldr	r1, .L3+16
  75 003c FFF7FEFF 		bl	CyIntSetVector
  76              	.LVL3:
  95:.\Generated_Source\PSoC5/Sensirion_I2C.c ****     #endif /* (Sensirion_I2C_INTERN_I2C_INTR_HANDLER) */
ARM GAS  C:\Users\cps\AppData\Local\Temp\cctMVIYz.s 			page 4


  96:.\Generated_Source\PSoC5/Sensirion_I2C.c **** 
  97:.\Generated_Source\PSoC5/Sensirion_I2C.c **** 
  98:.\Generated_Source\PSoC5/Sensirion_I2C.c ****     /* Put state machine in idle state */
  99:.\Generated_Source\PSoC5/Sensirion_I2C.c ****     Sensirion_I2C_state = Sensirion_I2C_SM_IDLE;
  77              		.loc 1 99 0
  78 0040 1022     		movs	r2, #16
  79 0042 094B     		ldr	r3, .L3+20
  80 0044 1A70     		strb	r2, [r3]
 100:.\Generated_Source\PSoC5/Sensirion_I2C.c **** 
 101:.\Generated_Source\PSoC5/Sensirion_I2C.c ****     #if(Sensirion_I2C_MODE_SLAVE_ENABLED)
 102:.\Generated_Source\PSoC5/Sensirion_I2C.c ****         /* Reset status and buffers index */
 103:.\Generated_Source\PSoC5/Sensirion_I2C.c ****         Sensirion_I2C_SlaveClearReadBuf();
 104:.\Generated_Source\PSoC5/Sensirion_I2C.c ****         Sensirion_I2C_SlaveClearWriteBuf();
 105:.\Generated_Source\PSoC5/Sensirion_I2C.c ****         Sensirion_I2C_slStatus = 0u; /* Reset slave status */
 106:.\Generated_Source\PSoC5/Sensirion_I2C.c **** 
 107:.\Generated_Source\PSoC5/Sensirion_I2C.c ****         /* Set default address */
 108:.\Generated_Source\PSoC5/Sensirion_I2C.c ****         Sensirion_I2C_SlaveSetAddress(Sensirion_I2C_DEFAULT_ADDR);
 109:.\Generated_Source\PSoC5/Sensirion_I2C.c ****     #endif /* (Sensirion_I2C_MODE_SLAVE_ENABLED) */
 110:.\Generated_Source\PSoC5/Sensirion_I2C.c **** 
 111:.\Generated_Source\PSoC5/Sensirion_I2C.c ****     #if(Sensirion_I2C_MODE_MASTER_ENABLED)
 112:.\Generated_Source\PSoC5/Sensirion_I2C.c ****         /* Reset status and buffers index */
 113:.\Generated_Source\PSoC5/Sensirion_I2C.c ****         Sensirion_I2C_MasterClearReadBuf();
  81              		.loc 1 113 0
  82 0046 FFF7FEFF 		bl	Sensirion_I2C_MasterClearReadBuf
  83              	.LVL4:
 114:.\Generated_Source\PSoC5/Sensirion_I2C.c ****         Sensirion_I2C_MasterClearWriteBuf();
  84              		.loc 1 114 0
  85 004a FFF7FEFF 		bl	Sensirion_I2C_MasterClearWriteBuf
  86              	.LVL5:
 115:.\Generated_Source\PSoC5/Sensirion_I2C.c ****         (void) Sensirion_I2C_MasterClearStatus();
  87              		.loc 1 115 0
  88 004e FFF7FEFF 		bl	Sensirion_I2C_MasterClearStatus
  89              	.LVL6:
  90 0052 38BD     		pop	{r3, r4, r5, pc}
  91              	.L4:
  92              		.align	2
  93              	.L3:
  94 0054 79640040 		.word	1073767545
  95 0058 9B640040 		.word	1073767579
  96 005c 28650040 		.word	1073767720
  97 0060 80E100E0 		.word	-536813184
  98 0064 00000000 		.word	Sensirion_I2C_ISR
  99 0068 00000000 		.word	Sensirion_I2C_state
 100              		.cfi_endproc
 101              	.LFE0:
 102              		.size	Sensirion_I2C_Init, .-Sensirion_I2C_Init
 103              		.section	.text.Sensirion_I2C_Enable,"ax",%progbits
 104              		.align	2
 105              		.global	Sensirion_I2C_Enable
 106              		.thumb
 107              		.thumb_func
 108              		.type	Sensirion_I2C_Enable, %function
 109              	Sensirion_I2C_Enable:
 110              	.LFB1:
 116:.\Generated_Source\PSoC5/Sensirion_I2C.c ****     #endif /* (Sensirion_I2C_MODE_MASTER_ENABLED) */
 117:.\Generated_Source\PSoC5/Sensirion_I2C.c **** }
 118:.\Generated_Source\PSoC5/Sensirion_I2C.c **** 
ARM GAS  C:\Users\cps\AppData\Local\Temp\cctMVIYz.s 			page 5


 119:.\Generated_Source\PSoC5/Sensirion_I2C.c **** 
 120:.\Generated_Source\PSoC5/Sensirion_I2C.c **** /*******************************************************************************
 121:.\Generated_Source\PSoC5/Sensirion_I2C.c **** * Function Name: Sensirion_I2C_Enable
 122:.\Generated_Source\PSoC5/Sensirion_I2C.c **** ********************************************************************************
 123:.\Generated_Source\PSoC5/Sensirion_I2C.c **** *
 124:.\Generated_Source\PSoC5/Sensirion_I2C.c **** * Summary:
 125:.\Generated_Source\PSoC5/Sensirion_I2C.c **** *  Enables I2C operations.
 126:.\Generated_Source\PSoC5/Sensirion_I2C.c **** *
 127:.\Generated_Source\PSoC5/Sensirion_I2C.c **** * Parameters:
 128:.\Generated_Source\PSoC5/Sensirion_I2C.c **** *  None
 129:.\Generated_Source\PSoC5/Sensirion_I2C.c **** *
 130:.\Generated_Source\PSoC5/Sensirion_I2C.c **** * Return:
 131:.\Generated_Source\PSoC5/Sensirion_I2C.c **** *  None
 132:.\Generated_Source\PSoC5/Sensirion_I2C.c **** *
 133:.\Generated_Source\PSoC5/Sensirion_I2C.c **** * Global variables:
 134:.\Generated_Source\PSoC5/Sensirion_I2C.c **** *  None
 135:.\Generated_Source\PSoC5/Sensirion_I2C.c **** *
 136:.\Generated_Source\PSoC5/Sensirion_I2C.c **** *******************************************************************************/
 137:.\Generated_Source\PSoC5/Sensirion_I2C.c **** void Sensirion_I2C_Enable(void) 
 138:.\Generated_Source\PSoC5/Sensirion_I2C.c **** {
 111              		.loc 1 138 0
 112              		.cfi_startproc
 113              		@ args = 0, pretend = 0, frame = 0
 114              		@ frame_needed = 0, uses_anonymous_args = 0
 115              		@ link register save eliminated.
 139:.\Generated_Source\PSoC5/Sensirion_I2C.c ****     #if(Sensirion_I2C_FF_IMPLEMENTED)
 140:.\Generated_Source\PSoC5/Sensirion_I2C.c ****         uint8 enableInterrupts;
 141:.\Generated_Source\PSoC5/Sensirion_I2C.c **** 
 142:.\Generated_Source\PSoC5/Sensirion_I2C.c ****         /* Enable power to I2C FF block */
 143:.\Generated_Source\PSoC5/Sensirion_I2C.c ****         enableInterrupts = CyEnterCriticalSection();
 144:.\Generated_Source\PSoC5/Sensirion_I2C.c ****         Sensirion_I2C_ACT_PWRMGR_REG  |= Sensirion_I2C_ACT_PWR_EN;
 145:.\Generated_Source\PSoC5/Sensirion_I2C.c ****         Sensirion_I2C_STBY_PWRMGR_REG |= Sensirion_I2C_STBY_PWR_EN;
 146:.\Generated_Source\PSoC5/Sensirion_I2C.c ****         CyExitCriticalSection(enableInterrupts);
 147:.\Generated_Source\PSoC5/Sensirion_I2C.c **** 
 148:.\Generated_Source\PSoC5/Sensirion_I2C.c ****     #else
 149:.\Generated_Source\PSoC5/Sensirion_I2C.c **** 
 150:.\Generated_Source\PSoC5/Sensirion_I2C.c ****         #if(Sensirion_I2C_MODE_SLAVE_ENABLED)
 151:.\Generated_Source\PSoC5/Sensirion_I2C.c ****             uint8 enableInterrupts;
 152:.\Generated_Source\PSoC5/Sensirion_I2C.c ****         #endif /* (Sensirion_I2C_MODE_SLAVE_ENABLED) */
 153:.\Generated_Source\PSoC5/Sensirion_I2C.c **** 
 154:.\Generated_Source\PSoC5/Sensirion_I2C.c ****         #if(Sensirion_I2C_MODE_SLAVE_ENABLED)
 155:.\Generated_Source\PSoC5/Sensirion_I2C.c ****             /* Enable slave bit counter */
 156:.\Generated_Source\PSoC5/Sensirion_I2C.c ****             enableInterrupts = CyEnterCriticalSection();
 157:.\Generated_Source\PSoC5/Sensirion_I2C.c ****             Sensirion_I2C_COUNTER_AUX_CTL_REG |= Sensirion_I2C_CNT7_ENABLE;   /* aux_ctl */
 158:.\Generated_Source\PSoC5/Sensirion_I2C.c ****             CyExitCriticalSection(enableInterrupts);
 159:.\Generated_Source\PSoC5/Sensirion_I2C.c ****         #endif /* (Sensirion_I2C_MODE_SLAVE_ENABLED) */
 160:.\Generated_Source\PSoC5/Sensirion_I2C.c **** 
 161:.\Generated_Source\PSoC5/Sensirion_I2C.c ****         Sensirion_I2C_CFG_REG |= Sensirion_I2C_ENABLE_MS;
 116              		.loc 1 161 0
 117 0000 024A     		ldr	r2, .L6
 118 0002 1378     		ldrb	r3, [r2]	@ zero_extendqisi2
 119 0004 43F00203 		orr	r3, r3, #2
 120 0008 1370     		strb	r3, [r2]
 121 000a 7047     		bx	lr
 122              	.L7:
 123              		.align	2
 124              	.L6:
ARM GAS  C:\Users\cps\AppData\Local\Temp\cctMVIYz.s 			page 6


 125 000c 79640040 		.word	1073767545
 126              		.cfi_endproc
 127              	.LFE1:
 128              		.size	Sensirion_I2C_Enable, .-Sensirion_I2C_Enable
 129              		.section	.text.Sensirion_I2C_Start,"ax",%progbits
 130              		.align	2
 131              		.global	Sensirion_I2C_Start
 132              		.thumb
 133              		.thumb_func
 134              		.type	Sensirion_I2C_Start, %function
 135              	Sensirion_I2C_Start:
 136              	.LFB2:
 162:.\Generated_Source\PSoC5/Sensirion_I2C.c **** 
 163:.\Generated_Source\PSoC5/Sensirion_I2C.c ****     #endif /* (Sensirion_I2C_FF_IMPLEMENTED) */
 164:.\Generated_Source\PSoC5/Sensirion_I2C.c **** 
 165:.\Generated_Source\PSoC5/Sensirion_I2C.c ****     #if(Sensirion_I2C_TIMEOUT_ENABLED)
 166:.\Generated_Source\PSoC5/Sensirion_I2C.c ****         Sensirion_I2C_TimeoutEnable();
 167:.\Generated_Source\PSoC5/Sensirion_I2C.c ****     #endif /* (Sensirion_I2C_TIMEOUT_ENABLED) */
 168:.\Generated_Source\PSoC5/Sensirion_I2C.c **** }
 169:.\Generated_Source\PSoC5/Sensirion_I2C.c **** 
 170:.\Generated_Source\PSoC5/Sensirion_I2C.c **** 
 171:.\Generated_Source\PSoC5/Sensirion_I2C.c **** /*******************************************************************************
 172:.\Generated_Source\PSoC5/Sensirion_I2C.c **** * Function Name: Sensirion_I2C_Start
 173:.\Generated_Source\PSoC5/Sensirion_I2C.c **** ********************************************************************************
 174:.\Generated_Source\PSoC5/Sensirion_I2C.c **** *
 175:.\Generated_Source\PSoC5/Sensirion_I2C.c **** * Summary:
 176:.\Generated_Source\PSoC5/Sensirion_I2C.c **** *  Starts the I2C hardware. Enables Active mode power template bits or clock
 177:.\Generated_Source\PSoC5/Sensirion_I2C.c **** *  gating as appropriate. It is required to be executed before I2C bus
 178:.\Generated_Source\PSoC5/Sensirion_I2C.c **** *  operation.
 179:.\Generated_Source\PSoC5/Sensirion_I2C.c **** *
 180:.\Generated_Source\PSoC5/Sensirion_I2C.c **** * Parameters:
 181:.\Generated_Source\PSoC5/Sensirion_I2C.c **** *  None
 182:.\Generated_Source\PSoC5/Sensirion_I2C.c **** *
 183:.\Generated_Source\PSoC5/Sensirion_I2C.c **** * Return:
 184:.\Generated_Source\PSoC5/Sensirion_I2C.c **** *  None
 185:.\Generated_Source\PSoC5/Sensirion_I2C.c **** *
 186:.\Generated_Source\PSoC5/Sensirion_I2C.c **** * Side Effects:
 187:.\Generated_Source\PSoC5/Sensirion_I2C.c **** *  This component automatically enables it's interrupt.  If I2C is enabled
 188:.\Generated_Source\PSoC5/Sensirion_I2C.c **** *  without the interrupt enabled, it could lock up the I2C bus.
 189:.\Generated_Source\PSoC5/Sensirion_I2C.c **** *
 190:.\Generated_Source\PSoC5/Sensirion_I2C.c **** * Global variables:
 191:.\Generated_Source\PSoC5/Sensirion_I2C.c **** *  Sensirion_I2C_initVar - used to check initial configuration, modified
 192:.\Generated_Source\PSoC5/Sensirion_I2C.c **** *  on first function call.
 193:.\Generated_Source\PSoC5/Sensirion_I2C.c **** *
 194:.\Generated_Source\PSoC5/Sensirion_I2C.c **** * Reentrant:
 195:.\Generated_Source\PSoC5/Sensirion_I2C.c **** *  No
 196:.\Generated_Source\PSoC5/Sensirion_I2C.c **** *
 197:.\Generated_Source\PSoC5/Sensirion_I2C.c **** *******************************************************************************/
 198:.\Generated_Source\PSoC5/Sensirion_I2C.c **** void Sensirion_I2C_Start(void) 
 199:.\Generated_Source\PSoC5/Sensirion_I2C.c **** {
 137              		.loc 1 199 0
 138              		.cfi_startproc
 139              		@ args = 0, pretend = 0, frame = 0
 140              		@ frame_needed = 0, uses_anonymous_args = 0
 141 0000 08B5     		push	{r3, lr}
 142              		.cfi_def_cfa_offset 8
 143              		.cfi_offset 3, -8
ARM GAS  C:\Users\cps\AppData\Local\Temp\cctMVIYz.s 			page 7


 144              		.cfi_offset 14, -4
 200:.\Generated_Source\PSoC5/Sensirion_I2C.c ****     /* Initialize I2C registers, reset I2C buffer index and clears status */
 201:.\Generated_Source\PSoC5/Sensirion_I2C.c ****     if(0u == Sensirion_I2C_initVar)
 145              		.loc 1 201 0
 146 0002 074B     		ldr	r3, .L11
 147 0004 1B78     		ldrb	r3, [r3]	@ zero_extendqisi2
 148 0006 23B9     		cbnz	r3, .L9
 202:.\Generated_Source\PSoC5/Sensirion_I2C.c ****     {
 203:.\Generated_Source\PSoC5/Sensirion_I2C.c ****         Sensirion_I2C_Init();
 149              		.loc 1 203 0
 150 0008 FFF7FEFF 		bl	Sensirion_I2C_Init
 151              	.LVL7:
 204:.\Generated_Source\PSoC5/Sensirion_I2C.c ****         Sensirion_I2C_initVar = 1u; /* Component initialized */
 152              		.loc 1 204 0
 153 000c 0122     		movs	r2, #1
 154 000e 044B     		ldr	r3, .L11
 155 0010 1A70     		strb	r2, [r3]
 156              	.L9:
 205:.\Generated_Source\PSoC5/Sensirion_I2C.c ****     }
 206:.\Generated_Source\PSoC5/Sensirion_I2C.c **** 
 207:.\Generated_Source\PSoC5/Sensirion_I2C.c ****     Sensirion_I2C_Enable();
 157              		.loc 1 207 0
 158 0012 FFF7FEFF 		bl	Sensirion_I2C_Enable
 159              	.LVL8:
 208:.\Generated_Source\PSoC5/Sensirion_I2C.c ****     Sensirion_I2C_EnableInt();
 160              		.loc 1 208 0
 161 0016 0122     		movs	r2, #1
 162 0018 024B     		ldr	r3, .L11+4
 163 001a 1A60     		str	r2, [r3]
 164 001c 08BD     		pop	{r3, pc}
 165              	.L12:
 166 001e 00BF     		.align	2
 167              	.L11:
 168 0020 00000000 		.word	.LANCHOR0
 169 0024 00E100E0 		.word	-536813312
 170              		.cfi_endproc
 171              	.LFE2:
 172              		.size	Sensirion_I2C_Start, .-Sensirion_I2C_Start
 173              		.section	.text.Sensirion_I2C_Stop,"ax",%progbits
 174              		.align	2
 175              		.global	Sensirion_I2C_Stop
 176              		.thumb
 177              		.thumb_func
 178              		.type	Sensirion_I2C_Stop, %function
 179              	Sensirion_I2C_Stop:
 180              	.LFB3:
 209:.\Generated_Source\PSoC5/Sensirion_I2C.c **** }
 210:.\Generated_Source\PSoC5/Sensirion_I2C.c **** 
 211:.\Generated_Source\PSoC5/Sensirion_I2C.c **** 
 212:.\Generated_Source\PSoC5/Sensirion_I2C.c **** /*******************************************************************************
 213:.\Generated_Source\PSoC5/Sensirion_I2C.c **** * Function Name: Sensirion_I2C_Stop
 214:.\Generated_Source\PSoC5/Sensirion_I2C.c **** ********************************************************************************
 215:.\Generated_Source\PSoC5/Sensirion_I2C.c **** *
 216:.\Generated_Source\PSoC5/Sensirion_I2C.c **** * Summary:
 217:.\Generated_Source\PSoC5/Sensirion_I2C.c **** *  Disables I2C hardware and disables I2C interrupt. Disables Active mode power
 218:.\Generated_Source\PSoC5/Sensirion_I2C.c **** *  template bits or clock gating as appropriate.
 219:.\Generated_Source\PSoC5/Sensirion_I2C.c **** *
ARM GAS  C:\Users\cps\AppData\Local\Temp\cctMVIYz.s 			page 8


 220:.\Generated_Source\PSoC5/Sensirion_I2C.c **** * Parameters:
 221:.\Generated_Source\PSoC5/Sensirion_I2C.c **** *  None
 222:.\Generated_Source\PSoC5/Sensirion_I2C.c **** *
 223:.\Generated_Source\PSoC5/Sensirion_I2C.c **** * Return:
 224:.\Generated_Source\PSoC5/Sensirion_I2C.c **** *  None
 225:.\Generated_Source\PSoC5/Sensirion_I2C.c **** *
 226:.\Generated_Source\PSoC5/Sensirion_I2C.c **** *******************************************************************************/
 227:.\Generated_Source\PSoC5/Sensirion_I2C.c **** void Sensirion_I2C_Stop(void) 
 228:.\Generated_Source\PSoC5/Sensirion_I2C.c **** {
 181              		.loc 1 228 0
 182              		.cfi_startproc
 183              		@ args = 0, pretend = 0, frame = 0
 184              		@ frame_needed = 0, uses_anonymous_args = 0
 185              		@ link register save eliminated.
 229:.\Generated_Source\PSoC5/Sensirion_I2C.c ****     #if((Sensirion_I2C_FF_IMPLEMENTED)  || \
 230:.\Generated_Source\PSoC5/Sensirion_I2C.c ****         (Sensirion_I2C_UDB_IMPLEMENTED && Sensirion_I2C_MODE_SLAVE_ENABLED))
 231:.\Generated_Source\PSoC5/Sensirion_I2C.c ****         uint8 enableInterrupts;
 232:.\Generated_Source\PSoC5/Sensirion_I2C.c ****     #endif /* ((Sensirion_I2C_FF_IMPLEMENTED)  || \
 233:.\Generated_Source\PSoC5/Sensirion_I2C.c ****                (Sensirion_I2C_UDB_IMPLEMENTED && Sensirion_I2C_MODE_SLAVE_ENABLED)) */
 234:.\Generated_Source\PSoC5/Sensirion_I2C.c **** 
 235:.\Generated_Source\PSoC5/Sensirion_I2C.c ****     Sensirion_I2C_DisableInt();
 186              		.loc 1 235 0
 187 0000 0122     		movs	r2, #1
 188 0002 0A4B     		ldr	r3, .L14
 189 0004 1A60     		str	r2, [r3]
 236:.\Generated_Source\PSoC5/Sensirion_I2C.c **** 
 237:.\Generated_Source\PSoC5/Sensirion_I2C.c ****     Sensirion_I2C_DISABLE_INT_ON_STOP;   /* Interrupt on Stop can be enabled by write */
 190              		.loc 1 237 0
 191 0006 0A49     		ldr	r1, .L14+4
 192 0008 0B78     		ldrb	r3, [r1]	@ zero_extendqisi2
 193 000a 03F0DF03 		and	r3, r3, #223
 194 000e 0B70     		strb	r3, [r1]
 238:.\Generated_Source\PSoC5/Sensirion_I2C.c ****     (void) Sensirion_I2C_CSR_REG;        /* Clear CSR reg */
 195              		.loc 1 238 0
 196 0010 084B     		ldr	r3, .L14+8
 197 0012 1B78     		ldrb	r3, [r3]	@ zero_extendqisi2
 239:.\Generated_Source\PSoC5/Sensirion_I2C.c ****     
 240:.\Generated_Source\PSoC5/Sensirion_I2C.c ****     #if(Sensirion_I2C_TIMEOUT_ENABLED)
 241:.\Generated_Source\PSoC5/Sensirion_I2C.c ****         Sensirion_I2C_TimeoutStop();
 242:.\Generated_Source\PSoC5/Sensirion_I2C.c ****     #endif  /* End (Sensirion_I2C_TIMEOUT_ENABLED) */
 243:.\Generated_Source\PSoC5/Sensirion_I2C.c **** 
 244:.\Generated_Source\PSoC5/Sensirion_I2C.c ****     #if(Sensirion_I2C_FF_IMPLEMENTED)
 245:.\Generated_Source\PSoC5/Sensirion_I2C.c ****         #if(CY_PSOC3 || CY_PSOC5LP)
 246:.\Generated_Source\PSoC5/Sensirion_I2C.c ****             /* Store registers which are held in reset when Master and Slave bits are cleared */
 247:.\Generated_Source\PSoC5/Sensirion_I2C.c ****             #if(Sensirion_I2C_MODE_SLAVE_ENABLED)
 248:.\Generated_Source\PSoC5/Sensirion_I2C.c ****                 Sensirion_I2C_backup.addr = Sensirion_I2C_ADDR_REG;
 249:.\Generated_Source\PSoC5/Sensirion_I2C.c ****             #endif /* (Sensirion_I2C_MODE_SLAVE_ENABLED) */
 250:.\Generated_Source\PSoC5/Sensirion_I2C.c **** 
 251:.\Generated_Source\PSoC5/Sensirion_I2C.c ****             Sensirion_I2C_backup.clkDiv1  = Sensirion_I2C_CLKDIV1_REG;
 252:.\Generated_Source\PSoC5/Sensirion_I2C.c ****             Sensirion_I2C_backup.clkDiv2  = Sensirion_I2C_CLKDIV2_REG;
 253:.\Generated_Source\PSoC5/Sensirion_I2C.c **** 
 254:.\Generated_Source\PSoC5/Sensirion_I2C.c **** 
 255:.\Generated_Source\PSoC5/Sensirion_I2C.c ****             /* Reset FF block */
 256:.\Generated_Source\PSoC5/Sensirion_I2C.c ****             Sensirion_I2C_CFG_REG &= ((uint8) ~Sensirion_I2C_ENABLE_MS);
 257:.\Generated_Source\PSoC5/Sensirion_I2C.c ****             CyDelayUs(Sensirion_I2C_FF_RESET_DELAY);
 258:.\Generated_Source\PSoC5/Sensirion_I2C.c ****             Sensirion_I2C_CFG_REG |= ((uint8)  Sensirion_I2C_ENABLE_MS);
 259:.\Generated_Source\PSoC5/Sensirion_I2C.c **** 
ARM GAS  C:\Users\cps\AppData\Local\Temp\cctMVIYz.s 			page 9


 260:.\Generated_Source\PSoC5/Sensirion_I2C.c **** 
 261:.\Generated_Source\PSoC5/Sensirion_I2C.c ****             /* Restore registers */
 262:.\Generated_Source\PSoC5/Sensirion_I2C.c ****             #if(Sensirion_I2C_MODE_SLAVE_ENABLED)
 263:.\Generated_Source\PSoC5/Sensirion_I2C.c ****                 Sensirion_I2C_ADDR_REG = Sensirion_I2C_backup.addr;
 264:.\Generated_Source\PSoC5/Sensirion_I2C.c ****             #endif /* (Sensirion_I2C_MODE_SLAVE_ENABLED) */
 265:.\Generated_Source\PSoC5/Sensirion_I2C.c **** 
 266:.\Generated_Source\PSoC5/Sensirion_I2C.c ****             Sensirion_I2C_CLKDIV1_REG = Sensirion_I2C_backup.clkDiv1;
 267:.\Generated_Source\PSoC5/Sensirion_I2C.c ****             Sensirion_I2C_CLKDIV2_REG = Sensirion_I2C_backup.clkDiv2;
 268:.\Generated_Source\PSoC5/Sensirion_I2C.c **** 
 269:.\Generated_Source\PSoC5/Sensirion_I2C.c ****         #endif /* (CY_PSOC3 || CY_PSOC5LP) */
 270:.\Generated_Source\PSoC5/Sensirion_I2C.c **** 
 271:.\Generated_Source\PSoC5/Sensirion_I2C.c ****         /* Disable power to I2C block */
 272:.\Generated_Source\PSoC5/Sensirion_I2C.c ****         enableInterrupts = CyEnterCriticalSection();
 273:.\Generated_Source\PSoC5/Sensirion_I2C.c ****         Sensirion_I2C_ACT_PWRMGR_REG  &= ((uint8) ~Sensirion_I2C_ACT_PWR_EN);
 274:.\Generated_Source\PSoC5/Sensirion_I2C.c ****         Sensirion_I2C_STBY_PWRMGR_REG &= ((uint8) ~Sensirion_I2C_STBY_PWR_EN);
 275:.\Generated_Source\PSoC5/Sensirion_I2C.c ****         CyExitCriticalSection(enableInterrupts);
 276:.\Generated_Source\PSoC5/Sensirion_I2C.c **** 
 277:.\Generated_Source\PSoC5/Sensirion_I2C.c ****     #else
 278:.\Generated_Source\PSoC5/Sensirion_I2C.c **** 
 279:.\Generated_Source\PSoC5/Sensirion_I2C.c ****         #if(Sensirion_I2C_MODE_SLAVE_ENABLED)
 280:.\Generated_Source\PSoC5/Sensirion_I2C.c ****             /* Disable slave bit counter */
 281:.\Generated_Source\PSoC5/Sensirion_I2C.c ****             enableInterrupts = CyEnterCriticalSection();
 282:.\Generated_Source\PSoC5/Sensirion_I2C.c ****             Sensirion_I2C_COUNTER_AUX_CTL_REG &= ((uint8) ~Sensirion_I2C_CNT7_ENABLE);
 283:.\Generated_Source\PSoC5/Sensirion_I2C.c ****             CyExitCriticalSection(enableInterrupts);
 284:.\Generated_Source\PSoC5/Sensirion_I2C.c ****         #endif /* (Sensirion_I2C_MODE_SLAVE_ENABLED) */
 285:.\Generated_Source\PSoC5/Sensirion_I2C.c **** 
 286:.\Generated_Source\PSoC5/Sensirion_I2C.c ****         Sensirion_I2C_CFG_REG &= ((uint8) ~Sensirion_I2C_ENABLE_MS);
 198              		.loc 1 286 0
 199 0014 1239     		subs	r1, r1, #18
 200 0016 0B78     		ldrb	r3, [r1]	@ zero_extendqisi2
 201 0018 03F0FD03 		and	r3, r3, #253
 202 001c 0B70     		strb	r3, [r1]
 287:.\Generated_Source\PSoC5/Sensirion_I2C.c **** 
 288:.\Generated_Source\PSoC5/Sensirion_I2C.c ****     #endif /* (Sensirion_I2C_FF_IMPLEMENTED) */
 289:.\Generated_Source\PSoC5/Sensirion_I2C.c **** 
 290:.\Generated_Source\PSoC5/Sensirion_I2C.c ****     Sensirion_I2C_ClearPendingInt();  /* Clear interrupt triggers on reset */
 203              		.loc 1 290 0
 204 001e 064B     		ldr	r3, .L14+12
 205 0020 1A60     		str	r2, [r3]
 291:.\Generated_Source\PSoC5/Sensirion_I2C.c **** 
 292:.\Generated_Source\PSoC5/Sensirion_I2C.c ****     Sensirion_I2C_state = Sensirion_I2C_SM_IDLE;  /* Reset software FSM */
 206              		.loc 1 292 0
 207 0022 1022     		movs	r2, #16
 208 0024 054B     		ldr	r3, .L14+16
 209 0026 1A70     		strb	r2, [r3]
 210 0028 7047     		bx	lr
 211              	.L15:
 212 002a 00BF     		.align	2
 213              	.L14:
 214 002c 80E100E0 		.word	-536813184
 215 0030 8B640040 		.word	1073767563
 216 0034 6B640040 		.word	1073767531
 217 0038 80E200E0 		.word	-536812928
 218 003c 00000000 		.word	Sensirion_I2C_state
 219              		.cfi_endproc
 220              	.LFE3:
 221              		.size	Sensirion_I2C_Stop, .-Sensirion_I2C_Stop
ARM GAS  C:\Users\cps\AppData\Local\Temp\cctMVIYz.s 			page 10


 222              		.comm	Sensirion_I2C_state,1,1
 223              		.global	Sensirion_I2C_initVar
 224              		.bss
 225              		.set	.LANCHOR0,. + 0
 226              		.type	Sensirion_I2C_initVar, %object
 227              		.size	Sensirion_I2C_initVar, 1
 228              	Sensirion_I2C_initVar:
 229 0000 00       		.space	1
 230              		.text
 231              	.Letext0:
 232              		.file 2 ".\\Generated_Source\\PSoC5\\cytypes.h"
 233              		.file 3 ".\\Generated_Source\\PSoC5\\CyLib.h"
 234              		.file 4 ".\\Generated_Source\\PSoC5\\Sensirion_I2C.h"