ARM GAS  C:\Users\cps\AppData\Local\Temp\ccA0aEMk.s 			page 1


   1              		.syntax unified
   2              		.cpu cortex-m3
   3              		.fpu softvfp
   4              		.eabi_attribute 20, 1
   5              		.eabi_attribute 21, 1
   6              		.eabi_attribute 23, 3
   7              		.eabi_attribute 24, 1
   8              		.eabi_attribute 25, 1
   9              		.eabi_attribute 26, 1
  10              		.eabi_attribute 30, 1
  11              		.eabi_attribute 34, 1
  12              		.eabi_attribute 18, 4
  13              		.thumb
  14              		.file	"sensirion_temprh.c"
  15              		.text
  16              	.Ltext0:
  17              		.cfi_sections	.debug_frame
  18              		.section	.text.Get_SensironValue,"ax",%progbits
  19              		.align	2
  20              		.global	Get_SensironValue
  21              		.thumb
  22              		.thumb_func
  23              		.type	Get_SensironValue, %function
  24              	Get_SensironValue:
  25              	.LFB63:
  26              		.file 1 ".\\sensirion_temprh.c"
   1:.\sensirion_temprh.c **** 
   2:.\sensirion_temprh.c **** #include "sensirion_temprh.h"
   3:.\sensirion_temprh.c **** 
   4:.\sensirion_temprh.c **** #define SENSIRION_ADDR 0b1000000
   5:.\sensirion_temprh.c **** #define SENSIRION_RH_COMMAND 0b11100101
   6:.\sensirion_temprh.c **** #define SENSIRION_TEMP_COMMAND 0b11100011
   7:.\sensirion_temprh.c **** 
   8:.\sensirion_temprh.c **** 
   9:.\sensirion_temprh.c **** uint16 Get_SensironValue(uint8 sensorCommand){
  27              		.loc 1 9 0
  28              		.cfi_startproc
  29              		@ args = 0, pretend = 0, frame = 16
  30              		@ frame_needed = 0, uses_anonymous_args = 0
  31              	.LVL0:
  32 0000 10B5     		push	{r4, lr}
  33              		.cfi_def_cfa_offset 8
  34              		.cfi_offset 4, -8
  35              		.cfi_offset 14, -4
  36 0002 84B0     		sub	sp, sp, #16
  37              		.cfi_def_cfa_offset 24
  38 0004 04AC     		add	r4, sp, #16
  39 0006 04F8090D 		strb	r0, [r4, #-9]!
  10:.\sensirion_temprh.c **** 
  11:.\sensirion_temprh.c ****     //send command to sensor to take reading
  12:.\sensirion_temprh.c ****     Sensirion_I2C_MasterClearStatus();
  40              		.loc 1 12 0
  41 000a FFF7FEFF 		bl	Sensirion_I2C_MasterClearStatus
  42              	.LVL1:
  13:.\sensirion_temprh.c ****     Sensirion_I2C_MasterWriteBuf(SENSIRION_ADDR, &sensorCommand,1,
  43              		.loc 1 13 0
  44 000e 4020     		movs	r0, #64
ARM GAS  C:\Users\cps\AppData\Local\Temp\ccA0aEMk.s 			page 2


  45 0010 2146     		mov	r1, r4
  46 0012 0122     		movs	r2, #1
  47 0014 0023     		movs	r3, #0
  48 0016 FFF7FEFF 		bl	Sensirion_I2C_MasterWriteBuf
  49              	.LVL2:
  14:.\sensirion_temprh.c ****     Sensirion_I2C_MODE_COMPLETE_XFER);
  15:.\sensirion_temprh.c ****     
  16:.\sensirion_temprh.c ****     //wait until sensor responds
  17:.\sensirion_temprh.c **** 	//while(0u == (Sensirion_I2C_MasterStatus() &  Sensirion_I2C_MSTAT_WR_CMPLT));
  18:.\sensirion_temprh.c **** 	uint8 i;
  19:.\sensirion_temprh.c **** 	for(i=0;i<10;i++){
  50              		.loc 1 19 0
  51 001a 0024     		movs	r4, #0
  52              	.LVL3:
  53 001c 09E0     		b	.L2
  54              	.LVL4:
  55              	.L4:
  20:.\sensirion_temprh.c **** 		if(Sensirion_I2C_MasterStatus() &  Sensirion_I2C_MSTAT_WR_CMPLT)
  56              		.loc 1 20 0
  57 001e FFF7FEFF 		bl	Sensirion_I2C_MasterStatus
  58              	.LVL5:
  59 0022 10F0020F 		tst	r0, #2
  60 0026 06D1     		bne	.L3
  21:.\sensirion_temprh.c **** 			break;
  22:.\sensirion_temprh.c **** 		else
  23:.\sensirion_temprh.c **** 			CyDelay(10u);
  61              		.loc 1 23 0 discriminator 2
  62 0028 0A20     		movs	r0, #10
  63 002a FFF7FEFF 		bl	CyDelay
  64              	.LVL6:
  19:.\sensirion_temprh.c **** 		if(Sensirion_I2C_MasterStatus() &  Sensirion_I2C_MSTAT_WR_CMPLT)
  65              		.loc 1 19 0 discriminator 2
  66 002e 0134     		adds	r4, r4, #1
  67              	.LVL7:
  68 0030 E4B2     		uxtb	r4, r4
  69              	.LVL8:
  70              	.L2:
  19:.\sensirion_temprh.c **** 		if(Sensirion_I2C_MasterStatus() &  Sensirion_I2C_MSTAT_WR_CMPLT)
  71              		.loc 1 19 0 is_stmt 0 discriminator 1
  72 0032 092C     		cmp	r4, #9
  73 0034 F3D9     		bls	.L4
  74              	.L3:
  24:.\sensirion_temprh.c **** 	}
  25:.\sensirion_temprh.c ****     
  26:.\sensirion_temprh.c ****     
  27:.\sensirion_temprh.c ****     //read value from sensor
  28:.\sensirion_temprh.c ****     uint8 i2cBufferRead[2];
  29:.\sensirion_temprh.c ****     Sensirion_I2C_MasterClearStatus();
  75              		.loc 1 29 0 is_stmt 1
  76 0036 FFF7FEFF 		bl	Sensirion_I2C_MasterClearStatus
  77              	.LVL9:
  30:.\sensirion_temprh.c ****     Sensirion_I2C_MasterReadBuf(SENSIRION_ADDR, i2cBufferRead, 2,
  78              		.loc 1 30 0
  79 003a 4020     		movs	r0, #64
  80 003c 03A9     		add	r1, sp, #12
  81 003e 0222     		movs	r2, #2
  82 0040 0023     		movs	r3, #0
ARM GAS  C:\Users\cps\AppData\Local\Temp\ccA0aEMk.s 			page 3


  83 0042 FFF7FEFF 		bl	Sensirion_I2C_MasterReadBuf
  84              	.LVL10:
  31:.\sensirion_temprh.c ****     Sensirion_I2C_MODE_COMPLETE_XFER);
  32:.\sensirion_temprh.c ****     
  33:.\sensirion_temprh.c ****     //wait until sensor responds
  34:.\sensirion_temprh.c **** 	//while(0u == (Sensirion_I2C_MasterStatus() &  Sensirion_I2C_MSTAT_RD_CMPLT));
  35:.\sensirion_temprh.c **** 	for(i=0;i<10;i++){
  85              		.loc 1 35 0
  86 0046 0024     		movs	r4, #0
  87 0048 11E0     		b	.L5
  88              	.LVL11:
  89              	.L8:
  36:.\sensirion_temprh.c **** 		if(Sensirion_I2C_MasterStatus() &  Sensirion_I2C_MSTAT_RD_CMPLT){
  90              		.loc 1 36 0
  91 004a FFF7FEFF 		bl	Sensirion_I2C_MasterStatus
  92              	.LVL12:
  93 004e 10F0010F 		tst	r0, #1
  94 0052 07D0     		beq	.L6
  95              	.LBB2:
  37:.\sensirion_temprh.c **** 			uint16 returnValue = (i2cBufferRead[0] <<8) + i2cBufferRead[1];
  96              		.loc 1 37 0
  97 0054 9DF80C00 		ldrb	r0, [sp, #12]	@ zero_extendqisi2
  98 0058 9DF80D30 		ldrb	r3, [sp, #13]	@ zero_extendqisi2
  99 005c 03EB0020 		add	r0, r3, r0, lsl #8
 100 0060 80B2     		uxth	r0, r0
  38:.\sensirion_temprh.c **** 			return returnValue;
 101              		.loc 1 38 0
 102 0062 08E0     		b	.L7
 103              	.L6:
 104              	.LBE2:
  39:.\sensirion_temprh.c **** 		}
  40:.\sensirion_temprh.c **** 		else
  41:.\sensirion_temprh.c **** 			CyDelay(10u);
 105              		.loc 1 41 0 discriminator 2
 106 0064 0A20     		movs	r0, #10
 107 0066 FFF7FEFF 		bl	CyDelay
 108              	.LVL13:
  35:.\sensirion_temprh.c **** 		if(Sensirion_I2C_MasterStatus() &  Sensirion_I2C_MSTAT_RD_CMPLT){
 109              		.loc 1 35 0 discriminator 2
 110 006a 0134     		adds	r4, r4, #1
 111              	.LVL14:
 112 006c E4B2     		uxtb	r4, r4
 113              	.LVL15:
 114              	.L5:
  35:.\sensirion_temprh.c **** 		if(Sensirion_I2C_MasterStatus() &  Sensirion_I2C_MSTAT_RD_CMPLT){
 115              		.loc 1 35 0 is_stmt 0 discriminator 1
 116 006e 092C     		cmp	r4, #9
 117 0070 EBD9     		bls	.L8
  42:.\sensirion_temprh.c **** 	}
  43:.\sensirion_temprh.c ****     //convert two bytes into 16-bit integer
  44:.\sensirion_temprh.c ****     return 999;//non valid value if sensor does not respond (above)
 118              		.loc 1 44 0 is_stmt 1
 119 0072 40F2E730 		movw	r0, #999
 120              	.L7:
  45:.\sensirion_temprh.c **** }
 121              		.loc 1 45 0
 122 0076 04B0     		add	sp, sp, #16
ARM GAS  C:\Users\cps\AppData\Local\Temp\ccA0aEMk.s 			page 4


 123              		.cfi_def_cfa_offset 8
 124              	.LVL16:
 125              		@ sp needed
 126 0078 10BD     		pop	{r4, pc}
 127              		.cfi_endproc
 128              	.LFE63:
 129              		.size	Get_SensironValue, .-Get_SensironValue
 130              		.global	__aeabi_ui2f
 131              		.global	__aeabi_fdiv
 132              		.global	__aeabi_fmul
 133              		.global	__aeabi_fsub
 134              		.global	__aeabi_fcmpeq
 135              		.global	__aeabi_f2d
 136              		.global	__aeabi_dmul
 137              		.global	__aeabi_dsub
 138              		.global	__aeabi_d2f
 139 007a 00BF     		.section	.text.Take_TempRH_Reading,"ax",%progbits
 140              		.align	2
 141              		.global	Take_TempRH_Reading
 142              		.thumb
 143              		.thumb_func
 144              		.type	Take_TempRH_Reading, %function
 145              	Take_TempRH_Reading:
 146              	.LFB64:
  46:.\sensirion_temprh.c **** Sensirion Take_TempRH_Reading(){
 147              		.loc 1 46 0
 148              		.cfi_startproc
 149              		@ args = 0, pretend = 0, frame = 0
 150              		@ frame_needed = 0, uses_anonymous_args = 0
 151              	.LVL17:
 152 0000 38B5     		push	{r3, r4, r5, lr}
 153              		.cfi_def_cfa_offset 16
 154              		.cfi_offset 3, -16
 155              		.cfi_offset 4, -12
 156              		.cfi_offset 5, -8
 157              		.cfi_offset 14, -4
 158 0002 0446     		mov	r4, r0
  47:.\sensirion_temprh.c ****     
  48:.\sensirion_temprh.c **** 	//turn power on to sensor
  49:.\sensirion_temprh.c **** 	Sensirion_I2C_Start();
 159              		.loc 1 49 0
 160 0004 FFF7FEFF 		bl	Sensirion_I2C_Start
 161              	.LVL18:
  50:.\sensirion_temprh.c ****     Sensirion_Power_Write(1u);
 162              		.loc 1 50 0
 163 0008 0120     		movs	r0, #1
 164 000a FFF7FEFF 		bl	Sensirion_Power_Write
 165              	.LVL19:
  51:.\sensirion_temprh.c **** 	
  52:.\sensirion_temprh.c ****     //delay 15ms based on data sheet
  53:.\sensirion_temprh.c ****     CyDelay(200u);
 166              		.loc 1 53 0
 167 000e C820     		movs	r0, #200
 168 0010 FFF7FEFF 		bl	CyDelay
 169              	.LVL20:
  54:.\sensirion_temprh.c ****     
  55:.\sensirion_temprh.c ****     Sensirion returnValue;
ARM GAS  C:\Users\cps\AppData\Local\Temp\ccA0aEMk.s 			page 5


  56:.\sensirion_temprh.c **** 	returnValue.valid = 1;
 170              		.loc 1 56 0
 171 0014 0123     		movs	r3, #1
 172 0016 2372     		strb	r3, [r4, #8]
  57:.\sensirion_temprh.c ****     
  58:.\sensirion_temprh.c ****     float RH = (float) Get_SensironValue(SENSIRION_RH_COMMAND);
 173              		.loc 1 58 0
 174 0018 E520     		movs	r0, #229
 175 001a FFF7FEFF 		bl	Get_SensironValue
 176              	.LVL21:
 177 001e FFF7FEFF 		bl	__aeabi_ui2f
 178              	.LVL22:
  59:.\sensirion_temprh.c **** 	if(RH == 999)
  60:.\sensirion_temprh.c **** 		returnValue.valid = 1;
  61:.\sensirion_temprh.c ****     returnValue.rh = -6 + 125*(RH/65532);
 179              		.loc 1 61 0
 180 0022 1D49     		ldr	r1, .L15+16
 181 0024 FFF7FEFF 		bl	__aeabi_fdiv
 182              	.LVL23:
 183 0028 1C49     		ldr	r1, .L15+20
 184 002a FFF7FEFF 		bl	__aeabi_fmul
 185              	.LVL24:
 186 002e 1C49     		ldr	r1, .L15+24
 187 0030 FFF7FEFF 		bl	__aeabi_fsub
 188              	.LVL25:
 189 0034 2060     		str	r0, [r4]	@ float
  62:.\sensirion_temprh.c ****     
  63:.\sensirion_temprh.c ****     float TEMP = (float) Get_SensironValue(SENSIRION_TEMP_COMMAND);
 190              		.loc 1 63 0
 191 0036 E320     		movs	r0, #227
 192 0038 FFF7FEFF 		bl	Get_SensironValue
 193              	.LVL26:
 194 003c FFF7FEFF 		bl	__aeabi_ui2f
 195              	.LVL27:
 196 0040 0546     		mov	r5, r0
 197              	.LVL28:
  64:.\sensirion_temprh.c **** 	if(TEMP == 999)
 198              		.loc 1 64 0
 199 0042 1849     		ldr	r1, .L15+28
 200 0044 FFF7FEFF 		bl	__aeabi_fcmpeq
 201              	.LVL29:
 202 0048 08B1     		cbz	r0, .L11
  65:.\sensirion_temprh.c **** 		returnValue.valid = 1;
 203              		.loc 1 65 0
 204 004a 0123     		movs	r3, #1
 205 004c 2372     		strb	r3, [r4, #8]
 206              	.L11:
  66:.\sensirion_temprh.c ****     returnValue.temp = -46.85 + 175.72*(TEMP/65532);
 207              		.loc 1 66 0
 208 004e 2846     		mov	r0, r5
 209 0050 1149     		ldr	r1, .L15+16
 210 0052 FFF7FEFF 		bl	__aeabi_fdiv
 211              	.LVL30:
 212 0056 FFF7FEFF 		bl	__aeabi_f2d
 213              	.LVL31:
 214 005a 0BA3     		adr	r3, .L15
 215 005c D3E90023 		ldrd	r2, [r3]
ARM GAS  C:\Users\cps\AppData\Local\Temp\ccA0aEMk.s 			page 6


 216 0060 FFF7FEFF 		bl	__aeabi_dmul
 217              	.LVL32:
 218 0064 0AA3     		adr	r3, .L15+8
 219 0066 D3E90023 		ldrd	r2, [r3]
 220 006a FFF7FEFF 		bl	__aeabi_dsub
 221              	.LVL33:
 222 006e FFF7FEFF 		bl	__aeabi_d2f
 223              	.LVL34:
 224 0072 6060     		str	r0, [r4, #4]	@ float
  67:.\sensirion_temprh.c ****     
  68:.\sensirion_temprh.c ****     //turn sensor off
  69:.\sensirion_temprh.c **** 	Sensirion_I2C_Stop();
 225              		.loc 1 69 0
 226 0074 FFF7FEFF 		bl	Sensirion_I2C_Stop
 227              	.LVL35:
  70:.\sensirion_temprh.c ****     Sensirion_Power_Write(0u);
 228              		.loc 1 70 0
 229 0078 0020     		movs	r0, #0
 230 007a FFF7FEFF 		bl	Sensirion_Power_Write
 231              	.LVL36:
  71:.\sensirion_temprh.c ****     return returnValue;
  72:.\sensirion_temprh.c **** 
  73:.\sensirion_temprh.c **** 
  74:.\sensirion_temprh.c **** }
 232              		.loc 1 74 0
 233 007e 2046     		mov	r0, r4
 234 0080 38BD     		pop	{r3, r4, r5, pc}
 235              	.LVL37:
 236              	.L16:
 237 0082 00BFAFF3 		.align	3
 237      0080
 238              	.L15:
 239 0088 D7A3703D 		.word	1030792151
 240 008c 0AF76540 		.word	1080424202
 241 0090 CDCCCCCC 		.word	-858993459
 242 0094 CC6C4740 		.word	1078422732
 243 0098 00FC7F47 		.word	1199569920
 244 009c 0000FA42 		.word	1123680256
 245 00a0 0000C040 		.word	1086324736
 246 00a4 00C07944 		.word	1148829696
 247              		.cfi_endproc
 248              	.LFE64:
 249              		.size	Take_TempRH_Reading, .-Take_TempRH_Reading
 250              		.text
 251              	.Letext0:
 252              		.file 2 "c:\\program files (x86)\\cypress\\psoc creator\\3.3\\psoc creator\\import\\gnu\\arm\\4.9.
 253              		.file 3 "c:\\program files (x86)\\cypress\\psoc creator\\3.3\\psoc creator\\import\\gnu\\arm\\4.9.
 254              		.file 4 "Generated_Source\\PSoC5/cytypes.h"
 255              		.file 5 ".\\sensirion_temprh.h"
 256              		.file 6 "Generated_Source\\PSoC5/Sensirion_I2C.h"
 257              		.file 7 "Generated_Source\\PSoC5/CyLib.h"
 258              		.file 8 "Generated_Source\\PSoC5/Sensirion_Power.h"
 259              		.file 9 "Generated_Source\\PSoC5/core_cm3.h"