ARM GAS  C:\Users\karunmj\AppData\Local\Temp\ccYTct49.s 			page 1


   1              		.syntax unified
   2              		.cpu cortex-m3
   3              		.fpu softvfp
   4              		.eabi_attribute 20, 1
   5              		.eabi_attribute 21, 1
   6              		.eabi_attribute 23, 3
   7              		.eabi_attribute 24, 1
   8              		.eabi_attribute 25, 1
   9              		.eabi_attribute 26, 1
  10              		.eabi_attribute 30, 6
  11              		.eabi_attribute 18, 4
  12              		.thumb
  13              		.file	"core_cm3.c"
  20 0000 96020000 		.text
  20      0200E000 
  20      00000201 
  20      FB0E0D00 
  20      01010101 
  21              	.Ltext0:
  22              		.cfi_sections	.debug_frame
  23              		.section	.text.__get_PSP,"ax",%progbits
  24              		.align	2
  25              		.global	__get_PSP
  26              		.thumb
  27              		.thumb_func
  28              		.type	__get_PSP, %function
  29              	__get_PSP:
  30              	.LFB0:
  31              		.file 1 ".\\Generated_Source\\PSoC5\\core_cm3.c"
   1:.\Generated_Source\PSoC5/core_cm3.c **** /**************************************************************************//**
   2:.\Generated_Source\PSoC5/core_cm3.c ****  * @file     core_cm3.c
   3:.\Generated_Source\PSoC5/core_cm3.c ****  * @brief    CMSIS Cortex-M3 Core Peripheral Access Layer Source File
   4:.\Generated_Source\PSoC5/core_cm3.c ****  * @version  V1.30
   5:.\Generated_Source\PSoC5/core_cm3.c ****  * @date     30. October 2009
   6:.\Generated_Source\PSoC5/core_cm3.c ****  *
   7:.\Generated_Source\PSoC5/core_cm3.c ****  * @note
   8:.\Generated_Source\PSoC5/core_cm3.c ****  * Copyright (C) 2009 ARM Limited. All rights reserved.
   9:.\Generated_Source\PSoC5/core_cm3.c ****  *
  10:.\Generated_Source\PSoC5/core_cm3.c ****  * @par
  11:.\Generated_Source\PSoC5/core_cm3.c ****  * ARM Limited (ARM) is supplying this software for use with Cortex-M 
  12:.\Generated_Source\PSoC5/core_cm3.c ****  * processor based microcontrollers.  This file can be freely distributed 
  13:.\Generated_Source\PSoC5/core_cm3.c ****  * within development tools that are supporting such ARM based processors. 
  14:.\Generated_Source\PSoC5/core_cm3.c ****  *
  15:.\Generated_Source\PSoC5/core_cm3.c ****  * @par
  16:.\Generated_Source\PSoC5/core_cm3.c ****  * THIS SOFTWARE IS PROVIDED "AS IS".  NO WARRANTIES, WHETHER EXPRESS, IMPLIED
  17:.\Generated_Source\PSoC5/core_cm3.c ****  * OR STATUTORY, INCLUDING, BUT NOT LIMITED TO, IMPLIED WARRANTIES OF
  18:.\Generated_Source\PSoC5/core_cm3.c ****  * MERCHANTABILITY AND FITNESS FOR A PARTICULAR PURPOSE APPLY TO THIS SOFTWARE.
  19:.\Generated_Source\PSoC5/core_cm3.c ****  * ARM SHALL NOT, IN ANY CIRCUMSTANCES, BE LIABLE FOR SPECIAL, INCIDENTAL, OR
  20:.\Generated_Source\PSoC5/core_cm3.c ****  * CONSEQUENTIAL DAMAGES, FOR ANY REASON WHATSOEVER.
  21:.\Generated_Source\PSoC5/core_cm3.c ****  *
  22:.\Generated_Source\PSoC5/core_cm3.c ****  ******************************************************************************/
ARM GAS  C:\Users\karunmj\AppData\Local\Temp\ccYTct49.s 			page 2


  23:.\Generated_Source\PSoC5/core_cm3.c **** 
  24:.\Generated_Source\PSoC5/core_cm3.c **** #include <stdint.h>
  25:.\Generated_Source\PSoC5/core_cm3.c **** 
  26:.\Generated_Source\PSoC5/core_cm3.c **** /* define compiler specific symbols */
  27:.\Generated_Source\PSoC5/core_cm3.c **** #if defined ( __CC_ARM   )
  28:.\Generated_Source\PSoC5/core_cm3.c ****   #define __ASM            __asm                                      /*!< asm keyword for ARM Comp
  29:.\Generated_Source\PSoC5/core_cm3.c ****   #define __INLINE         __inline                                   /*!< inline keyword for ARM C
  30:.\Generated_Source\PSoC5/core_cm3.c **** 
  31:.\Generated_Source\PSoC5/core_cm3.c **** #elif defined ( __ICCARM__ )
  32:.\Generated_Source\PSoC5/core_cm3.c ****   #define __ASM           __asm                                       /*!< asm keyword for IAR Comp
  33:.\Generated_Source\PSoC5/core_cm3.c ****   #define __INLINE        inline                                      /*!< inline keyword for IAR C
  34:.\Generated_Source\PSoC5/core_cm3.c **** 
  35:.\Generated_Source\PSoC5/core_cm3.c **** #elif defined   (  __GNUC__  )
  36:.\Generated_Source\PSoC5/core_cm3.c ****   #define __ASM            __asm                                      /*!< asm keyword for GNU Comp
  37:.\Generated_Source\PSoC5/core_cm3.c ****   #define __INLINE         inline                                     /*!< inline keyword for GNU C
  38:.\Generated_Source\PSoC5/core_cm3.c **** 
  39:.\Generated_Source\PSoC5/core_cm3.c **** #elif defined   (  __TASKING__  )
  40:.\Generated_Source\PSoC5/core_cm3.c ****   #define __ASM            __asm                                      /*!< asm keyword for TASKING 
  41:.\Generated_Source\PSoC5/core_cm3.c ****   #define __INLINE         inline                                     /*!< inline keyword for TASKI
  42:.\Generated_Source\PSoC5/core_cm3.c **** 
  43:.\Generated_Source\PSoC5/core_cm3.c **** #endif
  44:.\Generated_Source\PSoC5/core_cm3.c **** 
  45:.\Generated_Source\PSoC5/core_cm3.c **** 
  46:.\Generated_Source\PSoC5/core_cm3.c **** /* ###################  Compiler specific Intrinsics  ########################### */
  47:.\Generated_Source\PSoC5/core_cm3.c **** 
  48:.\Generated_Source\PSoC5/core_cm3.c **** #if defined ( __CC_ARM   ) /*------------------RealView Compiler -----------------*/
  49:.\Generated_Source\PSoC5/core_cm3.c **** /* ARM armcc specific functions */
  50:.\Generated_Source\PSoC5/core_cm3.c **** 
  51:.\Generated_Source\PSoC5/core_cm3.c **** /**
  52:.\Generated_Source\PSoC5/core_cm3.c ****  * @brief  Return the Process Stack Pointer
  53:.\Generated_Source\PSoC5/core_cm3.c ****  *
  54:.\Generated_Source\PSoC5/core_cm3.c ****  * @return ProcessStackPointer
  55:.\Generated_Source\PSoC5/core_cm3.c ****  *
  56:.\Generated_Source\PSoC5/core_cm3.c ****  * Return the actual process stack pointer
  57:.\Generated_Source\PSoC5/core_cm3.c ****  */
  58:.\Generated_Source\PSoC5/core_cm3.c **** __ASM uint32_t __get_PSP(void)
  59:.\Generated_Source\PSoC5/core_cm3.c **** {
  60:.\Generated_Source\PSoC5/core_cm3.c ****   mrs r0, psp
  61:.\Generated_Source\PSoC5/core_cm3.c ****   bx lr
  62:.\Generated_Source\PSoC5/core_cm3.c **** }
  63:.\Generated_Source\PSoC5/core_cm3.c **** 
  64:.\Generated_Source\PSoC5/core_cm3.c **** /**
  65:.\Generated_Source\PSoC5/core_cm3.c ****  * @brief  Set the Process Stack Pointer
  66:.\Generated_Source\PSoC5/core_cm3.c ****  *
  67:.\Generated_Source\PSoC5/core_cm3.c ****  * @param  topOfProcStack  Process Stack Pointer
  68:.\Generated_Source\PSoC5/core_cm3.c ****  *
  69:.\Generated_Source\PSoC5/core_cm3.c ****  * Assign the value ProcessStackPointer to the MSP 
  70:.\Generated_Source\PSoC5/core_cm3.c ****  * (process stack pointer) Cortex processor register
  71:.\Generated_Source\PSoC5/core_cm3.c ****  */
  72:.\Generated_Source\PSoC5/core_cm3.c **** __ASM void __set_PSP(uint32_t topOfProcStack)
  73:.\Generated_Source\PSoC5/core_cm3.c **** {
  74:.\Generated_Source\PSoC5/core_cm3.c ****   msr psp, r0
  75:.\Generated_Source\PSoC5/core_cm3.c ****   bx lr
  76:.\Generated_Source\PSoC5/core_cm3.c **** }
  77:.\Generated_Source\PSoC5/core_cm3.c **** 
  78:.\Generated_Source\PSoC5/core_cm3.c **** /**
  79:.\Generated_Source\PSoC5/core_cm3.c ****  * @brief  Return the Main Stack Pointer
ARM GAS  C:\Users\karunmj\AppData\Local\Temp\ccYTct49.s 			page 3


  80:.\Generated_Source\PSoC5/core_cm3.c ****  *
  81:.\Generated_Source\PSoC5/core_cm3.c ****  * @return Main Stack Pointer
  82:.\Generated_Source\PSoC5/core_cm3.c ****  *
  83:.\Generated_Source\PSoC5/core_cm3.c ****  * Return the current value of the MSP (main stack pointer)
  84:.\Generated_Source\PSoC5/core_cm3.c ****  * Cortex processor register
  85:.\Generated_Source\PSoC5/core_cm3.c ****  */
  86:.\Generated_Source\PSoC5/core_cm3.c **** __ASM uint32_t __get_MSP(void)
  87:.\Generated_Source\PSoC5/core_cm3.c **** {
  88:.\Generated_Source\PSoC5/core_cm3.c ****   mrs r0, msp
  89:.\Generated_Source\PSoC5/core_cm3.c ****   bx lr
  90:.\Generated_Source\PSoC5/core_cm3.c **** }
  91:.\Generated_Source\PSoC5/core_cm3.c **** 
  92:.\Generated_Source\PSoC5/core_cm3.c **** /**
  93:.\Generated_Source\PSoC5/core_cm3.c ****  * @brief  Set the Main Stack Pointer
  94:.\Generated_Source\PSoC5/core_cm3.c ****  *
  95:.\Generated_Source\PSoC5/core_cm3.c ****  * @param  topOfMainStack  Main Stack Pointer
  96:.\Generated_Source\PSoC5/core_cm3.c ****  *
  97:.\Generated_Source\PSoC5/core_cm3.c ****  * Assign the value mainStackPointer to the MSP 
  98:.\Generated_Source\PSoC5/core_cm3.c ****  * (main stack pointer) Cortex processor register
  99:.\Generated_Source\PSoC5/core_cm3.c ****  */
 100:.\Generated_Source\PSoC5/core_cm3.c **** __ASM void __set_MSP(uint32_t mainStackPointer)
 101:.\Generated_Source\PSoC5/core_cm3.c **** {
 102:.\Generated_Source\PSoC5/core_cm3.c ****   msr msp, r0
 103:.\Generated_Source\PSoC5/core_cm3.c ****   bx lr
 104:.\Generated_Source\PSoC5/core_cm3.c **** }
 105:.\Generated_Source\PSoC5/core_cm3.c **** 
 106:.\Generated_Source\PSoC5/core_cm3.c **** /**
 107:.\Generated_Source\PSoC5/core_cm3.c ****  * @brief  Reverse byte order in unsigned short value
 108:.\Generated_Source\PSoC5/core_cm3.c ****  *
 109:.\Generated_Source\PSoC5/core_cm3.c ****  * @param   value  value to reverse
 110:.\Generated_Source\PSoC5/core_cm3.c ****  * @return         reversed value
 111:.\Generated_Source\PSoC5/core_cm3.c ****  *
 112:.\Generated_Source\PSoC5/core_cm3.c ****  * Reverse byte order in unsigned short value
 113:.\Generated_Source\PSoC5/core_cm3.c ****  */
 114:.\Generated_Source\PSoC5/core_cm3.c **** __ASM uint32_t __REV16(uint16_t value)
 115:.\Generated_Source\PSoC5/core_cm3.c **** {
 116:.\Generated_Source\PSoC5/core_cm3.c ****   rev16 r0, r0
 117:.\Generated_Source\PSoC5/core_cm3.c ****   bx lr
 118:.\Generated_Source\PSoC5/core_cm3.c **** }
 119:.\Generated_Source\PSoC5/core_cm3.c **** 
 120:.\Generated_Source\PSoC5/core_cm3.c **** /**
 121:.\Generated_Source\PSoC5/core_cm3.c ****  * @brief  Reverse byte order in signed short value with sign extension to integer
 122:.\Generated_Source\PSoC5/core_cm3.c ****  *
 123:.\Generated_Source\PSoC5/core_cm3.c ****  * @param   value  value to reverse
 124:.\Generated_Source\PSoC5/core_cm3.c ****  * @return         reversed value
 125:.\Generated_Source\PSoC5/core_cm3.c ****  *
 126:.\Generated_Source\PSoC5/core_cm3.c ****  * Reverse byte order in signed short value with sign extension to integer
 127:.\Generated_Source\PSoC5/core_cm3.c ****  */
 128:.\Generated_Source\PSoC5/core_cm3.c **** __ASM int32_t __REVSH(int16_t value)
 129:.\Generated_Source\PSoC5/core_cm3.c **** {
 130:.\Generated_Source\PSoC5/core_cm3.c ****   revsh r0, r0
 131:.\Generated_Source\PSoC5/core_cm3.c ****   bx lr
 132:.\Generated_Source\PSoC5/core_cm3.c **** }
 133:.\Generated_Source\PSoC5/core_cm3.c **** 
 134:.\Generated_Source\PSoC5/core_cm3.c **** 
 135:.\Generated_Source\PSoC5/core_cm3.c **** #if (__ARMCC_VERSION < 400000)
 136:.\Generated_Source\PSoC5/core_cm3.c **** 
ARM GAS  C:\Users\karunmj\AppData\Local\Temp\ccYTct49.s 			page 4


 137:.\Generated_Source\PSoC5/core_cm3.c **** /**
 138:.\Generated_Source\PSoC5/core_cm3.c ****  * @brief  Remove the exclusive lock created by ldrex
 139:.\Generated_Source\PSoC5/core_cm3.c ****  *
 140:.\Generated_Source\PSoC5/core_cm3.c ****  * Removes the exclusive lock which is created by ldrex.
 141:.\Generated_Source\PSoC5/core_cm3.c ****  */
 142:.\Generated_Source\PSoC5/core_cm3.c **** __ASM void __CLREX(void)
 143:.\Generated_Source\PSoC5/core_cm3.c **** {
 144:.\Generated_Source\PSoC5/core_cm3.c ****   clrex
 145:.\Generated_Source\PSoC5/core_cm3.c **** }
 146:.\Generated_Source\PSoC5/core_cm3.c **** 
 147:.\Generated_Source\PSoC5/core_cm3.c **** /**
 148:.\Generated_Source\PSoC5/core_cm3.c ****  * @brief  Return the Base Priority value
 149:.\Generated_Source\PSoC5/core_cm3.c ****  *
 150:.\Generated_Source\PSoC5/core_cm3.c ****  * @return BasePriority
 151:.\Generated_Source\PSoC5/core_cm3.c ****  *
 152:.\Generated_Source\PSoC5/core_cm3.c ****  * Return the content of the base priority register
 153:.\Generated_Source\PSoC5/core_cm3.c ****  */
 154:.\Generated_Source\PSoC5/core_cm3.c **** __ASM uint32_t  __get_BASEPRI(void)
 155:.\Generated_Source\PSoC5/core_cm3.c **** {
 156:.\Generated_Source\PSoC5/core_cm3.c ****   mrs r0, basepri
 157:.\Generated_Source\PSoC5/core_cm3.c ****   bx lr
 158:.\Generated_Source\PSoC5/core_cm3.c **** }
 159:.\Generated_Source\PSoC5/core_cm3.c **** 
 160:.\Generated_Source\PSoC5/core_cm3.c **** /**
 161:.\Generated_Source\PSoC5/core_cm3.c ****  * @brief  Set the Base Priority value
 162:.\Generated_Source\PSoC5/core_cm3.c ****  *
 163:.\Generated_Source\PSoC5/core_cm3.c ****  * @param  basePri  BasePriority
 164:.\Generated_Source\PSoC5/core_cm3.c ****  *
 165:.\Generated_Source\PSoC5/core_cm3.c ****  * Set the base priority register
 166:.\Generated_Source\PSoC5/core_cm3.c ****  */
 167:.\Generated_Source\PSoC5/core_cm3.c **** __ASM void __set_BASEPRI(uint32_t basePri)
 168:.\Generated_Source\PSoC5/core_cm3.c **** {
 169:.\Generated_Source\PSoC5/core_cm3.c ****   msr basepri, r0
 170:.\Generated_Source\PSoC5/core_cm3.c ****   bx lr
 171:.\Generated_Source\PSoC5/core_cm3.c **** }
 172:.\Generated_Source\PSoC5/core_cm3.c **** 
 173:.\Generated_Source\PSoC5/core_cm3.c **** /**
 174:.\Generated_Source\PSoC5/core_cm3.c ****  * @brief  Return the Priority Mask value
 175:.\Generated_Source\PSoC5/core_cm3.c ****  *
 176:.\Generated_Source\PSoC5/core_cm3.c ****  * @return PriMask
 177:.\Generated_Source\PSoC5/core_cm3.c ****  *
 178:.\Generated_Source\PSoC5/core_cm3.c ****  * Return state of the priority mask bit from the priority mask register
 179:.\Generated_Source\PSoC5/core_cm3.c ****  */
 180:.\Generated_Source\PSoC5/core_cm3.c **** __ASM uint32_t __get_PRIMASK(void)
 181:.\Generated_Source\PSoC5/core_cm3.c **** {
 182:.\Generated_Source\PSoC5/core_cm3.c ****   mrs r0, primask
 183:.\Generated_Source\PSoC5/core_cm3.c ****   bx lr
 184:.\Generated_Source\PSoC5/core_cm3.c **** }
 185:.\Generated_Source\PSoC5/core_cm3.c **** 
 186:.\Generated_Source\PSoC5/core_cm3.c **** /**
 187:.\Generated_Source\PSoC5/core_cm3.c ****  * @brief  Set the Priority Mask value
 188:.\Generated_Source\PSoC5/core_cm3.c ****  *
 189:.\Generated_Source\PSoC5/core_cm3.c ****  * @param  priMask  PriMask
 190:.\Generated_Source\PSoC5/core_cm3.c ****  *
 191:.\Generated_Source\PSoC5/core_cm3.c ****  * Set the priority mask bit in the priority mask register
 192:.\Generated_Source\PSoC5/core_cm3.c ****  */
 193:.\Generated_Source\PSoC5/core_cm3.c **** __ASM void __set_PRIMASK(uint32_t priMask)
ARM GAS  C:\Users\karunmj\AppData\Local\Temp\ccYTct49.s 			page 5


 194:.\Generated_Source\PSoC5/core_cm3.c **** {
 195:.\Generated_Source\PSoC5/core_cm3.c ****   msr primask, r0
 196:.\Generated_Source\PSoC5/core_cm3.c ****   bx lr
 197:.\Generated_Source\PSoC5/core_cm3.c **** }
 198:.\Generated_Source\PSoC5/core_cm3.c **** 
 199:.\Generated_Source\PSoC5/core_cm3.c **** /**
 200:.\Generated_Source\PSoC5/core_cm3.c ****  * @brief  Return the Fault Mask value
 201:.\Generated_Source\PSoC5/core_cm3.c ****  *
 202:.\Generated_Source\PSoC5/core_cm3.c ****  * @return FaultMask
 203:.\Generated_Source\PSoC5/core_cm3.c ****  *
 204:.\Generated_Source\PSoC5/core_cm3.c ****  * Return the content of the fault mask register
 205:.\Generated_Source\PSoC5/core_cm3.c ****  */
 206:.\Generated_Source\PSoC5/core_cm3.c **** __ASM uint32_t  __get_FAULTMASK(void)
 207:.\Generated_Source\PSoC5/core_cm3.c **** {
 208:.\Generated_Source\PSoC5/core_cm3.c ****   mrs r0, faultmask
 209:.\Generated_Source\PSoC5/core_cm3.c ****   bx lr
 210:.\Generated_Source\PSoC5/core_cm3.c **** }
 211:.\Generated_Source\PSoC5/core_cm3.c **** 
 212:.\Generated_Source\PSoC5/core_cm3.c **** /**
 213:.\Generated_Source\PSoC5/core_cm3.c ****  * @brief  Set the Fault Mask value
 214:.\Generated_Source\PSoC5/core_cm3.c ****  *
 215:.\Generated_Source\PSoC5/core_cm3.c ****  * @param  faultMask  faultMask value
 216:.\Generated_Source\PSoC5/core_cm3.c ****  *
 217:.\Generated_Source\PSoC5/core_cm3.c ****  * Set the fault mask register
 218:.\Generated_Source\PSoC5/core_cm3.c ****  */
 219:.\Generated_Source\PSoC5/core_cm3.c **** __ASM void __set_FAULTMASK(uint32_t faultMask)
 220:.\Generated_Source\PSoC5/core_cm3.c **** {
 221:.\Generated_Source\PSoC5/core_cm3.c ****   msr faultmask, r0
 222:.\Generated_Source\PSoC5/core_cm3.c ****   bx lr
 223:.\Generated_Source\PSoC5/core_cm3.c **** }
 224:.\Generated_Source\PSoC5/core_cm3.c **** 
 225:.\Generated_Source\PSoC5/core_cm3.c **** /**
 226:.\Generated_Source\PSoC5/core_cm3.c ****  * @brief  Return the Control Register value
 227:.\Generated_Source\PSoC5/core_cm3.c ****  * 
 228:.\Generated_Source\PSoC5/core_cm3.c ****  * @return Control value
 229:.\Generated_Source\PSoC5/core_cm3.c ****  *
 230:.\Generated_Source\PSoC5/core_cm3.c ****  * Return the content of the control register
 231:.\Generated_Source\PSoC5/core_cm3.c ****  */
 232:.\Generated_Source\PSoC5/core_cm3.c **** __ASM uint32_t __get_CONTROL(void)
 233:.\Generated_Source\PSoC5/core_cm3.c **** {
 234:.\Generated_Source\PSoC5/core_cm3.c ****   mrs r0, control
 235:.\Generated_Source\PSoC5/core_cm3.c ****   bx lr
 236:.\Generated_Source\PSoC5/core_cm3.c **** }
 237:.\Generated_Source\PSoC5/core_cm3.c **** 
 238:.\Generated_Source\PSoC5/core_cm3.c **** /**
 239:.\Generated_Source\PSoC5/core_cm3.c ****  * @brief  Set the Control Register value
 240:.\Generated_Source\PSoC5/core_cm3.c ****  *
 241:.\Generated_Source\PSoC5/core_cm3.c ****  * @param  control  Control value
 242:.\Generated_Source\PSoC5/core_cm3.c ****  *
 243:.\Generated_Source\PSoC5/core_cm3.c ****  * Set the control register
 244:.\Generated_Source\PSoC5/core_cm3.c ****  */
 245:.\Generated_Source\PSoC5/core_cm3.c **** __ASM void __set_CONTROL(uint32_t control)
 246:.\Generated_Source\PSoC5/core_cm3.c **** {
 247:.\Generated_Source\PSoC5/core_cm3.c ****   msr control, r0
 248:.\Generated_Source\PSoC5/core_cm3.c ****   bx lr
 249:.\Generated_Source\PSoC5/core_cm3.c **** }
 250:.\Generated_Source\PSoC5/core_cm3.c **** 
ARM GAS  C:\Users\karunmj\AppData\Local\Temp\ccYTct49.s 			page 6


 251:.\Generated_Source\PSoC5/core_cm3.c **** #endif /* __ARMCC_VERSION  */ 
 252:.\Generated_Source\PSoC5/core_cm3.c **** 
 253:.\Generated_Source\PSoC5/core_cm3.c **** 
 254:.\Generated_Source\PSoC5/core_cm3.c **** 
 255:.\Generated_Source\PSoC5/core_cm3.c **** #elif (defined (__ICCARM__)) /*------------------ ICC Compiler -------------------*/
 256:.\Generated_Source\PSoC5/core_cm3.c **** /* IAR iccarm specific functions */
 257:.\Generated_Source\PSoC5/core_cm3.c **** #pragma diag_suppress=Pe940
 258:.\Generated_Source\PSoC5/core_cm3.c **** 
 259:.\Generated_Source\PSoC5/core_cm3.c **** /**
 260:.\Generated_Source\PSoC5/core_cm3.c ****  * @brief  Return the Process Stack Pointer
 261:.\Generated_Source\PSoC5/core_cm3.c ****  *
 262:.\Generated_Source\PSoC5/core_cm3.c ****  * @return ProcessStackPointer
 263:.\Generated_Source\PSoC5/core_cm3.c ****  *
 264:.\Generated_Source\PSoC5/core_cm3.c ****  * Return the actual process stack pointer
 265:.\Generated_Source\PSoC5/core_cm3.c ****  */
 266:.\Generated_Source\PSoC5/core_cm3.c **** uint32_t __get_PSP(void)
 267:.\Generated_Source\PSoC5/core_cm3.c **** {
 268:.\Generated_Source\PSoC5/core_cm3.c ****   __ASM("mrs r0, psp");
 269:.\Generated_Source\PSoC5/core_cm3.c ****   __ASM("bx lr");
 270:.\Generated_Source\PSoC5/core_cm3.c **** }
 271:.\Generated_Source\PSoC5/core_cm3.c **** 
 272:.\Generated_Source\PSoC5/core_cm3.c **** /**
 273:.\Generated_Source\PSoC5/core_cm3.c ****  * @brief  Set the Process Stack Pointer
 274:.\Generated_Source\PSoC5/core_cm3.c ****  *
 275:.\Generated_Source\PSoC5/core_cm3.c ****  * @param  topOfProcStack  Process Stack Pointer
 276:.\Generated_Source\PSoC5/core_cm3.c ****  *
 277:.\Generated_Source\PSoC5/core_cm3.c ****  * Assign the value ProcessStackPointer to the MSP 
 278:.\Generated_Source\PSoC5/core_cm3.c ****  * (process stack pointer) Cortex processor register
 279:.\Generated_Source\PSoC5/core_cm3.c ****  */
 280:.\Generated_Source\PSoC5/core_cm3.c **** void __set_PSP(uint32_t topOfProcStack)
 281:.\Generated_Source\PSoC5/core_cm3.c **** {
 282:.\Generated_Source\PSoC5/core_cm3.c ****   __ASM("msr psp, r0");
 283:.\Generated_Source\PSoC5/core_cm3.c ****   __ASM("bx lr");
 284:.\Generated_Source\PSoC5/core_cm3.c **** }
 285:.\Generated_Source\PSoC5/core_cm3.c **** 
 286:.\Generated_Source\PSoC5/core_cm3.c **** /**
 287:.\Generated_Source\PSoC5/core_cm3.c ****  * @brief  Return the Main Stack Pointer
 288:.\Generated_Source\PSoC5/core_cm3.c ****  *
 289:.\Generated_Source\PSoC5/core_cm3.c ****  * @return Main Stack Pointer
 290:.\Generated_Source\PSoC5/core_cm3.c ****  *
 291:.\Generated_Source\PSoC5/core_cm3.c ****  * Return the current value of the MSP (main stack pointer)
 292:.\Generated_Source\PSoC5/core_cm3.c ****  * Cortex processor register
 293:.\Generated_Source\PSoC5/core_cm3.c ****  */
 294:.\Generated_Source\PSoC5/core_cm3.c **** uint32_t __get_MSP(void)
 295:.\Generated_Source\PSoC5/core_cm3.c **** {
 296:.\Generated_Source\PSoC5/core_cm3.c ****   __ASM("mrs r0, msp");
 297:.\Generated_Source\PSoC5/core_cm3.c ****   __ASM("bx lr");
 298:.\Generated_Source\PSoC5/core_cm3.c **** }
 299:.\Generated_Source\PSoC5/core_cm3.c **** 
 300:.\Generated_Source\PSoC5/core_cm3.c **** /**
 301:.\Generated_Source\PSoC5/core_cm3.c ****  * @brief  Set the Main Stack Pointer
 302:.\Generated_Source\PSoC5/core_cm3.c ****  *
 303:.\Generated_Source\PSoC5/core_cm3.c ****  * @param  topOfMainStack  Main Stack Pointer
 304:.\Generated_Source\PSoC5/core_cm3.c ****  *
 305:.\Generated_Source\PSoC5/core_cm3.c ****  * Assign the value mainStackPointer to the MSP 
 306:.\Generated_Source\PSoC5/core_cm3.c ****  * (main stack pointer) Cortex processor register
 307:.\Generated_Source\PSoC5/core_cm3.c ****  */
ARM GAS  C:\Users\karunmj\AppData\Local\Temp\ccYTct49.s 			page 7


 308:.\Generated_Source\PSoC5/core_cm3.c **** void __set_MSP(uint32_t topOfMainStack)
 309:.\Generated_Source\PSoC5/core_cm3.c **** {
 310:.\Generated_Source\PSoC5/core_cm3.c ****   __ASM("msr msp, r0");
 311:.\Generated_Source\PSoC5/core_cm3.c ****   __ASM("bx lr");
 312:.\Generated_Source\PSoC5/core_cm3.c **** }
 313:.\Generated_Source\PSoC5/core_cm3.c **** 
 314:.\Generated_Source\PSoC5/core_cm3.c **** /**
 315:.\Generated_Source\PSoC5/core_cm3.c ****  * @brief  Reverse byte order in unsigned short value
 316:.\Generated_Source\PSoC5/core_cm3.c ****  *
 317:.\Generated_Source\PSoC5/core_cm3.c ****  * @param  value  value to reverse
 318:.\Generated_Source\PSoC5/core_cm3.c ****  * @return        reversed value
 319:.\Generated_Source\PSoC5/core_cm3.c ****  *
 320:.\Generated_Source\PSoC5/core_cm3.c ****  * Reverse byte order in unsigned short value
 321:.\Generated_Source\PSoC5/core_cm3.c ****  */
 322:.\Generated_Source\PSoC5/core_cm3.c **** uint32_t __REV16(uint16_t value)
 323:.\Generated_Source\PSoC5/core_cm3.c **** {
 324:.\Generated_Source\PSoC5/core_cm3.c ****   __ASM("rev16 r0, r0");
 325:.\Generated_Source\PSoC5/core_cm3.c ****   __ASM("bx lr");
 326:.\Generated_Source\PSoC5/core_cm3.c **** }
 327:.\Generated_Source\PSoC5/core_cm3.c **** 
 328:.\Generated_Source\PSoC5/core_cm3.c **** /**
 329:.\Generated_Source\PSoC5/core_cm3.c ****  * @brief  Reverse bit order of value
 330:.\Generated_Source\PSoC5/core_cm3.c ****  *
 331:.\Generated_Source\PSoC5/core_cm3.c ****  * @param  value  value to reverse
 332:.\Generated_Source\PSoC5/core_cm3.c ****  * @return        reversed value
 333:.\Generated_Source\PSoC5/core_cm3.c ****  *
 334:.\Generated_Source\PSoC5/core_cm3.c ****  * Reverse bit order of value
 335:.\Generated_Source\PSoC5/core_cm3.c ****  */
 336:.\Generated_Source\PSoC5/core_cm3.c **** uint32_t __RBIT(uint32_t value)
 337:.\Generated_Source\PSoC5/core_cm3.c **** {
 338:.\Generated_Source\PSoC5/core_cm3.c ****   __ASM("rbit r0, r0");
 339:.\Generated_Source\PSoC5/core_cm3.c ****   __ASM("bx lr");
 340:.\Generated_Source\PSoC5/core_cm3.c **** }
 341:.\Generated_Source\PSoC5/core_cm3.c **** 
 342:.\Generated_Source\PSoC5/core_cm3.c **** /**
 343:.\Generated_Source\PSoC5/core_cm3.c ****  * @brief  LDR Exclusive (8 bit)
 344:.\Generated_Source\PSoC5/core_cm3.c ****  *
 345:.\Generated_Source\PSoC5/core_cm3.c ****  * @param  *addr  address pointer
 346:.\Generated_Source\PSoC5/core_cm3.c ****  * @return        value of (*address)
 347:.\Generated_Source\PSoC5/core_cm3.c ****  *
 348:.\Generated_Source\PSoC5/core_cm3.c ****  * Exclusive LDR command for 8 bit values)
 349:.\Generated_Source\PSoC5/core_cm3.c ****  */
 350:.\Generated_Source\PSoC5/core_cm3.c **** uint8_t __LDREXB(uint8_t *addr)
 351:.\Generated_Source\PSoC5/core_cm3.c **** {
 352:.\Generated_Source\PSoC5/core_cm3.c ****   __ASM("ldrexb r0, [r0]");
 353:.\Generated_Source\PSoC5/core_cm3.c ****   __ASM("bx lr"); 
 354:.\Generated_Source\PSoC5/core_cm3.c **** }
 355:.\Generated_Source\PSoC5/core_cm3.c **** 
 356:.\Generated_Source\PSoC5/core_cm3.c **** /**
 357:.\Generated_Source\PSoC5/core_cm3.c ****  * @brief  LDR Exclusive (16 bit)
 358:.\Generated_Source\PSoC5/core_cm3.c ****  *
 359:.\Generated_Source\PSoC5/core_cm3.c ****  * @param  *addr  address pointer
 360:.\Generated_Source\PSoC5/core_cm3.c ****  * @return        value of (*address)
 361:.\Generated_Source\PSoC5/core_cm3.c ****  *
 362:.\Generated_Source\PSoC5/core_cm3.c ****  * Exclusive LDR command for 16 bit values
 363:.\Generated_Source\PSoC5/core_cm3.c ****  */
 364:.\Generated_Source\PSoC5/core_cm3.c **** uint16_t __LDREXH(uint16_t *addr)
ARM GAS  C:\Users\karunmj\AppData\Local\Temp\ccYTct49.s 			page 8


 365:.\Generated_Source\PSoC5/core_cm3.c **** {
 366:.\Generated_Source\PSoC5/core_cm3.c ****   __ASM("ldrexh r0, [r0]");
 367:.\Generated_Source\PSoC5/core_cm3.c ****   __ASM("bx lr");
 368:.\Generated_Source\PSoC5/core_cm3.c **** }
 369:.\Generated_Source\PSoC5/core_cm3.c **** 
 370:.\Generated_Source\PSoC5/core_cm3.c **** /**
 371:.\Generated_Source\PSoC5/core_cm3.c ****  * @brief  LDR Exclusive (32 bit)
 372:.\Generated_Source\PSoC5/core_cm3.c ****  *
 373:.\Generated_Source\PSoC5/core_cm3.c ****  * @param  *addr  address pointer
 374:.\Generated_Source\PSoC5/core_cm3.c ****  * @return        value of (*address)
 375:.\Generated_Source\PSoC5/core_cm3.c ****  *
 376:.\Generated_Source\PSoC5/core_cm3.c ****  * Exclusive LDR command for 32 bit values
 377:.\Generated_Source\PSoC5/core_cm3.c ****  */
 378:.\Generated_Source\PSoC5/core_cm3.c **** uint32_t __LDREXW(uint32_t *addr)
 379:.\Generated_Source\PSoC5/core_cm3.c **** {
 380:.\Generated_Source\PSoC5/core_cm3.c ****   __ASM("ldrex r0, [r0]");
 381:.\Generated_Source\PSoC5/core_cm3.c ****   __ASM("bx lr");
 382:.\Generated_Source\PSoC5/core_cm3.c **** }
 383:.\Generated_Source\PSoC5/core_cm3.c **** 
 384:.\Generated_Source\PSoC5/core_cm3.c **** /**
 385:.\Generated_Source\PSoC5/core_cm3.c ****  * @brief  STR Exclusive (8 bit)
 386:.\Generated_Source\PSoC5/core_cm3.c ****  *
 387:.\Generated_Source\PSoC5/core_cm3.c ****  * @param  value  value to store
 388:.\Generated_Source\PSoC5/core_cm3.c ****  * @param  *addr  address pointer
 389:.\Generated_Source\PSoC5/core_cm3.c ****  * @return        successful / failed
 390:.\Generated_Source\PSoC5/core_cm3.c ****  *
 391:.\Generated_Source\PSoC5/core_cm3.c ****  * Exclusive STR command for 8 bit values
 392:.\Generated_Source\PSoC5/core_cm3.c ****  */
 393:.\Generated_Source\PSoC5/core_cm3.c **** uint32_t __STREXB(uint8_t value, uint8_t *addr)
 394:.\Generated_Source\PSoC5/core_cm3.c **** {
 395:.\Generated_Source\PSoC5/core_cm3.c ****   __ASM("strexb r0, r0, [r1]");
 396:.\Generated_Source\PSoC5/core_cm3.c ****   __ASM("bx lr");
 397:.\Generated_Source\PSoC5/core_cm3.c **** }
 398:.\Generated_Source\PSoC5/core_cm3.c **** 
 399:.\Generated_Source\PSoC5/core_cm3.c **** /**
 400:.\Generated_Source\PSoC5/core_cm3.c ****  * @brief  STR Exclusive (16 bit)
 401:.\Generated_Source\PSoC5/core_cm3.c ****  *
 402:.\Generated_Source\PSoC5/core_cm3.c ****  * @param  value  value to store
 403:.\Generated_Source\PSoC5/core_cm3.c ****  * @param  *addr  address pointer
 404:.\Generated_Source\PSoC5/core_cm3.c ****  * @return        successful / failed
 405:.\Generated_Source\PSoC5/core_cm3.c ****  *
 406:.\Generated_Source\PSoC5/core_cm3.c ****  * Exclusive STR command for 16 bit values
 407:.\Generated_Source\PSoC5/core_cm3.c ****  */
 408:.\Generated_Source\PSoC5/core_cm3.c **** uint32_t __STREXH(uint16_t value, uint16_t *addr)
 409:.\Generated_Source\PSoC5/core_cm3.c **** {
 410:.\Generated_Source\PSoC5/core_cm3.c ****   __ASM("strexh r0, r0, [r1]");
 411:.\Generated_Source\PSoC5/core_cm3.c ****   __ASM("bx lr");
 412:.\Generated_Source\PSoC5/core_cm3.c **** }
 413:.\Generated_Source\PSoC5/core_cm3.c **** 
 414:.\Generated_Source\PSoC5/core_cm3.c **** /**
 415:.\Generated_Source\PSoC5/core_cm3.c ****  * @brief  STR Exclusive (32 bit)
 416:.\Generated_Source\PSoC5/core_cm3.c ****  *
 417:.\Generated_Source\PSoC5/core_cm3.c ****  * @param  value  value to store
 418:.\Generated_Source\PSoC5/core_cm3.c ****  * @param  *addr  address pointer
 419:.\Generated_Source\PSoC5/core_cm3.c ****  * @return        successful / failed
 420:.\Generated_Source\PSoC5/core_cm3.c ****  *
 421:.\Generated_Source\PSoC5/core_cm3.c ****  * Exclusive STR command for 32 bit values
ARM GAS  C:\Users\karunmj\AppData\Local\Temp\ccYTct49.s 			page 9


 422:.\Generated_Source\PSoC5/core_cm3.c ****  */
 423:.\Generated_Source\PSoC5/core_cm3.c **** uint32_t __STREXW(uint32_t value, uint32_t *addr)
 424:.\Generated_Source\PSoC5/core_cm3.c **** {
 425:.\Generated_Source\PSoC5/core_cm3.c ****   __ASM("strex r0, r0, [r1]");
 426:.\Generated_Source\PSoC5/core_cm3.c ****   __ASM("bx lr");
 427:.\Generated_Source\PSoC5/core_cm3.c **** }
 428:.\Generated_Source\PSoC5/core_cm3.c **** 
 429:.\Generated_Source\PSoC5/core_cm3.c **** #pragma diag_default=Pe940
 430:.\Generated_Source\PSoC5/core_cm3.c **** 
 431:.\Generated_Source\PSoC5/core_cm3.c **** 
 432:.\Generated_Source\PSoC5/core_cm3.c **** #elif (defined (__GNUC__)) /*------------------ GNU Compiler ---------------------*/
 433:.\Generated_Source\PSoC5/core_cm3.c **** /* GNU gcc specific functions */
 434:.\Generated_Source\PSoC5/core_cm3.c **** 
 435:.\Generated_Source\PSoC5/core_cm3.c **** /**
 436:.\Generated_Source\PSoC5/core_cm3.c ****  * @brief  Return the Process Stack Pointer
 437:.\Generated_Source\PSoC5/core_cm3.c ****  *
 438:.\Generated_Source\PSoC5/core_cm3.c ****  * @return ProcessStackPointer
 439:.\Generated_Source\PSoC5/core_cm3.c ****  *
 440:.\Generated_Source\PSoC5/core_cm3.c ****  * Return the actual process stack pointer
 441:.\Generated_Source\PSoC5/core_cm3.c ****  */
 442:.\Generated_Source\PSoC5/core_cm3.c **** uint32_t __get_PSP(void) __attribute__( ( naked ) );
 443:.\Generated_Source\PSoC5/core_cm3.c **** uint32_t __get_PSP(void)
 444:.\Generated_Source\PSoC5/core_cm3.c **** {
  32              		.loc 1 444 0
  33              		.cfi_startproc
  34              		@ Naked Function: prologue and epilogue provided by programmer.
  35              		@ args = 0, pretend = 0, frame = 0
  36              		@ frame_needed = 1, uses_anonymous_args = 0
 445:.\Generated_Source\PSoC5/core_cm3.c ****   uint32_t result=0;
  37              		.loc 1 445 0
  38 0000 4FF00004 		mov	r4, #0
 446:.\Generated_Source\PSoC5/core_cm3.c **** 
 447:.\Generated_Source\PSoC5/core_cm3.c ****   __ASM volatile ("MRS %0, psp\n\t" 
  39              		.loc 1 447 0
  40              	@ 447 ".\Generated_Source\PSoC5\core_cm3.c" 1
  41 0004 EFF30984 		MRS r4, psp
  42 0008 2046     		MOV r0, r4 
  43 000a 7047     		BX  lr     
  44              		
  45              	@ 0 "" 2
 448:.\Generated_Source\PSoC5/core_cm3.c ****                   "MOV r0, %0 \n\t"
 449:.\Generated_Source\PSoC5/core_cm3.c ****                   "BX  lr     \n\t"  : "=r" (result) );
 450:.\Generated_Source\PSoC5/core_cm3.c ****   return(result);
  46              		.loc 1 450 0
  47              		.thumb
  48 000c 2346     		mov	r3, r4
 451:.\Generated_Source\PSoC5/core_cm3.c **** }
  49              		.loc 1 451 0
  50 000e 1846     		mov	r0, r3
  51              		.cfi_endproc
  52              	.LFE0:
  53              		.size	__get_PSP, .-__get_PSP
  54              		.section	.text.__set_PSP,"ax",%progbits
  55              		.align	2
  56              		.global	__set_PSP
  57              		.thumb
  58              		.thumb_func
ARM GAS  C:\Users\karunmj\AppData\Local\Temp\ccYTct49.s 			page 10


  59              		.type	__set_PSP, %function
  60              	__set_PSP:
  61              	.LFB1:
 452:.\Generated_Source\PSoC5/core_cm3.c **** 
 453:.\Generated_Source\PSoC5/core_cm3.c **** /**
 454:.\Generated_Source\PSoC5/core_cm3.c ****  * @brief  Set the Process Stack Pointer
 455:.\Generated_Source\PSoC5/core_cm3.c ****  *
 456:.\Generated_Source\PSoC5/core_cm3.c ****  * @param  topOfProcStack  Process Stack Pointer
 457:.\Generated_Source\PSoC5/core_cm3.c ****  *
 458:.\Generated_Source\PSoC5/core_cm3.c ****  * Assign the value ProcessStackPointer to the MSP 
 459:.\Generated_Source\PSoC5/core_cm3.c ****  * (process stack pointer) Cortex processor register
 460:.\Generated_Source\PSoC5/core_cm3.c ****  */
 461:.\Generated_Source\PSoC5/core_cm3.c **** void __set_PSP(uint32_t topOfProcStack) __attribute__( ( naked ) );
 462:.\Generated_Source\PSoC5/core_cm3.c **** void __set_PSP(uint32_t topOfProcStack)
 463:.\Generated_Source\PSoC5/core_cm3.c **** {
  62              		.loc 1 463 0
  63              		.cfi_startproc
  64              		@ Naked Function: prologue and epilogue provided by programmer.
  65              		@ args = 0, pretend = 0, frame = 0
  66              		@ frame_needed = 1, uses_anonymous_args = 0
  67 0000 0346     		mov	r3, r0
 464:.\Generated_Source\PSoC5/core_cm3.c ****   __ASM volatile ("MSR psp, %0\n\t"
  68              		.loc 1 464 0
  69              	@ 464 ".\Generated_Source\PSoC5\core_cm3.c" 1
  70 0002 83F30988 		MSR psp, r3
  71 0006 7047     		BX  lr     
  72              		
  73              	@ 0 "" 2
 465:.\Generated_Source\PSoC5/core_cm3.c ****                   "BX  lr     \n\t" : : "r" (topOfProcStack) );
 466:.\Generated_Source\PSoC5/core_cm3.c **** }
  74              		.loc 1 466 0
  75              		.thumb
  76              		.cfi_endproc
  77              	.LFE1:
  78              		.size	__set_PSP, .-__set_PSP
  79              		.section	.text.__get_MSP,"ax",%progbits
  80              		.align	2
  81              		.global	__get_MSP
  82              		.thumb
  83              		.thumb_func
  84              		.type	__get_MSP, %function
  85              	__get_MSP:
  86              	.LFB2:
 467:.\Generated_Source\PSoC5/core_cm3.c **** 
 468:.\Generated_Source\PSoC5/core_cm3.c **** /**
 469:.\Generated_Source\PSoC5/core_cm3.c ****  * @brief  Return the Main Stack Pointer
 470:.\Generated_Source\PSoC5/core_cm3.c ****  *
 471:.\Generated_Source\PSoC5/core_cm3.c ****  * @return Main Stack Pointer
 472:.\Generated_Source\PSoC5/core_cm3.c ****  *
 473:.\Generated_Source\PSoC5/core_cm3.c ****  * Return the current value of the MSP (main stack pointer)
 474:.\Generated_Source\PSoC5/core_cm3.c ****  * Cortex processor register
 475:.\Generated_Source\PSoC5/core_cm3.c ****  */
 476:.\Generated_Source\PSoC5/core_cm3.c **** uint32_t __get_MSP(void) __attribute__( ( naked ) );
 477:.\Generated_Source\PSoC5/core_cm3.c **** uint32_t __get_MSP(void)
 478:.\Generated_Source\PSoC5/core_cm3.c **** {
  87              		.loc 1 478 0
  88              		.cfi_startproc
ARM GAS  C:\Users\karunmj\AppData\Local\Temp\ccYTct49.s 			page 11


  89              		@ Naked Function: prologue and epilogue provided by programmer.
  90              		@ args = 0, pretend = 0, frame = 0
  91              		@ frame_needed = 1, uses_anonymous_args = 0
 479:.\Generated_Source\PSoC5/core_cm3.c ****   uint32_t result=0;
  92              		.loc 1 479 0
  93 0000 4FF00004 		mov	r4, #0
 480:.\Generated_Source\PSoC5/core_cm3.c **** 
 481:.\Generated_Source\PSoC5/core_cm3.c ****   __ASM volatile ("MRS %0, msp\n\t" 
  94              		.loc 1 481 0
  95              	@ 481 ".\Generated_Source\PSoC5\core_cm3.c" 1
  96 0004 EFF30884 		MRS r4, msp
  97 0008 2046     		MOV r0, r4 
  98 000a 7047     		BX  lr     
  99              		
 100              	@ 0 "" 2
 482:.\Generated_Source\PSoC5/core_cm3.c ****                   "MOV r0, %0 \n\t"
 483:.\Generated_Source\PSoC5/core_cm3.c ****                   "BX  lr     \n\t"  : "=r" (result) );
 484:.\Generated_Source\PSoC5/core_cm3.c ****   return(result);
 101              		.loc 1 484 0
 102              		.thumb
 103 000c 2346     		mov	r3, r4
 485:.\Generated_Source\PSoC5/core_cm3.c **** }
 104              		.loc 1 485 0
 105 000e 1846     		mov	r0, r3
 106              		.cfi_endproc
 107              	.LFE2:
 108              		.size	__get_MSP, .-__get_MSP
 109              		.section	.text.__set_MSP,"ax",%progbits
 110              		.align	2
 111              		.global	__set_MSP
 112              		.thumb
 113              		.thumb_func
 114              		.type	__set_MSP, %function
 115              	__set_MSP:
 116              	.LFB3:
 486:.\Generated_Source\PSoC5/core_cm3.c **** 
 487:.\Generated_Source\PSoC5/core_cm3.c **** /**
 488:.\Generated_Source\PSoC5/core_cm3.c ****  * @brief  Set the Main Stack Pointer
 489:.\Generated_Source\PSoC5/core_cm3.c ****  *
 490:.\Generated_Source\PSoC5/core_cm3.c ****  * @param  topOfMainStack  Main Stack Pointer
 491:.\Generated_Source\PSoC5/core_cm3.c ****  *
 492:.\Generated_Source\PSoC5/core_cm3.c ****  * Assign the value mainStackPointer to the MSP 
 493:.\Generated_Source\PSoC5/core_cm3.c ****  * (main stack pointer) Cortex processor register
 494:.\Generated_Source\PSoC5/core_cm3.c ****  */
 495:.\Generated_Source\PSoC5/core_cm3.c **** void __set_MSP(uint32_t topOfMainStack) __attribute__( ( naked ) );
 496:.\Generated_Source\PSoC5/core_cm3.c **** void __set_MSP(uint32_t topOfMainStack)
 497:.\Generated_Source\PSoC5/core_cm3.c **** {
 117              		.loc 1 497 0
 118              		.cfi_startproc
 119              		@ Naked Function: prologue and epilogue provided by programmer.
 120              		@ args = 0, pretend = 0, frame = 0
 121              		@ frame_needed = 1, uses_anonymous_args = 0
 122 0000 0346     		mov	r3, r0
 498:.\Generated_Source\PSoC5/core_cm3.c ****   __ASM volatile ("MSR msp, %0\n\t"
 123              		.loc 1 498 0
 124              	@ 498 ".\Generated_Source\PSoC5\core_cm3.c" 1
 125 0002 83F30888 		MSR msp, r3
ARM GAS  C:\Users\karunmj\AppData\Local\Temp\ccYTct49.s 			page 12


 126 0006 7047     		BX  lr     
 127              		
 128              	@ 0 "" 2
 499:.\Generated_Source\PSoC5/core_cm3.c ****                   "BX  lr     \n\t" : : "r" (topOfMainStack) );
 500:.\Generated_Source\PSoC5/core_cm3.c **** }
 129              		.loc 1 500 0
 130              		.thumb
 131              		.cfi_endproc
 132              	.LFE3:
 133              		.size	__set_MSP, .-__set_MSP
 134              		.section	.text.__get_BASEPRI,"ax",%progbits
 135              		.align	2
 136              		.global	__get_BASEPRI
 137              		.thumb
 138              		.thumb_func
 139              		.type	__get_BASEPRI, %function
 140              	__get_BASEPRI:
 141              	.LFB4:
 501:.\Generated_Source\PSoC5/core_cm3.c **** 
 502:.\Generated_Source\PSoC5/core_cm3.c **** /**
 503:.\Generated_Source\PSoC5/core_cm3.c ****  * @brief  Return the Base Priority value
 504:.\Generated_Source\PSoC5/core_cm3.c ****  *
 505:.\Generated_Source\PSoC5/core_cm3.c ****  * @return BasePriority
 506:.\Generated_Source\PSoC5/core_cm3.c ****  *
 507:.\Generated_Source\PSoC5/core_cm3.c ****  * Return the content of the base priority register
 508:.\Generated_Source\PSoC5/core_cm3.c ****  */
 509:.\Generated_Source\PSoC5/core_cm3.c **** uint32_t __get_BASEPRI(void)
 510:.\Generated_Source\PSoC5/core_cm3.c **** {
 142              		.loc 1 510 0
 143              		.cfi_startproc
 144              		@ args = 0, pretend = 0, frame = 8
 145              		@ frame_needed = 1, uses_anonymous_args = 0
 146              		@ link register save eliminated.
 147 0000 80B4     		push	{r7}
 148              	.LCFI0:
 149              		.cfi_def_cfa_offset 4
 150 0002 83B0     		sub	sp, sp, #12
 151              	.LCFI1:
 152              		.cfi_def_cfa_offset 16
 153 0004 00AF     		add	r7, sp, #0
 154              		.cfi_offset 7, -4
 155              	.LCFI2:
 156              		.cfi_def_cfa_register 7
 511:.\Generated_Source\PSoC5/core_cm3.c ****   uint32_t result=0;
 157              		.loc 1 511 0
 158 0006 4FF00003 		mov	r3, #0
 159 000a 7B60     		str	r3, [r7, #4]
 512:.\Generated_Source\PSoC5/core_cm3.c ****   
 513:.\Generated_Source\PSoC5/core_cm3.c ****   __ASM volatile ("MRS %0, basepri_max" : "=r" (result) );
 160              		.loc 1 513 0
 161              	@ 513 ".\Generated_Source\PSoC5\core_cm3.c" 1
 162 000c EFF31283 		MRS r3, basepri_max
 163              	@ 0 "" 2
 164              		.thumb
 165 0010 7B60     		str	r3, [r7, #4]
 514:.\Generated_Source\PSoC5/core_cm3.c ****   return(result);
 166              		.loc 1 514 0
ARM GAS  C:\Users\karunmj\AppData\Local\Temp\ccYTct49.s 			page 13


 167 0012 7B68     		ldr	r3, [r7, #4]
 515:.\Generated_Source\PSoC5/core_cm3.c **** }
 168              		.loc 1 515 0
 169 0014 1846     		mov	r0, r3
 170 0016 07F10C07 		add	r7, r7, #12
 171 001a BD46     		mov	sp, r7
 172 001c 80BC     		pop	{r7}
 173 001e 7047     		bx	lr
 174              		.cfi_endproc
 175              	.LFE4:
 176              		.size	__get_BASEPRI, .-__get_BASEPRI
 177              		.section	.text.__set_BASEPRI,"ax",%progbits
 178              		.align	2
 179              		.global	__set_BASEPRI
 180              		.thumb
 181              		.thumb_func
 182              		.type	__set_BASEPRI, %function
 183              	__set_BASEPRI:
 184              	.LFB5:
 516:.\Generated_Source\PSoC5/core_cm3.c **** 
 517:.\Generated_Source\PSoC5/core_cm3.c **** /**
 518:.\Generated_Source\PSoC5/core_cm3.c ****  * @brief  Set the Base Priority value
 519:.\Generated_Source\PSoC5/core_cm3.c ****  *
 520:.\Generated_Source\PSoC5/core_cm3.c ****  * @param  basePri  BasePriority
 521:.\Generated_Source\PSoC5/core_cm3.c ****  *
 522:.\Generated_Source\PSoC5/core_cm3.c ****  * Set the base priority register
 523:.\Generated_Source\PSoC5/core_cm3.c ****  */
 524:.\Generated_Source\PSoC5/core_cm3.c **** void __set_BASEPRI(uint32_t value)
 525:.\Generated_Source\PSoC5/core_cm3.c **** {
 185              		.loc 1 525 0
 186              		.cfi_startproc
 187              		@ args = 0, pretend = 0, frame = 8
 188              		@ frame_needed = 1, uses_anonymous_args = 0
 189              		@ link register save eliminated.
 190 0000 80B4     		push	{r7}
 191              	.LCFI3:
 192              		.cfi_def_cfa_offset 4
 193 0002 83B0     		sub	sp, sp, #12
 194              	.LCFI4:
 195              		.cfi_def_cfa_offset 16
 196 0004 00AF     		add	r7, sp, #0
 197              		.cfi_offset 7, -4
 198              	.LCFI5:
 199              		.cfi_def_cfa_register 7
 200 0006 7860     		str	r0, [r7, #4]
 526:.\Generated_Source\PSoC5/core_cm3.c ****   __ASM volatile ("MSR basepri, %0" : : "r" (value) );
 201              		.loc 1 526 0
 202 0008 7B68     		ldr	r3, [r7, #4]
 203              	@ 526 ".\Generated_Source\PSoC5\core_cm3.c" 1
 204 000a 83F31188 		MSR basepri, r3
 205              	@ 0 "" 2
 527:.\Generated_Source\PSoC5/core_cm3.c **** }
 206              		.loc 1 527 0
 207              		.thumb
 208 000e 07F10C07 		add	r7, r7, #12
 209 0012 BD46     		mov	sp, r7
 210 0014 80BC     		pop	{r7}
ARM GAS  C:\Users\karunmj\AppData\Local\Temp\ccYTct49.s 			page 14


 211 0016 7047     		bx	lr
 212              		.cfi_endproc
 213              	.LFE5:
 214              		.size	__set_BASEPRI, .-__set_BASEPRI
 215              		.section	.text.__get_PRIMASK,"ax",%progbits
 216              		.align	2
 217              		.global	__get_PRIMASK
 218              		.thumb
 219              		.thumb_func
 220              		.type	__get_PRIMASK, %function
 221              	__get_PRIMASK:
 222              	.LFB6:
 528:.\Generated_Source\PSoC5/core_cm3.c **** 
 529:.\Generated_Source\PSoC5/core_cm3.c **** /**
 530:.\Generated_Source\PSoC5/core_cm3.c ****  * @brief  Return the Priority Mask value
 531:.\Generated_Source\PSoC5/core_cm3.c ****  *
 532:.\Generated_Source\PSoC5/core_cm3.c ****  * @return PriMask
 533:.\Generated_Source\PSoC5/core_cm3.c ****  *
 534:.\Generated_Source\PSoC5/core_cm3.c ****  * Return state of the priority mask bit from the priority mask register
 535:.\Generated_Source\PSoC5/core_cm3.c ****  */
 536:.\Generated_Source\PSoC5/core_cm3.c **** uint32_t __get_PRIMASK(void)
 537:.\Generated_Source\PSoC5/core_cm3.c **** {
 223              		.loc 1 537 0
 224              		.cfi_startproc
 225              		@ args = 0, pretend = 0, frame = 8
 226              		@ frame_needed = 1, uses_anonymous_args = 0
 227              		@ link register save eliminated.
 228 0000 80B4     		push	{r7}
 229              	.LCFI6:
 230              		.cfi_def_cfa_offset 4
 231 0002 83B0     		sub	sp, sp, #12
 232              	.LCFI7:
 233              		.cfi_def_cfa_offset 16
 234 0004 00AF     		add	r7, sp, #0
 235              		.cfi_offset 7, -4
 236              	.LCFI8:
 237              		.cfi_def_cfa_register 7
 538:.\Generated_Source\PSoC5/core_cm3.c ****   uint32_t result=0;
 238              		.loc 1 538 0
 239 0006 4FF00003 		mov	r3, #0
 240 000a 7B60     		str	r3, [r7, #4]
 539:.\Generated_Source\PSoC5/core_cm3.c **** 
 540:.\Generated_Source\PSoC5/core_cm3.c ****   __ASM volatile ("MRS %0, primask" : "=r" (result) );
 241              		.loc 1 540 0
 242              	@ 540 ".\Generated_Source\PSoC5\core_cm3.c" 1
 243 000c EFF31083 		MRS r3, primask
 244              	@ 0 "" 2
 245              		.thumb
 246 0010 7B60     		str	r3, [r7, #4]
 541:.\Generated_Source\PSoC5/core_cm3.c ****   return(result);
 247              		.loc 1 541 0
 248 0012 7B68     		ldr	r3, [r7, #4]
 542:.\Generated_Source\PSoC5/core_cm3.c **** }
 249              		.loc 1 542 0
 250 0014 1846     		mov	r0, r3
 251 0016 07F10C07 		add	r7, r7, #12
 252 001a BD46     		mov	sp, r7
ARM GAS  C:\Users\karunmj\AppData\Local\Temp\ccYTct49.s 			page 15


 253 001c 80BC     		pop	{r7}
 254 001e 7047     		bx	lr
 255              		.cfi_endproc
 256              	.LFE6:
 257              		.size	__get_PRIMASK, .-__get_PRIMASK
 258              		.section	.text.__set_PRIMASK,"ax",%progbits
 259              		.align	2
 260              		.global	__set_PRIMASK
 261              		.thumb
 262              		.thumb_func
 263              		.type	__set_PRIMASK, %function
 264              	__set_PRIMASK:
 265              	.LFB7:
 543:.\Generated_Source\PSoC5/core_cm3.c **** 
 544:.\Generated_Source\PSoC5/core_cm3.c **** /**
 545:.\Generated_Source\PSoC5/core_cm3.c ****  * @brief  Set the Priority Mask value
 546:.\Generated_Source\PSoC5/core_cm3.c ****  *
 547:.\Generated_Source\PSoC5/core_cm3.c ****  * @param  priMask  PriMask
 548:.\Generated_Source\PSoC5/core_cm3.c ****  *
 549:.\Generated_Source\PSoC5/core_cm3.c ****  * Set the priority mask bit in the priority mask register
 550:.\Generated_Source\PSoC5/core_cm3.c ****  */
 551:.\Generated_Source\PSoC5/core_cm3.c **** void __set_PRIMASK(uint32_t priMask)
 552:.\Generated_Source\PSoC5/core_cm3.c **** {
 266              		.loc 1 552 0
 267              		.cfi_startproc
 268              		@ args = 0, pretend = 0, frame = 8
 269              		@ frame_needed = 1, uses_anonymous_args = 0
 270              		@ link register save eliminated.
 271 0000 80B4     		push	{r7}
 272              	.LCFI9:
 273              		.cfi_def_cfa_offset 4
 274 0002 83B0     		sub	sp, sp, #12
 275              	.LCFI10:
 276              		.cfi_def_cfa_offset 16
 277 0004 00AF     		add	r7, sp, #0
 278              		.cfi_offset 7, -4
 279              	.LCFI11:
 280              		.cfi_def_cfa_register 7
 281 0006 7860     		str	r0, [r7, #4]
 553:.\Generated_Source\PSoC5/core_cm3.c ****   __ASM volatile ("MSR primask, %0" : : "r" (priMask) );
 282              		.loc 1 553 0
 283 0008 7B68     		ldr	r3, [r7, #4]
 284              	@ 553 ".\Generated_Source\PSoC5\core_cm3.c" 1
 285 000a 83F31088 		MSR primask, r3
 286              	@ 0 "" 2
 554:.\Generated_Source\PSoC5/core_cm3.c **** }
 287              		.loc 1 554 0
 288              		.thumb
 289 000e 07F10C07 		add	r7, r7, #12
 290 0012 BD46     		mov	sp, r7
 291 0014 80BC     		pop	{r7}
 292 0016 7047     		bx	lr
 293              		.cfi_endproc
 294              	.LFE7:
 295              		.size	__set_PRIMASK, .-__set_PRIMASK
 296              		.section	.text.__get_FAULTMASK,"ax",%progbits
 297              		.align	2
ARM GAS  C:\Users\karunmj\AppData\Local\Temp\ccYTct49.s 			page 16


 298              		.global	__get_FAULTMASK
 299              		.thumb
 300              		.thumb_func
 301              		.type	__get_FAULTMASK, %function
 302              	__get_FAULTMASK:
 303              	.LFB8:
 555:.\Generated_Source\PSoC5/core_cm3.c **** 
 556:.\Generated_Source\PSoC5/core_cm3.c **** /**
 557:.\Generated_Source\PSoC5/core_cm3.c ****  * @brief  Return the Fault Mask value
 558:.\Generated_Source\PSoC5/core_cm3.c ****  *
 559:.\Generated_Source\PSoC5/core_cm3.c ****  * @return FaultMask
 560:.\Generated_Source\PSoC5/core_cm3.c ****  *
 561:.\Generated_Source\PSoC5/core_cm3.c ****  * Return the content of the fault mask register
 562:.\Generated_Source\PSoC5/core_cm3.c ****  */
 563:.\Generated_Source\PSoC5/core_cm3.c **** uint32_t __get_FAULTMASK(void)
 564:.\Generated_Source\PSoC5/core_cm3.c **** {
 304              		.loc 1 564 0
 305              		.cfi_startproc
 306              		@ args = 0, pretend = 0, frame = 8
 307              		@ frame_needed = 1, uses_anonymous_args = 0
 308              		@ link register save eliminated.
 309 0000 80B4     		push	{r7}
 310              	.LCFI12:
 311              		.cfi_def_cfa_offset 4
 312 0002 83B0     		sub	sp, sp, #12
 313              	.LCFI13:
 314              		.cfi_def_cfa_offset 16
 315 0004 00AF     		add	r7, sp, #0
 316              		.cfi_offset 7, -4
 317              	.LCFI14:
 318              		.cfi_def_cfa_register 7
 565:.\Generated_Source\PSoC5/core_cm3.c ****   uint32_t result=0;
 319              		.loc 1 565 0
 320 0006 4FF00003 		mov	r3, #0
 321 000a 7B60     		str	r3, [r7, #4]
 566:.\Generated_Source\PSoC5/core_cm3.c ****   
 567:.\Generated_Source\PSoC5/core_cm3.c ****   __ASM volatile ("MRS %0, faultmask" : "=r" (result) );
 322              		.loc 1 567 0
 323              	@ 567 ".\Generated_Source\PSoC5\core_cm3.c" 1
 324 000c EFF31383 		MRS r3, faultmask
 325              	@ 0 "" 2
 326              		.thumb
 327 0010 7B60     		str	r3, [r7, #4]
 568:.\Generated_Source\PSoC5/core_cm3.c ****   return(result);
 328              		.loc 1 568 0
 329 0012 7B68     		ldr	r3, [r7, #4]
 569:.\Generated_Source\PSoC5/core_cm3.c **** }
 330              		.loc 1 569 0
 331 0014 1846     		mov	r0, r3
 332 0016 07F10C07 		add	r7, r7, #12
 333 001a BD46     		mov	sp, r7
 334 001c 80BC     		pop	{r7}
 335 001e 7047     		bx	lr
 336              		.cfi_endproc
 337              	.LFE8:
 338              		.size	__get_FAULTMASK, .-__get_FAULTMASK
 339              		.section	.text.__set_FAULTMASK,"ax",%progbits
ARM GAS  C:\Users\karunmj\AppData\Local\Temp\ccYTct49.s 			page 17


 340              		.align	2
 341              		.global	__set_FAULTMASK
 342              		.thumb
 343              		.thumb_func
 344              		.type	__set_FAULTMASK, %function
 345              	__set_FAULTMASK:
 346              	.LFB9:
 570:.\Generated_Source\PSoC5/core_cm3.c **** 
 571:.\Generated_Source\PSoC5/core_cm3.c **** /**
 572:.\Generated_Source\PSoC5/core_cm3.c ****  * @brief  Set the Fault Mask value
 573:.\Generated_Source\PSoC5/core_cm3.c ****  *
 574:.\Generated_Source\PSoC5/core_cm3.c ****  * @param  faultMask  faultMask value
 575:.\Generated_Source\PSoC5/core_cm3.c ****  *
 576:.\Generated_Source\PSoC5/core_cm3.c ****  * Set the fault mask register
 577:.\Generated_Source\PSoC5/core_cm3.c ****  */
 578:.\Generated_Source\PSoC5/core_cm3.c **** void __set_FAULTMASK(uint32_t faultMask)
 579:.\Generated_Source\PSoC5/core_cm3.c **** {
 347              		.loc 1 579 0
 348              		.cfi_startproc
 349              		@ args = 0, pretend = 0, frame = 8
 350              		@ frame_needed = 1, uses_anonymous_args = 0
 351              		@ link register save eliminated.
 352 0000 80B4     		push	{r7}
 353              	.LCFI15:
 354              		.cfi_def_cfa_offset 4
 355 0002 83B0     		sub	sp, sp, #12
 356              	.LCFI16:
 357              		.cfi_def_cfa_offset 16
 358 0004 00AF     		add	r7, sp, #0
 359              		.cfi_offset 7, -4
 360              	.LCFI17:
 361              		.cfi_def_cfa_register 7
 362 0006 7860     		str	r0, [r7, #4]
 580:.\Generated_Source\PSoC5/core_cm3.c ****   __ASM volatile ("MSR faultmask, %0" : : "r" (faultMask) );
 363              		.loc 1 580 0
 364 0008 7B68     		ldr	r3, [r7, #4]
 365              	@ 580 ".\Generated_Source\PSoC5\core_cm3.c" 1
 366 000a 83F31388 		MSR faultmask, r3
 367              	@ 0 "" 2
 581:.\Generated_Source\PSoC5/core_cm3.c **** }
 368              		.loc 1 581 0
 369              		.thumb
 370 000e 07F10C07 		add	r7, r7, #12
 371 0012 BD46     		mov	sp, r7
 372 0014 80BC     		pop	{r7}
 373 0016 7047     		bx	lr
 374              		.cfi_endproc
 375              	.LFE9:
 376              		.size	__set_FAULTMASK, .-__set_FAULTMASK
 377              		.section	.text.__get_CONTROL,"ax",%progbits
 378              		.align	2
 379              		.global	__get_CONTROL
 380              		.thumb
 381              		.thumb_func
 382              		.type	__get_CONTROL, %function
 383              	__get_CONTROL:
 384              	.LFB10:
ARM GAS  C:\Users\karunmj\AppData\Local\Temp\ccYTct49.s 			page 18


 582:.\Generated_Source\PSoC5/core_cm3.c **** 
 583:.\Generated_Source\PSoC5/core_cm3.c **** /**
 584:.\Generated_Source\PSoC5/core_cm3.c ****  * @brief  Return the Control Register value
 585:.\Generated_Source\PSoC5/core_cm3.c **** * 
 586:.\Generated_Source\PSoC5/core_cm3.c **** *  @return Control value
 587:.\Generated_Source\PSoC5/core_cm3.c ****  *
 588:.\Generated_Source\PSoC5/core_cm3.c ****  * Return the content of the control register
 589:.\Generated_Source\PSoC5/core_cm3.c ****  */
 590:.\Generated_Source\PSoC5/core_cm3.c **** uint32_t __get_CONTROL(void)
 591:.\Generated_Source\PSoC5/core_cm3.c **** {
 385              		.loc 1 591 0
 386              		.cfi_startproc
 387              		@ args = 0, pretend = 0, frame = 8
 388              		@ frame_needed = 1, uses_anonymous_args = 0
 389              		@ link register save eliminated.
 390 0000 80B4     		push	{r7}
 391              	.LCFI18:
 392              		.cfi_def_cfa_offset 4
 393 0002 83B0     		sub	sp, sp, #12
 394              	.LCFI19:
 395              		.cfi_def_cfa_offset 16
 396 0004 00AF     		add	r7, sp, #0
 397              		.cfi_offset 7, -4
 398              	.LCFI20:
 399              		.cfi_def_cfa_register 7
 592:.\Generated_Source\PSoC5/core_cm3.c ****   uint32_t result=0;
 400              		.loc 1 592 0
 401 0006 4FF00003 		mov	r3, #0
 402 000a 7B60     		str	r3, [r7, #4]
 593:.\Generated_Source\PSoC5/core_cm3.c **** 
 594:.\Generated_Source\PSoC5/core_cm3.c ****   __ASM volatile ("MRS %0, control" : "=r" (result) );
 403              		.loc 1 594 0
 404              	@ 594 ".\Generated_Source\PSoC5\core_cm3.c" 1
 405 000c EFF31483 		MRS r3, control
 406              	@ 0 "" 2
 407              		.thumb
 408 0010 7B60     		str	r3, [r7, #4]
 595:.\Generated_Source\PSoC5/core_cm3.c ****   return(result);
 409              		.loc 1 595 0
 410 0012 7B68     		ldr	r3, [r7, #4]
 596:.\Generated_Source\PSoC5/core_cm3.c **** }
 411              		.loc 1 596 0
 412 0014 1846     		mov	r0, r3
 413 0016 07F10C07 		add	r7, r7, #12
 414 001a BD46     		mov	sp, r7
 415 001c 80BC     		pop	{r7}
 416 001e 7047     		bx	lr
 417              		.cfi_endproc
 418              	.LFE10:
 419              		.size	__get_CONTROL, .-__get_CONTROL
 420              		.section	.text.__set_CONTROL,"ax",%progbits
 421              		.align	2
 422              		.global	__set_CONTROL
 423              		.thumb
 424              		.thumb_func
 425              		.type	__set_CONTROL, %function
 426              	__set_CONTROL:
ARM GAS  C:\Users\karunmj\AppData\Local\Temp\ccYTct49.s 			page 19


 427              	.LFB11:
 597:.\Generated_Source\PSoC5/core_cm3.c **** 
 598:.\Generated_Source\PSoC5/core_cm3.c **** /**
 599:.\Generated_Source\PSoC5/core_cm3.c ****  * @brief  Set the Control Register value
 600:.\Generated_Source\PSoC5/core_cm3.c ****  *
 601:.\Generated_Source\PSoC5/core_cm3.c ****  * @param  control  Control value
 602:.\Generated_Source\PSoC5/core_cm3.c ****  *
 603:.\Generated_Source\PSoC5/core_cm3.c ****  * Set the control register
 604:.\Generated_Source\PSoC5/core_cm3.c ****  */
 605:.\Generated_Source\PSoC5/core_cm3.c **** void __set_CONTROL(uint32_t control)
 606:.\Generated_Source\PSoC5/core_cm3.c **** {
 428              		.loc 1 606 0
 429              		.cfi_startproc
 430              		@ args = 0, pretend = 0, frame = 8
 431              		@ frame_needed = 1, uses_anonymous_args = 0
 432              		@ link register save eliminated.
 433 0000 80B4     		push	{r7}
 434              	.LCFI21:
 435              		.cfi_def_cfa_offset 4
 436 0002 83B0     		sub	sp, sp, #12
 437              	.LCFI22:
 438              		.cfi_def_cfa_offset 16
 439 0004 00AF     		add	r7, sp, #0
 440              		.cfi_offset 7, -4
 441              	.LCFI23:
 442              		.cfi_def_cfa_register 7
 443 0006 7860     		str	r0, [r7, #4]
 607:.\Generated_Source\PSoC5/core_cm3.c ****   __ASM volatile ("MSR control, %0" : : "r" (control) );
 444              		.loc 1 607 0
 445 0008 7B68     		ldr	r3, [r7, #4]
 446              	@ 607 ".\Generated_Source\PSoC5\core_cm3.c" 1
 447 000a 83F31488 		MSR control, r3
 448              	@ 0 "" 2
 608:.\Generated_Source\PSoC5/core_cm3.c **** }
 449              		.loc 1 608 0
 450              		.thumb
 451 000e 07F10C07 		add	r7, r7, #12
 452 0012 BD46     		mov	sp, r7
 453 0014 80BC     		pop	{r7}
 454 0016 7047     		bx	lr
 455              		.cfi_endproc
 456              	.LFE11:
 457              		.size	__set_CONTROL, .-__set_CONTROL
 458              		.section	.text.__REV,"ax",%progbits
 459              		.align	2
 460              		.global	__REV
 461              		.thumb
 462              		.thumb_func
 463              		.type	__REV, %function
 464              	__REV:
 465              	.LFB12:
 609:.\Generated_Source\PSoC5/core_cm3.c **** 
 610:.\Generated_Source\PSoC5/core_cm3.c **** 
 611:.\Generated_Source\PSoC5/core_cm3.c **** /**
 612:.\Generated_Source\PSoC5/core_cm3.c ****  * @brief  Reverse byte order in integer value
 613:.\Generated_Source\PSoC5/core_cm3.c ****  *
 614:.\Generated_Source\PSoC5/core_cm3.c ****  * @param  value  value to reverse
ARM GAS  C:\Users\karunmj\AppData\Local\Temp\ccYTct49.s 			page 20


 615:.\Generated_Source\PSoC5/core_cm3.c ****  * @return        reversed value
 616:.\Generated_Source\PSoC5/core_cm3.c ****  *
 617:.\Generated_Source\PSoC5/core_cm3.c ****  * Reverse byte order in integer value
 618:.\Generated_Source\PSoC5/core_cm3.c ****  */
 619:.\Generated_Source\PSoC5/core_cm3.c **** uint32_t __REV(uint32_t value)
 620:.\Generated_Source\PSoC5/core_cm3.c **** {
 466              		.loc 1 620 0
 467              		.cfi_startproc
 468              		@ args = 0, pretend = 0, frame = 16
 469              		@ frame_needed = 1, uses_anonymous_args = 0
 470              		@ link register save eliminated.
 471 0000 80B4     		push	{r7}
 472              	.LCFI24:
 473              		.cfi_def_cfa_offset 4
 474 0002 85B0     		sub	sp, sp, #20
 475              	.LCFI25:
 476              		.cfi_def_cfa_offset 24
 477 0004 00AF     		add	r7, sp, #0
 478              		.cfi_offset 7, -4
 479              	.LCFI26:
 480              		.cfi_def_cfa_register 7
 481 0006 7860     		str	r0, [r7, #4]
 621:.\Generated_Source\PSoC5/core_cm3.c ****   uint32_t result=0;
 482              		.loc 1 621 0
 483 0008 4FF00003 		mov	r3, #0
 484 000c FB60     		str	r3, [r7, #12]
 622:.\Generated_Source\PSoC5/core_cm3.c ****   
 623:.\Generated_Source\PSoC5/core_cm3.c ****   __ASM volatile ("rev %0, %1" : "=r" (result) : "r" (value) );
 485              		.loc 1 623 0
 486 000e 7B68     		ldr	r3, [r7, #4]
 487              	@ 623 ".\Generated_Source\PSoC5\core_cm3.c" 1
 488 0010 1BBA     		rev r3, r3
 489              	@ 0 "" 2
 490              		.thumb
 491 0012 FB60     		str	r3, [r7, #12]
 624:.\Generated_Source\PSoC5/core_cm3.c ****   return(result);
 492              		.loc 1 624 0
 493 0014 FB68     		ldr	r3, [r7, #12]
 625:.\Generated_Source\PSoC5/core_cm3.c **** }
 494              		.loc 1 625 0
 495 0016 1846     		mov	r0, r3
 496 0018 07F11407 		add	r7, r7, #20
 497 001c BD46     		mov	sp, r7
 498 001e 80BC     		pop	{r7}
 499 0020 7047     		bx	lr
 500              		.cfi_endproc
 501              	.LFE12:
 502              		.size	__REV, .-__REV
 503 0022 00BF     		.section	.text.__REV16,"ax",%progbits
 504              		.align	2
 505              		.global	__REV16
 506              		.thumb
 507              		.thumb_func
 508              		.type	__REV16, %function
 509              	__REV16:
 510              	.LFB13:
 626:.\Generated_Source\PSoC5/core_cm3.c **** 
ARM GAS  C:\Users\karunmj\AppData\Local\Temp\ccYTct49.s 			page 21


 627:.\Generated_Source\PSoC5/core_cm3.c **** /**
 628:.\Generated_Source\PSoC5/core_cm3.c ****  * @brief  Reverse byte order in unsigned short value
 629:.\Generated_Source\PSoC5/core_cm3.c ****  *
 630:.\Generated_Source\PSoC5/core_cm3.c ****  * @param  value  value to reverse
 631:.\Generated_Source\PSoC5/core_cm3.c ****  * @return        reversed value
 632:.\Generated_Source\PSoC5/core_cm3.c ****  *
 633:.\Generated_Source\PSoC5/core_cm3.c ****  * Reverse byte order in unsigned short value
 634:.\Generated_Source\PSoC5/core_cm3.c ****  */
 635:.\Generated_Source\PSoC5/core_cm3.c **** uint32_t __REV16(uint16_t value)
 636:.\Generated_Source\PSoC5/core_cm3.c **** {
 511              		.loc 1 636 0
 512              		.cfi_startproc
 513              		@ args = 0, pretend = 0, frame = 16
 514              		@ frame_needed = 1, uses_anonymous_args = 0
 515              		@ link register save eliminated.
 516 0000 80B4     		push	{r7}
 517              	.LCFI27:
 518              		.cfi_def_cfa_offset 4
 519 0002 85B0     		sub	sp, sp, #20
 520              	.LCFI28:
 521              		.cfi_def_cfa_offset 24
 522 0004 00AF     		add	r7, sp, #0
 523              		.cfi_offset 7, -4
 524              	.LCFI29:
 525              		.cfi_def_cfa_register 7
 526 0006 0346     		mov	r3, r0
 527 0008 FB80     		strh	r3, [r7, #6]	@ movhi
 637:.\Generated_Source\PSoC5/core_cm3.c ****   uint32_t result=0;
 528              		.loc 1 637 0
 529 000a 4FF00003 		mov	r3, #0
 530 000e FB60     		str	r3, [r7, #12]
 638:.\Generated_Source\PSoC5/core_cm3.c ****   
 639:.\Generated_Source\PSoC5/core_cm3.c ****   __ASM volatile ("rev16 %0, %1" : "=r" (result) : "r" (value) );
 531              		.loc 1 639 0
 532 0010 FB88     		ldrh	r3, [r7, #6]	@ movhi
 533              	@ 639 ".\Generated_Source\PSoC5\core_cm3.c" 1
 534 0012 5BBA     		rev16 r3, r3
 535              	@ 0 "" 2
 536              		.thumb
 537 0014 FB60     		str	r3, [r7, #12]
 640:.\Generated_Source\PSoC5/core_cm3.c ****   return(result);
 538              		.loc 1 640 0
 539 0016 FB68     		ldr	r3, [r7, #12]
 641:.\Generated_Source\PSoC5/core_cm3.c **** }
 540              		.loc 1 641 0
 541 0018 1846     		mov	r0, r3
 542 001a 07F11407 		add	r7, r7, #20
 543 001e BD46     		mov	sp, r7
 544 0020 80BC     		pop	{r7}
 545 0022 7047     		bx	lr
 546              		.cfi_endproc
 547              	.LFE13:
 548              		.size	__REV16, .-__REV16
 549              		.section	.text.__REVSH,"ax",%progbits
 550              		.align	2
 551              		.global	__REVSH
 552              		.thumb
ARM GAS  C:\Users\karunmj\AppData\Local\Temp\ccYTct49.s 			page 22


 553              		.thumb_func
 554              		.type	__REVSH, %function
 555              	__REVSH:
 556              	.LFB14:
 642:.\Generated_Source\PSoC5/core_cm3.c **** 
 643:.\Generated_Source\PSoC5/core_cm3.c **** /**
 644:.\Generated_Source\PSoC5/core_cm3.c ****  * @brief  Reverse byte order in signed short value with sign extension to integer
 645:.\Generated_Source\PSoC5/core_cm3.c ****  *
 646:.\Generated_Source\PSoC5/core_cm3.c ****  * @param  value  value to reverse
 647:.\Generated_Source\PSoC5/core_cm3.c ****  * @return        reversed value
 648:.\Generated_Source\PSoC5/core_cm3.c ****  *
 649:.\Generated_Source\PSoC5/core_cm3.c ****  * Reverse byte order in signed short value with sign extension to integer
 650:.\Generated_Source\PSoC5/core_cm3.c ****  */
 651:.\Generated_Source\PSoC5/core_cm3.c **** int32_t __REVSH(int16_t value)
 652:.\Generated_Source\PSoC5/core_cm3.c **** {
 557              		.loc 1 652 0
 558              		.cfi_startproc
 559              		@ args = 0, pretend = 0, frame = 16
 560              		@ frame_needed = 1, uses_anonymous_args = 0
 561              		@ link register save eliminated.
 562 0000 80B4     		push	{r7}
 563              	.LCFI30:
 564              		.cfi_def_cfa_offset 4
 565 0002 85B0     		sub	sp, sp, #20
 566              	.LCFI31:
 567              		.cfi_def_cfa_offset 24
 568 0004 00AF     		add	r7, sp, #0
 569              		.cfi_offset 7, -4
 570              	.LCFI32:
 571              		.cfi_def_cfa_register 7
 572 0006 0346     		mov	r3, r0
 573 0008 FB80     		strh	r3, [r7, #6]	@ movhi
 653:.\Generated_Source\PSoC5/core_cm3.c ****   uint32_t result=0;
 574              		.loc 1 653 0
 575 000a 4FF00003 		mov	r3, #0
 576 000e FB60     		str	r3, [r7, #12]
 654:.\Generated_Source\PSoC5/core_cm3.c ****   
 655:.\Generated_Source\PSoC5/core_cm3.c ****   __ASM volatile ("revsh %0, %1" : "=r" (result) : "r" (value) );
 577              		.loc 1 655 0
 578 0010 FB88     		ldrh	r3, [r7, #6]	@ movhi
 579              	@ 655 ".\Generated_Source\PSoC5\core_cm3.c" 1
 580 0012 DBBA     		revsh r3, r3
 581              	@ 0 "" 2
 582              		.thumb
 583 0014 FB60     		str	r3, [r7, #12]
 656:.\Generated_Source\PSoC5/core_cm3.c ****   return(result);
 584              		.loc 1 656 0
 585 0016 FB68     		ldr	r3, [r7, #12]
 657:.\Generated_Source\PSoC5/core_cm3.c **** }
 586              		.loc 1 657 0
 587 0018 1846     		mov	r0, r3
 588 001a 07F11407 		add	r7, r7, #20
 589 001e BD46     		mov	sp, r7
 590 0020 80BC     		pop	{r7}
 591 0022 7047     		bx	lr
 592              		.cfi_endproc
 593              	.LFE14:
ARM GAS  C:\Users\karunmj\AppData\Local\Temp\ccYTct49.s 			page 23


 594              		.size	__REVSH, .-__REVSH
 595              		.section	.text.__RBIT,"ax",%progbits
 596              		.align	2
 597              		.global	__RBIT
 598              		.thumb
 599              		.thumb_func
 600              		.type	__RBIT, %function
 601              	__RBIT:
 602              	.LFB15:
 658:.\Generated_Source\PSoC5/core_cm3.c **** 
 659:.\Generated_Source\PSoC5/core_cm3.c **** /**
 660:.\Generated_Source\PSoC5/core_cm3.c ****  * @brief  Reverse bit order of value
 661:.\Generated_Source\PSoC5/core_cm3.c ****  *
 662:.\Generated_Source\PSoC5/core_cm3.c ****  * @param  value  value to reverse
 663:.\Generated_Source\PSoC5/core_cm3.c ****  * @return        reversed value
 664:.\Generated_Source\PSoC5/core_cm3.c ****  *
 665:.\Generated_Source\PSoC5/core_cm3.c ****  * Reverse bit order of value
 666:.\Generated_Source\PSoC5/core_cm3.c ****  */
 667:.\Generated_Source\PSoC5/core_cm3.c **** uint32_t __RBIT(uint32_t value)
 668:.\Generated_Source\PSoC5/core_cm3.c **** {
 603              		.loc 1 668 0
 604              		.cfi_startproc
 605              		@ args = 0, pretend = 0, frame = 16
 606              		@ frame_needed = 1, uses_anonymous_args = 0
 607              		@ link register save eliminated.
 608 0000 80B4     		push	{r7}
 609              	.LCFI33:
 610              		.cfi_def_cfa_offset 4
 611 0002 85B0     		sub	sp, sp, #20
 612              	.LCFI34:
 613              		.cfi_def_cfa_offset 24
 614 0004 00AF     		add	r7, sp, #0
 615              		.cfi_offset 7, -4
 616              	.LCFI35:
 617              		.cfi_def_cfa_register 7
 618 0006 7860     		str	r0, [r7, #4]
 669:.\Generated_Source\PSoC5/core_cm3.c ****   uint32_t result=0;
 619              		.loc 1 669 0
 620 0008 4FF00003 		mov	r3, #0
 621 000c FB60     		str	r3, [r7, #12]
 670:.\Generated_Source\PSoC5/core_cm3.c ****   
 671:.\Generated_Source\PSoC5/core_cm3.c ****    __ASM volatile ("rbit %0, %1" : "=r" (result) : "r" (value) );
 622              		.loc 1 671 0
 623 000e 7B68     		ldr	r3, [r7, #4]
 624              	@ 671 ".\Generated_Source\PSoC5\core_cm3.c" 1
 625 0010 93FAA3F3 		rbit r3, r3
 626              	@ 0 "" 2
 627              		.thumb
 628 0014 FB60     		str	r3, [r7, #12]
 672:.\Generated_Source\PSoC5/core_cm3.c ****    return(result);
 629              		.loc 1 672 0
 630 0016 FB68     		ldr	r3, [r7, #12]
 673:.\Generated_Source\PSoC5/core_cm3.c **** }
 631              		.loc 1 673 0
 632 0018 1846     		mov	r0, r3
 633 001a 07F11407 		add	r7, r7, #20
 634 001e BD46     		mov	sp, r7
ARM GAS  C:\Users\karunmj\AppData\Local\Temp\ccYTct49.s 			page 24


 635 0020 80BC     		pop	{r7}
 636 0022 7047     		bx	lr
 637              		.cfi_endproc
 638              	.LFE15:
 639              		.size	__RBIT, .-__RBIT
 640              		.section	.text.__LDREXB,"ax",%progbits
 641              		.align	2
 642              		.global	__LDREXB
 643              		.thumb
 644              		.thumb_func
 645              		.type	__LDREXB, %function
 646              	__LDREXB:
 647              	.LFB16:
 674:.\Generated_Source\PSoC5/core_cm3.c **** 
 675:.\Generated_Source\PSoC5/core_cm3.c **** /**
 676:.\Generated_Source\PSoC5/core_cm3.c ****  * @brief  LDR Exclusive (8 bit)
 677:.\Generated_Source\PSoC5/core_cm3.c ****  *
 678:.\Generated_Source\PSoC5/core_cm3.c ****  * @param  *addr  address pointer
 679:.\Generated_Source\PSoC5/core_cm3.c ****  * @return        value of (*address)
 680:.\Generated_Source\PSoC5/core_cm3.c ****  *
 681:.\Generated_Source\PSoC5/core_cm3.c ****  * Exclusive LDR command for 8 bit value
 682:.\Generated_Source\PSoC5/core_cm3.c ****  */
 683:.\Generated_Source\PSoC5/core_cm3.c **** uint8_t __LDREXB(uint8_t *addr)
 684:.\Generated_Source\PSoC5/core_cm3.c **** {
 648              		.loc 1 684 0
 649              		.cfi_startproc
 650              		@ args = 0, pretend = 0, frame = 16
 651              		@ frame_needed = 1, uses_anonymous_args = 0
 652              		@ link register save eliminated.
 653 0000 80B4     		push	{r7}
 654              	.LCFI36:
 655              		.cfi_def_cfa_offset 4
 656 0002 85B0     		sub	sp, sp, #20
 657              	.LCFI37:
 658              		.cfi_def_cfa_offset 24
 659 0004 00AF     		add	r7, sp, #0
 660              		.cfi_offset 7, -4
 661              	.LCFI38:
 662              		.cfi_def_cfa_register 7
 663 0006 7860     		str	r0, [r7, #4]
 685:.\Generated_Source\PSoC5/core_cm3.c ****     uint8_t result=0;
 664              		.loc 1 685 0
 665 0008 4FF00003 		mov	r3, #0
 666 000c FB73     		strb	r3, [r7, #15]
 686:.\Generated_Source\PSoC5/core_cm3.c ****   
 687:.\Generated_Source\PSoC5/core_cm3.c ****    __ASM volatile ("ldrexb %0, [%1]" : "=r" (result) : "r" (addr) );
 667              		.loc 1 687 0
 668 000e 7B68     		ldr	r3, [r7, #4]
 669              	@ 687 ".\Generated_Source\PSoC5\core_cm3.c" 1
 670 0010 D3E84F3F 		ldrexb r3, [r3]
 671              	@ 0 "" 2
 672              		.thumb
 673 0014 FB73     		strb	r3, [r7, #15]
 688:.\Generated_Source\PSoC5/core_cm3.c ****    return(result);
 674              		.loc 1 688 0
 675 0016 FB7B     		ldrb	r3, [r7, #15]	@ zero_extendqisi2
 689:.\Generated_Source\PSoC5/core_cm3.c **** }
ARM GAS  C:\Users\karunmj\AppData\Local\Temp\ccYTct49.s 			page 25


 676              		.loc 1 689 0
 677 0018 1846     		mov	r0, r3
 678 001a 07F11407 		add	r7, r7, #20
 679 001e BD46     		mov	sp, r7
 680 0020 80BC     		pop	{r7}
 681 0022 7047     		bx	lr
 682              		.cfi_endproc
 683              	.LFE16:
 684              		.size	__LDREXB, .-__LDREXB
 685              		.section	.text.__LDREXH,"ax",%progbits
 686              		.align	2
 687              		.global	__LDREXH
 688              		.thumb
 689              		.thumb_func
 690              		.type	__LDREXH, %function
 691              	__LDREXH:
 692              	.LFB17:
 690:.\Generated_Source\PSoC5/core_cm3.c **** 
 691:.\Generated_Source\PSoC5/core_cm3.c **** /**
 692:.\Generated_Source\PSoC5/core_cm3.c ****  * @brief  LDR Exclusive (16 bit)
 693:.\Generated_Source\PSoC5/core_cm3.c ****  *
 694:.\Generated_Source\PSoC5/core_cm3.c ****  * @param  *addr  address pointer
 695:.\Generated_Source\PSoC5/core_cm3.c ****  * @return        value of (*address)
 696:.\Generated_Source\PSoC5/core_cm3.c ****  *
 697:.\Generated_Source\PSoC5/core_cm3.c ****  * Exclusive LDR command for 16 bit values
 698:.\Generated_Source\PSoC5/core_cm3.c ****  */
 699:.\Generated_Source\PSoC5/core_cm3.c **** uint16_t __LDREXH(uint16_t *addr)
 700:.\Generated_Source\PSoC5/core_cm3.c **** {
 693              		.loc 1 700 0
 694              		.cfi_startproc
 695              		@ args = 0, pretend = 0, frame = 16
 696              		@ frame_needed = 1, uses_anonymous_args = 0
 697              		@ link register save eliminated.
 698 0000 80B4     		push	{r7}
 699              	.LCFI39:
 700              		.cfi_def_cfa_offset 4
 701 0002 85B0     		sub	sp, sp, #20
 702              	.LCFI40:
 703              		.cfi_def_cfa_offset 24
 704 0004 00AF     		add	r7, sp, #0
 705              		.cfi_offset 7, -4
 706              	.LCFI41:
 707              		.cfi_def_cfa_register 7
 708 0006 7860     		str	r0, [r7, #4]
 701:.\Generated_Source\PSoC5/core_cm3.c ****     uint16_t result=0;
 709              		.loc 1 701 0
 710 0008 4FF00003 		mov	r3, #0
 711 000c FB81     		strh	r3, [r7, #14]	@ movhi
 702:.\Generated_Source\PSoC5/core_cm3.c ****   
 703:.\Generated_Source\PSoC5/core_cm3.c ****    __ASM volatile ("ldrexh %0, [%1]" : "=r" (result) : "r" (addr) );
 712              		.loc 1 703 0
 713 000e 7B68     		ldr	r3, [r7, #4]
 714              	@ 703 ".\Generated_Source\PSoC5\core_cm3.c" 1
 715 0010 D3E85F3F 		ldrexh r3, [r3]
 716              	@ 0 "" 2
 717              		.thumb
 718 0014 FB81     		strh	r3, [r7, #14]	@ movhi
ARM GAS  C:\Users\karunmj\AppData\Local\Temp\ccYTct49.s 			page 26


 704:.\Generated_Source\PSoC5/core_cm3.c ****    return(result);
 719              		.loc 1 704 0
 720 0016 FB89     		ldrh	r3, [r7, #14]
 705:.\Generated_Source\PSoC5/core_cm3.c **** }
 721              		.loc 1 705 0
 722 0018 1846     		mov	r0, r3
 723 001a 07F11407 		add	r7, r7, #20
 724 001e BD46     		mov	sp, r7
 725 0020 80BC     		pop	{r7}
 726 0022 7047     		bx	lr
 727              		.cfi_endproc
 728              	.LFE17:
 729              		.size	__LDREXH, .-__LDREXH
 730              		.section	.text.__LDREXW,"ax",%progbits
 731              		.align	2
 732              		.global	__LDREXW
 733              		.thumb
 734              		.thumb_func
 735              		.type	__LDREXW, %function
 736              	__LDREXW:
 737              	.LFB18:
 706:.\Generated_Source\PSoC5/core_cm3.c **** 
 707:.\Generated_Source\PSoC5/core_cm3.c **** /**
 708:.\Generated_Source\PSoC5/core_cm3.c ****  * @brief  LDR Exclusive (32 bit)
 709:.\Generated_Source\PSoC5/core_cm3.c ****  *
 710:.\Generated_Source\PSoC5/core_cm3.c ****  * @param  *addr  address pointer
 711:.\Generated_Source\PSoC5/core_cm3.c ****  * @return        value of (*address)
 712:.\Generated_Source\PSoC5/core_cm3.c ****  *
 713:.\Generated_Source\PSoC5/core_cm3.c ****  * Exclusive LDR command for 32 bit values
 714:.\Generated_Source\PSoC5/core_cm3.c ****  */
 715:.\Generated_Source\PSoC5/core_cm3.c **** uint32_t __LDREXW(uint32_t *addr)
 716:.\Generated_Source\PSoC5/core_cm3.c **** {
 738              		.loc 1 716 0
 739              		.cfi_startproc
 740              		@ args = 0, pretend = 0, frame = 16
 741              		@ frame_needed = 1, uses_anonymous_args = 0
 742              		@ link register save eliminated.
 743 0000 80B4     		push	{r7}
 744              	.LCFI42:
 745              		.cfi_def_cfa_offset 4
 746 0002 85B0     		sub	sp, sp, #20
 747              	.LCFI43:
 748              		.cfi_def_cfa_offset 24
 749 0004 00AF     		add	r7, sp, #0
 750              		.cfi_offset 7, -4
 751              	.LCFI44:
 752              		.cfi_def_cfa_register 7
 753 0006 7860     		str	r0, [r7, #4]
 717:.\Generated_Source\PSoC5/core_cm3.c ****     uint32_t result=0;
 754              		.loc 1 717 0
 755 0008 4FF00003 		mov	r3, #0
 756 000c FB60     		str	r3, [r7, #12]
 718:.\Generated_Source\PSoC5/core_cm3.c ****   
 719:.\Generated_Source\PSoC5/core_cm3.c ****    __ASM volatile ("ldrex %0, [%1]" : "=r" (result) : "r" (addr) );
 757              		.loc 1 719 0
 758 000e 7B68     		ldr	r3, [r7, #4]
 759              	@ 719 ".\Generated_Source\PSoC5\core_cm3.c" 1
ARM GAS  C:\Users\karunmj\AppData\Local\Temp\ccYTct49.s 			page 27


 760 0010 53E8003F 		ldrex r3, [r3]
 761              	@ 0 "" 2
 762              		.thumb
 763 0014 FB60     		str	r3, [r7, #12]
 720:.\Generated_Source\PSoC5/core_cm3.c ****    return(result);
 764              		.loc 1 720 0
 765 0016 FB68     		ldr	r3, [r7, #12]
 721:.\Generated_Source\PSoC5/core_cm3.c **** }
 766              		.loc 1 721 0
 767 0018 1846     		mov	r0, r3
 768 001a 07F11407 		add	r7, r7, #20
 769 001e BD46     		mov	sp, r7
 770 0020 80BC     		pop	{r7}
 771 0022 7047     		bx	lr
 772              		.cfi_endproc
 773              	.LFE18:
 774              		.size	__LDREXW, .-__LDREXW
 775              		.section	.text.__STREXB,"ax",%progbits
 776              		.align	2
 777              		.global	__STREXB
 778              		.thumb
 779              		.thumb_func
 780              		.type	__STREXB, %function
 781              	__STREXB:
 782              	.LFB19:
 722:.\Generated_Source\PSoC5/core_cm3.c **** 
 723:.\Generated_Source\PSoC5/core_cm3.c **** /**
 724:.\Generated_Source\PSoC5/core_cm3.c ****  * @brief  STR Exclusive (8 bit)
 725:.\Generated_Source\PSoC5/core_cm3.c ****  *
 726:.\Generated_Source\PSoC5/core_cm3.c ****  * @param  value  value to store
 727:.\Generated_Source\PSoC5/core_cm3.c ****  * @param  *addr  address pointer
 728:.\Generated_Source\PSoC5/core_cm3.c ****  * @return        successful / failed
 729:.\Generated_Source\PSoC5/core_cm3.c ****  *
 730:.\Generated_Source\PSoC5/core_cm3.c ****  * Exclusive STR command for 8 bit values
 731:.\Generated_Source\PSoC5/core_cm3.c ****  */
 732:.\Generated_Source\PSoC5/core_cm3.c **** uint32_t __STREXB(uint8_t value, uint8_t *addr)
 733:.\Generated_Source\PSoC5/core_cm3.c **** {
 783              		.loc 1 733 0
 784              		.cfi_startproc
 785              		@ args = 0, pretend = 0, frame = 16
 786              		@ frame_needed = 1, uses_anonymous_args = 0
 787              		@ link register save eliminated.
 788 0000 80B4     		push	{r7}
 789              	.LCFI45:
 790              		.cfi_def_cfa_offset 4
 791 0002 85B0     		sub	sp, sp, #20
 792              	.LCFI46:
 793              		.cfi_def_cfa_offset 24
 794 0004 00AF     		add	r7, sp, #0
 795              		.cfi_offset 7, -4
 796              	.LCFI47:
 797              		.cfi_def_cfa_register 7
 798 0006 0346     		mov	r3, r0
 799 0008 3960     		str	r1, [r7, #0]
 800 000a FB71     		strb	r3, [r7, #7]
 734:.\Generated_Source\PSoC5/core_cm3.c ****    uint32_t result=0;
 801              		.loc 1 734 0
ARM GAS  C:\Users\karunmj\AppData\Local\Temp\ccYTct49.s 			page 28


 802 000c 4FF00003 		mov	r3, #0
 803 0010 FB60     		str	r3, [r7, #12]
 735:.\Generated_Source\PSoC5/core_cm3.c ****   
 736:.\Generated_Source\PSoC5/core_cm3.c ****    __ASM volatile ("strexb %0, %2, [%1]" : "=r" (result) : "r" (addr), "r" (value) );
 804              		.loc 1 736 0
 805 0012 3B68     		ldr	r3, [r7, #0]
 806 0014 FA79     		ldrb	r2, [r7, #7]
 807              	@ 736 ".\Generated_Source\PSoC5\core_cm3.c" 1
 808 0016 C3E8432F 		strexb r3, r2, [r3]
 809              	@ 0 "" 2
 810              		.thumb
 811 001a FB60     		str	r3, [r7, #12]
 737:.\Generated_Source\PSoC5/core_cm3.c ****    return(result);
 812              		.loc 1 737 0
 813 001c FB68     		ldr	r3, [r7, #12]
 738:.\Generated_Source\PSoC5/core_cm3.c **** }
 814              		.loc 1 738 0
 815 001e 1846     		mov	r0, r3
 816 0020 07F11407 		add	r7, r7, #20
 817 0024 BD46     		mov	sp, r7
 818 0026 80BC     		pop	{r7}
 819 0028 7047     		bx	lr
 820              		.cfi_endproc
 821              	.LFE19:
 822              		.size	__STREXB, .-__STREXB
 823              		.section	.text.__STREXH,"ax",%progbits
 824              		.align	2
 825              		.global	__STREXH
 826              		.thumb
 827              		.thumb_func
 828              		.type	__STREXH, %function
 829              	__STREXH:
 830              	.LFB20:
 739:.\Generated_Source\PSoC5/core_cm3.c **** 
 740:.\Generated_Source\PSoC5/core_cm3.c **** /**
 741:.\Generated_Source\PSoC5/core_cm3.c ****  * @brief  STR Exclusive (16 bit)
 742:.\Generated_Source\PSoC5/core_cm3.c ****  *
 743:.\Generated_Source\PSoC5/core_cm3.c ****  * @param  value  value to store
 744:.\Generated_Source\PSoC5/core_cm3.c ****  * @param  *addr  address pointer
 745:.\Generated_Source\PSoC5/core_cm3.c ****  * @return        successful / failed
 746:.\Generated_Source\PSoC5/core_cm3.c ****  *
 747:.\Generated_Source\PSoC5/core_cm3.c ****  * Exclusive STR command for 16 bit values
 748:.\Generated_Source\PSoC5/core_cm3.c ****  */
 749:.\Generated_Source\PSoC5/core_cm3.c **** uint32_t __STREXH(uint16_t value, uint16_t *addr)
 750:.\Generated_Source\PSoC5/core_cm3.c **** {
 831              		.loc 1 750 0
 832              		.cfi_startproc
 833              		@ args = 0, pretend = 0, frame = 16
 834              		@ frame_needed = 1, uses_anonymous_args = 0
 835              		@ link register save eliminated.
 836 0000 80B4     		push	{r7}
 837              	.LCFI48:
 838              		.cfi_def_cfa_offset 4
 839 0002 85B0     		sub	sp, sp, #20
 840              	.LCFI49:
 841              		.cfi_def_cfa_offset 24
 842 0004 00AF     		add	r7, sp, #0
ARM GAS  C:\Users\karunmj\AppData\Local\Temp\ccYTct49.s 			page 29


 843              		.cfi_offset 7, -4
 844              	.LCFI50:
 845              		.cfi_def_cfa_register 7
 846 0006 0346     		mov	r3, r0
 847 0008 3960     		str	r1, [r7, #0]
 848 000a FB80     		strh	r3, [r7, #6]	@ movhi
 751:.\Generated_Source\PSoC5/core_cm3.c ****    uint32_t result=0;
 849              		.loc 1 751 0
 850 000c 4FF00003 		mov	r3, #0
 851 0010 FB60     		str	r3, [r7, #12]
 752:.\Generated_Source\PSoC5/core_cm3.c ****   
 753:.\Generated_Source\PSoC5/core_cm3.c ****    __ASM volatile ("strexh %0, %2, [%1]" : "=r" (result) : "r" (addr), "r" (value) );
 852              		.loc 1 753 0
 853 0012 3B68     		ldr	r3, [r7, #0]
 854 0014 FA88     		ldrh	r2, [r7, #6]	@ movhi
 855              	@ 753 ".\Generated_Source\PSoC5\core_cm3.c" 1
 856 0016 C3E8532F 		strexh r3, r2, [r3]
 857              	@ 0 "" 2
 858              		.thumb
 859 001a FB60     		str	r3, [r7, #12]
 754:.\Generated_Source\PSoC5/core_cm3.c ****    return(result);
 860              		.loc 1 754 0
 861 001c FB68     		ldr	r3, [r7, #12]
 755:.\Generated_Source\PSoC5/core_cm3.c **** }
 862              		.loc 1 755 0
 863 001e 1846     		mov	r0, r3
 864 0020 07F11407 		add	r7, r7, #20
 865 0024 BD46     		mov	sp, r7
 866 0026 80BC     		pop	{r7}
 867 0028 7047     		bx	lr
 868              		.cfi_endproc
 869              	.LFE20:
 870              		.size	__STREXH, .-__STREXH
 871              		.section	.text.__STREXW,"ax",%progbits
 872              		.align	2
 873              		.global	__STREXW
 874              		.thumb
 875              		.thumb_func
 876              		.type	__STREXW, %function
 877              	__STREXW:
 878              	.LFB21:
 756:.\Generated_Source\PSoC5/core_cm3.c **** 
 757:.\Generated_Source\PSoC5/core_cm3.c **** /**
 758:.\Generated_Source\PSoC5/core_cm3.c ****  * @brief  STR Exclusive (32 bit)
 759:.\Generated_Source\PSoC5/core_cm3.c ****  *
 760:.\Generated_Source\PSoC5/core_cm3.c ****  * @param  value  value to store
 761:.\Generated_Source\PSoC5/core_cm3.c ****  * @param  *addr  address pointer
 762:.\Generated_Source\PSoC5/core_cm3.c ****  * @return        successful / failed
 763:.\Generated_Source\PSoC5/core_cm3.c ****  *
 764:.\Generated_Source\PSoC5/core_cm3.c ****  * Exclusive STR command for 32 bit values
 765:.\Generated_Source\PSoC5/core_cm3.c ****  */
 766:.\Generated_Source\PSoC5/core_cm3.c **** uint32_t __STREXW(uint32_t value, uint32_t *addr)
 767:.\Generated_Source\PSoC5/core_cm3.c **** {
 879              		.loc 1 767 0
 880              		.cfi_startproc
 881              		@ args = 0, pretend = 0, frame = 16
 882              		@ frame_needed = 1, uses_anonymous_args = 0
ARM GAS  C:\Users\karunmj\AppData\Local\Temp\ccYTct49.s 			page 30


 883              		@ link register save eliminated.
 884 0000 80B4     		push	{r7}
 885              	.LCFI51:
 886              		.cfi_def_cfa_offset 4
 887 0002 85B0     		sub	sp, sp, #20
 888              	.LCFI52:
 889              		.cfi_def_cfa_offset 24
 890 0004 00AF     		add	r7, sp, #0
 891              		.cfi_offset 7, -4
 892              	.LCFI53:
 893              		.cfi_def_cfa_register 7
 894 0006 7860     		str	r0, [r7, #4]
 895 0008 3960     		str	r1, [r7, #0]
 768:.\Generated_Source\PSoC5/core_cm3.c ****    uint32_t result=0;
 896              		.loc 1 768 0
 897 000a 4FF00003 		mov	r3, #0
 898 000e FB60     		str	r3, [r7, #12]
 769:.\Generated_Source\PSoC5/core_cm3.c ****   
 770:.\Generated_Source\PSoC5/core_cm3.c ****    __ASM volatile ("strex %0, %2, [%1]" : "=r" (result) : "r" (addr), "r" (value) );
 899              		.loc 1 770 0
 900 0010 3B68     		ldr	r3, [r7, #0]
 901 0012 7A68     		ldr	r2, [r7, #4]
 902              	@ 770 ".\Generated_Source\PSoC5\core_cm3.c" 1
 903 0014 43E80023 		strex r3, r2, [r3]
 904              	@ 0 "" 2
 905              		.thumb
 906 0018 FB60     		str	r3, [r7, #12]
 771:.\Generated_Source\PSoC5/core_cm3.c ****    return(result);
 907              		.loc 1 771 0
 908 001a FB68     		ldr	r3, [r7, #12]
 772:.\Generated_Source\PSoC5/core_cm3.c **** }
 909              		.loc 1 772 0
 910 001c 1846     		mov	r0, r3
 911 001e 07F11407 		add	r7, r7, #20
 912 0022 BD46     		mov	sp, r7
 913 0024 80BC     		pop	{r7}
 914 0026 7047     		bx	lr
 915              		.cfi_endproc
 916              	.LFE21:
 917              		.size	__STREXW, .-__STREXW
 918              		.text
 919              	.Letext0: