ARM GAS  C:\Users\BRANKO~1\AppData\Local\Temp\ccIdHT88.s 			page 1


   1              		.syntax unified
   2              		.cpu cortex-m3
   3              		.fpu softvfp
   4              		.eabi_attribute 20, 1
   5              		.eabi_attribute 21, 1
   6              		.eabi_attribute 23, 3
   7              		.eabi_attribute 24, 1
   8              		.eabi_attribute 25, 1
   9              		.eabi_attribute 26, 1
  10              		.eabi_attribute 30, 6
  11              		.eabi_attribute 34, 1
  12              		.eabi_attribute 18, 4
  13              		.thumb
  14              		.file	"main.c"
  15              		.text
  16              	.Ltext0:
  17              		.cfi_sections	.debug_frame
  18              		.comm	wakeupIntervalCounter,2,2
  19              		.section	.text.WakeupIsr,"ax",%progbits
  20              		.align	2
  21              		.global	WakeupIsr
  22              		.thumb
  23              		.thumb_func
  24              		.type	WakeupIsr, %function
  25              	WakeupIsr:
  26              	.LFB56:
  27              		.file 1 ".\\main.c"
   1:.\main.c      **** /*******************************************************************************
   2:.\main.c      **** * File Name: main.c
   3:.\main.c      **** *
   4:.\main.c      **** * Version: 2.00
   5:.\main.c      **** *
   6:.\main.c      **** * Description:
   7:.\main.c      **** *  This is source code for the datasheet example of the Sleep Timer component.
   8:.\main.c      **** *
   9:.\main.c      **** ********************************************************************************
  10:.\main.c      **** * Copyright 2012-2014, Cypress Semiconductor Corporation. All rights reserved.
  11:.\main.c      **** * This software is owned by Cypress Semiconductor Corporation and is protected
  12:.\main.c      **** * by and subject to worldwide patent and copyright laws and treaties.
  13:.\main.c      **** * Therefore, you may use this software only as provided in the license agreement
  14:.\main.c      **** * accompanying the software package from which you obtained this software.
  15:.\main.c      **** * CYPRESS AND ITS SUPPLIERS MAKE NO WARRANTY OF ANY KIND, EXPRESS OR IMPLIED,
  16:.\main.c      **** * WITH REGARD TO THIS SOFTWARE, INCLUDING, BUT NOT LIMITED TO, NONINFRINGEMENT,
  17:.\main.c      **** * IMPLIED WARRANTIES OF MERCHANTABILITY AND FITNESS FOR A PARTICULAR PURPOSE.
  18:.\main.c      **** *******************************************************************************/
  19:.\main.c      **** 
  20:.\main.c      **** #include <project.h> //#include <device.h>
  21:.\main.c      **** 
  22:.\main.c      **** /******************************************************************************
  23:.\main.c      **** * Number of wakeups before turn LED on.
  24:.\main.c      **** ******************************************************************************/
  25:.\main.c      **** #define SLEEPTIMER_INTERVAL_COUNTER     (3840u)
  26:.\main.c      **** 
  27:.\main.c      **** /* Used to count wakeup events */
  28:.\main.c      **** uint16 wakeupIntervalCounter;
  29:.\main.c      **** 
  30:.\main.c      **** 
ARM GAS  C:\Users\BRANKO~1\AppData\Local\Temp\ccIdHT88.s 			page 2


  31:.\main.c      **** /*******************************************************************************
  32:.\main.c      **** * Function Name: WakeupIsr
  33:.\main.c      **** ********************************************************************************
  34:.\main.c      **** * Summary:
  35:.\main.c      **** *  The wakeup interrupt service routine.
  36:.\main.c      **** *
  37:.\main.c      **** * Parameters:
  38:.\main.c      **** *  None
  39:.\main.c      **** *
  40:.\main.c      **** * Return:
  41:.\main.c      **** *  None
  42:.\main.c      **** *
  43:.\main.c      **** *******************************************************************************/
  44:.\main.c      **** CY_ISR(WakeupIsr)
  45:.\main.c      **** {
  28              		.loc 1 45 0
  29              		.cfi_startproc
  30              		@ args = 0, pretend = 0, frame = 0
  31              		@ frame_needed = 1, uses_anonymous_args = 0
  32 0000 80B5     		push	{r7, lr}
  33              		.cfi_def_cfa_offset 8
  34              		.cfi_offset 7, -8
  35              		.cfi_offset 14, -4
  36 0002 00AF     		add	r7, sp, #0
  37              		.cfi_def_cfa_register 7
  46:.\main.c      ****     /***************************************************************************
  47:.\main.c      ****     * This function must always be called (when the Sleep Timer's interrupt
  48:.\main.c      ****     * is disabled or enabled) after wake up to clear the ctw_int status bit.
  49:.\main.c      ****     * It is required to call SleepTimer_GetStatus() within 1 ms (1 clock cycle
  50:.\main.c      ****     * of the ILO) after CTW event occurred.
  51:.\main.c      ****     ***************************************************************************/
  52:.\main.c      ****     SleepTimer_GetStatus();
  38              		.loc 1 52 0
  39 0004 FFF7FEFF 		bl	SleepTimer_GetStatus
  53:.\main.c      **** }
  40              		.loc 1 53 0
  41 0008 80BD     		pop	{r7, pc}
  42              		.cfi_endproc
  43              	.LFE56:
  44              		.size	WakeupIsr, .-WakeupIsr
  45 000a 00BF     		.section	.text.main,"ax",%progbits
  46              		.align	2
  47              		.global	main
  48              		.thumb
  49              		.thumb_func
  50              		.type	main, %function
  51              	main:
  52              	.LFB57:
  54:.\main.c      **** 
  55:.\main.c      **** 
  56:.\main.c      **** /*******************************************************************************
  57:.\main.c      **** * Function Name: main
  58:.\main.c      **** ********************************************************************************
  59:.\main.c      **** * Summary:
  60:.\main.c      **** *  Main function reconfigures SleepTimer (only for demonstration purposes) and
  61:.\main.c      **** *  continuously prepares device for the Sleep mode entry and enters it.
  62:.\main.c      **** *
ARM GAS  C:\Users\BRANKO~1\AppData\Local\Temp\ccIdHT88.s 			page 3


  63:.\main.c      **** * Parameters:
  64:.\main.c      **** *  None
  65:.\main.c      **** *
  66:.\main.c      **** * Return:
  67:.\main.c      **** *  None
  68:.\main.c      **** *
  69:.\main.c      **** *******************************************************************************/
  70:.\main.c      **** void main()
  71:.\main.c      **** {
  53              		.loc 1 71 0
  54              		.cfi_startproc
  55              		@ args = 0, pretend = 0, frame = 0
  56              		@ frame_needed = 1, uses_anonymous_args = 0
  57 0000 80B5     		push	{r7, lr}
  58              		.cfi_def_cfa_offset 8
  59              		.cfi_offset 7, -8
  60              		.cfi_offset 14, -4
  61 0002 00AF     		add	r7, sp, #0
  62              		.cfi_def_cfa_register 7
  72:.\main.c      ****     wakeupIntervalCounter = 0u;
  63              		.loc 1 72 0
  64 0004 1E4B     		ldr	r3, .L7
  65 0006 0022     		movs	r2, #0
  66 0008 1A80     		strh	r2, [r3]	@ movhi
  73:.\main.c      **** 
  74:.\main.c      ****     /* Enable global interrupts */
  75:.\main.c      ****     CyGlobalIntEnable;
  67              		.loc 1 75 0
  68              	@ 75 ".\main.c" 1
  69 000a 62B6     		CPSIE   i
  70              	@ 0 "" 2
  76:.\main.c      ****     
  77:.\main.c      ****     /* A short delay to make sure device is ready for low power mode entry */
  78:.\main.c      ****     CyDelay(5u);
  71              		.loc 1 78 0
  72              		.thumb
  73 000c 0520     		movs	r0, #5
  74 000e FFF7FEFF 		bl	CyDelay
  79:.\main.c      ****     
  80:.\main.c      ****     /* Start components */
  81:.\main.c      ****     isr_StartEx(WakeupIsr);
  75              		.loc 1 81 0
  76 0012 1C48     		ldr	r0, .L7+4
  77 0014 FFF7FEFF 		bl	isr_StartEx
  82:.\main.c      ****     
  83:.\main.c      ****     /* Start SleepTimer's operation with the customizer's settings */
  84:.\main.c      ****     SleepTimer_Start();
  78              		.loc 1 84 0
  79 0018 FFF7FEFF 		bl	SleepTimer_Start
  85:.\main.c      **** 
  86:.\main.c      ****     /* Optional section used for demonstration purposes */
  87:.\main.c      ****     SleepTimer_Stop();              /* Stop Sleep Timer's operation         */
  80              		.loc 1 87 0
  81 001c FFF7FEFF 		bl	SleepTimer_Stop
  88:.\main.c      ****     SleepTimer_EnableInt();         /* Enable interrupts. Not required.     */
  82              		.loc 1 88 0
  83 0020 FFF7FEFF 		bl	SleepTimer_EnableInt
ARM GAS  C:\Users\BRANKO~1\AppData\Local\Temp\ccIdHT88.s 			page 4


  89:.\main.c      ****     SleepTimer_SetInterval(SleepTimer__CTW_4_MS);    /* Set new interval    */
  84              		.loc 1 89 0
  85 0024 0220     		movs	r0, #2
  86 0026 FFF7FEFF 		bl	SleepTimer_SetInterval
  90:.\main.c      ****     SleepTimer_Start();             /* Start with the new settings          */
  87              		.loc 1 90 0
  88 002a FFF7FEFF 		bl	SleepTimer_Start
  89              	.L6:
  91:.\main.c      ****     
  92:.\main.c      ****     for(;;)
  93:.\main.c      ****     {
  94:.\main.c      ****         /* Prepares system clocks for the Sleep mode */
  95:.\main.c      ****         CyPmSaveClocks();
  90              		.loc 1 95 0
  91 002e FFF7FEFF 		bl	CyPmSaveClocks
  92              	.L5:
  96:.\main.c      **** 
  97:.\main.c      ****         do
  98:.\main.c      ****         {
  99:.\main.c      ****             /*******************************************************************
 100:.\main.c      ****             * Switch to the Sleep Mode for the other devices:
 101:.\main.c      ****             *  - PM_SLEEP_TIME_NONE: wakeup time is defined by Sleep Timer
 102:.\main.c      ****             *  - PM_SLEEP_SRC_CTW :  wakeup on CTW sources is allowed
 103:.\main.c      ****             *******************************************************************/
 104:.\main.c      ****             CyPmSleep(PM_SLEEP_TIME_NONE, PM_SLEEP_SRC_CTW);
  93              		.loc 1 104 0
  94 0032 0020     		movs	r0, #0
  95 0034 4FF40061 		mov	r1, #2048
  96 0038 FFF7FEFF 		bl	CyPmSleep
 105:.\main.c      **** 
 106:.\main.c      **** 
 107:.\main.c      ****             /***********************************************************************
 108:.\main.c      ****             * After the device is woken up the Sleep Timer's ISR is executed.
 109:.\main.c      ****             * Afterwards the CyPmSleep() execution is finished the clock
 110:.\main.c      ****             * configuration is restored.
 111:.\main.c      ****             ***********************************************************************/
 112:.\main.c      ****             if(SLEEPTIMER_INTERVAL_COUNTER == wakeupIntervalCounter)
  97              		.loc 1 112 0
  98 003c 104B     		ldr	r3, .L7
  99 003e 1B88     		ldrh	r3, [r3]
 100 0040 B3F5706F 		cmp	r3, #3840
 101 0044 0ED1     		bne	.L3
 113:.\main.c      ****             {
 114:.\main.c      ****                 /* Blink with LED */
 115:.\main.c      ****                 //(0u == LED_Read()) ? LED_Write(1u) : LED_Write(0u);
 116:.\main.c      **** 				LED_Write(!LED_Read());
 102              		.loc 1 116 0
 103 0046 FFF7FEFF 		bl	LED_Read
 104 004a 0346     		mov	r3, r0
 105 004c 002B     		cmp	r3, #0
 106 004e 14BF     		ite	ne
 107 0050 0023     		movne	r3, #0
 108 0052 0123     		moveq	r3, #1
 109 0054 DBB2     		uxtb	r3, r3
 110 0056 1846     		mov	r0, r3
 111 0058 FFF7FEFF 		bl	LED_Write
 117:.\main.c      ****                 wakeupIntervalCounter = 0u;
ARM GAS  C:\Users\BRANKO~1\AppData\Local\Temp\ccIdHT88.s 			page 5


 112              		.loc 1 117 0
 113 005c 084B     		ldr	r3, .L7
 114 005e 0022     		movs	r2, #0
 115 0060 1A80     		strh	r2, [r3]	@ movhi
 116 0062 05E0     		b	.L4
 117              	.L3:
 118:.\main.c      ****             }
 119:.\main.c      ****             else
 120:.\main.c      ****             {
 121:.\main.c      ****                 wakeupIntervalCounter++;
 118              		.loc 1 121 0
 119 0064 064B     		ldr	r3, .L7
 120 0066 1B88     		ldrh	r3, [r3]
 121 0068 0133     		adds	r3, r3, #1
 122 006a 9AB2     		uxth	r2, r3
 123 006c 044B     		ldr	r3, .L7
 124 006e 1A80     		strh	r2, [r3]	@ movhi
 125              	.L4:
 122:.\main.c      ****             }
 123:.\main.c      ****                 
 124:.\main.c      ****         } while (wakeupIntervalCounter != 0u);
 126              		.loc 1 124 0
 127 0070 034B     		ldr	r3, .L7
 128 0072 1B88     		ldrh	r3, [r3]
 129 0074 002B     		cmp	r3, #0
 130 0076 DCD1     		bne	.L5
 125:.\main.c      ****         
 126:.\main.c      **** 
 127:.\main.c      ****         /* Restore clock configuration */
 128:.\main.c      ****         CyPmRestoreClocks();
 131              		.loc 1 128 0
 132 0078 FFF7FEFF 		bl	CyPmRestoreClocks
 129:.\main.c      ****     }
 133              		.loc 1 129 0
 134 007c D7E7     		b	.L6
 135              	.L8:
 136 007e 00BF     		.align	2
 137              	.L7:
 138 0080 00000000 		.word	wakeupIntervalCounter
 139 0084 00000000 		.word	WakeupIsr
 140              		.cfi_endproc
 141              	.LFE57:
 142              		.size	main, .-main
 143              		.text
 144              	.Letext0:
 145              		.file 2 "c:\\program files (x86)\\cypress\\psoc creator\\3.1\\psoc creator\\import\\gnu_cs\\arm\\4
 146              		.file 3 "c:\\program files (x86)\\cypress\\psoc creator\\3.1\\psoc creator\\import\\gnu_cs\\arm\\4
 147              		.file 4 ".\\Generated_Source\\PSoC5/cytypes.h"
 148              		.file 5 ".\\Generated_Source\\PSoC5/core_cm3.h"