ARM GAS  C:\Users\BRANKO~1\AppData\Local\Temp\ccHD1p66.s 			page 1


   1              		.syntax unified
   2              		.cpu cortex-m3
   3              		.fpu softvfp
   4              		.eabi_attribute 20, 1
   5              		.eabi_attribute 21, 1
   6              		.eabi_attribute 23, 3
   7              		.eabi_attribute 24, 1
   8              		.eabi_attribute 25, 1
   9              		.eabi_attribute 26, 1
  10              		.eabi_attribute 30, 6
  11              		.eabi_attribute 34, 1
  12              		.eabi_attribute 18, 4
  13              		.thumb
  14              		.file	"Pin11.c"
  15              		.text
  16              	.Ltext0:
  17              		.cfi_sections	.debug_frame
  18              		.section	.text.Pin11_Write,"ax",%progbits
  19              		.align	2
  20              		.global	Pin11_Write
  21              		.thumb
  22              		.thumb_func
  23              		.type	Pin11_Write, %function
  24              	Pin11_Write:
  25              	.LFB0:
  26              		.file 1 ".\\Generated_Source\\PSoC5\\Pin11.c"
   1:.\Generated_Source\PSoC5/Pin11.c **** /*******************************************************************************
   2:.\Generated_Source\PSoC5/Pin11.c **** * File Name: Pin11.c  
   3:.\Generated_Source\PSoC5/Pin11.c **** * Version 2.10
   4:.\Generated_Source\PSoC5/Pin11.c **** *
   5:.\Generated_Source\PSoC5/Pin11.c **** * Description:
   6:.\Generated_Source\PSoC5/Pin11.c **** *  This file contains API to enable firmware control of a Pins component.
   7:.\Generated_Source\PSoC5/Pin11.c **** *
   8:.\Generated_Source\PSoC5/Pin11.c **** * Note:
   9:.\Generated_Source\PSoC5/Pin11.c **** *
  10:.\Generated_Source\PSoC5/Pin11.c **** ********************************************************************************
  11:.\Generated_Source\PSoC5/Pin11.c **** * Copyright 2008-2014, Cypress Semiconductor Corporation.  All rights reserved.
  12:.\Generated_Source\PSoC5/Pin11.c **** * You may use this file only in accordance with the license, terms, conditions, 
  13:.\Generated_Source\PSoC5/Pin11.c **** * disclaimers, and limitations in the end user license agreement accompanying 
  14:.\Generated_Source\PSoC5/Pin11.c **** * the software package with which this file was provided.
  15:.\Generated_Source\PSoC5/Pin11.c **** *******************************************************************************/
  16:.\Generated_Source\PSoC5/Pin11.c **** 
  17:.\Generated_Source\PSoC5/Pin11.c **** #include "cytypes.h"
  18:.\Generated_Source\PSoC5/Pin11.c **** #include "Pin11.h"
  19:.\Generated_Source\PSoC5/Pin11.c **** 
  20:.\Generated_Source\PSoC5/Pin11.c **** /* APIs are not generated for P15[7:6] on PSoC 5 */
  21:.\Generated_Source\PSoC5/Pin11.c **** #if !(CY_PSOC5A &&\
  22:.\Generated_Source\PSoC5/Pin11.c **** 	 Pin11__PORT == 15 && ((Pin11__MASK & 0xC0) != 0))
  23:.\Generated_Source\PSoC5/Pin11.c **** 
  24:.\Generated_Source\PSoC5/Pin11.c **** 
  25:.\Generated_Source\PSoC5/Pin11.c **** /*******************************************************************************
  26:.\Generated_Source\PSoC5/Pin11.c **** * Function Name: Pin11_Write
  27:.\Generated_Source\PSoC5/Pin11.c **** ********************************************************************************
  28:.\Generated_Source\PSoC5/Pin11.c **** *
  29:.\Generated_Source\PSoC5/Pin11.c **** * Summary:
  30:.\Generated_Source\PSoC5/Pin11.c **** *  Assign a new value to the digital port's data output register.  
  31:.\Generated_Source\PSoC5/Pin11.c **** *
ARM GAS  C:\Users\BRANKO~1\AppData\Local\Temp\ccHD1p66.s 			page 2


  32:.\Generated_Source\PSoC5/Pin11.c **** * Parameters:  
  33:.\Generated_Source\PSoC5/Pin11.c **** *  prtValue:  The value to be assigned to the Digital Port. 
  34:.\Generated_Source\PSoC5/Pin11.c **** *
  35:.\Generated_Source\PSoC5/Pin11.c **** * Return: 
  36:.\Generated_Source\PSoC5/Pin11.c **** *  None
  37:.\Generated_Source\PSoC5/Pin11.c **** *  
  38:.\Generated_Source\PSoC5/Pin11.c **** *******************************************************************************/
  39:.\Generated_Source\PSoC5/Pin11.c **** void Pin11_Write(uint8 value) 
  40:.\Generated_Source\PSoC5/Pin11.c **** {
  27              		.loc 1 40 0
  28              		.cfi_startproc
  29              		@ args = 0, pretend = 0, frame = 16
  30              		@ frame_needed = 1, uses_anonymous_args = 0
  31              		@ link register save eliminated.
  32 0000 80B4     		push	{r7}
  33              		.cfi_def_cfa_offset 4
  34              		.cfi_offset 7, -4
  35 0002 85B0     		sub	sp, sp, #20
  36              		.cfi_def_cfa_offset 24
  37 0004 00AF     		add	r7, sp, #0
  38              		.cfi_def_cfa_register 7
  39 0006 0346     		mov	r3, r0
  40 0008 FB71     		strb	r3, [r7, #7]
  41:.\Generated_Source\PSoC5/Pin11.c ****     uint8 staticBits = (Pin11_DR & (uint8)(~Pin11_MASK));
  41              		.loc 1 41 0
  42 000a 094B     		ldr	r3, .L2
  43 000c 1B78     		ldrb	r3, [r3]
  44 000e DBB2     		uxtb	r3, r3
  45 0010 03F07F03 		and	r3, r3, #127
  46 0014 FB73     		strb	r3, [r7, #15]
  42:.\Generated_Source\PSoC5/Pin11.c ****     Pin11_DR = staticBits | ((uint8)(value << Pin11_SHIFT) & Pin11_MASK);
  47              		.loc 1 42 0
  48 0016 064B     		ldr	r3, .L2
  49 0018 FA79     		ldrb	r2, [r7, #7]
  50 001a D201     		lsls	r2, r2, #7
  51 001c D1B2     		uxtb	r1, r2
  52 001e FA7B     		ldrb	r2, [r7, #15]
  53 0020 0A43     		orrs	r2, r2, r1
  54 0022 D2B2     		uxtb	r2, r2
  55 0024 1A70     		strb	r2, [r3]
  43:.\Generated_Source\PSoC5/Pin11.c **** }
  56              		.loc 1 43 0
  57 0026 1437     		adds	r7, r7, #20
  58 0028 BD46     		mov	sp, r7
  59              		@ sp needed
  60 002a 5DF8047B 		ldr	r7, [sp], #4
  61 002e 7047     		bx	lr
  62              	.L3:
  63              		.align	2
  64              	.L2:
  65 0030 C0510040 		.word	1073762752
  66              		.cfi_endproc
  67              	.LFE0:
  68              		.size	Pin11_Write, .-Pin11_Write
  69              		.section	.text.Pin11_SetDriveMode,"ax",%progbits
  70              		.align	2
  71              		.global	Pin11_SetDriveMode
ARM GAS  C:\Users\BRANKO~1\AppData\Local\Temp\ccHD1p66.s 			page 3


  72              		.thumb
  73              		.thumb_func
  74              		.type	Pin11_SetDriveMode, %function
  75              	Pin11_SetDriveMode:
  76              	.LFB1:
  44:.\Generated_Source\PSoC5/Pin11.c **** 
  45:.\Generated_Source\PSoC5/Pin11.c **** 
  46:.\Generated_Source\PSoC5/Pin11.c **** /*******************************************************************************
  47:.\Generated_Source\PSoC5/Pin11.c **** * Function Name: Pin11_SetDriveMode
  48:.\Generated_Source\PSoC5/Pin11.c **** ********************************************************************************
  49:.\Generated_Source\PSoC5/Pin11.c **** *
  50:.\Generated_Source\PSoC5/Pin11.c **** * Summary:
  51:.\Generated_Source\PSoC5/Pin11.c **** *  Change the drive mode on the pins of the port.
  52:.\Generated_Source\PSoC5/Pin11.c **** * 
  53:.\Generated_Source\PSoC5/Pin11.c **** * Parameters:  
  54:.\Generated_Source\PSoC5/Pin11.c **** *  mode:  Change the pins to one of the following drive modes.
  55:.\Generated_Source\PSoC5/Pin11.c **** *
  56:.\Generated_Source\PSoC5/Pin11.c **** *  Pin11_DM_STRONG     Strong Drive 
  57:.\Generated_Source\PSoC5/Pin11.c **** *  Pin11_DM_OD_HI      Open Drain, Drives High 
  58:.\Generated_Source\PSoC5/Pin11.c **** *  Pin11_DM_OD_LO      Open Drain, Drives Low 
  59:.\Generated_Source\PSoC5/Pin11.c **** *  Pin11_DM_RES_UP     Resistive Pull Up 
  60:.\Generated_Source\PSoC5/Pin11.c **** *  Pin11_DM_RES_DWN    Resistive Pull Down 
  61:.\Generated_Source\PSoC5/Pin11.c **** *  Pin11_DM_RES_UPDWN  Resistive Pull Up/Down 
  62:.\Generated_Source\PSoC5/Pin11.c **** *  Pin11_DM_DIG_HIZ    High Impedance Digital 
  63:.\Generated_Source\PSoC5/Pin11.c **** *  Pin11_DM_ALG_HIZ    High Impedance Analog 
  64:.\Generated_Source\PSoC5/Pin11.c **** *
  65:.\Generated_Source\PSoC5/Pin11.c **** * Return: 
  66:.\Generated_Source\PSoC5/Pin11.c **** *  None
  67:.\Generated_Source\PSoC5/Pin11.c **** *
  68:.\Generated_Source\PSoC5/Pin11.c **** *******************************************************************************/
  69:.\Generated_Source\PSoC5/Pin11.c **** void Pin11_SetDriveMode(uint8 mode) 
  70:.\Generated_Source\PSoC5/Pin11.c **** {
  77              		.loc 1 70 0
  78              		.cfi_startproc
  79              		@ args = 0, pretend = 0, frame = 8
  80              		@ frame_needed = 1, uses_anonymous_args = 0
  81              		@ link register save eliminated.
  82 0000 80B4     		push	{r7}
  83              		.cfi_def_cfa_offset 4
  84              		.cfi_offset 7, -4
  85 0002 83B0     		sub	sp, sp, #12
  86              		.cfi_def_cfa_offset 16
  87 0004 00AF     		add	r7, sp, #0
  88              		.cfi_def_cfa_register 7
  89 0006 0346     		mov	r3, r0
  90 0008 FB71     		strb	r3, [r7, #7]
  71:.\Generated_Source\PSoC5/Pin11.c **** 	CyPins_SetPinDriveMode(Pin11_0, mode);
  91              		.loc 1 71 0
  92 000a 0A4B     		ldr	r3, .L5
  93 000c 094A     		ldr	r2, .L5
  94 000e 1278     		ldrb	r2, [r2]
  95 0010 D2B2     		uxtb	r2, r2
  96 0012 D2B2     		uxtb	r2, r2
  97 0014 22F00E02 		bic	r2, r2, #14
  98 0018 D1B2     		uxtb	r1, r2
  99 001a FA79     		ldrb	r2, [r7, #7]	@ zero_extendqisi2
 100 001c 02F00E02 		and	r2, r2, #14
ARM GAS  C:\Users\BRANKO~1\AppData\Local\Temp\ccHD1p66.s 			page 4


 101 0020 D2B2     		uxtb	r2, r2
 102 0022 0A43     		orrs	r2, r2, r1
 103 0024 D2B2     		uxtb	r2, r2
 104 0026 D2B2     		uxtb	r2, r2
 105 0028 1A70     		strb	r2, [r3]
  72:.\Generated_Source\PSoC5/Pin11.c **** }
 106              		.loc 1 72 0
 107 002a 0C37     		adds	r7, r7, #12
 108 002c BD46     		mov	sp, r7
 109              		@ sp needed
 110 002e 5DF8047B 		ldr	r7, [sp], #4
 111 0032 7047     		bx	lr
 112              	.L6:
 113              		.align	2
 114              	.L5:
 115 0034 67500040 		.word	1073762407
 116              		.cfi_endproc
 117              	.LFE1:
 118              		.size	Pin11_SetDriveMode, .-Pin11_SetDriveMode
 119              		.section	.text.Pin11_Read,"ax",%progbits
 120              		.align	2
 121              		.global	Pin11_Read
 122              		.thumb
 123              		.thumb_func
 124              		.type	Pin11_Read, %function
 125              	Pin11_Read:
 126              	.LFB2:
  73:.\Generated_Source\PSoC5/Pin11.c **** 
  74:.\Generated_Source\PSoC5/Pin11.c **** 
  75:.\Generated_Source\PSoC5/Pin11.c **** /*******************************************************************************
  76:.\Generated_Source\PSoC5/Pin11.c **** * Function Name: Pin11_Read
  77:.\Generated_Source\PSoC5/Pin11.c **** ********************************************************************************
  78:.\Generated_Source\PSoC5/Pin11.c **** *
  79:.\Generated_Source\PSoC5/Pin11.c **** * Summary:
  80:.\Generated_Source\PSoC5/Pin11.c **** *  Read the current value on the pins of the Digital Port in right justified 
  81:.\Generated_Source\PSoC5/Pin11.c **** *  form.
  82:.\Generated_Source\PSoC5/Pin11.c **** *
  83:.\Generated_Source\PSoC5/Pin11.c **** * Parameters:  
  84:.\Generated_Source\PSoC5/Pin11.c **** *  None
  85:.\Generated_Source\PSoC5/Pin11.c **** *
  86:.\Generated_Source\PSoC5/Pin11.c **** * Return: 
  87:.\Generated_Source\PSoC5/Pin11.c **** *  Returns the current value of the Digital Port as a right justified number
  88:.\Generated_Source\PSoC5/Pin11.c **** *  
  89:.\Generated_Source\PSoC5/Pin11.c **** * Note:
  90:.\Generated_Source\PSoC5/Pin11.c **** *  Macro Pin11_ReadPS calls this function. 
  91:.\Generated_Source\PSoC5/Pin11.c **** *  
  92:.\Generated_Source\PSoC5/Pin11.c **** *******************************************************************************/
  93:.\Generated_Source\PSoC5/Pin11.c **** uint8 Pin11_Read(void) 
  94:.\Generated_Source\PSoC5/Pin11.c **** {
 127              		.loc 1 94 0
 128              		.cfi_startproc
 129              		@ args = 0, pretend = 0, frame = 0
 130              		@ frame_needed = 1, uses_anonymous_args = 0
 131              		@ link register save eliminated.
 132 0000 80B4     		push	{r7}
 133              		.cfi_def_cfa_offset 4
 134              		.cfi_offset 7, -4
ARM GAS  C:\Users\BRANKO~1\AppData\Local\Temp\ccHD1p66.s 			page 5


 135 0002 00AF     		add	r7, sp, #0
 136              		.cfi_def_cfa_register 7
  95:.\Generated_Source\PSoC5/Pin11.c ****     return (Pin11_PS & Pin11_MASK) >> Pin11_SHIFT;
 137              		.loc 1 95 0
 138 0004 044B     		ldr	r3, .L9
 139 0006 1B78     		ldrb	r3, [r3]
 140 0008 DBB2     		uxtb	r3, r3
 141 000a DB09     		lsrs	r3, r3, #7
 142 000c DBB2     		uxtb	r3, r3
  96:.\Generated_Source\PSoC5/Pin11.c **** }
 143              		.loc 1 96 0
 144 000e 1846     		mov	r0, r3
 145 0010 BD46     		mov	sp, r7
 146              		@ sp needed
 147 0012 5DF8047B 		ldr	r7, [sp], #4
 148 0016 7047     		bx	lr
 149              	.L10:
 150              		.align	2
 151              	.L9:
 152 0018 C1510040 		.word	1073762753
 153              		.cfi_endproc
 154              	.LFE2:
 155              		.size	Pin11_Read, .-Pin11_Read
 156              		.section	.text.Pin11_ReadDataReg,"ax",%progbits
 157              		.align	2
 158              		.global	Pin11_ReadDataReg
 159              		.thumb
 160              		.thumb_func
 161              		.type	Pin11_ReadDataReg, %function
 162              	Pin11_ReadDataReg:
 163              	.LFB3:
  97:.\Generated_Source\PSoC5/Pin11.c **** 
  98:.\Generated_Source\PSoC5/Pin11.c **** 
  99:.\Generated_Source\PSoC5/Pin11.c **** /*******************************************************************************
 100:.\Generated_Source\PSoC5/Pin11.c **** * Function Name: Pin11_ReadDataReg
 101:.\Generated_Source\PSoC5/Pin11.c **** ********************************************************************************
 102:.\Generated_Source\PSoC5/Pin11.c **** *
 103:.\Generated_Source\PSoC5/Pin11.c **** * Summary:
 104:.\Generated_Source\PSoC5/Pin11.c **** *  Read the current value assigned to a Digital Port's data output register
 105:.\Generated_Source\PSoC5/Pin11.c **** *
 106:.\Generated_Source\PSoC5/Pin11.c **** * Parameters:  
 107:.\Generated_Source\PSoC5/Pin11.c **** *  None 
 108:.\Generated_Source\PSoC5/Pin11.c **** *
 109:.\Generated_Source\PSoC5/Pin11.c **** * Return: 
 110:.\Generated_Source\PSoC5/Pin11.c **** *  Returns the current value assigned to the Digital Port's data output register
 111:.\Generated_Source\PSoC5/Pin11.c **** *  
 112:.\Generated_Source\PSoC5/Pin11.c **** *******************************************************************************/
 113:.\Generated_Source\PSoC5/Pin11.c **** uint8 Pin11_ReadDataReg(void) 
 114:.\Generated_Source\PSoC5/Pin11.c **** {
 164              		.loc 1 114 0
 165              		.cfi_startproc
 166              		@ args = 0, pretend = 0, frame = 0
 167              		@ frame_needed = 1, uses_anonymous_args = 0
 168              		@ link register save eliminated.
 169 0000 80B4     		push	{r7}
 170              		.cfi_def_cfa_offset 4
 171              		.cfi_offset 7, -4
ARM GAS  C:\Users\BRANKO~1\AppData\Local\Temp\ccHD1p66.s 			page 6


 172 0002 00AF     		add	r7, sp, #0
 173              		.cfi_def_cfa_register 7
 115:.\Generated_Source\PSoC5/Pin11.c ****     return (Pin11_DR & Pin11_MASK) >> Pin11_SHIFT;
 174              		.loc 1 115 0
 175 0004 044B     		ldr	r3, .L13
 176 0006 1B78     		ldrb	r3, [r3]
 177 0008 DBB2     		uxtb	r3, r3
 178 000a DB09     		lsrs	r3, r3, #7
 179 000c DBB2     		uxtb	r3, r3
 116:.\Generated_Source\PSoC5/Pin11.c **** }
 180              		.loc 1 116 0
 181 000e 1846     		mov	r0, r3
 182 0010 BD46     		mov	sp, r7
 183              		@ sp needed
 184 0012 5DF8047B 		ldr	r7, [sp], #4
 185 0016 7047     		bx	lr
 186              	.L14:
 187              		.align	2
 188              	.L13:
 189 0018 C0510040 		.word	1073762752
 190              		.cfi_endproc
 191              	.LFE3:
 192              		.size	Pin11_ReadDataReg, .-Pin11_ReadDataReg
 193              		.text
 194              	.Letext0:
 195              		.file 2 ".\\Generated_Source\\PSoC5\\cytypes.h"