ARM GAS  C:\Users\karunmj\AppData\Local\Temp\ccGHUrS9.s 			page 1


   1              		.syntax unified
   2              		.cpu cortex-m3
   3              		.fpu softvfp
   4              		.eabi_attribute 20, 1
   5              		.eabi_attribute 21, 1
   6              		.eabi_attribute 23, 3
   7              		.eabi_attribute 24, 1
   8              		.eabi_attribute 25, 1
   9              		.eabi_attribute 26, 1
  10              		.eabi_attribute 30, 6
  11              		.eabi_attribute 18, 4
  12              		.thumb
  13              		.file	"autosampler.c"
  20 0000 E7000000 		.text
  20      02005A00 
  20      00000201 
  20      FB0E0D00 
  20      01010101 
  21              	.Ltext0:
  22              		.cfi_sections	.debug_frame
  23              		.global	SampleCount
  24              		.bss
  25              		.type	SampleCount, %object
  26              		.size	SampleCount, 1
  27              	SampleCount:
  28 0000 00       		.space	1
  29              		.global	SampleCount1
  30              		.type	SampleCount1, %object
  31              		.size	SampleCount1, 1
  32              	SampleCount1:
  33 0001 00       		.space	1
  34              		.comm	autosampler_state,1,1
  35              		.section	.text.autosampler_start,"ax",%progbits
  36              		.align	2
  37              		.global	autosampler_start
  38              		.thumb
  39              		.thumb_func
  40              		.type	autosampler_start, %function
  41              	autosampler_start:
  42              	.LFB29:
  43              		.file 1 ".\\autosampler.c"
   1:.\autosampler.c **** /* ========================================
   2:.\autosampler.c ****  *
   3:.\autosampler.c ****  * Copyright YOUR COMPANY, THE YEAR
   4:.\autosampler.c ****  * All Rights Reserved
   5:.\autosampler.c ****  * UNPUBLISHED, LICENSED SOFTWARE.
   6:.\autosampler.c ****  *
   7:.\autosampler.c ****  * CONFIDENTIAL AND PROPRIETARY INFORMATION
   8:.\autosampler.c ****  * WHICH IS THE PROPERTY OF your company.
   9:.\autosampler.c ****  *
  10:.\autosampler.c ****  * ========================================
ARM GAS  C:\Users\karunmj\AppData\Local\Temp\ccGHUrS9.s 			page 2


  11:.\autosampler.c **** */
  12:.\autosampler.c **** #include <device.h>
  13:.\autosampler.c **** #include <string.h>
  14:.\autosampler.c **** #include "autosampler.h"
  15:.\autosampler.c **** //#include debug.h
  16:.\autosampler.c **** 
  17:.\autosampler.c **** // prototype bottle_count interrupt
  18:.\autosampler.c **** CY_ISR_PROTO(isr_SampleCounter);
  19:.\autosampler.c **** 
  20:.\autosampler.c **** // Declare variables
  21:.\autosampler.c **** uint8 SampleCount = 0, SampleCount1 = 0, autosampler_state;;
  22:.\autosampler.c **** 
  23:.\autosampler.c **** uint8 autosampler_start(){
  44              		.loc 1 23 0
  45              		.cfi_startproc
  46              		@ args = 0, pretend = 0, frame = 0
  47              		@ frame_needed = 1, uses_anonymous_args = 0
  48 0000 80B5     		push	{r7, lr}
  49              	.LCFI0:
  50              		.cfi_def_cfa_offset 8
  51 0002 00AF     		add	r7, sp, #0
  52              		.cfi_offset 14, -4
  53              		.cfi_offset 7, -8
  54              	.LCFI1:
  55              		.cfi_def_cfa_register 7
  24:.\autosampler.c ****     isr_SampleCounter_StartEx(isr_SampleCounter);
  56              		.loc 1 24 0
  57 0004 40F20000 		movw	r0, #:lower16:isr_SampleCounter
  58 0008 C0F20000 		movt	r0, #:upper16:isr_SampleCounter
  59 000c FFF7FEFF 		bl	isr_SampleCounter_StartEx
  25:.\autosampler.c ****     autosampler_state = AUTOSAMPLER_STATE_OFF;
  60              		.loc 1 25 0
  61 0010 40F20003 		movw	r3, #:lower16:autosampler_state
  62 0014 C0F20003 		movt	r3, #:upper16:autosampler_state
  63 0018 4FF00002 		mov	r2, #0
  64 001c 1A70     		strb	r2, [r3, #0]
  26:.\autosampler.c ****     
  27:.\autosampler.c ****     return 1u;
  65              		.loc 1 27 0
  66 001e 4FF00103 		mov	r3, #1
  28:.\autosampler.c **** }
  67              		.loc 1 28 0
  68 0022 1846     		mov	r0, r3
  69 0024 80BD     		pop	{r7, pc}
  70              		.cfi_endproc
  71              	.LFE29:
  72              		.size	autosampler_start, .-autosampler_start
  73 0026 00BF     		.section	.text.autosampler_stop,"ax",%progbits
  74              		.align	2
  75              		.global	autosampler_stop
  76              		.thumb
  77              		.thumb_func
  78              		.type	autosampler_stop, %function
  79              	autosampler_stop:
  80              	.LFB30:
  29:.\autosampler.c **** 
  30:.\autosampler.c **** uint8 autosampler_stop() {
ARM GAS  C:\Users\karunmj\AppData\Local\Temp\ccGHUrS9.s 			page 3


  81              		.loc 1 30 0
  82              		.cfi_startproc
  83              		@ args = 0, pretend = 0, frame = 0
  84              		@ frame_needed = 1, uses_anonymous_args = 0
  85              		@ link register save eliminated.
  86 0000 80B4     		push	{r7}
  87              	.LCFI2:
  88              		.cfi_def_cfa_offset 4
  89 0002 00AF     		add	r7, sp, #0
  90              		.cfi_offset 7, -4
  91              	.LCFI3:
  92              		.cfi_def_cfa_register 7
  31:.\autosampler.c ****     return 1u;
  93              		.loc 1 31 0
  94 0004 4FF00103 		mov	r3, #1
  32:.\autosampler.c **** }
  95              		.loc 1 32 0
  96 0008 1846     		mov	r0, r3
  97 000a BD46     		mov	sp, r7
  98 000c 80BC     		pop	{r7}
  99 000e 7047     		bx	lr
 100              		.cfi_endproc
 101              	.LFE30:
 102              		.size	autosampler_stop, .-autosampler_stop
 103              		.section	.text.autosampler_power_on,"ax",%progbits
 104              		.align	2
 105              		.global	autosampler_power_on
 106              		.thumb
 107              		.thumb_func
 108              		.type	autosampler_power_on, %function
 109              	autosampler_power_on:
 110              	.LFB31:
  33:.\autosampler.c **** 
  34:.\autosampler.c **** /*
  35:.\autosampler.c **** Start the autosampler.  Then power it on.
  36:.\autosampler.c **** */
  37:.\autosampler.c **** uint8 autosampler_power_on() {
 111              		.loc 1 37 0
 112              		.cfi_startproc
 113              		@ args = 0, pretend = 0, frame = 0
 114              		@ frame_needed = 1, uses_anonymous_args = 0
 115 0000 80B5     		push	{r7, lr}
 116              	.LCFI4:
 117              		.cfi_def_cfa_offset 8
 118 0002 00AF     		add	r7, sp, #0
 119              		.cfi_offset 14, -4
 120              		.cfi_offset 7, -8
 121              	.LCFI5:
 122              		.cfi_def_cfa_register 7
  38:.\autosampler.c ****     Pin_Sampler_Power_Write(0u);
 123              		.loc 1 38 0
 124 0004 4FF00000 		mov	r0, #0
 125 0008 FFF7FEFF 		bl	Pin_Sampler_Power_Write
  39:.\autosampler.c ****     CyDelay(1000u);//give the sampler time to boot
 126              		.loc 1 39 0
 127 000c 4FF47A70 		mov	r0, #1000
 128 0010 FFF7FEFF 		bl	CyDelay
ARM GAS  C:\Users\karunmj\AppData\Local\Temp\ccGHUrS9.s 			page 4


  40:.\autosampler.c ****     
  41:.\autosampler.c ****     autosampler_state = AUTOSAMPLER_STATE_IDLE;
 129              		.loc 1 41 0
 130 0014 40F20003 		movw	r3, #:lower16:autosampler_state
 131 0018 C0F20003 		movt	r3, #:upper16:autosampler_state
 132 001c 4FF00102 		mov	r2, #1
 133 0020 1A70     		strb	r2, [r3, #0]
  42:.\autosampler.c ****     
  43:.\autosampler.c ****     return 1u;
 134              		.loc 1 43 0
 135 0022 4FF00103 		mov	r3, #1
  44:.\autosampler.c **** }
 136              		.loc 1 44 0
 137 0026 1846     		mov	r0, r3
 138 0028 80BD     		pop	{r7, pc}
 139              		.cfi_endproc
 140              	.LFE31:
 141              		.size	autosampler_power_on, .-autosampler_power_on
 142 002a 00BF     		.section	.text.autosampler_power_off,"ax",%progbits
 143              		.align	2
 144              		.global	autosampler_power_off
 145              		.thumb
 146              		.thumb_func
 147              		.type	autosampler_power_off, %function
 148              	autosampler_power_off:
 149              	.LFB32:
  45:.\autosampler.c **** 
  46:.\autosampler.c **** uint8 autosampler_power_off() {
 150              		.loc 1 46 0
 151              		.cfi_startproc
 152              		@ args = 0, pretend = 0, frame = 0
 153              		@ frame_needed = 1, uses_anonymous_args = 0
 154 0000 80B5     		push	{r7, lr}
 155              	.LCFI6:
 156              		.cfi_def_cfa_offset 8
 157 0002 00AF     		add	r7, sp, #0
 158              		.cfi_offset 14, -4
 159              		.cfi_offset 7, -8
 160              	.LCFI7:
 161              		.cfi_def_cfa_register 7
  47:.\autosampler.c ****     Pin_Sampler_Power_Write(1u);
 162              		.loc 1 47 0
 163 0004 4FF00100 		mov	r0, #1
 164 0008 FFF7FEFF 		bl	Pin_Sampler_Power_Write
  48:.\autosampler.c ****     autosampler_state = AUTOSAMPLER_STATE_OFF;
 165              		.loc 1 48 0
 166 000c 40F20003 		movw	r3, #:lower16:autosampler_state
 167 0010 C0F20003 		movt	r3, #:upper16:autosampler_state
 168 0014 4FF00002 		mov	r2, #0
 169 0018 1A70     		strb	r2, [r3, #0]
  49:.\autosampler.c ****     
  50:.\autosampler.c ****     return 1u;
 170              		.loc 1 50 0
 171 001a 4FF00103 		mov	r3, #1
  51:.\autosampler.c **** }
 172              		.loc 1 51 0
 173 001e 1846     		mov	r0, r3
ARM GAS  C:\Users\karunmj\AppData\Local\Temp\ccGHUrS9.s 			page 5


 174 0020 80BD     		pop	{r7, pc}
 175              		.cfi_endproc
 176              	.LFE32:
 177              		.size	autosampler_power_off, .-autosampler_power_off
 178 0022 00BF     		.section	.text.autosampler_take_sampler,"ax",%progbits
 179              		.align	2
 180              		.global	autosampler_take_sampler
 181              		.thumb
 182              		.thumb_func
 183              		.type	autosampler_take_sampler, %function
 184              	autosampler_take_sampler:
 185              	.LFB33:
  52:.\autosampler.c **** 
  53:.\autosampler.c **** uint8 autosampler_take_sampler(uint8* count){
 186              		.loc 1 53 0
 187              		.cfi_startproc
 188              		@ args = 0, pretend = 0, frame = 24
 189              		@ frame_needed = 1, uses_anonymous_args = 0
 190 0000 80B5     		push	{r7, lr}
 191              	.LCFI8:
 192              		.cfi_def_cfa_offset 8
 193 0002 86B0     		sub	sp, sp, #24
 194              	.LCFI9:
 195              		.cfi_def_cfa_offset 32
 196 0004 00AF     		add	r7, sp, #0
 197              		.cfi_offset 14, -4
 198              		.cfi_offset 7, -8
 199              	.LCFI10:
 200              		.cfi_def_cfa_register 7
 201 0006 7860     		str	r0, [r7, #4]
  54:.\autosampler.c ****     
  55:.\autosampler.c ****     if (SampleCount >= MAX_BOTTLE_COUNT) {        
 202              		.loc 1 55 0
 203 0008 40F20003 		movw	r3, #:lower16:SampleCount
 204 000c C0F20003 		movt	r3, #:upper16:SampleCount
 205 0010 1B78     		ldrb	r3, [r3, #0]	@ zero_extendqisi2
 206 0012 172B     		cmp	r3, #23
 207 0014 02D9     		bls	.L10
  56:.\autosampler.c ****         //debug_write("(autosampler(): MAX_BOTTLE_COUNT met");
  57:.\autosampler.c ****         return 0;
 208              		.loc 1 57 0
 209 0016 4FF00003 		mov	r3, #0
 210 001a 74E0     		b	.L11
 211              	.L10:
  58:.\autosampler.c ****     }
  59:.\autosampler.c ****     
  60:.\autosampler.c ****     uint32 i = 0u, delay = 100u, interval;
 212              		.loc 1 60 0
 213 001c 4FF00003 		mov	r3, #0
 214 0020 FB60     		str	r3, [r7, #12]
 215 0022 4FF06403 		mov	r3, #100
 216 0026 3B61     		str	r3, [r7, #16]
  61:.\autosampler.c ****     
  62:.\autosampler.c ****     autosampler_state = AUTOSAMPLER_STATE_BUSY;
 217              		.loc 1 62 0
 218 0028 40F20003 		movw	r3, #:lower16:autosampler_state
 219 002c C0F20003 		movt	r3, #:upper16:autosampler_state
ARM GAS  C:\Users\karunmj\AppData\Local\Temp\ccGHUrS9.s 			page 6


 220 0030 4FF00302 		mov	r2, #3
 221 0034 1A70     		strb	r2, [r3, #0]
  63:.\autosampler.c ****     
  64:.\autosampler.c ****     // Initially set trigger high
  65:.\autosampler.c ****     Pin_Sampler_Trigger_Write(1u);
 222              		.loc 1 65 0
 223 0036 4FF00100 		mov	r0, #1
 224 003a FFF7FEFF 		bl	Pin_Sampler_Trigger_Write
  66:.\autosampler.c ****         
  67:.\autosampler.c ****     // Send PULSE_COUNT pulses @ 10Hz to trigger sampler
  68:.\autosampler.c ****     for(i=0; i < PULSE_COUNT; i++){
 225              		.loc 1 68 0
 226 003e 4FF00003 		mov	r3, #0
 227 0042 FB60     		str	r3, [r7, #12]
 228 0044 13E0     		b	.L12
 229              	.L13:
  69:.\autosampler.c ****         Pin_Sampler_Trigger_Write(0u);
 230              		.loc 1 69 0
 231 0046 4FF00000 		mov	r0, #0
 232 004a FFF7FEFF 		bl	Pin_Sampler_Trigger_Write
  70:.\autosampler.c ****         CyDelay(100u);
 233              		.loc 1 70 0
 234 004e 4FF06400 		mov	r0, #100
 235 0052 FFF7FEFF 		bl	CyDelay
  71:.\autosampler.c ****         Pin_Sampler_Trigger_Write(1u);
 236              		.loc 1 71 0
 237 0056 4FF00100 		mov	r0, #1
 238 005a FFF7FEFF 		bl	Pin_Sampler_Trigger_Write
  72:.\autosampler.c ****         CyDelay(100u);
 239              		.loc 1 72 0
 240 005e 4FF06400 		mov	r0, #100
 241 0062 FFF7FEFF 		bl	CyDelay
 242              		.loc 1 68 0
 243 0066 FB68     		ldr	r3, [r7, #12]
 244 0068 03F10103 		add	r3, r3, #1
 245 006c FB60     		str	r3, [r7, #12]
 246              	.L12:
 247 006e FB68     		ldr	r3, [r7, #12]
 248 0070 132B     		cmp	r3, #19
 249 0072 E8D9     		bls	.L13
  73:.\autosampler.c ****     }
  74:.\autosampler.c ****     
  75:.\autosampler.c ****     interval =  2u*60*1000/delay;           // Wait Max of 2 Minutes for distributor arm to move
 250              		.loc 1 75 0
 251 0074 4DF2C043 		movw	r3, #:lower16:120000
 252 0078 C0F20103 		movt	r3, #:upper16:120000
 253 007c 3A69     		ldr	r2, [r7, #16]
 254 007e B3FBF2F3 		udiv	r3, r3, r2
 255 0082 7B61     		str	r3, [r7, #20]
  76:.\autosampler.c ****     //while(Pin_Sampler_Completed_Sample_Read()==0);
  77:.\autosampler.c ****     for (i = 0; i < interval ; i++) {  
 256              		.loc 1 77 0
 257 0084 4FF00003 		mov	r3, #0
 258 0088 FB60     		str	r3, [r7, #12]
 259 008a 0BE0     		b	.L14
 260              	.L17:
  78:.\autosampler.c ****         CyDelay(delay);
ARM GAS  C:\Users\karunmj\AppData\Local\Temp\ccGHUrS9.s 			page 7


 261              		.loc 1 78 0
 262 008c 3869     		ldr	r0, [r7, #16]
 263 008e FFF7FEFF 		bl	CyDelay
  79:.\autosampler.c ****         if (Pin_Sampler_Completed_Sample_Read()!=0) {
 264              		.loc 1 79 0
 265 0092 FFF7FEFF 		bl	Pin_Sampler_Completed_Sample_Read
 266 0096 0346     		mov	r3, r0
 267 0098 002B     		cmp	r3, #0
 268 009a 08D1     		bne	.L23
 269              	.L15:
 270              		.loc 1 77 0
 271 009c FB68     		ldr	r3, [r7, #12]
 272 009e 03F10103 		add	r3, r3, #1
 273 00a2 FB60     		str	r3, [r7, #12]
 274              	.L14:
 275 00a4 FA68     		ldr	r2, [r7, #12]
 276 00a6 7B69     		ldr	r3, [r7, #20]
 277 00a8 9A42     		cmp	r2, r3
 278 00aa EFD3     		bcc	.L17
 279 00ac 00E0     		b	.L16
 280              	.L23:
  80:.\autosampler.c ****             break;
 281              		.loc 1 80 0
 282 00ae 00BF     		nop
 283              	.L16:
  81:.\autosampler.c ****         }
  82:.\autosampler.c ****     }
  83:.\autosampler.c ****     
  84:.\autosampler.c ****     //while(Pin_Sampler_Completed_Sample_Read()!=0);
  85:.\autosampler.c ****     if (Pin_Sampler_Completed_Sample_Read() != 0) {
 284              		.loc 1 85 0
 285 00b0 FFF7FEFF 		bl	Pin_Sampler_Completed_Sample_Read
 286 00b4 0346     		mov	r3, r0
 287 00b6 002B     		cmp	r3, #0
 288 00b8 1DD0     		beq	.L18
  86:.\autosampler.c ****         //SampleCount = BottleCount_Read(); // Should be zero always
  87:.\autosampler.c ****         
  88:.\autosampler.c ****         interval =  4u*60*1000/delay;       // Wait Max of 4 Minutes for pumping to complete
 289              		.loc 1 88 0
 290 00ba 4AF68013 		movw	r3, #:lower16:240000
 291 00be C0F20303 		movt	r3, #:upper16:240000
 292 00c2 3A69     		ldr	r2, [r7, #16]
 293 00c4 B3FBF2F3 		udiv	r3, r3, r2
 294 00c8 7B61     		str	r3, [r7, #20]
  89:.\autosampler.c ****         for (i = 0; i < interval ; i++) { 
 295              		.loc 1 89 0
 296 00ca 4FF00003 		mov	r3, #0
 297 00ce FB60     		str	r3, [r7, #12]
 298 00d0 0BE0     		b	.L19
 299              	.L21:
  90:.\autosampler.c ****             CyDelay(delay);
 300              		.loc 1 90 0
 301 00d2 3869     		ldr	r0, [r7, #16]
 302 00d4 FFF7FEFF 		bl	CyDelay
  91:.\autosampler.c ****             if (Pin_Sampler_Completed_Sample_Read()==0) {
 303              		.loc 1 91 0
 304 00d8 FFF7FEFF 		bl	Pin_Sampler_Completed_Sample_Read
ARM GAS  C:\Users\karunmj\AppData\Local\Temp\ccGHUrS9.s 			page 8


 305 00dc 0346     		mov	r3, r0
 306 00de 002B     		cmp	r3, #0
 307 00e0 08D0     		beq	.L24
 308              	.L20:
 309              		.loc 1 89 0
 310 00e2 FB68     		ldr	r3, [r7, #12]
 311 00e4 03F10103 		add	r3, r3, #1
 312 00e8 FB60     		str	r3, [r7, #12]
 313              	.L19:
 314 00ea FA68     		ldr	r2, [r7, #12]
 315 00ec 7B69     		ldr	r3, [r7, #20]
 316 00ee 9A42     		cmp	r2, r3
 317 00f0 EFD3     		bcc	.L21
 318 00f2 00E0     		b	.L18
 319              	.L24:
  92:.\autosampler.c ****                 break;
 320              		.loc 1 92 0
 321 00f4 00BF     		nop
 322              	.L18:
  93:.\autosampler.c ****             }
  94:.\autosampler.c ****         }
  95:.\autosampler.c ****     }
  96:.\autosampler.c ****     *count = BottleCount_Read();
 323              		.loc 1 96 0
 324 00f6 FFF7FEFF 		bl	BottleCount_Read
 325 00fa 0346     		mov	r3, r0
 326 00fc 1A46     		mov	r2, r3
 327 00fe 7B68     		ldr	r3, [r7, #4]
 328 0100 1A70     		strb	r2, [r3, #0]
  97:.\autosampler.c ****     return 1u;
 329              		.loc 1 97 0
 330 0102 4FF00103 		mov	r3, #1
 331              	.L11:
  98:.\autosampler.c **** }
 332              		.loc 1 98 0
 333 0106 1846     		mov	r0, r3
 334 0108 07F11807 		add	r7, r7, #24
 335 010c BD46     		mov	sp, r7
 336 010e 80BD     		pop	{r7, pc}
 337              		.cfi_endproc
 338              	.LFE33:
 339              		.size	autosampler_take_sampler, .-autosampler_take_sampler
 340              		.section	.text.isr_SampleCounter,"ax",%progbits
 341              		.align	2
 342              		.global	isr_SampleCounter
 343              		.thumb
 344              		.thumb_func
 345              		.type	isr_SampleCounter, %function
 346              	isr_SampleCounter:
 347              	.LFB34:
  99:.\autosampler.c **** 
 100:.\autosampler.c **** CY_ISR(isr_SampleCounter){
 348              		.loc 1 100 0
 349              		.cfi_startproc
 350              		@ args = 0, pretend = 0, frame = 0
 351              		@ frame_needed = 1, uses_anonymous_args = 0
 352              		@ link register save eliminated.
ARM GAS  C:\Users\karunmj\AppData\Local\Temp\ccGHUrS9.s 			page 9


 353 0000 80B4     		push	{r7}
 354              	.LCFI11:
 355              		.cfi_def_cfa_offset 4
 356 0002 00AF     		add	r7, sp, #0
 357              		.cfi_offset 7, -4
 358              	.LCFI12:
 359              		.cfi_def_cfa_register 7
 101:.\autosampler.c ****     SampleCount1++;
 360              		.loc 1 101 0
 361 0004 40F20003 		movw	r3, #:lower16:SampleCount1
 362 0008 C0F20003 		movt	r3, #:upper16:SampleCount1
 363 000c 1B78     		ldrb	r3, [r3, #0]	@ zero_extendqisi2
 364 000e 03F10103 		add	r3, r3, #1
 365 0012 DAB2     		uxtb	r2, r3
 366 0014 40F20003 		movw	r3, #:lower16:SampleCount1
 367 0018 C0F20003 		movt	r3, #:upper16:SampleCount1
 368 001c 1A70     		strb	r2, [r3, #0]
 102:.\autosampler.c **** }
 369              		.loc 1 102 0
 370 001e BD46     		mov	sp, r7
 371 0020 80BC     		pop	{r7}
 372 0022 7047     		bx	lr
 373              		.cfi_endproc
 374              	.LFE34:
 375              		.size	isr_SampleCounter, .-isr_SampleCounter
 376              		.text
 377              	.Letext0: