ARM GAS  C:\Users\karunmj\AppData\Local\Temp\ccUji5Hf.s 			page 1


   1              		.syntax unified
   2              		.cpu cortex-m3
   3              		.fpu softvfp
   4              		.eabi_attribute 20, 1
   5              		.eabi_attribute 21, 1
   6              		.eabi_attribute 23, 3
   7              		.eabi_attribute 24, 1
   8              		.eabi_attribute 25, 1
   9              		.eabi_attribute 26, 1
  10              		.eabi_attribute 30, 6
  11              		.eabi_attribute 18, 4
  12              		.thumb
  13              		.file	"SCCT_Comp_1_SCCMPCLK.c"
  20 0000 8B010000 		.text
  20      02006C00 
  20      00000201 
  20      FB0E0D00 
  20      01010101 
  21              	.Ltext0:
  22              		.cfi_sections	.debug_frame
  23              		.section	.text.SCCT_Comp_1_SCCMPCLK_Start,"ax",%progbits
  24              		.align	2
  25              		.global	SCCT_Comp_1_SCCMPCLK_Start
  26              		.thumb
  27              		.thumb_func
  28              		.type	SCCT_Comp_1_SCCMPCLK_Start, %function
  29              	SCCT_Comp_1_SCCMPCLK_Start:
  30              	.LFB0:
  31              		.file 1 ".\\Generated_Source\\PSoC5\\SCCT_Comp_1_SCCMPCLK.c"
   1:.\Generated_Source\PSoC5/SCCT_Comp_1_SCCMPCLK.c **** /*******************************************************************************
   2:.\Generated_Source\PSoC5/SCCT_Comp_1_SCCMPCLK.c **** * File Name: SCCT_Comp_1_SCCMPCLK.c
   3:.\Generated_Source\PSoC5/SCCT_Comp_1_SCCMPCLK.c **** * Version 2.0
   4:.\Generated_Source\PSoC5/SCCT_Comp_1_SCCMPCLK.c **** *
   5:.\Generated_Source\PSoC5/SCCT_Comp_1_SCCMPCLK.c **** *  Description:
   6:.\Generated_Source\PSoC5/SCCT_Comp_1_SCCMPCLK.c **** *   This file provides the source code to the API for the clock component.
   7:.\Generated_Source\PSoC5/SCCT_Comp_1_SCCMPCLK.c **** *
   8:.\Generated_Source\PSoC5/SCCT_Comp_1_SCCMPCLK.c **** *  Note:
   9:.\Generated_Source\PSoC5/SCCT_Comp_1_SCCMPCLK.c **** *
  10:.\Generated_Source\PSoC5/SCCT_Comp_1_SCCMPCLK.c **** ********************************************************************************
  11:.\Generated_Source\PSoC5/SCCT_Comp_1_SCCMPCLK.c **** * Copyright 2008-2012, Cypress Semiconductor Corporation.  All rights reserved.
  12:.\Generated_Source\PSoC5/SCCT_Comp_1_SCCMPCLK.c **** * You may use this file only in accordance with the license, terms, conditions, 
  13:.\Generated_Source\PSoC5/SCCT_Comp_1_SCCMPCLK.c **** * disclaimers, and limitations in the end user license agreement accompanying 
  14:.\Generated_Source\PSoC5/SCCT_Comp_1_SCCMPCLK.c **** * the software package with which this file was provided.
  15:.\Generated_Source\PSoC5/SCCT_Comp_1_SCCMPCLK.c **** *******************************************************************************/
  16:.\Generated_Source\PSoC5/SCCT_Comp_1_SCCMPCLK.c **** 
  17:.\Generated_Source\PSoC5/SCCT_Comp_1_SCCMPCLK.c **** #include <cydevice_trm.h>
  18:.\Generated_Source\PSoC5/SCCT_Comp_1_SCCMPCLK.c **** #include "SCCT_Comp_1_SCCMPCLK.h"
  19:.\Generated_Source\PSoC5/SCCT_Comp_1_SCCMPCLK.c **** 
  20:.\Generated_Source\PSoC5/SCCT_Comp_1_SCCMPCLK.c **** /* Clock Distribution registers. */
  21:.\Generated_Source\PSoC5/SCCT_Comp_1_SCCMPCLK.c **** #define CLK_DIST_LD              (* (reg8 *) CYREG_CLKDIST_LD)
  22:.\Generated_Source\PSoC5/SCCT_Comp_1_SCCMPCLK.c **** #define CLK_DIST_BCFG2           (* (reg8 *) CYREG_CLKDIST_BCFG2)
ARM GAS  C:\Users\karunmj\AppData\Local\Temp\ccUji5Hf.s 			page 2


  23:.\Generated_Source\PSoC5/SCCT_Comp_1_SCCMPCLK.c **** #define BCFG2_MASK               (0x80u)
  24:.\Generated_Source\PSoC5/SCCT_Comp_1_SCCMPCLK.c **** #define CLK_DIST_DMASK           (* (reg8 *) CYREG_CLKDIST_DMASK)
  25:.\Generated_Source\PSoC5/SCCT_Comp_1_SCCMPCLK.c **** #define CLK_DIST_AMASK           (* (reg8 *) CYREG_CLKDIST_AMASK)
  26:.\Generated_Source\PSoC5/SCCT_Comp_1_SCCMPCLK.c **** 
  27:.\Generated_Source\PSoC5/SCCT_Comp_1_SCCMPCLK.c **** #define HAS_CLKDIST_LD_DISABLE   (CY_PSOC3 || CY_PSOC5LP)
  28:.\Generated_Source\PSoC5/SCCT_Comp_1_SCCMPCLK.c **** 
  29:.\Generated_Source\PSoC5/SCCT_Comp_1_SCCMPCLK.c **** 
  30:.\Generated_Source\PSoC5/SCCT_Comp_1_SCCMPCLK.c **** /*******************************************************************************
  31:.\Generated_Source\PSoC5/SCCT_Comp_1_SCCMPCLK.c **** * Function Name: SCCT_Comp_1_SCCMPCLK_Start
  32:.\Generated_Source\PSoC5/SCCT_Comp_1_SCCMPCLK.c **** ********************************************************************************
  33:.\Generated_Source\PSoC5/SCCT_Comp_1_SCCMPCLK.c **** *
  34:.\Generated_Source\PSoC5/SCCT_Comp_1_SCCMPCLK.c **** * Summary:
  35:.\Generated_Source\PSoC5/SCCT_Comp_1_SCCMPCLK.c **** *  Starts the clock. Note that on startup, clocks may be already running if the
  36:.\Generated_Source\PSoC5/SCCT_Comp_1_SCCMPCLK.c **** *  "Start on Reset" option is enabled in the DWR.
  37:.\Generated_Source\PSoC5/SCCT_Comp_1_SCCMPCLK.c **** *
  38:.\Generated_Source\PSoC5/SCCT_Comp_1_SCCMPCLK.c **** * Parameters:
  39:.\Generated_Source\PSoC5/SCCT_Comp_1_SCCMPCLK.c **** *  None
  40:.\Generated_Source\PSoC5/SCCT_Comp_1_SCCMPCLK.c **** *
  41:.\Generated_Source\PSoC5/SCCT_Comp_1_SCCMPCLK.c **** * Returns:
  42:.\Generated_Source\PSoC5/SCCT_Comp_1_SCCMPCLK.c **** *  None
  43:.\Generated_Source\PSoC5/SCCT_Comp_1_SCCMPCLK.c **** *
  44:.\Generated_Source\PSoC5/SCCT_Comp_1_SCCMPCLK.c **** *******************************************************************************/
  45:.\Generated_Source\PSoC5/SCCT_Comp_1_SCCMPCLK.c **** void SCCT_Comp_1_SCCMPCLK_Start(void) 
  46:.\Generated_Source\PSoC5/SCCT_Comp_1_SCCMPCLK.c **** {
  32              		.loc 1 46 0
  33              		.cfi_startproc
  34              		@ args = 0, pretend = 0, frame = 0
  35              		@ frame_needed = 1, uses_anonymous_args = 0
  36              		@ link register save eliminated.
  37 0000 80B4     		push	{r7}
  38              	.LCFI0:
  39              		.cfi_def_cfa_offset 4
  40 0002 00AF     		add	r7, sp, #0
  41              		.cfi_offset 7, -4
  42              	.LCFI1:
  43              		.cfi_def_cfa_register 7
  47:.\Generated_Source\PSoC5/SCCT_Comp_1_SCCMPCLK.c ****     /* Set the bit to enable the clock. */
  48:.\Generated_Source\PSoC5/SCCT_Comp_1_SCCMPCLK.c ****     SCCT_Comp_1_SCCMPCLK_CLKEN |= SCCT_Comp_1_SCCMPCLK_CLKEN_MASK;
  44              		.loc 1 48 0
  45 0004 44F2A133 		movw	r3, #:lower16:1073759137
  46 0008 C4F20003 		movt	r3, #:upper16:1073759137
  47 000c 44F2A132 		movw	r2, #:lower16:1073759137
  48 0010 C4F20002 		movt	r2, #:upper16:1073759137
  49 0014 1278     		ldrb	r2, [r2, #0]
  50 0016 D2B2     		uxtb	r2, r2
  51 0018 42F00102 		orr	r2, r2, #1
  52 001c D2B2     		uxtb	r2, r2
  53 001e 1A70     		strb	r2, [r3, #0]
  49:.\Generated_Source\PSoC5/SCCT_Comp_1_SCCMPCLK.c **** 	SCCT_Comp_1_SCCMPCLK_CLKSTBY |= SCCT_Comp_1_SCCMPCLK_CLKSTBY_MASK;
  54              		.loc 1 49 0
  55 0020 44F2B133 		movw	r3, #:lower16:1073759153
  56 0024 C4F20003 		movt	r3, #:upper16:1073759153
  57 0028 44F2B132 		movw	r2, #:lower16:1073759153
  58 002c C4F20002 		movt	r2, #:upper16:1073759153
  59 0030 1278     		ldrb	r2, [r2, #0]
  60 0032 D2B2     		uxtb	r2, r2
  61 0034 42F00102 		orr	r2, r2, #1
ARM GAS  C:\Users\karunmj\AppData\Local\Temp\ccUji5Hf.s 			page 3


  62 0038 D2B2     		uxtb	r2, r2
  63 003a 1A70     		strb	r2, [r3, #0]
  50:.\Generated_Source\PSoC5/SCCT_Comp_1_SCCMPCLK.c **** }
  64              		.loc 1 50 0
  65 003c BD46     		mov	sp, r7
  66 003e 80BC     		pop	{r7}
  67 0040 7047     		bx	lr
  68              		.cfi_endproc
  69              	.LFE0:
  70              		.size	SCCT_Comp_1_SCCMPCLK_Start, .-SCCT_Comp_1_SCCMPCLK_Start
  71 0042 00BF     		.section	.text.SCCT_Comp_1_SCCMPCLK_Stop,"ax",%progbits
  72              		.align	2
  73              		.global	SCCT_Comp_1_SCCMPCLK_Stop
  74              		.thumb
  75              		.thumb_func
  76              		.type	SCCT_Comp_1_SCCMPCLK_Stop, %function
  77              	SCCT_Comp_1_SCCMPCLK_Stop:
  78              	.LFB1:
  51:.\Generated_Source\PSoC5/SCCT_Comp_1_SCCMPCLK.c **** 
  52:.\Generated_Source\PSoC5/SCCT_Comp_1_SCCMPCLK.c **** 
  53:.\Generated_Source\PSoC5/SCCT_Comp_1_SCCMPCLK.c **** /*******************************************************************************
  54:.\Generated_Source\PSoC5/SCCT_Comp_1_SCCMPCLK.c **** * Function Name: SCCT_Comp_1_SCCMPCLK_Stop
  55:.\Generated_Source\PSoC5/SCCT_Comp_1_SCCMPCLK.c **** ********************************************************************************
  56:.\Generated_Source\PSoC5/SCCT_Comp_1_SCCMPCLK.c **** *
  57:.\Generated_Source\PSoC5/SCCT_Comp_1_SCCMPCLK.c **** * Summary:
  58:.\Generated_Source\PSoC5/SCCT_Comp_1_SCCMPCLK.c **** *  Stops the clock and returns immediately. This API does not require the
  59:.\Generated_Source\PSoC5/SCCT_Comp_1_SCCMPCLK.c **** *  source clock to be running but may return before the hardware is actually
  60:.\Generated_Source\PSoC5/SCCT_Comp_1_SCCMPCLK.c **** *  disabled. If the settings of the clock are changed after calling this
  61:.\Generated_Source\PSoC5/SCCT_Comp_1_SCCMPCLK.c **** *  function, the clock may glitch when it is started. To avoid the clock
  62:.\Generated_Source\PSoC5/SCCT_Comp_1_SCCMPCLK.c **** *  glitch, use the StopBlock function.
  63:.\Generated_Source\PSoC5/SCCT_Comp_1_SCCMPCLK.c **** *
  64:.\Generated_Source\PSoC5/SCCT_Comp_1_SCCMPCLK.c **** * Parameters:
  65:.\Generated_Source\PSoC5/SCCT_Comp_1_SCCMPCLK.c **** *  None
  66:.\Generated_Source\PSoC5/SCCT_Comp_1_SCCMPCLK.c **** *
  67:.\Generated_Source\PSoC5/SCCT_Comp_1_SCCMPCLK.c **** * Returns:
  68:.\Generated_Source\PSoC5/SCCT_Comp_1_SCCMPCLK.c **** *  None
  69:.\Generated_Source\PSoC5/SCCT_Comp_1_SCCMPCLK.c **** *
  70:.\Generated_Source\PSoC5/SCCT_Comp_1_SCCMPCLK.c **** *******************************************************************************/
  71:.\Generated_Source\PSoC5/SCCT_Comp_1_SCCMPCLK.c **** void SCCT_Comp_1_SCCMPCLK_Stop(void) 
  72:.\Generated_Source\PSoC5/SCCT_Comp_1_SCCMPCLK.c **** {
  79              		.loc 1 72 0
  80              		.cfi_startproc
  81              		@ args = 0, pretend = 0, frame = 0
  82              		@ frame_needed = 1, uses_anonymous_args = 0
  83              		@ link register save eliminated.
  84 0000 80B4     		push	{r7}
  85              	.LCFI2:
  86              		.cfi_def_cfa_offset 4
  87 0002 00AF     		add	r7, sp, #0
  88              		.cfi_offset 7, -4
  89              	.LCFI3:
  90              		.cfi_def_cfa_register 7
  73:.\Generated_Source\PSoC5/SCCT_Comp_1_SCCMPCLK.c ****     /* Clear the bit to disable the clock. */
  74:.\Generated_Source\PSoC5/SCCT_Comp_1_SCCMPCLK.c ****     SCCT_Comp_1_SCCMPCLK_CLKEN &= (uint8)(~SCCT_Comp_1_SCCMPCLK_CLKEN_MASK);
  91              		.loc 1 74 0
  92 0004 44F2A133 		movw	r3, #:lower16:1073759137
  93 0008 C4F20003 		movt	r3, #:upper16:1073759137
ARM GAS  C:\Users\karunmj\AppData\Local\Temp\ccUji5Hf.s 			page 4


  94 000c 44F2A132 		movw	r2, #:lower16:1073759137
  95 0010 C4F20002 		movt	r2, #:upper16:1073759137
  96 0014 1278     		ldrb	r2, [r2, #0]
  97 0016 D2B2     		uxtb	r2, r2
  98 0018 02F0FE02 		and	r2, r2, #254
  99 001c 1A70     		strb	r2, [r3, #0]
  75:.\Generated_Source\PSoC5/SCCT_Comp_1_SCCMPCLK.c **** 	SCCT_Comp_1_SCCMPCLK_CLKSTBY &= (uint8)(~SCCT_Comp_1_SCCMPCLK_CLKSTBY_MASK);
 100              		.loc 1 75 0
 101 001e 44F2B133 		movw	r3, #:lower16:1073759153
 102 0022 C4F20003 		movt	r3, #:upper16:1073759153
 103 0026 44F2B132 		movw	r2, #:lower16:1073759153
 104 002a C4F20002 		movt	r2, #:upper16:1073759153
 105 002e 1278     		ldrb	r2, [r2, #0]
 106 0030 D2B2     		uxtb	r2, r2
 107 0032 02F0FE02 		and	r2, r2, #254
 108 0036 1A70     		strb	r2, [r3, #0]
  76:.\Generated_Source\PSoC5/SCCT_Comp_1_SCCMPCLK.c **** }
 109              		.loc 1 76 0
 110 0038 BD46     		mov	sp, r7
 111 003a 80BC     		pop	{r7}
 112 003c 7047     		bx	lr
 113              		.cfi_endproc
 114              	.LFE1:
 115              		.size	SCCT_Comp_1_SCCMPCLK_Stop, .-SCCT_Comp_1_SCCMPCLK_Stop
 116 003e 00BF     		.section	.text.SCCT_Comp_1_SCCMPCLK_StandbyPower,"ax",%progbits
 117              		.align	2
 118              		.global	SCCT_Comp_1_SCCMPCLK_StandbyPower
 119              		.thumb
 120              		.thumb_func
 121              		.type	SCCT_Comp_1_SCCMPCLK_StandbyPower, %function
 122              	SCCT_Comp_1_SCCMPCLK_StandbyPower:
 123              	.LFB2:
  77:.\Generated_Source\PSoC5/SCCT_Comp_1_SCCMPCLK.c **** 
  78:.\Generated_Source\PSoC5/SCCT_Comp_1_SCCMPCLK.c **** 
  79:.\Generated_Source\PSoC5/SCCT_Comp_1_SCCMPCLK.c **** #if(CY_PSOC3 || CY_PSOC5LP)
  80:.\Generated_Source\PSoC5/SCCT_Comp_1_SCCMPCLK.c **** 
  81:.\Generated_Source\PSoC5/SCCT_Comp_1_SCCMPCLK.c **** 
  82:.\Generated_Source\PSoC5/SCCT_Comp_1_SCCMPCLK.c **** /*******************************************************************************
  83:.\Generated_Source\PSoC5/SCCT_Comp_1_SCCMPCLK.c **** * Function Name: SCCT_Comp_1_SCCMPCLK_StopBlock
  84:.\Generated_Source\PSoC5/SCCT_Comp_1_SCCMPCLK.c **** ********************************************************************************
  85:.\Generated_Source\PSoC5/SCCT_Comp_1_SCCMPCLK.c **** *
  86:.\Generated_Source\PSoC5/SCCT_Comp_1_SCCMPCLK.c **** * Summary:
  87:.\Generated_Source\PSoC5/SCCT_Comp_1_SCCMPCLK.c **** *  Stops the clock and waits for the hardware to actually be disabled before
  88:.\Generated_Source\PSoC5/SCCT_Comp_1_SCCMPCLK.c **** *  returning. This ensures that the clock is never truncated (high part of the
  89:.\Generated_Source\PSoC5/SCCT_Comp_1_SCCMPCLK.c **** *  cycle will terminate before the clock is disabled and the API returns).
  90:.\Generated_Source\PSoC5/SCCT_Comp_1_SCCMPCLK.c **** *  Note that the source clock must be running or this API will never return as
  91:.\Generated_Source\PSoC5/SCCT_Comp_1_SCCMPCLK.c **** *  a stopped clock cannot be disabled.
  92:.\Generated_Source\PSoC5/SCCT_Comp_1_SCCMPCLK.c **** *
  93:.\Generated_Source\PSoC5/SCCT_Comp_1_SCCMPCLK.c **** * Parameters:
  94:.\Generated_Source\PSoC5/SCCT_Comp_1_SCCMPCLK.c **** *  None
  95:.\Generated_Source\PSoC5/SCCT_Comp_1_SCCMPCLK.c **** *
  96:.\Generated_Source\PSoC5/SCCT_Comp_1_SCCMPCLK.c **** * Returns:
  97:.\Generated_Source\PSoC5/SCCT_Comp_1_SCCMPCLK.c **** *  None
  98:.\Generated_Source\PSoC5/SCCT_Comp_1_SCCMPCLK.c **** *
  99:.\Generated_Source\PSoC5/SCCT_Comp_1_SCCMPCLK.c **** *******************************************************************************/
 100:.\Generated_Source\PSoC5/SCCT_Comp_1_SCCMPCLK.c **** void SCCT_Comp_1_SCCMPCLK_StopBlock(void) 
 101:.\Generated_Source\PSoC5/SCCT_Comp_1_SCCMPCLK.c **** {
ARM GAS  C:\Users\karunmj\AppData\Local\Temp\ccUji5Hf.s 			page 5


 102:.\Generated_Source\PSoC5/SCCT_Comp_1_SCCMPCLK.c ****     if ((SCCT_Comp_1_SCCMPCLK_CLKEN & SCCT_Comp_1_SCCMPCLK_CLKEN_MASK) != 0u)
 103:.\Generated_Source\PSoC5/SCCT_Comp_1_SCCMPCLK.c ****     {
 104:.\Generated_Source\PSoC5/SCCT_Comp_1_SCCMPCLK.c **** #if HAS_CLKDIST_LD_DISABLE
 105:.\Generated_Source\PSoC5/SCCT_Comp_1_SCCMPCLK.c ****         uint16 oldDivider;
 106:.\Generated_Source\PSoC5/SCCT_Comp_1_SCCMPCLK.c **** 
 107:.\Generated_Source\PSoC5/SCCT_Comp_1_SCCMPCLK.c ****         CLK_DIST_LD = 0u;
 108:.\Generated_Source\PSoC5/SCCT_Comp_1_SCCMPCLK.c **** 
 109:.\Generated_Source\PSoC5/SCCT_Comp_1_SCCMPCLK.c ****         /* Clear all the mask bits except ours. */
 110:.\Generated_Source\PSoC5/SCCT_Comp_1_SCCMPCLK.c **** #if defined(SCCT_Comp_1_SCCMPCLK__CFG3)
 111:.\Generated_Source\PSoC5/SCCT_Comp_1_SCCMPCLK.c ****         CLK_DIST_AMASK = SCCT_Comp_1_SCCMPCLK_CLKEN_MASK;
 112:.\Generated_Source\PSoC5/SCCT_Comp_1_SCCMPCLK.c ****         CLK_DIST_DMASK = 0x00u;
 113:.\Generated_Source\PSoC5/SCCT_Comp_1_SCCMPCLK.c **** #else
 114:.\Generated_Source\PSoC5/SCCT_Comp_1_SCCMPCLK.c ****         CLK_DIST_DMASK = SCCT_Comp_1_SCCMPCLK_CLKEN_MASK;
 115:.\Generated_Source\PSoC5/SCCT_Comp_1_SCCMPCLK.c ****         CLK_DIST_AMASK = 0x00u;
 116:.\Generated_Source\PSoC5/SCCT_Comp_1_SCCMPCLK.c **** #endif /* SCCT_Comp_1_SCCMPCLK__CFG3 */
 117:.\Generated_Source\PSoC5/SCCT_Comp_1_SCCMPCLK.c **** 
 118:.\Generated_Source\PSoC5/SCCT_Comp_1_SCCMPCLK.c ****         /* Clear mask of bus clock. */
 119:.\Generated_Source\PSoC5/SCCT_Comp_1_SCCMPCLK.c ****         CLK_DIST_BCFG2 &= (uint8)(~BCFG2_MASK);
 120:.\Generated_Source\PSoC5/SCCT_Comp_1_SCCMPCLK.c **** 
 121:.\Generated_Source\PSoC5/SCCT_Comp_1_SCCMPCLK.c ****         oldDivider = CY_GET_REG16(SCCT_Comp_1_SCCMPCLK_DIV_PTR);
 122:.\Generated_Source\PSoC5/SCCT_Comp_1_SCCMPCLK.c ****         CY_SET_REG16(CYREG_CLKDIST_WRK0, oldDivider);
 123:.\Generated_Source\PSoC5/SCCT_Comp_1_SCCMPCLK.c ****         CLK_DIST_LD = CYCLK_LD_DISABLE | CYCLK_LD_SYNC_EN | CYCLK_LD_LOAD;
 124:.\Generated_Source\PSoC5/SCCT_Comp_1_SCCMPCLK.c **** 
 125:.\Generated_Source\PSoC5/SCCT_Comp_1_SCCMPCLK.c ****         /* Wait for clock to be disabled */
 126:.\Generated_Source\PSoC5/SCCT_Comp_1_SCCMPCLK.c ****         while ((CLK_DIST_LD & CYCLK_LD_LOAD) != 0u) { }
 127:.\Generated_Source\PSoC5/SCCT_Comp_1_SCCMPCLK.c **** #endif /* HAS_CLKDIST_LD_DISABLE */
 128:.\Generated_Source\PSoC5/SCCT_Comp_1_SCCMPCLK.c **** 
 129:.\Generated_Source\PSoC5/SCCT_Comp_1_SCCMPCLK.c ****         /* Clear the bit to disable the clock. */
 130:.\Generated_Source\PSoC5/SCCT_Comp_1_SCCMPCLK.c ****         SCCT_Comp_1_SCCMPCLK_CLKEN &= (uint8)(~SCCT_Comp_1_SCCMPCLK_CLKEN_MASK);
 131:.\Generated_Source\PSoC5/SCCT_Comp_1_SCCMPCLK.c ****         SCCT_Comp_1_SCCMPCLK_CLKSTBY &= (uint8)(~SCCT_Comp_1_SCCMPCLK_CLKSTBY_MASK);
 132:.\Generated_Source\PSoC5/SCCT_Comp_1_SCCMPCLK.c **** 
 133:.\Generated_Source\PSoC5/SCCT_Comp_1_SCCMPCLK.c **** #if HAS_CLKDIST_LD_DISABLE
 134:.\Generated_Source\PSoC5/SCCT_Comp_1_SCCMPCLK.c ****         /* Clear the disable bit */
 135:.\Generated_Source\PSoC5/SCCT_Comp_1_SCCMPCLK.c ****         CLK_DIST_LD = 0x00u;
 136:.\Generated_Source\PSoC5/SCCT_Comp_1_SCCMPCLK.c ****         CY_SET_REG16(SCCT_Comp_1_SCCMPCLK_DIV_PTR, oldDivider);
 137:.\Generated_Source\PSoC5/SCCT_Comp_1_SCCMPCLK.c **** #endif /* HAS_CLKDIST_LD_DISABLE */
 138:.\Generated_Source\PSoC5/SCCT_Comp_1_SCCMPCLK.c ****     }
 139:.\Generated_Source\PSoC5/SCCT_Comp_1_SCCMPCLK.c **** }
 140:.\Generated_Source\PSoC5/SCCT_Comp_1_SCCMPCLK.c **** #endif /* (CY_PSOC3 || CY_PSOC5LP) */
 141:.\Generated_Source\PSoC5/SCCT_Comp_1_SCCMPCLK.c **** 
 142:.\Generated_Source\PSoC5/SCCT_Comp_1_SCCMPCLK.c **** 
 143:.\Generated_Source\PSoC5/SCCT_Comp_1_SCCMPCLK.c **** /*******************************************************************************
 144:.\Generated_Source\PSoC5/SCCT_Comp_1_SCCMPCLK.c **** * Function Name: SCCT_Comp_1_SCCMPCLK_StandbyPower
 145:.\Generated_Source\PSoC5/SCCT_Comp_1_SCCMPCLK.c **** ********************************************************************************
 146:.\Generated_Source\PSoC5/SCCT_Comp_1_SCCMPCLK.c **** *
 147:.\Generated_Source\PSoC5/SCCT_Comp_1_SCCMPCLK.c **** * Summary:
 148:.\Generated_Source\PSoC5/SCCT_Comp_1_SCCMPCLK.c **** *  Sets whether the clock is active in standby mode.
 149:.\Generated_Source\PSoC5/SCCT_Comp_1_SCCMPCLK.c **** *
 150:.\Generated_Source\PSoC5/SCCT_Comp_1_SCCMPCLK.c **** * Parameters:
 151:.\Generated_Source\PSoC5/SCCT_Comp_1_SCCMPCLK.c **** *  state:  0 to disable clock during standby, nonzero to enable.
 152:.\Generated_Source\PSoC5/SCCT_Comp_1_SCCMPCLK.c **** *
 153:.\Generated_Source\PSoC5/SCCT_Comp_1_SCCMPCLK.c **** * Returns:
 154:.\Generated_Source\PSoC5/SCCT_Comp_1_SCCMPCLK.c **** *  None
 155:.\Generated_Source\PSoC5/SCCT_Comp_1_SCCMPCLK.c **** *
 156:.\Generated_Source\PSoC5/SCCT_Comp_1_SCCMPCLK.c **** *******************************************************************************/
 157:.\Generated_Source\PSoC5/SCCT_Comp_1_SCCMPCLK.c **** void SCCT_Comp_1_SCCMPCLK_StandbyPower(uint8 state) 
 158:.\Generated_Source\PSoC5/SCCT_Comp_1_SCCMPCLK.c **** {
ARM GAS  C:\Users\karunmj\AppData\Local\Temp\ccUji5Hf.s 			page 6


 124              		.loc 1 158 0
 125              		.cfi_startproc
 126              		@ args = 0, pretend = 0, frame = 8
 127              		@ frame_needed = 1, uses_anonymous_args = 0
 128              		@ link register save eliminated.
 129 0000 80B4     		push	{r7}
 130              	.LCFI4:
 131              		.cfi_def_cfa_offset 4
 132 0002 83B0     		sub	sp, sp, #12
 133              	.LCFI5:
 134              		.cfi_def_cfa_offset 16
 135 0004 00AF     		add	r7, sp, #0
 136              		.cfi_offset 7, -4
 137              	.LCFI6:
 138              		.cfi_def_cfa_register 7
 139 0006 0346     		mov	r3, r0
 140 0008 FB71     		strb	r3, [r7, #7]
 159:.\Generated_Source\PSoC5/SCCT_Comp_1_SCCMPCLK.c ****     if(state == 0u)
 141              		.loc 1 159 0
 142 000a FB79     		ldrb	r3, [r7, #7]	@ zero_extendqisi2
 143 000c 002B     		cmp	r3, #0
 144 000e 0DD1     		bne	.L6
 160:.\Generated_Source\PSoC5/SCCT_Comp_1_SCCMPCLK.c ****     {
 161:.\Generated_Source\PSoC5/SCCT_Comp_1_SCCMPCLK.c ****         SCCT_Comp_1_SCCMPCLK_CLKSTBY &= (uint8)(~SCCT_Comp_1_SCCMPCLK_CLKSTBY_MASK);
 145              		.loc 1 161 0
 146 0010 44F2B133 		movw	r3, #:lower16:1073759153
 147 0014 C4F20003 		movt	r3, #:upper16:1073759153
 148 0018 44F2B132 		movw	r2, #:lower16:1073759153
 149 001c C4F20002 		movt	r2, #:upper16:1073759153
 150 0020 1278     		ldrb	r2, [r2, #0]
 151 0022 D2B2     		uxtb	r2, r2
 152 0024 02F0FE02 		and	r2, r2, #254
 153 0028 1A70     		strb	r2, [r3, #0]
 154 002a 0DE0     		b	.L8
 155              	.L6:
 162:.\Generated_Source\PSoC5/SCCT_Comp_1_SCCMPCLK.c ****     }
 163:.\Generated_Source\PSoC5/SCCT_Comp_1_SCCMPCLK.c ****     else
 164:.\Generated_Source\PSoC5/SCCT_Comp_1_SCCMPCLK.c ****     {
 165:.\Generated_Source\PSoC5/SCCT_Comp_1_SCCMPCLK.c ****         SCCT_Comp_1_SCCMPCLK_CLKSTBY |= SCCT_Comp_1_SCCMPCLK_CLKSTBY_MASK;
 156              		.loc 1 165 0
 157 002c 44F2B133 		movw	r3, #:lower16:1073759153
 158 0030 C4F20003 		movt	r3, #:upper16:1073759153
 159 0034 44F2B132 		movw	r2, #:lower16:1073759153
 160 0038 C4F20002 		movt	r2, #:upper16:1073759153
 161 003c 1278     		ldrb	r2, [r2, #0]
 162 003e D2B2     		uxtb	r2, r2
 163 0040 42F00102 		orr	r2, r2, #1
 164 0044 D2B2     		uxtb	r2, r2
 165 0046 1A70     		strb	r2, [r3, #0]
 166              	.L8:
 166:.\Generated_Source\PSoC5/SCCT_Comp_1_SCCMPCLK.c ****     }
 167:.\Generated_Source\PSoC5/SCCT_Comp_1_SCCMPCLK.c **** }
 167              		.loc 1 167 0
 168 0048 07F10C07 		add	r7, r7, #12
 169 004c BD46     		mov	sp, r7
 170 004e 80BC     		pop	{r7}
 171 0050 7047     		bx	lr
ARM GAS  C:\Users\karunmj\AppData\Local\Temp\ccUji5Hf.s 			page 7


 172              		.cfi_endproc
 173              	.LFE2:
 174              		.size	SCCT_Comp_1_SCCMPCLK_StandbyPower, .-SCCT_Comp_1_SCCMPCLK_StandbyPower
 175 0052 00BF     		.section	.text.SCCT_Comp_1_SCCMPCLK_SetDividerRegister,"ax",%progbits
 176              		.align	2
 177              		.global	SCCT_Comp_1_SCCMPCLK_SetDividerRegister
 178              		.thumb
 179              		.thumb_func
 180              		.type	SCCT_Comp_1_SCCMPCLK_SetDividerRegister, %function
 181              	SCCT_Comp_1_SCCMPCLK_SetDividerRegister:
 182              	.LFB3:
 168:.\Generated_Source\PSoC5/SCCT_Comp_1_SCCMPCLK.c **** 
 169:.\Generated_Source\PSoC5/SCCT_Comp_1_SCCMPCLK.c **** 
 170:.\Generated_Source\PSoC5/SCCT_Comp_1_SCCMPCLK.c **** /*******************************************************************************
 171:.\Generated_Source\PSoC5/SCCT_Comp_1_SCCMPCLK.c **** * Function Name: SCCT_Comp_1_SCCMPCLK_SetDividerRegister
 172:.\Generated_Source\PSoC5/SCCT_Comp_1_SCCMPCLK.c **** ********************************************************************************
 173:.\Generated_Source\PSoC5/SCCT_Comp_1_SCCMPCLK.c **** *
 174:.\Generated_Source\PSoC5/SCCT_Comp_1_SCCMPCLK.c **** * Summary:
 175:.\Generated_Source\PSoC5/SCCT_Comp_1_SCCMPCLK.c **** *  Modifies the clock divider and, thus, the frequency. When the clock divider
 176:.\Generated_Source\PSoC5/SCCT_Comp_1_SCCMPCLK.c **** *  register is set to zero or changed from zero, the clock will be temporarily
 177:.\Generated_Source\PSoC5/SCCT_Comp_1_SCCMPCLK.c **** *  disabled in order to change the SSS mode bit. If the clock is enabled when
 178:.\Generated_Source\PSoC5/SCCT_Comp_1_SCCMPCLK.c **** *  SetDividerRegister is called, then the source clock must be running.
 179:.\Generated_Source\PSoC5/SCCT_Comp_1_SCCMPCLK.c **** *
 180:.\Generated_Source\PSoC5/SCCT_Comp_1_SCCMPCLK.c **** * Parameters:
 181:.\Generated_Source\PSoC5/SCCT_Comp_1_SCCMPCLK.c **** *  clkDivider:  Divider register value (0-65,535). This value is NOT the
 182:.\Generated_Source\PSoC5/SCCT_Comp_1_SCCMPCLK.c **** *    divider; the clock hardware divides by clkDivider plus one. For example,
 183:.\Generated_Source\PSoC5/SCCT_Comp_1_SCCMPCLK.c **** *    to divide the clock by 2, this parameter should be set to 1.
 184:.\Generated_Source\PSoC5/SCCT_Comp_1_SCCMPCLK.c **** *  restart:  If nonzero, restarts the clock divider: the current clock cycle
 185:.\Generated_Source\PSoC5/SCCT_Comp_1_SCCMPCLK.c **** *   will be truncated and the new divide value will take effect immediately. If
 186:.\Generated_Source\PSoC5/SCCT_Comp_1_SCCMPCLK.c **** *   zero, the new divide value will take effect at the end of the current clock
 187:.\Generated_Source\PSoC5/SCCT_Comp_1_SCCMPCLK.c **** *   cycle.
 188:.\Generated_Source\PSoC5/SCCT_Comp_1_SCCMPCLK.c **** *
 189:.\Generated_Source\PSoC5/SCCT_Comp_1_SCCMPCLK.c **** * Returns:
 190:.\Generated_Source\PSoC5/SCCT_Comp_1_SCCMPCLK.c **** *  None
 191:.\Generated_Source\PSoC5/SCCT_Comp_1_SCCMPCLK.c **** *
 192:.\Generated_Source\PSoC5/SCCT_Comp_1_SCCMPCLK.c **** *******************************************************************************/
 193:.\Generated_Source\PSoC5/SCCT_Comp_1_SCCMPCLK.c **** void SCCT_Comp_1_SCCMPCLK_SetDividerRegister(uint16 clkDivider, uint8 restart)
 194:.\Generated_Source\PSoC5/SCCT_Comp_1_SCCMPCLK.c ****                                 
 195:.\Generated_Source\PSoC5/SCCT_Comp_1_SCCMPCLK.c **** {
 183              		.loc 1 195 0
 184              		.cfi_startproc
 185              		@ args = 0, pretend = 0, frame = 16
 186              		@ frame_needed = 1, uses_anonymous_args = 0
 187 0000 80B5     		push	{r7, lr}
 188              	.LCFI7:
 189              		.cfi_def_cfa_offset 8
 190 0002 84B0     		sub	sp, sp, #16
 191              	.LCFI8:
 192              		.cfi_def_cfa_offset 24
 193 0004 00AF     		add	r7, sp, #0
 194              		.cfi_offset 14, -4
 195              		.cfi_offset 7, -8
 196              	.LCFI9:
 197              		.cfi_def_cfa_register 7
 198 0006 0246     		mov	r2, r0
 199 0008 0B46     		mov	r3, r1
 200 000a FA80     		strh	r2, [r7, #6]	@ movhi
ARM GAS  C:\Users\karunmj\AppData\Local\Temp\ccUji5Hf.s 			page 8


 201 000c 7B71     		strb	r3, [r7, #5]
 196:.\Generated_Source\PSoC5/SCCT_Comp_1_SCCMPCLK.c ****     uint8 enabled;
 197:.\Generated_Source\PSoC5/SCCT_Comp_1_SCCMPCLK.c **** 
 198:.\Generated_Source\PSoC5/SCCT_Comp_1_SCCMPCLK.c ****     uint8 currSrc = SCCT_Comp_1_SCCMPCLK_GetSourceRegister();
 202              		.loc 1 198 0
 203 000e FFF7FEFF 		bl	SCCT_Comp_1_SCCMPCLK_GetSourceRegister
 204 0012 0346     		mov	r3, r0
 205 0014 7B73     		strb	r3, [r7, #13]
 199:.\Generated_Source\PSoC5/SCCT_Comp_1_SCCMPCLK.c ****     uint16 oldDivider = SCCT_Comp_1_SCCMPCLK_GetDividerRegister();
 206              		.loc 1 199 0
 207 0016 FFF7FEFF 		bl	SCCT_Comp_1_SCCMPCLK_GetDividerRegister
 208 001a 0346     		mov	r3, r0
 209 001c FB81     		strh	r3, [r7, #14]	@ movhi
 200:.\Generated_Source\PSoC5/SCCT_Comp_1_SCCMPCLK.c **** 
 201:.\Generated_Source\PSoC5/SCCT_Comp_1_SCCMPCLK.c ****     if (clkDivider != oldDivider)
 210              		.loc 1 201 0
 211 001e FA88     		ldrh	r2, [r7, #6]
 212 0020 FB89     		ldrh	r3, [r7, #14]
 213 0022 9A42     		cmp	r2, r3
 214 0024 00F0BC80 		beq	.L21
 202:.\Generated_Source\PSoC5/SCCT_Comp_1_SCCMPCLK.c ****     {
 203:.\Generated_Source\PSoC5/SCCT_Comp_1_SCCMPCLK.c ****         enabled = SCCT_Comp_1_SCCMPCLK_CLKEN & SCCT_Comp_1_SCCMPCLK_CLKEN_MASK;
 215              		.loc 1 203 0
 216 0028 44F2A133 		movw	r3, #:lower16:1073759137
 217 002c C4F20003 		movt	r3, #:upper16:1073759137
 218 0030 1B78     		ldrb	r3, [r3, #0]
 219 0032 DBB2     		uxtb	r3, r3
 220 0034 03F00103 		and	r3, r3, #1
 221 0038 3B73     		strb	r3, [r7, #12]
 204:.\Generated_Source\PSoC5/SCCT_Comp_1_SCCMPCLK.c **** 
 205:.\Generated_Source\PSoC5/SCCT_Comp_1_SCCMPCLK.c ****         if ((currSrc == (uint8)CYCLK_SRC_SEL_CLK_SYNC_D) && ((oldDivider == 0u) || (clkDivider == 0
 222              		.loc 1 205 0
 223 003a 7B7B     		ldrb	r3, [r7, #13]	@ zero_extendqisi2
 224 003c 002B     		cmp	r3, #0
 225 003e 31D1     		bne	.L11
 226 0040 FB89     		ldrh	r3, [r7, #14]
 227 0042 002B     		cmp	r3, #0
 228 0044 02D0     		beq	.L12
 229 0046 FB88     		ldrh	r3, [r7, #6]
 230 0048 002B     		cmp	r3, #0
 231 004a 2BD1     		bne	.L11
 232              	.L12:
 206:.\Generated_Source\PSoC5/SCCT_Comp_1_SCCMPCLK.c ****         {
 207:.\Generated_Source\PSoC5/SCCT_Comp_1_SCCMPCLK.c ****             /* Moving to/from SSS requires correct ordering to prevent halting the clock    */
 208:.\Generated_Source\PSoC5/SCCT_Comp_1_SCCMPCLK.c ****             if (oldDivider == 0u)
 233              		.loc 1 208 0
 234 004c FB89     		ldrh	r3, [r7, #14]
 235 004e 002B     		cmp	r3, #0
 236 0050 13D1     		bne	.L13
 209:.\Generated_Source\PSoC5/SCCT_Comp_1_SCCMPCLK.c ****             {
 210:.\Generated_Source\PSoC5/SCCT_Comp_1_SCCMPCLK.c ****                 /* Moving away from SSS, set the divider first so when SSS is cleared we    */
 211:.\Generated_Source\PSoC5/SCCT_Comp_1_SCCMPCLK.c ****                 /* don't halt the clock.  Using the shadow load isn't required as the       */
 212:.\Generated_Source\PSoC5/SCCT_Comp_1_SCCMPCLK.c ****                 /* divider is ignored while SSS is set.                                     */
 213:.\Generated_Source\PSoC5/SCCT_Comp_1_SCCMPCLK.c ****                 CY_SET_REG16(SCCT_Comp_1_SCCMPCLK_DIV_PTR, clkDivider);
 237              		.loc 1 213 0
 238 0052 44F20013 		movw	r3, #:lower16:1073758464
 239 0056 C4F20003 		movt	r3, #:upper16:1073758464
ARM GAS  C:\Users\karunmj\AppData\Local\Temp\ccUji5Hf.s 			page 9


 240 005a FA88     		ldrh	r2, [r7, #6]	@ movhi
 241 005c 1A80     		strh	r2, [r3, #0]	@ movhi
 214:.\Generated_Source\PSoC5/SCCT_Comp_1_SCCMPCLK.c ****                 SCCT_Comp_1_SCCMPCLK_MOD_SRC &= (uint8)(~CYCLK_SSS);
 242              		.loc 1 214 0
 243 005e 44F20213 		movw	r3, #:lower16:1073758466
 244 0062 C4F20003 		movt	r3, #:upper16:1073758466
 245 0066 44F20212 		movw	r2, #:lower16:1073758466
 246 006a C4F20002 		movt	r2, #:upper16:1073758466
 247 006e 1278     		ldrb	r2, [r2, #0]
 248 0070 D2B2     		uxtb	r2, r2
 249 0072 02F0BF02 		and	r2, r2, #191
 250 0076 1A70     		strb	r2, [r3, #0]
 251              		.loc 1 205 0
 252 0078 92E0     		b	.L21
 253              	.L13:
 215:.\Generated_Source\PSoC5/SCCT_Comp_1_SCCMPCLK.c ****             }
 216:.\Generated_Source\PSoC5/SCCT_Comp_1_SCCMPCLK.c ****             else
 217:.\Generated_Source\PSoC5/SCCT_Comp_1_SCCMPCLK.c ****             {
 218:.\Generated_Source\PSoC5/SCCT_Comp_1_SCCMPCLK.c ****                 /* Moving to SSS, set SSS which then ignores the divider and we can set     */
 219:.\Generated_Source\PSoC5/SCCT_Comp_1_SCCMPCLK.c ****                 /* it without bothering with the shadow load.                               */
 220:.\Generated_Source\PSoC5/SCCT_Comp_1_SCCMPCLK.c ****                 SCCT_Comp_1_SCCMPCLK_MOD_SRC |= CYCLK_SSS;
 254              		.loc 1 220 0
 255 007a 44F20213 		movw	r3, #:lower16:1073758466
 256 007e C4F20003 		movt	r3, #:upper16:1073758466
 257 0082 44F20212 		movw	r2, #:lower16:1073758466
 258 0086 C4F20002 		movt	r2, #:upper16:1073758466
 259 008a 1278     		ldrb	r2, [r2, #0]
 260 008c D2B2     		uxtb	r2, r2
 261 008e 42F04002 		orr	r2, r2, #64
 262 0092 D2B2     		uxtb	r2, r2
 263 0094 1A70     		strb	r2, [r3, #0]
 221:.\Generated_Source\PSoC5/SCCT_Comp_1_SCCMPCLK.c ****                 CY_SET_REG16(SCCT_Comp_1_SCCMPCLK_DIV_PTR, clkDivider);
 264              		.loc 1 221 0
 265 0096 44F20013 		movw	r3, #:lower16:1073758464
 266 009a C4F20003 		movt	r3, #:upper16:1073758464
 267 009e FA88     		ldrh	r2, [r7, #6]	@ movhi
 268 00a0 1A80     		strh	r2, [r3, #0]	@ movhi
 269              		.loc 1 205 0
 270 00a2 7DE0     		b	.L21
 271              	.L11:
 222:.\Generated_Source\PSoC5/SCCT_Comp_1_SCCMPCLK.c ****             }
 223:.\Generated_Source\PSoC5/SCCT_Comp_1_SCCMPCLK.c ****         }
 224:.\Generated_Source\PSoC5/SCCT_Comp_1_SCCMPCLK.c ****         else
 225:.\Generated_Source\PSoC5/SCCT_Comp_1_SCCMPCLK.c ****         {
 226:.\Generated_Source\PSoC5/SCCT_Comp_1_SCCMPCLK.c **** 			
 227:.\Generated_Source\PSoC5/SCCT_Comp_1_SCCMPCLK.c ****             if (enabled != 0u)
 272              		.loc 1 227 0
 273 00a4 3B7B     		ldrb	r3, [r7, #12]	@ zero_extendqisi2
 274 00a6 002B     		cmp	r3, #0
 275 00a8 3BD0     		beq	.L15
 228:.\Generated_Source\PSoC5/SCCT_Comp_1_SCCMPCLK.c ****             {
 229:.\Generated_Source\PSoC5/SCCT_Comp_1_SCCMPCLK.c ****                 CLK_DIST_LD = 0x00u;
 276              		.loc 1 229 0
 277 00aa 44F20103 		movw	r3, #:lower16:1073758209
 278 00ae C4F20003 		movt	r3, #:upper16:1073758209
 279 00b2 4FF00002 		mov	r2, #0
 280 00b6 1A70     		strb	r2, [r3, #0]
ARM GAS  C:\Users\karunmj\AppData\Local\Temp\ccUji5Hf.s 			page 10


 230:.\Generated_Source\PSoC5/SCCT_Comp_1_SCCMPCLK.c **** 
 231:.\Generated_Source\PSoC5/SCCT_Comp_1_SCCMPCLK.c ****                 /* Clear all the mask bits except ours. */
 232:.\Generated_Source\PSoC5/SCCT_Comp_1_SCCMPCLK.c **** #if defined(SCCT_Comp_1_SCCMPCLK__CFG3)
 233:.\Generated_Source\PSoC5/SCCT_Comp_1_SCCMPCLK.c ****                 CLK_DIST_AMASK = SCCT_Comp_1_SCCMPCLK_CLKEN_MASK;
 281              		.loc 1 233 0
 282 00b8 44F21403 		movw	r3, #:lower16:1073758228
 283 00bc C4F20003 		movt	r3, #:upper16:1073758228
 284 00c0 4FF00102 		mov	r2, #1
 285 00c4 1A70     		strb	r2, [r3, #0]
 234:.\Generated_Source\PSoC5/SCCT_Comp_1_SCCMPCLK.c ****                 CLK_DIST_DMASK = 0x00u;
 286              		.loc 1 234 0
 287 00c6 44F21003 		movw	r3, #:lower16:1073758224
 288 00ca C4F20003 		movt	r3, #:upper16:1073758224
 289 00ce 4FF00002 		mov	r2, #0
 290 00d2 1A70     		strb	r2, [r3, #0]
 235:.\Generated_Source\PSoC5/SCCT_Comp_1_SCCMPCLK.c **** #else
 236:.\Generated_Source\PSoC5/SCCT_Comp_1_SCCMPCLK.c ****                 CLK_DIST_DMASK = SCCT_Comp_1_SCCMPCLK_CLKEN_MASK;
 237:.\Generated_Source\PSoC5/SCCT_Comp_1_SCCMPCLK.c ****                 CLK_DIST_AMASK = 0x00u;
 238:.\Generated_Source\PSoC5/SCCT_Comp_1_SCCMPCLK.c **** #endif /* SCCT_Comp_1_SCCMPCLK__CFG3 */
 239:.\Generated_Source\PSoC5/SCCT_Comp_1_SCCMPCLK.c ****                 /* Clear mask of bus clock. */
 240:.\Generated_Source\PSoC5/SCCT_Comp_1_SCCMPCLK.c ****                 CLK_DIST_BCFG2 &= (uint8)(~BCFG2_MASK);
 291              		.loc 1 240 0
 292 00d4 44F20803 		movw	r3, #:lower16:1073758216
 293 00d8 C4F20003 		movt	r3, #:upper16:1073758216
 294 00dc 44F20802 		movw	r2, #:lower16:1073758216
 295 00e0 C4F20002 		movt	r2, #:upper16:1073758216
 296 00e4 1278     		ldrb	r2, [r2, #0]
 297 00e6 D2B2     		uxtb	r2, r2
 298 00e8 02F07F02 		and	r2, r2, #127
 299 00ec 1A70     		strb	r2, [r3, #0]
 241:.\Generated_Source\PSoC5/SCCT_Comp_1_SCCMPCLK.c **** 
 242:.\Generated_Source\PSoC5/SCCT_Comp_1_SCCMPCLK.c ****                 /* If clock is currently enabled, disable it if async or going from N-to-1*/
 243:.\Generated_Source\PSoC5/SCCT_Comp_1_SCCMPCLK.c ****                 if (((SCCT_Comp_1_SCCMPCLK_MOD_SRC & CYCLK_SYNC) == 0u) || (clkDivider == 0u))
 300              		.loc 1 243 0
 301 00ee 44F20213 		movw	r3, #:lower16:1073758466
 302 00f2 C4F20003 		movt	r3, #:upper16:1073758466
 303 00f6 1B78     		ldrb	r3, [r3, #0]
 304 00f8 DBB2     		uxtb	r3, r3
 305 00fa 03F00803 		and	r3, r3, #8
 306 00fe 002B     		cmp	r3, #0
 307 0100 02D0     		beq	.L16
 308 0102 FB88     		ldrh	r3, [r7, #6]
 309 0104 002B     		cmp	r3, #0
 310 0106 0CD1     		bne	.L15
 311              	.L16:
 244:.\Generated_Source\PSoC5/SCCT_Comp_1_SCCMPCLK.c ****                 {
 245:.\Generated_Source\PSoC5/SCCT_Comp_1_SCCMPCLK.c **** #if HAS_CLKDIST_LD_DISABLE
 246:.\Generated_Source\PSoC5/SCCT_Comp_1_SCCMPCLK.c ****                     CY_SET_REG16(CYREG_CLKDIST_WRK0, oldDivider);
 247:.\Generated_Source\PSoC5/SCCT_Comp_1_SCCMPCLK.c ****                     CLK_DIST_LD = CYCLK_LD_DISABLE|CYCLK_LD_SYNC_EN|CYCLK_LD_LOAD;
 248:.\Generated_Source\PSoC5/SCCT_Comp_1_SCCMPCLK.c **** 
 249:.\Generated_Source\PSoC5/SCCT_Comp_1_SCCMPCLK.c ****                     /* Wait for clock to be disabled */
 250:.\Generated_Source\PSoC5/SCCT_Comp_1_SCCMPCLK.c ****                     while ((CLK_DIST_LD & CYCLK_LD_LOAD) != 0u) { }
 251:.\Generated_Source\PSoC5/SCCT_Comp_1_SCCMPCLK.c **** #endif /* HAS_CLKDIST_LD_DISABLE */
 252:.\Generated_Source\PSoC5/SCCT_Comp_1_SCCMPCLK.c **** 
 253:.\Generated_Source\PSoC5/SCCT_Comp_1_SCCMPCLK.c ****                     SCCT_Comp_1_SCCMPCLK_CLKEN &= (uint8)(~SCCT_Comp_1_SCCMPCLK_CLKEN_MASK);
 312              		.loc 1 253 0
 313 0108 44F2A133 		movw	r3, #:lower16:1073759137
ARM GAS  C:\Users\karunmj\AppData\Local\Temp\ccUji5Hf.s 			page 11


 314 010c C4F20003 		movt	r3, #:upper16:1073759137
 315 0110 44F2A132 		movw	r2, #:lower16:1073759137
 316 0114 C4F20002 		movt	r2, #:upper16:1073759137
 317 0118 1278     		ldrb	r2, [r2, #0]
 318 011a D2B2     		uxtb	r2, r2
 319 011c 02F0FE02 		and	r2, r2, #254
 320 0120 1A70     		strb	r2, [r3, #0]
 321              	.L15:
 254:.\Generated_Source\PSoC5/SCCT_Comp_1_SCCMPCLK.c **** 
 255:.\Generated_Source\PSoC5/SCCT_Comp_1_SCCMPCLK.c **** #if HAS_CLKDIST_LD_DISABLE
 256:.\Generated_Source\PSoC5/SCCT_Comp_1_SCCMPCLK.c ****                     /* Clear the disable bit */
 257:.\Generated_Source\PSoC5/SCCT_Comp_1_SCCMPCLK.c ****                     CLK_DIST_LD = 0x00u;
 258:.\Generated_Source\PSoC5/SCCT_Comp_1_SCCMPCLK.c **** #endif /* HAS_CLKDIST_LD_DISABLE */
 259:.\Generated_Source\PSoC5/SCCT_Comp_1_SCCMPCLK.c ****                 }
 260:.\Generated_Source\PSoC5/SCCT_Comp_1_SCCMPCLK.c ****             }
 261:.\Generated_Source\PSoC5/SCCT_Comp_1_SCCMPCLK.c **** 
 262:.\Generated_Source\PSoC5/SCCT_Comp_1_SCCMPCLK.c ****             /* Load divide value. */
 263:.\Generated_Source\PSoC5/SCCT_Comp_1_SCCMPCLK.c ****             if ((SCCT_Comp_1_SCCMPCLK_CLKEN & SCCT_Comp_1_SCCMPCLK_CLKEN_MASK) != 0u)
 322              		.loc 1 263 0
 323 0122 44F2A133 		movw	r3, #:lower16:1073759137
 324 0126 C4F20003 		movt	r3, #:upper16:1073759137
 325 012a 1B78     		ldrb	r3, [r3, #0]
 326 012c DBB2     		uxtb	r3, r3
 327 012e 03F00103 		and	r3, r3, #1
 328 0132 DBB2     		uxtb	r3, r3
 329 0134 002B     		cmp	r3, #0
 330 0136 1ED0     		beq	.L17
 264:.\Generated_Source\PSoC5/SCCT_Comp_1_SCCMPCLK.c ****             {
 265:.\Generated_Source\PSoC5/SCCT_Comp_1_SCCMPCLK.c ****                 /* If the clock is still enabled, use the shadow registers */
 266:.\Generated_Source\PSoC5/SCCT_Comp_1_SCCMPCLK.c ****                 CY_SET_REG16(CYREG_CLKDIST_WRK0, clkDivider);
 331              		.loc 1 266 0
 332 0138 44F20203 		movw	r3, #:lower16:1073758210
 333 013c C4F20003 		movt	r3, #:upper16:1073758210
 334 0140 FA88     		ldrh	r2, [r7, #6]	@ movhi
 335 0142 1A80     		strh	r2, [r3, #0]	@ movhi
 267:.\Generated_Source\PSoC5/SCCT_Comp_1_SCCMPCLK.c **** 
 268:.\Generated_Source\PSoC5/SCCT_Comp_1_SCCMPCLK.c ****                 CLK_DIST_LD = (CYCLK_LD_LOAD | ((restart != 0u) ? CYCLK_LD_SYNC_EN : 0x00u));
 336              		.loc 1 268 0
 337 0144 44F20103 		movw	r3, #:lower16:1073758209
 338 0148 C4F20003 		movt	r3, #:upper16:1073758209
 339 014c 7A79     		ldrb	r2, [r7, #5]	@ zero_extendqisi2
 340 014e 002A     		cmp	r2, #0
 341 0150 02D0     		beq	.L18
 342 0152 4FF00302 		mov	r2, #3
 343 0156 01E0     		b	.L19
 344              	.L18:
 345 0158 4FF00102 		mov	r2, #1
 346              	.L19:
 347 015c 1A70     		strb	r2, [r3, #0]
 348              	.L20:
 269:.\Generated_Source\PSoC5/SCCT_Comp_1_SCCMPCLK.c ****                 while ((CLK_DIST_LD & CYCLK_LD_LOAD) != 0u) { }
 349              		.loc 1 269 0
 350 015e 44F20103 		movw	r3, #:lower16:1073758209
 351 0162 C4F20003 		movt	r3, #:upper16:1073758209
 352 0166 1B78     		ldrb	r3, [r3, #0]
 353 0168 DBB2     		uxtb	r3, r3
 354 016a 03F00103 		and	r3, r3, #1
ARM GAS  C:\Users\karunmj\AppData\Local\Temp\ccUji5Hf.s 			page 12


 355 016e DBB2     		uxtb	r3, r3
 356 0170 002B     		cmp	r3, #0
 357 0172 F4D1     		bne	.L20
 358 0174 14E0     		b	.L21
 359              	.L17:
 270:.\Generated_Source\PSoC5/SCCT_Comp_1_SCCMPCLK.c ****             }
 271:.\Generated_Source\PSoC5/SCCT_Comp_1_SCCMPCLK.c ****             else
 272:.\Generated_Source\PSoC5/SCCT_Comp_1_SCCMPCLK.c ****             {
 273:.\Generated_Source\PSoC5/SCCT_Comp_1_SCCMPCLK.c ****                 /* If the clock is disabled, set the divider directly */
 274:.\Generated_Source\PSoC5/SCCT_Comp_1_SCCMPCLK.c ****                 CY_SET_REG16(SCCT_Comp_1_SCCMPCLK_DIV_PTR, clkDivider);
 360              		.loc 1 274 0
 361 0176 44F20013 		movw	r3, #:lower16:1073758464
 362 017a C4F20003 		movt	r3, #:upper16:1073758464
 363 017e FA88     		ldrh	r2, [r7, #6]	@ movhi
 364 0180 1A80     		strh	r2, [r3, #0]	@ movhi
 275:.\Generated_Source\PSoC5/SCCT_Comp_1_SCCMPCLK.c **** 				SCCT_Comp_1_SCCMPCLK_CLKEN |= enabled;
 365              		.loc 1 275 0
 366 0182 44F2A133 		movw	r3, #:lower16:1073759137
 367 0186 C4F20003 		movt	r3, #:upper16:1073759137
 368 018a 44F2A132 		movw	r2, #:lower16:1073759137
 369 018e C4F20002 		movt	r2, #:upper16:1073759137
 370 0192 1278     		ldrb	r2, [r2, #0]
 371 0194 D1B2     		uxtb	r1, r2
 372 0196 3A7B     		ldrb	r2, [r7, #12]
 373 0198 41EA0202 		orr	r2, r1, r2
 374 019c D2B2     		uxtb	r2, r2
 375 019e 1A70     		strb	r2, [r3, #0]
 376              	.L21:
 276:.\Generated_Source\PSoC5/SCCT_Comp_1_SCCMPCLK.c ****             }
 277:.\Generated_Source\PSoC5/SCCT_Comp_1_SCCMPCLK.c ****         }
 278:.\Generated_Source\PSoC5/SCCT_Comp_1_SCCMPCLK.c ****     }
 279:.\Generated_Source\PSoC5/SCCT_Comp_1_SCCMPCLK.c **** }
 377              		.loc 1 279 0
 378 01a0 07F11007 		add	r7, r7, #16
 379 01a4 BD46     		mov	sp, r7
 380 01a6 80BD     		pop	{r7, pc}
 381              		.cfi_endproc
 382              	.LFE3:
 383              		.size	SCCT_Comp_1_SCCMPCLK_SetDividerRegister, .-SCCT_Comp_1_SCCMPCLK_SetDividerRegister
 384              		.section	.text.SCCT_Comp_1_SCCMPCLK_GetDividerRegister,"ax",%progbits
 385              		.align	2
 386              		.global	SCCT_Comp_1_SCCMPCLK_GetDividerRegister
 387              		.thumb
 388              		.thumb_func
 389              		.type	SCCT_Comp_1_SCCMPCLK_GetDividerRegister, %function
 390              	SCCT_Comp_1_SCCMPCLK_GetDividerRegister:
 391              	.LFB4:
 280:.\Generated_Source\PSoC5/SCCT_Comp_1_SCCMPCLK.c **** 
 281:.\Generated_Source\PSoC5/SCCT_Comp_1_SCCMPCLK.c **** 
 282:.\Generated_Source\PSoC5/SCCT_Comp_1_SCCMPCLK.c **** /*******************************************************************************
 283:.\Generated_Source\PSoC5/SCCT_Comp_1_SCCMPCLK.c **** * Function Name: SCCT_Comp_1_SCCMPCLK_GetDividerRegister
 284:.\Generated_Source\PSoC5/SCCT_Comp_1_SCCMPCLK.c **** ********************************************************************************
 285:.\Generated_Source\PSoC5/SCCT_Comp_1_SCCMPCLK.c **** *
 286:.\Generated_Source\PSoC5/SCCT_Comp_1_SCCMPCLK.c **** * Summary:
 287:.\Generated_Source\PSoC5/SCCT_Comp_1_SCCMPCLK.c **** *  Gets the clock divider register value.
 288:.\Generated_Source\PSoC5/SCCT_Comp_1_SCCMPCLK.c **** *
 289:.\Generated_Source\PSoC5/SCCT_Comp_1_SCCMPCLK.c **** * Parameters:
ARM GAS  C:\Users\karunmj\AppData\Local\Temp\ccUji5Hf.s 			page 13


 290:.\Generated_Source\PSoC5/SCCT_Comp_1_SCCMPCLK.c **** *  None
 291:.\Generated_Source\PSoC5/SCCT_Comp_1_SCCMPCLK.c **** *
 292:.\Generated_Source\PSoC5/SCCT_Comp_1_SCCMPCLK.c **** * Returns:
 293:.\Generated_Source\PSoC5/SCCT_Comp_1_SCCMPCLK.c **** *  Divide value of the clock minus 1. For example, if the clock is set to
 294:.\Generated_Source\PSoC5/SCCT_Comp_1_SCCMPCLK.c **** *  divide by 2, the return value will be 1.
 295:.\Generated_Source\PSoC5/SCCT_Comp_1_SCCMPCLK.c **** *
 296:.\Generated_Source\PSoC5/SCCT_Comp_1_SCCMPCLK.c **** *******************************************************************************/
 297:.\Generated_Source\PSoC5/SCCT_Comp_1_SCCMPCLK.c **** uint16 SCCT_Comp_1_SCCMPCLK_GetDividerRegister(void) 
 298:.\Generated_Source\PSoC5/SCCT_Comp_1_SCCMPCLK.c **** {
 392              		.loc 1 298 0
 393              		.cfi_startproc
 394              		@ args = 0, pretend = 0, frame = 0
 395              		@ frame_needed = 1, uses_anonymous_args = 0
 396              		@ link register save eliminated.
 397 0000 80B4     		push	{r7}
 398              	.LCFI10:
 399              		.cfi_def_cfa_offset 4
 400 0002 00AF     		add	r7, sp, #0
 401              		.cfi_offset 7, -4
 402              	.LCFI11:
 403              		.cfi_def_cfa_register 7
 299:.\Generated_Source\PSoC5/SCCT_Comp_1_SCCMPCLK.c ****     return CY_GET_REG16(SCCT_Comp_1_SCCMPCLK_DIV_PTR);
 404              		.loc 1 299 0
 405 0004 44F20013 		movw	r3, #:lower16:1073758464
 406 0008 C4F20003 		movt	r3, #:upper16:1073758464
 407 000c 1B88     		ldrh	r3, [r3, #0]	@ movhi
 408 000e 9BB2     		uxth	r3, r3
 300:.\Generated_Source\PSoC5/SCCT_Comp_1_SCCMPCLK.c **** }
 409              		.loc 1 300 0
 410 0010 1846     		mov	r0, r3
 411 0012 BD46     		mov	sp, r7
 412 0014 80BC     		pop	{r7}
 413 0016 7047     		bx	lr
 414              		.cfi_endproc
 415              	.LFE4:
 416              		.size	SCCT_Comp_1_SCCMPCLK_GetDividerRegister, .-SCCT_Comp_1_SCCMPCLK_GetDividerRegister
 417              		.section	.text.SCCT_Comp_1_SCCMPCLK_SetModeRegister,"ax",%progbits
 418              		.align	2
 419              		.global	SCCT_Comp_1_SCCMPCLK_SetModeRegister
 420              		.thumb
 421              		.thumb_func
 422              		.type	SCCT_Comp_1_SCCMPCLK_SetModeRegister, %function
 423              	SCCT_Comp_1_SCCMPCLK_SetModeRegister:
 424              	.LFB5:
 301:.\Generated_Source\PSoC5/SCCT_Comp_1_SCCMPCLK.c **** 
 302:.\Generated_Source\PSoC5/SCCT_Comp_1_SCCMPCLK.c **** 
 303:.\Generated_Source\PSoC5/SCCT_Comp_1_SCCMPCLK.c **** /*******************************************************************************
 304:.\Generated_Source\PSoC5/SCCT_Comp_1_SCCMPCLK.c **** * Function Name: SCCT_Comp_1_SCCMPCLK_SetModeRegister
 305:.\Generated_Source\PSoC5/SCCT_Comp_1_SCCMPCLK.c **** ********************************************************************************
 306:.\Generated_Source\PSoC5/SCCT_Comp_1_SCCMPCLK.c **** *
 307:.\Generated_Source\PSoC5/SCCT_Comp_1_SCCMPCLK.c **** * Summary:
 308:.\Generated_Source\PSoC5/SCCT_Comp_1_SCCMPCLK.c **** *  Sets flags that control the operating mode of the clock. This function only
 309:.\Generated_Source\PSoC5/SCCT_Comp_1_SCCMPCLK.c **** *  changes flags from 0 to 1; flags that are already 1 will remain unchanged.
 310:.\Generated_Source\PSoC5/SCCT_Comp_1_SCCMPCLK.c **** *  To clear flags, use the ClearModeRegister function. The clock must be
 311:.\Generated_Source\PSoC5/SCCT_Comp_1_SCCMPCLK.c **** *  disabled before changing the mode.
 312:.\Generated_Source\PSoC5/SCCT_Comp_1_SCCMPCLK.c **** *
 313:.\Generated_Source\PSoC5/SCCT_Comp_1_SCCMPCLK.c **** * Parameters:
ARM GAS  C:\Users\karunmj\AppData\Local\Temp\ccUji5Hf.s 			page 14


 314:.\Generated_Source\PSoC5/SCCT_Comp_1_SCCMPCLK.c **** *  clkMode: Bit mask containing the bits to set. For PSoC 3 and PSoC 5,
 315:.\Generated_Source\PSoC5/SCCT_Comp_1_SCCMPCLK.c **** *   clkMode should be a set of the following optional bits or'ed together.
 316:.\Generated_Source\PSoC5/SCCT_Comp_1_SCCMPCLK.c **** *   - CYCLK_EARLY Enable early phase mode. Rising edge of output clock will
 317:.\Generated_Source\PSoC5/SCCT_Comp_1_SCCMPCLK.c **** *                 occur when the divider count reaches half of the divide
 318:.\Generated_Source\PSoC5/SCCT_Comp_1_SCCMPCLK.c **** *                 value.
 319:.\Generated_Source\PSoC5/SCCT_Comp_1_SCCMPCLK.c **** *   - CYCLK_DUTY  Enable 50% duty cycle output. When enabled, the output clock
 320:.\Generated_Source\PSoC5/SCCT_Comp_1_SCCMPCLK.c **** *                 is asserted for approximately half of its period. When
 321:.\Generated_Source\PSoC5/SCCT_Comp_1_SCCMPCLK.c **** *                 disabled, the output clock is asserted for one period of the
 322:.\Generated_Source\PSoC5/SCCT_Comp_1_SCCMPCLK.c **** *                 source clock.
 323:.\Generated_Source\PSoC5/SCCT_Comp_1_SCCMPCLK.c **** *   - CYCLK_SYNC  Enable output synchronization to master clock. This should
 324:.\Generated_Source\PSoC5/SCCT_Comp_1_SCCMPCLK.c **** *                 be enabled for all synchronous clocks.
 325:.\Generated_Source\PSoC5/SCCT_Comp_1_SCCMPCLK.c **** *   See the Technical Reference Manual for details about setting the mode of
 326:.\Generated_Source\PSoC5/SCCT_Comp_1_SCCMPCLK.c **** *   the clock. Specifically, see the CLKDIST.DCFG.CFG2 register.
 327:.\Generated_Source\PSoC5/SCCT_Comp_1_SCCMPCLK.c **** *
 328:.\Generated_Source\PSoC5/SCCT_Comp_1_SCCMPCLK.c **** * Returns:
 329:.\Generated_Source\PSoC5/SCCT_Comp_1_SCCMPCLK.c **** *  None
 330:.\Generated_Source\PSoC5/SCCT_Comp_1_SCCMPCLK.c **** *
 331:.\Generated_Source\PSoC5/SCCT_Comp_1_SCCMPCLK.c **** *******************************************************************************/
 332:.\Generated_Source\PSoC5/SCCT_Comp_1_SCCMPCLK.c **** void SCCT_Comp_1_SCCMPCLK_SetModeRegister(uint8 modeBitMask) 
 333:.\Generated_Source\PSoC5/SCCT_Comp_1_SCCMPCLK.c **** {
 425              		.loc 1 333 0
 426              		.cfi_startproc
 427              		@ args = 0, pretend = 0, frame = 8
 428              		@ frame_needed = 1, uses_anonymous_args = 0
 429              		@ link register save eliminated.
 430 0000 80B4     		push	{r7}
 431              	.LCFI12:
 432              		.cfi_def_cfa_offset 4
 433 0002 83B0     		sub	sp, sp, #12
 434              	.LCFI13:
 435              		.cfi_def_cfa_offset 16
 436 0004 00AF     		add	r7, sp, #0
 437              		.cfi_offset 7, -4
 438              	.LCFI14:
 439              		.cfi_def_cfa_register 7
 440 0006 0346     		mov	r3, r0
 441 0008 FB71     		strb	r3, [r7, #7]
 334:.\Generated_Source\PSoC5/SCCT_Comp_1_SCCMPCLK.c ****     SCCT_Comp_1_SCCMPCLK_MOD_SRC |= modeBitMask & (uint8)SCCT_Comp_1_SCCMPCLK_MODE_MASK;
 442              		.loc 1 334 0
 443 000a 44F20213 		movw	r3, #:lower16:1073758466
 444 000e C4F20003 		movt	r3, #:upper16:1073758466
 445 0012 44F20212 		movw	r2, #:lower16:1073758466
 446 0016 C4F20002 		movt	r2, #:upper16:1073758466
 447 001a 1278     		ldrb	r2, [r2, #0]
 448 001c D2B2     		uxtb	r2, r2
 449 001e 1146     		mov	r1, r2
 450 0020 FA79     		ldrb	r2, [r7, #7]	@ zero_extendqisi2
 451 0022 D2B2     		uxtb	r2, r2
 452 0024 02F0F802 		and	r2, r2, #248
 453 0028 41EA0202 		orr	r2, r1, r2
 454 002c D2B2     		uxtb	r2, r2
 455 002e D2B2     		uxtb	r2, r2
 456 0030 1A70     		strb	r2, [r3, #0]
 335:.\Generated_Source\PSoC5/SCCT_Comp_1_SCCMPCLK.c **** }
 457              		.loc 1 335 0
 458 0032 07F10C07 		add	r7, r7, #12
 459 0036 BD46     		mov	sp, r7
ARM GAS  C:\Users\karunmj\AppData\Local\Temp\ccUji5Hf.s 			page 15


 460 0038 80BC     		pop	{r7}
 461 003a 7047     		bx	lr
 462              		.cfi_endproc
 463              	.LFE5:
 464              		.size	SCCT_Comp_1_SCCMPCLK_SetModeRegister, .-SCCT_Comp_1_SCCMPCLK_SetModeRegister
 465              		.section	.text.SCCT_Comp_1_SCCMPCLK_ClearModeRegister,"ax",%progbits
 466              		.align	2
 467              		.global	SCCT_Comp_1_SCCMPCLK_ClearModeRegister
 468              		.thumb
 469              		.thumb_func
 470              		.type	SCCT_Comp_1_SCCMPCLK_ClearModeRegister, %function
 471              	SCCT_Comp_1_SCCMPCLK_ClearModeRegister:
 472              	.LFB6:
 336:.\Generated_Source\PSoC5/SCCT_Comp_1_SCCMPCLK.c **** 
 337:.\Generated_Source\PSoC5/SCCT_Comp_1_SCCMPCLK.c **** 
 338:.\Generated_Source\PSoC5/SCCT_Comp_1_SCCMPCLK.c **** /*******************************************************************************
 339:.\Generated_Source\PSoC5/SCCT_Comp_1_SCCMPCLK.c **** * Function Name: SCCT_Comp_1_SCCMPCLK_ClearModeRegister
 340:.\Generated_Source\PSoC5/SCCT_Comp_1_SCCMPCLK.c **** ********************************************************************************
 341:.\Generated_Source\PSoC5/SCCT_Comp_1_SCCMPCLK.c **** *
 342:.\Generated_Source\PSoC5/SCCT_Comp_1_SCCMPCLK.c **** * Summary:
 343:.\Generated_Source\PSoC5/SCCT_Comp_1_SCCMPCLK.c **** *  Clears flags that control the operating mode of the clock. This function
 344:.\Generated_Source\PSoC5/SCCT_Comp_1_SCCMPCLK.c **** *  only changes flags from 1 to 0; flags that are already 0 will remain
 345:.\Generated_Source\PSoC5/SCCT_Comp_1_SCCMPCLK.c **** *  unchanged. To set flags, use the SetModeRegister function. The clock must be
 346:.\Generated_Source\PSoC5/SCCT_Comp_1_SCCMPCLK.c **** *  disabled before changing the mode.
 347:.\Generated_Source\PSoC5/SCCT_Comp_1_SCCMPCLK.c **** *
 348:.\Generated_Source\PSoC5/SCCT_Comp_1_SCCMPCLK.c **** * Parameters:
 349:.\Generated_Source\PSoC5/SCCT_Comp_1_SCCMPCLK.c **** *  clkMode: Bit mask containing the bits to clear. For PSoC 3 and PSoC 5,
 350:.\Generated_Source\PSoC5/SCCT_Comp_1_SCCMPCLK.c **** *   clkMode should be a set of the following optional bits or'ed together.
 351:.\Generated_Source\PSoC5/SCCT_Comp_1_SCCMPCLK.c **** *   - CYCLK_EARLY Enable early phase mode. Rising edge of output clock will
 352:.\Generated_Source\PSoC5/SCCT_Comp_1_SCCMPCLK.c **** *                 occur when the divider count reaches half of the divide
 353:.\Generated_Source\PSoC5/SCCT_Comp_1_SCCMPCLK.c **** *                 value.
 354:.\Generated_Source\PSoC5/SCCT_Comp_1_SCCMPCLK.c **** *   - CYCLK_DUTY  Enable 50% duty cycle output. When enabled, the output clock
 355:.\Generated_Source\PSoC5/SCCT_Comp_1_SCCMPCLK.c **** *                 is asserted for approximately half of its period. When
 356:.\Generated_Source\PSoC5/SCCT_Comp_1_SCCMPCLK.c **** *                 disabled, the output clock is asserted for one period of the
 357:.\Generated_Source\PSoC5/SCCT_Comp_1_SCCMPCLK.c **** *                 source clock.
 358:.\Generated_Source\PSoC5/SCCT_Comp_1_SCCMPCLK.c **** *   - CYCLK_SYNC  Enable output synchronization to master clock. This should
 359:.\Generated_Source\PSoC5/SCCT_Comp_1_SCCMPCLK.c **** *                 be enabled for all synchronous clocks.
 360:.\Generated_Source\PSoC5/SCCT_Comp_1_SCCMPCLK.c **** *   See the Technical Reference Manual for details about setting the mode of
 361:.\Generated_Source\PSoC5/SCCT_Comp_1_SCCMPCLK.c **** *   the clock. Specifically, see the CLKDIST.DCFG.CFG2 register.
 362:.\Generated_Source\PSoC5/SCCT_Comp_1_SCCMPCLK.c **** *
 363:.\Generated_Source\PSoC5/SCCT_Comp_1_SCCMPCLK.c **** * Returns:
 364:.\Generated_Source\PSoC5/SCCT_Comp_1_SCCMPCLK.c **** *  None
 365:.\Generated_Source\PSoC5/SCCT_Comp_1_SCCMPCLK.c **** *
 366:.\Generated_Source\PSoC5/SCCT_Comp_1_SCCMPCLK.c **** *******************************************************************************/
 367:.\Generated_Source\PSoC5/SCCT_Comp_1_SCCMPCLK.c **** void SCCT_Comp_1_SCCMPCLK_ClearModeRegister(uint8 modeBitMask) 
 368:.\Generated_Source\PSoC5/SCCT_Comp_1_SCCMPCLK.c **** {
 473              		.loc 1 368 0
 474              		.cfi_startproc
 475              		@ args = 0, pretend = 0, frame = 8
 476              		@ frame_needed = 1, uses_anonymous_args = 0
 477              		@ link register save eliminated.
 478 0000 80B4     		push	{r7}
 479              	.LCFI15:
 480              		.cfi_def_cfa_offset 4
 481 0002 83B0     		sub	sp, sp, #12
 482              	.LCFI16:
 483              		.cfi_def_cfa_offset 16
ARM GAS  C:\Users\karunmj\AppData\Local\Temp\ccUji5Hf.s 			page 16


 484 0004 00AF     		add	r7, sp, #0
 485              		.cfi_offset 7, -4
 486              	.LCFI17:
 487              		.cfi_def_cfa_register 7
 488 0006 0346     		mov	r3, r0
 489 0008 FB71     		strb	r3, [r7, #7]
 369:.\Generated_Source\PSoC5/SCCT_Comp_1_SCCMPCLK.c ****     SCCT_Comp_1_SCCMPCLK_MOD_SRC &= (uint8)(~modeBitMask) | (uint8)(~(uint8)(SCCT_Comp_1_SCCMPCLK_M
 490              		.loc 1 369 0
 491 000a 44F20213 		movw	r3, #:lower16:1073758466
 492 000e C4F20003 		movt	r3, #:upper16:1073758466
 493 0012 44F20212 		movw	r2, #:lower16:1073758466
 494 0016 C4F20002 		movt	r2, #:upper16:1073758466
 495 001a 1278     		ldrb	r2, [r2, #0]
 496 001c D1B2     		uxtb	r1, r2
 497 001e FA79     		ldrb	r2, [r7, #7]
 498 0020 6FEA0202 		mvn	r2, r2
 499 0024 D2B2     		uxtb	r2, r2
 500 0026 42F00702 		orr	r2, r2, #7
 501 002a D2B2     		uxtb	r2, r2
 502 002c 01EA0202 		and	r2, r1, r2
 503 0030 D2B2     		uxtb	r2, r2
 504 0032 1A70     		strb	r2, [r3, #0]
 370:.\Generated_Source\PSoC5/SCCT_Comp_1_SCCMPCLK.c **** }
 505              		.loc 1 370 0
 506 0034 07F10C07 		add	r7, r7, #12
 507 0038 BD46     		mov	sp, r7
 508 003a 80BC     		pop	{r7}
 509 003c 7047     		bx	lr
 510              		.cfi_endproc
 511              	.LFE6:
 512              		.size	SCCT_Comp_1_SCCMPCLK_ClearModeRegister, .-SCCT_Comp_1_SCCMPCLK_ClearModeRegister
 513 003e 00BF     		.section	.text.SCCT_Comp_1_SCCMPCLK_GetModeRegister,"ax",%progbits
 514              		.align	2
 515              		.global	SCCT_Comp_1_SCCMPCLK_GetModeRegister
 516              		.thumb
 517              		.thumb_func
 518              		.type	SCCT_Comp_1_SCCMPCLK_GetModeRegister, %function
 519              	SCCT_Comp_1_SCCMPCLK_GetModeRegister:
 520              	.LFB7:
 371:.\Generated_Source\PSoC5/SCCT_Comp_1_SCCMPCLK.c **** 
 372:.\Generated_Source\PSoC5/SCCT_Comp_1_SCCMPCLK.c **** 
 373:.\Generated_Source\PSoC5/SCCT_Comp_1_SCCMPCLK.c **** /*******************************************************************************
 374:.\Generated_Source\PSoC5/SCCT_Comp_1_SCCMPCLK.c **** * Function Name: SCCT_Comp_1_SCCMPCLK_GetModeRegister
 375:.\Generated_Source\PSoC5/SCCT_Comp_1_SCCMPCLK.c **** ********************************************************************************
 376:.\Generated_Source\PSoC5/SCCT_Comp_1_SCCMPCLK.c **** *
 377:.\Generated_Source\PSoC5/SCCT_Comp_1_SCCMPCLK.c **** * Summary:
 378:.\Generated_Source\PSoC5/SCCT_Comp_1_SCCMPCLK.c **** *  Gets the clock mode register value.
 379:.\Generated_Source\PSoC5/SCCT_Comp_1_SCCMPCLK.c **** *
 380:.\Generated_Source\PSoC5/SCCT_Comp_1_SCCMPCLK.c **** * Parameters:
 381:.\Generated_Source\PSoC5/SCCT_Comp_1_SCCMPCLK.c **** *  None
 382:.\Generated_Source\PSoC5/SCCT_Comp_1_SCCMPCLK.c **** *
 383:.\Generated_Source\PSoC5/SCCT_Comp_1_SCCMPCLK.c **** * Returns:
 384:.\Generated_Source\PSoC5/SCCT_Comp_1_SCCMPCLK.c **** *  Bit mask representing the enabled mode bits. See the SetModeRegister and
 385:.\Generated_Source\PSoC5/SCCT_Comp_1_SCCMPCLK.c **** *  ClearModeRegister descriptions for details about the mode bits.
 386:.\Generated_Source\PSoC5/SCCT_Comp_1_SCCMPCLK.c **** *
 387:.\Generated_Source\PSoC5/SCCT_Comp_1_SCCMPCLK.c **** *******************************************************************************/
 388:.\Generated_Source\PSoC5/SCCT_Comp_1_SCCMPCLK.c **** uint8 SCCT_Comp_1_SCCMPCLK_GetModeRegister(void) 
ARM GAS  C:\Users\karunmj\AppData\Local\Temp\ccUji5Hf.s 			page 17


 389:.\Generated_Source\PSoC5/SCCT_Comp_1_SCCMPCLK.c **** {
 521              		.loc 1 389 0
 522              		.cfi_startproc
 523              		@ args = 0, pretend = 0, frame = 0
 524              		@ frame_needed = 1, uses_anonymous_args = 0
 525              		@ link register save eliminated.
 526 0000 80B4     		push	{r7}
 527              	.LCFI18:
 528              		.cfi_def_cfa_offset 4
 529 0002 00AF     		add	r7, sp, #0
 530              		.cfi_offset 7, -4
 531              	.LCFI19:
 532              		.cfi_def_cfa_register 7
 390:.\Generated_Source\PSoC5/SCCT_Comp_1_SCCMPCLK.c ****     return SCCT_Comp_1_SCCMPCLK_MOD_SRC & (uint8)(SCCT_Comp_1_SCCMPCLK_MODE_MASK);
 533              		.loc 1 390 0
 534 0004 44F20213 		movw	r3, #:lower16:1073758466
 535 0008 C4F20003 		movt	r3, #:upper16:1073758466
 536 000c 1B78     		ldrb	r3, [r3, #0]
 537 000e DBB2     		uxtb	r3, r3
 538 0010 03F0F803 		and	r3, r3, #248
 391:.\Generated_Source\PSoC5/SCCT_Comp_1_SCCMPCLK.c **** }
 539              		.loc 1 391 0
 540 0014 1846     		mov	r0, r3
 541 0016 BD46     		mov	sp, r7
 542 0018 80BC     		pop	{r7}
 543 001a 7047     		bx	lr
 544              		.cfi_endproc
 545              	.LFE7:
 546              		.size	SCCT_Comp_1_SCCMPCLK_GetModeRegister, .-SCCT_Comp_1_SCCMPCLK_GetModeRegister
 547              		.section	.text.SCCT_Comp_1_SCCMPCLK_SetSourceRegister,"ax",%progbits
 548              		.align	2
 549              		.global	SCCT_Comp_1_SCCMPCLK_SetSourceRegister
 550              		.thumb
 551              		.thumb_func
 552              		.type	SCCT_Comp_1_SCCMPCLK_SetSourceRegister, %function
 553              	SCCT_Comp_1_SCCMPCLK_SetSourceRegister:
 554              	.LFB8:
 392:.\Generated_Source\PSoC5/SCCT_Comp_1_SCCMPCLK.c **** 
 393:.\Generated_Source\PSoC5/SCCT_Comp_1_SCCMPCLK.c **** 
 394:.\Generated_Source\PSoC5/SCCT_Comp_1_SCCMPCLK.c **** /*******************************************************************************
 395:.\Generated_Source\PSoC5/SCCT_Comp_1_SCCMPCLK.c **** * Function Name: SCCT_Comp_1_SCCMPCLK_SetSourceRegister
 396:.\Generated_Source\PSoC5/SCCT_Comp_1_SCCMPCLK.c **** ********************************************************************************
 397:.\Generated_Source\PSoC5/SCCT_Comp_1_SCCMPCLK.c **** *
 398:.\Generated_Source\PSoC5/SCCT_Comp_1_SCCMPCLK.c **** * Summary:
 399:.\Generated_Source\PSoC5/SCCT_Comp_1_SCCMPCLK.c **** *  Sets the input source of the clock. The clock must be disabled before
 400:.\Generated_Source\PSoC5/SCCT_Comp_1_SCCMPCLK.c **** *  changing the source. The old and new clock sources must be running.
 401:.\Generated_Source\PSoC5/SCCT_Comp_1_SCCMPCLK.c **** *
 402:.\Generated_Source\PSoC5/SCCT_Comp_1_SCCMPCLK.c **** * Parameters:
 403:.\Generated_Source\PSoC5/SCCT_Comp_1_SCCMPCLK.c **** *  clkSource:  For PSoC 3 and PSoC 5 devices, clkSource should be one of the
 404:.\Generated_Source\PSoC5/SCCT_Comp_1_SCCMPCLK.c **** *   following input sources:
 405:.\Generated_Source\PSoC5/SCCT_Comp_1_SCCMPCLK.c **** *   - CYCLK_SRC_SEL_SYNC_DIG
 406:.\Generated_Source\PSoC5/SCCT_Comp_1_SCCMPCLK.c **** *   - CYCLK_SRC_SEL_IMO
 407:.\Generated_Source\PSoC5/SCCT_Comp_1_SCCMPCLK.c **** *   - CYCLK_SRC_SEL_XTALM
 408:.\Generated_Source\PSoC5/SCCT_Comp_1_SCCMPCLK.c **** *   - CYCLK_SRC_SEL_ILO
 409:.\Generated_Source\PSoC5/SCCT_Comp_1_SCCMPCLK.c **** *   - CYCLK_SRC_SEL_PLL
 410:.\Generated_Source\PSoC5/SCCT_Comp_1_SCCMPCLK.c **** *   - CYCLK_SRC_SEL_XTALK
 411:.\Generated_Source\PSoC5/SCCT_Comp_1_SCCMPCLK.c **** *   - CYCLK_SRC_SEL_DSI_G
ARM GAS  C:\Users\karunmj\AppData\Local\Temp\ccUji5Hf.s 			page 18


 412:.\Generated_Source\PSoC5/SCCT_Comp_1_SCCMPCLK.c **** *   - CYCLK_SRC_SEL_DSI_D/CYCLK_SRC_SEL_DSI_A
 413:.\Generated_Source\PSoC5/SCCT_Comp_1_SCCMPCLK.c **** *   See the Technical Reference Manual for details on clock sources.
 414:.\Generated_Source\PSoC5/SCCT_Comp_1_SCCMPCLK.c **** *
 415:.\Generated_Source\PSoC5/SCCT_Comp_1_SCCMPCLK.c **** * Returns:
 416:.\Generated_Source\PSoC5/SCCT_Comp_1_SCCMPCLK.c **** *  None
 417:.\Generated_Source\PSoC5/SCCT_Comp_1_SCCMPCLK.c **** *
 418:.\Generated_Source\PSoC5/SCCT_Comp_1_SCCMPCLK.c **** *******************************************************************************/
 419:.\Generated_Source\PSoC5/SCCT_Comp_1_SCCMPCLK.c **** void SCCT_Comp_1_SCCMPCLK_SetSourceRegister(uint8 clkSource) 
 420:.\Generated_Source\PSoC5/SCCT_Comp_1_SCCMPCLK.c **** {
 555              		.loc 1 420 0
 556              		.cfi_startproc
 557              		@ args = 0, pretend = 0, frame = 16
 558              		@ frame_needed = 1, uses_anonymous_args = 0
 559 0000 80B5     		push	{r7, lr}
 560              	.LCFI20:
 561              		.cfi_def_cfa_offset 8
 562 0002 84B0     		sub	sp, sp, #16
 563              	.LCFI21:
 564              		.cfi_def_cfa_offset 24
 565 0004 00AF     		add	r7, sp, #0
 566              		.cfi_offset 14, -4
 567              		.cfi_offset 7, -8
 568              	.LCFI22:
 569              		.cfi_def_cfa_register 7
 570 0006 0346     		mov	r3, r0
 571 0008 FB71     		strb	r3, [r7, #7]
 421:.\Generated_Source\PSoC5/SCCT_Comp_1_SCCMPCLK.c ****     uint16 currDiv = SCCT_Comp_1_SCCMPCLK_GetDividerRegister();
 572              		.loc 1 421 0
 573 000a FFF7FEFF 		bl	SCCT_Comp_1_SCCMPCLK_GetDividerRegister
 574 000e 0346     		mov	r3, r0
 575 0010 BB81     		strh	r3, [r7, #12]	@ movhi
 422:.\Generated_Source\PSoC5/SCCT_Comp_1_SCCMPCLK.c ****     uint8 oldSrc = SCCT_Comp_1_SCCMPCLK_GetSourceRegister();
 576              		.loc 1 422 0
 577 0012 FFF7FEFF 		bl	SCCT_Comp_1_SCCMPCLK_GetSourceRegister
 578 0016 0346     		mov	r3, r0
 579 0018 FB73     		strb	r3, [r7, #15]
 423:.\Generated_Source\PSoC5/SCCT_Comp_1_SCCMPCLK.c **** 
 424:.\Generated_Source\PSoC5/SCCT_Comp_1_SCCMPCLK.c ****     if (((oldSrc != ((uint8)CYCLK_SRC_SEL_CLK_SYNC_D)) && 
 580              		.loc 1 424 0
 581 001a FB7B     		ldrb	r3, [r7, #15]	@ zero_extendqisi2
 582 001c 002B     		cmp	r3, #0
 583 001e 29D0     		beq	.L31
 584 0020 FB79     		ldrb	r3, [r7, #7]	@ zero_extendqisi2
 585 0022 002B     		cmp	r3, #0
 586 0024 26D1     		bne	.L31
 587 0026 BB89     		ldrh	r3, [r7, #12]
 588 0028 002B     		cmp	r3, #0
 589 002a 23D1     		bne	.L31
 425:.\Generated_Source\PSoC5/SCCT_Comp_1_SCCMPCLK.c ****         (clkSource == ((uint8)CYCLK_SRC_SEL_CLK_SYNC_D))) && (currDiv == 0u))
 426:.\Generated_Source\PSoC5/SCCT_Comp_1_SCCMPCLK.c ****     {
 427:.\Generated_Source\PSoC5/SCCT_Comp_1_SCCMPCLK.c ****         /* Switching to Master and divider is 1, set SSS, which will output master, */
 428:.\Generated_Source\PSoC5/SCCT_Comp_1_SCCMPCLK.c ****         /* then set the source so we are consistent.                                */
 429:.\Generated_Source\PSoC5/SCCT_Comp_1_SCCMPCLK.c ****         SCCT_Comp_1_SCCMPCLK_MOD_SRC |= CYCLK_SSS;
 590              		.loc 1 429 0
 591 002c 44F20213 		movw	r3, #:lower16:1073758466
 592 0030 C4F20003 		movt	r3, #:upper16:1073758466
 593 0034 44F20212 		movw	r2, #:lower16:1073758466
ARM GAS  C:\Users\karunmj\AppData\Local\Temp\ccUji5Hf.s 			page 19


 594 0038 C4F20002 		movt	r2, #:upper16:1073758466
 595 003c 1278     		ldrb	r2, [r2, #0]
 596 003e D2B2     		uxtb	r2, r2
 597 0040 42F04002 		orr	r2, r2, #64
 598 0044 D2B2     		uxtb	r2, r2
 599 0046 1A70     		strb	r2, [r3, #0]
 430:.\Generated_Source\PSoC5/SCCT_Comp_1_SCCMPCLK.c ****         SCCT_Comp_1_SCCMPCLK_MOD_SRC =
 600              		.loc 1 430 0
 601 0048 44F20213 		movw	r3, #:lower16:1073758466
 602 004c C4F20003 		movt	r3, #:upper16:1073758466
 431:.\Generated_Source\PSoC5/SCCT_Comp_1_SCCMPCLK.c ****             (SCCT_Comp_1_SCCMPCLK_MOD_SRC & (uint8)(~SCCT_Comp_1_SCCMPCLK_SRC_SEL_MSK)) | clkSource
 603              		.loc 1 431 0
 604 0050 44F20212 		movw	r2, #:lower16:1073758466
 605 0054 C4F20002 		movt	r2, #:upper16:1073758466
 606 0058 1278     		ldrb	r2, [r2, #0]
 607 005a D2B2     		uxtb	r2, r2
 608              		.loc 1 430 0
 609 005c D2B2     		uxtb	r2, r2
 610 005e 02F0F802 		and	r2, r2, #248
 611 0062 F879     		ldrb	r0, [r7, #7]	@ zero_extendqisi2
 612 0064 1146     		mov	r1, r2
 613 0066 0246     		mov	r2, r0
 614 0068 41EA0202 		orr	r2, r1, r2
 615 006c D2B2     		uxtb	r2, r2
 616 006e D2B2     		uxtb	r2, r2
 617 0070 1A70     		strb	r2, [r3, #0]
 618              		.loc 1 424 0
 619 0072 40E0     		b	.L34
 620              	.L31:
 432:.\Generated_Source\PSoC5/SCCT_Comp_1_SCCMPCLK.c ****     }
 433:.\Generated_Source\PSoC5/SCCT_Comp_1_SCCMPCLK.c ****     else if (((oldSrc == ((uint8)CYCLK_SRC_SEL_CLK_SYNC_D)) && 
 621              		.loc 1 433 0
 622 0074 FB7B     		ldrb	r3, [r7, #15]	@ zero_extendqisi2
 623 0076 002B     		cmp	r3, #0
 624 0078 28D1     		bne	.L33
 625 007a FB79     		ldrb	r3, [r7, #7]	@ zero_extendqisi2
 626 007c 002B     		cmp	r3, #0
 627 007e 25D0     		beq	.L33
 628 0080 BB89     		ldrh	r3, [r7, #12]
 629 0082 002B     		cmp	r3, #0
 630 0084 22D1     		bne	.L33
 434:.\Generated_Source\PSoC5/SCCT_Comp_1_SCCMPCLK.c ****             (clkSource != ((uint8)CYCLK_SRC_SEL_CLK_SYNC_D))) && (currDiv == 0u))
 435:.\Generated_Source\PSoC5/SCCT_Comp_1_SCCMPCLK.c ****     {
 436:.\Generated_Source\PSoC5/SCCT_Comp_1_SCCMPCLK.c ****         /* Switching from Master to not and divider is 1, set source, so we don't   */
 437:.\Generated_Source\PSoC5/SCCT_Comp_1_SCCMPCLK.c ****         /* lock when we clear SSS.                                                  */
 438:.\Generated_Source\PSoC5/SCCT_Comp_1_SCCMPCLK.c ****         SCCT_Comp_1_SCCMPCLK_MOD_SRC =
 631              		.loc 1 438 0
 632 0086 44F20213 		movw	r3, #:lower16:1073758466
 633 008a C4F20003 		movt	r3, #:upper16:1073758466
 439:.\Generated_Source\PSoC5/SCCT_Comp_1_SCCMPCLK.c ****             (SCCT_Comp_1_SCCMPCLK_MOD_SRC & (uint8)(~SCCT_Comp_1_SCCMPCLK_SRC_SEL_MSK)) | clkSource
 634              		.loc 1 439 0
 635 008e 44F20212 		movw	r2, #:lower16:1073758466
 636 0092 C4F20002 		movt	r2, #:upper16:1073758466
 637 0096 1278     		ldrb	r2, [r2, #0]
 638 0098 D2B2     		uxtb	r2, r2
 639              		.loc 1 438 0
 640 009a D2B2     		uxtb	r2, r2
ARM GAS  C:\Users\karunmj\AppData\Local\Temp\ccUji5Hf.s 			page 20


 641 009c 02F0F802 		and	r2, r2, #248
 642 00a0 F879     		ldrb	r0, [r7, #7]	@ zero_extendqisi2
 643 00a2 1146     		mov	r1, r2
 644 00a4 0246     		mov	r2, r0
 645 00a6 41EA0202 		orr	r2, r1, r2
 646 00aa D2B2     		uxtb	r2, r2
 647 00ac D2B2     		uxtb	r2, r2
 648 00ae 1A70     		strb	r2, [r3, #0]
 440:.\Generated_Source\PSoC5/SCCT_Comp_1_SCCMPCLK.c ****         SCCT_Comp_1_SCCMPCLK_MOD_SRC &= (uint8)(~CYCLK_SSS);
 649              		.loc 1 440 0
 650 00b0 44F20213 		movw	r3, #:lower16:1073758466
 651 00b4 C4F20003 		movt	r3, #:upper16:1073758466
 652 00b8 44F20212 		movw	r2, #:lower16:1073758466
 653 00bc C4F20002 		movt	r2, #:upper16:1073758466
 654 00c0 1278     		ldrb	r2, [r2, #0]
 655 00c2 D2B2     		uxtb	r2, r2
 656 00c4 02F0BF02 		and	r2, r2, #191
 657 00c8 1A70     		strb	r2, [r3, #0]
 658              		.loc 1 433 0
 659 00ca 14E0     		b	.L34
 660              	.L33:
 441:.\Generated_Source\PSoC5/SCCT_Comp_1_SCCMPCLK.c ****     }
 442:.\Generated_Source\PSoC5/SCCT_Comp_1_SCCMPCLK.c ****     else
 443:.\Generated_Source\PSoC5/SCCT_Comp_1_SCCMPCLK.c ****     {
 444:.\Generated_Source\PSoC5/SCCT_Comp_1_SCCMPCLK.c ****         SCCT_Comp_1_SCCMPCLK_MOD_SRC =
 661              		.loc 1 444 0
 662 00cc 44F20213 		movw	r3, #:lower16:1073758466
 663 00d0 C4F20003 		movt	r3, #:upper16:1073758466
 445:.\Generated_Source\PSoC5/SCCT_Comp_1_SCCMPCLK.c ****             (SCCT_Comp_1_SCCMPCLK_MOD_SRC & (uint8)(~SCCT_Comp_1_SCCMPCLK_SRC_SEL_MSK)) | clkSource
 664              		.loc 1 445 0
 665 00d4 44F20212 		movw	r2, #:lower16:1073758466
 666 00d8 C4F20002 		movt	r2, #:upper16:1073758466
 667 00dc 1278     		ldrb	r2, [r2, #0]
 668 00de D2B2     		uxtb	r2, r2
 669              		.loc 1 444 0
 670 00e0 D2B2     		uxtb	r2, r2
 671 00e2 02F0F802 		and	r2, r2, #248
 672 00e6 F879     		ldrb	r0, [r7, #7]	@ zero_extendqisi2
 673 00e8 1146     		mov	r1, r2
 674 00ea 0246     		mov	r2, r0
 675 00ec 41EA0202 		orr	r2, r1, r2
 676 00f0 D2B2     		uxtb	r2, r2
 677 00f2 D2B2     		uxtb	r2, r2
 678 00f4 1A70     		strb	r2, [r3, #0]
 679              	.L34:
 446:.\Generated_Source\PSoC5/SCCT_Comp_1_SCCMPCLK.c ****     }
 447:.\Generated_Source\PSoC5/SCCT_Comp_1_SCCMPCLK.c **** }
 680              		.loc 1 447 0
 681 00f6 07F11007 		add	r7, r7, #16
 682 00fa BD46     		mov	sp, r7
 683 00fc 80BD     		pop	{r7, pc}
 684              		.cfi_endproc
 685              	.LFE8:
 686              		.size	SCCT_Comp_1_SCCMPCLK_SetSourceRegister, .-SCCT_Comp_1_SCCMPCLK_SetSourceRegister
 687 00fe 00BF     		.section	.text.SCCT_Comp_1_SCCMPCLK_GetSourceRegister,"ax",%progbits
 688              		.align	2
 689              		.global	SCCT_Comp_1_SCCMPCLK_GetSourceRegister
ARM GAS  C:\Users\karunmj\AppData\Local\Temp\ccUji5Hf.s 			page 21


 690              		.thumb
 691              		.thumb_func
 692              		.type	SCCT_Comp_1_SCCMPCLK_GetSourceRegister, %function
 693              	SCCT_Comp_1_SCCMPCLK_GetSourceRegister:
 694              	.LFB9:
 448:.\Generated_Source\PSoC5/SCCT_Comp_1_SCCMPCLK.c **** 
 449:.\Generated_Source\PSoC5/SCCT_Comp_1_SCCMPCLK.c **** 
 450:.\Generated_Source\PSoC5/SCCT_Comp_1_SCCMPCLK.c **** /*******************************************************************************
 451:.\Generated_Source\PSoC5/SCCT_Comp_1_SCCMPCLK.c **** * Function Name: SCCT_Comp_1_SCCMPCLK_GetSourceRegister
 452:.\Generated_Source\PSoC5/SCCT_Comp_1_SCCMPCLK.c **** ********************************************************************************
 453:.\Generated_Source\PSoC5/SCCT_Comp_1_SCCMPCLK.c **** *
 454:.\Generated_Source\PSoC5/SCCT_Comp_1_SCCMPCLK.c **** * Summary:
 455:.\Generated_Source\PSoC5/SCCT_Comp_1_SCCMPCLK.c **** *  Gets the input source of the clock.
 456:.\Generated_Source\PSoC5/SCCT_Comp_1_SCCMPCLK.c **** *
 457:.\Generated_Source\PSoC5/SCCT_Comp_1_SCCMPCLK.c **** * Parameters:
 458:.\Generated_Source\PSoC5/SCCT_Comp_1_SCCMPCLK.c **** *  None
 459:.\Generated_Source\PSoC5/SCCT_Comp_1_SCCMPCLK.c **** *
 460:.\Generated_Source\PSoC5/SCCT_Comp_1_SCCMPCLK.c **** * Returns:
 461:.\Generated_Source\PSoC5/SCCT_Comp_1_SCCMPCLK.c **** *  The input source of the clock. See SetSourceRegister for details.
 462:.\Generated_Source\PSoC5/SCCT_Comp_1_SCCMPCLK.c **** *
 463:.\Generated_Source\PSoC5/SCCT_Comp_1_SCCMPCLK.c **** *******************************************************************************/
 464:.\Generated_Source\PSoC5/SCCT_Comp_1_SCCMPCLK.c **** uint8 SCCT_Comp_1_SCCMPCLK_GetSourceRegister(void) 
 465:.\Generated_Source\PSoC5/SCCT_Comp_1_SCCMPCLK.c **** {
 695              		.loc 1 465 0
 696              		.cfi_startproc
 697              		@ args = 0, pretend = 0, frame = 0
 698              		@ frame_needed = 1, uses_anonymous_args = 0
 699              		@ link register save eliminated.
 700 0000 80B4     		push	{r7}
 701              	.LCFI23:
 702              		.cfi_def_cfa_offset 4
 703 0002 00AF     		add	r7, sp, #0
 704              		.cfi_offset 7, -4
 705              	.LCFI24:
 706              		.cfi_def_cfa_register 7
 466:.\Generated_Source\PSoC5/SCCT_Comp_1_SCCMPCLK.c ****     return SCCT_Comp_1_SCCMPCLK_MOD_SRC & SCCT_Comp_1_SCCMPCLK_SRC_SEL_MSK;
 707              		.loc 1 466 0
 708 0004 44F20213 		movw	r3, #:lower16:1073758466
 709 0008 C4F20003 		movt	r3, #:upper16:1073758466
 710 000c 1B78     		ldrb	r3, [r3, #0]
 711 000e DBB2     		uxtb	r3, r3
 712 0010 03F00703 		and	r3, r3, #7
 467:.\Generated_Source\PSoC5/SCCT_Comp_1_SCCMPCLK.c **** }
 713              		.loc 1 467 0
 714 0014 1846     		mov	r0, r3
 715 0016 BD46     		mov	sp, r7
 716 0018 80BC     		pop	{r7}
 717 001a 7047     		bx	lr
 718              		.cfi_endproc
 719              	.LFE9:
 720              		.size	SCCT_Comp_1_SCCMPCLK_GetSourceRegister, .-SCCT_Comp_1_SCCMPCLK_GetSourceRegister
 721              		.section	.text.SCCT_Comp_1_SCCMPCLK_SetPhaseRegister,"ax",%progbits
 722              		.align	2
 723              		.global	SCCT_Comp_1_SCCMPCLK_SetPhaseRegister
 724              		.thumb
 725              		.thumb_func
 726              		.type	SCCT_Comp_1_SCCMPCLK_SetPhaseRegister, %function
ARM GAS  C:\Users\karunmj\AppData\Local\Temp\ccUji5Hf.s 			page 22


 727              	SCCT_Comp_1_SCCMPCLK_SetPhaseRegister:
 728              	.LFB10:
 468:.\Generated_Source\PSoC5/SCCT_Comp_1_SCCMPCLK.c **** 
 469:.\Generated_Source\PSoC5/SCCT_Comp_1_SCCMPCLK.c **** 
 470:.\Generated_Source\PSoC5/SCCT_Comp_1_SCCMPCLK.c **** #if defined(SCCT_Comp_1_SCCMPCLK__CFG3)
 471:.\Generated_Source\PSoC5/SCCT_Comp_1_SCCMPCLK.c **** 
 472:.\Generated_Source\PSoC5/SCCT_Comp_1_SCCMPCLK.c **** 
 473:.\Generated_Source\PSoC5/SCCT_Comp_1_SCCMPCLK.c **** /*******************************************************************************
 474:.\Generated_Source\PSoC5/SCCT_Comp_1_SCCMPCLK.c **** * Function Name: SCCT_Comp_1_SCCMPCLK_SetPhaseRegister
 475:.\Generated_Source\PSoC5/SCCT_Comp_1_SCCMPCLK.c **** ********************************************************************************
 476:.\Generated_Source\PSoC5/SCCT_Comp_1_SCCMPCLK.c **** *
 477:.\Generated_Source\PSoC5/SCCT_Comp_1_SCCMPCLK.c **** * Summary:
 478:.\Generated_Source\PSoC5/SCCT_Comp_1_SCCMPCLK.c **** *  Sets the phase delay of the analog clock. This function is only available
 479:.\Generated_Source\PSoC5/SCCT_Comp_1_SCCMPCLK.c **** *  for analog clocks. The clock must be disabled before changing the phase
 480:.\Generated_Source\PSoC5/SCCT_Comp_1_SCCMPCLK.c **** *  delay to avoid glitches.
 481:.\Generated_Source\PSoC5/SCCT_Comp_1_SCCMPCLK.c **** *
 482:.\Generated_Source\PSoC5/SCCT_Comp_1_SCCMPCLK.c **** * Parameters:
 483:.\Generated_Source\PSoC5/SCCT_Comp_1_SCCMPCLK.c **** *  clkPhase: Amount to delay the phase of the clock, in 1.0ns increments.
 484:.\Generated_Source\PSoC5/SCCT_Comp_1_SCCMPCLK.c **** *   clkPhase must be from 1 to 11 inclusive. Other values, including 0,
 485:.\Generated_Source\PSoC5/SCCT_Comp_1_SCCMPCLK.c **** *   disable the clock. clkPhase = 1 produces a 0ns delay and clkPhase = 11 
 486:.\Generated_Source\PSoC5/SCCT_Comp_1_SCCMPCLK.c **** *   produces a 10ns delay.
 487:.\Generated_Source\PSoC5/SCCT_Comp_1_SCCMPCLK.c **** *
 488:.\Generated_Source\PSoC5/SCCT_Comp_1_SCCMPCLK.c **** * Returns:
 489:.\Generated_Source\PSoC5/SCCT_Comp_1_SCCMPCLK.c **** *  None
 490:.\Generated_Source\PSoC5/SCCT_Comp_1_SCCMPCLK.c **** *
 491:.\Generated_Source\PSoC5/SCCT_Comp_1_SCCMPCLK.c **** *******************************************************************************/
 492:.\Generated_Source\PSoC5/SCCT_Comp_1_SCCMPCLK.c **** void SCCT_Comp_1_SCCMPCLK_SetPhaseRegister(uint8 clkPhase) 
 493:.\Generated_Source\PSoC5/SCCT_Comp_1_SCCMPCLK.c **** {
 729              		.loc 1 493 0
 730              		.cfi_startproc
 731              		@ args = 0, pretend = 0, frame = 8
 732              		@ frame_needed = 1, uses_anonymous_args = 0
 733              		@ link register save eliminated.
 734 0000 80B4     		push	{r7}
 735              	.LCFI25:
 736              		.cfi_def_cfa_offset 4
 737 0002 83B0     		sub	sp, sp, #12
 738              	.LCFI26:
 739              		.cfi_def_cfa_offset 16
 740 0004 00AF     		add	r7, sp, #0
 741              		.cfi_offset 7, -4
 742              	.LCFI27:
 743              		.cfi_def_cfa_register 7
 744 0006 0346     		mov	r3, r0
 745 0008 FB71     		strb	r3, [r7, #7]
 494:.\Generated_Source\PSoC5/SCCT_Comp_1_SCCMPCLK.c ****     SCCT_Comp_1_SCCMPCLK_PHASE = clkPhase & SCCT_Comp_1_SCCMPCLK_PHASE_MASK;
 746              		.loc 1 494 0
 747 000a 44F20313 		movw	r3, #:lower16:1073758467
 748 000e C4F20003 		movt	r3, #:upper16:1073758467
 749 0012 FA79     		ldrb	r2, [r7, #7]	@ zero_extendqisi2
 750 0014 02F00F02 		and	r2, r2, #15
 751 0018 1A70     		strb	r2, [r3, #0]
 495:.\Generated_Source\PSoC5/SCCT_Comp_1_SCCMPCLK.c **** }
 752              		.loc 1 495 0
 753 001a 07F10C07 		add	r7, r7, #12
 754 001e BD46     		mov	sp, r7
 755 0020 80BC     		pop	{r7}
ARM GAS  C:\Users\karunmj\AppData\Local\Temp\ccUji5Hf.s 			page 23


 756 0022 7047     		bx	lr
 757              		.cfi_endproc
 758              	.LFE10:
 759              		.size	SCCT_Comp_1_SCCMPCLK_SetPhaseRegister, .-SCCT_Comp_1_SCCMPCLK_SetPhaseRegister
 760              		.section	.text.SCCT_Comp_1_SCCMPCLK_GetPhaseRegister,"ax",%progbits
 761              		.align	2
 762              		.global	SCCT_Comp_1_SCCMPCLK_GetPhaseRegister
 763              		.thumb
 764              		.thumb_func
 765              		.type	SCCT_Comp_1_SCCMPCLK_GetPhaseRegister, %function
 766              	SCCT_Comp_1_SCCMPCLK_GetPhaseRegister:
 767              	.LFB11:
 496:.\Generated_Source\PSoC5/SCCT_Comp_1_SCCMPCLK.c **** 
 497:.\Generated_Source\PSoC5/SCCT_Comp_1_SCCMPCLK.c **** 
 498:.\Generated_Source\PSoC5/SCCT_Comp_1_SCCMPCLK.c **** /*******************************************************************************
 499:.\Generated_Source\PSoC5/SCCT_Comp_1_SCCMPCLK.c **** * Function Name: SCCT_Comp_1_SCCMPCLK_GetPhase
 500:.\Generated_Source\PSoC5/SCCT_Comp_1_SCCMPCLK.c **** ********************************************************************************
 501:.\Generated_Source\PSoC5/SCCT_Comp_1_SCCMPCLK.c **** *
 502:.\Generated_Source\PSoC5/SCCT_Comp_1_SCCMPCLK.c **** * Summary:
 503:.\Generated_Source\PSoC5/SCCT_Comp_1_SCCMPCLK.c **** *  Gets the phase delay of the analog clock. This function is only available
 504:.\Generated_Source\PSoC5/SCCT_Comp_1_SCCMPCLK.c **** *  for analog clocks.
 505:.\Generated_Source\PSoC5/SCCT_Comp_1_SCCMPCLK.c **** *
 506:.\Generated_Source\PSoC5/SCCT_Comp_1_SCCMPCLK.c **** * Parameters:
 507:.\Generated_Source\PSoC5/SCCT_Comp_1_SCCMPCLK.c **** *  None
 508:.\Generated_Source\PSoC5/SCCT_Comp_1_SCCMPCLK.c **** *
 509:.\Generated_Source\PSoC5/SCCT_Comp_1_SCCMPCLK.c **** * Returns:
 510:.\Generated_Source\PSoC5/SCCT_Comp_1_SCCMPCLK.c **** *  Phase of the analog clock. See SetPhaseRegister for details.
 511:.\Generated_Source\PSoC5/SCCT_Comp_1_SCCMPCLK.c **** *
 512:.\Generated_Source\PSoC5/SCCT_Comp_1_SCCMPCLK.c **** *******************************************************************************/
 513:.\Generated_Source\PSoC5/SCCT_Comp_1_SCCMPCLK.c **** uint8 SCCT_Comp_1_SCCMPCLK_GetPhaseRegister(void) 
 514:.\Generated_Source\PSoC5/SCCT_Comp_1_SCCMPCLK.c **** {
 768              		.loc 1 514 0
 769              		.cfi_startproc
 770              		@ args = 0, pretend = 0, frame = 0
 771              		@ frame_needed = 1, uses_anonymous_args = 0
 772              		@ link register save eliminated.
 773 0000 80B4     		push	{r7}
 774              	.LCFI28:
 775              		.cfi_def_cfa_offset 4
 776 0002 00AF     		add	r7, sp, #0
 777              		.cfi_offset 7, -4
 778              	.LCFI29:
 779              		.cfi_def_cfa_register 7
 515:.\Generated_Source\PSoC5/SCCT_Comp_1_SCCMPCLK.c ****     return SCCT_Comp_1_SCCMPCLK_PHASE & SCCT_Comp_1_SCCMPCLK_PHASE_MASK;
 780              		.loc 1 515 0
 781 0004 44F20313 		movw	r3, #:lower16:1073758467
 782 0008 C4F20003 		movt	r3, #:upper16:1073758467
 783 000c 1B78     		ldrb	r3, [r3, #0]
 784 000e DBB2     		uxtb	r3, r3
 785 0010 03F00F03 		and	r3, r3, #15
 516:.\Generated_Source\PSoC5/SCCT_Comp_1_SCCMPCLK.c **** }
 786              		.loc 1 516 0
 787 0014 1846     		mov	r0, r3
 788 0016 BD46     		mov	sp, r7
 789 0018 80BC     		pop	{r7}
 790 001a 7047     		bx	lr
 791              		.cfi_endproc
ARM GAS  C:\Users\karunmj\AppData\Local\Temp\ccUji5Hf.s 			page 24


 792              	.LFE11:
 793              		.size	SCCT_Comp_1_SCCMPCLK_GetPhaseRegister, .-SCCT_Comp_1_SCCMPCLK_GetPhaseRegister
 794              		.text
 795              	.Letext0: