ARM GAS  C:\Users\karunmj\AppData\Local\Temp\ccmkVaXq.s 			page 1


   1              		.syntax unified
   2              		.cpu cortex-m3
   3              		.fpu softvfp
   4              		.eabi_attribute 20, 1
   5              		.eabi_attribute 21, 1
   6              		.eabi_attribute 23, 3
   7              		.eabi_attribute 24, 1
   8              		.eabi_attribute 25, 1
   9              		.eabi_attribute 26, 1
  10              		.eabi_attribute 30, 6
  11              		.eabi_attribute 18, 4
  12              		.thumb
  13              		.file	"ADC_SAR_1_PM.c"
  20 0000 C7000000 		.text
  20      02007400 
  20      00000201 
  20      FB0E0D00 
  20      01010101 
  21              	.Ltext0:
  22              		.cfi_sections	.debug_frame
  23              		.bss
  24              		.align	2
  25              	ADC_SAR_1_backup:
  26 0000 00       		.space	1
  27 0001 000000   		.section	.text.ADC_SAR_1_SaveConfig,"ax",%progbits
  28              		.align	2
  29              		.global	ADC_SAR_1_SaveConfig
  30              		.thumb
  31              		.thumb_func
  32              		.type	ADC_SAR_1_SaveConfig, %function
  33              	ADC_SAR_1_SaveConfig:
  34              	.LFB0:
  35              		.file 1 ".\\Generated_Source\\PSoC5\\ADC_SAR_1_PM.c"
   1:.\Generated_Source\PSoC5/ADC_SAR_1_PM.c **** /*******************************************************************************
   2:.\Generated_Source\PSoC5/ADC_SAR_1_PM.c **** * File Name: ADC_SAR_1_PM.c
   3:.\Generated_Source\PSoC5/ADC_SAR_1_PM.c **** * Version 2.0
   4:.\Generated_Source\PSoC5/ADC_SAR_1_PM.c **** *
   5:.\Generated_Source\PSoC5/ADC_SAR_1_PM.c **** * Description:
   6:.\Generated_Source\PSoC5/ADC_SAR_1_PM.c **** *  This file provides Sleep/WakeUp APIs functionality.
   7:.\Generated_Source\PSoC5/ADC_SAR_1_PM.c **** *
   8:.\Generated_Source\PSoC5/ADC_SAR_1_PM.c **** * Note:
   9:.\Generated_Source\PSoC5/ADC_SAR_1_PM.c **** *
  10:.\Generated_Source\PSoC5/ADC_SAR_1_PM.c **** ********************************************************************************
  11:.\Generated_Source\PSoC5/ADC_SAR_1_PM.c **** * Copyright 2008-2012, Cypress Semiconductor Corporation.  All rights reserved.
  12:.\Generated_Source\PSoC5/ADC_SAR_1_PM.c **** * You may use this file only in accordance with the license, terms, conditions,
  13:.\Generated_Source\PSoC5/ADC_SAR_1_PM.c **** * disclaimers, and limitations in the end user license agreement accompanying
  14:.\Generated_Source\PSoC5/ADC_SAR_1_PM.c **** * the software package with which this file was provided.
  15:.\Generated_Source\PSoC5/ADC_SAR_1_PM.c **** *******************************************************************************/
  16:.\Generated_Source\PSoC5/ADC_SAR_1_PM.c **** 
  17:.\Generated_Source\PSoC5/ADC_SAR_1_PM.c **** #include "ADC_SAR_1.h"
  18:.\Generated_Source\PSoC5/ADC_SAR_1_PM.c **** 
ARM GAS  C:\Users\karunmj\AppData\Local\Temp\ccmkVaXq.s 			page 2


  19:.\Generated_Source\PSoC5/ADC_SAR_1_PM.c **** 
  20:.\Generated_Source\PSoC5/ADC_SAR_1_PM.c **** /***************************************
  21:.\Generated_Source\PSoC5/ADC_SAR_1_PM.c **** * Local data allocation
  22:.\Generated_Source\PSoC5/ADC_SAR_1_PM.c **** ***************************************/
  23:.\Generated_Source\PSoC5/ADC_SAR_1_PM.c **** 
  24:.\Generated_Source\PSoC5/ADC_SAR_1_PM.c **** static ADC_SAR_1_BACKUP_STRUCT  ADC_SAR_1_backup =
  25:.\Generated_Source\PSoC5/ADC_SAR_1_PM.c **** {
  26:.\Generated_Source\PSoC5/ADC_SAR_1_PM.c ****     ADC_SAR_1_DISABLED
  27:.\Generated_Source\PSoC5/ADC_SAR_1_PM.c **** };
  28:.\Generated_Source\PSoC5/ADC_SAR_1_PM.c **** 
  29:.\Generated_Source\PSoC5/ADC_SAR_1_PM.c **** 
  30:.\Generated_Source\PSoC5/ADC_SAR_1_PM.c **** /*******************************************************************************
  31:.\Generated_Source\PSoC5/ADC_SAR_1_PM.c **** * Function Name: ADC_SAR_1_SaveConfig
  32:.\Generated_Source\PSoC5/ADC_SAR_1_PM.c **** ********************************************************************************
  33:.\Generated_Source\PSoC5/ADC_SAR_1_PM.c **** *
  34:.\Generated_Source\PSoC5/ADC_SAR_1_PM.c **** * Summary:
  35:.\Generated_Source\PSoC5/ADC_SAR_1_PM.c **** *  Saves the current user configuration.
  36:.\Generated_Source\PSoC5/ADC_SAR_1_PM.c **** *
  37:.\Generated_Source\PSoC5/ADC_SAR_1_PM.c **** * Parameters:
  38:.\Generated_Source\PSoC5/ADC_SAR_1_PM.c **** *  None.
  39:.\Generated_Source\PSoC5/ADC_SAR_1_PM.c **** *
  40:.\Generated_Source\PSoC5/ADC_SAR_1_PM.c **** * Return:
  41:.\Generated_Source\PSoC5/ADC_SAR_1_PM.c **** *  None.
  42:.\Generated_Source\PSoC5/ADC_SAR_1_PM.c **** *
  43:.\Generated_Source\PSoC5/ADC_SAR_1_PM.c **** *******************************************************************************/
  44:.\Generated_Source\PSoC5/ADC_SAR_1_PM.c **** void ADC_SAR_1_SaveConfig(void)
  45:.\Generated_Source\PSoC5/ADC_SAR_1_PM.c **** {
  36              		.loc 1 45 0
  37              		.cfi_startproc
  38              		@ args = 0, pretend = 0, frame = 0
  39              		@ frame_needed = 1, uses_anonymous_args = 0
  40              		@ link register save eliminated.
  41 0000 80B4     		push	{r7}
  42              	.LCFI0:
  43              		.cfi_def_cfa_offset 4
  44 0002 00AF     		add	r7, sp, #0
  45              		.cfi_offset 7, -4
  46              	.LCFI1:
  47              		.cfi_def_cfa_register 7
  46:.\Generated_Source\PSoC5/ADC_SAR_1_PM.c ****     /* All configuration registers are marked as [reset_all_retention] */
  47:.\Generated_Source\PSoC5/ADC_SAR_1_PM.c **** }
  48              		.loc 1 47 0
  49 0004 BD46     		mov	sp, r7
  50 0006 80BC     		pop	{r7}
  51 0008 7047     		bx	lr
  52              		.cfi_endproc
  53              	.LFE0:
  54              		.size	ADC_SAR_1_SaveConfig, .-ADC_SAR_1_SaveConfig
  55 000a 00BF     		.section	.text.ADC_SAR_1_RestoreConfig,"ax",%progbits
  56              		.align	2
  57              		.global	ADC_SAR_1_RestoreConfig
  58              		.thumb
  59              		.thumb_func
  60              		.type	ADC_SAR_1_RestoreConfig, %function
  61              	ADC_SAR_1_RestoreConfig:
  62              	.LFB1:
  48:.\Generated_Source\PSoC5/ADC_SAR_1_PM.c **** 
ARM GAS  C:\Users\karunmj\AppData\Local\Temp\ccmkVaXq.s 			page 3


  49:.\Generated_Source\PSoC5/ADC_SAR_1_PM.c **** 
  50:.\Generated_Source\PSoC5/ADC_SAR_1_PM.c **** /*******************************************************************************
  51:.\Generated_Source\PSoC5/ADC_SAR_1_PM.c **** * Function Name: ADC_SAR_1_RestoreConfig
  52:.\Generated_Source\PSoC5/ADC_SAR_1_PM.c **** ********************************************************************************
  53:.\Generated_Source\PSoC5/ADC_SAR_1_PM.c **** *
  54:.\Generated_Source\PSoC5/ADC_SAR_1_PM.c **** * Summary:
  55:.\Generated_Source\PSoC5/ADC_SAR_1_PM.c **** *  Restores the current user configuration.
  56:.\Generated_Source\PSoC5/ADC_SAR_1_PM.c **** *
  57:.\Generated_Source\PSoC5/ADC_SAR_1_PM.c **** * Parameters:
  58:.\Generated_Source\PSoC5/ADC_SAR_1_PM.c **** *  None.
  59:.\Generated_Source\PSoC5/ADC_SAR_1_PM.c **** *
  60:.\Generated_Source\PSoC5/ADC_SAR_1_PM.c **** * Return:
  61:.\Generated_Source\PSoC5/ADC_SAR_1_PM.c **** *  None.
  62:.\Generated_Source\PSoC5/ADC_SAR_1_PM.c **** *
  63:.\Generated_Source\PSoC5/ADC_SAR_1_PM.c **** *******************************************************************************/
  64:.\Generated_Source\PSoC5/ADC_SAR_1_PM.c **** void ADC_SAR_1_RestoreConfig(void)
  65:.\Generated_Source\PSoC5/ADC_SAR_1_PM.c **** {
  63              		.loc 1 65 0
  64              		.cfi_startproc
  65              		@ args = 0, pretend = 0, frame = 0
  66              		@ frame_needed = 1, uses_anonymous_args = 0
  67              		@ link register save eliminated.
  68 0000 80B4     		push	{r7}
  69              	.LCFI2:
  70              		.cfi_def_cfa_offset 4
  71 0002 00AF     		add	r7, sp, #0
  72              		.cfi_offset 7, -4
  73              	.LCFI3:
  74              		.cfi_def_cfa_register 7
  66:.\Generated_Source\PSoC5/ADC_SAR_1_PM.c ****     /* All congiguration registers are marked as [reset_all_retention] */
  67:.\Generated_Source\PSoC5/ADC_SAR_1_PM.c **** }
  75              		.loc 1 67 0
  76 0004 BD46     		mov	sp, r7
  77 0006 80BC     		pop	{r7}
  78 0008 7047     		bx	lr
  79              		.cfi_endproc
  80              	.LFE1:
  81              		.size	ADC_SAR_1_RestoreConfig, .-ADC_SAR_1_RestoreConfig
  82 000a 00BF     		.section	.text.ADC_SAR_1_Sleep,"ax",%progbits
  83              		.align	2
  84              		.global	ADC_SAR_1_Sleep
  85              		.thumb
  86              		.thumb_func
  87              		.type	ADC_SAR_1_Sleep, %function
  88              	ADC_SAR_1_Sleep:
  89              	.LFB2:
  68:.\Generated_Source\PSoC5/ADC_SAR_1_PM.c **** 
  69:.\Generated_Source\PSoC5/ADC_SAR_1_PM.c **** 
  70:.\Generated_Source\PSoC5/ADC_SAR_1_PM.c **** /*******************************************************************************
  71:.\Generated_Source\PSoC5/ADC_SAR_1_PM.c **** * Function Name: ADC_SAR_1_Sleep
  72:.\Generated_Source\PSoC5/ADC_SAR_1_PM.c **** ********************************************************************************
  73:.\Generated_Source\PSoC5/ADC_SAR_1_PM.c **** *
  74:.\Generated_Source\PSoC5/ADC_SAR_1_PM.c **** * Summary:
  75:.\Generated_Source\PSoC5/ADC_SAR_1_PM.c **** *  Stops and saves the user configuration
  76:.\Generated_Source\PSoC5/ADC_SAR_1_PM.c **** *
  77:.\Generated_Source\PSoC5/ADC_SAR_1_PM.c **** * Parameters:
  78:.\Generated_Source\PSoC5/ADC_SAR_1_PM.c **** *  None.
ARM GAS  C:\Users\karunmj\AppData\Local\Temp\ccmkVaXq.s 			page 4


  79:.\Generated_Source\PSoC5/ADC_SAR_1_PM.c **** *
  80:.\Generated_Source\PSoC5/ADC_SAR_1_PM.c **** * Return:
  81:.\Generated_Source\PSoC5/ADC_SAR_1_PM.c **** *  None.
  82:.\Generated_Source\PSoC5/ADC_SAR_1_PM.c **** *
  83:.\Generated_Source\PSoC5/ADC_SAR_1_PM.c **** * Global Variables:
  84:.\Generated_Source\PSoC5/ADC_SAR_1_PM.c **** *  ADC_SAR_1_backup - modified.
  85:.\Generated_Source\PSoC5/ADC_SAR_1_PM.c **** *
  86:.\Generated_Source\PSoC5/ADC_SAR_1_PM.c **** *******************************************************************************/
  87:.\Generated_Source\PSoC5/ADC_SAR_1_PM.c **** void ADC_SAR_1_Sleep(void)
  88:.\Generated_Source\PSoC5/ADC_SAR_1_PM.c **** {
  90              		.loc 1 88 0
  91              		.cfi_startproc
  92              		@ args = 0, pretend = 0, frame = 0
  93              		@ frame_needed = 1, uses_anonymous_args = 0
  94 0000 80B5     		push	{r7, lr}
  95              	.LCFI4:
  96              		.cfi_def_cfa_offset 8
  97 0002 00AF     		add	r7, sp, #0
  98              		.cfi_offset 14, -4
  99              		.cfi_offset 7, -8
 100              	.LCFI5:
 101              		.cfi_def_cfa_register 7
  89:.\Generated_Source\PSoC5/ADC_SAR_1_PM.c ****     if((ADC_SAR_1_PWRMGR_SAR_REG  & ADC_SAR_1_ACT_PWR_SAR_EN) != 0u)
 102              		.loc 1 89 0
 103 0004 44F2AB33 		movw	r3, #:lower16:1073759147
 104 0008 C4F20003 		movt	r3, #:upper16:1073759147
 105 000c 1B78     		ldrb	r3, [r3, #0]
 106 000e DBB2     		uxtb	r3, r3
 107 0010 03F00103 		and	r3, r3, #1
 108 0014 DBB2     		uxtb	r3, r3
 109 0016 002B     		cmp	r3, #0
 110 0018 1CD0     		beq	.L6
  90:.\Generated_Source\PSoC5/ADC_SAR_1_PM.c ****     {
  91:.\Generated_Source\PSoC5/ADC_SAR_1_PM.c ****         if((ADC_SAR_1_SAR_CSR0_REG & ADC_SAR_1_SAR_SOF_START_CONV) != 0u)
 111              		.loc 1 91 0
 112 001a 45F60013 		movw	r3, #:lower16:1073764608
 113 001e C4F20003 		movt	r3, #:upper16:1073764608
 114 0022 1B78     		ldrb	r3, [r3, #0]
 115 0024 DBB2     		uxtb	r3, r3
 116 0026 03F00103 		and	r3, r3, #1
 117 002a DBB2     		uxtb	r3, r3
 118 002c 002B     		cmp	r3, #0
 119 002e 07D0     		beq	.L7
  92:.\Generated_Source\PSoC5/ADC_SAR_1_PM.c ****         {
  93:.\Generated_Source\PSoC5/ADC_SAR_1_PM.c ****             ADC_SAR_1_backup.enableState = ADC_SAR_1_ENABLED | ADC_SAR_1_STARTED;
 120              		.loc 1 93 0
 121 0030 40F20003 		movw	r3, #:lower16:ADC_SAR_1_backup
 122 0034 C0F20003 		movt	r3, #:upper16:ADC_SAR_1_backup
 123 0038 4FF00302 		mov	r2, #3
 124 003c 1A70     		strb	r2, [r3, #0]
 125 003e 06E0     		b	.L8
 126              	.L7:
  94:.\Generated_Source\PSoC5/ADC_SAR_1_PM.c ****         }
  95:.\Generated_Source\PSoC5/ADC_SAR_1_PM.c ****         else
  96:.\Generated_Source\PSoC5/ADC_SAR_1_PM.c ****         {
  97:.\Generated_Source\PSoC5/ADC_SAR_1_PM.c ****             ADC_SAR_1_backup.enableState = ADC_SAR_1_ENABLED;
 127              		.loc 1 97 0
ARM GAS  C:\Users\karunmj\AppData\Local\Temp\ccmkVaXq.s 			page 5


 128 0040 40F20003 		movw	r3, #:lower16:ADC_SAR_1_backup
 129 0044 C0F20003 		movt	r3, #:upper16:ADC_SAR_1_backup
 130 0048 4FF00102 		mov	r2, #1
 131 004c 1A70     		strb	r2, [r3, #0]
 132              	.L8:
  98:.\Generated_Source\PSoC5/ADC_SAR_1_PM.c ****         }
  99:.\Generated_Source\PSoC5/ADC_SAR_1_PM.c ****         ADC_SAR_1_Stop();
 133              		.loc 1 99 0
 134 004e FFF7FEFF 		bl	ADC_SAR_1_Stop
 135 0052 06E0     		b	.L10
 136              	.L6:
 100:.\Generated_Source\PSoC5/ADC_SAR_1_PM.c ****     }
 101:.\Generated_Source\PSoC5/ADC_SAR_1_PM.c ****     else
 102:.\Generated_Source\PSoC5/ADC_SAR_1_PM.c ****     {
 103:.\Generated_Source\PSoC5/ADC_SAR_1_PM.c ****         ADC_SAR_1_backup.enableState = ADC_SAR_1_DISABLED;
 137              		.loc 1 103 0
 138 0054 40F20003 		movw	r3, #:lower16:ADC_SAR_1_backup
 139 0058 C0F20003 		movt	r3, #:upper16:ADC_SAR_1_backup
 140 005c 4FF00002 		mov	r2, #0
 141 0060 1A70     		strb	r2, [r3, #0]
 142              	.L10:
 104:.\Generated_Source\PSoC5/ADC_SAR_1_PM.c ****     }
 105:.\Generated_Source\PSoC5/ADC_SAR_1_PM.c ****     /*ADC_SAR_1_SaveConfig();*/
 106:.\Generated_Source\PSoC5/ADC_SAR_1_PM.c **** }
 143              		.loc 1 106 0
 144 0062 80BD     		pop	{r7, pc}
 145              		.cfi_endproc
 146              	.LFE2:
 147              		.size	ADC_SAR_1_Sleep, .-ADC_SAR_1_Sleep
 148              		.section	.text.ADC_SAR_1_Wakeup,"ax",%progbits
 149              		.align	2
 150              		.global	ADC_SAR_1_Wakeup
 151              		.thumb
 152              		.thumb_func
 153              		.type	ADC_SAR_1_Wakeup, %function
 154              	ADC_SAR_1_Wakeup:
 155              	.LFB3:
 107:.\Generated_Source\PSoC5/ADC_SAR_1_PM.c **** 
 108:.\Generated_Source\PSoC5/ADC_SAR_1_PM.c **** 
 109:.\Generated_Source\PSoC5/ADC_SAR_1_PM.c **** /*******************************************************************************
 110:.\Generated_Source\PSoC5/ADC_SAR_1_PM.c **** * Function Name: ADC_SAR_1_Wakeup
 111:.\Generated_Source\PSoC5/ADC_SAR_1_PM.c **** ********************************************************************************
 112:.\Generated_Source\PSoC5/ADC_SAR_1_PM.c **** *
 113:.\Generated_Source\PSoC5/ADC_SAR_1_PM.c **** * Summary:
 114:.\Generated_Source\PSoC5/ADC_SAR_1_PM.c **** *  Restores and enables the user configuration
 115:.\Generated_Source\PSoC5/ADC_SAR_1_PM.c **** *
 116:.\Generated_Source\PSoC5/ADC_SAR_1_PM.c **** * Parameters:
 117:.\Generated_Source\PSoC5/ADC_SAR_1_PM.c **** *  None.
 118:.\Generated_Source\PSoC5/ADC_SAR_1_PM.c **** *
 119:.\Generated_Source\PSoC5/ADC_SAR_1_PM.c **** * Return:
 120:.\Generated_Source\PSoC5/ADC_SAR_1_PM.c **** *  None.
 121:.\Generated_Source\PSoC5/ADC_SAR_1_PM.c **** *
 122:.\Generated_Source\PSoC5/ADC_SAR_1_PM.c **** * Global Variables:
 123:.\Generated_Source\PSoC5/ADC_SAR_1_PM.c **** *  ADC_SAR_1_backup - used.
 124:.\Generated_Source\PSoC5/ADC_SAR_1_PM.c **** *
 125:.\Generated_Source\PSoC5/ADC_SAR_1_PM.c **** *******************************************************************************/
 126:.\Generated_Source\PSoC5/ADC_SAR_1_PM.c **** void ADC_SAR_1_Wakeup(void)
ARM GAS  C:\Users\karunmj\AppData\Local\Temp\ccmkVaXq.s 			page 6


 127:.\Generated_Source\PSoC5/ADC_SAR_1_PM.c **** {
 156              		.loc 1 127 0
 157              		.cfi_startproc
 158              		@ args = 0, pretend = 0, frame = 0
 159              		@ frame_needed = 1, uses_anonymous_args = 0
 160 0000 80B5     		push	{r7, lr}
 161              	.LCFI6:
 162              		.cfi_def_cfa_offset 8
 163 0002 00AF     		add	r7, sp, #0
 164              		.cfi_offset 14, -4
 165              		.cfi_offset 7, -8
 166              	.LCFI7:
 167              		.cfi_def_cfa_register 7
 128:.\Generated_Source\PSoC5/ADC_SAR_1_PM.c ****     /*ADC_SAR_1_RestoreConfig();*/
 129:.\Generated_Source\PSoC5/ADC_SAR_1_PM.c ****     if(ADC_SAR_1_backup.enableState != ADC_SAR_1_DISABLED)
 168              		.loc 1 129 0
 169 0004 40F20003 		movw	r3, #:lower16:ADC_SAR_1_backup
 170 0008 C0F20003 		movt	r3, #:upper16:ADC_SAR_1_backup
 171 000c 1B78     		ldrb	r3, [r3, #0]	@ zero_extendqisi2
 172 000e 002B     		cmp	r3, #0
 173 0010 0CD0     		beq	.L13
 130:.\Generated_Source\PSoC5/ADC_SAR_1_PM.c ****     {
 131:.\Generated_Source\PSoC5/ADC_SAR_1_PM.c ****         ADC_SAR_1_Enable();
 174              		.loc 1 131 0
 175 0012 FFF7FEFF 		bl	ADC_SAR_1_Enable
 132:.\Generated_Source\PSoC5/ADC_SAR_1_PM.c ****         #if(ADC_SAR_1_DEFAULT_CONV_MODE != ADC_SAR_1__HARDWARE_TRIGGER)
 133:.\Generated_Source\PSoC5/ADC_SAR_1_PM.c ****             if((ADC_SAR_1_backup.enableState & ADC_SAR_1_STARTED) != 0u)
 176              		.loc 1 133 0
 177 0016 40F20003 		movw	r3, #:lower16:ADC_SAR_1_backup
 178 001a C0F20003 		movt	r3, #:upper16:ADC_SAR_1_backup
 179 001e 1B78     		ldrb	r3, [r3, #0]	@ zero_extendqisi2
 180 0020 03F00203 		and	r3, r3, #2
 181 0024 002B     		cmp	r3, #0
 182 0026 01D0     		beq	.L13
 134:.\Generated_Source\PSoC5/ADC_SAR_1_PM.c ****             {
 135:.\Generated_Source\PSoC5/ADC_SAR_1_PM.c ****                 ADC_SAR_1_StartConvert();
 183              		.loc 1 135 0
 184 0028 FFF7FEFF 		bl	ADC_SAR_1_StartConvert
 185              	.L13:
 136:.\Generated_Source\PSoC5/ADC_SAR_1_PM.c ****             }
 137:.\Generated_Source\PSoC5/ADC_SAR_1_PM.c ****         #endif /* End ADC_SAR_1_DEFAULT_CONV_MODE != ADC_SAR_1__HARDWARE_TRIGGER */
 138:.\Generated_Source\PSoC5/ADC_SAR_1_PM.c ****         
 139:.\Generated_Source\PSoC5/ADC_SAR_1_PM.c ****     }
 140:.\Generated_Source\PSoC5/ADC_SAR_1_PM.c **** }
 186              		.loc 1 140 0
 187 002c 80BD     		pop	{r7, pc}
 188              		.cfi_endproc
 189              	.LFE3:
 190              		.size	ADC_SAR_1_Wakeup, .-ADC_SAR_1_Wakeup
 191 002e 00BF     		.text
 192              	.Letext0: