ARM GAS  C:\Users\cps\AppData\Local\Temp\ccxVhvgg.s 			page 1


   1              		.syntax unified
   2              		.cpu cortex-m3
   3              		.fpu softvfp
   4              		.eabi_attribute 20, 1
   5              		.eabi_attribute 21, 1
   6              		.eabi_attribute 23, 3
   7              		.eabi_attribute 24, 1
   8              		.eabi_attribute 25, 1
   9              		.eabi_attribute 26, 1
  10              		.eabi_attribute 30, 1
  11              		.eabi_attribute 34, 1
  12              		.eabi_attribute 18, 4
  13              		.thumb
  14              		.file	"CyLib.c"
  15              		.text
  16              	.Ltext0:
  17              		.cfi_sections	.debug_frame
  18              		.section	.text.CyUSB_PowerOnCheck,"ax",%progbits
  19              		.align	2
  20              		.thumb
  21              		.thumb_func
  22              		.type	CyUSB_PowerOnCheck, %function
  23              	CyUSB_PowerOnCheck:
  24              	.LFB6:
  25              		.file 1 ".\\Generated_Source\\PSoC5\\CyLib.c"
   1:.\Generated_Source\PSoC5/CyLib.c **** /*******************************************************************************
   2:.\Generated_Source\PSoC5/CyLib.c **** * File Name: CyLib.c
   3:.\Generated_Source\PSoC5/CyLib.c **** * Version 5.30
   4:.\Generated_Source\PSoC5/CyLib.c **** *
   5:.\Generated_Source\PSoC5/CyLib.c **** *  Description:
   6:.\Generated_Source\PSoC5/CyLib.c **** *   Provides a system API for the clocking, interrupts and watchdog timer.
   7:.\Generated_Source\PSoC5/CyLib.c **** *
   8:.\Generated_Source\PSoC5/CyLib.c **** *  Note:
   9:.\Generated_Source\PSoC5/CyLib.c **** *   Documentation of the API's in this file is located in the
  10:.\Generated_Source\PSoC5/CyLib.c **** *   System Reference Guide provided with PSoC Creator.
  11:.\Generated_Source\PSoC5/CyLib.c **** *
  12:.\Generated_Source\PSoC5/CyLib.c **** ********************************************************************************
  13:.\Generated_Source\PSoC5/CyLib.c **** * Copyright 2008-2015, Cypress Semiconductor Corporation.  All rights reserved.
  14:.\Generated_Source\PSoC5/CyLib.c **** * You may use this file only in accordance with the license, terms, conditions,
  15:.\Generated_Source\PSoC5/CyLib.c **** * disclaimers, and limitations in the end user license agreement accompanying
  16:.\Generated_Source\PSoC5/CyLib.c **** * the software package with which this file was provided.
  17:.\Generated_Source\PSoC5/CyLib.c **** *******************************************************************************/
  18:.\Generated_Source\PSoC5/CyLib.c **** 
  19:.\Generated_Source\PSoC5/CyLib.c **** #include "CyLib.h"
  20:.\Generated_Source\PSoC5/CyLib.c **** 
  21:.\Generated_Source\PSoC5/CyLib.c **** 
  22:.\Generated_Source\PSoC5/CyLib.c **** /*******************************************************************************
  23:.\Generated_Source\PSoC5/CyLib.c **** * The CyResetStatus variable is used to obtain value of RESET_SR0 register after
  24:.\Generated_Source\PSoC5/CyLib.c **** * a device reset. It is set from initialize_psoc() at the early initialization
  25:.\Generated_Source\PSoC5/CyLib.c **** * stage. In case of IAR EW IDE, initialize_psoc() is executed before the data
  26:.\Generated_Source\PSoC5/CyLib.c **** * sections are initialized. To avoid zeroing, CyResetStatus should be placed
  27:.\Generated_Source\PSoC5/CyLib.c **** * to the .noinit section.
  28:.\Generated_Source\PSoC5/CyLib.c **** *******************************************************************************/
  29:.\Generated_Source\PSoC5/CyLib.c **** CY_NOINIT uint8 CYXDATA CyResetStatus;
  30:.\Generated_Source\PSoC5/CyLib.c **** 
  31:.\Generated_Source\PSoC5/CyLib.c **** 
  32:.\Generated_Source\PSoC5/CyLib.c **** /* Variable Vdda */
ARM GAS  C:\Users\cps\AppData\Local\Temp\ccxVhvgg.s 			page 2


  33:.\Generated_Source\PSoC5/CyLib.c **** #if(CYDEV_VARIABLE_VDDA == 1)
  34:.\Generated_Source\PSoC5/CyLib.c **** 
  35:.\Generated_Source\PSoC5/CyLib.c ****     uint8 CyScPumpEnabled = (uint8)(CYDEV_VDDA_MV < 2700);
  36:.\Generated_Source\PSoC5/CyLib.c **** 
  37:.\Generated_Source\PSoC5/CyLib.c **** #endif  /* (CYDEV_VARIABLE_VDDA == 1) */
  38:.\Generated_Source\PSoC5/CyLib.c **** 
  39:.\Generated_Source\PSoC5/CyLib.c **** 
  40:.\Generated_Source\PSoC5/CyLib.c **** /* Do not use these definitions directly in your application */
  41:.\Generated_Source\PSoC5/CyLib.c **** uint32 cydelay_freq_hz  = BCLK__BUS_CLK__HZ;
  42:.\Generated_Source\PSoC5/CyLib.c **** uint32 cydelay_freq_khz = (BCLK__BUS_CLK__HZ + 999u) / 1000u;
  43:.\Generated_Source\PSoC5/CyLib.c **** uint8  cydelay_freq_mhz = (uint8)((BCLK__BUS_CLK__HZ + 999999u) / 1000000u);
  44:.\Generated_Source\PSoC5/CyLib.c **** uint32 cydelay_32k_ms   = 32768u * ((BCLK__BUS_CLK__HZ + 999u) / 1000u);
  45:.\Generated_Source\PSoC5/CyLib.c **** 
  46:.\Generated_Source\PSoC5/CyLib.c **** 
  47:.\Generated_Source\PSoC5/CyLib.c **** /* Function Prototypes */
  48:.\Generated_Source\PSoC5/CyLib.c **** static uint8 CyUSB_PowerOnCheck(void)  ;
  49:.\Generated_Source\PSoC5/CyLib.c **** static void CyIMO_SetTrimValue(uint8 freq) ;
  50:.\Generated_Source\PSoC5/CyLib.c **** static void CyBusClk_Internal_SetDivider(uint16 divider);
  51:.\Generated_Source\PSoC5/CyLib.c **** 
  52:.\Generated_Source\PSoC5/CyLib.c **** #if(CY_PSOC5)
  53:.\Generated_Source\PSoC5/CyLib.c ****     static cySysTickCallback CySysTickCallbacks[CY_SYS_SYST_NUM_OF_CALLBACKS];
  54:.\Generated_Source\PSoC5/CyLib.c ****     static void CySysTickServiceCallbacks(void);
  55:.\Generated_Source\PSoC5/CyLib.c ****     uint32 CySysTickInitVar = 0u;
  56:.\Generated_Source\PSoC5/CyLib.c **** #endif  /* (CY_PSOC5) */
  57:.\Generated_Source\PSoC5/CyLib.c **** 
  58:.\Generated_Source\PSoC5/CyLib.c **** 
  59:.\Generated_Source\PSoC5/CyLib.c **** #if(CY_PSOC3)
  60:.\Generated_Source\PSoC5/CyLib.c ****     CY_ISR_PROTO(IntDefaultHandler);
  61:.\Generated_Source\PSoC5/CyLib.c **** #endif /* (CY_PSOC3) */
  62:.\Generated_Source\PSoC5/CyLib.c **** 
  63:.\Generated_Source\PSoC5/CyLib.c **** 
  64:.\Generated_Source\PSoC5/CyLib.c **** /*******************************************************************************
  65:.\Generated_Source\PSoC5/CyLib.c **** * Function Name: CyPLL_OUT_Start
  66:.\Generated_Source\PSoC5/CyLib.c **** ********************************************************************************
  67:.\Generated_Source\PSoC5/CyLib.c **** *
  68:.\Generated_Source\PSoC5/CyLib.c **** * Summary:
  69:.\Generated_Source\PSoC5/CyLib.c **** *   Enables the PLL.  Optionally waits for it to become stable.
  70:.\Generated_Source\PSoC5/CyLib.c **** *   Waits at least 250 us or until it is detected that the PLL is stable.
  71:.\Generated_Source\PSoC5/CyLib.c **** *
  72:.\Generated_Source\PSoC5/CyLib.c **** * Parameters:
  73:.\Generated_Source\PSoC5/CyLib.c **** *   wait:
  74:.\Generated_Source\PSoC5/CyLib.c **** *    0: Return immediately after configuration
  75:.\Generated_Source\PSoC5/CyLib.c **** *    1: Wait for PLL lock or timeout.
  76:.\Generated_Source\PSoC5/CyLib.c **** *
  77:.\Generated_Source\PSoC5/CyLib.c **** * Return:
  78:.\Generated_Source\PSoC5/CyLib.c **** *   Status
  79:.\Generated_Source\PSoC5/CyLib.c **** *    CYRET_SUCCESS - Completed successfully
  80:.\Generated_Source\PSoC5/CyLib.c **** *    CYRET_TIMEOUT - Timeout occurred without detecting a stable clock.
  81:.\Generated_Source\PSoC5/CyLib.c **** *     If the input source of the clock is jittery, then the lock indication
  82:.\Generated_Source\PSoC5/CyLib.c **** *     may not occur.  However, after the timeout has expired the generated PLL
  83:.\Generated_Source\PSoC5/CyLib.c **** *     clock can still be used.
  84:.\Generated_Source\PSoC5/CyLib.c **** *
  85:.\Generated_Source\PSoC5/CyLib.c **** * Side Effects:
  86:.\Generated_Source\PSoC5/CyLib.c **** *  If wait is enabled: This function uses the Fast Time Wheel to time the wait.
  87:.\Generated_Source\PSoC5/CyLib.c **** *  Any other use of the Fast Time Wheel will be stopped during the period of
  88:.\Generated_Source\PSoC5/CyLib.c **** *  this function and then restored. This function also uses the 100 KHz ILO.
  89:.\Generated_Source\PSoC5/CyLib.c **** *  If not enabled, this function will enable the 100 KHz ILO for the period of
ARM GAS  C:\Users\cps\AppData\Local\Temp\ccxVhvgg.s 			page 3


  90:.\Generated_Source\PSoC5/CyLib.c **** *  this function.
  91:.\Generated_Source\PSoC5/CyLib.c **** *
  92:.\Generated_Source\PSoC5/CyLib.c **** *  No changes to the setup of the ILO, Fast Time Wheel, Central Time Wheel or
  93:.\Generated_Source\PSoC5/CyLib.c **** *  Once Per Second interrupt may be made by interrupt routines during the period
  94:.\Generated_Source\PSoC5/CyLib.c **** *  of this function execution. The current operation of the ILO, Central Time
  95:.\Generated_Source\PSoC5/CyLib.c **** *  Wheel and Once Per Second interrupt are maintained during the operation of
  96:.\Generated_Source\PSoC5/CyLib.c **** *  this function provided the reading of the Power Manager Interrupt Status
  97:.\Generated_Source\PSoC5/CyLib.c **** *  Register is only done using the CyPmReadStatus() function.
  98:.\Generated_Source\PSoC5/CyLib.c **** *
  99:.\Generated_Source\PSoC5/CyLib.c **** *******************************************************************************/
 100:.\Generated_Source\PSoC5/CyLib.c **** cystatus CyPLL_OUT_Start(uint8 wait) 
 101:.\Generated_Source\PSoC5/CyLib.c **** {
 102:.\Generated_Source\PSoC5/CyLib.c ****     cystatus status = CYRET_SUCCESS;
 103:.\Generated_Source\PSoC5/CyLib.c **** 
 104:.\Generated_Source\PSoC5/CyLib.c ****     uint8 iloEnableState;
 105:.\Generated_Source\PSoC5/CyLib.c ****     uint8 pmTwCfg0State;
 106:.\Generated_Source\PSoC5/CyLib.c ****     uint8 pmTwCfg2State;
 107:.\Generated_Source\PSoC5/CyLib.c **** 
 108:.\Generated_Source\PSoC5/CyLib.c **** 
 109:.\Generated_Source\PSoC5/CyLib.c ****     /* Enables PLL circuit  */
 110:.\Generated_Source\PSoC5/CyLib.c ****     CY_CLK_PLL_CFG0_REG |= CY_CLK_PLL_ENABLE;
 111:.\Generated_Source\PSoC5/CyLib.c **** 
 112:.\Generated_Source\PSoC5/CyLib.c ****     if(wait != 0u)
 113:.\Generated_Source\PSoC5/CyLib.c ****     {
 114:.\Generated_Source\PSoC5/CyLib.c ****         /* Save 100 KHz ILO, FTW interval, enable and interrupt enable */
 115:.\Generated_Source\PSoC5/CyLib.c ****         iloEnableState = CY_LIB_SLOWCLK_ILO_CR0_REG & CY_LIB_SLOWCLK_ILO_CR0_EN_100KHZ;
 116:.\Generated_Source\PSoC5/CyLib.c ****         pmTwCfg0State = CY_LIB_PM_TW_CFG0_REG;
 117:.\Generated_Source\PSoC5/CyLib.c ****         pmTwCfg2State = CY_LIB_PM_TW_CFG2_REG;
 118:.\Generated_Source\PSoC5/CyLib.c **** 
 119:.\Generated_Source\PSoC5/CyLib.c ****         CyPmFtwSetInterval(CY_CLK_PLL_FTW_INTERVAL);
 120:.\Generated_Source\PSoC5/CyLib.c **** 
 121:.\Generated_Source\PSoC5/CyLib.c ****         status = CYRET_TIMEOUT;
 122:.\Generated_Source\PSoC5/CyLib.c **** 
 123:.\Generated_Source\PSoC5/CyLib.c ****         while(0u == (CY_PM_FTW_INT & CyPmReadStatus(CY_PM_FTW_INT)))
 124:.\Generated_Source\PSoC5/CyLib.c ****         {
 125:.\Generated_Source\PSoC5/CyLib.c ****             /* Wait for interrupt status */
 126:.\Generated_Source\PSoC5/CyLib.c ****             if(0u != (CY_CLK_PLL_SR_REG & CY_CLK_PLL_LOCK_STATUS))
 127:.\Generated_Source\PSoC5/CyLib.c ****             {
 128:.\Generated_Source\PSoC5/CyLib.c ****                 if(0u != (CY_CLK_PLL_SR_REG & CY_CLK_PLL_LOCK_STATUS))
 129:.\Generated_Source\PSoC5/CyLib.c ****                 {
 130:.\Generated_Source\PSoC5/CyLib.c ****                     status = CYRET_SUCCESS;
 131:.\Generated_Source\PSoC5/CyLib.c ****                     break;
 132:.\Generated_Source\PSoC5/CyLib.c ****                 }
 133:.\Generated_Source\PSoC5/CyLib.c ****             }
 134:.\Generated_Source\PSoC5/CyLib.c ****         }
 135:.\Generated_Source\PSoC5/CyLib.c **** 
 136:.\Generated_Source\PSoC5/CyLib.c ****         /* Restore 100 KHz ILO, FTW interval, enable and interrupt enable */
 137:.\Generated_Source\PSoC5/CyLib.c ****         if(0u == iloEnableState)
 138:.\Generated_Source\PSoC5/CyLib.c ****         {
 139:.\Generated_Source\PSoC5/CyLib.c ****             CyILO_Stop100K();
 140:.\Generated_Source\PSoC5/CyLib.c ****         }
 141:.\Generated_Source\PSoC5/CyLib.c **** 
 142:.\Generated_Source\PSoC5/CyLib.c ****         CY_LIB_PM_TW_CFG0_REG = pmTwCfg0State;
 143:.\Generated_Source\PSoC5/CyLib.c ****         CY_LIB_PM_TW_CFG2_REG = pmTwCfg2State;
 144:.\Generated_Source\PSoC5/CyLib.c ****     }
 145:.\Generated_Source\PSoC5/CyLib.c **** 
 146:.\Generated_Source\PSoC5/CyLib.c ****     return(status);
ARM GAS  C:\Users\cps\AppData\Local\Temp\ccxVhvgg.s 			page 4


 147:.\Generated_Source\PSoC5/CyLib.c **** }
 148:.\Generated_Source\PSoC5/CyLib.c **** 
 149:.\Generated_Source\PSoC5/CyLib.c **** 
 150:.\Generated_Source\PSoC5/CyLib.c **** /*******************************************************************************
 151:.\Generated_Source\PSoC5/CyLib.c **** * Function Name: CyPLL_OUT_Stop
 152:.\Generated_Source\PSoC5/CyLib.c **** ********************************************************************************
 153:.\Generated_Source\PSoC5/CyLib.c **** *
 154:.\Generated_Source\PSoC5/CyLib.c **** * Summary:
 155:.\Generated_Source\PSoC5/CyLib.c **** *  Disables the PLL.
 156:.\Generated_Source\PSoC5/CyLib.c **** *
 157:.\Generated_Source\PSoC5/CyLib.c **** * Parameters:
 158:.\Generated_Source\PSoC5/CyLib.c **** *  None
 159:.\Generated_Source\PSoC5/CyLib.c **** *
 160:.\Generated_Source\PSoC5/CyLib.c **** * Return:
 161:.\Generated_Source\PSoC5/CyLib.c **** *  None
 162:.\Generated_Source\PSoC5/CyLib.c **** *
 163:.\Generated_Source\PSoC5/CyLib.c **** *******************************************************************************/
 164:.\Generated_Source\PSoC5/CyLib.c **** void CyPLL_OUT_Stop(void) 
 165:.\Generated_Source\PSoC5/CyLib.c **** {
 166:.\Generated_Source\PSoC5/CyLib.c ****     CY_CLK_PLL_CFG0_REG &= ((uint8)(~CY_CLK_PLL_ENABLE));
 167:.\Generated_Source\PSoC5/CyLib.c **** }
 168:.\Generated_Source\PSoC5/CyLib.c **** 
 169:.\Generated_Source\PSoC5/CyLib.c **** 
 170:.\Generated_Source\PSoC5/CyLib.c **** /*******************************************************************************
 171:.\Generated_Source\PSoC5/CyLib.c **** * Function Name: CyPLL_OUT_SetPQ
 172:.\Generated_Source\PSoC5/CyLib.c **** ********************************************************************************
 173:.\Generated_Source\PSoC5/CyLib.c **** *
 174:.\Generated_Source\PSoC5/CyLib.c **** * Summary:
 175:.\Generated_Source\PSoC5/CyLib.c **** *  Sets the P and Q dividers and the charge pump current.
 176:.\Generated_Source\PSoC5/CyLib.c **** *  The Frequency Out will be P/Q * Frequency In.
 177:.\Generated_Source\PSoC5/CyLib.c **** *  The PLL must be disabled before calling this function.
 178:.\Generated_Source\PSoC5/CyLib.c **** *
 179:.\Generated_Source\PSoC5/CyLib.c **** * Parameters:
 180:.\Generated_Source\PSoC5/CyLib.c **** *  uint8 pDiv:
 181:.\Generated_Source\PSoC5/CyLib.c **** *   Valid range [8 - 255].
 182:.\Generated_Source\PSoC5/CyLib.c **** *
 183:.\Generated_Source\PSoC5/CyLib.c **** *  uint8 qDiv:
 184:.\Generated_Source\PSoC5/CyLib.c **** *   Valid range [1 - 16]. Input Frequency / Q must be in range of 1 to 3 MHz.
 185:.\Generated_Source\PSoC5/CyLib.c **** 
 186:.\Generated_Source\PSoC5/CyLib.c **** *  uint8 current:
 187:.\Generated_Source\PSoC5/CyLib.c **** *   Valid range [1 - 7]. Charge pump current in uA. Refer to the device TRM and
 188:.\Generated_Source\PSoC5/CyLib.c **** *   datasheet for more information.
 189:.\Generated_Source\PSoC5/CyLib.c **** *
 190:.\Generated_Source\PSoC5/CyLib.c **** * Return:
 191:.\Generated_Source\PSoC5/CyLib.c **** *  None
 192:.\Generated_Source\PSoC5/CyLib.c **** *
 193:.\Generated_Source\PSoC5/CyLib.c **** * Side Effects:
 194:.\Generated_Source\PSoC5/CyLib.c **** *  If this function execution results in the CPU clock frequency increasing,
 195:.\Generated_Source\PSoC5/CyLib.c **** *  then the number of clock cycles the cache will wait before it samples data
 196:.\Generated_Source\PSoC5/CyLib.c **** *  coming back from the Flash must be adjusted by calling
 197:.\Generated_Source\PSoC5/CyLib.c **** *  CyFlash_SetWaitCycles() with an appropriate parameter. It can be optionally
 198:.\Generated_Source\PSoC5/CyLib.c **** *  called if the CPU clock frequency is lowered in order to improve the CPU
 199:.\Generated_Source\PSoC5/CyLib.c **** *  performance. See CyFlash_SetWaitCycles() description for more information.
 200:.\Generated_Source\PSoC5/CyLib.c **** *
 201:.\Generated_Source\PSoC5/CyLib.c **** *******************************************************************************/
 202:.\Generated_Source\PSoC5/CyLib.c **** void CyPLL_OUT_SetPQ(uint8 pDiv, uint8 qDiv, uint8 current) 
 203:.\Generated_Source\PSoC5/CyLib.c **** {
ARM GAS  C:\Users\cps\AppData\Local\Temp\ccxVhvgg.s 			page 5


 204:.\Generated_Source\PSoC5/CyLib.c ****     /* Halt CPU in debug mode if PLL is enabled */
 205:.\Generated_Source\PSoC5/CyLib.c ****     CYASSERT(0u == (CY_CLK_PLL_CFG0_REG & CY_CLK_PLL_ENABLE));
 206:.\Generated_Source\PSoC5/CyLib.c **** 
 207:.\Generated_Source\PSoC5/CyLib.c ****     if((pDiv    >= CY_CLK_PLL_MIN_P_VALUE  ) &&
 208:.\Generated_Source\PSoC5/CyLib.c ****        (qDiv    <= CY_CLK_PLL_MAX_Q_VALUE  ) && (qDiv    >= CY_CLK_PLL_MIN_Q_VALUE  ) &&
 209:.\Generated_Source\PSoC5/CyLib.c ****        (current >= CY_CLK_PLL_MIN_CUR_VALUE) && (current <= CY_CLK_PLL_MAX_CUR_VALUE))
 210:.\Generated_Source\PSoC5/CyLib.c ****     {
 211:.\Generated_Source\PSoC5/CyLib.c ****         /* Set new values */
 212:.\Generated_Source\PSoC5/CyLib.c ****         CY_CLK_PLL_P_REG = pDiv;
 213:.\Generated_Source\PSoC5/CyLib.c ****         CY_CLK_PLL_Q_REG = ((uint8)(qDiv - 1u));
 214:.\Generated_Source\PSoC5/CyLib.c ****         CY_CLK_PLL_CFG1_REG = (CY_CLK_PLL_CFG1_REG & CY_CLK_PLL_CURRENT_MASK) |
 215:.\Generated_Source\PSoC5/CyLib.c ****                                 ((uint8)(((uint8)(current - 1u)) << CY_CLK_PLL_CURRENT_POSITION));
 216:.\Generated_Source\PSoC5/CyLib.c ****     }
 217:.\Generated_Source\PSoC5/CyLib.c ****     else
 218:.\Generated_Source\PSoC5/CyLib.c ****     {
 219:.\Generated_Source\PSoC5/CyLib.c ****         /***********************************************************************
 220:.\Generated_Source\PSoC5/CyLib.c ****         * Halt CPU in debug mode if:
 221:.\Generated_Source\PSoC5/CyLib.c ****         * - P divider is less than required
 222:.\Generated_Source\PSoC5/CyLib.c ****         * - Q divider is out of range
 223:.\Generated_Source\PSoC5/CyLib.c ****         * - pump current is out of range
 224:.\Generated_Source\PSoC5/CyLib.c ****         ***********************************************************************/
 225:.\Generated_Source\PSoC5/CyLib.c ****         CYASSERT(0u != 0u);
 226:.\Generated_Source\PSoC5/CyLib.c ****     }
 227:.\Generated_Source\PSoC5/CyLib.c **** 
 228:.\Generated_Source\PSoC5/CyLib.c **** }
 229:.\Generated_Source\PSoC5/CyLib.c **** 
 230:.\Generated_Source\PSoC5/CyLib.c **** 
 231:.\Generated_Source\PSoC5/CyLib.c **** /*******************************************************************************
 232:.\Generated_Source\PSoC5/CyLib.c **** * Function Name: CyPLL_OUT_SetSource
 233:.\Generated_Source\PSoC5/CyLib.c **** ********************************************************************************
 234:.\Generated_Source\PSoC5/CyLib.c **** *
 235:.\Generated_Source\PSoC5/CyLib.c **** * Summary:
 236:.\Generated_Source\PSoC5/CyLib.c **** *  Sets the input clock source to the PLL. The PLL must be disabled before
 237:.\Generated_Source\PSoC5/CyLib.c **** *  calling this function.
 238:.\Generated_Source\PSoC5/CyLib.c **** *
 239:.\Generated_Source\PSoC5/CyLib.c **** * Parameters:
 240:.\Generated_Source\PSoC5/CyLib.c **** *   source: One of the three available PLL clock sources
 241:.\Generated_Source\PSoC5/CyLib.c **** *    CY_PLL_SOURCE_IMO  :   IMO
 242:.\Generated_Source\PSoC5/CyLib.c **** *    CY_PLL_SOURCE_XTAL :   MHz Crystal
 243:.\Generated_Source\PSoC5/CyLib.c **** *    CY_PLL_SOURCE_DSI  :   DSI
 244:.\Generated_Source\PSoC5/CyLib.c **** *
 245:.\Generated_Source\PSoC5/CyLib.c **** * Return:
 246:.\Generated_Source\PSoC5/CyLib.c **** *  None
 247:.\Generated_Source\PSoC5/CyLib.c **** *
 248:.\Generated_Source\PSoC5/CyLib.c **** * Side Effects:
 249:.\Generated_Source\PSoC5/CyLib.c **** *  If this function execution results in the CPU clock frequency increasing,
 250:.\Generated_Source\PSoC5/CyLib.c **** *  then the number of clock cycles the cache will wait before it samples data
 251:.\Generated_Source\PSoC5/CyLib.c **** *  coming back from the3 Flash must be adjusted by calling
 252:.\Generated_Source\PSoC5/CyLib.c **** *  CyFlash_SetWaitCycles() with an appropriate parameter. It can be optionally
 253:.\Generated_Source\PSoC5/CyLib.c **** *  called if the CPU clock frequency is lowered in order to improve the CPU
 254:.\Generated_Source\PSoC5/CyLib.c **** *  performance. See CyFlash_SetWaitCycles() description for more information.
 255:.\Generated_Source\PSoC5/CyLib.c **** *
 256:.\Generated_Source\PSoC5/CyLib.c **** *******************************************************************************/
 257:.\Generated_Source\PSoC5/CyLib.c **** void CyPLL_OUT_SetSource(uint8 source) 
 258:.\Generated_Source\PSoC5/CyLib.c **** {
 259:.\Generated_Source\PSoC5/CyLib.c ****     /* Halt CPU in debug mode if PLL is enabled */
 260:.\Generated_Source\PSoC5/CyLib.c ****     CYASSERT(0u == (CY_CLK_PLL_CFG0_REG & CY_CLK_PLL_ENABLE));
ARM GAS  C:\Users\cps\AppData\Local\Temp\ccxVhvgg.s 			page 6


 261:.\Generated_Source\PSoC5/CyLib.c **** 
 262:.\Generated_Source\PSoC5/CyLib.c ****     switch(source)
 263:.\Generated_Source\PSoC5/CyLib.c ****     {
 264:.\Generated_Source\PSoC5/CyLib.c ****         case CY_PLL_SOURCE_IMO:
 265:.\Generated_Source\PSoC5/CyLib.c ****         case CY_PLL_SOURCE_XTAL:
 266:.\Generated_Source\PSoC5/CyLib.c ****         case CY_PLL_SOURCE_DSI:
 267:.\Generated_Source\PSoC5/CyLib.c ****             CY_LIB_CLKDIST_CR_REG = ((CY_LIB_CLKDIST_CR_REG & CY_LIB_CLKDIST_CR_PLL_SCR_MASK) | sou
 268:.\Generated_Source\PSoC5/CyLib.c ****         break;
 269:.\Generated_Source\PSoC5/CyLib.c **** 
 270:.\Generated_Source\PSoC5/CyLib.c ****         default:
 271:.\Generated_Source\PSoC5/CyLib.c ****             CYASSERT(0u != 0u);
 272:.\Generated_Source\PSoC5/CyLib.c ****         break;
 273:.\Generated_Source\PSoC5/CyLib.c ****     }
 274:.\Generated_Source\PSoC5/CyLib.c **** }
 275:.\Generated_Source\PSoC5/CyLib.c **** 
 276:.\Generated_Source\PSoC5/CyLib.c **** 
 277:.\Generated_Source\PSoC5/CyLib.c **** /*******************************************************************************
 278:.\Generated_Source\PSoC5/CyLib.c **** * Function Name: CyIMO_Start
 279:.\Generated_Source\PSoC5/CyLib.c **** ********************************************************************************
 280:.\Generated_Source\PSoC5/CyLib.c **** *
 281:.\Generated_Source\PSoC5/CyLib.c **** * Summary:
 282:.\Generated_Source\PSoC5/CyLib.c **** *  Enables the IMO. Optionally waits at least 6 us for it to settle.
 283:.\Generated_Source\PSoC5/CyLib.c **** *
 284:.\Generated_Source\PSoC5/CyLib.c **** * Parameters:
 285:.\Generated_Source\PSoC5/CyLib.c **** *  uint8 wait:
 286:.\Generated_Source\PSoC5/CyLib.c **** *   0: Return immediately after configuration
 287:.\Generated_Source\PSoC5/CyLib.c **** *   1: Wait for at least 6 us for the IMO to settle.
 288:.\Generated_Source\PSoC5/CyLib.c **** *
 289:.\Generated_Source\PSoC5/CyLib.c **** * Return:
 290:.\Generated_Source\PSoC5/CyLib.c **** *  None
 291:.\Generated_Source\PSoC5/CyLib.c **** *
 292:.\Generated_Source\PSoC5/CyLib.c **** * Side Effects:
 293:.\Generated_Source\PSoC5/CyLib.c **** *  If wait is enabled: This function uses the Fast Time Wheel to time the wait.
 294:.\Generated_Source\PSoC5/CyLib.c **** *  Any other use of the Fast Time Wheel will be stopped during the period of
 295:.\Generated_Source\PSoC5/CyLib.c **** *  this function and then restored. This function also uses the 100 KHz ILO.
 296:.\Generated_Source\PSoC5/CyLib.c **** *  If not enabled, this function will enable the 100 KHz ILO for the period of
 297:.\Generated_Source\PSoC5/CyLib.c **** *  this function.
 298:.\Generated_Source\PSoC5/CyLib.c **** *
 299:.\Generated_Source\PSoC5/CyLib.c **** *  No changes to the setup of the ILO, Fast Time Wheel, Central Time Wheel or
 300:.\Generated_Source\PSoC5/CyLib.c **** *  Once Per Second interrupt may be made by interrupt routines during the period
 301:.\Generated_Source\PSoC5/CyLib.c **** *  of this function execution. The current operation of the ILO, Central Time
 302:.\Generated_Source\PSoC5/CyLib.c **** *  Wheel and Once Per Second interrupt are maintained during the operation of
 303:.\Generated_Source\PSoC5/CyLib.c **** *  this function provided the reading of the Power Manager Interrupt Status
 304:.\Generated_Source\PSoC5/CyLib.c **** *  Register is only done using the CyPmReadStatus() function.
 305:.\Generated_Source\PSoC5/CyLib.c **** *
 306:.\Generated_Source\PSoC5/CyLib.c **** *******************************************************************************/
 307:.\Generated_Source\PSoC5/CyLib.c **** void CyIMO_Start(uint8 wait) 
 308:.\Generated_Source\PSoC5/CyLib.c **** {
 309:.\Generated_Source\PSoC5/CyLib.c ****     uint8 pmFtwCfg2Reg;
 310:.\Generated_Source\PSoC5/CyLib.c ****     uint8 pmFtwCfg0Reg;
 311:.\Generated_Source\PSoC5/CyLib.c ****     uint8 ilo100KhzEnable;
 312:.\Generated_Source\PSoC5/CyLib.c **** 
 313:.\Generated_Source\PSoC5/CyLib.c **** 
 314:.\Generated_Source\PSoC5/CyLib.c ****     CY_LIB_PM_ACT_CFG0_REG  |= CY_LIB_PM_ACT_CFG0_IMO_EN;
 315:.\Generated_Source\PSoC5/CyLib.c ****     CY_LIB_PM_STBY_CFG0_REG |= CY_LIB_PM_STBY_CFG0_IMO_EN;
 316:.\Generated_Source\PSoC5/CyLib.c **** 
 317:.\Generated_Source\PSoC5/CyLib.c ****     if(0u != wait)
ARM GAS  C:\Users\cps\AppData\Local\Temp\ccxVhvgg.s 			page 7


 318:.\Generated_Source\PSoC5/CyLib.c ****     {
 319:.\Generated_Source\PSoC5/CyLib.c ****         /* Need to turn on 100KHz ILO if it happens to not already be running.*/
 320:.\Generated_Source\PSoC5/CyLib.c ****         ilo100KhzEnable = CY_LIB_SLOWCLK_ILO_CR0_REG & CY_LIB_SLOWCLK_ILO_CR0_EN_100KHZ;
 321:.\Generated_Source\PSoC5/CyLib.c ****         pmFtwCfg0Reg = CY_LIB_PM_TW_CFG0_REG;
 322:.\Generated_Source\PSoC5/CyLib.c ****         pmFtwCfg2Reg = CY_LIB_PM_TW_CFG2_REG;
 323:.\Generated_Source\PSoC5/CyLib.c **** 
 324:.\Generated_Source\PSoC5/CyLib.c ****         CyPmFtwSetInterval(CY_LIB_CLK_IMO_FTW_TIMEOUT);
 325:.\Generated_Source\PSoC5/CyLib.c **** 
 326:.\Generated_Source\PSoC5/CyLib.c ****         while (0u == (CY_PM_FTW_INT & CyPmReadStatus(CY_PM_FTW_INT)))
 327:.\Generated_Source\PSoC5/CyLib.c ****         {
 328:.\Generated_Source\PSoC5/CyLib.c ****             /* Wait for interrupt status */
 329:.\Generated_Source\PSoC5/CyLib.c ****         }
 330:.\Generated_Source\PSoC5/CyLib.c **** 
 331:.\Generated_Source\PSoC5/CyLib.c ****         if(0u == ilo100KhzEnable)
 332:.\Generated_Source\PSoC5/CyLib.c ****         {
 333:.\Generated_Source\PSoC5/CyLib.c ****             CyILO_Stop100K();
 334:.\Generated_Source\PSoC5/CyLib.c ****         }
 335:.\Generated_Source\PSoC5/CyLib.c **** 
 336:.\Generated_Source\PSoC5/CyLib.c ****         CY_LIB_PM_TW_CFG0_REG = pmFtwCfg0Reg;
 337:.\Generated_Source\PSoC5/CyLib.c ****         CY_LIB_PM_TW_CFG2_REG = pmFtwCfg2Reg;
 338:.\Generated_Source\PSoC5/CyLib.c ****     }
 339:.\Generated_Source\PSoC5/CyLib.c **** }
 340:.\Generated_Source\PSoC5/CyLib.c **** 
 341:.\Generated_Source\PSoC5/CyLib.c **** 
 342:.\Generated_Source\PSoC5/CyLib.c **** /*******************************************************************************
 343:.\Generated_Source\PSoC5/CyLib.c **** * Function Name: CyIMO_Stop
 344:.\Generated_Source\PSoC5/CyLib.c **** ********************************************************************************
 345:.\Generated_Source\PSoC5/CyLib.c **** *
 346:.\Generated_Source\PSoC5/CyLib.c **** * Summary:
 347:.\Generated_Source\PSoC5/CyLib.c **** *   Disables the IMO.
 348:.\Generated_Source\PSoC5/CyLib.c **** *
 349:.\Generated_Source\PSoC5/CyLib.c **** * Parameters:
 350:.\Generated_Source\PSoC5/CyLib.c **** *  None
 351:.\Generated_Source\PSoC5/CyLib.c **** *
 352:.\Generated_Source\PSoC5/CyLib.c **** * Return:
 353:.\Generated_Source\PSoC5/CyLib.c **** *  None
 354:.\Generated_Source\PSoC5/CyLib.c **** *
 355:.\Generated_Source\PSoC5/CyLib.c **** *******************************************************************************/
 356:.\Generated_Source\PSoC5/CyLib.c **** void CyIMO_Stop(void) 
 357:.\Generated_Source\PSoC5/CyLib.c **** {
 358:.\Generated_Source\PSoC5/CyLib.c ****     CY_LIB_PM_ACT_CFG0_REG  &= ((uint8) (~CY_LIB_PM_ACT_CFG0_IMO_EN));
 359:.\Generated_Source\PSoC5/CyLib.c ****     CY_LIB_PM_STBY_CFG0_REG &= ((uint8) (~CY_LIB_PM_STBY_CFG0_IMO_EN));
 360:.\Generated_Source\PSoC5/CyLib.c **** }
 361:.\Generated_Source\PSoC5/CyLib.c **** 
 362:.\Generated_Source\PSoC5/CyLib.c **** 
 363:.\Generated_Source\PSoC5/CyLib.c **** /*******************************************************************************
 364:.\Generated_Source\PSoC5/CyLib.c **** * Function Name: CyUSB_PowerOnCheck
 365:.\Generated_Source\PSoC5/CyLib.c **** ********************************************************************************
 366:.\Generated_Source\PSoC5/CyLib.c **** *
 367:.\Generated_Source\PSoC5/CyLib.c **** * Summary:
 368:.\Generated_Source\PSoC5/CyLib.c **** *  Returns the USB power status value. A private function to cy_boot.
 369:.\Generated_Source\PSoC5/CyLib.c **** *
 370:.\Generated_Source\PSoC5/CyLib.c **** * Parameters:
 371:.\Generated_Source\PSoC5/CyLib.c **** *   None
 372:.\Generated_Source\PSoC5/CyLib.c **** *
 373:.\Generated_Source\PSoC5/CyLib.c **** * Return:
 374:.\Generated_Source\PSoC5/CyLib.c **** *   uint8: one if the USB is enabled, 0 if not enabled.
ARM GAS  C:\Users\cps\AppData\Local\Temp\ccxVhvgg.s 			page 8


 375:.\Generated_Source\PSoC5/CyLib.c **** *
 376:.\Generated_Source\PSoC5/CyLib.c **** *******************************************************************************/
 377:.\Generated_Source\PSoC5/CyLib.c **** static uint8 CyUSB_PowerOnCheck(void)  
 378:.\Generated_Source\PSoC5/CyLib.c **** {
  26              		.loc 1 378 0
  27              		.cfi_startproc
  28              		@ args = 0, pretend = 0, frame = 0
  29              		@ frame_needed = 0, uses_anonymous_args = 0
  30              		@ link register save eliminated.
  31              	.LVL0:
 379:.\Generated_Source\PSoC5/CyLib.c ****     uint8 poweredOn = 0u;
 380:.\Generated_Source\PSoC5/CyLib.c **** 
 381:.\Generated_Source\PSoC5/CyLib.c ****     /* Check whether device is in Active or AltActive and if USB is powered on */
 382:.\Generated_Source\PSoC5/CyLib.c ****     if((((CY_PM_MODE_CSR_REG & CY_PM_MODE_CSR_MASK) == CY_PM_MODE_CSR_ACTIVE ) &&
  32              		.loc 1 382 0
  33 0000 0E4B     		ldr	r3, .L7
  34 0002 1B78     		ldrb	r3, [r3]	@ zero_extendqisi2
  35 0004 13F0070F 		tst	r3, #7
  36 0008 04D1     		bne	.L2
 383:.\Generated_Source\PSoC5/CyLib.c ****        (0u != (CY_LIB_PM_ACT_CFG5_REG & CY_ACT_USB_ENABLED     )))  ||
  37              		.loc 1 383 0 discriminator 1
  38 000a 0D4B     		ldr	r3, .L7+4
  39 000c 1B78     		ldrb	r3, [r3]	@ zero_extendqisi2
 382:.\Generated_Source\PSoC5/CyLib.c ****        (0u != (CY_LIB_PM_ACT_CFG5_REG & CY_ACT_USB_ENABLED     )))  ||
  40              		.loc 1 382 0 discriminator 1
  41 000e 13F0010F 		tst	r3, #1
  42 0012 0CD1     		bne	.L4
  43              	.L2:
 384:.\Generated_Source\PSoC5/CyLib.c ****        (((CY_PM_MODE_CSR_REG & CY_PM_MODE_CSR_MASK) == CY_PM_MODE_CSR_ALT_ACT) &&
  44              		.loc 1 384 0
  45 0014 094B     		ldr	r3, .L7
  46 0016 1B78     		ldrb	r3, [r3]	@ zero_extendqisi2
  47 0018 03F00703 		and	r3, r3, #7
 383:.\Generated_Source\PSoC5/CyLib.c ****        (0u != (CY_LIB_PM_ACT_CFG5_REG & CY_ACT_USB_ENABLED     )))  ||
  48              		.loc 1 383 0
  49 001c 012B     		cmp	r3, #1
  50 001e 08D1     		bne	.L5
 385:.\Generated_Source\PSoC5/CyLib.c ****        (0u != (CY_LIB_PM_STBY_CFG5_REG & CY_ALT_ACT_USB_ENABLED))))
  51              		.loc 1 385 0
  52 0020 084B     		ldr	r3, .L7+8
  53 0022 1B78     		ldrb	r3, [r3]	@ zero_extendqisi2
 384:.\Generated_Source\PSoC5/CyLib.c ****        (((CY_PM_MODE_CSR_REG & CY_PM_MODE_CSR_MASK) == CY_PM_MODE_CSR_ALT_ACT) &&
  54              		.loc 1 384 0
  55 0024 13F0010F 		tst	r3, #1
  56 0028 05D1     		bne	.L6
 379:.\Generated_Source\PSoC5/CyLib.c **** 
  57              		.loc 1 379 0
  58 002a 0020     		movs	r0, #0
  59 002c 7047     		bx	lr
  60              	.L4:
 386:.\Generated_Source\PSoC5/CyLib.c ****     {
 387:.\Generated_Source\PSoC5/CyLib.c ****         poweredOn = 1u;
  61              		.loc 1 387 0
  62 002e 0120     		movs	r0, #1
  63 0030 7047     		bx	lr
  64              	.L5:
 379:.\Generated_Source\PSoC5/CyLib.c **** 
ARM GAS  C:\Users\cps\AppData\Local\Temp\ccxVhvgg.s 			page 9


  65              		.loc 1 379 0
  66 0032 0020     		movs	r0, #0
  67 0034 7047     		bx	lr
  68              	.L6:
  69              		.loc 1 387 0
  70 0036 0120     		movs	r0, #1
  71              	.LVL1:
 388:.\Generated_Source\PSoC5/CyLib.c ****     }
 389:.\Generated_Source\PSoC5/CyLib.c **** 
 390:.\Generated_Source\PSoC5/CyLib.c ****     return (poweredOn);
 391:.\Generated_Source\PSoC5/CyLib.c **** }
  72              		.loc 1 391 0
  73 0038 7047     		bx	lr
  74              	.L8:
  75 003a 00BF     		.align	2
  76              	.L7:
  77 003c 93430040 		.word	1073759123
  78 0040 A5430040 		.word	1073759141
  79 0044 B5430040 		.word	1073759157
  80              		.cfi_endproc
  81              	.LFE6:
  82              		.size	CyUSB_PowerOnCheck, .-CyUSB_PowerOnCheck
  83              		.section	.text.CyBusClk_Internal_SetDivider,"ax",%progbits
  84              		.align	2
  85              		.thumb
  86              		.thumb_func
  87              		.type	CyBusClk_Internal_SetDivider, %function
  88              	CyBusClk_Internal_SetDivider:
  89              	.LFB14:
 392:.\Generated_Source\PSoC5/CyLib.c **** 
 393:.\Generated_Source\PSoC5/CyLib.c **** 
 394:.\Generated_Source\PSoC5/CyLib.c **** /*******************************************************************************
 395:.\Generated_Source\PSoC5/CyLib.c **** * Function Name: CyIMO_SetTrimValue
 396:.\Generated_Source\PSoC5/CyLib.c **** ********************************************************************************
 397:.\Generated_Source\PSoC5/CyLib.c **** *
 398:.\Generated_Source\PSoC5/CyLib.c **** * Summary:
 399:.\Generated_Source\PSoC5/CyLib.c **** *  Sets the IMO factory trim values.
 400:.\Generated_Source\PSoC5/CyLib.c **** *
 401:.\Generated_Source\PSoC5/CyLib.c **** * Parameters:
 402:.\Generated_Source\PSoC5/CyLib.c **** *  uint8 freq - frequency for which trims must be set
 403:.\Generated_Source\PSoC5/CyLib.c **** *
 404:.\Generated_Source\PSoC5/CyLib.c **** * Return:
 405:.\Generated_Source\PSoC5/CyLib.c **** *  None
 406:.\Generated_Source\PSoC5/CyLib.c **** *
 407:.\Generated_Source\PSoC5/CyLib.c **** *******************************************************************************/
 408:.\Generated_Source\PSoC5/CyLib.c **** static void CyIMO_SetTrimValue(uint8 freq) 
 409:.\Generated_Source\PSoC5/CyLib.c **** {
 410:.\Generated_Source\PSoC5/CyLib.c ****     uint8 usbPowerOn = CyUSB_PowerOnCheck();
 411:.\Generated_Source\PSoC5/CyLib.c **** 
 412:.\Generated_Source\PSoC5/CyLib.c ****     /* If USB is powered */
 413:.\Generated_Source\PSoC5/CyLib.c ****     if(usbPowerOn == 1u)
 414:.\Generated_Source\PSoC5/CyLib.c ****     {
 415:.\Generated_Source\PSoC5/CyLib.c ****         /* Unlock USB write */
 416:.\Generated_Source\PSoC5/CyLib.c ****         CY_LIB_USB_CR1_REG &= ((uint8)(~CY_LIB_USB_CLK_EN));
 417:.\Generated_Source\PSoC5/CyLib.c ****     }
 418:.\Generated_Source\PSoC5/CyLib.c ****     switch(freq)
 419:.\Generated_Source\PSoC5/CyLib.c ****     {
ARM GAS  C:\Users\cps\AppData\Local\Temp\ccxVhvgg.s 			page 10


 420:.\Generated_Source\PSoC5/CyLib.c ****     case CY_IMO_FREQ_3MHZ:
 421:.\Generated_Source\PSoC5/CyLib.c ****         CY_LIB_IMO_TR1_REG = CY_GET_XTND_REG8(CY_LIB_TRIM_IMO_3MHZ_PTR);
 422:.\Generated_Source\PSoC5/CyLib.c ****         break;
 423:.\Generated_Source\PSoC5/CyLib.c **** 
 424:.\Generated_Source\PSoC5/CyLib.c ****     case CY_IMO_FREQ_6MHZ:
 425:.\Generated_Source\PSoC5/CyLib.c ****         CY_LIB_IMO_TR1_REG = CY_GET_XTND_REG8(CY_LIB_TRIM_IMO_6MHZ_PTR);
 426:.\Generated_Source\PSoC5/CyLib.c ****         break;
 427:.\Generated_Source\PSoC5/CyLib.c **** 
 428:.\Generated_Source\PSoC5/CyLib.c ****     case CY_IMO_FREQ_12MHZ:
 429:.\Generated_Source\PSoC5/CyLib.c ****         CY_LIB_IMO_TR1_REG = CY_GET_XTND_REG8(CY_LIB_TRIM_IMO_12MHZ_PTR);
 430:.\Generated_Source\PSoC5/CyLib.c ****         break;
 431:.\Generated_Source\PSoC5/CyLib.c **** 
 432:.\Generated_Source\PSoC5/CyLib.c ****     case CY_IMO_FREQ_24MHZ:
 433:.\Generated_Source\PSoC5/CyLib.c ****         CY_LIB_IMO_TR1_REG = CY_GET_XTND_REG8(CY_LIB_TRIM_IMO_24MHZ_PTR);
 434:.\Generated_Source\PSoC5/CyLib.c ****         break;
 435:.\Generated_Source\PSoC5/CyLib.c **** 
 436:.\Generated_Source\PSoC5/CyLib.c ****     case CY_IMO_FREQ_48MHZ:
 437:.\Generated_Source\PSoC5/CyLib.c ****         CY_LIB_IMO_TR1_REG = CY_GET_XTND_REG8(CY_LIB_TRIM_IMO_TR1_PTR);
 438:.\Generated_Source\PSoC5/CyLib.c ****         break;
 439:.\Generated_Source\PSoC5/CyLib.c **** 
 440:.\Generated_Source\PSoC5/CyLib.c ****     case CY_IMO_FREQ_62MHZ:
 441:.\Generated_Source\PSoC5/CyLib.c ****         CY_LIB_IMO_TR1_REG = CY_GET_XTND_REG8(CY_LIB_TRIM_IMO_67MHZ_PTR);
 442:.\Generated_Source\PSoC5/CyLib.c ****         break;
 443:.\Generated_Source\PSoC5/CyLib.c **** 
 444:.\Generated_Source\PSoC5/CyLib.c **** #if(CY_PSOC5)
 445:.\Generated_Source\PSoC5/CyLib.c ****     case CY_IMO_FREQ_74MHZ:
 446:.\Generated_Source\PSoC5/CyLib.c ****         CY_LIB_IMO_TR1_REG = CY_GET_XTND_REG8(CY_LIB_TRIM_IMO_80MHZ_PTR);
 447:.\Generated_Source\PSoC5/CyLib.c ****         break;
 448:.\Generated_Source\PSoC5/CyLib.c **** #endif  /* (CY_PSOC5) */
 449:.\Generated_Source\PSoC5/CyLib.c **** 
 450:.\Generated_Source\PSoC5/CyLib.c ****     case CY_IMO_FREQ_USB:
 451:.\Generated_Source\PSoC5/CyLib.c ****         CY_LIB_IMO_TR1_REG = CY_GET_XTND_REG8(CY_LIB_TRIM_IMO_USB_PTR);
 452:.\Generated_Source\PSoC5/CyLib.c **** 
 453:.\Generated_Source\PSoC5/CyLib.c ****         /* If USB is powered */
 454:.\Generated_Source\PSoC5/CyLib.c ****         if(usbPowerOn == 1u)
 455:.\Generated_Source\PSoC5/CyLib.c ****         {
 456:.\Generated_Source\PSoC5/CyLib.c ****             /* Lock USB Oscillator */
 457:.\Generated_Source\PSoC5/CyLib.c ****             CY_LIB_USB_CR1_REG |= CY_LIB_USB_CLK_EN;
 458:.\Generated_Source\PSoC5/CyLib.c ****         }
 459:.\Generated_Source\PSoC5/CyLib.c ****         break;
 460:.\Generated_Source\PSoC5/CyLib.c **** 
 461:.\Generated_Source\PSoC5/CyLib.c ****     default:
 462:.\Generated_Source\PSoC5/CyLib.c ****             CYASSERT(0u != 0u);
 463:.\Generated_Source\PSoC5/CyLib.c ****         break;
 464:.\Generated_Source\PSoC5/CyLib.c ****     }
 465:.\Generated_Source\PSoC5/CyLib.c **** 
 466:.\Generated_Source\PSoC5/CyLib.c **** }
 467:.\Generated_Source\PSoC5/CyLib.c **** 
 468:.\Generated_Source\PSoC5/CyLib.c **** 
 469:.\Generated_Source\PSoC5/CyLib.c **** /*******************************************************************************
 470:.\Generated_Source\PSoC5/CyLib.c **** * Function Name: CyIMO_SetFreq
 471:.\Generated_Source\PSoC5/CyLib.c **** ********************************************************************************
 472:.\Generated_Source\PSoC5/CyLib.c **** *
 473:.\Generated_Source\PSoC5/CyLib.c **** * Summary:
 474:.\Generated_Source\PSoC5/CyLib.c **** *  Sets the frequency of the IMO. Changes may be made while the IMO is running.
 475:.\Generated_Source\PSoC5/CyLib.c **** *
 476:.\Generated_Source\PSoC5/CyLib.c **** * Parameters:
ARM GAS  C:\Users\cps\AppData\Local\Temp\ccxVhvgg.s 			page 11


 477:.\Generated_Source\PSoC5/CyLib.c **** *  freq: Frequency of IMO operation
 478:.\Generated_Source\PSoC5/CyLib.c **** *       CY_IMO_FREQ_3MHZ  to set  3   MHz
 479:.\Generated_Source\PSoC5/CyLib.c **** *       CY_IMO_FREQ_6MHZ  to set  6   MHz
 480:.\Generated_Source\PSoC5/CyLib.c **** *       CY_IMO_FREQ_12MHZ to set 12   MHz
 481:.\Generated_Source\PSoC5/CyLib.c **** *       CY_IMO_FREQ_24MHZ to set 24   MHz
 482:.\Generated_Source\PSoC5/CyLib.c **** *       CY_IMO_FREQ_48MHZ to set 48   MHz
 483:.\Generated_Source\PSoC5/CyLib.c **** *       CY_IMO_FREQ_62MHZ to set 62.6 MHz
 484:.\Generated_Source\PSoC5/CyLib.c **** *       CY_IMO_FREQ_74MHZ to set 74.7 MHz (not applicable for PSoC 3)
 485:.\Generated_Source\PSoC5/CyLib.c **** *       CY_IMO_FREQ_USB   to set 24   MHz (Trimmed for USB operation)
 486:.\Generated_Source\PSoC5/CyLib.c **** *
 487:.\Generated_Source\PSoC5/CyLib.c **** * Return:
 488:.\Generated_Source\PSoC5/CyLib.c **** *  None
 489:.\Generated_Source\PSoC5/CyLib.c **** *
 490:.\Generated_Source\PSoC5/CyLib.c **** * Side Effects:
 491:.\Generated_Source\PSoC5/CyLib.c **** *  If this function execution results in the CPU clock frequency increasing,
 492:.\Generated_Source\PSoC5/CyLib.c **** *  then the number of clock cycles the cache will wait before it samples data
 493:.\Generated_Source\PSoC5/CyLib.c **** *  coming back from the Flash must be adjusted by calling
 494:.\Generated_Source\PSoC5/CyLib.c **** *  CyFlash_SetWaitCycles() with an appropriate parameter. It can be optionally
 495:.\Generated_Source\PSoC5/CyLib.c **** *  called if the CPU clock frequency is lowered in order to improve the CPU
 496:.\Generated_Source\PSoC5/CyLib.c **** *  performance. See CyFlash_SetWaitCycles() description for more information.
 497:.\Generated_Source\PSoC5/CyLib.c **** *
 498:.\Generated_Source\PSoC5/CyLib.c **** *  When the USB setting is chosen, the USB clock locking circuit is enabled.
 499:.\Generated_Source\PSoC5/CyLib.c **** *  Otherwise this circuit is disabled. The USB block must be powered before
 500:.\Generated_Source\PSoC5/CyLib.c **** *  selecting the USB setting.
 501:.\Generated_Source\PSoC5/CyLib.c **** *
 502:.\Generated_Source\PSoC5/CyLib.c **** *******************************************************************************/
 503:.\Generated_Source\PSoC5/CyLib.c **** void CyIMO_SetFreq(uint8 freq) 
 504:.\Generated_Source\PSoC5/CyLib.c **** {
 505:.\Generated_Source\PSoC5/CyLib.c ****     uint8 currentFreq;
 506:.\Generated_Source\PSoC5/CyLib.c ****     uint8 nextFreq;
 507:.\Generated_Source\PSoC5/CyLib.c **** 
 508:.\Generated_Source\PSoC5/CyLib.c ****     /***************************************************************************
 509:.\Generated_Source\PSoC5/CyLib.c ****     * If the IMO frequency is changed,the Trim values must also be set
 510:.\Generated_Source\PSoC5/CyLib.c ****     * accordingly.This requires reading the current frequency. If the new
 511:.\Generated_Source\PSoC5/CyLib.c ****     * frequency is faster, then set a new trim and then change the frequency,
 512:.\Generated_Source\PSoC5/CyLib.c ****     * otherwise change the frequency and then set new trim values.
 513:.\Generated_Source\PSoC5/CyLib.c ****     ***************************************************************************/
 514:.\Generated_Source\PSoC5/CyLib.c **** 
 515:.\Generated_Source\PSoC5/CyLib.c ****     currentFreq = CY_LIB_FASTCLK_IMO_CR_REG & ((uint8)(~CY_LIB_FASTCLK_IMO_CR_RANGE_MASK));
 516:.\Generated_Source\PSoC5/CyLib.c **** 
 517:.\Generated_Source\PSoC5/CyLib.c ****     /* Check if requested frequency is USB. */
 518:.\Generated_Source\PSoC5/CyLib.c ****     nextFreq = (freq == CY_IMO_FREQ_USB) ? CY_IMO_FREQ_24MHZ : freq;
 519:.\Generated_Source\PSoC5/CyLib.c **** 
 520:.\Generated_Source\PSoC5/CyLib.c ****     switch (currentFreq)
 521:.\Generated_Source\PSoC5/CyLib.c ****     {
 522:.\Generated_Source\PSoC5/CyLib.c ****     case 0u:
 523:.\Generated_Source\PSoC5/CyLib.c ****         currentFreq = CY_IMO_FREQ_12MHZ;
 524:.\Generated_Source\PSoC5/CyLib.c ****         break;
 525:.\Generated_Source\PSoC5/CyLib.c **** 
 526:.\Generated_Source\PSoC5/CyLib.c ****     case 1u:
 527:.\Generated_Source\PSoC5/CyLib.c ****         currentFreq = CY_IMO_FREQ_6MHZ;
 528:.\Generated_Source\PSoC5/CyLib.c ****         break;
 529:.\Generated_Source\PSoC5/CyLib.c **** 
 530:.\Generated_Source\PSoC5/CyLib.c ****     case 2u:
 531:.\Generated_Source\PSoC5/CyLib.c ****         currentFreq = CY_IMO_FREQ_24MHZ;
 532:.\Generated_Source\PSoC5/CyLib.c ****         break;
 533:.\Generated_Source\PSoC5/CyLib.c **** 
ARM GAS  C:\Users\cps\AppData\Local\Temp\ccxVhvgg.s 			page 12


 534:.\Generated_Source\PSoC5/CyLib.c ****     case 3u:
 535:.\Generated_Source\PSoC5/CyLib.c ****         currentFreq = CY_IMO_FREQ_3MHZ;
 536:.\Generated_Source\PSoC5/CyLib.c ****         break;
 537:.\Generated_Source\PSoC5/CyLib.c **** 
 538:.\Generated_Source\PSoC5/CyLib.c ****     case 4u:
 539:.\Generated_Source\PSoC5/CyLib.c ****         currentFreq = CY_IMO_FREQ_48MHZ;
 540:.\Generated_Source\PSoC5/CyLib.c ****         break;
 541:.\Generated_Source\PSoC5/CyLib.c **** 
 542:.\Generated_Source\PSoC5/CyLib.c ****     case 5u:
 543:.\Generated_Source\PSoC5/CyLib.c ****         currentFreq = CY_IMO_FREQ_62MHZ;
 544:.\Generated_Source\PSoC5/CyLib.c ****         break;
 545:.\Generated_Source\PSoC5/CyLib.c **** 
 546:.\Generated_Source\PSoC5/CyLib.c **** #if(CY_PSOC5)
 547:.\Generated_Source\PSoC5/CyLib.c ****     case 6u:
 548:.\Generated_Source\PSoC5/CyLib.c ****         currentFreq = CY_IMO_FREQ_74MHZ;
 549:.\Generated_Source\PSoC5/CyLib.c ****         break;
 550:.\Generated_Source\PSoC5/CyLib.c **** #endif  /* (CY_PSOC5) */
 551:.\Generated_Source\PSoC5/CyLib.c **** 
 552:.\Generated_Source\PSoC5/CyLib.c ****     default:
 553:.\Generated_Source\PSoC5/CyLib.c ****         CYASSERT(0u != 0u);
 554:.\Generated_Source\PSoC5/CyLib.c ****         break;
 555:.\Generated_Source\PSoC5/CyLib.c ****     }
 556:.\Generated_Source\PSoC5/CyLib.c **** 
 557:.\Generated_Source\PSoC5/CyLib.c ****     if (nextFreq >= currentFreq)
 558:.\Generated_Source\PSoC5/CyLib.c ****     {
 559:.\Generated_Source\PSoC5/CyLib.c ****         /* Set new trim first */
 560:.\Generated_Source\PSoC5/CyLib.c ****         CyIMO_SetTrimValue(freq);
 561:.\Generated_Source\PSoC5/CyLib.c ****     }
 562:.\Generated_Source\PSoC5/CyLib.c **** 
 563:.\Generated_Source\PSoC5/CyLib.c ****     /* Set usbclk_on bit when using CY_IMO_FREQ_USB, if not clear it */
 564:.\Generated_Source\PSoC5/CyLib.c ****     switch(freq)
 565:.\Generated_Source\PSoC5/CyLib.c ****     {
 566:.\Generated_Source\PSoC5/CyLib.c ****     case CY_IMO_FREQ_3MHZ:
 567:.\Generated_Source\PSoC5/CyLib.c ****         CY_LIB_FASTCLK_IMO_CR_REG = ((CY_LIB_FASTCLK_IMO_CR_REG & CY_LIB_FASTCLK_IMO_CR_RANGE_MASK)
 568:.\Generated_Source\PSoC5/CyLib.c ****             CY_LIB_IMO_3MHZ_VALUE) & ((uint8)(~CY_LIB_IMO_USBCLK_ON_SET));
 569:.\Generated_Source\PSoC5/CyLib.c ****         break;
 570:.\Generated_Source\PSoC5/CyLib.c **** 
 571:.\Generated_Source\PSoC5/CyLib.c ****     case CY_IMO_FREQ_6MHZ:
 572:.\Generated_Source\PSoC5/CyLib.c ****         CY_LIB_FASTCLK_IMO_CR_REG = ((CY_LIB_FASTCLK_IMO_CR_REG & CY_LIB_FASTCLK_IMO_CR_RANGE_MASK)
 573:.\Generated_Source\PSoC5/CyLib.c ****             CY_LIB_IMO_6MHZ_VALUE) & ((uint8)(~CY_LIB_IMO_USBCLK_ON_SET));
 574:.\Generated_Source\PSoC5/CyLib.c ****         break;
 575:.\Generated_Source\PSoC5/CyLib.c **** 
 576:.\Generated_Source\PSoC5/CyLib.c ****     case CY_IMO_FREQ_12MHZ:
 577:.\Generated_Source\PSoC5/CyLib.c ****         CY_LIB_FASTCLK_IMO_CR_REG = ((CY_LIB_FASTCLK_IMO_CR_REG & CY_LIB_FASTCLK_IMO_CR_RANGE_MASK)
 578:.\Generated_Source\PSoC5/CyLib.c ****             CY_LIB_IMO_12MHZ_VALUE) & ((uint8)(~CY_LIB_IMO_USBCLK_ON_SET));
 579:.\Generated_Source\PSoC5/CyLib.c ****         break;
 580:.\Generated_Source\PSoC5/CyLib.c **** 
 581:.\Generated_Source\PSoC5/CyLib.c ****     case CY_IMO_FREQ_24MHZ:
 582:.\Generated_Source\PSoC5/CyLib.c ****         CY_LIB_FASTCLK_IMO_CR_REG = ((CY_LIB_FASTCLK_IMO_CR_REG & CY_LIB_FASTCLK_IMO_CR_RANGE_MASK)
 583:.\Generated_Source\PSoC5/CyLib.c ****             CY_LIB_IMO_24MHZ_VALUE) & ((uint8)(~CY_LIB_IMO_USBCLK_ON_SET));
 584:.\Generated_Source\PSoC5/CyLib.c ****         break;
 585:.\Generated_Source\PSoC5/CyLib.c **** 
 586:.\Generated_Source\PSoC5/CyLib.c ****     case CY_IMO_FREQ_48MHZ:
 587:.\Generated_Source\PSoC5/CyLib.c ****         CY_LIB_FASTCLK_IMO_CR_REG = ((CY_LIB_FASTCLK_IMO_CR_REG & CY_LIB_FASTCLK_IMO_CR_RANGE_MASK)
 588:.\Generated_Source\PSoC5/CyLib.c ****             CY_LIB_IMO_48MHZ_VALUE) & ((uint8)(~CY_LIB_IMO_USBCLK_ON_SET));
 589:.\Generated_Source\PSoC5/CyLib.c ****         break;
 590:.\Generated_Source\PSoC5/CyLib.c **** 
ARM GAS  C:\Users\cps\AppData\Local\Temp\ccxVhvgg.s 			page 13


 591:.\Generated_Source\PSoC5/CyLib.c ****     case CY_IMO_FREQ_62MHZ:
 592:.\Generated_Source\PSoC5/CyLib.c ****         CY_LIB_FASTCLK_IMO_CR_REG = ((CY_LIB_FASTCLK_IMO_CR_REG & CY_LIB_FASTCLK_IMO_CR_RANGE_MASK)
 593:.\Generated_Source\PSoC5/CyLib.c ****             CY_LIB_IMO_62MHZ_VALUE) & ((uint8)(~CY_LIB_IMO_USBCLK_ON_SET));
 594:.\Generated_Source\PSoC5/CyLib.c ****         break;
 595:.\Generated_Source\PSoC5/CyLib.c **** 
 596:.\Generated_Source\PSoC5/CyLib.c **** #if(CY_PSOC5)
 597:.\Generated_Source\PSoC5/CyLib.c ****     case CY_IMO_FREQ_74MHZ:
 598:.\Generated_Source\PSoC5/CyLib.c ****         CY_LIB_FASTCLK_IMO_CR_REG = ((CY_LIB_FASTCLK_IMO_CR_REG & CY_LIB_FASTCLK_IMO_CR_RANGE_MASK)
 599:.\Generated_Source\PSoC5/CyLib.c ****             CY_LIB_IMO_74MHZ_VALUE) & ((uint8)(~CY_LIB_IMO_USBCLK_ON_SET));
 600:.\Generated_Source\PSoC5/CyLib.c ****         break;
 601:.\Generated_Source\PSoC5/CyLib.c **** #endif  /* (CY_PSOC5) */
 602:.\Generated_Source\PSoC5/CyLib.c **** 
 603:.\Generated_Source\PSoC5/CyLib.c ****     case CY_IMO_FREQ_USB:
 604:.\Generated_Source\PSoC5/CyLib.c ****         CY_LIB_FASTCLK_IMO_CR_REG = ((CY_LIB_FASTCLK_IMO_CR_REG & CY_LIB_FASTCLK_IMO_CR_RANGE_MASK)
 605:.\Generated_Source\PSoC5/CyLib.c ****             CY_LIB_IMO_24MHZ_VALUE) | CY_LIB_IMO_USBCLK_ON_SET;
 606:.\Generated_Source\PSoC5/CyLib.c ****         break;
 607:.\Generated_Source\PSoC5/CyLib.c **** 
 608:.\Generated_Source\PSoC5/CyLib.c ****     default:
 609:.\Generated_Source\PSoC5/CyLib.c ****         CYASSERT(0u != 0u);
 610:.\Generated_Source\PSoC5/CyLib.c ****         break;
 611:.\Generated_Source\PSoC5/CyLib.c ****     }
 612:.\Generated_Source\PSoC5/CyLib.c **** 
 613:.\Generated_Source\PSoC5/CyLib.c ****     /* Tu rn onIMO Doubler, if switching to CY_IMO_FREQ_USB */
 614:.\Generated_Source\PSoC5/CyLib.c ****     if (freq == CY_IMO_FREQ_USB)
 615:.\Generated_Source\PSoC5/CyLib.c ****     {
 616:.\Generated_Source\PSoC5/CyLib.c ****         CyIMO_EnableDoubler();
 617:.\Generated_Source\PSoC5/CyLib.c ****     }
 618:.\Generated_Source\PSoC5/CyLib.c ****     else
 619:.\Generated_Source\PSoC5/CyLib.c ****     {
 620:.\Generated_Source\PSoC5/CyLib.c ****         CyIMO_DisableDoubler();
 621:.\Generated_Source\PSoC5/CyLib.c ****     }
 622:.\Generated_Source\PSoC5/CyLib.c **** 
 623:.\Generated_Source\PSoC5/CyLib.c ****     if (nextFreq < currentFreq)
 624:.\Generated_Source\PSoC5/CyLib.c ****     {
 625:.\Generated_Source\PSoC5/CyLib.c ****         /* Set the trim after setting frequency */
 626:.\Generated_Source\PSoC5/CyLib.c ****         CyIMO_SetTrimValue(freq);
 627:.\Generated_Source\PSoC5/CyLib.c ****     }
 628:.\Generated_Source\PSoC5/CyLib.c **** }
 629:.\Generated_Source\PSoC5/CyLib.c **** 
 630:.\Generated_Source\PSoC5/CyLib.c **** 
 631:.\Generated_Source\PSoC5/CyLib.c **** /*******************************************************************************
 632:.\Generated_Source\PSoC5/CyLib.c **** * Function Name: CyIMO_SetSource
 633:.\Generated_Source\PSoC5/CyLib.c **** ********************************************************************************
 634:.\Generated_Source\PSoC5/CyLib.c **** *
 635:.\Generated_Source\PSoC5/CyLib.c **** * Summary:
 636:.\Generated_Source\PSoC5/CyLib.c **** *  Sets the source of the clock output from the IMO block.
 637:.\Generated_Source\PSoC5/CyLib.c **** *
 638:.\Generated_Source\PSoC5/CyLib.c **** *  The output from the IMO is by default the IMO itself. Optionally the MHz
 639:.\Generated_Source\PSoC5/CyLib.c **** *  Crystal or DSI input can be the source of the IMO output instead.
 640:.\Generated_Source\PSoC5/CyLib.c **** *
 641:.\Generated_Source\PSoC5/CyLib.c **** * Parameters:
 642:.\Generated_Source\PSoC5/CyLib.c **** *   source: CY_IMO_SOURCE_DSI to set the DSI as source.
 643:.\Generated_Source\PSoC5/CyLib.c **** *           CY_IMO_SOURCE_XTAL to set the MHz as source.
 644:.\Generated_Source\PSoC5/CyLib.c **** *           CY_IMO_SOURCE_IMO to set the IMO itself.
 645:.\Generated_Source\PSoC5/CyLib.c **** *
 646:.\Generated_Source\PSoC5/CyLib.c **** * Return:
 647:.\Generated_Source\PSoC5/CyLib.c **** *  None
ARM GAS  C:\Users\cps\AppData\Local\Temp\ccxVhvgg.s 			page 14


 648:.\Generated_Source\PSoC5/CyLib.c **** *
 649:.\Generated_Source\PSoC5/CyLib.c **** * Side Effects:
 650:.\Generated_Source\PSoC5/CyLib.c **** *  If this function execution resulted in the CPU clock frequency increasing,
 651:.\Generated_Source\PSoC5/CyLib.c **** *  then the number of clock cycles the cache will wait before it samples data
 652:.\Generated_Source\PSoC5/CyLib.c **** *  coming back from the Flash must be adjusted by calling
 653:.\Generated_Source\PSoC5/CyLib.c **** *  CyFlash_SetWaitCycles() with an appropriate parameter. It can be optionally
 654:.\Generated_Source\PSoC5/CyLib.c **** *  called if the CPU clock frequency is lowered in order to improve the CPU
 655:.\Generated_Source\PSoC5/CyLib.c **** *  performance. See CyFlash_SetWaitCycles() description for more information.
 656:.\Generated_Source\PSoC5/CyLib.c **** *
 657:.\Generated_Source\PSoC5/CyLib.c **** *******************************************************************************/
 658:.\Generated_Source\PSoC5/CyLib.c **** void CyIMO_SetSource(uint8 source) 
 659:.\Generated_Source\PSoC5/CyLib.c **** {
 660:.\Generated_Source\PSoC5/CyLib.c ****     switch(source)
 661:.\Generated_Source\PSoC5/CyLib.c ****     {
 662:.\Generated_Source\PSoC5/CyLib.c ****     case CY_IMO_SOURCE_DSI:
 663:.\Generated_Source\PSoC5/CyLib.c ****         CY_LIB_CLKDIST_CR_REG     &= ((uint8)(~CY_LIB_CLKDIST_CR_IMO2X));
 664:.\Generated_Source\PSoC5/CyLib.c ****         CY_LIB_FASTCLK_IMO_CR_REG |= CY_LIB_FASTCLK_IMO_IMO;
 665:.\Generated_Source\PSoC5/CyLib.c ****         break;
 666:.\Generated_Source\PSoC5/CyLib.c **** 
 667:.\Generated_Source\PSoC5/CyLib.c ****     case CY_IMO_SOURCE_XTAL:
 668:.\Generated_Source\PSoC5/CyLib.c ****         CY_LIB_CLKDIST_CR_REG     |= CY_LIB_CLKDIST_CR_IMO2X;
 669:.\Generated_Source\PSoC5/CyLib.c ****         CY_LIB_FASTCLK_IMO_CR_REG |= CY_LIB_FASTCLK_IMO_IMO;
 670:.\Generated_Source\PSoC5/CyLib.c ****         break;
 671:.\Generated_Source\PSoC5/CyLib.c **** 
 672:.\Generated_Source\PSoC5/CyLib.c ****     case CY_IMO_SOURCE_IMO:
 673:.\Generated_Source\PSoC5/CyLib.c ****         CY_LIB_FASTCLK_IMO_CR_REG &= ((uint8)(~CY_LIB_FASTCLK_IMO_IMO));
 674:.\Generated_Source\PSoC5/CyLib.c ****         break;
 675:.\Generated_Source\PSoC5/CyLib.c **** 
 676:.\Generated_Source\PSoC5/CyLib.c ****     default:
 677:.\Generated_Source\PSoC5/CyLib.c ****         /* Incorrect source value */
 678:.\Generated_Source\PSoC5/CyLib.c ****         CYASSERT(0u != 0u);
 679:.\Generated_Source\PSoC5/CyLib.c ****         break;
 680:.\Generated_Source\PSoC5/CyLib.c ****     }
 681:.\Generated_Source\PSoC5/CyLib.c **** }
 682:.\Generated_Source\PSoC5/CyLib.c **** 
 683:.\Generated_Source\PSoC5/CyLib.c **** 
 684:.\Generated_Source\PSoC5/CyLib.c **** /*******************************************************************************
 685:.\Generated_Source\PSoC5/CyLib.c **** * Function Name: CyIMO_EnableDoubler
 686:.\Generated_Source\PSoC5/CyLib.c **** ********************************************************************************
 687:.\Generated_Source\PSoC5/CyLib.c **** *
 688:.\Generated_Source\PSoC5/CyLib.c **** * Summary:
 689:.\Generated_Source\PSoC5/CyLib.c **** *  Enables the IMO doubler.  The 2x frequency clock is used to convert a 24 MHz
 690:.\Generated_Source\PSoC5/CyLib.c **** *  input to a 48 MHz output for use by the USB block.
 691:.\Generated_Source\PSoC5/CyLib.c **** *
 692:.\Generated_Source\PSoC5/CyLib.c **** * Parameters:
 693:.\Generated_Source\PSoC5/CyLib.c **** *  None
 694:.\Generated_Source\PSoC5/CyLib.c **** *
 695:.\Generated_Source\PSoC5/CyLib.c **** * Return:
 696:.\Generated_Source\PSoC5/CyLib.c **** *  None
 697:.\Generated_Source\PSoC5/CyLib.c **** *
 698:.\Generated_Source\PSoC5/CyLib.c **** *******************************************************************************/
 699:.\Generated_Source\PSoC5/CyLib.c **** void CyIMO_EnableDoubler(void) 
 700:.\Generated_Source\PSoC5/CyLib.c **** {
 701:.\Generated_Source\PSoC5/CyLib.c ****     /* Set FASTCLK_IMO_CR_PTR regigster's 4th bit */
 702:.\Generated_Source\PSoC5/CyLib.c ****     CY_LIB_FASTCLK_IMO_CR_REG |= CY_LIB_FASTCLK_IMO_DOUBLER;
 703:.\Generated_Source\PSoC5/CyLib.c **** }
 704:.\Generated_Source\PSoC5/CyLib.c **** 
ARM GAS  C:\Users\cps\AppData\Local\Temp\ccxVhvgg.s 			page 15


 705:.\Generated_Source\PSoC5/CyLib.c **** 
 706:.\Generated_Source\PSoC5/CyLib.c **** /*******************************************************************************
 707:.\Generated_Source\PSoC5/CyLib.c **** * Function Name: CyIMO_DisableDoubler
 708:.\Generated_Source\PSoC5/CyLib.c **** ********************************************************************************
 709:.\Generated_Source\PSoC5/CyLib.c **** *
 710:.\Generated_Source\PSoC5/CyLib.c **** * Summary:
 711:.\Generated_Source\PSoC5/CyLib.c **** *   Disables the IMO doubler.
 712:.\Generated_Source\PSoC5/CyLib.c **** *
 713:.\Generated_Source\PSoC5/CyLib.c **** * Parameters:
 714:.\Generated_Source\PSoC5/CyLib.c **** *  None
 715:.\Generated_Source\PSoC5/CyLib.c **** *
 716:.\Generated_Source\PSoC5/CyLib.c **** * Return:
 717:.\Generated_Source\PSoC5/CyLib.c **** *  None
 718:.\Generated_Source\PSoC5/CyLib.c **** *
 719:.\Generated_Source\PSoC5/CyLib.c **** *******************************************************************************/
 720:.\Generated_Source\PSoC5/CyLib.c **** void CyIMO_DisableDoubler(void) 
 721:.\Generated_Source\PSoC5/CyLib.c **** {
 722:.\Generated_Source\PSoC5/CyLib.c ****     CY_LIB_FASTCLK_IMO_CR_REG &= ((uint8)(~CY_LIB_FASTCLK_IMO_DOUBLER));
 723:.\Generated_Source\PSoC5/CyLib.c **** }
 724:.\Generated_Source\PSoC5/CyLib.c **** 
 725:.\Generated_Source\PSoC5/CyLib.c **** 
 726:.\Generated_Source\PSoC5/CyLib.c **** /*******************************************************************************
 727:.\Generated_Source\PSoC5/CyLib.c **** * Function Name: CyMasterClk_SetSource
 728:.\Generated_Source\PSoC5/CyLib.c **** ********************************************************************************
 729:.\Generated_Source\PSoC5/CyLib.c **** *
 730:.\Generated_Source\PSoC5/CyLib.c **** * Summary:
 731:.\Generated_Source\PSoC5/CyLib.c **** *  Sets the source of the master clock.
 732:.\Generated_Source\PSoC5/CyLib.c **** *
 733:.\Generated_Source\PSoC5/CyLib.c **** * Parameters:
 734:.\Generated_Source\PSoC5/CyLib.c **** *   source: One of the four available Master clock sources.
 735:.\Generated_Source\PSoC5/CyLib.c **** *     CY_MASTER_SOURCE_IMO
 736:.\Generated_Source\PSoC5/CyLib.c **** *     CY_MASTER_SOURCE_PLL
 737:.\Generated_Source\PSoC5/CyLib.c **** *     CY_MASTER_SOURCE_XTAL
 738:.\Generated_Source\PSoC5/CyLib.c **** *     CY_MASTER_SOURCE_DSI
 739:.\Generated_Source\PSoC5/CyLib.c **** *
 740:.\Generated_Source\PSoC5/CyLib.c **** * Return:
 741:.\Generated_Source\PSoC5/CyLib.c **** *  None
 742:.\Generated_Source\PSoC5/CyLib.c **** *
 743:.\Generated_Source\PSoC5/CyLib.c **** * Side Effects:
 744:.\Generated_Source\PSoC5/CyLib.c **** *  The current source and the new source must both be running and stable before
 745:.\Generated_Source\PSoC5/CyLib.c **** *  calling this function.
 746:.\Generated_Source\PSoC5/CyLib.c **** *
 747:.\Generated_Source\PSoC5/CyLib.c **** *  If this function execution resulted in the CPU clock frequency increasing,
 748:.\Generated_Source\PSoC5/CyLib.c **** *  then the number of clock cycles the cache will wait before it samples data
 749:.\Generated_Source\PSoC5/CyLib.c **** *  coming back from the Flash must be adjusted by calling
 750:.\Generated_Source\PSoC5/CyLib.c **** *  CyFlash_SetWaitCycles() with an appropriate parameter. It can be optionally
 751:.\Generated_Source\PSoC5/CyLib.c **** *  called if the CPU clock frequency is lowered in order to improve the CPU
 752:.\Generated_Source\PSoC5/CyLib.c **** *  performance. See CyFlash_SetWaitCycles() description for more information.
 753:.\Generated_Source\PSoC5/CyLib.c **** *
 754:.\Generated_Source\PSoC5/CyLib.c **** *******************************************************************************/
 755:.\Generated_Source\PSoC5/CyLib.c **** void CyMasterClk_SetSource(uint8 source) 
 756:.\Generated_Source\PSoC5/CyLib.c **** {
 757:.\Generated_Source\PSoC5/CyLib.c ****     CY_LIB_CLKDIST_MSTR1_REG = (CY_LIB_CLKDIST_MSTR1_REG & MASTER_CLK_SRC_CLEAR) |
 758:.\Generated_Source\PSoC5/CyLib.c ****                                 (source & ((uint8)(~MASTER_CLK_SRC_CLEAR)));
 759:.\Generated_Source\PSoC5/CyLib.c **** }
 760:.\Generated_Source\PSoC5/CyLib.c **** 
 761:.\Generated_Source\PSoC5/CyLib.c **** 
ARM GAS  C:\Users\cps\AppData\Local\Temp\ccxVhvgg.s 			page 16


 762:.\Generated_Source\PSoC5/CyLib.c **** /*******************************************************************************
 763:.\Generated_Source\PSoC5/CyLib.c **** * Function Name: CyMasterClk_SetDivider
 764:.\Generated_Source\PSoC5/CyLib.c **** ********************************************************************************
 765:.\Generated_Source\PSoC5/CyLib.c **** *
 766:.\Generated_Source\PSoC5/CyLib.c **** * Summary:
 767:.\Generated_Source\PSoC5/CyLib.c **** *  Sets the divider value used to generate Master Clock.
 768:.\Generated_Source\PSoC5/CyLib.c **** *
 769:.\Generated_Source\PSoC5/CyLib.c **** * Parameters:
 770:.\Generated_Source\PSoC5/CyLib.c **** *  uint8 divider:
 771:.\Generated_Source\PSoC5/CyLib.c **** *   The valid range is [0-255]. The clock will be divided by this value + 1.
 772:.\Generated_Source\PSoC5/CyLib.c **** *   For example to divide this parameter by two should be set to 1.
 773:.\Generated_Source\PSoC5/CyLib.c **** *
 774:.\Generated_Source\PSoC5/CyLib.c **** * Return:
 775:.\Generated_Source\PSoC5/CyLib.c **** *  None
 776:.\Generated_Source\PSoC5/CyLib.c **** *
 777:.\Generated_Source\PSoC5/CyLib.c **** * Side Effects:
 778:.\Generated_Source\PSoC5/CyLib.c **** *  If this function execution resulted in the CPU clock frequency increasing,
 779:.\Generated_Source\PSoC5/CyLib.c **** *  then the number of clock cycles the cache will wait before it samples data
 780:.\Generated_Source\PSoC5/CyLib.c **** *  coming back from the Flash must be adjusted by calling
 781:.\Generated_Source\PSoC5/CyLib.c **** *  CyFlash_SetWaitCycles() with an appropriate parameter. It can be optionally
 782:.\Generated_Source\PSoC5/CyLib.c **** *  called if the CPU clock frequency is lowered in order to improve the CPU
 783:.\Generated_Source\PSoC5/CyLib.c **** *  performance. See CyFlash_SetWaitCycles() description for more information.
 784:.\Generated_Source\PSoC5/CyLib.c **** *
 785:.\Generated_Source\PSoC5/CyLib.c **** *  When changing the Master or Bus clock divider value from div-by-n to div-by-1
 786:.\Generated_Source\PSoC5/CyLib.c **** *  the first clock cycle output after the div-by-1 can be up to 4 ns shorter
 787:.\Generated_Source\PSoC5/CyLib.c **** *  than the final/expected div-by-1 period.
 788:.\Generated_Source\PSoC5/CyLib.c **** *
 789:.\Generated_Source\PSoC5/CyLib.c **** *******************************************************************************/
 790:.\Generated_Source\PSoC5/CyLib.c **** void CyMasterClk_SetDivider(uint8 divider) 
 791:.\Generated_Source\PSoC5/CyLib.c **** {
 792:.\Generated_Source\PSoC5/CyLib.c ****     CY_LIB_CLKDIST_MSTR0_REG = divider;
 793:.\Generated_Source\PSoC5/CyLib.c **** }
 794:.\Generated_Source\PSoC5/CyLib.c **** 
 795:.\Generated_Source\PSoC5/CyLib.c **** 
 796:.\Generated_Source\PSoC5/CyLib.c **** /*******************************************************************************
 797:.\Generated_Source\PSoC5/CyLib.c **** * Function Name: CyBusClk_Internal_SetDivider
 798:.\Generated_Source\PSoC5/CyLib.c **** ********************************************************************************
 799:.\Generated_Source\PSoC5/CyLib.c **** *
 800:.\Generated_Source\PSoC5/CyLib.c **** * Summary:
 801:.\Generated_Source\PSoC5/CyLib.c **** *  The function used by CyBusClk_SetDivider(). For internal use only.
 802:.\Generated_Source\PSoC5/CyLib.c **** *
 803:.\Generated_Source\PSoC5/CyLib.c **** * Parameters:
 804:.\Generated_Source\PSoC5/CyLib.c **** *   divider: Valid range [0-65535].
 805:.\Generated_Source\PSoC5/CyLib.c **** *   The clock will be divided by this value + 1.
 806:.\Generated_Source\PSoC5/CyLib.c **** *   For example, to divide this parameter by two should be set to 1.
 807:.\Generated_Source\PSoC5/CyLib.c **** *
 808:.\Generated_Source\PSoC5/CyLib.c **** * Return:
 809:.\Generated_Source\PSoC5/CyLib.c **** *  None
 810:.\Generated_Source\PSoC5/CyLib.c **** *
 811:.\Generated_Source\PSoC5/CyLib.c **** *******************************************************************************/
 812:.\Generated_Source\PSoC5/CyLib.c **** static void CyBusClk_Internal_SetDivider(uint16 divider)
 813:.\Generated_Source\PSoC5/CyLib.c **** {
  90              		.loc 1 813 0
  91              		.cfi_startproc
  92              		@ args = 0, pretend = 0, frame = 0
  93              		@ frame_needed = 0, uses_anonymous_args = 0
  94              		@ link register save eliminated.
ARM GAS  C:\Users\cps\AppData\Local\Temp\ccxVhvgg.s 			page 17


  95              	.LVL2:
 814:.\Generated_Source\PSoC5/CyLib.c ****     /* Mask bits to enable shadow loads  */
 815:.\Generated_Source\PSoC5/CyLib.c ****     CY_LIB_CLKDIST_AMASK_REG &= CY_LIB_CLKDIST_AMASK_MASK;
  96              		.loc 1 815 0
  97 0000 0C4A     		ldr	r2, .L10
  98 0002 1378     		ldrb	r3, [r2]	@ zero_extendqisi2
  99 0004 03F0F003 		and	r3, r3, #240
 100 0008 1370     		strb	r3, [r2]
 816:.\Generated_Source\PSoC5/CyLib.c ****     CY_LIB_CLKDIST_DMASK_REG  = CY_LIB_CLKDIST_DMASK_MASK;
 101              		.loc 1 816 0
 102 000a 0022     		movs	r2, #0
 103 000c 0A4B     		ldr	r3, .L10+4
 104 000e 1A70     		strb	r2, [r3]
 817:.\Generated_Source\PSoC5/CyLib.c **** 
 818:.\Generated_Source\PSoC5/CyLib.c ****     /* Enable mask bits to enable shadow loads */
 819:.\Generated_Source\PSoC5/CyLib.c ****     CY_LIB_CLKDIST_BCFG2_REG |= CY_LIB_CLKDIST_BCFG2_MASK;
 105              		.loc 1 819 0
 106 0010 0A4A     		ldr	r2, .L10+8
 107 0012 1378     		ldrb	r3, [r2]	@ zero_extendqisi2
 108 0014 43F08003 		orr	r3, r3, #128
 109 0018 1370     		strb	r3, [r2]
 820:.\Generated_Source\PSoC5/CyLib.c **** 
 821:.\Generated_Source\PSoC5/CyLib.c ****     /* Update Shadow Divider Value Register with new divider */
 822:.\Generated_Source\PSoC5/CyLib.c ****     CY_LIB_CLKDIST_WRK_LSB_REG = LO8(divider);
 110              		.loc 1 822 0
 111 001a C2B2     		uxtb	r2, r0
 112 001c 084B     		ldr	r3, .L10+12
 113 001e 1A70     		strb	r2, [r3]
 823:.\Generated_Source\PSoC5/CyLib.c ****     CY_LIB_CLKDIST_WRK_MSB_REG = HI8(divider);
 114              		.loc 1 823 0
 115 0020 000A     		lsrs	r0, r0, #8
 116              	.LVL3:
 117 0022 0133     		adds	r3, r3, #1
 118 0024 1870     		strb	r0, [r3]
 824:.\Generated_Source\PSoC5/CyLib.c **** 
 825:.\Generated_Source\PSoC5/CyLib.c **** 
 826:.\Generated_Source\PSoC5/CyLib.c ****     /***************************************************************************
 827:.\Generated_Source\PSoC5/CyLib.c ****     * Copy shadow value defined in Shadow Divider Value Register
 828:.\Generated_Source\PSoC5/CyLib.c ****     * (CY_LIB_CLKDIST_WRK_LSB_REG and CY_LIB_CLKDIST_WRK_MSB_REG) to all
 829:.\Generated_Source\PSoC5/CyLib.c ****     * dividers selected in Analog and Digital Clock Mask Registers
 830:.\Generated_Source\PSoC5/CyLib.c ****     * (CY_LIB_CLKDIST_AMASK_REG and CY_LIB_CLKDIST_DMASK_REG).
 831:.\Generated_Source\PSoC5/CyLib.c ****     ***************************************************************************/
 832:.\Generated_Source\PSoC5/CyLib.c ****     CY_LIB_CLKDIST_LD_REG |= CY_LIB_CLKDIST_LD_LOAD;
 119              		.loc 1 832 0
 120 0026 074A     		ldr	r2, .L10+16
 121 0028 1378     		ldrb	r3, [r2]	@ zero_extendqisi2
 122 002a 43F00103 		orr	r3, r3, #1
 123 002e 1370     		strb	r3, [r2]
 124 0030 7047     		bx	lr
 125              	.L11:
 126 0032 00BF     		.align	2
 127              	.L10:
 128 0034 14400040 		.word	1073758228
 129 0038 10400040 		.word	1073758224
 130 003c 08400040 		.word	1073758216
 131 0040 02400040 		.word	1073758210
 132 0044 01400040 		.word	1073758209
ARM GAS  C:\Users\cps\AppData\Local\Temp\ccxVhvgg.s 			page 18


 133              		.cfi_endproc
 134              	.LFE14:
 135              		.size	CyBusClk_Internal_SetDivider, .-CyBusClk_Internal_SetDivider
 136              		.section	.text.CyPLL_OUT_Stop,"ax",%progbits
 137              		.align	2
 138              		.global	CyPLL_OUT_Stop
 139              		.thumb
 140              		.thumb_func
 141              		.type	CyPLL_OUT_Stop, %function
 142              	CyPLL_OUT_Stop:
 143              	.LFB1:
 165:.\Generated_Source\PSoC5/CyLib.c ****     CY_CLK_PLL_CFG0_REG &= ((uint8)(~CY_CLK_PLL_ENABLE));
 144              		.loc 1 165 0
 145              		.cfi_startproc
 146              		@ args = 0, pretend = 0, frame = 0
 147              		@ frame_needed = 0, uses_anonymous_args = 0
 148              		@ link register save eliminated.
 166:.\Generated_Source\PSoC5/CyLib.c **** }
 149              		.loc 1 166 0
 150 0000 024A     		ldr	r2, .L13
 151 0002 1378     		ldrb	r3, [r2]	@ zero_extendqisi2
 152 0004 03F0FE03 		and	r3, r3, #254
 153 0008 1370     		strb	r3, [r2]
 154 000a 7047     		bx	lr
 155              	.L14:
 156              		.align	2
 157              	.L13:
 158 000c 20420040 		.word	1073758752
 159              		.cfi_endproc
 160              	.LFE1:
 161              		.size	CyPLL_OUT_Stop, .-CyPLL_OUT_Stop
 162              		.section	.text.CyIMO_Stop,"ax",%progbits
 163              		.align	2
 164              		.global	CyIMO_Stop
 165              		.thumb
 166              		.thumb_func
 167              		.type	CyIMO_Stop, %function
 168              	CyIMO_Stop:
 169              	.LFB5:
 357:.\Generated_Source\PSoC5/CyLib.c ****     CY_LIB_PM_ACT_CFG0_REG  &= ((uint8) (~CY_LIB_PM_ACT_CFG0_IMO_EN));
 170              		.loc 1 357 0
 171              		.cfi_startproc
 172              		@ args = 0, pretend = 0, frame = 0
 173              		@ frame_needed = 0, uses_anonymous_args = 0
 174              		@ link register save eliminated.
 358:.\Generated_Source\PSoC5/CyLib.c ****     CY_LIB_PM_STBY_CFG0_REG &= ((uint8) (~CY_LIB_PM_STBY_CFG0_IMO_EN));
 175              		.loc 1 358 0
 176 0000 054A     		ldr	r2, .L16
 177 0002 1378     		ldrb	r3, [r2]	@ zero_extendqisi2
 178 0004 03F0EF03 		and	r3, r3, #239
 179 0008 1370     		strb	r3, [r2]
 359:.\Generated_Source\PSoC5/CyLib.c **** }
 180              		.loc 1 359 0
 181 000a 1032     		adds	r2, r2, #16
 182 000c 1378     		ldrb	r3, [r2]	@ zero_extendqisi2
 183 000e 03F0EF03 		and	r3, r3, #239
 184 0012 1370     		strb	r3, [r2]
ARM GAS  C:\Users\cps\AppData\Local\Temp\ccxVhvgg.s 			page 19


 185 0014 7047     		bx	lr
 186              	.L17:
 187 0016 00BF     		.align	2
 188              	.L16:
 189 0018 A0430040 		.word	1073759136
 190              		.cfi_endproc
 191              	.LFE5:
 192              		.size	CyIMO_Stop, .-CyIMO_Stop
 193              		.section	.text.CyIMO_EnableDoubler,"ax",%progbits
 194              		.align	2
 195              		.global	CyIMO_EnableDoubler
 196              		.thumb
 197              		.thumb_func
 198              		.type	CyIMO_EnableDoubler, %function
 199              	CyIMO_EnableDoubler:
 200              	.LFB10:
 700:.\Generated_Source\PSoC5/CyLib.c ****     /* Set FASTCLK_IMO_CR_PTR regigster's 4th bit */
 201              		.loc 1 700 0
 202              		.cfi_startproc
 203              		@ args = 0, pretend = 0, frame = 0
 204              		@ frame_needed = 0, uses_anonymous_args = 0
 205              		@ link register save eliminated.
 702:.\Generated_Source\PSoC5/CyLib.c **** }
 206              		.loc 1 702 0
 207 0000 024A     		ldr	r2, .L19
 208 0002 1378     		ldrb	r3, [r2]	@ zero_extendqisi2
 209 0004 43F01003 		orr	r3, r3, #16
 210 0008 1370     		strb	r3, [r2]
 211 000a 7047     		bx	lr
 212              	.L20:
 213              		.align	2
 214              	.L19:
 215 000c 00420040 		.word	1073758720
 216              		.cfi_endproc
 217              	.LFE10:
 218              		.size	CyIMO_EnableDoubler, .-CyIMO_EnableDoubler
 219              		.section	.text.CyIMO_DisableDoubler,"ax",%progbits
 220              		.align	2
 221              		.global	CyIMO_DisableDoubler
 222              		.thumb
 223              		.thumb_func
 224              		.type	CyIMO_DisableDoubler, %function
 225              	CyIMO_DisableDoubler:
 226              	.LFB11:
 721:.\Generated_Source\PSoC5/CyLib.c ****     CY_LIB_FASTCLK_IMO_CR_REG &= ((uint8)(~CY_LIB_FASTCLK_IMO_DOUBLER));
 227              		.loc 1 721 0
 228              		.cfi_startproc
 229              		@ args = 0, pretend = 0, frame = 0
 230              		@ frame_needed = 0, uses_anonymous_args = 0
 231              		@ link register save eliminated.
 722:.\Generated_Source\PSoC5/CyLib.c **** }
 232              		.loc 1 722 0
 233 0000 024A     		ldr	r2, .L22
 234 0002 1378     		ldrb	r3, [r2]	@ zero_extendqisi2
 235 0004 03F0EF03 		and	r3, r3, #239
 236 0008 1370     		strb	r3, [r2]
 237 000a 7047     		bx	lr
ARM GAS  C:\Users\cps\AppData\Local\Temp\ccxVhvgg.s 			page 20


 238              	.L23:
 239              		.align	2
 240              	.L22:
 241 000c 00420040 		.word	1073758720
 242              		.cfi_endproc
 243              	.LFE11:
 244              		.size	CyIMO_DisableDoubler, .-CyIMO_DisableDoubler
 245              		.section	.text.CyMasterClk_SetSource,"ax",%progbits
 246              		.align	2
 247              		.global	CyMasterClk_SetSource
 248              		.thumb
 249              		.thumb_func
 250              		.type	CyMasterClk_SetSource, %function
 251              	CyMasterClk_SetSource:
 252              	.LFB12:
 756:.\Generated_Source\PSoC5/CyLib.c ****     CY_LIB_CLKDIST_MSTR1_REG = (CY_LIB_CLKDIST_MSTR1_REG & MASTER_CLK_SRC_CLEAR) |
 253              		.loc 1 756 0
 254              		.cfi_startproc
 255              		@ args = 0, pretend = 0, frame = 0
 256              		@ frame_needed = 0, uses_anonymous_args = 0
 257              		@ link register save eliminated.
 258              	.LVL4:
 757:.\Generated_Source\PSoC5/CyLib.c ****                                 (source & ((uint8)(~MASTER_CLK_SRC_CLEAR)));
 259              		.loc 1 757 0
 260 0000 044A     		ldr	r2, .L25
 261 0002 1378     		ldrb	r3, [r2]	@ zero_extendqisi2
 262 0004 03F0FC03 		and	r3, r3, #252
 263 0008 00F00300 		and	r0, r0, #3
 264              	.LVL5:
 265 000c 1843     		orrs	r0, r0, r3
 266 000e 1070     		strb	r0, [r2]
 267 0010 7047     		bx	lr
 268              	.L26:
 269 0012 00BF     		.align	2
 270              	.L25:
 271 0014 05400040 		.word	1073758213
 272              		.cfi_endproc
 273              	.LFE12:
 274              		.size	CyMasterClk_SetSource, .-CyMasterClk_SetSource
 275              		.section	.text.CyMasterClk_SetDivider,"ax",%progbits
 276              		.align	2
 277              		.global	CyMasterClk_SetDivider
 278              		.thumb
 279              		.thumb_func
 280              		.type	CyMasterClk_SetDivider, %function
 281              	CyMasterClk_SetDivider:
 282              	.LFB13:
 791:.\Generated_Source\PSoC5/CyLib.c ****     CY_LIB_CLKDIST_MSTR0_REG = divider;
 283              		.loc 1 791 0
 284              		.cfi_startproc
 285              		@ args = 0, pretend = 0, frame = 0
 286              		@ frame_needed = 0, uses_anonymous_args = 0
 287              		@ link register save eliminated.
 288              	.LVL6:
 792:.\Generated_Source\PSoC5/CyLib.c **** }
 289              		.loc 1 792 0
 290 0000 014B     		ldr	r3, .L28
ARM GAS  C:\Users\cps\AppData\Local\Temp\ccxVhvgg.s 			page 21


 291 0002 1870     		strb	r0, [r3]
 292 0004 7047     		bx	lr
 293              	.L29:
 294 0006 00BF     		.align	2
 295              	.L28:
 296 0008 04400040 		.word	1073758212
 297              		.cfi_endproc
 298              	.LFE13:
 299              		.size	CyMasterClk_SetDivider, .-CyMasterClk_SetDivider
 300              		.section	.text.CyBusClk_SetDivider,"ax",%progbits
 301              		.align	2
 302              		.global	CyBusClk_SetDivider
 303              		.thumb
 304              		.thumb_func
 305              		.type	CyBusClk_SetDivider, %function
 306              	CyBusClk_SetDivider:
 307              	.LFB15:
 833:.\Generated_Source\PSoC5/CyLib.c **** }
 834:.\Generated_Source\PSoC5/CyLib.c **** 
 835:.\Generated_Source\PSoC5/CyLib.c **** 
 836:.\Generated_Source\PSoC5/CyLib.c **** /*******************************************************************************
 837:.\Generated_Source\PSoC5/CyLib.c **** * Function Name: CyBusClk_SetDivider
 838:.\Generated_Source\PSoC5/CyLib.c **** ********************************************************************************
 839:.\Generated_Source\PSoC5/CyLib.c **** *
 840:.\Generated_Source\PSoC5/CyLib.c **** * Summary:
 841:.\Generated_Source\PSoC5/CyLib.c **** *  Sets the divider value used to generate the Bus Clock.
 842:.\Generated_Source\PSoC5/CyLib.c **** *
 843:.\Generated_Source\PSoC5/CyLib.c **** * Parameters:
 844:.\Generated_Source\PSoC5/CyLib.c **** *  divider: Valid range [0-65535]. The clock will be divided by this value + 1.
 845:.\Generated_Source\PSoC5/CyLib.c **** *  For example, to divide this parameter by two should be set to 1.
 846:.\Generated_Source\PSoC5/CyLib.c **** *
 847:.\Generated_Source\PSoC5/CyLib.c **** * Return:
 848:.\Generated_Source\PSoC5/CyLib.c **** *  None
 849:.\Generated_Source\PSoC5/CyLib.c **** *
 850:.\Generated_Source\PSoC5/CyLib.c **** * Side Effects:
 851:.\Generated_Source\PSoC5/CyLib.c **** *  If this function execution resulted in the CPU clock frequency increasing,
 852:.\Generated_Source\PSoC5/CyLib.c **** *  then the number of clock cycles the cache will wait before it samples data
 853:.\Generated_Source\PSoC5/CyLib.c **** *  coming back from the Flash must be adjusted by calling
 854:.\Generated_Source\PSoC5/CyLib.c **** *  CyFlash_SetWaitCycles() with an appropriate parameter. It can be optionally
 855:.\Generated_Source\PSoC5/CyLib.c **** *  called if the CPU clock frequency is lowered in order to improve the CPU
 856:.\Generated_Source\PSoC5/CyLib.c **** *  performance. See CyFlash_SetWaitCycles() description for more information.
 857:.\Generated_Source\PSoC5/CyLib.c **** *
 858:.\Generated_Source\PSoC5/CyLib.c **** *******************************************************************************/
 859:.\Generated_Source\PSoC5/CyLib.c **** void CyBusClk_SetDivider(uint16 divider) 
 860:.\Generated_Source\PSoC5/CyLib.c **** {
 308              		.loc 1 860 0
 309              		.cfi_startproc
 310              		@ args = 0, pretend = 0, frame = 0
 311              		@ frame_needed = 0, uses_anonymous_args = 0
 312              	.LVL7:
 313 0000 70B5     		push	{r4, r5, r6, lr}
 314              		.cfi_def_cfa_offset 16
 315              		.cfi_offset 4, -16
 316              		.cfi_offset 5, -12
 317              		.cfi_offset 6, -8
 318              		.cfi_offset 14, -4
 319 0002 0546     		mov	r5, r0
ARM GAS  C:\Users\cps\AppData\Local\Temp\ccxVhvgg.s 			page 22


 861:.\Generated_Source\PSoC5/CyLib.c ****     uint8  masterClkDiv;
 862:.\Generated_Source\PSoC5/CyLib.c ****     uint16 busClkDiv;
 863:.\Generated_Source\PSoC5/CyLib.c ****     uint8 interruptState;
 864:.\Generated_Source\PSoC5/CyLib.c **** 
 865:.\Generated_Source\PSoC5/CyLib.c ****     interruptState = CyEnterCriticalSection();
 320              		.loc 1 865 0
 321 0004 FFF7FEFF 		bl	CyEnterCriticalSection
 322              	.LVL8:
 323 0008 0646     		mov	r6, r0
 324              	.LVL9:
 866:.\Generated_Source\PSoC5/CyLib.c **** 
 867:.\Generated_Source\PSoC5/CyLib.c ****     /* Work around to set bus clock divider value */
 868:.\Generated_Source\PSoC5/CyLib.c ****     busClkDiv = (uint16)((uint16)CY_LIB_CLKDIST_BCFG_MSB_REG << 8u);
 325              		.loc 1 868 0
 326 000a 164B     		ldr	r3, .L38
 327 000c 1A78     		ldrb	r2, [r3]	@ zero_extendqisi2
 328              	.LVL10:
 869:.\Generated_Source\PSoC5/CyLib.c ****     busClkDiv |= CY_LIB_CLKDIST_BCFG_LSB_REG;
 329              		.loc 1 869 0
 330 000e 013B     		subs	r3, r3, #1
 331 0010 1B78     		ldrb	r3, [r3]	@ zero_extendqisi2
 332 0012 43EA0223 		orr	r3, r3, r2, lsl #8
 333              	.LVL11:
 870:.\Generated_Source\PSoC5/CyLib.c **** 
 871:.\Generated_Source\PSoC5/CyLib.c ****     if ((divider == 0u) || (busClkDiv == 0u))
 334              		.loc 1 871 0
 335 0016 05B1     		cbz	r5, .L31
 336              		.loc 1 871 0 is_stmt 0 discriminator 1
 337 0018 EBB9     		cbnz	r3, .L32
 338              	.L31:
 872:.\Generated_Source\PSoC5/CyLib.c ****     {
 873:.\Generated_Source\PSoC5/CyLib.c ****         /* Save away master clock divider value */
 874:.\Generated_Source\PSoC5/CyLib.c ****         masterClkDiv = CY_LIB_CLKDIST_MSTR0_REG;
 339              		.loc 1 874 0 is_stmt 1
 340 001a 134B     		ldr	r3, .L38+4
 341              	.LVL12:
 342 001c 1C78     		ldrb	r4, [r3]	@ zero_extendqisi2
 343 001e E4B2     		uxtb	r4, r4
 344              	.LVL13:
 875:.\Generated_Source\PSoC5/CyLib.c **** 
 876:.\Generated_Source\PSoC5/CyLib.c ****         if (masterClkDiv < CY_LIB_CLKDIST_MASTERCLK_DIV)
 345              		.loc 1 876 0
 346 0020 062C     		cmp	r4, #6
 347 0022 02D8     		bhi	.L33
 877:.\Generated_Source\PSoC5/CyLib.c ****         {
 878:.\Generated_Source\PSoC5/CyLib.c ****             /* Set master clock divider to 7 */
 879:.\Generated_Source\PSoC5/CyLib.c ****             CyMasterClk_SetDivider(CY_LIB_CLKDIST_MASTERCLK_DIV);
 348              		.loc 1 879 0
 349 0024 0720     		movs	r0, #7
 350 0026 FFF7FEFF 		bl	CyMasterClk_SetDivider
 351              	.LVL14:
 352              	.L33:
 880:.\Generated_Source\PSoC5/CyLib.c ****         }
 881:.\Generated_Source\PSoC5/CyLib.c **** 
 882:.\Generated_Source\PSoC5/CyLib.c ****         if (divider == 0u)
 353              		.loc 1 882 0
 354 002a 45B9     		cbnz	r5, .L34
ARM GAS  C:\Users\cps\AppData\Local\Temp\ccxVhvgg.s 			page 23


 883:.\Generated_Source\PSoC5/CyLib.c ****         {
 884:.\Generated_Source\PSoC5/CyLib.c ****             /* Set SSS bit and divider register desired value */
 885:.\Generated_Source\PSoC5/CyLib.c ****             CY_LIB_CLKDIST_BCFG2_REG |= CY_LIB_CLKDIST_BCFG2_SSS;
 355              		.loc 1 885 0
 356 002c 0F4A     		ldr	r2, .L38+8
 357 002e 1378     		ldrb	r3, [r2]	@ zero_extendqisi2
 358 0030 43F04003 		orr	r3, r3, #64
 359 0034 1370     		strb	r3, [r2]
 886:.\Generated_Source\PSoC5/CyLib.c ****             CyBusClk_Internal_SetDivider(divider);
 360              		.loc 1 886 0
 361 0036 2846     		mov	r0, r5
 362 0038 FFF7FEFF 		bl	CyBusClk_Internal_SetDivider
 363              	.LVL15:
 364 003c 07E0     		b	.L35
 365              	.L34:
 887:.\Generated_Source\PSoC5/CyLib.c ****         }
 888:.\Generated_Source\PSoC5/CyLib.c ****         else
 889:.\Generated_Source\PSoC5/CyLib.c ****         {
 890:.\Generated_Source\PSoC5/CyLib.c ****             CyBusClk_Internal_SetDivider(divider);
 366              		.loc 1 890 0
 367 003e 2846     		mov	r0, r5
 368 0040 FFF7FEFF 		bl	CyBusClk_Internal_SetDivider
 369              	.LVL16:
 891:.\Generated_Source\PSoC5/CyLib.c ****             CY_LIB_CLKDIST_BCFG2_REG &= ((uint8)(~CY_LIB_CLKDIST_BCFG2_SSS));
 370              		.loc 1 891 0
 371 0044 094A     		ldr	r2, .L38+8
 372 0046 1378     		ldrb	r3, [r2]	@ zero_extendqisi2
 373 0048 03F0BF03 		and	r3, r3, #191
 374 004c 1370     		strb	r3, [r2]
 375              	.L35:
 892:.\Generated_Source\PSoC5/CyLib.c ****         }
 893:.\Generated_Source\PSoC5/CyLib.c **** 
 894:.\Generated_Source\PSoC5/CyLib.c ****         /* Restore master clock */
 895:.\Generated_Source\PSoC5/CyLib.c ****         CyMasterClk_SetDivider(masterClkDiv);
 376              		.loc 1 895 0
 377 004e 2046     		mov	r0, r4
 378 0050 FFF7FEFF 		bl	CyMasterClk_SetDivider
 379              	.LVL17:
 380 0054 02E0     		b	.L36
 381              	.LVL18:
 382              	.L32:
 896:.\Generated_Source\PSoC5/CyLib.c ****     }
 897:.\Generated_Source\PSoC5/CyLib.c ****     else
 898:.\Generated_Source\PSoC5/CyLib.c ****     {
 899:.\Generated_Source\PSoC5/CyLib.c ****         CyBusClk_Internal_SetDivider(divider);
 383              		.loc 1 899 0
 384 0056 2846     		mov	r0, r5
 385 0058 FFF7FEFF 		bl	CyBusClk_Internal_SetDivider
 386              	.LVL19:
 387              	.L36:
 900:.\Generated_Source\PSoC5/CyLib.c ****     }
 901:.\Generated_Source\PSoC5/CyLib.c **** 
 902:.\Generated_Source\PSoC5/CyLib.c ****     CyExitCriticalSection(interruptState);
 388              		.loc 1 902 0
 389 005c 3046     		mov	r0, r6
 390 005e FFF7FEFF 		bl	CyExitCriticalSection
 391              	.LVL20:
ARM GAS  C:\Users\cps\AppData\Local\Temp\ccxVhvgg.s 			page 24


 392 0062 70BD     		pop	{r4, r5, r6, pc}
 393              	.LVL21:
 394              	.L39:
 395              		.align	2
 396              	.L38:
 397 0064 07400040 		.word	1073758215
 398 0068 04400040 		.word	1073758212
 399 006c 08400040 		.word	1073758216
 400              		.cfi_endproc
 401              	.LFE15:
 402              		.size	CyBusClk_SetDivider, .-CyBusClk_SetDivider
 403              		.section	.text.CyUsbClk_SetSource,"ax",%progbits
 404              		.align	2
 405              		.global	CyUsbClk_SetSource
 406              		.thumb
 407              		.thumb_func
 408              		.type	CyUsbClk_SetSource, %function
 409              	CyUsbClk_SetSource:
 410              	.LFB16:
 903:.\Generated_Source\PSoC5/CyLib.c **** }
 904:.\Generated_Source\PSoC5/CyLib.c **** 
 905:.\Generated_Source\PSoC5/CyLib.c **** 
 906:.\Generated_Source\PSoC5/CyLib.c **** #if(CY_PSOC3)
 907:.\Generated_Source\PSoC5/CyLib.c **** 
 908:.\Generated_Source\PSoC5/CyLib.c ****     /*******************************************************************************
 909:.\Generated_Source\PSoC5/CyLib.c ****     * Function Name: CyCpuClk_SetDivider
 910:.\Generated_Source\PSoC5/CyLib.c ****     ********************************************************************************
 911:.\Generated_Source\PSoC5/CyLib.c ****     *
 912:.\Generated_Source\PSoC5/CyLib.c ****     * Summary:
 913:.\Generated_Source\PSoC5/CyLib.c ****     *  Sets the divider value used to generate the CPU Clock. Only applicable for
 914:.\Generated_Source\PSoC5/CyLib.c ****     *  PSoC 3 parts.
 915:.\Generated_Source\PSoC5/CyLib.c ****     *
 916:.\Generated_Source\PSoC5/CyLib.c ****     * Parameters:
 917:.\Generated_Source\PSoC5/CyLib.c ****     *  divider: Valid range [0-15]. The clock will be divided by this value + 1.
 918:.\Generated_Source\PSoC5/CyLib.c ****     *  For example, to divide this parameter by two should be set to 1.
 919:.\Generated_Source\PSoC5/CyLib.c ****     *
 920:.\Generated_Source\PSoC5/CyLib.c ****     * Return:
 921:.\Generated_Source\PSoC5/CyLib.c ****     *  None
 922:.\Generated_Source\PSoC5/CyLib.c ****     *
 923:.\Generated_Source\PSoC5/CyLib.c ****     * Side Effects:
 924:.\Generated_Source\PSoC5/CyLib.c ****     *  If this function execution resulted in the CPU clock frequency increasing,
 925:.\Generated_Source\PSoC5/CyLib.c ****     *  then the number of clock cycles the cache will wait before it samples data
 926:.\Generated_Source\PSoC5/CyLib.c ****     *  coming back from the Flash must be adjusted by calling
 927:.\Generated_Source\PSoC5/CyLib.c ****     *  CyFlash_SetWaitCycles() with an appropriate parameter. It can be optionally
 928:.\Generated_Source\PSoC5/CyLib.c ****     *  called if the CPU clock frequency is lowered in order to improve the CPU
 929:.\Generated_Source\PSoC5/CyLib.c ****     *  performance. See CyFlash_SetWaitCycles() description for more information.
 930:.\Generated_Source\PSoC5/CyLib.c ****     *
 931:.\Generated_Source\PSoC5/CyLib.c ****     *******************************************************************************/
 932:.\Generated_Source\PSoC5/CyLib.c ****     void CyCpuClk_SetDivider(uint8 divider) 
 933:.\Generated_Source\PSoC5/CyLib.c ****     {
 934:.\Generated_Source\PSoC5/CyLib.c ****             CY_LIB_CLKDIST_MSTR1_REG = (CY_LIB_CLKDIST_MSTR1_REG & CY_LIB_CLKDIST_MSTR1_DIV_MASK) |
 935:.\Generated_Source\PSoC5/CyLib.c ****                                 ((uint8)(divider << CY_LIB_CLKDIST_DIV_POSITION));
 936:.\Generated_Source\PSoC5/CyLib.c ****     }
 937:.\Generated_Source\PSoC5/CyLib.c **** 
 938:.\Generated_Source\PSoC5/CyLib.c **** #endif /* (CY_PSOC3) */
 939:.\Generated_Source\PSoC5/CyLib.c **** 
 940:.\Generated_Source\PSoC5/CyLib.c **** 
ARM GAS  C:\Users\cps\AppData\Local\Temp\ccxVhvgg.s 			page 25


 941:.\Generated_Source\PSoC5/CyLib.c **** /*******************************************************************************
 942:.\Generated_Source\PSoC5/CyLib.c **** * Function Name: CyUsbClk_SetSource
 943:.\Generated_Source\PSoC5/CyLib.c **** ********************************************************************************
 944:.\Generated_Source\PSoC5/CyLib.c **** *
 945:.\Generated_Source\PSoC5/CyLib.c **** * Summary:
 946:.\Generated_Source\PSoC5/CyLib.c **** *  Sets the source of the USB clock.
 947:.\Generated_Source\PSoC5/CyLib.c **** *
 948:.\Generated_Source\PSoC5/CyLib.c **** * Parameters:
 949:.\Generated_Source\PSoC5/CyLib.c **** *  source: One of the four available USB clock sources
 950:.\Generated_Source\PSoC5/CyLib.c **** *    CY_LIB_USB_CLK_IMO2X     - IMO 2x
 951:.\Generated_Source\PSoC5/CyLib.c **** *    CY_LIB_USB_CLK_IMO       - IMO
 952:.\Generated_Source\PSoC5/CyLib.c **** *    CY_LIB_USB_CLK_PLL       - PLL
 953:.\Generated_Source\PSoC5/CyLib.c **** *    CY_LIB_USB_CLK_DSI       - DSI
 954:.\Generated_Source\PSoC5/CyLib.c **** *
 955:.\Generated_Source\PSoC5/CyLib.c **** * Return:
 956:.\Generated_Source\PSoC5/CyLib.c **** *  None
 957:.\Generated_Source\PSoC5/CyLib.c **** *
 958:.\Generated_Source\PSoC5/CyLib.c **** *******************************************************************************/
 959:.\Generated_Source\PSoC5/CyLib.c **** void CyUsbClk_SetSource(uint8 source) 
 960:.\Generated_Source\PSoC5/CyLib.c **** {
 411              		.loc 1 960 0
 412              		.cfi_startproc
 413              		@ args = 0, pretend = 0, frame = 0
 414              		@ frame_needed = 0, uses_anonymous_args = 0
 415              		@ link register save eliminated.
 416              	.LVL22:
 961:.\Generated_Source\PSoC5/CyLib.c ****     CY_LIB_CLKDIST_UCFG_REG = (CY_LIB_CLKDIST_UCFG_REG & ((uint8)(~CY_LIB_CLKDIST_UCFG_SRC_SEL_MASK
 417              		.loc 1 961 0
 418 0000 044A     		ldr	r2, .L41
 419 0002 1378     		ldrb	r3, [r2]	@ zero_extendqisi2
 420 0004 03F0FC03 		and	r3, r3, #252
 421 0008 00F00300 		and	r0, r0, #3
 422              	.LVL23:
 423 000c 1843     		orrs	r0, r0, r3
 424 000e 1070     		strb	r0, [r2]
 425 0010 7047     		bx	lr
 426              	.L42:
 427 0012 00BF     		.align	2
 428              	.L41:
 429 0014 09400040 		.word	1073758217
 430              		.cfi_endproc
 431              	.LFE16:
 432              		.size	CyUsbClk_SetSource, .-CyUsbClk_SetSource
 433              		.section	.text.CyILO_Start1K,"ax",%progbits
 434              		.align	2
 435              		.global	CyILO_Start1K
 436              		.thumb
 437              		.thumb_func
 438              		.type	CyILO_Start1K, %function
 439              	CyILO_Start1K:
 440              	.LFB17:
 962:.\Generated_Source\PSoC5/CyLib.c ****                         (CY_LIB_CLKDIST_UCFG_SRC_SEL_MASK & source);
 963:.\Generated_Source\PSoC5/CyLib.c **** }
 964:.\Generated_Source\PSoC5/CyLib.c **** 
 965:.\Generated_Source\PSoC5/CyLib.c **** 
 966:.\Generated_Source\PSoC5/CyLib.c **** /*******************************************************************************
 967:.\Generated_Source\PSoC5/CyLib.c **** * Function Name: CyILO_Start1K
ARM GAS  C:\Users\cps\AppData\Local\Temp\ccxVhvgg.s 			page 26


 968:.\Generated_Source\PSoC5/CyLib.c **** ********************************************************************************
 969:.\Generated_Source\PSoC5/CyLib.c **** *
 970:.\Generated_Source\PSoC5/CyLib.c **** * Summary:
 971:.\Generated_Source\PSoC5/CyLib.c **** *  Enables the ILO 1 KHz oscillator.
 972:.\Generated_Source\PSoC5/CyLib.c **** *
 973:.\Generated_Source\PSoC5/CyLib.c **** *  Note The ILO 1 KHz oscillator is always enabled by default, regardless of the
 974:.\Generated_Source\PSoC5/CyLib.c **** *  selection in the Clock Editor. Therefore, this API is only needed if the
 975:.\Generated_Source\PSoC5/CyLib.c **** *  oscillator was turned off manually.
 976:.\Generated_Source\PSoC5/CyLib.c **** *
 977:.\Generated_Source\PSoC5/CyLib.c **** * Parameters:
 978:.\Generated_Source\PSoC5/CyLib.c **** *  None
 979:.\Generated_Source\PSoC5/CyLib.c **** *
 980:.\Generated_Source\PSoC5/CyLib.c **** * Return:
 981:.\Generated_Source\PSoC5/CyLib.c **** *  None
 982:.\Generated_Source\PSoC5/CyLib.c **** *
 983:.\Generated_Source\PSoC5/CyLib.c **** *******************************************************************************/
 984:.\Generated_Source\PSoC5/CyLib.c **** void CyILO_Start1K(void) 
 985:.\Generated_Source\PSoC5/CyLib.c **** {
 441              		.loc 1 985 0
 442              		.cfi_startproc
 443              		@ args = 0, pretend = 0, frame = 0
 444              		@ frame_needed = 0, uses_anonymous_args = 0
 445              		@ link register save eliminated.
 986:.\Generated_Source\PSoC5/CyLib.c ****     /* Set bit 1 of ILO RS */
 987:.\Generated_Source\PSoC5/CyLib.c ****     CY_LIB_SLOWCLK_ILO_CR0_REG |= CY_LIB_SLOWCLK_ILO_CR0_EN_1KHZ;
 446              		.loc 1 987 0
 447 0000 024A     		ldr	r2, .L44
 448 0002 1378     		ldrb	r3, [r2]	@ zero_extendqisi2
 449 0004 43F00203 		orr	r3, r3, #2
 450 0008 1370     		strb	r3, [r2]
 451 000a 7047     		bx	lr
 452              	.L45:
 453              		.align	2
 454              	.L44:
 455 000c 00430040 		.word	1073758976
 456              		.cfi_endproc
 457              	.LFE17:
 458              		.size	CyILO_Start1K, .-CyILO_Start1K
 459              		.section	.text.CyILO_Stop1K,"ax",%progbits
 460              		.align	2
 461              		.global	CyILO_Stop1K
 462              		.thumb
 463              		.thumb_func
 464              		.type	CyILO_Stop1K, %function
 465              	CyILO_Stop1K:
 466              	.LFB18:
 988:.\Generated_Source\PSoC5/CyLib.c **** }
 989:.\Generated_Source\PSoC5/CyLib.c **** 
 990:.\Generated_Source\PSoC5/CyLib.c **** 
 991:.\Generated_Source\PSoC5/CyLib.c **** /*******************************************************************************
 992:.\Generated_Source\PSoC5/CyLib.c **** * Function Name: CyILO_Stop1K
 993:.\Generated_Source\PSoC5/CyLib.c **** ********************************************************************************
 994:.\Generated_Source\PSoC5/CyLib.c **** *
 995:.\Generated_Source\PSoC5/CyLib.c **** * Summary:
 996:.\Generated_Source\PSoC5/CyLib.c **** *  Disables the ILO 1 KHz oscillator.
 997:.\Generated_Source\PSoC5/CyLib.c **** *
 998:.\Generated_Source\PSoC5/CyLib.c **** *  Note The ILO 1 KHz oscillator must be enabled if the Sleep or Hibernate low
ARM GAS  C:\Users\cps\AppData\Local\Temp\ccxVhvgg.s 			page 27


 999:.\Generated_Source\PSoC5/CyLib.c **** *  power mode APIs are expected to be used. For more information, refer to the
1000:.\Generated_Source\PSoC5/CyLib.c **** *  Power Management section of this document.
1001:.\Generated_Source\PSoC5/CyLib.c **** *
1002:.\Generated_Source\PSoC5/CyLib.c **** * Parameters:
1003:.\Generated_Source\PSoC5/CyLib.c **** *  None
1004:.\Generated_Source\PSoC5/CyLib.c **** *
1005:.\Generated_Source\PSoC5/CyLib.c **** * Return:
1006:.\Generated_Source\PSoC5/CyLib.c **** *  None
1007:.\Generated_Source\PSoC5/CyLib.c **** *
1008:.\Generated_Source\PSoC5/CyLib.c **** * Side Effects:
1009:.\Generated_Source\PSoC5/CyLib.c **** *  PSoC5: Stopping the ILO 1 kHz could break the active WDT functionality.
1010:.\Generated_Source\PSoC5/CyLib.c **** *
1011:.\Generated_Source\PSoC5/CyLib.c **** *******************************************************************************/
1012:.\Generated_Source\PSoC5/CyLib.c **** void CyILO_Stop1K(void) 
1013:.\Generated_Source\PSoC5/CyLib.c **** {
 467              		.loc 1 1013 0
 468              		.cfi_startproc
 469              		@ args = 0, pretend = 0, frame = 0
 470              		@ frame_needed = 0, uses_anonymous_args = 0
 471              		@ link register save eliminated.
1014:.\Generated_Source\PSoC5/CyLib.c ****     /* Clear bit 1 of ILO RS */
1015:.\Generated_Source\PSoC5/CyLib.c ****     CY_LIB_SLOWCLK_ILO_CR0_REG &= ((uint8)(~CY_LIB_SLOWCLK_ILO_CR0_EN_1KHZ));
 472              		.loc 1 1015 0
 473 0000 024A     		ldr	r2, .L47
 474 0002 1378     		ldrb	r3, [r2]	@ zero_extendqisi2
 475 0004 03F0FD03 		and	r3, r3, #253
 476 0008 1370     		strb	r3, [r2]
 477 000a 7047     		bx	lr
 478              	.L48:
 479              		.align	2
 480              	.L47:
 481 000c 00430040 		.word	1073758976
 482              		.cfi_endproc
 483              	.LFE18:
 484              		.size	CyILO_Stop1K, .-CyILO_Stop1K
 485              		.section	.text.CyILO_Start100K,"ax",%progbits
 486              		.align	2
 487              		.global	CyILO_Start100K
 488              		.thumb
 489              		.thumb_func
 490              		.type	CyILO_Start100K, %function
 491              	CyILO_Start100K:
 492              	.LFB19:
1016:.\Generated_Source\PSoC5/CyLib.c **** }
1017:.\Generated_Source\PSoC5/CyLib.c **** 
1018:.\Generated_Source\PSoC5/CyLib.c **** 
1019:.\Generated_Source\PSoC5/CyLib.c **** /*******************************************************************************
1020:.\Generated_Source\PSoC5/CyLib.c **** * Function Name: CyILO_Start100K
1021:.\Generated_Source\PSoC5/CyLib.c **** ********************************************************************************
1022:.\Generated_Source\PSoC5/CyLib.c **** *
1023:.\Generated_Source\PSoC5/CyLib.c **** * Summary:
1024:.\Generated_Source\PSoC5/CyLib.c **** *  Enables the ILO 100 KHz oscillator.
1025:.\Generated_Source\PSoC5/CyLib.c **** *
1026:.\Generated_Source\PSoC5/CyLib.c **** * Parameters:
1027:.\Generated_Source\PSoC5/CyLib.c **** *  None
1028:.\Generated_Source\PSoC5/CyLib.c **** *
1029:.\Generated_Source\PSoC5/CyLib.c **** * Return:
ARM GAS  C:\Users\cps\AppData\Local\Temp\ccxVhvgg.s 			page 28


1030:.\Generated_Source\PSoC5/CyLib.c **** *  None
1031:.\Generated_Source\PSoC5/CyLib.c **** *
1032:.\Generated_Source\PSoC5/CyLib.c **** *******************************************************************************/
1033:.\Generated_Source\PSoC5/CyLib.c **** void CyILO_Start100K(void) 
1034:.\Generated_Source\PSoC5/CyLib.c **** {
 493              		.loc 1 1034 0
 494              		.cfi_startproc
 495              		@ args = 0, pretend = 0, frame = 0
 496              		@ frame_needed = 0, uses_anonymous_args = 0
 497              		@ link register save eliminated.
1035:.\Generated_Source\PSoC5/CyLib.c ****     CY_LIB_SLOWCLK_ILO_CR0_REG |= CY_LIB_SLOWCLK_ILO_CR0_EN_100KHZ;
 498              		.loc 1 1035 0
 499 0000 024A     		ldr	r2, .L50
 500 0002 1378     		ldrb	r3, [r2]	@ zero_extendqisi2
 501 0004 43F00403 		orr	r3, r3, #4
 502 0008 1370     		strb	r3, [r2]
 503 000a 7047     		bx	lr
 504              	.L51:
 505              		.align	2
 506              	.L50:
 507 000c 00430040 		.word	1073758976
 508              		.cfi_endproc
 509              	.LFE19:
 510              		.size	CyILO_Start100K, .-CyILO_Start100K
 511              		.section	.text.CyILO_Stop100K,"ax",%progbits
 512              		.align	2
 513              		.global	CyILO_Stop100K
 514              		.thumb
 515              		.thumb_func
 516              		.type	CyILO_Stop100K, %function
 517              	CyILO_Stop100K:
 518              	.LFB20:
1036:.\Generated_Source\PSoC5/CyLib.c **** }
1037:.\Generated_Source\PSoC5/CyLib.c **** 
1038:.\Generated_Source\PSoC5/CyLib.c **** 
1039:.\Generated_Source\PSoC5/CyLib.c **** /*******************************************************************************
1040:.\Generated_Source\PSoC5/CyLib.c **** * Function Name: CyILO_Stop100K
1041:.\Generated_Source\PSoC5/CyLib.c **** ********************************************************************************
1042:.\Generated_Source\PSoC5/CyLib.c **** *
1043:.\Generated_Source\PSoC5/CyLib.c **** * Summary:
1044:.\Generated_Source\PSoC5/CyLib.c **** *  Disables the ILO 100 KHz oscillator.
1045:.\Generated_Source\PSoC5/CyLib.c **** *
1046:.\Generated_Source\PSoC5/CyLib.c **** * Parameters:
1047:.\Generated_Source\PSoC5/CyLib.c **** *  None
1048:.\Generated_Source\PSoC5/CyLib.c **** *
1049:.\Generated_Source\PSoC5/CyLib.c **** * Return:
1050:.\Generated_Source\PSoC5/CyLib.c **** *  None
1051:.\Generated_Source\PSoC5/CyLib.c **** *
1052:.\Generated_Source\PSoC5/CyLib.c **** *******************************************************************************/
1053:.\Generated_Source\PSoC5/CyLib.c **** void CyILO_Stop100K(void) 
1054:.\Generated_Source\PSoC5/CyLib.c **** {
 519              		.loc 1 1054 0
 520              		.cfi_startproc
 521              		@ args = 0, pretend = 0, frame = 0
 522              		@ frame_needed = 0, uses_anonymous_args = 0
 523              		@ link register save eliminated.
1055:.\Generated_Source\PSoC5/CyLib.c ****     CY_LIB_SLOWCLK_ILO_CR0_REG &= ((uint8)(~CY_LIB_SLOWCLK_ILO_CR0_EN_100KHZ));
ARM GAS  C:\Users\cps\AppData\Local\Temp\ccxVhvgg.s 			page 29


 524              		.loc 1 1055 0
 525 0000 024A     		ldr	r2, .L53
 526 0002 1378     		ldrb	r3, [r2]	@ zero_extendqisi2
 527 0004 03F0FB03 		and	r3, r3, #251
 528 0008 1370     		strb	r3, [r2]
 529 000a 7047     		bx	lr
 530              	.L54:
 531              		.align	2
 532              	.L53:
 533 000c 00430040 		.word	1073758976
 534              		.cfi_endproc
 535              	.LFE20:
 536              		.size	CyILO_Stop100K, .-CyILO_Stop100K
 537              		.section	.text.CyPLL_OUT_Start,"ax",%progbits
 538              		.align	2
 539              		.global	CyPLL_OUT_Start
 540              		.thumb
 541              		.thumb_func
 542              		.type	CyPLL_OUT_Start, %function
 543              	CyPLL_OUT_Start:
 544              	.LFB0:
 101:.\Generated_Source\PSoC5/CyLib.c ****     cystatus status = CYRET_SUCCESS;
 545              		.loc 1 101 0
 546              		.cfi_startproc
 547              		@ args = 0, pretend = 0, frame = 0
 548              		@ frame_needed = 0, uses_anonymous_args = 0
 549              	.LVL24:
 550 0000 F8B5     		push	{r3, r4, r5, r6, r7, lr}
 551              		.cfi_def_cfa_offset 24
 552              		.cfi_offset 3, -24
 553              		.cfi_offset 4, -20
 554              		.cfi_offset 5, -16
 555              		.cfi_offset 6, -12
 556              		.cfi_offset 7, -8
 557              		.cfi_offset 14, -4
 558              	.LVL25:
 110:.\Generated_Source\PSoC5/CyLib.c **** 
 559              		.loc 1 110 0
 560 0002 194A     		ldr	r2, .L64
 561 0004 1378     		ldrb	r3, [r2]	@ zero_extendqisi2
 562 0006 43F00103 		orr	r3, r3, #1
 563 000a 1370     		strb	r3, [r2]
 112:.\Generated_Source\PSoC5/CyLib.c ****     {
 564              		.loc 1 112 0
 565 000c 48B3     		cbz	r0, .L61
 115:.\Generated_Source\PSoC5/CyLib.c ****         pmTwCfg0State = CY_LIB_PM_TW_CFG0_REG;
 566              		.loc 1 115 0
 567 000e 174B     		ldr	r3, .L64+4
 568 0010 1C78     		ldrb	r4, [r3]	@ zero_extendqisi2
 569 0012 04F00404 		and	r4, r4, #4
 570 0016 E4B2     		uxtb	r4, r4
 571              	.LVL26:
 116:.\Generated_Source\PSoC5/CyLib.c ****         pmTwCfg2State = CY_LIB_PM_TW_CFG2_REG;
 572              		.loc 1 116 0
 573 0018 8033     		adds	r3, r3, #128
 574 001a 1F78     		ldrb	r7, [r3]	@ zero_extendqisi2
 575 001c FFB2     		uxtb	r7, r7
ARM GAS  C:\Users\cps\AppData\Local\Temp\ccxVhvgg.s 			page 30


 576              	.LVL27:
 117:.\Generated_Source\PSoC5/CyLib.c **** 
 577              		.loc 1 117 0
 578 001e 0233     		adds	r3, r3, #2
 579 0020 1E78     		ldrb	r6, [r3]	@ zero_extendqisi2
 580 0022 F6B2     		uxtb	r6, r6
 581              	.LVL28:
 119:.\Generated_Source\PSoC5/CyLib.c **** 
 582              		.loc 1 119 0
 583 0024 1820     		movs	r0, #24
 584              	.LVL29:
 585 0026 FFF7FEFF 		bl	CyPmFtwSetInterval
 586              	.LVL30:
 123:.\Generated_Source\PSoC5/CyLib.c ****         {
 587              		.loc 1 123 0
 588 002a 09E0     		b	.L57
 589              	.L59:
 126:.\Generated_Source\PSoC5/CyLib.c ****             {
 590              		.loc 1 126 0
 591 002c 104B     		ldr	r3, .L64+8
 592 002e 1B78     		ldrb	r3, [r3]	@ zero_extendqisi2
 593 0030 13F0010F 		tst	r3, #1
 594 0034 04D0     		beq	.L57
 128:.\Generated_Source\PSoC5/CyLib.c ****                 {
 595              		.loc 1 128 0
 596 0036 0E4B     		ldr	r3, .L64+8
 597 0038 1B78     		ldrb	r3, [r3]	@ zero_extendqisi2
 598 003a 13F0010F 		tst	r3, #1
 599 003e 07D1     		bne	.L62
 600              	.L57:
 123:.\Generated_Source\PSoC5/CyLib.c ****         {
 601              		.loc 1 123 0
 602 0040 0120     		movs	r0, #1
 603 0042 FFF7FEFF 		bl	CyPmReadStatus
 604              	.LVL31:
 605 0046 10F0010F 		tst	r0, #1
 606 004a EFD0     		beq	.L59
 121:.\Generated_Source\PSoC5/CyLib.c **** 
 607              		.loc 1 121 0
 608 004c 1025     		movs	r5, #16
 609 004e 00E0     		b	.L58
 610              	.L62:
 130:.\Generated_Source\PSoC5/CyLib.c ****                     break;
 611              		.loc 1 130 0
 612 0050 0025     		movs	r5, #0
 613              	.L58:
 614              	.LVL32:
 137:.\Generated_Source\PSoC5/CyLib.c ****         {
 615              		.loc 1 137 0
 616 0052 0CB9     		cbnz	r4, .L60
 139:.\Generated_Source\PSoC5/CyLib.c ****         }
 617              		.loc 1 139 0
 618 0054 FFF7FEFF 		bl	CyILO_Stop100K
 619              	.LVL33:
 620              	.L60:
 142:.\Generated_Source\PSoC5/CyLib.c ****         CY_LIB_PM_TW_CFG2_REG = pmTwCfg2State;
 621              		.loc 1 142 0
ARM GAS  C:\Users\cps\AppData\Local\Temp\ccxVhvgg.s 			page 31


 622 0058 064B     		ldr	r3, .L64+12
 623 005a 1F70     		strb	r7, [r3]
 143:.\Generated_Source\PSoC5/CyLib.c ****     }
 624              		.loc 1 143 0
 625 005c 0233     		adds	r3, r3, #2
 626 005e 1E70     		strb	r6, [r3]
 627 0060 00E0     		b	.L56
 628              	.LVL34:
 629              	.L61:
 102:.\Generated_Source\PSoC5/CyLib.c **** 
 630              		.loc 1 102 0
 631 0062 0025     		movs	r5, #0
 632              	.LVL35:
 633              	.L56:
 147:.\Generated_Source\PSoC5/CyLib.c **** 
 634              		.loc 1 147 0
 635 0064 2846     		mov	r0, r5
 636 0066 F8BD     		pop	{r3, r4, r5, r6, r7, pc}
 637              	.LVL36:
 638              	.L65:
 639              		.align	2
 640              	.L64:
 641 0068 20420040 		.word	1073758752
 642 006c 00430040 		.word	1073758976
 643 0070 25420040 		.word	1073758757
 644 0074 80430040 		.word	1073759104
 645              		.cfi_endproc
 646              	.LFE0:
 647              		.size	CyPLL_OUT_Start, .-CyPLL_OUT_Start
 648              		.section	.text.CyIMO_Start,"ax",%progbits
 649              		.align	2
 650              		.global	CyIMO_Start
 651              		.thumb
 652              		.thumb_func
 653              		.type	CyIMO_Start, %function
 654              	CyIMO_Start:
 655              	.LFB4:
 308:.\Generated_Source\PSoC5/CyLib.c ****     uint8 pmFtwCfg2Reg;
 656              		.loc 1 308 0
 657              		.cfi_startproc
 658              		@ args = 0, pretend = 0, frame = 0
 659              		@ frame_needed = 0, uses_anonymous_args = 0
 660              	.LVL37:
 314:.\Generated_Source\PSoC5/CyLib.c ****     CY_LIB_PM_STBY_CFG0_REG |= CY_LIB_PM_STBY_CFG0_IMO_EN;
 661              		.loc 1 314 0
 662 0000 144A     		ldr	r2, .L72
 663 0002 1378     		ldrb	r3, [r2]	@ zero_extendqisi2
 664 0004 43F01003 		orr	r3, r3, #16
 665 0008 1370     		strb	r3, [r2]
 315:.\Generated_Source\PSoC5/CyLib.c **** 
 666              		.loc 1 315 0
 667 000a 1032     		adds	r2, r2, #16
 668 000c 1378     		ldrb	r3, [r2]	@ zero_extendqisi2
 669 000e 43F01003 		orr	r3, r3, #16
 670 0012 1370     		strb	r3, [r2]
 317:.\Generated_Source\PSoC5/CyLib.c ****     {
 671              		.loc 1 317 0
ARM GAS  C:\Users\cps\AppData\Local\Temp\ccxVhvgg.s 			page 32


 672 0014 E0B1     		cbz	r0, .L71
 308:.\Generated_Source\PSoC5/CyLib.c ****     uint8 pmFtwCfg2Reg;
 673              		.loc 1 308 0
 674 0016 70B5     		push	{r4, r5, r6, lr}
 675              		.cfi_def_cfa_offset 16
 676              		.cfi_offset 4, -16
 677              		.cfi_offset 5, -12
 678              		.cfi_offset 6, -8
 679              		.cfi_offset 14, -4
 320:.\Generated_Source\PSoC5/CyLib.c ****         pmFtwCfg0Reg = CY_LIB_PM_TW_CFG0_REG;
 680              		.loc 1 320 0
 681 0018 0F4B     		ldr	r3, .L72+4
 682 001a 1C78     		ldrb	r4, [r3]	@ zero_extendqisi2
 683 001c 04F00404 		and	r4, r4, #4
 684 0020 E4B2     		uxtb	r4, r4
 685              	.LVL38:
 321:.\Generated_Source\PSoC5/CyLib.c ****         pmFtwCfg2Reg = CY_LIB_PM_TW_CFG2_REG;
 686              		.loc 1 321 0
 687 0022 8033     		adds	r3, r3, #128
 688 0024 1E78     		ldrb	r6, [r3]	@ zero_extendqisi2
 689 0026 F6B2     		uxtb	r6, r6
 690              	.LVL39:
 322:.\Generated_Source\PSoC5/CyLib.c **** 
 691              		.loc 1 322 0
 692 0028 0233     		adds	r3, r3, #2
 693 002a 1D78     		ldrb	r5, [r3]	@ zero_extendqisi2
 694 002c EDB2     		uxtb	r5, r5
 695              	.LVL40:
 324:.\Generated_Source\PSoC5/CyLib.c **** 
 696              		.loc 1 324 0
 697 002e 0020     		movs	r0, #0
 698              	.LVL41:
 699 0030 FFF7FEFF 		bl	CyPmFtwSetInterval
 700              	.LVL42:
 701              	.L68:
 326:.\Generated_Source\PSoC5/CyLib.c ****         {
 702              		.loc 1 326 0 discriminator 1
 703 0034 0120     		movs	r0, #1
 704 0036 FFF7FEFF 		bl	CyPmReadStatus
 705              	.LVL43:
 706 003a 10F0010F 		tst	r0, #1
 707 003e F9D0     		beq	.L68
 331:.\Generated_Source\PSoC5/CyLib.c ****         {
 708              		.loc 1 331 0
 709 0040 0CB9     		cbnz	r4, .L69
 333:.\Generated_Source\PSoC5/CyLib.c ****         }
 710              		.loc 1 333 0
 711 0042 FFF7FEFF 		bl	CyILO_Stop100K
 712              	.LVL44:
 713              	.L69:
 336:.\Generated_Source\PSoC5/CyLib.c ****         CY_LIB_PM_TW_CFG2_REG = pmFtwCfg2Reg;
 714              		.loc 1 336 0
 715 0046 054B     		ldr	r3, .L72+8
 716 0048 1E70     		strb	r6, [r3]
 337:.\Generated_Source\PSoC5/CyLib.c ****     }
 717              		.loc 1 337 0
 718 004a 0233     		adds	r3, r3, #2
ARM GAS  C:\Users\cps\AppData\Local\Temp\ccxVhvgg.s 			page 33


 719 004c 1D70     		strb	r5, [r3]
 720 004e 70BD     		pop	{r4, r5, r6, pc}
 721              	.LVL45:
 722              	.L71:
 723              		.cfi_def_cfa_offset 0
 724              		.cfi_restore 4
 725              		.cfi_restore 5
 726              		.cfi_restore 6
 727              		.cfi_restore 14
 728 0050 7047     		bx	lr
 729              	.L73:
 730 0052 00BF     		.align	2
 731              	.L72:
 732 0054 A0430040 		.word	1073759136
 733 0058 00430040 		.word	1073758976
 734 005c 80430040 		.word	1073759104
 735              		.cfi_endproc
 736              	.LFE4:
 737              		.size	CyIMO_Start, .-CyIMO_Start
 738              		.section	.text.CyILO_Enable33K,"ax",%progbits
 739              		.align	2
 740              		.global	CyILO_Enable33K
 741              		.thumb
 742              		.thumb_func
 743              		.type	CyILO_Enable33K, %function
 744              	CyILO_Enable33K:
 745              	.LFB21:
1056:.\Generated_Source\PSoC5/CyLib.c **** }
1057:.\Generated_Source\PSoC5/CyLib.c **** 
1058:.\Generated_Source\PSoC5/CyLib.c **** 
1059:.\Generated_Source\PSoC5/CyLib.c **** /*******************************************************************************
1060:.\Generated_Source\PSoC5/CyLib.c **** * Function Name: CyILO_Enable33K
1061:.\Generated_Source\PSoC5/CyLib.c **** ********************************************************************************
1062:.\Generated_Source\PSoC5/CyLib.c **** *
1063:.\Generated_Source\PSoC5/CyLib.c **** * Summary:
1064:.\Generated_Source\PSoC5/CyLib.c **** *  Enables the ILO 33 KHz divider.
1065:.\Generated_Source\PSoC5/CyLib.c **** *
1066:.\Generated_Source\PSoC5/CyLib.c **** *  Note that the 33 KHz clock is generated from the 100 KHz oscillator,
1067:.\Generated_Source\PSoC5/CyLib.c **** *  so it must also be running in order to generate the 33 KHz output.
1068:.\Generated_Source\PSoC5/CyLib.c **** *
1069:.\Generated_Source\PSoC5/CyLib.c **** * Parameters:
1070:.\Generated_Source\PSoC5/CyLib.c **** *  None
1071:.\Generated_Source\PSoC5/CyLib.c **** *
1072:.\Generated_Source\PSoC5/CyLib.c **** * Return:
1073:.\Generated_Source\PSoC5/CyLib.c **** *  None
1074:.\Generated_Source\PSoC5/CyLib.c **** *
1075:.\Generated_Source\PSoC5/CyLib.c **** *******************************************************************************/
1076:.\Generated_Source\PSoC5/CyLib.c **** void CyILO_Enable33K(void) 
1077:.\Generated_Source\PSoC5/CyLib.c **** {
 746              		.loc 1 1077 0
 747              		.cfi_startproc
 748              		@ args = 0, pretend = 0, frame = 0
 749              		@ frame_needed = 0, uses_anonymous_args = 0
 750              		@ link register save eliminated.
1078:.\Generated_Source\PSoC5/CyLib.c ****     /* Set bit 5 of ILO RS */
1079:.\Generated_Source\PSoC5/CyLib.c ****     CY_LIB_SLOWCLK_ILO_CR0_REG |= CY_LIB_SLOWCLK_ILO_CR0_EN_33KHZ;
 751              		.loc 1 1079 0
ARM GAS  C:\Users\cps\AppData\Local\Temp\ccxVhvgg.s 			page 34


 752 0000 024A     		ldr	r2, .L75
 753 0002 1378     		ldrb	r3, [r2]	@ zero_extendqisi2
 754 0004 43F02003 		orr	r3, r3, #32
 755 0008 1370     		strb	r3, [r2]
 756 000a 7047     		bx	lr
 757              	.L76:
 758              		.align	2
 759              	.L75:
 760 000c 00430040 		.word	1073758976
 761              		.cfi_endproc
 762              	.LFE21:
 763              		.size	CyILO_Enable33K, .-CyILO_Enable33K
 764              		.section	.text.CyILO_Disable33K,"ax",%progbits
 765              		.align	2
 766              		.global	CyILO_Disable33K
 767              		.thumb
 768              		.thumb_func
 769              		.type	CyILO_Disable33K, %function
 770              	CyILO_Disable33K:
 771              	.LFB22:
1080:.\Generated_Source\PSoC5/CyLib.c **** }
1081:.\Generated_Source\PSoC5/CyLib.c **** 
1082:.\Generated_Source\PSoC5/CyLib.c **** 
1083:.\Generated_Source\PSoC5/CyLib.c **** /*******************************************************************************
1084:.\Generated_Source\PSoC5/CyLib.c **** * Function Name: CyILO_Disable33K
1085:.\Generated_Source\PSoC5/CyLib.c **** ********************************************************************************
1086:.\Generated_Source\PSoC5/CyLib.c **** *
1087:.\Generated_Source\PSoC5/CyLib.c **** * Summary:
1088:.\Generated_Source\PSoC5/CyLib.c **** *  Disables the ILO 33 KHz divider.
1089:.\Generated_Source\PSoC5/CyLib.c **** *
1090:.\Generated_Source\PSoC5/CyLib.c **** *  Note that the 33 KHz clock is generated from the 100 KHz oscillator, but this
1091:.\Generated_Source\PSoC5/CyLib.c **** *  API does not disable the 100 KHz clock.
1092:.\Generated_Source\PSoC5/CyLib.c **** *
1093:.\Generated_Source\PSoC5/CyLib.c **** * Parameters:
1094:.\Generated_Source\PSoC5/CyLib.c **** *  None
1095:.\Generated_Source\PSoC5/CyLib.c **** *
1096:.\Generated_Source\PSoC5/CyLib.c **** * Return:
1097:.\Generated_Source\PSoC5/CyLib.c **** *  None
1098:.\Generated_Source\PSoC5/CyLib.c **** *
1099:.\Generated_Source\PSoC5/CyLib.c **** *******************************************************************************/
1100:.\Generated_Source\PSoC5/CyLib.c **** void CyILO_Disable33K(void) 
1101:.\Generated_Source\PSoC5/CyLib.c **** {
 772              		.loc 1 1101 0
 773              		.cfi_startproc
 774              		@ args = 0, pretend = 0, frame = 0
 775              		@ frame_needed = 0, uses_anonymous_args = 0
 776              		@ link register save eliminated.
1102:.\Generated_Source\PSoC5/CyLib.c ****     CY_LIB_SLOWCLK_ILO_CR0_REG &= ((uint8)(~CY_LIB_SLOWCLK_ILO_CR0_EN_33KHZ));
 777              		.loc 1 1102 0
 778 0000 024A     		ldr	r2, .L78
 779 0002 1378     		ldrb	r3, [r2]	@ zero_extendqisi2
 780 0004 03F0DF03 		and	r3, r3, #223
 781 0008 1370     		strb	r3, [r2]
 782 000a 7047     		bx	lr
 783              	.L79:
 784              		.align	2
 785              	.L78:
ARM GAS  C:\Users\cps\AppData\Local\Temp\ccxVhvgg.s 			page 35


 786 000c 00430040 		.word	1073758976
 787              		.cfi_endproc
 788              	.LFE22:
 789              		.size	CyILO_Disable33K, .-CyILO_Disable33K
 790              		.section	.text.CyILO_SetSource,"ax",%progbits
 791              		.align	2
 792              		.global	CyILO_SetSource
 793              		.thumb
 794              		.thumb_func
 795              		.type	CyILO_SetSource, %function
 796              	CyILO_SetSource:
 797              	.LFB23:
1103:.\Generated_Source\PSoC5/CyLib.c **** }
1104:.\Generated_Source\PSoC5/CyLib.c **** 
1105:.\Generated_Source\PSoC5/CyLib.c **** 
1106:.\Generated_Source\PSoC5/CyLib.c **** /*******************************************************************************
1107:.\Generated_Source\PSoC5/CyLib.c **** * Function Name: CyILO_SetSource
1108:.\Generated_Source\PSoC5/CyLib.c **** ********************************************************************************
1109:.\Generated_Source\PSoC5/CyLib.c **** *
1110:.\Generated_Source\PSoC5/CyLib.c **** * Summary:
1111:.\Generated_Source\PSoC5/CyLib.c **** *  Sets the source of the clock output from the ILO block.
1112:.\Generated_Source\PSoC5/CyLib.c **** *
1113:.\Generated_Source\PSoC5/CyLib.c **** * Parameters:
1114:.\Generated_Source\PSoC5/CyLib.c **** *  source: One of the three available ILO output sources
1115:.\Generated_Source\PSoC5/CyLib.c **** *       Value        Define                Source
1116:.\Generated_Source\PSoC5/CyLib.c **** *       0            CY_ILO_SOURCE_100K    ILO 100 KHz
1117:.\Generated_Source\PSoC5/CyLib.c **** *       1            CY_ILO_SOURCE_33K     ILO 33 KHz
1118:.\Generated_Source\PSoC5/CyLib.c **** *       2            CY_ILO_SOURCE_1K      ILO 1 KHz
1119:.\Generated_Source\PSoC5/CyLib.c **** *
1120:.\Generated_Source\PSoC5/CyLib.c **** * Return:
1121:.\Generated_Source\PSoC5/CyLib.c **** *  None
1122:.\Generated_Source\PSoC5/CyLib.c **** *
1123:.\Generated_Source\PSoC5/CyLib.c **** *******************************************************************************/
1124:.\Generated_Source\PSoC5/CyLib.c **** void CyILO_SetSource(uint8 source) 
1125:.\Generated_Source\PSoC5/CyLib.c **** {
 798              		.loc 1 1125 0
 799              		.cfi_startproc
 800              		@ args = 0, pretend = 0, frame = 0
 801              		@ frame_needed = 0, uses_anonymous_args = 0
 802              		@ link register save eliminated.
 803              	.LVL46:
1126:.\Generated_Source\PSoC5/CyLib.c ****     CY_LIB_CLKDIST_CR_REG = (CY_LIB_CLKDIST_CR_REG & CY_ILO_SOURCE_BITS_CLEAR) |
 804              		.loc 1 1126 0
 805 0000 4FF04022 		mov	r2, #1073758208
 806 0004 1378     		ldrb	r3, [r2]	@ zero_extendqisi2
1127:.\Generated_Source\PSoC5/CyLib.c ****                     (((uint8) (source << 2u)) & ((uint8)(~CY_ILO_SOURCE_BITS_CLEAR)));
 807              		.loc 1 1127 0
 808 0006 8000     		lsls	r0, r0, #2
 809              	.LVL47:
1126:.\Generated_Source\PSoC5/CyLib.c ****     CY_LIB_CLKDIST_CR_REG = (CY_LIB_CLKDIST_CR_REG & CY_ILO_SOURCE_BITS_CLEAR) |
 810              		.loc 1 1126 0
 811 0008 03F0F303 		and	r3, r3, #243
 812 000c 00F00C00 		and	r0, r0, #12
 813 0010 1843     		orrs	r0, r0, r3
 814 0012 1070     		strb	r0, [r2]
 815 0014 7047     		bx	lr
 816              		.cfi_endproc
ARM GAS  C:\Users\cps\AppData\Local\Temp\ccxVhvgg.s 			page 36


 817              	.LFE23:
 818              		.size	CyILO_SetSource, .-CyILO_SetSource
 819 0016 00BF     		.section	.text.CyILO_SetPowerMode,"ax",%progbits
 820              		.align	2
 821              		.global	CyILO_SetPowerMode
 822              		.thumb
 823              		.thumb_func
 824              		.type	CyILO_SetPowerMode, %function
 825              	CyILO_SetPowerMode:
 826              	.LFB24:
1128:.\Generated_Source\PSoC5/CyLib.c **** }
1129:.\Generated_Source\PSoC5/CyLib.c **** 
1130:.\Generated_Source\PSoC5/CyLib.c **** 
1131:.\Generated_Source\PSoC5/CyLib.c **** /*******************************************************************************
1132:.\Generated_Source\PSoC5/CyLib.c **** * Function Name: CyILO_SetPowerMode
1133:.\Generated_Source\PSoC5/CyLib.c **** ********************************************************************************
1134:.\Generated_Source\PSoC5/CyLib.c **** *
1135:.\Generated_Source\PSoC5/CyLib.c **** * Summary:
1136:.\Generated_Source\PSoC5/CyLib.c **** *  Sets the power mode used by the ILO during power down. Allows for lower power
1137:.\Generated_Source\PSoC5/CyLib.c **** *  down power usage resulting in a slower startup time.
1138:.\Generated_Source\PSoC5/CyLib.c **** *
1139:.\Generated_Source\PSoC5/CyLib.c **** * Parameters:
1140:.\Generated_Source\PSoC5/CyLib.c **** *  uint8 mode
1141:.\Generated_Source\PSoC5/CyLib.c **** *   CY_ILO_FAST_START - Faster start-up, internal bias left on when powered down
1142:.\Generated_Source\PSoC5/CyLib.c **** *   CY_ILO_SLOW_START - Slower start-up, internal bias off when powered down
1143:.\Generated_Source\PSoC5/CyLib.c **** *
1144:.\Generated_Source\PSoC5/CyLib.c **** * Return:
1145:.\Generated_Source\PSoC5/CyLib.c **** *   Prevous power mode state.
1146:.\Generated_Source\PSoC5/CyLib.c **** *
1147:.\Generated_Source\PSoC5/CyLib.c **** *******************************************************************************/
1148:.\Generated_Source\PSoC5/CyLib.c **** uint8 CyILO_SetPowerMode(uint8 mode) 
1149:.\Generated_Source\PSoC5/CyLib.c **** {
 827              		.loc 1 1149 0
 828              		.cfi_startproc
 829              		@ args = 0, pretend = 0, frame = 0
 830              		@ frame_needed = 0, uses_anonymous_args = 0
 831              		@ link register save eliminated.
 832              	.LVL48:
1150:.\Generated_Source\PSoC5/CyLib.c ****     uint8 state;
1151:.\Generated_Source\PSoC5/CyLib.c **** 
1152:.\Generated_Source\PSoC5/CyLib.c ****     /* Get current state. */
1153:.\Generated_Source\PSoC5/CyLib.c ****     state = CY_LIB_SLOWCLK_ILO_CR0_REG;
 833              		.loc 1 1153 0
 834 0000 074B     		ldr	r3, .L84
 835 0002 1B78     		ldrb	r3, [r3]	@ zero_extendqisi2
 836 0004 DBB2     		uxtb	r3, r3
 837              	.LVL49:
1154:.\Generated_Source\PSoC5/CyLib.c **** 
1155:.\Generated_Source\PSoC5/CyLib.c ****     /* Set the oscillator power mode. */
1156:.\Generated_Source\PSoC5/CyLib.c ****     if(mode != CY_ILO_FAST_START)
 838              		.loc 1 1156 0
 839 0006 20B1     		cbz	r0, .L82
1157:.\Generated_Source\PSoC5/CyLib.c ****     {
1158:.\Generated_Source\PSoC5/CyLib.c ****         CY_LIB_SLOWCLK_ILO_CR0_REG = (state | CY_ILO_CONTROL_PD_MODE);
 840              		.loc 1 1158 0
 841 0008 43F01002 		orr	r2, r3, #16
 842 000c 0449     		ldr	r1, .L84
ARM GAS  C:\Users\cps\AppData\Local\Temp\ccxVhvgg.s 			page 37


 843 000e 0A70     		strb	r2, [r1]
 844 0010 03E0     		b	.L83
 845              	.L82:
1159:.\Generated_Source\PSoC5/CyLib.c ****     }
1160:.\Generated_Source\PSoC5/CyLib.c ****     else
1161:.\Generated_Source\PSoC5/CyLib.c ****     {
1162:.\Generated_Source\PSoC5/CyLib.c ****         CY_LIB_SLOWCLK_ILO_CR0_REG = (state & ((uint8)(~CY_ILO_CONTROL_PD_MODE)));
 846              		.loc 1 1162 0
 847 0012 03F0EF02 		and	r2, r3, #239
 848 0016 0249     		ldr	r1, .L84
 849 0018 0A70     		strb	r2, [r1]
 850              	.L83:
1163:.\Generated_Source\PSoC5/CyLib.c ****     }
1164:.\Generated_Source\PSoC5/CyLib.c **** 
1165:.\Generated_Source\PSoC5/CyLib.c ****     /* Return old mode. */
1166:.\Generated_Source\PSoC5/CyLib.c ****     return ((state & CY_ILO_CONTROL_PD_MODE) >> CY_ILO_CONTROL_PD_POSITION);
1167:.\Generated_Source\PSoC5/CyLib.c **** }
 851              		.loc 1 1167 0
 852 001a C3F30010 		ubfx	r0, r3, #4, #1
 853              	.LVL50:
 854 001e 7047     		bx	lr
 855              	.L85:
 856              		.align	2
 857              	.L84:
 858 0020 00430040 		.word	1073758976
 859              		.cfi_endproc
 860              	.LFE24:
 861              		.size	CyILO_SetPowerMode, .-CyILO_SetPowerMode
 862              		.section	.text.CyXTAL_32KHZ_Stop,"ax",%progbits
 863              		.align	2
 864              		.global	CyXTAL_32KHZ_Stop
 865              		.thumb
 866              		.thumb_func
 867              		.type	CyXTAL_32KHZ_Stop, %function
 868              	CyXTAL_32KHZ_Stop:
 869              	.LFB26:
1168:.\Generated_Source\PSoC5/CyLib.c **** 
1169:.\Generated_Source\PSoC5/CyLib.c **** 
1170:.\Generated_Source\PSoC5/CyLib.c **** /*******************************************************************************
1171:.\Generated_Source\PSoC5/CyLib.c **** * Function Name: CyXTAL_32KHZ_Start
1172:.\Generated_Source\PSoC5/CyLib.c **** ********************************************************************************
1173:.\Generated_Source\PSoC5/CyLib.c **** *
1174:.\Generated_Source\PSoC5/CyLib.c **** * Summary:
1175:.\Generated_Source\PSoC5/CyLib.c **** *  Enables the 32 KHz Crystal Oscillator.
1176:.\Generated_Source\PSoC5/CyLib.c **** *
1177:.\Generated_Source\PSoC5/CyLib.c **** * Parameters:
1178:.\Generated_Source\PSoC5/CyLib.c **** *  None
1179:.\Generated_Source\PSoC5/CyLib.c **** *
1180:.\Generated_Source\PSoC5/CyLib.c **** * Return:
1181:.\Generated_Source\PSoC5/CyLib.c **** *  None
1182:.\Generated_Source\PSoC5/CyLib.c **** *
1183:.\Generated_Source\PSoC5/CyLib.c **** *******************************************************************************/
1184:.\Generated_Source\PSoC5/CyLib.c **** void CyXTAL_32KHZ_Start(void) 
1185:.\Generated_Source\PSoC5/CyLib.c **** {
1186:.\Generated_Source\PSoC5/CyLib.c ****     volatile uint16 i;
1187:.\Generated_Source\PSoC5/CyLib.c **** 
1188:.\Generated_Source\PSoC5/CyLib.c ****     CY_CLK_XTAL32_TST_REG = CY_CLK_XTAL32_TST_DEFAULT;
ARM GAS  C:\Users\cps\AppData\Local\Temp\ccxVhvgg.s 			page 38


1189:.\Generated_Source\PSoC5/CyLib.c ****     CY_CLK_XTAL32_TR_REG  = CY_CLK_XTAL32_TR_STARTUP;
1190:.\Generated_Source\PSoC5/CyLib.c ****     CY_CLK_XTAL32_CFG_REG = (CY_CLK_XTAL32_CFG_REG & ((uint8)(~CY_CLK_XTAL32_CFG_LP_MASK))) |
1191:.\Generated_Source\PSoC5/CyLib.c ****                                 CY_CLK_XTAL32_CFG_LP_DEFAULT;
1192:.\Generated_Source\PSoC5/CyLib.c **** 
1193:.\Generated_Source\PSoC5/CyLib.c ****     #if(CY_PSOC3)
1194:.\Generated_Source\PSoC5/CyLib.c ****         CY_CLK_XTAL32_CR_REG |= CY_CLK_XTAL32_CR_PDBEN;
1195:.\Generated_Source\PSoC5/CyLib.c ****     #endif  /* (CY_PSOC3) */
1196:.\Generated_Source\PSoC5/CyLib.c **** 
1197:.\Generated_Source\PSoC5/CyLib.c ****     /* Enable operation of 32K Crystal Oscillator */
1198:.\Generated_Source\PSoC5/CyLib.c ****     CY_CLK_XTAL32_CR_REG |= CY_CLK_XTAL32_CR_EN;
1199:.\Generated_Source\PSoC5/CyLib.c **** 
1200:.\Generated_Source\PSoC5/CyLib.c ****     for (i = 1000u; i > 0u; i--)
1201:.\Generated_Source\PSoC5/CyLib.c ****     {
1202:.\Generated_Source\PSoC5/CyLib.c ****         if(0u != (CyXTAL_32KHZ_ReadStatus() & CY_XTAL32K_ANA_STAT))
1203:.\Generated_Source\PSoC5/CyLib.c ****         {
1204:.\Generated_Source\PSoC5/CyLib.c ****             /* Ready - switch to high power mode */
1205:.\Generated_Source\PSoC5/CyLib.c ****             (void) CyXTAL_32KHZ_SetPowerMode(0u);
1206:.\Generated_Source\PSoC5/CyLib.c **** 
1207:.\Generated_Source\PSoC5/CyLib.c ****             break;
1208:.\Generated_Source\PSoC5/CyLib.c ****         }
1209:.\Generated_Source\PSoC5/CyLib.c ****         CyDelayUs(1u);
1210:.\Generated_Source\PSoC5/CyLib.c ****     }
1211:.\Generated_Source\PSoC5/CyLib.c **** }
1212:.\Generated_Source\PSoC5/CyLib.c **** 
1213:.\Generated_Source\PSoC5/CyLib.c **** 
1214:.\Generated_Source\PSoC5/CyLib.c **** /*******************************************************************************
1215:.\Generated_Source\PSoC5/CyLib.c **** * Function Name: CyXTAL_32KHZ_Stop
1216:.\Generated_Source\PSoC5/CyLib.c **** ********************************************************************************
1217:.\Generated_Source\PSoC5/CyLib.c **** *
1218:.\Generated_Source\PSoC5/CyLib.c **** * Summary:
1219:.\Generated_Source\PSoC5/CyLib.c **** *  Disables the 32KHz Crystal Oscillator.
1220:.\Generated_Source\PSoC5/CyLib.c **** *
1221:.\Generated_Source\PSoC5/CyLib.c **** * Parameters:
1222:.\Generated_Source\PSoC5/CyLib.c **** *  None
1223:.\Generated_Source\PSoC5/CyLib.c **** *
1224:.\Generated_Source\PSoC5/CyLib.c **** * Return:
1225:.\Generated_Source\PSoC5/CyLib.c **** *  None
1226:.\Generated_Source\PSoC5/CyLib.c **** *
1227:.\Generated_Source\PSoC5/CyLib.c **** *******************************************************************************/
1228:.\Generated_Source\PSoC5/CyLib.c **** void CyXTAL_32KHZ_Stop(void) 
1229:.\Generated_Source\PSoC5/CyLib.c **** {
 870              		.loc 1 1229 0
 871              		.cfi_startproc
 872              		@ args = 0, pretend = 0, frame = 0
 873              		@ frame_needed = 0, uses_anonymous_args = 0
 874              		@ link register save eliminated.
1230:.\Generated_Source\PSoC5/CyLib.c ****     CY_CLK_XTAL32_TST_REG  = CY_CLK_XTAL32_TST_DEFAULT;
 875              		.loc 1 1230 0
 876 0000 F322     		movs	r2, #243
 877 0002 094B     		ldr	r3, .L87
 878 0004 1A70     		strb	r2, [r3]
1231:.\Generated_Source\PSoC5/CyLib.c ****     CY_CLK_XTAL32_TR_REG   = CY_CLK_XTAL32_TR_POWERDOWN;
 879              		.loc 1 1231 0
 880 0006 0022     		movs	r2, #0
 881 0008 03F28E33 		addw	r3, r3, #910
 882 000c 1A70     		strb	r2, [r3]
1232:.\Generated_Source\PSoC5/CyLib.c ****     CY_CLK_XTAL32_CFG_REG = (CY_CLK_XTAL32_CFG_REG & ((uint8)(~CY_CLK_XTAL32_CFG_LP_MASK))) |
ARM GAS  C:\Users\cps\AppData\Local\Temp\ccxVhvgg.s 			page 39


 883              		.loc 1 1232 0
 884 000e 074A     		ldr	r2, .L87+4
 885 0010 1378     		ldrb	r3, [r2]	@ zero_extendqisi2
 886 0012 03F0F303 		and	r3, r3, #243
 887 0016 43F00403 		orr	r3, r3, #4
 888 001a 1370     		strb	r3, [r2]
1233:.\Generated_Source\PSoC5/CyLib.c ****                              CY_CLK_XTAL32_CFG_LP_DEFAULT;
1234:.\Generated_Source\PSoC5/CyLib.c ****     CY_CLK_XTAL32_CR_REG &= ((uint8)(~(CY_CLK_XTAL32_CR_EN | CY_CLK_XTAL32_CR_LPM)));
 889              		.loc 1 1234 0
 890 001c 013A     		subs	r2, r2, #1
 891 001e 1378     		ldrb	r3, [r2]	@ zero_extendqisi2
 892 0020 03F0FC03 		and	r3, r3, #252
 893 0024 1370     		strb	r3, [r2]
 894 0026 7047     		bx	lr
 895              	.L88:
 896              		.align	2
 897              	.L87:
 898 0028 0A430040 		.word	1073758986
 899 002c 09430040 		.word	1073758985
 900              		.cfi_endproc
 901              	.LFE26:
 902              		.size	CyXTAL_32KHZ_Stop, .-CyXTAL_32KHZ_Stop
 903              		.section	.text.CyXTAL_32KHZ_ReadStatus,"ax",%progbits
 904              		.align	2
 905              		.global	CyXTAL_32KHZ_ReadStatus
 906              		.thumb
 907              		.thumb_func
 908              		.type	CyXTAL_32KHZ_ReadStatus, %function
 909              	CyXTAL_32KHZ_ReadStatus:
 910              	.LFB27:
1235:.\Generated_Source\PSoC5/CyLib.c **** 
1236:.\Generated_Source\PSoC5/CyLib.c ****     #if(CY_PSOC3)
1237:.\Generated_Source\PSoC5/CyLib.c ****         CY_CLK_XTAL32_CR_REG &= ((uint8)(~CY_CLK_XTAL32_CR_PDBEN));
1238:.\Generated_Source\PSoC5/CyLib.c ****     #endif  /* (CY_PSOC3) */
1239:.\Generated_Source\PSoC5/CyLib.c **** }
1240:.\Generated_Source\PSoC5/CyLib.c **** 
1241:.\Generated_Source\PSoC5/CyLib.c **** 
1242:.\Generated_Source\PSoC5/CyLib.c **** /*******************************************************************************
1243:.\Generated_Source\PSoC5/CyLib.c **** * Function Name: CyXTAL_32KHZ_ReadStatus
1244:.\Generated_Source\PSoC5/CyLib.c **** ********************************************************************************
1245:.\Generated_Source\PSoC5/CyLib.c **** *
1246:.\Generated_Source\PSoC5/CyLib.c **** * Summary:
1247:.\Generated_Source\PSoC5/CyLib.c **** *  Returns status of the 32 KHz oscillator.
1248:.\Generated_Source\PSoC5/CyLib.c **** *
1249:.\Generated_Source\PSoC5/CyLib.c **** * Parameters:
1250:.\Generated_Source\PSoC5/CyLib.c **** *  None
1251:.\Generated_Source\PSoC5/CyLib.c **** *
1252:.\Generated_Source\PSoC5/CyLib.c **** * Return:
1253:.\Generated_Source\PSoC5/CyLib.c **** *  Value     Define                    Source
1254:.\Generated_Source\PSoC5/CyLib.c **** *  20        CY_XTAL32K_ANA_STAT       Analog measurement
1255:.\Generated_Source\PSoC5/CyLib.c **** *                                       1: Stable
1256:.\Generated_Source\PSoC5/CyLib.c **** *                                       0: Not stable
1257:.\Generated_Source\PSoC5/CyLib.c **** *
1258:.\Generated_Source\PSoC5/CyLib.c **** *******************************************************************************/
1259:.\Generated_Source\PSoC5/CyLib.c **** uint8 CyXTAL_32KHZ_ReadStatus(void) 
1260:.\Generated_Source\PSoC5/CyLib.c **** {
 911              		.loc 1 1260 0
ARM GAS  C:\Users\cps\AppData\Local\Temp\ccxVhvgg.s 			page 40


 912              		.cfi_startproc
 913              		@ args = 0, pretend = 0, frame = 0
 914              		@ frame_needed = 0, uses_anonymous_args = 0
 915              		@ link register save eliminated.
1261:.\Generated_Source\PSoC5/CyLib.c ****     return(CY_CLK_XTAL32_CR_REG & CY_XTAL32K_ANA_STAT);
 916              		.loc 1 1261 0
 917 0000 024B     		ldr	r3, .L90
 918 0002 1878     		ldrb	r0, [r3]	@ zero_extendqisi2
1262:.\Generated_Source\PSoC5/CyLib.c **** }
 919              		.loc 1 1262 0
 920 0004 00F02000 		and	r0, r0, #32
 921 0008 7047     		bx	lr
 922              	.L91:
 923 000a 00BF     		.align	2
 924              	.L90:
 925 000c 08430040 		.word	1073758984
 926              		.cfi_endproc
 927              	.LFE27:
 928              		.size	CyXTAL_32KHZ_ReadStatus, .-CyXTAL_32KHZ_ReadStatus
 929              		.section	.text.CyXTAL_Start,"ax",%progbits
 930              		.align	2
 931              		.global	CyXTAL_Start
 932              		.thumb
 933              		.thumb_func
 934              		.type	CyXTAL_Start, %function
 935              	CyXTAL_Start:
 936              	.LFB29:
1263:.\Generated_Source\PSoC5/CyLib.c **** 
1264:.\Generated_Source\PSoC5/CyLib.c **** 
1265:.\Generated_Source\PSoC5/CyLib.c **** /*******************************************************************************
1266:.\Generated_Source\PSoC5/CyLib.c **** * Function Name: CyXTAL_32KHZ_SetPowerMode
1267:.\Generated_Source\PSoC5/CyLib.c **** ********************************************************************************
1268:.\Generated_Source\PSoC5/CyLib.c **** *
1269:.\Generated_Source\PSoC5/CyLib.c **** * Summary:
1270:.\Generated_Source\PSoC5/CyLib.c **** *  Sets the power mode for the 32 KHz oscillator used during the sleep mode.
1271:.\Generated_Source\PSoC5/CyLib.c **** *  Allows for lower power during sleep when there are fewer sources of noise.
1272:.\Generated_Source\PSoC5/CyLib.c **** *  During the active mode the oscillator is always run in the high power mode.
1273:.\Generated_Source\PSoC5/CyLib.c **** *
1274:.\Generated_Source\PSoC5/CyLib.c **** * Parameters:
1275:.\Generated_Source\PSoC5/CyLib.c **** *  uint8 mode
1276:.\Generated_Source\PSoC5/CyLib.c **** *       0: High power mode
1277:.\Generated_Source\PSoC5/CyLib.c **** *       1: Low power mode during sleep
1278:.\Generated_Source\PSoC5/CyLib.c **** *
1279:.\Generated_Source\PSoC5/CyLib.c **** * Return:
1280:.\Generated_Source\PSoC5/CyLib.c **** *  Previous power mode.
1281:.\Generated_Source\PSoC5/CyLib.c **** *
1282:.\Generated_Source\PSoC5/CyLib.c **** *******************************************************************************/
1283:.\Generated_Source\PSoC5/CyLib.c **** uint8 CyXTAL_32KHZ_SetPowerMode(uint8 mode) 
1284:.\Generated_Source\PSoC5/CyLib.c **** {
1285:.\Generated_Source\PSoC5/CyLib.c ****     uint8 state = (0u != (CY_CLK_XTAL32_CR_REG & CY_CLK_XTAL32_CR_LPM)) ? 1u : 0u;
1286:.\Generated_Source\PSoC5/CyLib.c **** 
1287:.\Generated_Source\PSoC5/CyLib.c ****     CY_CLK_XTAL32_TST_REG = CY_CLK_XTAL32_TST_DEFAULT;
1288:.\Generated_Source\PSoC5/CyLib.c **** 
1289:.\Generated_Source\PSoC5/CyLib.c ****     if(1u == mode)
1290:.\Generated_Source\PSoC5/CyLib.c ****     {
1291:.\Generated_Source\PSoC5/CyLib.c ****         /* Low power mode during Sleep */
1292:.\Generated_Source\PSoC5/CyLib.c ****         CY_CLK_XTAL32_TR_REG  = CY_CLK_XTAL32_TR_LOW_POWER;
ARM GAS  C:\Users\cps\AppData\Local\Temp\ccxVhvgg.s 			page 41


1293:.\Generated_Source\PSoC5/CyLib.c ****         CyDelayUs(10u);
1294:.\Generated_Source\PSoC5/CyLib.c ****         CY_CLK_XTAL32_CFG_REG = (CY_CLK_XTAL32_CFG_REG & ((uint8)(~CY_CLK_XTAL32_CFG_LP_MASK))) |
1295:.\Generated_Source\PSoC5/CyLib.c ****                                 CY_CLK_XTAL32_CFG_LP_LOWPOWER;
1296:.\Generated_Source\PSoC5/CyLib.c ****         CyDelayUs(20u);
1297:.\Generated_Source\PSoC5/CyLib.c ****         CY_CLK_XTAL32_CR_REG |= CY_CLK_XTAL32_CR_LPM;
1298:.\Generated_Source\PSoC5/CyLib.c ****     }
1299:.\Generated_Source\PSoC5/CyLib.c ****     else
1300:.\Generated_Source\PSoC5/CyLib.c ****     {
1301:.\Generated_Source\PSoC5/CyLib.c ****         /* High power mode */
1302:.\Generated_Source\PSoC5/CyLib.c ****         CY_CLK_XTAL32_TR_REG  = CY_CLK_XTAL32_TR_HIGH_POWER;
1303:.\Generated_Source\PSoC5/CyLib.c ****         CyDelayUs(10u);
1304:.\Generated_Source\PSoC5/CyLib.c ****         CY_CLK_XTAL32_CFG_REG = (CY_CLK_XTAL32_CFG_REG & ((uint8)(~CY_CLK_XTAL32_CFG_LP_MASK))) |
1305:.\Generated_Source\PSoC5/CyLib.c ****                                 CY_CLK_XTAL32_CFG_LP_DEFAULT;
1306:.\Generated_Source\PSoC5/CyLib.c ****         CY_CLK_XTAL32_CR_REG &= ((uint8)(~CY_CLK_XTAL32_CR_LPM));
1307:.\Generated_Source\PSoC5/CyLib.c ****     }
1308:.\Generated_Source\PSoC5/CyLib.c **** 
1309:.\Generated_Source\PSoC5/CyLib.c ****     return(state);
1310:.\Generated_Source\PSoC5/CyLib.c **** }
1311:.\Generated_Source\PSoC5/CyLib.c **** 
1312:.\Generated_Source\PSoC5/CyLib.c **** 
1313:.\Generated_Source\PSoC5/CyLib.c **** /*******************************************************************************
1314:.\Generated_Source\PSoC5/CyLib.c **** * Function Name: CyXTAL_Start
1315:.\Generated_Source\PSoC5/CyLib.c **** ********************************************************************************
1316:.\Generated_Source\PSoC5/CyLib.c **** *
1317:.\Generated_Source\PSoC5/CyLib.c **** * Summary:
1318:.\Generated_Source\PSoC5/CyLib.c **** *  Enables the megahertz crystal.
1319:.\Generated_Source\PSoC5/CyLib.c **** *
1320:.\Generated_Source\PSoC5/CyLib.c **** *  PSoC 3:
1321:.\Generated_Source\PSoC5/CyLib.c **** *  Waits until the XERR bit is low (no error) for a millisecond or until the
1322:.\Generated_Source\PSoC5/CyLib.c **** *  number of milliseconds specified by the wait parameter has expired.
1323:.\Generated_Source\PSoC5/CyLib.c **** *
1324:.\Generated_Source\PSoC5/CyLib.c **** * Parameters:
1325:.\Generated_Source\PSoC5/CyLib.c **** *   wait: Valid range [0-255].
1326:.\Generated_Source\PSoC5/CyLib.c **** *   This is the timeout value in milliseconds.
1327:.\Generated_Source\PSoC5/CyLib.c **** *   The appropriate value is crystal specific.
1328:.\Generated_Source\PSoC5/CyLib.c **** *
1329:.\Generated_Source\PSoC5/CyLib.c **** * Return:
1330:.\Generated_Source\PSoC5/CyLib.c **** *   CYRET_SUCCESS - Completed successfully
1331:.\Generated_Source\PSoC5/CyLib.c **** *   CYRET_TIMEOUT - Timeout occurred without detecting a low value on XERR.
1332:.\Generated_Source\PSoC5/CyLib.c **** *
1333:.\Generated_Source\PSoC5/CyLib.c **** * Side Effects and Restrictions:
1334:.\Generated_Source\PSoC5/CyLib.c **** *  If wait is enabled (non-zero wait). Uses the Fast Timewheel to time the wait.
1335:.\Generated_Source\PSoC5/CyLib.c **** *  Any other use of the Fast Timewheel (FTW) will be stopped during the period
1336:.\Generated_Source\PSoC5/CyLib.c **** *  of this function and then restored.
1337:.\Generated_Source\PSoC5/CyLib.c **** *
1338:.\Generated_Source\PSoC5/CyLib.c **** *  Uses the 100KHz ILO.  If not enabled, this function will enable the 100KHz
1339:.\Generated_Source\PSoC5/CyLib.c **** *  ILO for the period of this function. No changes to the setup of the ILO,
1340:.\Generated_Source\PSoC5/CyLib.c **** *  Fast Timewheel, Central Timewheel or Once Per Second interrupt may be made
1341:.\Generated_Source\PSoC5/CyLib.c **** *  by interrupt routines during the period of this function.
1342:.\Generated_Source\PSoC5/CyLib.c **** *
1343:.\Generated_Source\PSoC5/CyLib.c **** *  The current operation of the ILO, Central Timewheel and Once Per Second
1344:.\Generated_Source\PSoC5/CyLib.c **** *  interrupt are maintained during the operation of this function provided the
1345:.\Generated_Source\PSoC5/CyLib.c **** *  reading of the Power Manager Interrupt Status Register is only done using the
1346:.\Generated_Source\PSoC5/CyLib.c **** *  CyPmReadStatus() function.
1347:.\Generated_Source\PSoC5/CyLib.c **** *
1348:.\Generated_Source\PSoC5/CyLib.c **** *******************************************************************************/
1349:.\Generated_Source\PSoC5/CyLib.c **** cystatus CyXTAL_Start(uint8 wait) 
ARM GAS  C:\Users\cps\AppData\Local\Temp\ccxVhvgg.s 			page 42


1350:.\Generated_Source\PSoC5/CyLib.c **** {
 937              		.loc 1 1350 0
 938              		.cfi_startproc
 939              		@ args = 0, pretend = 0, frame = 8
 940              		@ frame_needed = 0, uses_anonymous_args = 0
 941              	.LVL51:
 942 0000 F0B5     		push	{r4, r5, r6, r7, lr}
 943              		.cfi_def_cfa_offset 20
 944              		.cfi_offset 4, -20
 945              		.cfi_offset 5, -16
 946              		.cfi_offset 6, -12
 947              		.cfi_offset 7, -8
 948              		.cfi_offset 14, -4
 949 0002 83B0     		sub	sp, sp, #12
 950              		.cfi_def_cfa_offset 32
 951              	.LVL52:
1351:.\Generated_Source\PSoC5/CyLib.c ****     cystatus status = CYRET_SUCCESS;
1352:.\Generated_Source\PSoC5/CyLib.c ****     volatile uint8  timeout = wait;
 952              		.loc 1 1352 0
 953 0004 8DF80700 		strb	r0, [sp, #7]
1353:.\Generated_Source\PSoC5/CyLib.c ****     volatile uint8 count;
1354:.\Generated_Source\PSoC5/CyLib.c ****     uint8 iloEnableState;
1355:.\Generated_Source\PSoC5/CyLib.c ****     uint8 pmTwCfg0Tmp;
1356:.\Generated_Source\PSoC5/CyLib.c ****     uint8 pmTwCfg2Tmp;
1357:.\Generated_Source\PSoC5/CyLib.c **** 
1358:.\Generated_Source\PSoC5/CyLib.c **** 
1359:.\Generated_Source\PSoC5/CyLib.c ****     /* Enables MHz crystal oscillator circuit  */
1360:.\Generated_Source\PSoC5/CyLib.c ****     CY_CLK_XMHZ_CSR_REG |= CY_CLK_XMHZ_CSR_ENABLE;
 954              		.loc 1 1360 0
 955 0008 254A     		ldr	r2, .L103
 956 000a 1378     		ldrb	r3, [r2]	@ zero_extendqisi2
 957 000c 43F00103 		orr	r3, r3, #1
 958 0010 1370     		strb	r3, [r2]
1361:.\Generated_Source\PSoC5/CyLib.c **** 
1362:.\Generated_Source\PSoC5/CyLib.c **** 
1363:.\Generated_Source\PSoC5/CyLib.c ****     if(wait > 0u)
 959              		.loc 1 1363 0
 960 0012 0028     		cmp	r0, #0
 961 0014 40D0     		beq	.L100
1364:.\Generated_Source\PSoC5/CyLib.c ****     {
1365:.\Generated_Source\PSoC5/CyLib.c ****         /* Save 100 KHz ILO, FTW interval, enable and interrupt enable */
1366:.\Generated_Source\PSoC5/CyLib.c ****         iloEnableState = CY_LIB_SLOWCLK_ILO_CR0_REG;
 962              		.loc 1 1366 0
 963 0016 234B     		ldr	r3, .L103+4
 964 0018 1E78     		ldrb	r6, [r3]	@ zero_extendqisi2
 965 001a F6B2     		uxtb	r6, r6
 966              	.LVL53:
1367:.\Generated_Source\PSoC5/CyLib.c ****         pmTwCfg0Tmp = CY_LIB_PM_TW_CFG0_REG;
 967              		.loc 1 1367 0
 968 001c 8033     		adds	r3, r3, #128
 969 001e 1D78     		ldrb	r5, [r3]	@ zero_extendqisi2
 970 0020 EDB2     		uxtb	r5, r5
 971              	.LVL54:
1368:.\Generated_Source\PSoC5/CyLib.c ****         pmTwCfg2Tmp = CY_LIB_PM_TW_CFG2_REG;
 972              		.loc 1 1368 0
 973 0022 0233     		adds	r3, r3, #2
 974 0024 1C78     		ldrb	r4, [r3]	@ zero_extendqisi2
ARM GAS  C:\Users\cps\AppData\Local\Temp\ccxVhvgg.s 			page 43


 975 0026 E4B2     		uxtb	r4, r4
 976              	.LVL55:
1369:.\Generated_Source\PSoC5/CyLib.c **** 
1370:.\Generated_Source\PSoC5/CyLib.c ****         /* Set 250 us interval */
1371:.\Generated_Source\PSoC5/CyLib.c ****         CyPmFtwSetInterval(CY_CLK_XMHZ_FTW_INTERVAL);
 977              		.loc 1 1371 0
 978 0028 1820     		movs	r0, #24
 979              	.LVL56:
 980 002a FFF7FEFF 		bl	CyPmFtwSetInterval
 981              	.LVL57:
1372:.\Generated_Source\PSoC5/CyLib.c ****         status = CYRET_TIMEOUT;
1373:.\Generated_Source\PSoC5/CyLib.c **** 
1374:.\Generated_Source\PSoC5/CyLib.c **** 
1375:.\Generated_Source\PSoC5/CyLib.c ****         for( ; timeout > 0u; timeout--)
 982              		.loc 1 1375 0
 983 002e 21E0     		b	.L94
 984              	.L98:
1376:.\Generated_Source\PSoC5/CyLib.c ****         {
1377:.\Generated_Source\PSoC5/CyLib.c ****             /* Read XERR bit to clear it */
1378:.\Generated_Source\PSoC5/CyLib.c ****             (void) CY_CLK_XMHZ_CSR_REG;
 985              		.loc 1 1378 0
 986 0030 1B4B     		ldr	r3, .L103
 987 0032 1B78     		ldrb	r3, [r3]	@ zero_extendqisi2
1379:.\Generated_Source\PSoC5/CyLib.c **** 
1380:.\Generated_Source\PSoC5/CyLib.c ****             /* Wait for 1 millisecond - 4 x 250 us */
1381:.\Generated_Source\PSoC5/CyLib.c ****             for(count = 4u; count > 0u; count--)
 988              		.loc 1 1381 0
 989 0034 0423     		movs	r3, #4
 990 0036 8DF80630 		strb	r3, [sp, #6]
 991 003a 0BE0     		b	.L95
 992              	.L96:
1382:.\Generated_Source\PSoC5/CyLib.c ****             {
1383:.\Generated_Source\PSoC5/CyLib.c ****                 while(0u == (CY_PM_FTW_INT & CyPmReadStatus(CY_PM_FTW_INT)))
 993              		.loc 1 1383 0 discriminator 1
 994 003c 0120     		movs	r0, #1
 995 003e FFF7FEFF 		bl	CyPmReadStatus
 996              	.LVL58:
 997 0042 10F0010F 		tst	r0, #1
 998 0046 F9D0     		beq	.L96
1381:.\Generated_Source\PSoC5/CyLib.c ****             {
 999              		.loc 1 1381 0 discriminator 2
 1000 0048 9DF80630 		ldrb	r3, [sp, #6]	@ zero_extendqisi2
 1001 004c 013B     		subs	r3, r3, #1
 1002 004e DBB2     		uxtb	r3, r3
 1003 0050 8DF80630 		strb	r3, [sp, #6]
 1004              	.L95:
1381:.\Generated_Source\PSoC5/CyLib.c ****             {
 1005              		.loc 1 1381 0 is_stmt 0 discriminator 1
 1006 0054 9DF80630 		ldrb	r3, [sp, #6]	@ zero_extendqisi2
 1007 0058 13F0FF0F 		tst	r3, #255
 1008 005c EED1     		bne	.L96
1384:.\Generated_Source\PSoC5/CyLib.c ****                 {
1385:.\Generated_Source\PSoC5/CyLib.c ****                     /* Wait for FTW interrupt event */
1386:.\Generated_Source\PSoC5/CyLib.c ****                 }
1387:.\Generated_Source\PSoC5/CyLib.c ****             }
1388:.\Generated_Source\PSoC5/CyLib.c **** 
1389:.\Generated_Source\PSoC5/CyLib.c **** 
ARM GAS  C:\Users\cps\AppData\Local\Temp\ccxVhvgg.s 			page 44


1390:.\Generated_Source\PSoC5/CyLib.c ****             /*******************************************************************
1391:.\Generated_Source\PSoC5/CyLib.c ****             * High output indicates an oscillator failure.
1392:.\Generated_Source\PSoC5/CyLib.c ****             * Only can be used after a start-up interval (1 ms) is completed.
1393:.\Generated_Source\PSoC5/CyLib.c ****             *******************************************************************/
1394:.\Generated_Source\PSoC5/CyLib.c ****             if(0u == (CY_CLK_XMHZ_CSR_REG & CY_CLK_XMHZ_CSR_XERR))
 1009              		.loc 1 1394 0 is_stmt 1
 1010 005e 104B     		ldr	r3, .L103
 1011 0060 1B78     		ldrb	r3, [r3]	@ zero_extendqisi2
 1012 0062 13F0800F 		tst	r3, #128
 1013 0066 0CD0     		beq	.L101
1375:.\Generated_Source\PSoC5/CyLib.c ****         {
 1014              		.loc 1 1375 0
 1015 0068 9DF80730 		ldrb	r3, [sp, #7]	@ zero_extendqisi2
 1016 006c 013B     		subs	r3, r3, #1
 1017 006e DBB2     		uxtb	r3, r3
 1018 0070 8DF80730 		strb	r3, [sp, #7]
 1019              	.L94:
1375:.\Generated_Source\PSoC5/CyLib.c ****         {
 1020              		.loc 1 1375 0 is_stmt 0 discriminator 1
 1021 0074 9DF80730 		ldrb	r3, [sp, #7]	@ zero_extendqisi2
 1022 0078 13F0FF0F 		tst	r3, #255
 1023 007c D8D1     		bne	.L98
1372:.\Generated_Source\PSoC5/CyLib.c **** 
 1024              		.loc 1 1372 0 is_stmt 1
 1025 007e 1027     		movs	r7, #16
 1026 0080 00E0     		b	.L97
 1027              	.L101:
1395:.\Generated_Source\PSoC5/CyLib.c ****             {
1396:.\Generated_Source\PSoC5/CyLib.c ****                 status = CYRET_SUCCESS;
 1028              		.loc 1 1396 0
 1029 0082 0027     		movs	r7, #0
 1030              	.L97:
 1031              	.LVL59:
1397:.\Generated_Source\PSoC5/CyLib.c ****                 break;
1398:.\Generated_Source\PSoC5/CyLib.c ****             }
1399:.\Generated_Source\PSoC5/CyLib.c ****         }
1400:.\Generated_Source\PSoC5/CyLib.c **** 
1401:.\Generated_Source\PSoC5/CyLib.c **** 
1402:.\Generated_Source\PSoC5/CyLib.c ****         /* Restore 100 KHz ILO, FTW interval, enable and interrupt enable */
1403:.\Generated_Source\PSoC5/CyLib.c ****         if(0u == (iloEnableState & CY_LIB_SLOWCLK_ILO_CR0_EN_100KHZ))
 1032              		.loc 1 1403 0
 1033 0084 16F0040F 		tst	r6, #4
 1034 0088 01D1     		bne	.L99
1404:.\Generated_Source\PSoC5/CyLib.c ****         {
1405:.\Generated_Source\PSoC5/CyLib.c ****             CyILO_Stop100K();
 1035              		.loc 1 1405 0
 1036 008a FFF7FEFF 		bl	CyILO_Stop100K
 1037              	.LVL60:
 1038              	.L99:
1406:.\Generated_Source\PSoC5/CyLib.c ****         }
1407:.\Generated_Source\PSoC5/CyLib.c ****         CY_LIB_PM_TW_CFG0_REG = pmTwCfg0Tmp;
 1039              		.loc 1 1407 0
 1040 008e 064B     		ldr	r3, .L103+8
 1041 0090 1D70     		strb	r5, [r3]
1408:.\Generated_Source\PSoC5/CyLib.c ****         CY_LIB_PM_TW_CFG2_REG = pmTwCfg2Tmp;
 1042              		.loc 1 1408 0
 1043 0092 0233     		adds	r3, r3, #2
ARM GAS  C:\Users\cps\AppData\Local\Temp\ccxVhvgg.s 			page 45


 1044 0094 1C70     		strb	r4, [r3]
 1045 0096 00E0     		b	.L93
 1046              	.LVL61:
 1047              	.L100:
1351:.\Generated_Source\PSoC5/CyLib.c ****     volatile uint8  timeout = wait;
 1048              		.loc 1 1351 0
 1049 0098 0027     		movs	r7, #0
 1050              	.LVL62:
 1051              	.L93:
1409:.\Generated_Source\PSoC5/CyLib.c ****     }
1410:.\Generated_Source\PSoC5/CyLib.c **** 
1411:.\Generated_Source\PSoC5/CyLib.c ****     return(status);
1412:.\Generated_Source\PSoC5/CyLib.c **** }
 1052              		.loc 1 1412 0
 1053 009a 3846     		mov	r0, r7
 1054 009c 03B0     		add	sp, sp, #12
 1055              		.cfi_def_cfa_offset 20
 1056              		@ sp needed
 1057 009e F0BD     		pop	{r4, r5, r6, r7, pc}
 1058              	.LVL63:
 1059              	.L104:
 1060              		.align	2
 1061              	.L103:
 1062 00a0 10420040 		.word	1073758736
 1063 00a4 00430040 		.word	1073758976
 1064 00a8 80430040 		.word	1073759104
 1065              		.cfi_endproc
 1066              	.LFE29:
 1067              		.size	CyXTAL_Start, .-CyXTAL_Start
 1068              		.section	.text.CyXTAL_Stop,"ax",%progbits
 1069              		.align	2
 1070              		.global	CyXTAL_Stop
 1071              		.thumb
 1072              		.thumb_func
 1073              		.type	CyXTAL_Stop, %function
 1074              	CyXTAL_Stop:
 1075              	.LFB30:
1413:.\Generated_Source\PSoC5/CyLib.c **** 
1414:.\Generated_Source\PSoC5/CyLib.c **** 
1415:.\Generated_Source\PSoC5/CyLib.c **** /*******************************************************************************
1416:.\Generated_Source\PSoC5/CyLib.c **** * Function Name: CyXTAL_Stop
1417:.\Generated_Source\PSoC5/CyLib.c **** ********************************************************************************
1418:.\Generated_Source\PSoC5/CyLib.c **** *
1419:.\Generated_Source\PSoC5/CyLib.c **** * Summary:
1420:.\Generated_Source\PSoC5/CyLib.c **** *  Disables the megahertz crystal oscillator.
1421:.\Generated_Source\PSoC5/CyLib.c **** *
1422:.\Generated_Source\PSoC5/CyLib.c **** * Parameters:
1423:.\Generated_Source\PSoC5/CyLib.c **** *  None
1424:.\Generated_Source\PSoC5/CyLib.c **** *
1425:.\Generated_Source\PSoC5/CyLib.c **** * Return:
1426:.\Generated_Source\PSoC5/CyLib.c **** *  None
1427:.\Generated_Source\PSoC5/CyLib.c **** *
1428:.\Generated_Source\PSoC5/CyLib.c **** *******************************************************************************/
1429:.\Generated_Source\PSoC5/CyLib.c **** void CyXTAL_Stop(void) 
1430:.\Generated_Source\PSoC5/CyLib.c **** {
 1076              		.loc 1 1430 0
 1077              		.cfi_startproc
ARM GAS  C:\Users\cps\AppData\Local\Temp\ccxVhvgg.s 			page 46


 1078              		@ args = 0, pretend = 0, frame = 0
 1079              		@ frame_needed = 0, uses_anonymous_args = 0
 1080              		@ link register save eliminated.
1431:.\Generated_Source\PSoC5/CyLib.c ****     /* Disable oscillator. */
1432:.\Generated_Source\PSoC5/CyLib.c ****     FASTCLK_XMHZ_CSR &= ((uint8)(~XMHZ_CONTROL_ENABLE));
 1081              		.loc 1 1432 0
 1082 0000 024A     		ldr	r2, .L106
 1083 0002 1378     		ldrb	r3, [r2]	@ zero_extendqisi2
 1084 0004 03F0FE03 		and	r3, r3, #254
 1085 0008 1370     		strb	r3, [r2]
 1086 000a 7047     		bx	lr
 1087              	.L107:
 1088              		.align	2
 1089              	.L106:
 1090 000c 10420040 		.word	1073758736
 1091              		.cfi_endproc
 1092              	.LFE30:
 1093              		.size	CyXTAL_Stop, .-CyXTAL_Stop
 1094              		.section	.text.CyXTAL_EnableErrStatus,"ax",%progbits
 1095              		.align	2
 1096              		.global	CyXTAL_EnableErrStatus
 1097              		.thumb
 1098              		.thumb_func
 1099              		.type	CyXTAL_EnableErrStatus, %function
 1100              	CyXTAL_EnableErrStatus:
 1101              	.LFB31:
1433:.\Generated_Source\PSoC5/CyLib.c **** }
1434:.\Generated_Source\PSoC5/CyLib.c **** 
1435:.\Generated_Source\PSoC5/CyLib.c **** 
1436:.\Generated_Source\PSoC5/CyLib.c **** /*******************************************************************************
1437:.\Generated_Source\PSoC5/CyLib.c **** * Function Name: CyXTAL_EnableErrStatus
1438:.\Generated_Source\PSoC5/CyLib.c **** ********************************************************************************
1439:.\Generated_Source\PSoC5/CyLib.c **** *
1440:.\Generated_Source\PSoC5/CyLib.c **** * Summary:
1441:.\Generated_Source\PSoC5/CyLib.c **** *  Enables the generation of the XERR status bit for the megahertz crystal.
1442:.\Generated_Source\PSoC5/CyLib.c **** *  This function is not available for PSoC5.
1443:.\Generated_Source\PSoC5/CyLib.c **** *
1444:.\Generated_Source\PSoC5/CyLib.c **** * Parameters:
1445:.\Generated_Source\PSoC5/CyLib.c **** *  None
1446:.\Generated_Source\PSoC5/CyLib.c **** *
1447:.\Generated_Source\PSoC5/CyLib.c **** * Return:
1448:.\Generated_Source\PSoC5/CyLib.c **** *  None
1449:.\Generated_Source\PSoC5/CyLib.c **** *
1450:.\Generated_Source\PSoC5/CyLib.c **** *******************************************************************************/
1451:.\Generated_Source\PSoC5/CyLib.c **** void CyXTAL_EnableErrStatus(void) 
1452:.\Generated_Source\PSoC5/CyLib.c **** {
 1102              		.loc 1 1452 0
 1103              		.cfi_startproc
 1104              		@ args = 0, pretend = 0, frame = 0
 1105              		@ frame_needed = 0, uses_anonymous_args = 0
 1106              		@ link register save eliminated.
1453:.\Generated_Source\PSoC5/CyLib.c ****     /* If oscillator has insufficient amplitude, XERR bit will be high. */
1454:.\Generated_Source\PSoC5/CyLib.c ****     CY_CLK_XMHZ_CSR_REG &= ((uint8)(~CY_CLK_XMHZ_CSR_XFB));
 1107              		.loc 1 1454 0
 1108 0000 024A     		ldr	r2, .L109
 1109 0002 1378     		ldrb	r3, [r2]	@ zero_extendqisi2
 1110 0004 03F0FB03 		and	r3, r3, #251
ARM GAS  C:\Users\cps\AppData\Local\Temp\ccxVhvgg.s 			page 47


 1111 0008 1370     		strb	r3, [r2]
 1112 000a 7047     		bx	lr
 1113              	.L110:
 1114              		.align	2
 1115              	.L109:
 1116 000c 10420040 		.word	1073758736
 1117              		.cfi_endproc
 1118              	.LFE31:
 1119              		.size	CyXTAL_EnableErrStatus, .-CyXTAL_EnableErrStatus
 1120              		.section	.text.CyXTAL_DisableErrStatus,"ax",%progbits
 1121              		.align	2
 1122              		.global	CyXTAL_DisableErrStatus
 1123              		.thumb
 1124              		.thumb_func
 1125              		.type	CyXTAL_DisableErrStatus, %function
 1126              	CyXTAL_DisableErrStatus:
 1127              	.LFB32:
1455:.\Generated_Source\PSoC5/CyLib.c **** }
1456:.\Generated_Source\PSoC5/CyLib.c **** 
1457:.\Generated_Source\PSoC5/CyLib.c **** 
1458:.\Generated_Source\PSoC5/CyLib.c **** /*******************************************************************************
1459:.\Generated_Source\PSoC5/CyLib.c **** * Function Name: CyXTAL_DisableErrStatus
1460:.\Generated_Source\PSoC5/CyLib.c **** ********************************************************************************
1461:.\Generated_Source\PSoC5/CyLib.c **** *
1462:.\Generated_Source\PSoC5/CyLib.c **** * Summary:
1463:.\Generated_Source\PSoC5/CyLib.c **** *  Disables the generation of the XERR status bit for the megahertz crystal.
1464:.\Generated_Source\PSoC5/CyLib.c **** *  This function is not available for PSoC5.
1465:.\Generated_Source\PSoC5/CyLib.c **** *
1466:.\Generated_Source\PSoC5/CyLib.c **** * Parameters:
1467:.\Generated_Source\PSoC5/CyLib.c **** *  None
1468:.\Generated_Source\PSoC5/CyLib.c **** *
1469:.\Generated_Source\PSoC5/CyLib.c **** * Return:
1470:.\Generated_Source\PSoC5/CyLib.c **** *  None
1471:.\Generated_Source\PSoC5/CyLib.c **** *
1472:.\Generated_Source\PSoC5/CyLib.c **** *******************************************************************************/
1473:.\Generated_Source\PSoC5/CyLib.c **** void CyXTAL_DisableErrStatus(void) 
1474:.\Generated_Source\PSoC5/CyLib.c **** {
 1128              		.loc 1 1474 0
 1129              		.cfi_startproc
 1130              		@ args = 0, pretend = 0, frame = 0
 1131              		@ frame_needed = 0, uses_anonymous_args = 0
 1132              		@ link register save eliminated.
1475:.\Generated_Source\PSoC5/CyLib.c ****     /* If oscillator has insufficient amplitude, XERR bit will be high. */
1476:.\Generated_Source\PSoC5/CyLib.c ****     CY_CLK_XMHZ_CSR_REG |= CY_CLK_XMHZ_CSR_XFB;
 1133              		.loc 1 1476 0
 1134 0000 024A     		ldr	r2, .L112
 1135 0002 1378     		ldrb	r3, [r2]	@ zero_extendqisi2
 1136 0004 43F00403 		orr	r3, r3, #4
 1137 0008 1370     		strb	r3, [r2]
 1138 000a 7047     		bx	lr
 1139              	.L113:
 1140              		.align	2
 1141              	.L112:
 1142 000c 10420040 		.word	1073758736
 1143              		.cfi_endproc
 1144              	.LFE32:
 1145              		.size	CyXTAL_DisableErrStatus, .-CyXTAL_DisableErrStatus
ARM GAS  C:\Users\cps\AppData\Local\Temp\ccxVhvgg.s 			page 48


 1146              		.section	.text.CyXTAL_ReadStatus,"ax",%progbits
 1147              		.align	2
 1148              		.global	CyXTAL_ReadStatus
 1149              		.thumb
 1150              		.thumb_func
 1151              		.type	CyXTAL_ReadStatus, %function
 1152              	CyXTAL_ReadStatus:
 1153              	.LFB33:
1477:.\Generated_Source\PSoC5/CyLib.c **** }
1478:.\Generated_Source\PSoC5/CyLib.c **** 
1479:.\Generated_Source\PSoC5/CyLib.c **** 
1480:.\Generated_Source\PSoC5/CyLib.c **** /*******************************************************************************
1481:.\Generated_Source\PSoC5/CyLib.c **** * Function Name: CyXTAL_ReadStatus
1482:.\Generated_Source\PSoC5/CyLib.c **** ********************************************************************************
1483:.\Generated_Source\PSoC5/CyLib.c **** *
1484:.\Generated_Source\PSoC5/CyLib.c **** * Summary:
1485:.\Generated_Source\PSoC5/CyLib.c **** *  Reads the XERR status bit for the megahertz crystal. This status bit is a
1486:.\Generated_Source\PSoC5/CyLib.c **** *  sticky, clear on read. This function is not available for PSoC5.
1487:.\Generated_Source\PSoC5/CyLib.c **** *
1488:.\Generated_Source\PSoC5/CyLib.c **** * Parameters:
1489:.\Generated_Source\PSoC5/CyLib.c **** *  None
1490:.\Generated_Source\PSoC5/CyLib.c **** *
1491:.\Generated_Source\PSoC5/CyLib.c **** * Return:
1492:.\Generated_Source\PSoC5/CyLib.c **** *   Status
1493:.\Generated_Source\PSoC5/CyLib.c **** *    0: No error
1494:.\Generated_Source\PSoC5/CyLib.c **** *    1: Error
1495:.\Generated_Source\PSoC5/CyLib.c **** *
1496:.\Generated_Source\PSoC5/CyLib.c **** *******************************************************************************/
1497:.\Generated_Source\PSoC5/CyLib.c **** uint8 CyXTAL_ReadStatus(void) 
1498:.\Generated_Source\PSoC5/CyLib.c **** {
 1154              		.loc 1 1498 0
 1155              		.cfi_startproc
 1156              		@ args = 0, pretend = 0, frame = 0
 1157              		@ frame_needed = 0, uses_anonymous_args = 0
 1158              		@ link register save eliminated.
1499:.\Generated_Source\PSoC5/CyLib.c ****     /***************************************************************************
1500:.\Generated_Source\PSoC5/CyLib.c ****     * High output indicates an oscillator failure. Only use this after a start-up
1501:.\Generated_Source\PSoC5/CyLib.c ****     * interval is completed. This can be used for the status and failure recovery.
1502:.\Generated_Source\PSoC5/CyLib.c ****     ***************************************************************************/
1503:.\Generated_Source\PSoC5/CyLib.c ****     return((0u != (CY_CLK_XMHZ_CSR_REG & CY_CLK_XMHZ_CSR_XERR)) ? 1u : 0u);
 1159              		.loc 1 1503 0
 1160 0000 044B     		ldr	r3, .L117
 1161 0002 1B78     		ldrb	r3, [r3]	@ zero_extendqisi2
 1162 0004 13F0800F 		tst	r3, #128
 1163 0008 01D0     		beq	.L116
 1164 000a 0120     		movs	r0, #1
 1165 000c 7047     		bx	lr
 1166              	.L116:
 1167 000e 0020     		movs	r0, #0
1504:.\Generated_Source\PSoC5/CyLib.c **** }
 1168              		.loc 1 1504 0
 1169 0010 7047     		bx	lr
 1170              	.L118:
 1171 0012 00BF     		.align	2
 1172              	.L117:
 1173 0014 10420040 		.word	1073758736
 1174              		.cfi_endproc
ARM GAS  C:\Users\cps\AppData\Local\Temp\ccxVhvgg.s 			page 49


 1175              	.LFE33:
 1176              		.size	CyXTAL_ReadStatus, .-CyXTAL_ReadStatus
 1177              		.section	.text.CyXTAL_EnableFaultRecovery,"ax",%progbits
 1178              		.align	2
 1179              		.global	CyXTAL_EnableFaultRecovery
 1180              		.thumb
 1181              		.thumb_func
 1182              		.type	CyXTAL_EnableFaultRecovery, %function
 1183              	CyXTAL_EnableFaultRecovery:
 1184              	.LFB34:
1505:.\Generated_Source\PSoC5/CyLib.c **** 
1506:.\Generated_Source\PSoC5/CyLib.c **** 
1507:.\Generated_Source\PSoC5/CyLib.c **** /*******************************************************************************
1508:.\Generated_Source\PSoC5/CyLib.c **** * Function Name: CyXTAL_EnableFaultRecovery
1509:.\Generated_Source\PSoC5/CyLib.c **** ********************************************************************************
1510:.\Generated_Source\PSoC5/CyLib.c **** *
1511:.\Generated_Source\PSoC5/CyLib.c **** * Summary:
1512:.\Generated_Source\PSoC5/CyLib.c **** *  Enables the fault recovery circuit which will switch to the IMO in the case
1513:.\Generated_Source\PSoC5/CyLib.c **** *  of a fault in the megahertz crystal circuit. The crystal must be up and
1514:.\Generated_Source\PSoC5/CyLib.c **** *  running with the XERR bit at 0, before calling this function to prevent
1515:.\Generated_Source\PSoC5/CyLib.c **** *  an immediate fault switchover. This function is not available for PSoC5.
1516:.\Generated_Source\PSoC5/CyLib.c **** *
1517:.\Generated_Source\PSoC5/CyLib.c **** * Parameters:
1518:.\Generated_Source\PSoC5/CyLib.c **** *  None
1519:.\Generated_Source\PSoC5/CyLib.c **** *
1520:.\Generated_Source\PSoC5/CyLib.c **** * Return:
1521:.\Generated_Source\PSoC5/CyLib.c **** *  None
1522:.\Generated_Source\PSoC5/CyLib.c **** *
1523:.\Generated_Source\PSoC5/CyLib.c **** *******************************************************************************/
1524:.\Generated_Source\PSoC5/CyLib.c **** void CyXTAL_EnableFaultRecovery(void) 
1525:.\Generated_Source\PSoC5/CyLib.c **** {
 1185              		.loc 1 1525 0
 1186              		.cfi_startproc
 1187              		@ args = 0, pretend = 0, frame = 0
 1188              		@ frame_needed = 0, uses_anonymous_args = 0
 1189              		@ link register save eliminated.
1526:.\Generated_Source\PSoC5/CyLib.c ****     CY_CLK_XMHZ_CSR_REG |= CY_CLK_XMHZ_CSR_XPROT;
 1190              		.loc 1 1526 0
 1191 0000 024A     		ldr	r2, .L120
 1192 0002 1378     		ldrb	r3, [r2]	@ zero_extendqisi2
 1193 0004 43F04003 		orr	r3, r3, #64
 1194 0008 1370     		strb	r3, [r2]
 1195 000a 7047     		bx	lr
 1196              	.L121:
 1197              		.align	2
 1198              	.L120:
 1199 000c 10420040 		.word	1073758736
 1200              		.cfi_endproc
 1201              	.LFE34:
 1202              		.size	CyXTAL_EnableFaultRecovery, .-CyXTAL_EnableFaultRecovery
 1203              		.section	.text.CyXTAL_DisableFaultRecovery,"ax",%progbits
 1204              		.align	2
 1205              		.global	CyXTAL_DisableFaultRecovery
 1206              		.thumb
 1207              		.thumb_func
 1208              		.type	CyXTAL_DisableFaultRecovery, %function
 1209              	CyXTAL_DisableFaultRecovery:
ARM GAS  C:\Users\cps\AppData\Local\Temp\ccxVhvgg.s 			page 50


 1210              	.LFB35:
1527:.\Generated_Source\PSoC5/CyLib.c **** }
1528:.\Generated_Source\PSoC5/CyLib.c **** 
1529:.\Generated_Source\PSoC5/CyLib.c **** 
1530:.\Generated_Source\PSoC5/CyLib.c **** /*******************************************************************************
1531:.\Generated_Source\PSoC5/CyLib.c **** * Function Name: CyXTAL_DisableFaultRecovery
1532:.\Generated_Source\PSoC5/CyLib.c **** ********************************************************************************
1533:.\Generated_Source\PSoC5/CyLib.c **** *
1534:.\Generated_Source\PSoC5/CyLib.c **** * Summary:
1535:.\Generated_Source\PSoC5/CyLib.c **** *  Disables the fault recovery circuit which will switch to the IMO in the case
1536:.\Generated_Source\PSoC5/CyLib.c **** *  of a fault in the megahertz crystal circuit. This function is not available
1537:.\Generated_Source\PSoC5/CyLib.c **** *  for PSoC5.
1538:.\Generated_Source\PSoC5/CyLib.c **** *
1539:.\Generated_Source\PSoC5/CyLib.c **** * Parameters:
1540:.\Generated_Source\PSoC5/CyLib.c **** *  None
1541:.\Generated_Source\PSoC5/CyLib.c **** *
1542:.\Generated_Source\PSoC5/CyLib.c **** * Return:
1543:.\Generated_Source\PSoC5/CyLib.c **** *  None
1544:.\Generated_Source\PSoC5/CyLib.c **** *
1545:.\Generated_Source\PSoC5/CyLib.c **** *******************************************************************************/
1546:.\Generated_Source\PSoC5/CyLib.c **** void CyXTAL_DisableFaultRecovery(void) 
1547:.\Generated_Source\PSoC5/CyLib.c **** {
 1211              		.loc 1 1547 0
 1212              		.cfi_startproc
 1213              		@ args = 0, pretend = 0, frame = 0
 1214              		@ frame_needed = 0, uses_anonymous_args = 0
 1215              		@ link register save eliminated.
1548:.\Generated_Source\PSoC5/CyLib.c ****     CY_CLK_XMHZ_CSR_REG &= ((uint8)(~CY_CLK_XMHZ_CSR_XPROT));
 1216              		.loc 1 1548 0
 1217 0000 024A     		ldr	r2, .L123
 1218 0002 1378     		ldrb	r3, [r2]	@ zero_extendqisi2
 1219 0004 03F0BF03 		and	r3, r3, #191
 1220 0008 1370     		strb	r3, [r2]
 1221 000a 7047     		bx	lr
 1222              	.L124:
 1223              		.align	2
 1224              	.L123:
 1225 000c 10420040 		.word	1073758736
 1226              		.cfi_endproc
 1227              	.LFE35:
 1228              		.size	CyXTAL_DisableFaultRecovery, .-CyXTAL_DisableFaultRecovery
 1229              		.section	.text.CyXTAL_SetStartup,"ax",%progbits
 1230              		.align	2
 1231              		.global	CyXTAL_SetStartup
 1232              		.thumb
 1233              		.thumb_func
 1234              		.type	CyXTAL_SetStartup, %function
 1235              	CyXTAL_SetStartup:
 1236              	.LFB36:
1549:.\Generated_Source\PSoC5/CyLib.c **** }
1550:.\Generated_Source\PSoC5/CyLib.c **** 
1551:.\Generated_Source\PSoC5/CyLib.c **** 
1552:.\Generated_Source\PSoC5/CyLib.c **** /*******************************************************************************
1553:.\Generated_Source\PSoC5/CyLib.c **** * Function Name: CyXTAL_SetStartup
1554:.\Generated_Source\PSoC5/CyLib.c **** ********************************************************************************
1555:.\Generated_Source\PSoC5/CyLib.c **** *
1556:.\Generated_Source\PSoC5/CyLib.c **** * Summary:
ARM GAS  C:\Users\cps\AppData\Local\Temp\ccxVhvgg.s 			page 51


1557:.\Generated_Source\PSoC5/CyLib.c **** *  Sets the startup settings for the crystal. The logic model outputs a
1558:.\Generated_Source\PSoC5/CyLib.c **** *  frequency (setting + 4) MHz when enabled.
1559:.\Generated_Source\PSoC5/CyLib.c **** *
1560:.\Generated_Source\PSoC5/CyLib.c **** *  This is artificial as the actual frequency is determined by an attached
1561:.\Generated_Source\PSoC5/CyLib.c **** *  external crystal.
1562:.\Generated_Source\PSoC5/CyLib.c **** *
1563:.\Generated_Source\PSoC5/CyLib.c **** * Parameters:
1564:.\Generated_Source\PSoC5/CyLib.c **** *  setting: Valid range [0-31].
1565:.\Generated_Source\PSoC5/CyLib.c **** *   The value is dependent on the frequency and quality of the crystal being
1566:.\Generated_Source\PSoC5/CyLib.c **** *   used. Refer to the device TRM and datasheet for more information.
1567:.\Generated_Source\PSoC5/CyLib.c **** *
1568:.\Generated_Source\PSoC5/CyLib.c **** * Return:
1569:.\Generated_Source\PSoC5/CyLib.c **** *  None
1570:.\Generated_Source\PSoC5/CyLib.c **** *
1571:.\Generated_Source\PSoC5/CyLib.c **** *******************************************************************************/
1572:.\Generated_Source\PSoC5/CyLib.c **** void CyXTAL_SetStartup(uint8 setting) 
1573:.\Generated_Source\PSoC5/CyLib.c **** {
 1237              		.loc 1 1573 0
 1238              		.cfi_startproc
 1239              		@ args = 0, pretend = 0, frame = 0
 1240              		@ frame_needed = 0, uses_anonymous_args = 0
 1241              		@ link register save eliminated.
 1242              	.LVL64:
1574:.\Generated_Source\PSoC5/CyLib.c ****     CY_CLK_XMHZ_CFG0_REG = (CY_CLK_XMHZ_CFG0_REG & ((uint8)(~CY_CLK_XMHZ_CFG0_XCFG_MASK))) |
 1243              		.loc 1 1574 0
 1244 0000 044A     		ldr	r2, .L126
 1245 0002 1378     		ldrb	r3, [r2]	@ zero_extendqisi2
 1246 0004 03F0E003 		and	r3, r3, #224
 1247 0008 00F01F00 		and	r0, r0, #31
 1248              	.LVL65:
 1249 000c 1843     		orrs	r0, r0, r3
 1250 000e 1070     		strb	r0, [r2]
 1251 0010 7047     		bx	lr
 1252              	.L127:
 1253 0012 00BF     		.align	2
 1254              	.L126:
 1255 0014 12420040 		.word	1073758738
 1256              		.cfi_endproc
 1257              	.LFE36:
 1258              		.size	CyXTAL_SetStartup, .-CyXTAL_SetStartup
 1259              		.section	.text.CyXTAL_SetFbVoltage,"ax",%progbits
 1260              		.align	2
 1261              		.global	CyXTAL_SetFbVoltage
 1262              		.thumb
 1263              		.thumb_func
 1264              		.type	CyXTAL_SetFbVoltage, %function
 1265              	CyXTAL_SetFbVoltage:
 1266              	.LFB37:
1575:.\Generated_Source\PSoC5/CyLib.c ****                            (setting & CY_CLK_XMHZ_CFG0_XCFG_MASK);
1576:.\Generated_Source\PSoC5/CyLib.c **** }
1577:.\Generated_Source\PSoC5/CyLib.c **** 
1578:.\Generated_Source\PSoC5/CyLib.c **** 
1579:.\Generated_Source\PSoC5/CyLib.c **** 
1580:.\Generated_Source\PSoC5/CyLib.c **** /*******************************************************************************
1581:.\Generated_Source\PSoC5/CyLib.c **** * Function Name: CyXTAL_SetFbVoltage
1582:.\Generated_Source\PSoC5/CyLib.c **** ********************************************************************************
1583:.\Generated_Source\PSoC5/CyLib.c **** *
ARM GAS  C:\Users\cps\AppData\Local\Temp\ccxVhvgg.s 			page 52


1584:.\Generated_Source\PSoC5/CyLib.c **** * Summary:
1585:.\Generated_Source\PSoC5/CyLib.c **** *  Sets the feedback reference voltage to use for the crystal circuit.
1586:.\Generated_Source\PSoC5/CyLib.c **** *  This function is only available for PSoC3 and PSoC 5LP.
1587:.\Generated_Source\PSoC5/CyLib.c **** *
1588:.\Generated_Source\PSoC5/CyLib.c **** * Parameters:
1589:.\Generated_Source\PSoC5/CyLib.c **** *  setting: Valid range [0-15].
1590:.\Generated_Source\PSoC5/CyLib.c **** *  Refer to the device TRM and datasheet for more information.
1591:.\Generated_Source\PSoC5/CyLib.c **** *
1592:.\Generated_Source\PSoC5/CyLib.c **** * Return:
1593:.\Generated_Source\PSoC5/CyLib.c **** *  None
1594:.\Generated_Source\PSoC5/CyLib.c **** *
1595:.\Generated_Source\PSoC5/CyLib.c **** *******************************************************************************/
1596:.\Generated_Source\PSoC5/CyLib.c **** void CyXTAL_SetFbVoltage(uint8 setting) 
1597:.\Generated_Source\PSoC5/CyLib.c **** {
 1267              		.loc 1 1597 0
 1268              		.cfi_startproc
 1269              		@ args = 0, pretend = 0, frame = 0
 1270              		@ frame_needed = 0, uses_anonymous_args = 0
 1271              		@ link register save eliminated.
 1272              	.LVL66:
1598:.\Generated_Source\PSoC5/CyLib.c ****     CY_CLK_XMHZ_CFG1_REG = ((CY_CLK_XMHZ_CFG1_REG & ((uint8)(~CY_CLK_XMHZ_CFG1_VREF_FB_MASK))) |
 1273              		.loc 1 1598 0
 1274 0000 044A     		ldr	r2, .L129
 1275 0002 1378     		ldrb	r3, [r2]	@ zero_extendqisi2
 1276 0004 03F0F003 		and	r3, r3, #240
 1277 0008 00F00F00 		and	r0, r0, #15
 1278              	.LVL67:
 1279 000c 1843     		orrs	r0, r0, r3
 1280 000e 1070     		strb	r0, [r2]
 1281 0010 7047     		bx	lr
 1282              	.L130:
 1283 0012 00BF     		.align	2
 1284              	.L129:
 1285 0014 13420040 		.word	1073758739
 1286              		.cfi_endproc
 1287              	.LFE37:
 1288              		.size	CyXTAL_SetFbVoltage, .-CyXTAL_SetFbVoltage
 1289              		.section	.text.CyXTAL_SetWdVoltage,"ax",%progbits
 1290              		.align	2
 1291              		.global	CyXTAL_SetWdVoltage
 1292              		.thumb
 1293              		.thumb_func
 1294              		.type	CyXTAL_SetWdVoltage, %function
 1295              	CyXTAL_SetWdVoltage:
 1296              	.LFB38:
1599:.\Generated_Source\PSoC5/CyLib.c ****                             (setting & CY_CLK_XMHZ_CFG1_VREF_FB_MASK));
1600:.\Generated_Source\PSoC5/CyLib.c **** }
1601:.\Generated_Source\PSoC5/CyLib.c **** 
1602:.\Generated_Source\PSoC5/CyLib.c **** 
1603:.\Generated_Source\PSoC5/CyLib.c **** /*******************************************************************************
1604:.\Generated_Source\PSoC5/CyLib.c **** * Function Name: CyXTAL_SetWdVoltage
1605:.\Generated_Source\PSoC5/CyLib.c **** ********************************************************************************
1606:.\Generated_Source\PSoC5/CyLib.c **** *
1607:.\Generated_Source\PSoC5/CyLib.c **** * Summary:
1608:.\Generated_Source\PSoC5/CyLib.c **** *  Sets the reference voltage used by the watchdog to detect a failure in the
1609:.\Generated_Source\PSoC5/CyLib.c **** *  crystal circuit. This function is only available for PSoC3 and PSoC 5LP.
1610:.\Generated_Source\PSoC5/CyLib.c **** *
ARM GAS  C:\Users\cps\AppData\Local\Temp\ccxVhvgg.s 			page 53


1611:.\Generated_Source\PSoC5/CyLib.c **** * Parameters:
1612:.\Generated_Source\PSoC5/CyLib.c **** *  setting: Valid range [0-7].
1613:.\Generated_Source\PSoC5/CyLib.c **** *  Refer to the device TRM and datasheet for more information.
1614:.\Generated_Source\PSoC5/CyLib.c **** *
1615:.\Generated_Source\PSoC5/CyLib.c **** * Return:
1616:.\Generated_Source\PSoC5/CyLib.c **** *  None
1617:.\Generated_Source\PSoC5/CyLib.c **** *
1618:.\Generated_Source\PSoC5/CyLib.c **** *******************************************************************************/
1619:.\Generated_Source\PSoC5/CyLib.c **** void CyXTAL_SetWdVoltage(uint8 setting) 
1620:.\Generated_Source\PSoC5/CyLib.c **** {
 1297              		.loc 1 1620 0
 1298              		.cfi_startproc
 1299              		@ args = 0, pretend = 0, frame = 0
 1300              		@ frame_needed = 0, uses_anonymous_args = 0
 1301              		@ link register save eliminated.
 1302              	.LVL68:
1621:.\Generated_Source\PSoC5/CyLib.c ****     CY_CLK_XMHZ_CFG1_REG = ((CY_CLK_XMHZ_CFG1_REG & ((uint8)(~CY_CLK_XMHZ_CFG1_VREF_WD_MASK))) |
 1303              		.loc 1 1621 0
 1304 0000 044A     		ldr	r2, .L132
 1305 0002 1378     		ldrb	r3, [r2]	@ zero_extendqisi2
1622:.\Generated_Source\PSoC5/CyLib.c ****                             (((uint8)(setting << 4u)) & CY_CLK_XMHZ_CFG1_VREF_WD_MASK));
 1306              		.loc 1 1622 0
 1307 0004 0001     		lsls	r0, r0, #4
 1308              	.LVL69:
1621:.\Generated_Source\PSoC5/CyLib.c ****     CY_CLK_XMHZ_CFG1_REG = ((CY_CLK_XMHZ_CFG1_REG & ((uint8)(~CY_CLK_XMHZ_CFG1_VREF_WD_MASK))) |
 1309              		.loc 1 1621 0
 1310 0006 03F08F03 		and	r3, r3, #143
 1311 000a 00F07000 		and	r0, r0, #112
 1312 000e 1843     		orrs	r0, r0, r3
 1313 0010 1070     		strb	r0, [r2]
 1314 0012 7047     		bx	lr
 1315              	.L133:
 1316              		.align	2
 1317              	.L132:
 1318 0014 13420040 		.word	1073758739
 1319              		.cfi_endproc
 1320              	.LFE38:
 1321              		.size	CyXTAL_SetWdVoltage, .-CyXTAL_SetWdVoltage
 1322              		.section	.text.CyHalt,"ax",%progbits
 1323              		.align	2
 1324              		.global	CyHalt
 1325              		.thumb
 1326              		.thumb_func
 1327              		.type	CyHalt, %function
 1328              	CyHalt:
 1329              	.LFB39:
1623:.\Generated_Source\PSoC5/CyLib.c **** }
1624:.\Generated_Source\PSoC5/CyLib.c **** 
1625:.\Generated_Source\PSoC5/CyLib.c **** 
1626:.\Generated_Source\PSoC5/CyLib.c **** /*******************************************************************************
1627:.\Generated_Source\PSoC5/CyLib.c **** * Function Name: CyHalt
1628:.\Generated_Source\PSoC5/CyLib.c **** ********************************************************************************
1629:.\Generated_Source\PSoC5/CyLib.c **** *
1630:.\Generated_Source\PSoC5/CyLib.c **** * Summary:
1631:.\Generated_Source\PSoC5/CyLib.c **** *  Halts the CPU.
1632:.\Generated_Source\PSoC5/CyLib.c **** *
1633:.\Generated_Source\PSoC5/CyLib.c **** * Parameters:
ARM GAS  C:\Users\cps\AppData\Local\Temp\ccxVhvgg.s 			page 54


1634:.\Generated_Source\PSoC5/CyLib.c **** *  uint8 reason: Value to be used during debugging.
1635:.\Generated_Source\PSoC5/CyLib.c **** *
1636:.\Generated_Source\PSoC5/CyLib.c **** * Return:
1637:.\Generated_Source\PSoC5/CyLib.c **** *  None
1638:.\Generated_Source\PSoC5/CyLib.c **** *
1639:.\Generated_Source\PSoC5/CyLib.c **** *******************************************************************************/
1640:.\Generated_Source\PSoC5/CyLib.c **** void CyHalt(uint8 reason) CYREENTRANT
1641:.\Generated_Source\PSoC5/CyLib.c **** {
 1330              		.loc 1 1641 0
 1331              		.cfi_startproc
 1332              		@ args = 0, pretend = 0, frame = 0
 1333              		@ frame_needed = 0, uses_anonymous_args = 0
 1334              		@ link register save eliminated.
 1335              	.LVL70:
1642:.\Generated_Source\PSoC5/CyLib.c ****     if(0u != reason)
1643:.\Generated_Source\PSoC5/CyLib.c ****     {
1644:.\Generated_Source\PSoC5/CyLib.c ****         /* To remove unreferenced local variable warning */
1645:.\Generated_Source\PSoC5/CyLib.c ****     }
1646:.\Generated_Source\PSoC5/CyLib.c **** 
1647:.\Generated_Source\PSoC5/CyLib.c ****     #if defined (__ARMCC_VERSION)
1648:.\Generated_Source\PSoC5/CyLib.c ****         __breakpoint(0x0);
1649:.\Generated_Source\PSoC5/CyLib.c ****     #elif defined(__GNUC__) || defined (__ICCARM__)
1650:.\Generated_Source\PSoC5/CyLib.c ****         __asm("    bkpt    1");
 1336              		.loc 1 1650 0
 1337              	@ 1650 ".\Generated_Source\PSoC5\CyLib.c" 1
 1338 0000 01BE     		    bkpt    1
 1339              	@ 0 "" 2
 1340              		.thumb
 1341 0002 7047     		bx	lr
 1342              		.cfi_endproc
 1343              	.LFE39:
 1344              		.size	CyHalt, .-CyHalt
 1345              		.section	.text.CyPLL_OUT_SetPQ,"ax",%progbits
 1346              		.align	2
 1347              		.global	CyPLL_OUT_SetPQ
 1348              		.thumb
 1349              		.thumb_func
 1350              		.type	CyPLL_OUT_SetPQ, %function
 1351              	CyPLL_OUT_SetPQ:
 1352              	.LFB2:
 203:.\Generated_Source\PSoC5/CyLib.c ****     /* Halt CPU in debug mode if PLL is enabled */
 1353              		.loc 1 203 0
 1354              		.cfi_startproc
 1355              		@ args = 0, pretend = 0, frame = 0
 1356              		@ frame_needed = 0, uses_anonymous_args = 0
 1357              	.LVL71:
 1358 0000 70B5     		push	{r4, r5, r6, lr}
 1359              		.cfi_def_cfa_offset 16
 1360              		.cfi_offset 4, -16
 1361              		.cfi_offset 5, -12
 1362              		.cfi_offset 6, -8
 1363              		.cfi_offset 14, -4
 1364 0002 0546     		mov	r5, r0
 1365 0004 0C46     		mov	r4, r1
 1366 0006 1646     		mov	r6, r2
 205:.\Generated_Source\PSoC5/CyLib.c **** 
 1367              		.loc 1 205 0
ARM GAS  C:\Users\cps\AppData\Local\Temp\ccxVhvgg.s 			page 55


 1368 0008 124B     		ldr	r3, .L140
 1369 000a 1B78     		ldrb	r3, [r3]	@ zero_extendqisi2
 1370 000c 13F0010F 		tst	r3, #1
 1371 0010 02D0     		beq	.L136
 205:.\Generated_Source\PSoC5/CyLib.c **** 
 1372              		.loc 1 205 0 is_stmt 0 discriminator 1
 1373 0012 0020     		movs	r0, #0
 1374              	.LVL72:
 1375 0014 FFF7FEFF 		bl	CyHalt
 1376              	.LVL73:
 1377              	.L136:
 207:.\Generated_Source\PSoC5/CyLib.c ****        (qDiv    <= CY_CLK_PLL_MAX_Q_VALUE  ) && (qDiv    >= CY_CLK_PLL_MIN_Q_VALUE  ) &&
 1378              		.loc 1 207 0 is_stmt 1
 1379 0018 072D     		cmp	r5, #7
 1380 001a 16D9     		bls	.L137
 207:.\Generated_Source\PSoC5/CyLib.c ****        (qDiv    <= CY_CLK_PLL_MAX_Q_VALUE  ) && (qDiv    >= CY_CLK_PLL_MIN_Q_VALUE  ) &&
 1381              		.loc 1 207 0 is_stmt 0 discriminator 1
 1382 001c 102C     		cmp	r4, #16
 1383 001e 14D8     		bhi	.L137
 208:.\Generated_Source\PSoC5/CyLib.c ****        (current >= CY_CLK_PLL_MIN_CUR_VALUE) && (current <= CY_CLK_PLL_MAX_CUR_VALUE))
 1384              		.loc 1 208 0 is_stmt 1
 1385 0020 9CB1     		cbz	r4, .L137
 208:.\Generated_Source\PSoC5/CyLib.c ****        (current >= CY_CLK_PLL_MIN_CUR_VALUE) && (current <= CY_CLK_PLL_MAX_CUR_VALUE))
 1386              		.loc 1 208 0 is_stmt 0 discriminator 1
 1387 0022 96B1     		cbz	r6, .L137
 209:.\Generated_Source\PSoC5/CyLib.c ****     {
 1388              		.loc 1 209 0 is_stmt 1
 1389 0024 072E     		cmp	r6, #7
 1390 0026 10D8     		bhi	.L137
 212:.\Generated_Source\PSoC5/CyLib.c ****         CY_CLK_PLL_Q_REG = ((uint8)(qDiv - 1u));
 1391              		.loc 1 212 0
 1392 0028 0B4B     		ldr	r3, .L140+4
 1393 002a 1D70     		strb	r5, [r3]
 213:.\Generated_Source\PSoC5/CyLib.c ****         CY_CLK_PLL_CFG1_REG = (CY_CLK_PLL_CFG1_REG & CY_CLK_PLL_CURRENT_MASK) |
 1394              		.loc 1 213 0
 1395 002c 013C     		subs	r4, r4, #1
 1396 002e E4B2     		uxtb	r4, r4
 1397 0030 0133     		adds	r3, r3, #1
 1398 0032 1C70     		strb	r4, [r3]
 214:.\Generated_Source\PSoC5/CyLib.c ****                                 ((uint8)(((uint8)(current - 1u)) << CY_CLK_PLL_CURRENT_POSITION));
 1399              		.loc 1 214 0
 1400 0034 0949     		ldr	r1, .L140+8
 1401 0036 0A78     		ldrb	r2, [r1]	@ zero_extendqisi2
 215:.\Generated_Source\PSoC5/CyLib.c ****     }
 1402              		.loc 1 215 0
 1403 0038 731E     		subs	r3, r6, #1
 1404 003a 1B01     		lsls	r3, r3, #4
 1405 003c 03F0F003 		and	r3, r3, #240
 214:.\Generated_Source\PSoC5/CyLib.c ****                                 ((uint8)(((uint8)(current - 1u)) << CY_CLK_PLL_CURRENT_POSITION));
 1406              		.loc 1 214 0
 1407 0040 02F08F02 		and	r2, r2, #143
 1408 0044 1343     		orrs	r3, r3, r2
 1409 0046 0B70     		strb	r3, [r1]
 1410 0048 70BD     		pop	{r4, r5, r6, pc}
 1411              	.L137:
 225:.\Generated_Source\PSoC5/CyLib.c ****     }
 1412              		.loc 1 225 0 discriminator 1
ARM GAS  C:\Users\cps\AppData\Local\Temp\ccxVhvgg.s 			page 56


 1413 004a 0020     		movs	r0, #0
 1414 004c FFF7FEFF 		bl	CyHalt
 1415              	.LVL74:
 1416 0050 70BD     		pop	{r4, r5, r6, pc}
 1417              	.L141:
 1418 0052 00BF     		.align	2
 1419              	.L140:
 1420 0054 20420040 		.word	1073758752
 1421 0058 22420040 		.word	1073758754
 1422 005c 21420040 		.word	1073758753
 1423              		.cfi_endproc
 1424              	.LFE2:
 1425              		.size	CyPLL_OUT_SetPQ, .-CyPLL_OUT_SetPQ
 1426              		.section	.text.CyPLL_OUT_SetSource,"ax",%progbits
 1427              		.align	2
 1428              		.global	CyPLL_OUT_SetSource
 1429              		.thumb
 1430              		.thumb_func
 1431              		.type	CyPLL_OUT_SetSource, %function
 1432              	CyPLL_OUT_SetSource:
 1433              	.LFB3:
 258:.\Generated_Source\PSoC5/CyLib.c ****     /* Halt CPU in debug mode if PLL is enabled */
 1434              		.loc 1 258 0
 1435              		.cfi_startproc
 1436              		@ args = 0, pretend = 0, frame = 0
 1437              		@ frame_needed = 0, uses_anonymous_args = 0
 1438              	.LVL75:
 1439 0000 10B5     		push	{r4, lr}
 1440              		.cfi_def_cfa_offset 8
 1441              		.cfi_offset 4, -8
 1442              		.cfi_offset 14, -4
 1443 0002 0446     		mov	r4, r0
 260:.\Generated_Source\PSoC5/CyLib.c **** 
 1444              		.loc 1 260 0
 1445 0004 0A4B     		ldr	r3, .L148
 1446 0006 1B78     		ldrb	r3, [r3]	@ zero_extendqisi2
 1447 0008 13F0010F 		tst	r3, #1
 1448 000c 02D0     		beq	.L143
 260:.\Generated_Source\PSoC5/CyLib.c **** 
 1449              		.loc 1 260 0 is_stmt 0 discriminator 1
 1450 000e 0020     		movs	r0, #0
 1451              	.LVL76:
 1452 0010 FFF7FEFF 		bl	CyHalt
 1453              	.LVL77:
 1454              	.L143:
 262:.\Generated_Source\PSoC5/CyLib.c ****     {
 1455              		.loc 1 262 0 is_stmt 1
 1456 0014 022C     		cmp	r4, #2
 1457 0016 07D8     		bhi	.L144
 267:.\Generated_Source\PSoC5/CyLib.c ****         break;
 1458              		.loc 1 267 0
 1459 0018 4FF04023 		mov	r3, #1073758208
 1460 001c 1878     		ldrb	r0, [r3]	@ zero_extendqisi2
 1461 001e 00F0FC00 		and	r0, r0, #252
 1462 0022 2043     		orrs	r0, r0, r4
 1463 0024 1870     		strb	r0, [r3]
 268:.\Generated_Source\PSoC5/CyLib.c **** 
ARM GAS  C:\Users\cps\AppData\Local\Temp\ccxVhvgg.s 			page 57


 1464              		.loc 1 268 0
 1465 0026 10BD     		pop	{r4, pc}
 1466              	.L144:
 271:.\Generated_Source\PSoC5/CyLib.c ****         break;
 1467              		.loc 1 271 0 discriminator 1
 1468 0028 0020     		movs	r0, #0
 1469 002a FFF7FEFF 		bl	CyHalt
 1470              	.LVL78:
 1471 002e 10BD     		pop	{r4, pc}
 1472              	.L149:
 1473              		.align	2
 1474              	.L148:
 1475 0030 20420040 		.word	1073758752
 1476              		.cfi_endproc
 1477              	.LFE3:
 1478              		.size	CyPLL_OUT_SetSource, .-CyPLL_OUT_SetSource
 1479              		.section	.text.CyIMO_SetTrimValue,"ax",%progbits
 1480              		.align	2
 1481              		.thumb
 1482              		.thumb_func
 1483              		.type	CyIMO_SetTrimValue, %function
 1484              	CyIMO_SetTrimValue:
 1485              	.LFB7:
 409:.\Generated_Source\PSoC5/CyLib.c ****     uint8 usbPowerOn = CyUSB_PowerOnCheck();
 1486              		.loc 1 409 0
 1487              		.cfi_startproc
 1488              		@ args = 0, pretend = 0, frame = 0
 1489              		@ frame_needed = 0, uses_anonymous_args = 0
 1490              	.LVL79:
 1491 0000 10B5     		push	{r4, lr}
 1492              		.cfi_def_cfa_offset 8
 1493              		.cfi_offset 4, -8
 1494              		.cfi_offset 14, -4
 1495 0002 0446     		mov	r4, r0
 410:.\Generated_Source\PSoC5/CyLib.c **** 
 1496              		.loc 1 410 0
 1497 0004 FFF7FEFF 		bl	CyUSB_PowerOnCheck
 1498              	.LVL80:
 413:.\Generated_Source\PSoC5/CyLib.c ****     {
 1499              		.loc 1 413 0
 1500 0008 0128     		cmp	r0, #1
 1501 000a 04D1     		bne	.L151
 416:.\Generated_Source\PSoC5/CyLib.c ****     }
 1502              		.loc 1 416 0
 1503 000c 254A     		ldr	r2, .L164
 1504 000e 1378     		ldrb	r3, [r2]	@ zero_extendqisi2
 1505 0010 03F0FD03 		and	r3, r3, #253
 1506 0014 1370     		strb	r3, [r2]
 1507              	.L151:
 418:.\Generated_Source\PSoC5/CyLib.c ****     {
 1508              		.loc 1 418 0
 1509 0016 082C     		cmp	r4, #8
 1510 0018 3FD8     		bhi	.L152
 1511 001a DFE804F0 		tbb	[pc, r4]
 1512              	.L154:
 1513 001e 05       		.byte	(.L153-.L154)/2
 1514 001f 0B       		.byte	(.L155-.L154)/2
ARM GAS  C:\Users\cps\AppData\Local\Temp\ccxVhvgg.s 			page 58


 1515 0020 11       		.byte	(.L156-.L154)/2
 1516 0021 17       		.byte	(.L157-.L154)/2
 1517 0022 1D       		.byte	(.L158-.L154)/2
 1518 0023 23       		.byte	(.L159-.L154)/2
 1519 0024 29       		.byte	(.L160-.L154)/2
 1520 0025 3E       		.byte	(.L152-.L154)/2
 1521 0026 2F       		.byte	(.L161-.L154)/2
 1522 0027 00       		.p2align 1
 1523              	.L153:
 421:.\Generated_Source\PSoC5/CyLib.c ****         break;
 1524              		.loc 1 421 0
 1525 0028 1F4B     		ldr	r3, .L164+4
 1526 002a 1B78     		ldrb	r3, [r3]	@ zero_extendqisi2
 1527 002c DBB2     		uxtb	r3, r3
 1528 002e 1F4A     		ldr	r2, .L164+8
 1529 0030 1370     		strb	r3, [r2]
 422:.\Generated_Source\PSoC5/CyLib.c **** 
 1530              		.loc 1 422 0
 1531 0032 10BD     		pop	{r4, pc}
 1532              	.L155:
 425:.\Generated_Source\PSoC5/CyLib.c ****         break;
 1533              		.loc 1 425 0
 1534 0034 1E4B     		ldr	r3, .L164+12
 1535 0036 1B78     		ldrb	r3, [r3]	@ zero_extendqisi2
 1536 0038 DBB2     		uxtb	r3, r3
 1537 003a 1C4A     		ldr	r2, .L164+8
 1538 003c 1370     		strb	r3, [r2]
 426:.\Generated_Source\PSoC5/CyLib.c **** 
 1539              		.loc 1 426 0
 1540 003e 10BD     		pop	{r4, pc}
 1541              	.L156:
 429:.\Generated_Source\PSoC5/CyLib.c ****         break;
 1542              		.loc 1 429 0
 1543 0040 1C4B     		ldr	r3, .L164+16
 1544 0042 1B78     		ldrb	r3, [r3]	@ zero_extendqisi2
 1545 0044 DBB2     		uxtb	r3, r3
 1546 0046 194A     		ldr	r2, .L164+8
 1547 0048 1370     		strb	r3, [r2]
 430:.\Generated_Source\PSoC5/CyLib.c **** 
 1548              		.loc 1 430 0
 1549 004a 10BD     		pop	{r4, pc}
 1550              	.L157:
 433:.\Generated_Source\PSoC5/CyLib.c ****         break;
 1551              		.loc 1 433 0
 1552 004c 1A4B     		ldr	r3, .L164+20
 1553 004e 1B78     		ldrb	r3, [r3]	@ zero_extendqisi2
 1554 0050 DBB2     		uxtb	r3, r3
 1555 0052 164A     		ldr	r2, .L164+8
 1556 0054 1370     		strb	r3, [r2]
 434:.\Generated_Source\PSoC5/CyLib.c **** 
 1557              		.loc 1 434 0
 1558 0056 10BD     		pop	{r4, pc}
 1559              	.L158:
 437:.\Generated_Source\PSoC5/CyLib.c ****         break;
 1560              		.loc 1 437 0
 1561 0058 184B     		ldr	r3, .L164+24
 1562 005a 1B78     		ldrb	r3, [r3]	@ zero_extendqisi2
ARM GAS  C:\Users\cps\AppData\Local\Temp\ccxVhvgg.s 			page 59


 1563 005c DBB2     		uxtb	r3, r3
 1564 005e 134A     		ldr	r2, .L164+8
 1565 0060 1370     		strb	r3, [r2]
 438:.\Generated_Source\PSoC5/CyLib.c **** 
 1566              		.loc 1 438 0
 1567 0062 10BD     		pop	{r4, pc}
 1568              	.L159:
 441:.\Generated_Source\PSoC5/CyLib.c ****         break;
 1569              		.loc 1 441 0
 1570 0064 164B     		ldr	r3, .L164+28
 1571 0066 1B78     		ldrb	r3, [r3]	@ zero_extendqisi2
 1572 0068 DBB2     		uxtb	r3, r3
 1573 006a 104A     		ldr	r2, .L164+8
 1574 006c 1370     		strb	r3, [r2]
 442:.\Generated_Source\PSoC5/CyLib.c **** 
 1575              		.loc 1 442 0
 1576 006e 10BD     		pop	{r4, pc}
 1577              	.L160:
 446:.\Generated_Source\PSoC5/CyLib.c ****         break;
 1578              		.loc 1 446 0
 1579 0070 144B     		ldr	r3, .L164+32
 1580 0072 1B78     		ldrb	r3, [r3]	@ zero_extendqisi2
 1581 0074 DBB2     		uxtb	r3, r3
 1582 0076 0D4A     		ldr	r2, .L164+8
 1583 0078 1370     		strb	r3, [r2]
 447:.\Generated_Source\PSoC5/CyLib.c **** #endif  /* (CY_PSOC5) */
 1584              		.loc 1 447 0
 1585 007a 10BD     		pop	{r4, pc}
 1586              	.L161:
 451:.\Generated_Source\PSoC5/CyLib.c **** 
 1587              		.loc 1 451 0
 1588 007c 124B     		ldr	r3, .L164+36
 1589 007e 1B78     		ldrb	r3, [r3]	@ zero_extendqisi2
 1590 0080 DBB2     		uxtb	r3, r3
 1591 0082 0A4A     		ldr	r2, .L164+8
 1592 0084 1370     		strb	r3, [r2]
 454:.\Generated_Source\PSoC5/CyLib.c ****         {
 1593              		.loc 1 454 0
 1594 0086 0128     		cmp	r0, #1
 1595 0088 0AD1     		bne	.L150
 457:.\Generated_Source\PSoC5/CyLib.c ****         }
 1596              		.loc 1 457 0
 1597 008a 02F5CB52 		add	r2, r2, #6496
 1598 008e 0832     		adds	r2, r2, #8
 1599 0090 1378     		ldrb	r3, [r2]	@ zero_extendqisi2
 1600 0092 43F00203 		orr	r3, r3, #2
 1601 0096 1370     		strb	r3, [r2]
 1602 0098 10BD     		pop	{r4, pc}
 1603              	.L152:
 462:.\Generated_Source\PSoC5/CyLib.c ****         break;
 1604              		.loc 1 462 0 discriminator 1
 1605 009a 0020     		movs	r0, #0
 1606              	.LVL81:
 1607 009c FFF7FEFF 		bl	CyHalt
 1608              	.LVL82:
 1609              	.L150:
 1610 00a0 10BD     		pop	{r4, pc}
ARM GAS  C:\Users\cps\AppData\Local\Temp\ccxVhvgg.s 			page 60


 1611              	.L165:
 1612 00a2 00BF     		.align	2
 1613              	.L164:
 1614 00a4 09600040 		.word	1073766409
 1615 00a8 08010049 		.word	1224737032
 1616 00ac A1460040 		.word	1073759905
 1617 00b0 09010049 		.word	1224737033
 1618 00b4 0A010049 		.word	1224737034
 1619 00b8 0B010049 		.word	1224737035
 1620 00bc 89010049 		.word	1224737161
 1621 00c0 0C010049 		.word	1224737036
 1622 00c4 0D010049 		.word	1224737037
 1623 00c8 0F010049 		.word	1224737039
 1624              		.cfi_endproc
 1625              	.LFE7:
 1626              		.size	CyIMO_SetTrimValue, .-CyIMO_SetTrimValue
 1627              		.section	.text.CyIMO_SetFreq,"ax",%progbits
 1628              		.align	2
 1629              		.global	CyIMO_SetFreq
 1630              		.thumb
 1631              		.thumb_func
 1632              		.type	CyIMO_SetFreq, %function
 1633              	CyIMO_SetFreq:
 1634              	.LFB8:
 504:.\Generated_Source\PSoC5/CyLib.c ****     uint8 currentFreq;
 1635              		.loc 1 504 0
 1636              		.cfi_startproc
 1637              		@ args = 0, pretend = 0, frame = 0
 1638              		@ frame_needed = 0, uses_anonymous_args = 0
 1639              	.LVL83:
 1640 0000 70B5     		push	{r4, r5, r6, lr}
 1641              		.cfi_def_cfa_offset 16
 1642              		.cfi_offset 4, -16
 1643              		.cfi_offset 5, -12
 1644              		.cfi_offset 6, -8
 1645              		.cfi_offset 14, -4
 1646 0002 0646     		mov	r6, r0
 515:.\Generated_Source\PSoC5/CyLib.c **** 
 1647              		.loc 1 515 0
 1648 0004 3A4B     		ldr	r3, .L191
 1649 0006 1C78     		ldrb	r4, [r3]	@ zero_extendqisi2
 1650 0008 04F00704 		and	r4, r4, #7
 1651              	.LVL84:
 518:.\Generated_Source\PSoC5/CyLib.c **** 
 1652              		.loc 1 518 0
 1653 000c 0828     		cmp	r0, #8
 1654 000e 01D1     		bne	.L189
 1655 0010 0325     		movs	r5, #3
 1656 0012 00E0     		b	.L167
 1657              	.L189:
 1658 0014 0546     		mov	r5, r0
 1659              	.L167:
 1660              	.LVL85:
 520:.\Generated_Source\PSoC5/CyLib.c ****     {
 1661              		.loc 1 520 0 discriminator 4
 1662 0016 062C     		cmp	r4, #6
 1663 0018 0BD8     		bhi	.L168
ARM GAS  C:\Users\cps\AppData\Local\Temp\ccxVhvgg.s 			page 61


 1664 001a DFE804F0 		tbb	[pc, r4]
 1665              	.L170:
 1666 001e 04       		.byte	(.L169-.L170)/2
 1667 001f 0D       		.byte	(.L171-.L170)/2
 1668 0020 06       		.byte	(.L172-.L170)/2
 1669 0021 08       		.byte	(.L173-.L170)/2
 1670 0022 0D       		.byte	(.L171-.L170)/2
 1671 0023 0D       		.byte	(.L171-.L170)/2
 1672 0024 0D       		.byte	(.L171-.L170)/2
 1673 0025 00       		.p2align 1
 1674              	.L169:
 523:.\Generated_Source\PSoC5/CyLib.c ****         break;
 1675              		.loc 1 523 0
 1676 0026 0224     		movs	r4, #2
 1677              	.LVL86:
 1678 0028 06E0     		b	.L171
 1679              	.LVL87:
 1680              	.L172:
 531:.\Generated_Source\PSoC5/CyLib.c ****         break;
 1681              		.loc 1 531 0
 1682 002a 0324     		movs	r4, #3
 532:.\Generated_Source\PSoC5/CyLib.c **** 
 1683              		.loc 1 532 0
 1684 002c 04E0     		b	.L171
 1685              	.LVL88:
 1686              	.L173:
 535:.\Generated_Source\PSoC5/CyLib.c ****         break;
 1687              		.loc 1 535 0
 1688 002e 0024     		movs	r4, #0
 536:.\Generated_Source\PSoC5/CyLib.c **** 
 1689              		.loc 1 536 0
 1690 0030 02E0     		b	.L171
 1691              	.LVL89:
 1692              	.L168:
 553:.\Generated_Source\PSoC5/CyLib.c ****         break;
 1693              		.loc 1 553 0 discriminator 1
 1694 0032 0020     		movs	r0, #0
 1695              	.LVL90:
 1696 0034 FFF7FEFF 		bl	CyHalt
 1697              	.LVL91:
 1698              	.L171:
 557:.\Generated_Source\PSoC5/CyLib.c ****     {
 1699              		.loc 1 557 0
 1700 0038 AC42     		cmp	r4, r5
 1701 003a 02D8     		bhi	.L174
 560:.\Generated_Source\PSoC5/CyLib.c ****     }
 1702              		.loc 1 560 0
 1703 003c 3046     		mov	r0, r6
 1704 003e FFF7FEFF 		bl	CyIMO_SetTrimValue
 1705              	.LVL92:
 1706              	.L174:
 564:.\Generated_Source\PSoC5/CyLib.c ****     {
 1707              		.loc 1 564 0
 1708 0042 082E     		cmp	r6, #8
 1709 0044 44D8     		bhi	.L175
 1710 0046 DFE806F0 		tbb	[pc, r6]
 1711              	.L177:
ARM GAS  C:\Users\cps\AppData\Local\Temp\ccxVhvgg.s 			page 62


 1712 004a 05       		.byte	(.L176-.L177)/2
 1713 004b 0D       		.byte	(.L178-.L177)/2
 1714 004c 15       		.byte	(.L179-.L177)/2
 1715 004d 1B       		.byte	(.L180-.L177)/2
 1716 004e 23       		.byte	(.L181-.L177)/2
 1717 004f 2B       		.byte	(.L182-.L177)/2
 1718 0050 33       		.byte	(.L183-.L177)/2
 1719 0051 43       		.byte	(.L175-.L177)/2
 1720 0052 3B       		.byte	(.L184-.L177)/2
 1721 0053 00       		.p2align 1
 1722              	.L176:
 567:.\Generated_Source\PSoC5/CyLib.c ****             CY_LIB_IMO_3MHZ_VALUE) & ((uint8)(~CY_LIB_IMO_USBCLK_ON_SET));
 1723              		.loc 1 567 0
 1724 0054 264A     		ldr	r2, .L191
 1725 0056 1378     		ldrb	r3, [r2]	@ zero_extendqisi2
 1726 0058 03F0B803 		and	r3, r3, #184
 1727 005c 43F00303 		orr	r3, r3, #3
 1728 0060 1370     		strb	r3, [r2]
 569:.\Generated_Source\PSoC5/CyLib.c **** 
 1729              		.loc 1 569 0
 1730 0062 38E0     		b	.L185
 1731              	.L178:
 572:.\Generated_Source\PSoC5/CyLib.c ****             CY_LIB_IMO_6MHZ_VALUE) & ((uint8)(~CY_LIB_IMO_USBCLK_ON_SET));
 1732              		.loc 1 572 0
 1733 0064 224A     		ldr	r2, .L191
 1734 0066 1378     		ldrb	r3, [r2]	@ zero_extendqisi2
 1735 0068 03F0B803 		and	r3, r3, #184
 1736 006c 43F00103 		orr	r3, r3, #1
 1737 0070 1370     		strb	r3, [r2]
 574:.\Generated_Source\PSoC5/CyLib.c **** 
 1738              		.loc 1 574 0
 1739 0072 30E0     		b	.L185
 1740              	.L179:
 577:.\Generated_Source\PSoC5/CyLib.c ****             CY_LIB_IMO_12MHZ_VALUE) & ((uint8)(~CY_LIB_IMO_USBCLK_ON_SET));
 1741              		.loc 1 577 0
 1742 0074 1E4A     		ldr	r2, .L191
 1743 0076 1378     		ldrb	r3, [r2]	@ zero_extendqisi2
 1744 0078 03F0B803 		and	r3, r3, #184
 1745 007c 1370     		strb	r3, [r2]
 579:.\Generated_Source\PSoC5/CyLib.c **** 
 1746              		.loc 1 579 0
 1747 007e 2AE0     		b	.L185
 1748              	.L180:
 582:.\Generated_Source\PSoC5/CyLib.c ****             CY_LIB_IMO_24MHZ_VALUE) & ((uint8)(~CY_LIB_IMO_USBCLK_ON_SET));
 1749              		.loc 1 582 0
 1750 0080 1B4A     		ldr	r2, .L191
 1751 0082 1378     		ldrb	r3, [r2]	@ zero_extendqisi2
 1752 0084 03F0B803 		and	r3, r3, #184
 1753 0088 43F00203 		orr	r3, r3, #2
 1754 008c 1370     		strb	r3, [r2]
 584:.\Generated_Source\PSoC5/CyLib.c **** 
 1755              		.loc 1 584 0
 1756 008e 22E0     		b	.L185
 1757              	.L181:
 587:.\Generated_Source\PSoC5/CyLib.c ****             CY_LIB_IMO_48MHZ_VALUE) & ((uint8)(~CY_LIB_IMO_USBCLK_ON_SET));
 1758              		.loc 1 587 0
 1759 0090 174A     		ldr	r2, .L191
ARM GAS  C:\Users\cps\AppData\Local\Temp\ccxVhvgg.s 			page 63


 1760 0092 1378     		ldrb	r3, [r2]	@ zero_extendqisi2
 1761 0094 03F0B803 		and	r3, r3, #184
 1762 0098 43F00403 		orr	r3, r3, #4
 1763 009c 1370     		strb	r3, [r2]
 589:.\Generated_Source\PSoC5/CyLib.c **** 
 1764              		.loc 1 589 0
 1765 009e 1AE0     		b	.L185
 1766              	.L182:
 592:.\Generated_Source\PSoC5/CyLib.c ****             CY_LIB_IMO_62MHZ_VALUE) & ((uint8)(~CY_LIB_IMO_USBCLK_ON_SET));
 1767              		.loc 1 592 0
 1768 00a0 134A     		ldr	r2, .L191
 1769 00a2 1378     		ldrb	r3, [r2]	@ zero_extendqisi2
 1770 00a4 03F0B803 		and	r3, r3, #184
 1771 00a8 43F00503 		orr	r3, r3, #5
 1772 00ac 1370     		strb	r3, [r2]
 594:.\Generated_Source\PSoC5/CyLib.c **** 
 1773              		.loc 1 594 0
 1774 00ae 12E0     		b	.L185
 1775              	.L183:
 598:.\Generated_Source\PSoC5/CyLib.c ****             CY_LIB_IMO_74MHZ_VALUE) & ((uint8)(~CY_LIB_IMO_USBCLK_ON_SET));
 1776              		.loc 1 598 0
 1777 00b0 0F4A     		ldr	r2, .L191
 1778 00b2 1378     		ldrb	r3, [r2]	@ zero_extendqisi2
 1779 00b4 03F0B803 		and	r3, r3, #184
 1780 00b8 43F00603 		orr	r3, r3, #6
 1781 00bc 1370     		strb	r3, [r2]
 600:.\Generated_Source\PSoC5/CyLib.c **** #endif  /* (CY_PSOC5) */
 1782              		.loc 1 600 0
 1783 00be 0AE0     		b	.L185
 1784              	.L184:
 604:.\Generated_Source\PSoC5/CyLib.c ****             CY_LIB_IMO_24MHZ_VALUE) | CY_LIB_IMO_USBCLK_ON_SET;
 1785              		.loc 1 604 0
 1786 00c0 0B4A     		ldr	r2, .L191
 1787 00c2 1378     		ldrb	r3, [r2]	@ zero_extendqisi2
 1788 00c4 03F0B803 		and	r3, r3, #184
 1789 00c8 43F04203 		orr	r3, r3, #66
 1790 00cc 1370     		strb	r3, [r2]
 606:.\Generated_Source\PSoC5/CyLib.c **** 
 1791              		.loc 1 606 0
 1792 00ce 02E0     		b	.L185
 1793              	.L175:
 609:.\Generated_Source\PSoC5/CyLib.c ****         break;
 1794              		.loc 1 609 0 discriminator 1
 1795 00d0 0020     		movs	r0, #0
 1796 00d2 FFF7FEFF 		bl	CyHalt
 1797              	.LVL93:
 1798              	.L185:
 614:.\Generated_Source\PSoC5/CyLib.c ****     {
 1799              		.loc 1 614 0
 1800 00d6 082E     		cmp	r6, #8
 1801 00d8 02D1     		bne	.L186
 616:.\Generated_Source\PSoC5/CyLib.c ****     }
 1802              		.loc 1 616 0
 1803 00da FFF7FEFF 		bl	CyIMO_EnableDoubler
 1804              	.LVL94:
 1805 00de 01E0     		b	.L187
 1806              	.L186:
ARM GAS  C:\Users\cps\AppData\Local\Temp\ccxVhvgg.s 			page 64


 620:.\Generated_Source\PSoC5/CyLib.c ****     }
 1807              		.loc 1 620 0
 1808 00e0 FFF7FEFF 		bl	CyIMO_DisableDoubler
 1809              	.LVL95:
 1810              	.L187:
 623:.\Generated_Source\PSoC5/CyLib.c ****     {
 1811              		.loc 1 623 0
 1812 00e4 AC42     		cmp	r4, r5
 1813 00e6 02D9     		bls	.L166
 626:.\Generated_Source\PSoC5/CyLib.c ****     }
 1814              		.loc 1 626 0
 1815 00e8 3046     		mov	r0, r6
 1816 00ea FFF7FEFF 		bl	CyIMO_SetTrimValue
 1817              	.LVL96:
 1818              	.L166:
 1819 00ee 70BD     		pop	{r4, r5, r6, pc}
 1820              	.LVL97:
 1821              	.L192:
 1822              		.align	2
 1823              	.L191:
 1824 00f0 00420040 		.word	1073758720
 1825              		.cfi_endproc
 1826              	.LFE8:
 1827              		.size	CyIMO_SetFreq, .-CyIMO_SetFreq
 1828              		.section	.text.CyIMO_SetSource,"ax",%progbits
 1829              		.align	2
 1830              		.global	CyIMO_SetSource
 1831              		.thumb
 1832              		.thumb_func
 1833              		.type	CyIMO_SetSource, %function
 1834              	CyIMO_SetSource:
 1835              	.LFB9:
 659:.\Generated_Source\PSoC5/CyLib.c ****     switch(source)
 1836              		.loc 1 659 0
 1837              		.cfi_startproc
 1838              		@ args = 0, pretend = 0, frame = 0
 1839              		@ frame_needed = 0, uses_anonymous_args = 0
 1840              	.LVL98:
 1841 0000 08B5     		push	{r3, lr}
 1842              		.cfi_def_cfa_offset 8
 1843              		.cfi_offset 3, -8
 1844              		.cfi_offset 14, -4
 660:.\Generated_Source\PSoC5/CyLib.c ****     {
 1845              		.loc 1 660 0
 1846 0002 0128     		cmp	r0, #1
 1847 0004 0FD0     		beq	.L195
 1848 0006 D8B1     		cbz	r0, .L196
 1849 0008 0228     		cmp	r0, #2
 1850 000a 1FD1     		bne	.L199
 663:.\Generated_Source\PSoC5/CyLib.c ****         CY_LIB_FASTCLK_IMO_CR_REG |= CY_LIB_FASTCLK_IMO_IMO;
 1851              		.loc 1 663 0
 1852 000c 4FF04022 		mov	r2, #1073758208
 1853 0010 1378     		ldrb	r3, [r2]	@ zero_extendqisi2
 1854 0012 03F0BF03 		and	r3, r3, #191
 1855 0016 1370     		strb	r3, [r2]
 664:.\Generated_Source\PSoC5/CyLib.c ****         break;
 1856              		.loc 1 664 0
ARM GAS  C:\Users\cps\AppData\Local\Temp\ccxVhvgg.s 			page 65


 1857 0018 02F50072 		add	r2, r2, #512
 1858 001c 1378     		ldrb	r3, [r2]	@ zero_extendqisi2
 1859 001e 43F02003 		orr	r3, r3, #32
 1860 0022 1370     		strb	r3, [r2]
 665:.\Generated_Source\PSoC5/CyLib.c **** 
 1861              		.loc 1 665 0
 1862 0024 08BD     		pop	{r3, pc}
 1863              	.L195:
 668:.\Generated_Source\PSoC5/CyLib.c ****         CY_LIB_FASTCLK_IMO_CR_REG |= CY_LIB_FASTCLK_IMO_IMO;
 1864              		.loc 1 668 0
 1865 0026 4FF04022 		mov	r2, #1073758208
 1866 002a 1378     		ldrb	r3, [r2]	@ zero_extendqisi2
 1867 002c 43F04003 		orr	r3, r3, #64
 1868 0030 1370     		strb	r3, [r2]
 669:.\Generated_Source\PSoC5/CyLib.c ****         break;
 1869              		.loc 1 669 0
 1870 0032 02F50072 		add	r2, r2, #512
 1871 0036 1378     		ldrb	r3, [r2]	@ zero_extendqisi2
 1872 0038 43F02003 		orr	r3, r3, #32
 1873 003c 1370     		strb	r3, [r2]
 670:.\Generated_Source\PSoC5/CyLib.c **** 
 1874              		.loc 1 670 0
 1875 003e 08BD     		pop	{r3, pc}
 1876              	.L196:
 673:.\Generated_Source\PSoC5/CyLib.c ****         break;
 1877              		.loc 1 673 0
 1878 0040 044A     		ldr	r2, .L201
 1879 0042 1378     		ldrb	r3, [r2]	@ zero_extendqisi2
 1880 0044 03F0DF03 		and	r3, r3, #223
 1881 0048 1370     		strb	r3, [r2]
 674:.\Generated_Source\PSoC5/CyLib.c **** 
 1882              		.loc 1 674 0
 1883 004a 08BD     		pop	{r3, pc}
 1884              	.L199:
 678:.\Generated_Source\PSoC5/CyLib.c ****         break;
 1885              		.loc 1 678 0 discriminator 1
 1886 004c 0020     		movs	r0, #0
 1887              	.LVL99:
 1888 004e FFF7FEFF 		bl	CyHalt
 1889              	.LVL100:
 1890 0052 08BD     		pop	{r3, pc}
 1891              	.L202:
 1892              		.align	2
 1893              	.L201:
 1894 0054 00420040 		.word	1073758720
 1895              		.cfi_endproc
 1896              	.LFE9:
 1897              		.size	CyIMO_SetSource, .-CyIMO_SetSource
 1898              		.section	.text.CySoftwareReset,"ax",%progbits
 1899              		.align	2
 1900              		.global	CySoftwareReset
 1901              		.thumb
 1902              		.thumb_func
 1903              		.type	CySoftwareReset, %function
 1904              	CySoftwareReset:
 1905              	.LFB40:
1651:.\Generated_Source\PSoC5/CyLib.c ****     #elif defined(__C51__)
ARM GAS  C:\Users\cps\AppData\Local\Temp\ccxVhvgg.s 			page 66


1652:.\Generated_Source\PSoC5/CyLib.c ****         CYDEV_HALT_CPU;
1653:.\Generated_Source\PSoC5/CyLib.c ****     #endif  /* (__ARMCC_VERSION) */
1654:.\Generated_Source\PSoC5/CyLib.c **** }
1655:.\Generated_Source\PSoC5/CyLib.c **** 
1656:.\Generated_Source\PSoC5/CyLib.c **** 
1657:.\Generated_Source\PSoC5/CyLib.c **** /*******************************************************************************
1658:.\Generated_Source\PSoC5/CyLib.c **** * Function Name: CySoftwareReset
1659:.\Generated_Source\PSoC5/CyLib.c **** ********************************************************************************
1660:.\Generated_Source\PSoC5/CyLib.c **** *
1661:.\Generated_Source\PSoC5/CyLib.c **** * Summary:
1662:.\Generated_Source\PSoC5/CyLib.c **** *  Forces a device software reset.
1663:.\Generated_Source\PSoC5/CyLib.c **** *
1664:.\Generated_Source\PSoC5/CyLib.c **** * Parameters:
1665:.\Generated_Source\PSoC5/CyLib.c **** *  None
1666:.\Generated_Source\PSoC5/CyLib.c **** *
1667:.\Generated_Source\PSoC5/CyLib.c **** * Return:
1668:.\Generated_Source\PSoC5/CyLib.c **** *  None
1669:.\Generated_Source\PSoC5/CyLib.c **** *
1670:.\Generated_Source\PSoC5/CyLib.c **** *******************************************************************************/
1671:.\Generated_Source\PSoC5/CyLib.c **** void CySoftwareReset(void) 
1672:.\Generated_Source\PSoC5/CyLib.c **** {
 1906              		.loc 1 1672 0
 1907              		.cfi_startproc
 1908              		@ args = 0, pretend = 0, frame = 0
 1909              		@ frame_needed = 0, uses_anonymous_args = 0
 1910              		@ link register save eliminated.
1673:.\Generated_Source\PSoC5/CyLib.c ****     CY_LIB_RESET_CR2_REG |= CY_LIB_RESET_CR2_RESET;
 1911              		.loc 1 1673 0
 1912 0000 024A     		ldr	r2, .L204
 1913 0002 1378     		ldrb	r3, [r2]	@ zero_extendqisi2
 1914 0004 43F00103 		orr	r3, r3, #1
 1915 0008 1370     		strb	r3, [r2]
 1916 000a 7047     		bx	lr
 1917              	.L205:
 1918              		.align	2
 1919              	.L204:
 1920 000c F6460040 		.word	1073759990
 1921              		.cfi_endproc
 1922              	.LFE40:
 1923              		.size	CySoftwareReset, .-CySoftwareReset
 1924              		.section	.text.CyDelay,"ax",%progbits
 1925              		.align	2
 1926              		.global	CyDelay
 1927              		.thumb
 1928              		.thumb_func
 1929              		.type	CyDelay, %function
 1930              	CyDelay:
 1931              	.LFB41:
1674:.\Generated_Source\PSoC5/CyLib.c **** }
1675:.\Generated_Source\PSoC5/CyLib.c **** 
1676:.\Generated_Source\PSoC5/CyLib.c **** 
1677:.\Generated_Source\PSoC5/CyLib.c **** /*******************************************************************************
1678:.\Generated_Source\PSoC5/CyLib.c **** * Function Name: CyDelay
1679:.\Generated_Source\PSoC5/CyLib.c **** ********************************************************************************
1680:.\Generated_Source\PSoC5/CyLib.c **** *
1681:.\Generated_Source\PSoC5/CyLib.c **** * Summary:
1682:.\Generated_Source\PSoC5/CyLib.c **** *  Blocks for milliseconds.
ARM GAS  C:\Users\cps\AppData\Local\Temp\ccxVhvgg.s 			page 67


1683:.\Generated_Source\PSoC5/CyLib.c **** *
1684:.\Generated_Source\PSoC5/CyLib.c **** *  Note:
1685:.\Generated_Source\PSoC5/CyLib.c **** *  CyDelay has been implemented with the instruction cache assumed enabled. When
1686:.\Generated_Source\PSoC5/CyLib.c **** *  the instruction cache is disabled on PSoC5, CyDelay will be two times larger.
1687:.\Generated_Source\PSoC5/CyLib.c **** *  For example, with instruction cache disabled CyDelay(100) would result in
1688:.\Generated_Source\PSoC5/CyLib.c **** *  about 200 ms delay instead of 100 ms.
1689:.\Generated_Source\PSoC5/CyLib.c **** *
1690:.\Generated_Source\PSoC5/CyLib.c **** * Parameters:
1691:.\Generated_Source\PSoC5/CyLib.c **** *  milliseconds: number of milliseconds to delay.
1692:.\Generated_Source\PSoC5/CyLib.c **** *
1693:.\Generated_Source\PSoC5/CyLib.c **** * Return:
1694:.\Generated_Source\PSoC5/CyLib.c **** *   None
1695:.\Generated_Source\PSoC5/CyLib.c **** *
1696:.\Generated_Source\PSoC5/CyLib.c **** *******************************************************************************/
1697:.\Generated_Source\PSoC5/CyLib.c **** void CyDelay(uint32 milliseconds) CYREENTRANT
1698:.\Generated_Source\PSoC5/CyLib.c **** {
 1932              		.loc 1 1698 0
 1933              		.cfi_startproc
 1934              		@ args = 0, pretend = 0, frame = 0
 1935              		@ frame_needed = 0, uses_anonymous_args = 0
 1936              	.LVL101:
 1937 0000 10B5     		push	{r4, lr}
 1938              		.cfi_def_cfa_offset 8
 1939              		.cfi_offset 4, -8
 1940              		.cfi_offset 14, -4
 1941 0002 0446     		mov	r4, r0
1699:.\Generated_Source\PSoC5/CyLib.c ****     while (milliseconds > 32768u)
 1942              		.loc 1 1699 0
 1943 0004 05E0     		b	.L207
 1944              	.LVL102:
 1945              	.L208:
1700:.\Generated_Source\PSoC5/CyLib.c ****     {
1701:.\Generated_Source\PSoC5/CyLib.c ****         /***********************************************************************
1702:.\Generated_Source\PSoC5/CyLib.c ****         * This loop prevents overflow.At 100MHz, milliseconds * delay_freq_khz
1703:.\Generated_Source\PSoC5/CyLib.c ****         * overflows at about 42 seconds.
1704:.\Generated_Source\PSoC5/CyLib.c ****         ***********************************************************************/
1705:.\Generated_Source\PSoC5/CyLib.c ****         CyDelayCycles(cydelay_32k_ms);
 1946              		.loc 1 1705 0
 1947 0006 084B     		ldr	r3, .L210
 1948 0008 1868     		ldr	r0, [r3]
 1949 000a FFF7FEFF 		bl	CyDelayCycles
 1950              	.LVL103:
1706:.\Generated_Source\PSoC5/CyLib.c ****         milliseconds = ((uint32)(milliseconds - 32768u));
 1951              		.loc 1 1706 0
 1952 000e A4F50044 		sub	r4, r4, #32768
 1953              	.LVL104:
 1954              	.L207:
1699:.\Generated_Source\PSoC5/CyLib.c ****     while (milliseconds > 32768u)
 1955              		.loc 1 1699 0
 1956 0012 B4F5004F 		cmp	r4, #32768
 1957 0016 F6D8     		bhi	.L208
1707:.\Generated_Source\PSoC5/CyLib.c ****     }
1708:.\Generated_Source\PSoC5/CyLib.c **** 
1709:.\Generated_Source\PSoC5/CyLib.c ****     CyDelayCycles(milliseconds * cydelay_freq_khz);
 1958              		.loc 1 1709 0
 1959 0018 034B     		ldr	r3, .L210
 1960 001a 5868     		ldr	r0, [r3, #4]
ARM GAS  C:\Users\cps\AppData\Local\Temp\ccxVhvgg.s 			page 68


 1961 001c 00FB04F0 		mul	r0, r0, r4
 1962 0020 FFF7FEFF 		bl	CyDelayCycles
 1963              	.LVL105:
 1964 0024 10BD     		pop	{r4, pc}
 1965              	.LVL106:
 1966              	.L211:
 1967 0026 00BF     		.align	2
 1968              	.L210:
 1969 0028 00000000 		.word	.LANCHOR0
 1970              		.cfi_endproc
 1971              	.LFE41:
 1972              		.size	CyDelay, .-CyDelay
 1973              		.section	.text.CyDelayUs,"ax",%progbits
 1974              		.align	2
 1975              		.global	CyDelayUs
 1976              		.thumb
 1977              		.thumb_func
 1978              		.type	CyDelayUs, %function
 1979              	CyDelayUs:
 1980              	.LFB42:
1710:.\Generated_Source\PSoC5/CyLib.c **** }
1711:.\Generated_Source\PSoC5/CyLib.c **** 
1712:.\Generated_Source\PSoC5/CyLib.c **** 
1713:.\Generated_Source\PSoC5/CyLib.c **** #if(!CY_PSOC3)
1714:.\Generated_Source\PSoC5/CyLib.c **** 
1715:.\Generated_Source\PSoC5/CyLib.c ****     /* For PSoC3 devices function is defined in CyBootAsmKeil.a51 file */
1716:.\Generated_Source\PSoC5/CyLib.c **** 
1717:.\Generated_Source\PSoC5/CyLib.c ****     /*******************************************************************************
1718:.\Generated_Source\PSoC5/CyLib.c ****     * Function Name: CyDelayUs
1719:.\Generated_Source\PSoC5/CyLib.c ****     ********************************************************************************
1720:.\Generated_Source\PSoC5/CyLib.c ****     *
1721:.\Generated_Source\PSoC5/CyLib.c ****     * Summary:
1722:.\Generated_Source\PSoC5/CyLib.c ****     *  Blocks for microseconds.
1723:.\Generated_Source\PSoC5/CyLib.c ****     *
1724:.\Generated_Source\PSoC5/CyLib.c ****     *  Note:
1725:.\Generated_Source\PSoC5/CyLib.c ****     *   CyDelay has been implemented with the instruction cache assumed enabled.
1726:.\Generated_Source\PSoC5/CyLib.c ****     *   When instruction cache is disabled on PSoC5, CyDelayUs will be two times
1727:.\Generated_Source\PSoC5/CyLib.c ****     *   larger. Ex: With instruction cache disabled CyDelayUs(100) would result
1728:.\Generated_Source\PSoC5/CyLib.c ****     *   in about 200us delay instead of 100us.
1729:.\Generated_Source\PSoC5/CyLib.c ****     *
1730:.\Generated_Source\PSoC5/CyLib.c ****     * Parameters:
1731:.\Generated_Source\PSoC5/CyLib.c ****     *  uint16 microseconds: number of microseconds to delay.
1732:.\Generated_Source\PSoC5/CyLib.c ****     *
1733:.\Generated_Source\PSoC5/CyLib.c ****     * Return:
1734:.\Generated_Source\PSoC5/CyLib.c ****     *  None
1735:.\Generated_Source\PSoC5/CyLib.c ****     *
1736:.\Generated_Source\PSoC5/CyLib.c ****     * Side Effects:
1737:.\Generated_Source\PSoC5/CyLib.c ****     *  CyDelayUS has been implemented with the instruction cache assumed enabled.
1738:.\Generated_Source\PSoC5/CyLib.c ****     *  When the instruction cache is disabled on PSoC 5, CyDelayUs will be two times
1739:.\Generated_Source\PSoC5/CyLib.c ****     *  larger. For example, with the instruction cache disabled CyDelayUs(100) would
1740:.\Generated_Source\PSoC5/CyLib.c ****     *  result in about 200 us delay instead of 100 us.
1741:.\Generated_Source\PSoC5/CyLib.c ****     *
1742:.\Generated_Source\PSoC5/CyLib.c ****     *  If the bus clock frequency is a small non-integer number, the actual delay
1743:.\Generated_Source\PSoC5/CyLib.c ****     *  can be up to twice as long as the nominal value. The actual delay cannot be
1744:.\Generated_Source\PSoC5/CyLib.c ****     *  shorter than the nominal one.
1745:.\Generated_Source\PSoC5/CyLib.c ****     *******************************************************************************/
1746:.\Generated_Source\PSoC5/CyLib.c ****     void CyDelayUs(uint16 microseconds) CYREENTRANT
ARM GAS  C:\Users\cps\AppData\Local\Temp\ccxVhvgg.s 			page 69


1747:.\Generated_Source\PSoC5/CyLib.c ****     {
 1981              		.loc 1 1747 0
 1982              		.cfi_startproc
 1983              		@ args = 0, pretend = 0, frame = 0
 1984              		@ frame_needed = 0, uses_anonymous_args = 0
 1985              	.LVL107:
 1986 0000 08B5     		push	{r3, lr}
 1987              		.cfi_def_cfa_offset 8
 1988              		.cfi_offset 3, -8
 1989              		.cfi_offset 14, -4
1748:.\Generated_Source\PSoC5/CyLib.c ****         CyDelayCycles((uint32)microseconds * cydelay_freq_mhz);
 1990              		.loc 1 1748 0
 1991 0002 034B     		ldr	r3, .L214
 1992 0004 1B7A     		ldrb	r3, [r3, #8]	@ zero_extendqisi2
 1993 0006 03FB00F0 		mul	r0, r3, r0
 1994              	.LVL108:
 1995 000a FFF7FEFF 		bl	CyDelayCycles
 1996              	.LVL109:
 1997 000e 08BD     		pop	{r3, pc}
 1998              	.L215:
 1999              		.align	2
 2000              	.L214:
 2001 0010 00000000 		.word	.LANCHOR0
 2002              		.cfi_endproc
 2003              	.LFE42:
 2004              		.size	CyDelayUs, .-CyDelayUs
 2005              		.section	.text.CyXTAL_32KHZ_SetPowerMode,"ax",%progbits
 2006              		.align	2
 2007              		.global	CyXTAL_32KHZ_SetPowerMode
 2008              		.thumb
 2009              		.thumb_func
 2010              		.type	CyXTAL_32KHZ_SetPowerMode, %function
 2011              	CyXTAL_32KHZ_SetPowerMode:
 2012              	.LFB28:
1284:.\Generated_Source\PSoC5/CyLib.c ****     uint8 state = (0u != (CY_CLK_XTAL32_CR_REG & CY_CLK_XTAL32_CR_LPM)) ? 1u : 0u;
 2013              		.loc 1 1284 0
 2014              		.cfi_startproc
 2015              		@ args = 0, pretend = 0, frame = 0
 2016              		@ frame_needed = 0, uses_anonymous_args = 0
 2017              	.LVL110:
 2018 0000 10B5     		push	{r4, lr}
 2019              		.cfi_def_cfa_offset 8
 2020              		.cfi_offset 4, -8
 2021              		.cfi_offset 14, -4
1285:.\Generated_Source\PSoC5/CyLib.c **** 
 2022              		.loc 1 1285 0
 2023 0002 1C4B     		ldr	r3, .L222
 2024 0004 1B78     		ldrb	r3, [r3]	@ zero_extendqisi2
 2025 0006 13F0020F 		tst	r3, #2
 2026 000a 01D0     		beq	.L220
 2027 000c 0124     		movs	r4, #1
 2028 000e 00E0     		b	.L217
 2029              	.L220:
 2030 0010 0024     		movs	r4, #0
 2031              	.L217:
 2032              	.LVL111:
1287:.\Generated_Source\PSoC5/CyLib.c **** 
ARM GAS  C:\Users\cps\AppData\Local\Temp\ccxVhvgg.s 			page 70


 2033              		.loc 1 1287 0 discriminator 4
 2034 0012 F322     		movs	r2, #243
 2035 0014 184B     		ldr	r3, .L222+4
 2036 0016 1A70     		strb	r2, [r3]
1289:.\Generated_Source\PSoC5/CyLib.c ****     {
 2037              		.loc 1 1289 0 discriminator 4
 2038 0018 0128     		cmp	r0, #1
 2039 001a 16D1     		bne	.L218
1292:.\Generated_Source\PSoC5/CyLib.c ****         CyDelayUs(10u);
 2040              		.loc 1 1292 0
 2041 001c 0122     		movs	r2, #1
 2042 001e 03F28E33 		addw	r3, r3, #910
 2043 0022 1A70     		strb	r2, [r3]
1293:.\Generated_Source\PSoC5/CyLib.c ****         CY_CLK_XTAL32_CFG_REG = (CY_CLK_XTAL32_CFG_REG & ((uint8)(~CY_CLK_XTAL32_CFG_LP_MASK))) |
 2044              		.loc 1 1293 0
 2045 0024 0A20     		movs	r0, #10
 2046              	.LVL112:
 2047 0026 FFF7FEFF 		bl	CyDelayUs
 2048              	.LVL113:
1294:.\Generated_Source\PSoC5/CyLib.c ****                                 CY_CLK_XTAL32_CFG_LP_LOWPOWER;
 2049              		.loc 1 1294 0
 2050 002a 144A     		ldr	r2, .L222+8
 2051 002c 1378     		ldrb	r3, [r2]	@ zero_extendqisi2
 2052 002e 03F0F303 		and	r3, r3, #243
 2053 0032 43F00803 		orr	r3, r3, #8
 2054 0036 1370     		strb	r3, [r2]
1296:.\Generated_Source\PSoC5/CyLib.c ****         CY_CLK_XTAL32_CR_REG |= CY_CLK_XTAL32_CR_LPM;
 2055              		.loc 1 1296 0
 2056 0038 1420     		movs	r0, #20
 2057 003a FFF7FEFF 		bl	CyDelayUs
 2058              	.LVL114:
1297:.\Generated_Source\PSoC5/CyLib.c ****     }
 2059              		.loc 1 1297 0
 2060 003e 0D4A     		ldr	r2, .L222
 2061 0040 1378     		ldrb	r3, [r2]	@ zero_extendqisi2
 2062 0042 43F00203 		orr	r3, r3, #2
 2063 0046 1370     		strb	r3, [r2]
 2064 0048 11E0     		b	.L219
 2065              	.LVL115:
 2066              	.L218:
1302:.\Generated_Source\PSoC5/CyLib.c ****         CyDelayUs(10u);
 2067              		.loc 1 1302 0
 2068 004a 0622     		movs	r2, #6
 2069 004c 0C4B     		ldr	r3, .L222+12
 2070 004e 1A70     		strb	r2, [r3]
1303:.\Generated_Source\PSoC5/CyLib.c ****         CY_CLK_XTAL32_CFG_REG = (CY_CLK_XTAL32_CFG_REG & ((uint8)(~CY_CLK_XTAL32_CFG_LP_MASK))) |
 2071              		.loc 1 1303 0
 2072 0050 0A20     		movs	r0, #10
 2073              	.LVL116:
 2074 0052 FFF7FEFF 		bl	CyDelayUs
 2075              	.LVL117:
1304:.\Generated_Source\PSoC5/CyLib.c ****                                 CY_CLK_XTAL32_CFG_LP_DEFAULT;
 2076              		.loc 1 1304 0
 2077 0056 094A     		ldr	r2, .L222+8
 2078 0058 1378     		ldrb	r3, [r2]	@ zero_extendqisi2
 2079 005a 03F0F303 		and	r3, r3, #243
 2080 005e 43F00403 		orr	r3, r3, #4
ARM GAS  C:\Users\cps\AppData\Local\Temp\ccxVhvgg.s 			page 71


 2081 0062 1370     		strb	r3, [r2]
1306:.\Generated_Source\PSoC5/CyLib.c ****     }
 2082              		.loc 1 1306 0
 2083 0064 013A     		subs	r2, r2, #1
 2084 0066 1378     		ldrb	r3, [r2]	@ zero_extendqisi2
 2085 0068 03F0FD03 		and	r3, r3, #253
 2086 006c 1370     		strb	r3, [r2]
 2087              	.L219:
1310:.\Generated_Source\PSoC5/CyLib.c **** 
 2088              		.loc 1 1310 0
 2089 006e 2046     		mov	r0, r4
 2090 0070 10BD     		pop	{r4, pc}
 2091              	.LVL118:
 2092              	.L223:
 2093 0072 00BF     		.align	2
 2094              	.L222:
 2095 0074 08430040 		.word	1073758984
 2096 0078 0A430040 		.word	1073758986
 2097 007c 09430040 		.word	1073758985
 2098 0080 98460040 		.word	1073759896
 2099              		.cfi_endproc
 2100              	.LFE28:
 2101              		.size	CyXTAL_32KHZ_SetPowerMode, .-CyXTAL_32KHZ_SetPowerMode
 2102              		.section	.text.CyXTAL_32KHZ_Start,"ax",%progbits
 2103              		.align	2
 2104              		.global	CyXTAL_32KHZ_Start
 2105              		.thumb
 2106              		.thumb_func
 2107              		.type	CyXTAL_32KHZ_Start, %function
 2108              	CyXTAL_32KHZ_Start:
 2109              	.LFB25:
1185:.\Generated_Source\PSoC5/CyLib.c ****     volatile uint16 i;
 2110              		.loc 1 1185 0
 2111              		.cfi_startproc
 2112              		@ args = 0, pretend = 0, frame = 8
 2113              		@ frame_needed = 0, uses_anonymous_args = 0
 2114 0000 00B5     		push	{lr}
 2115              		.cfi_def_cfa_offset 4
 2116              		.cfi_offset 14, -4
 2117 0002 83B0     		sub	sp, sp, #12
 2118              		.cfi_def_cfa_offset 16
1188:.\Generated_Source\PSoC5/CyLib.c ****     CY_CLK_XTAL32_TR_REG  = CY_CLK_XTAL32_TR_STARTUP;
 2119              		.loc 1 1188 0
 2120 0004 F322     		movs	r2, #243
 2121 0006 184B     		ldr	r3, .L230
 2122 0008 1A70     		strb	r2, [r3]
1189:.\Generated_Source\PSoC5/CyLib.c ****     CY_CLK_XTAL32_CFG_REG = (CY_CLK_XTAL32_CFG_REG & ((uint8)(~CY_CLK_XTAL32_CFG_LP_MASK))) |
 2123              		.loc 1 1189 0
 2124 000a 0322     		movs	r2, #3
 2125 000c 03F28E33 		addw	r3, r3, #910
 2126 0010 1A70     		strb	r2, [r3]
1190:.\Generated_Source\PSoC5/CyLib.c ****                                 CY_CLK_XTAL32_CFG_LP_DEFAULT;
 2127              		.loc 1 1190 0
 2128 0012 164A     		ldr	r2, .L230+4
 2129 0014 1378     		ldrb	r3, [r2]	@ zero_extendqisi2
 2130 0016 03F0F303 		and	r3, r3, #243
 2131 001a 43F00403 		orr	r3, r3, #4
ARM GAS  C:\Users\cps\AppData\Local\Temp\ccxVhvgg.s 			page 72


 2132 001e 1370     		strb	r3, [r2]
1198:.\Generated_Source\PSoC5/CyLib.c **** 
 2133              		.loc 1 1198 0
 2134 0020 013A     		subs	r2, r2, #1
 2135 0022 1378     		ldrb	r3, [r2]	@ zero_extendqisi2
 2136 0024 43F00103 		orr	r3, r3, #1
 2137 0028 1370     		strb	r3, [r2]
1200:.\Generated_Source\PSoC5/CyLib.c ****     {
 2138              		.loc 1 1200 0
 2139 002a 4FF47A73 		mov	r3, #1000
 2140 002e ADF80630 		strh	r3, [sp, #6]	@ movhi
 2141 0032 11E0     		b	.L225
 2142              	.L228:
1202:.\Generated_Source\PSoC5/CyLib.c ****         {
 2143              		.loc 1 1202 0
 2144 0034 FFF7FEFF 		bl	CyXTAL_32KHZ_ReadStatus
 2145              	.LVL119:
 2146 0038 10F0200F 		tst	r0, #32
 2147 003c 03D0     		beq	.L226
1205:.\Generated_Source\PSoC5/CyLib.c **** 
 2148              		.loc 1 1205 0
 2149 003e 0020     		movs	r0, #0
 2150 0040 FFF7FEFF 		bl	CyXTAL_32KHZ_SetPowerMode
 2151              	.LVL120:
1207:.\Generated_Source\PSoC5/CyLib.c ****         }
 2152              		.loc 1 1207 0
 2153 0044 0DE0     		b	.L224
 2154              	.L226:
1209:.\Generated_Source\PSoC5/CyLib.c ****     }
 2155              		.loc 1 1209 0 discriminator 2
 2156 0046 0120     		movs	r0, #1
 2157 0048 FFF7FEFF 		bl	CyDelayUs
 2158              	.LVL121:
1200:.\Generated_Source\PSoC5/CyLib.c ****     {
 2159              		.loc 1 1200 0 discriminator 2
 2160 004c BDF80630 		ldrh	r3, [sp, #6]
 2161 0050 013B     		subs	r3, r3, #1
 2162 0052 9BB2     		uxth	r3, r3
 2163 0054 ADF80630 		strh	r3, [sp, #6]	@ movhi
 2164              	.L225:
1200:.\Generated_Source\PSoC5/CyLib.c ****     {
 2165              		.loc 1 1200 0 is_stmt 0 discriminator 1
 2166 0058 BDF80630 		ldrh	r3, [sp, #6]
 2167 005c 9BB2     		uxth	r3, r3
 2168 005e 002B     		cmp	r3, #0
 2169 0060 E8D1     		bne	.L228
 2170              	.L224:
1211:.\Generated_Source\PSoC5/CyLib.c **** 
 2171              		.loc 1 1211 0 is_stmt 1
 2172 0062 03B0     		add	sp, sp, #12
 2173              		.cfi_def_cfa_offset 4
 2174              		@ sp needed
 2175 0064 5DF804FB 		ldr	pc, [sp], #4
 2176              	.L231:
 2177              		.align	2
 2178              	.L230:
 2179 0068 0A430040 		.word	1073758986
ARM GAS  C:\Users\cps\AppData\Local\Temp\ccxVhvgg.s 			page 73


 2180 006c 09430040 		.word	1073758985
 2181              		.cfi_endproc
 2182              	.LFE25:
 2183              		.size	CyXTAL_32KHZ_Start, .-CyXTAL_32KHZ_Start
 2184              		.section	.text.CyDelayFreq,"ax",%progbits
 2185              		.align	2
 2186              		.global	CyDelayFreq
 2187              		.thumb
 2188              		.thumb_func
 2189              		.type	CyDelayFreq, %function
 2190              	CyDelayFreq:
 2191              	.LFB43:
1749:.\Generated_Source\PSoC5/CyLib.c ****     }
1750:.\Generated_Source\PSoC5/CyLib.c **** 
1751:.\Generated_Source\PSoC5/CyLib.c **** #endif  /* (!CY_PSOC3) */
1752:.\Generated_Source\PSoC5/CyLib.c **** 
1753:.\Generated_Source\PSoC5/CyLib.c **** 
1754:.\Generated_Source\PSoC5/CyLib.c **** /*******************************************************************************
1755:.\Generated_Source\PSoC5/CyLib.c **** * Function Name: CyDelayFreq
1756:.\Generated_Source\PSoC5/CyLib.c **** ********************************************************************************
1757:.\Generated_Source\PSoC5/CyLib.c **** *
1758:.\Generated_Source\PSoC5/CyLib.c **** * Summary:
1759:.\Generated_Source\PSoC5/CyLib.c **** *  Sets the clock frequency for CyDelay.
1760:.\Generated_Source\PSoC5/CyLib.c **** *
1761:.\Generated_Source\PSoC5/CyLib.c **** * Parameters:
1762:.\Generated_Source\PSoC5/CyLib.c **** *  freq: The frequency of the bus clock in Hertz.
1763:.\Generated_Source\PSoC5/CyLib.c **** *
1764:.\Generated_Source\PSoC5/CyLib.c **** * Return:
1765:.\Generated_Source\PSoC5/CyLib.c **** *  None
1766:.\Generated_Source\PSoC5/CyLib.c **** *
1767:.\Generated_Source\PSoC5/CyLib.c **** *******************************************************************************/
1768:.\Generated_Source\PSoC5/CyLib.c **** void CyDelayFreq(uint32 freq) CYREENTRANT
1769:.\Generated_Source\PSoC5/CyLib.c **** {
 2192              		.loc 1 1769 0
 2193              		.cfi_startproc
 2194              		@ args = 0, pretend = 0, frame = 0
 2195              		@ frame_needed = 0, uses_anonymous_args = 0
 2196              		@ link register save eliminated.
 2197              	.LVL122:
1770:.\Generated_Source\PSoC5/CyLib.c ****     if (freq != 0u)
 2198              		.loc 1 1770 0
 2199 0000 10B1     		cbz	r0, .L233
1771:.\Generated_Source\PSoC5/CyLib.c ****     {
1772:.\Generated_Source\PSoC5/CyLib.c ****         cydelay_freq_hz = freq;
 2200              		.loc 1 1772 0
 2201 0002 0E4A     		ldr	r2, .L235
 2202 0004 D060     		str	r0, [r2, #12]
 2203 0006 02E0     		b	.L234
 2204              	.L233:
1773:.\Generated_Source\PSoC5/CyLib.c ****     }
1774:.\Generated_Source\PSoC5/CyLib.c ****     else
1775:.\Generated_Source\PSoC5/CyLib.c ****     {
1776:.\Generated_Source\PSoC5/CyLib.c ****         cydelay_freq_hz = BCLK__BUS_CLK__HZ;
 2205              		.loc 1 1776 0
 2206 0008 0D4A     		ldr	r2, .L235+4
 2207 000a 0C4B     		ldr	r3, .L235
 2208 000c DA60     		str	r2, [r3, #12]
ARM GAS  C:\Users\cps\AppData\Local\Temp\ccxVhvgg.s 			page 74


 2209              	.L234:
1777:.\Generated_Source\PSoC5/CyLib.c ****     }
1778:.\Generated_Source\PSoC5/CyLib.c **** 
1779:.\Generated_Source\PSoC5/CyLib.c ****     cydelay_freq_mhz = (uint8)((cydelay_freq_hz + 999999u) / 1000000u);
 2210              		.loc 1 1779 0
 2211 000e 0B49     		ldr	r1, .L235
 2212 0010 CB68     		ldr	r3, [r1, #12]
 2213 0012 03F57422 		add	r2, r3, #999424
 2214 0016 02F23F22 		addw	r2, r2, #575
 2215 001a 0A48     		ldr	r0, .L235+8
 2216              	.LVL123:
 2217 001c A0FB0202 		umull	r0, r2, r0, r2
 2218 0020 C2F38742 		ubfx	r2, r2, #18, #8
 2219 0024 0A72     		strb	r2, [r1, #8]
1780:.\Generated_Source\PSoC5/CyLib.c ****     cydelay_freq_khz = (cydelay_freq_hz + 999u) / 1000u;
 2220              		.loc 1 1780 0
 2221 0026 03F2E733 		addw	r3, r3, #999
 2222 002a 074A     		ldr	r2, .L235+12
 2223 002c A2FB0323 		umull	r2, r3, r2, r3
 2224 0030 9B09     		lsrs	r3, r3, #6
 2225 0032 4B60     		str	r3, [r1, #4]
1781:.\Generated_Source\PSoC5/CyLib.c ****     cydelay_32k_ms   = 32768u * cydelay_freq_khz;
 2226              		.loc 1 1781 0
 2227 0034 DB03     		lsls	r3, r3, #15
 2228 0036 0B60     		str	r3, [r1]
 2229 0038 7047     		bx	lr
 2230              	.L236:
 2231 003a 00BF     		.align	2
 2232              	.L235:
 2233 003c 00000000 		.word	.LANCHOR0
 2234 0040 00366E01 		.word	24000000
 2235 0044 83DE1B43 		.word	1125899907
 2236 0048 D34D6210 		.word	274877907
 2237              		.cfi_endproc
 2238              	.LFE43:
 2239              		.size	CyDelayFreq, .-CyDelayFreq
 2240              		.section	.text.CyWdtStart,"ax",%progbits
 2241              		.align	2
 2242              		.global	CyWdtStart
 2243              		.thumb
 2244              		.thumb_func
 2245              		.type	CyWdtStart, %function
 2246              	CyWdtStart:
 2247              	.LFB44:
1782:.\Generated_Source\PSoC5/CyLib.c **** }
1783:.\Generated_Source\PSoC5/CyLib.c **** 
1784:.\Generated_Source\PSoC5/CyLib.c **** 
1785:.\Generated_Source\PSoC5/CyLib.c **** /*******************************************************************************
1786:.\Generated_Source\PSoC5/CyLib.c **** * Function Name: CyWdtStart
1787:.\Generated_Source\PSoC5/CyLib.c **** ********************************************************************************
1788:.\Generated_Source\PSoC5/CyLib.c **** *
1789:.\Generated_Source\PSoC5/CyLib.c **** * Summary:
1790:.\Generated_Source\PSoC5/CyLib.c **** *  Enables the watchdog timer.
1791:.\Generated_Source\PSoC5/CyLib.c **** *
1792:.\Generated_Source\PSoC5/CyLib.c **** *  The timer is configured for the specified count interval, the central
1793:.\Generated_Source\PSoC5/CyLib.c **** *  timewheel is cleared, the setting for the low power mode is configured and
1794:.\Generated_Source\PSoC5/CyLib.c **** *  the watchdog timer is enabled.
ARM GAS  C:\Users\cps\AppData\Local\Temp\ccxVhvgg.s 			page 75


1795:.\Generated_Source\PSoC5/CyLib.c **** *
1796:.\Generated_Source\PSoC5/CyLib.c **** *  Once enabled the watchdog cannot be disabled. The watchdog counts each time
1797:.\Generated_Source\PSoC5/CyLib.c **** *  the Central Time Wheel (CTW) reaches the period specified. The watchdog must
1798:.\Generated_Source\PSoC5/CyLib.c **** *  be cleared using the CyWdtClear() function before three ticks of the watchdog
1799:.\Generated_Source\PSoC5/CyLib.c **** *  timer occur. The CTW is free running, so this will occur after between 2 and
1800:.\Generated_Source\PSoC5/CyLib.c **** *  3 timer periods elapse.
1801:.\Generated_Source\PSoC5/CyLib.c **** *
1802:.\Generated_Source\PSoC5/CyLib.c **** *  PSoC5: The watchdog timer should not be used during sleep modes. Since the
1803:.\Generated_Source\PSoC5/CyLib.c **** *  WDT cannot be disabled after it is enabled, the WDT timeout period can be
1804:.\Generated_Source\PSoC5/CyLib.c **** *  set to be greater than the sleep wakeup period, then feed the dog on each
1805:.\Generated_Source\PSoC5/CyLib.c **** *  wakeup from Sleep.
1806:.\Generated_Source\PSoC5/CyLib.c **** *
1807:.\Generated_Source\PSoC5/CyLib.c **** * Parameters:
1808:.\Generated_Source\PSoC5/CyLib.c **** *  ticks: One of the four available timer periods. Once WDT enabled, the
1809:.\Generated_Source\PSoC5/CyLib.c ****    interval cannot be changed.
1810:.\Generated_Source\PSoC5/CyLib.c **** *         CYWDT_2_TICKS     -     4 - 6     ms
1811:.\Generated_Source\PSoC5/CyLib.c **** *         CYWDT_16_TICKS    -    32 - 48    ms
1812:.\Generated_Source\PSoC5/CyLib.c **** *         CYWDT_128_TICKS   -   256 - 384   ms
1813:.\Generated_Source\PSoC5/CyLib.c **** *         CYWDT_1024_TICKS  - 2.048 - 3.072 s
1814:.\Generated_Source\PSoC5/CyLib.c **** *
1815:.\Generated_Source\PSoC5/CyLib.c **** *  lpMode: Low power mode configuration. This parameter is ignored for PSoC 5.
1816:.\Generated_Source\PSoC5/CyLib.c **** *          The WDT always acts as if CYWDT_LPMODE_NOCHANGE is passed.
1817:.\Generated_Source\PSoC5/CyLib.c **** *
1818:.\Generated_Source\PSoC5/CyLib.c **** *          CYWDT_LPMODE_NOCHANGE - No Change
1819:.\Generated_Source\PSoC5/CyLib.c **** *          CYWDT_LPMODE_MAXINTER - Switch to longest timer mode during low power
1820:.\Generated_Source\PSoC5/CyLib.c **** *                                 mode
1821:.\Generated_Source\PSoC5/CyLib.c **** *          CYWDT_LPMODE_DISABLED - Disable WDT during low power mode
1822:.\Generated_Source\PSoC5/CyLib.c **** *
1823:.\Generated_Source\PSoC5/CyLib.c **** * Return:
1824:.\Generated_Source\PSoC5/CyLib.c **** *  None
1825:.\Generated_Source\PSoC5/CyLib.c **** *
1826:.\Generated_Source\PSoC5/CyLib.c **** * Side Effects:
1827:.\Generated_Source\PSoC5/CyLib.c **** *  PSoC5: The ILO 1 KHz must be enabled for proper WDT operation. Stopping the
1828:.\Generated_Source\PSoC5/CyLib.c **** *  ILO 1 kHz could break the active WDT functionality.
1829:.\Generated_Source\PSoC5/CyLib.c **** *
1830:.\Generated_Source\PSoC5/CyLib.c **** *******************************************************************************/
1831:.\Generated_Source\PSoC5/CyLib.c **** void CyWdtStart(uint8 ticks, uint8 lpMode) 
1832:.\Generated_Source\PSoC5/CyLib.c **** {
 2248              		.loc 1 1832 0
 2249              		.cfi_startproc
 2250              		@ args = 0, pretend = 0, frame = 0
 2251              		@ frame_needed = 0, uses_anonymous_args = 0
 2252              		@ link register save eliminated.
 2253              	.LVL124:
1833:.\Generated_Source\PSoC5/CyLib.c ****     /* Set WDT interval */
1834:.\Generated_Source\PSoC5/CyLib.c ****     CY_WDT_CFG_REG = (CY_WDT_CFG_REG & ((uint8)(~CY_WDT_CFG_INTERVAL_MASK))) | (ticks & CY_WDT_CFG_
 2254              		.loc 1 1834 0
 2255 0000 0E4B     		ldr	r3, .L238
 2256 0002 1A78     		ldrb	r2, [r3]	@ zero_extendqisi2
 2257 0004 02F0FC02 		and	r2, r2, #252
 2258 0008 00F00300 		and	r0, r0, #3
 2259              	.LVL125:
 2260 000c 1043     		orrs	r0, r0, r2
 2261 000e 1870     		strb	r0, [r3]
1835:.\Generated_Source\PSoC5/CyLib.c **** 
1836:.\Generated_Source\PSoC5/CyLib.c ****     /* Reset CTW to ensure that first watchdog period is full */
1837:.\Generated_Source\PSoC5/CyLib.c ****     CY_WDT_CFG_REG |= CY_WDT_CFG_CTW_RESET;
ARM GAS  C:\Users\cps\AppData\Local\Temp\ccxVhvgg.s 			page 76


 2262              		.loc 1 1837 0
 2263 0010 1A78     		ldrb	r2, [r3]	@ zero_extendqisi2
 2264 0012 42F08002 		orr	r2, r2, #128
 2265 0016 1A70     		strb	r2, [r3]
1838:.\Generated_Source\PSoC5/CyLib.c ****     CY_WDT_CFG_REG &= ((uint8)(~CY_WDT_CFG_CTW_RESET));
 2266              		.loc 1 1838 0
 2267 0018 1A78     		ldrb	r2, [r3]	@ zero_extendqisi2
 2268 001a 02F07F02 		and	r2, r2, #127
 2269 001e 1A70     		strb	r2, [r3]
1839:.\Generated_Source\PSoC5/CyLib.c **** 
1840:.\Generated_Source\PSoC5/CyLib.c ****     /* Setting low power mode */
1841:.\Generated_Source\PSoC5/CyLib.c ****     CY_WDT_CFG_REG = (((uint8)(lpMode << CY_WDT_CFG_LPMODE_SHIFT)) & CY_WDT_CFG_LPMODE_MASK) |
 2270              		.loc 1 1841 0
 2271 0020 4901     		lsls	r1, r1, #5
 2272              	.LVL126:
1842:.\Generated_Source\PSoC5/CyLib.c ****                        (CY_WDT_CFG_REG & ((uint8)(~CY_WDT_CFG_LPMODE_MASK)));
 2273              		.loc 1 1842 0
 2274 0022 1A78     		ldrb	r2, [r3]	@ zero_extendqisi2
1841:.\Generated_Source\PSoC5/CyLib.c ****                        (CY_WDT_CFG_REG & ((uint8)(~CY_WDT_CFG_LPMODE_MASK)));
 2275              		.loc 1 1841 0
 2276 0024 01F06001 		and	r1, r1, #96
 2277 0028 02F09F02 		and	r2, r2, #159
 2278 002c 1143     		orrs	r1, r1, r2
 2279 002e 1970     		strb	r1, [r3]
1843:.\Generated_Source\PSoC5/CyLib.c **** 
1844:.\Generated_Source\PSoC5/CyLib.c ****     /* Enables watchdog reset */
1845:.\Generated_Source\PSoC5/CyLib.c ****     CY_WDT_CFG_REG |= CY_WDT_CFG_WDR_EN;
 2280              		.loc 1 1845 0
 2281 0030 1A78     		ldrb	r2, [r3]	@ zero_extendqisi2
 2282 0032 42F01002 		orr	r2, r2, #16
 2283 0036 1A70     		strb	r2, [r3]
 2284 0038 7047     		bx	lr
 2285              	.L239:
 2286 003a 00BF     		.align	2
 2287              	.L238:
 2288 003c 83430040 		.word	1073759107
 2289              		.cfi_endproc
 2290              	.LFE44:
 2291              		.size	CyWdtStart, .-CyWdtStart
 2292              		.section	.text.CyWdtClear,"ax",%progbits
 2293              		.align	2
 2294              		.global	CyWdtClear
 2295              		.thumb
 2296              		.thumb_func
 2297              		.type	CyWdtClear, %function
 2298              	CyWdtClear:
 2299              	.LFB45:
1846:.\Generated_Source\PSoC5/CyLib.c **** }
1847:.\Generated_Source\PSoC5/CyLib.c **** 
1848:.\Generated_Source\PSoC5/CyLib.c **** 
1849:.\Generated_Source\PSoC5/CyLib.c **** /*******************************************************************************
1850:.\Generated_Source\PSoC5/CyLib.c **** * Function Name: CyWdtClear
1851:.\Generated_Source\PSoC5/CyLib.c **** ********************************************************************************
1852:.\Generated_Source\PSoC5/CyLib.c **** *
1853:.\Generated_Source\PSoC5/CyLib.c **** * Summary:
1854:.\Generated_Source\PSoC5/CyLib.c **** *  Clears (feeds) the watchdog timer.
1855:.\Generated_Source\PSoC5/CyLib.c **** *
ARM GAS  C:\Users\cps\AppData\Local\Temp\ccxVhvgg.s 			page 77


1856:.\Generated_Source\PSoC5/CyLib.c **** * Parameters:
1857:.\Generated_Source\PSoC5/CyLib.c **** *  None
1858:.\Generated_Source\PSoC5/CyLib.c **** *
1859:.\Generated_Source\PSoC5/CyLib.c **** * Return:
1860:.\Generated_Source\PSoC5/CyLib.c **** *  None
1861:.\Generated_Source\PSoC5/CyLib.c **** *
1862:.\Generated_Source\PSoC5/CyLib.c **** *******************************************************************************/
1863:.\Generated_Source\PSoC5/CyLib.c **** void CyWdtClear(void) 
1864:.\Generated_Source\PSoC5/CyLib.c **** {
 2300              		.loc 1 1864 0
 2301              		.cfi_startproc
 2302              		@ args = 0, pretend = 0, frame = 0
 2303              		@ frame_needed = 0, uses_anonymous_args = 0
 2304              		@ link register save eliminated.
1865:.\Generated_Source\PSoC5/CyLib.c ****     CY_WDT_CR_REG = CY_WDT_CR_FEED;
 2305              		.loc 1 1865 0
 2306 0000 0122     		movs	r2, #1
 2307 0002 014B     		ldr	r3, .L241
 2308 0004 1A70     		strb	r2, [r3]
 2309 0006 7047     		bx	lr
 2310              	.L242:
 2311              		.align	2
 2312              	.L241:
 2313 0008 84430040 		.word	1073759108
 2314              		.cfi_endproc
 2315              	.LFE45:
 2316              		.size	CyWdtClear, .-CyWdtClear
 2317              		.section	.text.CyVdStickyStatus,"ax",%progbits
 2318              		.align	2
 2319              		.global	CyVdStickyStatus
 2320              		.thumb
 2321              		.thumb_func
 2322              		.type	CyVdStickyStatus, %function
 2323              	CyVdStickyStatus:
