ARM GAS  C:\Users\cps\AppData\Local\Temp\ccq6yXxZ.s 			page 1


   1              		.syntax unified
   2              		.cpu cortex-m3
   3              		.fpu softvfp
   4              		.eabi_attribute 20, 1
   5              		.eabi_attribute 21, 1
   6              		.eabi_attribute 23, 3
   7              		.eabi_attribute 24, 1
   8              		.eabi_attribute 25, 1
   9              		.eabi_attribute 26, 1
  10              		.eabi_attribute 30, 1
  11              		.eabi_attribute 34, 1
  12              		.eabi_attribute 18, 4
  13              		.thumb
  14              		.file	"decagon.c"
  15              		.text
  16              	.Ltext0:
  17              		.cfi_sections	.debug_frame
  18              		.section	.text.IntUartRx_D,"ax",%progbits
  19              		.align	2
  20              		.global	IntUartRx_D
  21              		.thumb
  22              		.thumb_func
  23              		.type	IntUartRx_D, %function
  24              	IntUartRx_D:
  25              	.LFB0:
  26              		.file 1 ".\\decagon.c"
   1:.\decagon.c   **** //==============================Header File/Global Variable==============================
   2:.\decagon.c   **** //Standard String Library
   3:.\decagon.c   **** 
   4:.\decagon.c   **** 
   5:.\decagon.c   **** 
   6:.\decagon.c   **** #include <string.h>
   7:.\decagon.c   **** #include "decagon.h"
   8:.\decagon.c   **** //Import the header file that has all the files listed for use in the master file later
   9:.\decagon.c   **** //Global Variable for the number of characters received from the UART reading
  10:.\decagon.c   **** #define RAW_SERIAL_DATA_LENGTH_d 100
  11:.\decagon.c   **** //How many reading to we want to average by after the reading's been parsed.
  12:.\decagon.c   **** #define VALUES_ARRAY_LENGTH 6
  13:.\decagon.c   **** //This is where we stored the initial UART reading result
  14:.\decagon.c   **** uint8 raw_serial_data_d[RAW_SERIAL_DATA_LENGTH_d];
  15:.\decagon.c   **** //counter for interrupt readings
  16:.\decagon.c   **** uint8 raw_serial_data_count_d;
  17:.\decagon.c   **** 
  18:.\decagon.c   **** 
  19:.\decagon.c   **** 
  20:.\decagon.c   **** //===============================Interrupt Function==============================
  21:.\decagon.c   **** CY_ISR(IntUartRx_D)
  22:.\decagon.c   **** {
  27              		.loc 1 22 0
  28              		.cfi_startproc
  29              		@ args = 0, pretend = 0, frame = 0
  30              		@ frame_needed = 0, uses_anonymous_args = 0
  31 0000 08B5     		push	{r3, lr}
  32              		.cfi_def_cfa_offset 8
  33              		.cfi_offset 3, -8
  34              		.cfi_offset 14, -4
  23:.\decagon.c   ****    uint8 getchar;
ARM GAS  C:\Users\cps\AppData\Local\Temp\ccq6yXxZ.s 			page 2


  24:.\decagon.c   ****    getchar  = UART_Decagon_GetChar();
  35              		.loc 1 24 0
  36 0002 FFF7FEFF 		bl	UART_Decagon_GetChar
  37              	.LVL0:
  38 0006 C0B2     		uxtb	r0, r0
  39              	.LVL1:
  25:.\decagon.c   ****         
  26:.\decagon.c   ****    if(getchar > 0u && raw_serial_data_count_d < RAW_SERIAL_DATA_LENGTH_d){
  40              		.loc 1 26 0
  41 0008 40B1     		cbz	r0, .L1
  42              		.loc 1 26 0 is_stmt 0 discriminator 1
  43 000a 054B     		ldr	r3, .L4
  44 000c 1B78     		ldrb	r3, [r3]	@ zero_extendqisi2
  45 000e 632B     		cmp	r3, #99
  46 0010 04D8     		bhi	.L1
  27:.\decagon.c   ****         raw_serial_data_d[raw_serial_data_count_d] = getchar;
  47              		.loc 1 27 0 is_stmt 1
  48 0012 044A     		ldr	r2, .L4+4
  49 0014 D054     		strb	r0, [r2, r3]
  28:.\decagon.c   ****         raw_serial_data_count_d++;
  50              		.loc 1 28 0
  51 0016 0133     		adds	r3, r3, #1
  52 0018 014A     		ldr	r2, .L4
  53 001a 1370     		strb	r3, [r2]
  54              	.L1:
  55 001c 08BD     		pop	{r3, pc}
  56              	.L5:
  57 001e 00BF     		.align	2
  58              	.L4:
  59 0020 00000000 		.word	raw_serial_data_count_d
  60 0024 00000000 		.word	raw_serial_data_d
  61              		.cfi_endproc
  62              	.LFE0:
  63              		.size	IntUartRx_D, .-IntUartRx_D
  64              		.section	.text.Decagon_Convert_Raw_Reading,"ax",%progbits
  65              		.align	2
  66              		.global	Decagon_Convert_Raw_Reading
  67              		.thumb
  68              		.thumb_func
  69              		.type	Decagon_Convert_Raw_Reading, %function
  70              	Decagon_Convert_Raw_Reading:
  71              	.LFB2:
  29:.\decagon.c   ****    }   
  30:.\decagon.c   ****     
  31:.\decagon.c   **** }
  32:.\decagon.c   **** 
  33:.\decagon.c   **** 
  34:.\decagon.c   **** DecagonGS3 Decagon_Take_Reading(){
  35:.\decagon.c   **** 	
  36:.\decagon.c   **** 	UART_Decagon_Start();
  37:.\decagon.c   ****     raw_serial_data_count_d = 0u;
  38:.\decagon.c   ****     
  39:.\decagon.c   **** 	Decagon_Power_Write(0u); 
  40:.\decagon.c   ****     isr_Decagon_StartEx(IntUartRx_D);
  41:.\decagon.c   ****     CyDelay(1000u);
  42:.\decagon.c   ****     Decagon_Power_Write(1u);
  43:.\decagon.c   ****     isr_Decagon_Stop();
ARM GAS  C:\Users\cps\AppData\Local\Temp\ccq6yXxZ.s 			page 3


  44:.\decagon.c   **** 
  45:.\decagon.c   ****     DecagonGS3 SoilMoisture;
  46:.\decagon.c   ****     SoilMoisture = Decagon_Convert_Raw_Reading(raw_serial_data_d);
  47:.\decagon.c   **** 	UART_Decagon_Stop();
  48:.\decagon.c   ****     return SoilMoisture;
  49:.\decagon.c   **** 	
  50:.\decagon.c   **** }
  51:.\decagon.c   **** 
  52:.\decagon.c   **** 
  53:.\decagon.c   **** DecagonGS3 Decagon_Convert_Raw_Reading(uint8* raw_D){
  72              		.loc 1 53 0
  73              		.cfi_startproc
  74              		@ args = 0, pretend = 0, frame = 16
  75              		@ frame_needed = 0, uses_anonymous_args = 0
  76              	.LVL2:
  77 0000 10B5     		push	{r4, lr}
  78              		.cfi_def_cfa_offset 8
  79              		.cfi_offset 4, -8
  80              		.cfi_offset 14, -4
  81 0002 86B0     		sub	sp, sp, #24
  82              		.cfi_def_cfa_offset 32
  83 0004 0446     		mov	r4, r0
  54:.\decagon.c   ****     DecagonGS3 final_reading;
  55:.\decagon.c   ****     final_reading.valid = 0u;
  84              		.loc 1 55 0
  85 0006 0023     		movs	r3, #0
  86 0008 8DF81630 		strb	r3, [sp, #22]
  56:.\decagon.c   ****     
  57:.\decagon.c   ****     final_reading.valid  = sscanf(raw_D,"\x09%f %f %d\r%s",&final_reading.dielectric,
  87              		.loc 1 57 0
  88 000c 05AA     		add	r2, sp, #20
  89 000e 0092     		str	r2, [sp]
  90 0010 0193     		str	r3, [sp, #4]
  91 0012 0846     		mov	r0, r1
  92              	.LVL3:
  93 0014 0A49     		ldr	r1, .L9
  94              	.LVL4:
  95 0016 03AA     		add	r2, sp, #12
  96 0018 04AB     		add	r3, sp, #16
  97 001a FFF7FEFF 		bl	sscanf
  98              	.LVL5:
  99 001e C0B2     		uxtb	r0, r0
 100 0020 8DF81600 		strb	r0, [sp, #22]
  58:.\decagon.c   ****                                 &final_reading.temp,&final_reading.conductivity,NULL);
  59:.\decagon.c   **** 
  60:.\decagon.c   **** 	//if you know the the calibration equation, you can caalcualte the soil moisutre here, too
  61:.\decagon.c   ****     if(final_reading.valid != 4){
 101              		.loc 1 61 0
 102 0024 0428     		cmp	r0, #4
 103 0026 02D0     		beq	.L7
  62:.\decagon.c   ****         final_reading.valid = 0;
 104              		.loc 1 62 0
 105 0028 0023     		movs	r3, #0
 106 002a 8DF81630 		strb	r3, [sp, #22]
 107              	.L7:
  63:.\decagon.c   ****     }
  64:.\decagon.c   ****     
ARM GAS  C:\Users\cps\AppData\Local\Temp\ccq6yXxZ.s 			page 4


  65:.\decagon.c   ****     return final_reading;
 108              		.loc 1 65 0
 109 002e 06AB     		add	r3, sp, #24
 110 0030 13E90700 		ldmdb	r3, {r0, r1, r2}
 111 0034 84E80700 		stmia	r4, {r0, r1, r2}
  66:.\decagon.c   ****     
  67:.\decagon.c   **** }...
 112              		.loc 1 67 0
 113 0038 2046     		mov	r0, r4
 114 003a 06B0     		add	sp, sp, #24
 115              		.cfi_def_cfa_offset 8
 116              		@ sp needed
 117 003c 10BD     		pop	{r4, pc}
 118              	.LVL6:
 119              	.L10:
 120 003e 00BF     		.align	2
 121              	.L9:
 122 0040 00000000 		.word	.LC0
 123              		.cfi_endproc
 124              	.LFE2:
 125              		.size	Decagon_Convert_Raw_Reading, .-Decagon_Convert_Raw_Reading
 126              		.section	.text.Decagon_Take_Reading,"ax",%progbits
 127              		.align	2
 128              		.global	Decagon_Take_Reading
 129              		.thumb
 130              		.thumb_func
 131              		.type	Decagon_Take_Reading, %function
 132              	Decagon_Take_Reading:
 133              	.LFB1:
  34:.\decagon.c   **** DecagonGS3 Decagon_Take_Reading(){
 134              		.loc 1 34 0
 135              		.cfi_startproc
 136              		@ args = 0, pretend = 0, frame = 0
 137              		@ frame_needed = 0, uses_anonymous_args = 0
 138              	.LVL7:
 139 0000 10B5     		push	{r4, lr}
 140              		.cfi_def_cfa_offset 8
 141              		.cfi_offset 4, -8
 142              		.cfi_offset 14, -4
 143 0002 0446     		mov	r4, r0
  36:.\decagon.c   **** 	UART_Decagon_Start();
 144              		.loc 1 36 0
 145 0004 FFF7FEFF 		bl	UART_Decagon_Start
 146              	.LVL8:
  37:.\decagon.c   ****     raw_serial_data_count_d = 0u;
 147              		.loc 1 37 0
 148 0008 0020     		movs	r0, #0
 149 000a 0C4B     		ldr	r3, .L13
 150 000c 1870     		strb	r0, [r3]
  39:.\decagon.c   **** 	Decagon_Power_Write(0u); 
 151              		.loc 1 39 0
 152 000e FFF7FEFF 		bl	Decagon_Power_Write
 153              	.LVL9:
  40:.\decagon.c   ****     isr_Decagon_StartEx(IntUartRx_D);
 154              		.loc 1 40 0
 155 0012 0B48     		ldr	r0, .L13+4
 156 0014 FFF7FEFF 		bl	isr_Decagon_StartEx
ARM GAS  C:\Users\cps\AppData\Local\Temp\ccq6yXxZ.s 			page 5


 157              	.LVL10:
  41:.\decagon.c   ****     CyDelay(1000u);
 158              		.loc 1 41 0
 159 0018 4FF47A70 		mov	r0, #1000
 160 001c FFF7FEFF 		bl	CyDelay
 161              	.LVL11:
  42:.\decagon.c   ****     Decagon_Power_Write(1u);
 162              		.loc 1 42 0
 163 0020 0120     		movs	r0, #1
 164 0022 FFF7FEFF 		bl	Decagon_Power_Write
 165              	.LVL12:
  43:.\decagon.c   ****     isr_Decagon_Stop();
 166              		.loc 1 43 0
 167 0026 FFF7FEFF 		bl	isr_Decagon_Stop
 168              	.LVL13:
  46:.\decagon.c   ****     SoilMoisture = Decagon_Convert_Raw_Reading(raw_serial_data_d);
 169              		.loc 1 46 0
 170 002a 2046     		mov	r0, r4
 171 002c 0549     		ldr	r1, .L13+8
 172 002e FFF7FEFF 		bl	Decagon_Convert_Raw_Reading
 173              	.LVL14:
  47:.\decagon.c   **** 	UART_Decagon_Stop();
 174              		.loc 1 47 0
 175 0032 FFF7FEFF 		bl	UART_Decagon_Stop
 176              	.LVL15:
  50:.\decagon.c   **** }
 177              		.loc 1 50 0
 178 0036 2046     		mov	r0, r4
 179 0038 10BD     		pop	{r4, pc}
 180              	.LVL16:
 181              	.L14:
 182 003a 00BF     		.align	2
 183              	.L13:
 184 003c 00000000 		.word	raw_serial_data_count_d
 185 0040 00000000 		.word	IntUartRx_D
 186 0044 00000000 		.word	raw_serial_data_d
 187              		.cfi_endproc
 188              	.LFE1:
 189              		.size	Decagon_Take_Reading, .-Decagon_Take_Reading
 190              		.comm	raw_serial_data_count_d,1,1
 191              		.comm	raw_serial_data_d,100,4
 192              		.section	.rodata.str1.4,"aMS",%progbits,1
 193              		.align	2
 194              	.LC0:
 195 0000 09256620 		.ascii	"\011%f %f %d\015%s\000"
 195      25662025 
 195      640D2573 
 195      00
 196 000d 000000   		.text
 197              	.Letext0:
 198              		.file 2 "Generated_Source\\PSoC5/cytypes.h"
 199              		.file 3 ".\\decagon.h"
 200              		.file 4 "<built-in>"