ARM GAS  C:\Users\cps\AppData\Local\Temp\ccGSWAx9.s 			page 1


   1              		.syntax unified
   2              		.cpu cortex-m3
   3              		.fpu softvfp
   4              		.eabi_attribute 20, 1
   5              		.eabi_attribute 21, 1
   6              		.eabi_attribute 23, 3
   7              		.eabi_attribute 24, 1
   8              		.eabi_attribute 25, 1
   9              		.eabi_attribute 26, 1
  10              		.eabi_attribute 30, 1
  11              		.eabi_attribute 34, 1
  12              		.eabi_attribute 18, 4
  13              		.thumb
  14              		.file	"UART_Decagon_PM.c"
  15              		.text
  16              	.Ltext0:
  17              		.cfi_sections	.debug_frame
  18              		.section	.text.UART_Decagon_SaveConfig,"ax",%progbits
  19              		.align	2
  20              		.global	UART_Decagon_SaveConfig
  21              		.thumb
  22              		.thumb_func
  23              		.type	UART_Decagon_SaveConfig, %function
  24              	UART_Decagon_SaveConfig:
  25              	.LFB0:
  26              		.file 1 ".\\Generated_Source\\PSoC5\\UART_Decagon_PM.c"
   1:.\Generated_Source\PSoC5/UART_Decagon_PM.c **** /*******************************************************************************
   2:.\Generated_Source\PSoC5/UART_Decagon_PM.c **** * File Name: UART_Decagon_PM.c
   3:.\Generated_Source\PSoC5/UART_Decagon_PM.c **** * Version 2.30
   4:.\Generated_Source\PSoC5/UART_Decagon_PM.c **** *
   5:.\Generated_Source\PSoC5/UART_Decagon_PM.c **** * Description:
   6:.\Generated_Source\PSoC5/UART_Decagon_PM.c **** *  This file provides Sleep/WakeUp APIs functionality.
   7:.\Generated_Source\PSoC5/UART_Decagon_PM.c **** *
   8:.\Generated_Source\PSoC5/UART_Decagon_PM.c **** * Note:
   9:.\Generated_Source\PSoC5/UART_Decagon_PM.c **** *
  10:.\Generated_Source\PSoC5/UART_Decagon_PM.c **** ********************************************************************************
  11:.\Generated_Source\PSoC5/UART_Decagon_PM.c **** * Copyright 2008-2012, Cypress Semiconductor Corporation.  All rights reserved.
  12:.\Generated_Source\PSoC5/UART_Decagon_PM.c **** * You may use this file only in accordance with the license, terms, conditions,
  13:.\Generated_Source\PSoC5/UART_Decagon_PM.c **** * disclaimers, and limitations in the end user license agreement accompanying
  14:.\Generated_Source\PSoC5/UART_Decagon_PM.c **** * the software package with which this file was provided.
  15:.\Generated_Source\PSoC5/UART_Decagon_PM.c **** *******************************************************************************/
  16:.\Generated_Source\PSoC5/UART_Decagon_PM.c **** 
  17:.\Generated_Source\PSoC5/UART_Decagon_PM.c **** #include "UART_Decagon.h"
  18:.\Generated_Source\PSoC5/UART_Decagon_PM.c **** 
  19:.\Generated_Source\PSoC5/UART_Decagon_PM.c **** 
  20:.\Generated_Source\PSoC5/UART_Decagon_PM.c **** /***************************************
  21:.\Generated_Source\PSoC5/UART_Decagon_PM.c **** * Local data allocation
  22:.\Generated_Source\PSoC5/UART_Decagon_PM.c **** ***************************************/
  23:.\Generated_Source\PSoC5/UART_Decagon_PM.c **** 
  24:.\Generated_Source\PSoC5/UART_Decagon_PM.c **** static UART_Decagon_BACKUP_STRUCT  UART_Decagon_backup =
  25:.\Generated_Source\PSoC5/UART_Decagon_PM.c **** {
  26:.\Generated_Source\PSoC5/UART_Decagon_PM.c ****     /* enableState - disabled */
  27:.\Generated_Source\PSoC5/UART_Decagon_PM.c ****     0u,
  28:.\Generated_Source\PSoC5/UART_Decagon_PM.c **** };
  29:.\Generated_Source\PSoC5/UART_Decagon_PM.c **** 
  30:.\Generated_Source\PSoC5/UART_Decagon_PM.c **** 
  31:.\Generated_Source\PSoC5/UART_Decagon_PM.c **** 
ARM GAS  C:\Users\cps\AppData\Local\Temp\ccGSWAx9.s 			page 2


  32:.\Generated_Source\PSoC5/UART_Decagon_PM.c **** /*******************************************************************************
  33:.\Generated_Source\PSoC5/UART_Decagon_PM.c **** * Function Name: UART_Decagon_SaveConfig
  34:.\Generated_Source\PSoC5/UART_Decagon_PM.c **** ********************************************************************************
  35:.\Generated_Source\PSoC5/UART_Decagon_PM.c **** *
  36:.\Generated_Source\PSoC5/UART_Decagon_PM.c **** * Summary:
  37:.\Generated_Source\PSoC5/UART_Decagon_PM.c **** *  Saves the current user configuration.
  38:.\Generated_Source\PSoC5/UART_Decagon_PM.c **** *
  39:.\Generated_Source\PSoC5/UART_Decagon_PM.c **** * Parameters:
  40:.\Generated_Source\PSoC5/UART_Decagon_PM.c **** *  None.
  41:.\Generated_Source\PSoC5/UART_Decagon_PM.c **** *
  42:.\Generated_Source\PSoC5/UART_Decagon_PM.c **** * Return:
  43:.\Generated_Source\PSoC5/UART_Decagon_PM.c **** *  None.
  44:.\Generated_Source\PSoC5/UART_Decagon_PM.c **** *
  45:.\Generated_Source\PSoC5/UART_Decagon_PM.c **** * Global Variables:
  46:.\Generated_Source\PSoC5/UART_Decagon_PM.c **** *  UART_Decagon_backup - modified when non-retention registers are saved.
  47:.\Generated_Source\PSoC5/UART_Decagon_PM.c **** *
  48:.\Generated_Source\PSoC5/UART_Decagon_PM.c **** * Reentrant:
  49:.\Generated_Source\PSoC5/UART_Decagon_PM.c **** *  No.
  50:.\Generated_Source\PSoC5/UART_Decagon_PM.c **** *
  51:.\Generated_Source\PSoC5/UART_Decagon_PM.c **** *******************************************************************************/
  52:.\Generated_Source\PSoC5/UART_Decagon_PM.c **** void UART_Decagon_SaveConfig(void)
  53:.\Generated_Source\PSoC5/UART_Decagon_PM.c **** {
  27              		.loc 1 53 0
  28              		.cfi_startproc
  29              		@ args = 0, pretend = 0, frame = 0
  30              		@ frame_needed = 0, uses_anonymous_args = 0
  31              		@ link register save eliminated.
  32 0000 7047     		bx	lr
  33              		.cfi_endproc
  34              	.LFE0:
  35              		.size	UART_Decagon_SaveConfig, .-UART_Decagon_SaveConfig
  36 0002 00BF     		.section	.text.UART_Decagon_RestoreConfig,"ax",%progbits
  37              		.align	2
  38              		.global	UART_Decagon_RestoreConfig
  39              		.thumb
  40              		.thumb_func
  41              		.type	UART_Decagon_RestoreConfig, %function
  42              	UART_Decagon_RestoreConfig:
  43              	.LFB1:
  54:.\Generated_Source\PSoC5/UART_Decagon_PM.c ****     #if (CY_UDB_V0)
  55:.\Generated_Source\PSoC5/UART_Decagon_PM.c **** 
  56:.\Generated_Source\PSoC5/UART_Decagon_PM.c ****         #if(UART_Decagon_CONTROL_REG_REMOVED == 0u)
  57:.\Generated_Source\PSoC5/UART_Decagon_PM.c ****             UART_Decagon_backup.cr = UART_Decagon_CONTROL_REG;
  58:.\Generated_Source\PSoC5/UART_Decagon_PM.c ****         #endif /* End UART_Decagon_CONTROL_REG_REMOVED */
  59:.\Generated_Source\PSoC5/UART_Decagon_PM.c **** 
  60:.\Generated_Source\PSoC5/UART_Decagon_PM.c ****         #if( (UART_Decagon_RX_ENABLED) || (UART_Decagon_HD_ENABLED) )
  61:.\Generated_Source\PSoC5/UART_Decagon_PM.c ****             UART_Decagon_backup.rx_period = UART_Decagon_RXBITCTR_PERIOD_REG;
  62:.\Generated_Source\PSoC5/UART_Decagon_PM.c ****             UART_Decagon_backup.rx_mask = UART_Decagon_RXSTATUS_MASK_REG;
  63:.\Generated_Source\PSoC5/UART_Decagon_PM.c ****             #if (UART_Decagon_RXHW_ADDRESS_ENABLED)
  64:.\Generated_Source\PSoC5/UART_Decagon_PM.c ****                 UART_Decagon_backup.rx_addr1 = UART_Decagon_RXADDRESS1_REG;
  65:.\Generated_Source\PSoC5/UART_Decagon_PM.c ****                 UART_Decagon_backup.rx_addr2 = UART_Decagon_RXADDRESS2_REG;
  66:.\Generated_Source\PSoC5/UART_Decagon_PM.c ****             #endif /* End UART_Decagon_RXHW_ADDRESS_ENABLED */
  67:.\Generated_Source\PSoC5/UART_Decagon_PM.c ****         #endif /* End UART_Decagon_RX_ENABLED | UART_Decagon_HD_ENABLED*/
  68:.\Generated_Source\PSoC5/UART_Decagon_PM.c **** 
  69:.\Generated_Source\PSoC5/UART_Decagon_PM.c ****         #if(UART_Decagon_TX_ENABLED)
  70:.\Generated_Source\PSoC5/UART_Decagon_PM.c ****             #if(UART_Decagon_TXCLKGEN_DP)
  71:.\Generated_Source\PSoC5/UART_Decagon_PM.c ****                 UART_Decagon_backup.tx_clk_ctr = UART_Decagon_TXBITCLKGEN_CTR_REG;
ARM GAS  C:\Users\cps\AppData\Local\Temp\ccGSWAx9.s 			page 3


  72:.\Generated_Source\PSoC5/UART_Decagon_PM.c ****                 UART_Decagon_backup.tx_clk_compl = UART_Decagon_TXBITCLKTX_COMPLETE_REG;
  73:.\Generated_Source\PSoC5/UART_Decagon_PM.c ****             #else
  74:.\Generated_Source\PSoC5/UART_Decagon_PM.c ****                 UART_Decagon_backup.tx_period = UART_Decagon_TXBITCTR_PERIOD_REG;
  75:.\Generated_Source\PSoC5/UART_Decagon_PM.c ****             #endif /*End UART_Decagon_TXCLKGEN_DP */
  76:.\Generated_Source\PSoC5/UART_Decagon_PM.c ****             UART_Decagon_backup.tx_mask = UART_Decagon_TXSTATUS_MASK_REG;
  77:.\Generated_Source\PSoC5/UART_Decagon_PM.c ****         #endif /*End UART_Decagon_TX_ENABLED */
  78:.\Generated_Source\PSoC5/UART_Decagon_PM.c **** 
  79:.\Generated_Source\PSoC5/UART_Decagon_PM.c **** 
  80:.\Generated_Source\PSoC5/UART_Decagon_PM.c ****     #else /* CY_UDB_V1 */
  81:.\Generated_Source\PSoC5/UART_Decagon_PM.c **** 
  82:.\Generated_Source\PSoC5/UART_Decagon_PM.c ****         #if(UART_Decagon_CONTROL_REG_REMOVED == 0u)
  83:.\Generated_Source\PSoC5/UART_Decagon_PM.c ****             UART_Decagon_backup.cr = UART_Decagon_CONTROL_REG;
  84:.\Generated_Source\PSoC5/UART_Decagon_PM.c ****         #endif /* End UART_Decagon_CONTROL_REG_REMOVED */
  85:.\Generated_Source\PSoC5/UART_Decagon_PM.c **** 
  86:.\Generated_Source\PSoC5/UART_Decagon_PM.c ****     #endif  /* End CY_UDB_V0 */
  87:.\Generated_Source\PSoC5/UART_Decagon_PM.c **** }
  88:.\Generated_Source\PSoC5/UART_Decagon_PM.c **** 
  89:.\Generated_Source\PSoC5/UART_Decagon_PM.c **** 
  90:.\Generated_Source\PSoC5/UART_Decagon_PM.c **** /*******************************************************************************
  91:.\Generated_Source\PSoC5/UART_Decagon_PM.c **** * Function Name: UART_Decagon_RestoreConfig
  92:.\Generated_Source\PSoC5/UART_Decagon_PM.c **** ********************************************************************************
  93:.\Generated_Source\PSoC5/UART_Decagon_PM.c **** *
  94:.\Generated_Source\PSoC5/UART_Decagon_PM.c **** * Summary:
  95:.\Generated_Source\PSoC5/UART_Decagon_PM.c **** *  Restores the current user configuration.
  96:.\Generated_Source\PSoC5/UART_Decagon_PM.c **** *
  97:.\Generated_Source\PSoC5/UART_Decagon_PM.c **** * Parameters:
  98:.\Generated_Source\PSoC5/UART_Decagon_PM.c **** *  None.
  99:.\Generated_Source\PSoC5/UART_Decagon_PM.c **** *
 100:.\Generated_Source\PSoC5/UART_Decagon_PM.c **** * Return:
 101:.\Generated_Source\PSoC5/UART_Decagon_PM.c **** *  None.
 102:.\Generated_Source\PSoC5/UART_Decagon_PM.c **** *
 103:.\Generated_Source\PSoC5/UART_Decagon_PM.c **** * Global Variables:
 104:.\Generated_Source\PSoC5/UART_Decagon_PM.c **** *  UART_Decagon_backup - used when non-retention registers are restored.
 105:.\Generated_Source\PSoC5/UART_Decagon_PM.c **** *
 106:.\Generated_Source\PSoC5/UART_Decagon_PM.c **** * Reentrant:
 107:.\Generated_Source\PSoC5/UART_Decagon_PM.c **** *  No.
 108:.\Generated_Source\PSoC5/UART_Decagon_PM.c **** *
 109:.\Generated_Source\PSoC5/UART_Decagon_PM.c **** *******************************************************************************/
 110:.\Generated_Source\PSoC5/UART_Decagon_PM.c **** void UART_Decagon_RestoreConfig(void)
 111:.\Generated_Source\PSoC5/UART_Decagon_PM.c **** {
  44              		.loc 1 111 0
  45              		.cfi_startproc
  46              		@ args = 0, pretend = 0, frame = 0
  47              		@ frame_needed = 0, uses_anonymous_args = 0
  48              		@ link register save eliminated.
  49 0000 7047     		bx	lr
  50              		.cfi_endproc
  51              	.LFE1:
  52              		.size	UART_Decagon_RestoreConfig, .-UART_Decagon_RestoreConfig
  53 0002 00BF     		.section	.text.UART_Decagon_Sleep,"ax",%progbits
  54              		.align	2
  55              		.global	UART_Decagon_Sleep
  56              		.thumb
  57              		.thumb_func
  58              		.type	UART_Decagon_Sleep, %function
  59              	UART_Decagon_Sleep:
  60              	.LFB2:
ARM GAS  C:\Users\cps\AppData\Local\Temp\ccGSWAx9.s 			page 4


 112:.\Generated_Source\PSoC5/UART_Decagon_PM.c **** 
 113:.\Generated_Source\PSoC5/UART_Decagon_PM.c ****     #if (CY_UDB_V0)
 114:.\Generated_Source\PSoC5/UART_Decagon_PM.c **** 
 115:.\Generated_Source\PSoC5/UART_Decagon_PM.c ****         #if(UART_Decagon_CONTROL_REG_REMOVED == 0u)
 116:.\Generated_Source\PSoC5/UART_Decagon_PM.c ****             UART_Decagon_CONTROL_REG = UART_Decagon_backup.cr;
 117:.\Generated_Source\PSoC5/UART_Decagon_PM.c ****         #endif /* End UART_Decagon_CONTROL_REG_REMOVED */
 118:.\Generated_Source\PSoC5/UART_Decagon_PM.c **** 
 119:.\Generated_Source\PSoC5/UART_Decagon_PM.c ****         #if( (UART_Decagon_RX_ENABLED) || (UART_Decagon_HD_ENABLED) )
 120:.\Generated_Source\PSoC5/UART_Decagon_PM.c ****             UART_Decagon_RXBITCTR_PERIOD_REG = UART_Decagon_backup.rx_period;
 121:.\Generated_Source\PSoC5/UART_Decagon_PM.c ****             UART_Decagon_RXSTATUS_MASK_REG = UART_Decagon_backup.rx_mask;
 122:.\Generated_Source\PSoC5/UART_Decagon_PM.c ****             #if (UART_Decagon_RXHW_ADDRESS_ENABLED)
 123:.\Generated_Source\PSoC5/UART_Decagon_PM.c ****                 UART_Decagon_RXADDRESS1_REG = UART_Decagon_backup.rx_addr1;
 124:.\Generated_Source\PSoC5/UART_Decagon_PM.c ****                 UART_Decagon_RXADDRESS2_REG = UART_Decagon_backup.rx_addr2;
 125:.\Generated_Source\PSoC5/UART_Decagon_PM.c ****             #endif /* End UART_Decagon_RXHW_ADDRESS_ENABLED */
 126:.\Generated_Source\PSoC5/UART_Decagon_PM.c ****         #endif  /* End (UART_Decagon_RX_ENABLED) || (UART_Decagon_HD_ENABLED) */
 127:.\Generated_Source\PSoC5/UART_Decagon_PM.c **** 
 128:.\Generated_Source\PSoC5/UART_Decagon_PM.c ****         #if(UART_Decagon_TX_ENABLED)
 129:.\Generated_Source\PSoC5/UART_Decagon_PM.c ****             #if(UART_Decagon_TXCLKGEN_DP)
 130:.\Generated_Source\PSoC5/UART_Decagon_PM.c ****                 UART_Decagon_TXBITCLKGEN_CTR_REG = UART_Decagon_backup.tx_clk_ctr;
 131:.\Generated_Source\PSoC5/UART_Decagon_PM.c ****                 UART_Decagon_TXBITCLKTX_COMPLETE_REG = UART_Decagon_backup.tx_clk_compl;
 132:.\Generated_Source\PSoC5/UART_Decagon_PM.c ****             #else
 133:.\Generated_Source\PSoC5/UART_Decagon_PM.c ****                 UART_Decagon_TXBITCTR_PERIOD_REG = UART_Decagon_backup.tx_period;
 134:.\Generated_Source\PSoC5/UART_Decagon_PM.c ****             #endif /*End UART_Decagon_TXCLKGEN_DP */
 135:.\Generated_Source\PSoC5/UART_Decagon_PM.c ****             UART_Decagon_TXSTATUS_MASK_REG = UART_Decagon_backup.tx_mask;
 136:.\Generated_Source\PSoC5/UART_Decagon_PM.c ****         #endif /*End UART_Decagon_TX_ENABLED */
 137:.\Generated_Source\PSoC5/UART_Decagon_PM.c **** 
 138:.\Generated_Source\PSoC5/UART_Decagon_PM.c ****     #else /* CY_UDB_V1 */
 139:.\Generated_Source\PSoC5/UART_Decagon_PM.c **** 
 140:.\Generated_Source\PSoC5/UART_Decagon_PM.c ****         #if(UART_Decagon_CONTROL_REG_REMOVED == 0u)
 141:.\Generated_Source\PSoC5/UART_Decagon_PM.c ****             UART_Decagon_CONTROL_REG = UART_Decagon_backup.cr;
 142:.\Generated_Source\PSoC5/UART_Decagon_PM.c ****         #endif /* End UART_Decagon_CONTROL_REG_REMOVED */
 143:.\Generated_Source\PSoC5/UART_Decagon_PM.c **** 
 144:.\Generated_Source\PSoC5/UART_Decagon_PM.c ****     #endif  /* End CY_UDB_V0 */
 145:.\Generated_Source\PSoC5/UART_Decagon_PM.c **** }
 146:.\Generated_Source\PSoC5/UART_Decagon_PM.c **** 
 147:.\Generated_Source\PSoC5/UART_Decagon_PM.c **** 
 148:.\Generated_Source\PSoC5/UART_Decagon_PM.c **** /*******************************************************************************
 149:.\Generated_Source\PSoC5/UART_Decagon_PM.c **** * Function Name: UART_Decagon_Sleep
 150:.\Generated_Source\PSoC5/UART_Decagon_PM.c **** ********************************************************************************
 151:.\Generated_Source\PSoC5/UART_Decagon_PM.c **** *
 152:.\Generated_Source\PSoC5/UART_Decagon_PM.c **** * Summary:
 153:.\Generated_Source\PSoC5/UART_Decagon_PM.c **** *  Stops and saves the user configuration. Should be called
 154:.\Generated_Source\PSoC5/UART_Decagon_PM.c **** *  just prior to entering sleep.
 155:.\Generated_Source\PSoC5/UART_Decagon_PM.c **** *
 156:.\Generated_Source\PSoC5/UART_Decagon_PM.c **** *
 157:.\Generated_Source\PSoC5/UART_Decagon_PM.c **** * Parameters:
 158:.\Generated_Source\PSoC5/UART_Decagon_PM.c **** *  None.
 159:.\Generated_Source\PSoC5/UART_Decagon_PM.c **** *
 160:.\Generated_Source\PSoC5/UART_Decagon_PM.c **** * Return:
 161:.\Generated_Source\PSoC5/UART_Decagon_PM.c **** *  None.
 162:.\Generated_Source\PSoC5/UART_Decagon_PM.c **** *
 163:.\Generated_Source\PSoC5/UART_Decagon_PM.c **** * Global Variables:
 164:.\Generated_Source\PSoC5/UART_Decagon_PM.c **** *  UART_Decagon_backup - modified when non-retention registers are saved.
 165:.\Generated_Source\PSoC5/UART_Decagon_PM.c **** *
 166:.\Generated_Source\PSoC5/UART_Decagon_PM.c **** * Reentrant:
 167:.\Generated_Source\PSoC5/UART_Decagon_PM.c **** *  No.
 168:.\Generated_Source\PSoC5/UART_Decagon_PM.c **** *
ARM GAS  C:\Users\cps\AppData\Local\Temp\ccGSWAx9.s 			page 5


 169:.\Generated_Source\PSoC5/UART_Decagon_PM.c **** *******************************************************************************/
 170:.\Generated_Source\PSoC5/UART_Decagon_PM.c **** void UART_Decagon_Sleep(void)
 171:.\Generated_Source\PSoC5/UART_Decagon_PM.c **** {
  61              		.loc 1 171 0
  62              		.cfi_startproc
  63              		@ args = 0, pretend = 0, frame = 0
  64              		@ frame_needed = 0, uses_anonymous_args = 0
  65              		.loc 1 171 0
  66 0000 08B5     		push	{r3, lr}
  67              		.cfi_def_cfa_offset 8
  68              		.cfi_offset 3, -8
  69              		.cfi_offset 14, -4
 172:.\Generated_Source\PSoC5/UART_Decagon_PM.c **** 
 173:.\Generated_Source\PSoC5/UART_Decagon_PM.c ****     #if(UART_Decagon_RX_ENABLED || UART_Decagon_HD_ENABLED)
 174:.\Generated_Source\PSoC5/UART_Decagon_PM.c ****         if((UART_Decagon_RXSTATUS_ACTL_REG  & UART_Decagon_INT_ENABLE) != 0u)
  70              		.loc 1 174 0
  71 0002 074B     		ldr	r3, .L7
  72 0004 1B78     		ldrb	r3, [r3]	@ zero_extendqisi2
  73 0006 13F0100F 		tst	r3, #16
  74 000a 03D0     		beq	.L4
 175:.\Generated_Source\PSoC5/UART_Decagon_PM.c ****         {
 176:.\Generated_Source\PSoC5/UART_Decagon_PM.c ****             UART_Decagon_backup.enableState = 1u;
  75              		.loc 1 176 0
  76 000c 0122     		movs	r2, #1
  77 000e 054B     		ldr	r3, .L7+4
  78 0010 1A70     		strb	r2, [r3]
  79 0012 02E0     		b	.L5
  80              	.L4:
 177:.\Generated_Source\PSoC5/UART_Decagon_PM.c ****         }
 178:.\Generated_Source\PSoC5/UART_Decagon_PM.c ****         else
 179:.\Generated_Source\PSoC5/UART_Decagon_PM.c ****         {
 180:.\Generated_Source\PSoC5/UART_Decagon_PM.c ****             UART_Decagon_backup.enableState = 0u;
  81              		.loc 1 180 0
  82 0014 0022     		movs	r2, #0
  83 0016 034B     		ldr	r3, .L7+4
  84 0018 1A70     		strb	r2, [r3]
  85              	.L5:
 181:.\Generated_Source\PSoC5/UART_Decagon_PM.c ****         }
 182:.\Generated_Source\PSoC5/UART_Decagon_PM.c ****     #else
 183:.\Generated_Source\PSoC5/UART_Decagon_PM.c ****         if((UART_Decagon_TXSTATUS_ACTL_REG  & UART_Decagon_INT_ENABLE) !=0u)
 184:.\Generated_Source\PSoC5/UART_Decagon_PM.c ****         {
 185:.\Generated_Source\PSoC5/UART_Decagon_PM.c ****             UART_Decagon_backup.enableState = 1u;
 186:.\Generated_Source\PSoC5/UART_Decagon_PM.c ****         }
 187:.\Generated_Source\PSoC5/UART_Decagon_PM.c ****         else
 188:.\Generated_Source\PSoC5/UART_Decagon_PM.c ****         {
 189:.\Generated_Source\PSoC5/UART_Decagon_PM.c ****             UART_Decagon_backup.enableState = 0u;
 190:.\Generated_Source\PSoC5/UART_Decagon_PM.c ****         }
 191:.\Generated_Source\PSoC5/UART_Decagon_PM.c ****     #endif /* End UART_Decagon_RX_ENABLED || UART_Decagon_HD_ENABLED*/
 192:.\Generated_Source\PSoC5/UART_Decagon_PM.c **** 
 193:.\Generated_Source\PSoC5/UART_Decagon_PM.c ****     UART_Decagon_Stop();
  86              		.loc 1 193 0
  87 001a FFF7FEFF 		bl	UART_Decagon_Stop
  88              	.LVL0:
  89 001e 08BD     		pop	{r3, pc}
  90              	.L8:
  91              		.align	2
  92              	.L7:
ARM GAS  C:\Users\cps\AppData\Local\Temp\ccGSWAx9.s 			page 6


  93 0020 92640040 		.word	1073767570
  94 0024 00000000 		.word	.LANCHOR0
  95              		.cfi_endproc
  96              	.LFE2:
  97              		.size	UART_Decagon_Sleep, .-UART_Decagon_Sleep
  98              		.section	.text.UART_Decagon_Wakeup,"ax",%progbits
  99              		.align	2
 100              		.global	UART_Decagon_Wakeup
 101              		.thumb
 102              		.thumb_func
 103              		.type	UART_Decagon_Wakeup, %function
 104              	UART_Decagon_Wakeup:
 105              	.LFB3:
 194:.\Generated_Source\PSoC5/UART_Decagon_PM.c ****     UART_Decagon_SaveConfig();
 195:.\Generated_Source\PSoC5/UART_Decagon_PM.c **** }
 196:.\Generated_Source\PSoC5/UART_Decagon_PM.c **** 
 197:.\Generated_Source\PSoC5/UART_Decagon_PM.c **** 
 198:.\Generated_Source\PSoC5/UART_Decagon_PM.c **** /*******************************************************************************
 199:.\Generated_Source\PSoC5/UART_Decagon_PM.c **** * Function Name: UART_Decagon_Wakeup
 200:.\Generated_Source\PSoC5/UART_Decagon_PM.c **** ********************************************************************************
 201:.\Generated_Source\PSoC5/UART_Decagon_PM.c **** *
 202:.\Generated_Source\PSoC5/UART_Decagon_PM.c **** * Summary:
 203:.\Generated_Source\PSoC5/UART_Decagon_PM.c **** *  Restores and enables the user configuration. Should be called
 204:.\Generated_Source\PSoC5/UART_Decagon_PM.c **** *  just after awaking from sleep.
 205:.\Generated_Source\PSoC5/UART_Decagon_PM.c **** *
 206:.\Generated_Source\PSoC5/UART_Decagon_PM.c **** * Parameters:
 207:.\Generated_Source\PSoC5/UART_Decagon_PM.c **** *  None.
 208:.\Generated_Source\PSoC5/UART_Decagon_PM.c **** *
 209:.\Generated_Source\PSoC5/UART_Decagon_PM.c **** * Return:
 210:.\Generated_Source\PSoC5/UART_Decagon_PM.c **** *  None.
 211:.\Generated_Source\PSoC5/UART_Decagon_PM.c **** *
 212:.\Generated_Source\PSoC5/UART_Decagon_PM.c **** * Global Variables:
 213:.\Generated_Source\PSoC5/UART_Decagon_PM.c **** *  UART_Decagon_backup - used when non-retention registers are restored.
 214:.\Generated_Source\PSoC5/UART_Decagon_PM.c **** *
 215:.\Generated_Source\PSoC5/UART_Decagon_PM.c **** * Reentrant:
 216:.\Generated_Source\PSoC5/UART_Decagon_PM.c **** *  No.
 217:.\Generated_Source\PSoC5/UART_Decagon_PM.c **** *
 218:.\Generated_Source\PSoC5/UART_Decagon_PM.c **** *******************************************************************************/
 219:.\Generated_Source\PSoC5/UART_Decagon_PM.c **** void UART_Decagon_Wakeup(void)
 220:.\Generated_Source\PSoC5/UART_Decagon_PM.c **** {
 106              		.loc 1 220 0
 107              		.cfi_startproc
 108              		@ args = 0, pretend = 0, frame = 0
 109              		@ frame_needed = 0, uses_anonymous_args = 0
 110 0000 08B5     		push	{r3, lr}
 111              		.cfi_def_cfa_offset 8
 112              		.cfi_offset 3, -8
 113              		.cfi_offset 14, -4
 221:.\Generated_Source\PSoC5/UART_Decagon_PM.c ****     UART_Decagon_RestoreConfig();
 222:.\Generated_Source\PSoC5/UART_Decagon_PM.c ****     #if( (UART_Decagon_RX_ENABLED) || (UART_Decagon_HD_ENABLED) )
 223:.\Generated_Source\PSoC5/UART_Decagon_PM.c ****         UART_Decagon_ClearRxBuffer();
 114              		.loc 1 223 0
 115 0002 FFF7FEFF 		bl	UART_Decagon_ClearRxBuffer
 116              	.LVL1:
 224:.\Generated_Source\PSoC5/UART_Decagon_PM.c ****     #endif /* End (UART_Decagon_RX_ENABLED) || (UART_Decagon_HD_ENABLED) */
 225:.\Generated_Source\PSoC5/UART_Decagon_PM.c ****     #if(UART_Decagon_TX_ENABLED || UART_Decagon_HD_ENABLED)
 226:.\Generated_Source\PSoC5/UART_Decagon_PM.c ****         UART_Decagon_ClearTxBuffer();
ARM GAS  C:\Users\cps\AppData\Local\Temp\ccGSWAx9.s 			page 7


 227:.\Generated_Source\PSoC5/UART_Decagon_PM.c ****     #endif /* End UART_Decagon_TX_ENABLED || UART_Decagon_HD_ENABLED */
 228:.\Generated_Source\PSoC5/UART_Decagon_PM.c **** 
 229:.\Generated_Source\PSoC5/UART_Decagon_PM.c ****     if(UART_Decagon_backup.enableState != 0u)
 117              		.loc 1 229 0
 118 0006 034B     		ldr	r3, .L12
 119 0008 1B78     		ldrb	r3, [r3]	@ zero_extendqisi2
 120 000a 0BB1     		cbz	r3, .L9
 230:.\Generated_Source\PSoC5/UART_Decagon_PM.c ****     {
 231:.\Generated_Source\PSoC5/UART_Decagon_PM.c ****         UART_Decagon_Enable();
 121              		.loc 1 231 0
 122 000c FFF7FEFF 		bl	UART_Decagon_Enable
 123              	.LVL2:
 124              	.L9:
 125 0010 08BD     		pop	{r3, pc}
 126              	.L13:
 127 0012 00BF     		.align	2
 128              	.L12:
 129 0014 00000000 		.word	.LANCHOR0
 130              		.cfi_endproc
 131              	.LFE3:
 132              		.size	UART_Decagon_Wakeup, .-UART_Decagon_Wakeup
 133              		.bss
 134              		.align	2
 135              		.set	.LANCHOR0,. + 0
 136              		.type	UART_Decagon_backup, %object
 137              		.size	UART_Decagon_backup, 2
 138              	UART_Decagon_backup:
 139 0000 0000     		.space	2
 140 0002 0000     		.text
 141              	.Letext0:
 142              		.file 2 ".\\Generated_Source\\PSoC5\\cytypes.h"
 143              		.file 3 ".\\Generated_Source\\PSoC5\\UART_Decagon.h"