ARM GAS  C:\Users\karunmj\AppData\Local\Temp\ccqWL9PT.s 			page 1


   1              		.syntax unified
   2              		.cpu cortex-m3
   3              		.fpu softvfp
   4              		.eabi_attribute 20, 1
   5              		.eabi_attribute 21, 1
   6              		.eabi_attribute 23, 3
   7              		.eabi_attribute 24, 1
   8              		.eabi_attribute 25, 1
   9              		.eabi_attribute 26, 1
  10              		.eabi_attribute 30, 6
  11              		.eabi_attribute 18, 4
  12              		.thumb
  13              		.file	"ADC_SAR_Seq_1_PM.c"
  20 0000 91000000 		.text
  20      02004200 
  20      00000201 
  20      FB0E0D00 
  20      01010101 
  21              	.Ltext0:
  22              		.cfi_sections	.debug_frame
  23              		.section	.text.ADC_SAR_Seq_1_Sleep,"ax",%progbits
  24              		.align	2
  25              		.global	ADC_SAR_Seq_1_Sleep
  26              		.thumb
  27              		.thumb_func
  28              		.type	ADC_SAR_Seq_1_Sleep, %function
  29              	ADC_SAR_Seq_1_Sleep:
  30              	.LFB0:
  31              		.file 1 ".\\Generated_Source\\PSoC5\\ADC_SAR_Seq_1_PM.c"
   1:.\Generated_Source\PSoC5/ADC_SAR_Seq_1_PM.c **** /*******************************************************************************
   2:.\Generated_Source\PSoC5/ADC_SAR_Seq_1_PM.c **** * File Name: ADC_SAR_Seq_1_PM.c
   3:.\Generated_Source\PSoC5/ADC_SAR_Seq_1_PM.c **** * Version 1.0
   4:.\Generated_Source\PSoC5/ADC_SAR_Seq_1_PM.c **** *
   5:.\Generated_Source\PSoC5/ADC_SAR_Seq_1_PM.c **** * Description:
   6:.\Generated_Source\PSoC5/ADC_SAR_Seq_1_PM.c **** *  This file contains the setup, control and status commands to support
   7:.\Generated_Source\PSoC5/ADC_SAR_Seq_1_PM.c **** *  component operations in low power mode.
   8:.\Generated_Source\PSoC5/ADC_SAR_Seq_1_PM.c **** *
   9:.\Generated_Source\PSoC5/ADC_SAR_Seq_1_PM.c **** * Note:
  10:.\Generated_Source\PSoC5/ADC_SAR_Seq_1_PM.c **** *
  11:.\Generated_Source\PSoC5/ADC_SAR_Seq_1_PM.c **** ********************************************************************************
  12:.\Generated_Source\PSoC5/ADC_SAR_Seq_1_PM.c **** * Copyright 2012, Cypress Semiconductor Corporation.  All rights reserved.
  13:.\Generated_Source\PSoC5/ADC_SAR_Seq_1_PM.c **** * You may use this file only in accordance with the license, terms, conditions,
  14:.\Generated_Source\PSoC5/ADC_SAR_Seq_1_PM.c **** * disclaimers, and limitations in the end user license agreement accompanying
  15:.\Generated_Source\PSoC5/ADC_SAR_Seq_1_PM.c **** * the software package with which this file was provided.
  16:.\Generated_Source\PSoC5/ADC_SAR_Seq_1_PM.c **** *******************************************************************************/
  17:.\Generated_Source\PSoC5/ADC_SAR_Seq_1_PM.c **** 
  18:.\Generated_Source\PSoC5/ADC_SAR_Seq_1_PM.c **** #include "ADC_SAR_Seq_1.h"
  19:.\Generated_Source\PSoC5/ADC_SAR_Seq_1_PM.c **** #include "ADC_SAR_Seq_1_SAR.h"
  20:.\Generated_Source\PSoC5/ADC_SAR_Seq_1_PM.c **** 
  21:.\Generated_Source\PSoC5/ADC_SAR_Seq_1_PM.c **** 
  22:.\Generated_Source\PSoC5/ADC_SAR_Seq_1_PM.c **** /*******************************************************************************
ARM GAS  C:\Users\karunmj\AppData\Local\Temp\ccqWL9PT.s 			page 2


  23:.\Generated_Source\PSoC5/ADC_SAR_Seq_1_PM.c **** * Function Name: ADC_SAR_Seq_1_Sleep
  24:.\Generated_Source\PSoC5/ADC_SAR_Seq_1_PM.c **** ********************************************************************************
  25:.\Generated_Source\PSoC5/ADC_SAR_Seq_1_PM.c **** *
  26:.\Generated_Source\PSoC5/ADC_SAR_Seq_1_PM.c **** * Summary:
  27:.\Generated_Source\PSoC5/ADC_SAR_Seq_1_PM.c **** *  Stops the ADC operation and saves the configuration registers and component
  28:.\Generated_Source\PSoC5/ADC_SAR_Seq_1_PM.c **** *  enable state. Should be called just prior to entering sleep
  29:.\Generated_Source\PSoC5/ADC_SAR_Seq_1_PM.c **** *
  30:.\Generated_Source\PSoC5/ADC_SAR_Seq_1_PM.c **** * Parameters:
  31:.\Generated_Source\PSoC5/ADC_SAR_Seq_1_PM.c **** *  None.
  32:.\Generated_Source\PSoC5/ADC_SAR_Seq_1_PM.c **** *
  33:.\Generated_Source\PSoC5/ADC_SAR_Seq_1_PM.c **** * Return:
  34:.\Generated_Source\PSoC5/ADC_SAR_Seq_1_PM.c **** *  None.
  35:.\Generated_Source\PSoC5/ADC_SAR_Seq_1_PM.c **** *
  36:.\Generated_Source\PSoC5/ADC_SAR_Seq_1_PM.c **** * Side Effects:
  37:.\Generated_Source\PSoC5/ADC_SAR_Seq_1_PM.c **** *  None.
  38:.\Generated_Source\PSoC5/ADC_SAR_Seq_1_PM.c **** *
  39:.\Generated_Source\PSoC5/ADC_SAR_Seq_1_PM.c **** * Reentrant:
  40:.\Generated_Source\PSoC5/ADC_SAR_Seq_1_PM.c **** *  No.
  41:.\Generated_Source\PSoC5/ADC_SAR_Seq_1_PM.c **** *
  42:.\Generated_Source\PSoC5/ADC_SAR_Seq_1_PM.c **** *******************************************************************************/
  43:.\Generated_Source\PSoC5/ADC_SAR_Seq_1_PM.c **** void ADC_SAR_Seq_1_Sleep(void)
  44:.\Generated_Source\PSoC5/ADC_SAR_Seq_1_PM.c **** {
  32              		.loc 1 44 0
  33              		.cfi_startproc
  34              		@ args = 0, pretend = 0, frame = 0
  35              		@ frame_needed = 1, uses_anonymous_args = 0
  36 0000 80B5     		push	{r7, lr}
  37              	.LCFI0:
  38              		.cfi_def_cfa_offset 8
  39 0002 00AF     		add	r7, sp, #0
  40              		.cfi_offset 14, -4
  41              		.cfi_offset 7, -8
  42              	.LCFI1:
  43              		.cfi_def_cfa_register 7
  45:.\Generated_Source\PSoC5/ADC_SAR_Seq_1_PM.c ****     ADC_SAR_Seq_1_SAR_Sleep();
  44              		.loc 1 45 0
  45 0004 FFF7FEFF 		bl	ADC_SAR_Seq_1_SAR_Sleep
  46:.\Generated_Source\PSoC5/ADC_SAR_Seq_1_PM.c ****     ADC_SAR_Seq_1_Disable();
  46              		.loc 1 46 0
  47 0008 FFF7FEFF 		bl	ADC_SAR_Seq_1_Disable
  47:.\Generated_Source\PSoC5/ADC_SAR_Seq_1_PM.c **** }
  48              		.loc 1 47 0
  49 000c 80BD     		pop	{r7, pc}
  50              		.cfi_endproc
  51              	.LFE0:
  52              		.size	ADC_SAR_Seq_1_Sleep, .-ADC_SAR_Seq_1_Sleep
  53 000e 00BF     		.section	.text.ADC_SAR_Seq_1_Wakeup,"ax",%progbits
  54              		.align	2
  55              		.global	ADC_SAR_Seq_1_Wakeup
  56              		.thumb
  57              		.thumb_func
  58              		.type	ADC_SAR_Seq_1_Wakeup, %function
  59              	ADC_SAR_Seq_1_Wakeup:
  60              	.LFB1:
  48:.\Generated_Source\PSoC5/ADC_SAR_Seq_1_PM.c **** 
  49:.\Generated_Source\PSoC5/ADC_SAR_Seq_1_PM.c **** 
  50:.\Generated_Source\PSoC5/ADC_SAR_Seq_1_PM.c **** /*******************************************************************************
ARM GAS  C:\Users\karunmj\AppData\Local\Temp\ccqWL9PT.s 			page 3


  51:.\Generated_Source\PSoC5/ADC_SAR_Seq_1_PM.c **** * Function Name: ADC_SAR_Seq_1_Wakeup
  52:.\Generated_Source\PSoC5/ADC_SAR_Seq_1_PM.c **** ********************************************************************************
  53:.\Generated_Source\PSoC5/ADC_SAR_Seq_1_PM.c **** *
  54:.\Generated_Source\PSoC5/ADC_SAR_Seq_1_PM.c **** * Summary:
  55:.\Generated_Source\PSoC5/ADC_SAR_Seq_1_PM.c **** *  Restores the component enable state and configuration registers. This should
  56:.\Generated_Source\PSoC5/ADC_SAR_Seq_1_PM.c **** *  be called just after awaking from sleep mode
  57:.\Generated_Source\PSoC5/ADC_SAR_Seq_1_PM.c **** *
  58:.\Generated_Source\PSoC5/ADC_SAR_Seq_1_PM.c **** * Parameters:
  59:.\Generated_Source\PSoC5/ADC_SAR_Seq_1_PM.c **** *  None.
  60:.\Generated_Source\PSoC5/ADC_SAR_Seq_1_PM.c **** *
  61:.\Generated_Source\PSoC5/ADC_SAR_Seq_1_PM.c **** * Return:
  62:.\Generated_Source\PSoC5/ADC_SAR_Seq_1_PM.c **** *  None.
  63:.\Generated_Source\PSoC5/ADC_SAR_Seq_1_PM.c **** *
  64:.\Generated_Source\PSoC5/ADC_SAR_Seq_1_PM.c **** * Side Effects:
  65:.\Generated_Source\PSoC5/ADC_SAR_Seq_1_PM.c **** *  None.
  66:.\Generated_Source\PSoC5/ADC_SAR_Seq_1_PM.c **** *
  67:.\Generated_Source\PSoC5/ADC_SAR_Seq_1_PM.c **** * Reentrant:
  68:.\Generated_Source\PSoC5/ADC_SAR_Seq_1_PM.c **** *  No.
  69:.\Generated_Source\PSoC5/ADC_SAR_Seq_1_PM.c **** *
  70:.\Generated_Source\PSoC5/ADC_SAR_Seq_1_PM.c **** *******************************************************************************/
  71:.\Generated_Source\PSoC5/ADC_SAR_Seq_1_PM.c **** void ADC_SAR_Seq_1_Wakeup(void)
  72:.\Generated_Source\PSoC5/ADC_SAR_Seq_1_PM.c **** {
  61              		.loc 1 72 0
  62              		.cfi_startproc
  63              		@ args = 0, pretend = 0, frame = 0
  64              		@ frame_needed = 1, uses_anonymous_args = 0
  65 0000 80B5     		push	{r7, lr}
  66              	.LCFI2:
  67              		.cfi_def_cfa_offset 8
  68 0002 00AF     		add	r7, sp, #0
  69              		.cfi_offset 14, -4
  70              		.cfi_offset 7, -8
  71              	.LCFI3:
  72              		.cfi_def_cfa_register 7
  73:.\Generated_Source\PSoC5/ADC_SAR_Seq_1_PM.c ****     ADC_SAR_Seq_1_Enable();
  73              		.loc 1 73 0
  74 0004 FFF7FEFF 		bl	ADC_SAR_Seq_1_Enable
  74:.\Generated_Source\PSoC5/ADC_SAR_Seq_1_PM.c ****     ADC_SAR_Seq_1_SAR_Wakeup();
  75              		.loc 1 74 0
  76 0008 FFF7FEFF 		bl	ADC_SAR_Seq_1_SAR_Wakeup
  75:.\Generated_Source\PSoC5/ADC_SAR_Seq_1_PM.c **** 
  76:.\Generated_Source\PSoC5/ADC_SAR_Seq_1_PM.c ****     #if(ADC_SAR_Seq_1_SAMPLE_MODE == ADC_SAR_Seq_1_SAMPLE_MODE_FREE_RUNNING)
  77:.\Generated_Source\PSoC5/ADC_SAR_Seq_1_PM.c ****         ADC_SAR_Seq_1_SAR_StartConvert();
  77              		.loc 1 77 0
  78 000c FFF7FEFF 		bl	ADC_SAR_Seq_1_SAR_StartConvert
  78:.\Generated_Source\PSoC5/ADC_SAR_Seq_1_PM.c ****     #endif /* (ADC_SAR_Seq_1_SAMPLE_MODE == ADC_SAR_Seq_1_SAMPLE_MODE_FREE_RUNNING) */
  79:.\Generated_Source\PSoC5/ADC_SAR_Seq_1_PM.c **** 
  80:.\Generated_Source\PSoC5/ADC_SAR_Seq_1_PM.c ****     (void) CY_GET_REG8(ADC_SAR_Seq_1_STATUS_PTR);
  79              		.loc 1 80 0
  80 0010 46F26143 		movw	r3, #:lower16:1073767521
  81 0014 C4F20003 		movt	r3, #:upper16:1073767521
  82 0018 1B78     		ldrb	r3, [r3, #0]
  81:.\Generated_Source\PSoC5/ADC_SAR_Seq_1_PM.c **** 
  82:.\Generated_Source\PSoC5/ADC_SAR_Seq_1_PM.c **** }
  83              		.loc 1 82 0
  84 001a 80BD     		pop	{r7, pc}
  85              		.cfi_endproc
ARM GAS  C:\Users\karunmj\AppData\Local\Temp\ccqWL9PT.s 			page 4


  86              	.LFE1:
  87              		.size	ADC_SAR_Seq_1_Wakeup, .-ADC_SAR_Seq_1_Wakeup
  88              		.section	.text.ADC_SAR_Seq_1_SaveConfig,"ax",%progbits
  89              		.align	2
  90              		.global	ADC_SAR_Seq_1_SaveConfig
  91              		.thumb
  92              		.thumb_func
  93              		.type	ADC_SAR_Seq_1_SaveConfig, %function
  94              	ADC_SAR_Seq_1_SaveConfig:
  95              	.LFB2:
  83:.\Generated_Source\PSoC5/ADC_SAR_Seq_1_PM.c **** 
  84:.\Generated_Source\PSoC5/ADC_SAR_Seq_1_PM.c **** 
  85:.\Generated_Source\PSoC5/ADC_SAR_Seq_1_PM.c **** /*******************************************************************************
  86:.\Generated_Source\PSoC5/ADC_SAR_Seq_1_PM.c **** * Function Name: ADC_SAR_Seq_1_SaveConfig
  87:.\Generated_Source\PSoC5/ADC_SAR_Seq_1_PM.c **** ********************************************************************************
  88:.\Generated_Source\PSoC5/ADC_SAR_Seq_1_PM.c **** *
  89:.\Generated_Source\PSoC5/ADC_SAR_Seq_1_PM.c **** * Summary:
  90:.\Generated_Source\PSoC5/ADC_SAR_Seq_1_PM.c **** *  Save the current configuration of ADC non-retention registers
  91:.\Generated_Source\PSoC5/ADC_SAR_Seq_1_PM.c **** *
  92:.\Generated_Source\PSoC5/ADC_SAR_Seq_1_PM.c **** * Parameters:
  93:.\Generated_Source\PSoC5/ADC_SAR_Seq_1_PM.c **** *  None.
  94:.\Generated_Source\PSoC5/ADC_SAR_Seq_1_PM.c **** *
  95:.\Generated_Source\PSoC5/ADC_SAR_Seq_1_PM.c **** * Return:
  96:.\Generated_Source\PSoC5/ADC_SAR_Seq_1_PM.c **** *  None.
  97:.\Generated_Source\PSoC5/ADC_SAR_Seq_1_PM.c **** *
  98:.\Generated_Source\PSoC5/ADC_SAR_Seq_1_PM.c **** * Side Effects:
  99:.\Generated_Source\PSoC5/ADC_SAR_Seq_1_PM.c **** *  None.
 100:.\Generated_Source\PSoC5/ADC_SAR_Seq_1_PM.c **** *
 101:.\Generated_Source\PSoC5/ADC_SAR_Seq_1_PM.c **** * Reentrant:
 102:.\Generated_Source\PSoC5/ADC_SAR_Seq_1_PM.c **** *  No.
 103:.\Generated_Source\PSoC5/ADC_SAR_Seq_1_PM.c **** *
 104:.\Generated_Source\PSoC5/ADC_SAR_Seq_1_PM.c **** *******************************************************************************/
 105:.\Generated_Source\PSoC5/ADC_SAR_Seq_1_PM.c **** void ADC_SAR_Seq_1_SaveConfig(void)
 106:.\Generated_Source\PSoC5/ADC_SAR_Seq_1_PM.c **** {
  96              		.loc 1 106 0
  97              		.cfi_startproc
  98              		@ args = 0, pretend = 0, frame = 0
  99              		@ frame_needed = 1, uses_anonymous_args = 0
 100              		@ link register save eliminated.
 101 0000 80B4     		push	{r7}
 102              	.LCFI4:
 103              		.cfi_def_cfa_offset 4
 104 0002 00AF     		add	r7, sp, #0
 105              		.cfi_offset 7, -4
 106              	.LCFI5:
 107              		.cfi_def_cfa_register 7
 107:.\Generated_Source\PSoC5/ADC_SAR_Seq_1_PM.c **** 
 108:.\Generated_Source\PSoC5/ADC_SAR_Seq_1_PM.c **** }
 108              		.loc 1 108 0
 109 0004 BD46     		mov	sp, r7
 110 0006 80BC     		pop	{r7}
 111 0008 7047     		bx	lr
 112              		.cfi_endproc
 113              	.LFE2:
 114              		.size	ADC_SAR_Seq_1_SaveConfig, .-ADC_SAR_Seq_1_SaveConfig
 115 000a 00BF     		.section	.text.ADC_SAR_Seq_1_RestoreConfig,"ax",%progbits
 116              		.align	2
ARM GAS  C:\Users\karunmj\AppData\Local\Temp\ccqWL9PT.s 			page 5


 117              		.global	ADC_SAR_Seq_1_RestoreConfig
 118              		.thumb
 119              		.thumb_func
 120              		.type	ADC_SAR_Seq_1_RestoreConfig, %function
 121              	ADC_SAR_Seq_1_RestoreConfig:
 122              	.LFB3:
 109:.\Generated_Source\PSoC5/ADC_SAR_Seq_1_PM.c **** 
 110:.\Generated_Source\PSoC5/ADC_SAR_Seq_1_PM.c **** 
 111:.\Generated_Source\PSoC5/ADC_SAR_Seq_1_PM.c **** /*******************************************************************************
 112:.\Generated_Source\PSoC5/ADC_SAR_Seq_1_PM.c **** * Function Name: ADC_SAR_Seq_1_RestoreConfig
 113:.\Generated_Source\PSoC5/ADC_SAR_Seq_1_PM.c **** ********************************************************************************
 114:.\Generated_Source\PSoC5/ADC_SAR_Seq_1_PM.c **** *
 115:.\Generated_Source\PSoC5/ADC_SAR_Seq_1_PM.c **** * Summary:
 116:.\Generated_Source\PSoC5/ADC_SAR_Seq_1_PM.c **** *  Restores the configuration of ADC non-retention registers
 117:.\Generated_Source\PSoC5/ADC_SAR_Seq_1_PM.c **** *
 118:.\Generated_Source\PSoC5/ADC_SAR_Seq_1_PM.c **** * Parameters:
 119:.\Generated_Source\PSoC5/ADC_SAR_Seq_1_PM.c **** *  None.
 120:.\Generated_Source\PSoC5/ADC_SAR_Seq_1_PM.c **** *
 121:.\Generated_Source\PSoC5/ADC_SAR_Seq_1_PM.c **** * Return:
 122:.\Generated_Source\PSoC5/ADC_SAR_Seq_1_PM.c **** *  None.
 123:.\Generated_Source\PSoC5/ADC_SAR_Seq_1_PM.c **** *
 124:.\Generated_Source\PSoC5/ADC_SAR_Seq_1_PM.c **** * Side Effects:
 125:.\Generated_Source\PSoC5/ADC_SAR_Seq_1_PM.c **** *  None.
 126:.\Generated_Source\PSoC5/ADC_SAR_Seq_1_PM.c **** *
 127:.\Generated_Source\PSoC5/ADC_SAR_Seq_1_PM.c **** * Reentrant:
 128:.\Generated_Source\PSoC5/ADC_SAR_Seq_1_PM.c **** *  No.
 129:.\Generated_Source\PSoC5/ADC_SAR_Seq_1_PM.c **** *
 130:.\Generated_Source\PSoC5/ADC_SAR_Seq_1_PM.c **** *******************************************************************************/
 131:.\Generated_Source\PSoC5/ADC_SAR_Seq_1_PM.c **** void ADC_SAR_Seq_1_RestoreConfig(void)
 132:.\Generated_Source\PSoC5/ADC_SAR_Seq_1_PM.c **** {
 123              		.loc 1 132 0
 124              		.cfi_startproc
 125              		@ args = 0, pretend = 0, frame = 0
 126              		@ frame_needed = 1, uses_anonymous_args = 0
 127              		@ link register save eliminated.
 128 0000 80B4     		push	{r7}
 129              	.LCFI6:
 130              		.cfi_def_cfa_offset 4
 131 0002 00AF     		add	r7, sp, #0
 132              		.cfi_offset 7, -4
 133              	.LCFI7:
 134              		.cfi_def_cfa_register 7
 133:.\Generated_Source\PSoC5/ADC_SAR_Seq_1_PM.c **** 
 134:.\Generated_Source\PSoC5/ADC_SAR_Seq_1_PM.c **** }
 135              		.loc 1 134 0
 136 0004 BD46     		mov	sp, r7
 137 0006 80BC     		pop	{r7}
 138 0008 7047     		bx	lr
 139              		.cfi_endproc
 140              	.LFE3:
 141              		.size	ADC_SAR_Seq_1_RestoreConfig, .-ADC_SAR_Seq_1_RestoreConfig
 142 000a 00BF     		.text
 143              	.Letext0: