ARM GAS  C:\Users\karunmj\AppData\Local\Temp\ccy4LQk2.s 			page 1


   1              		.syntax unified
   2              		.cpu cortex-m3
   3              		.fpu softvfp
   4              		.eabi_attribute 20, 1
   5              		.eabi_attribute 21, 1
   6              		.eabi_attribute 23, 3
   7              		.eabi_attribute 24, 1
   8              		.eabi_attribute 25, 1
   9              		.eabi_attribute 26, 1
  10              		.eabi_attribute 30, 6
  11              		.eabi_attribute 18, 4
  12              		.thumb
  13              		.file	"ADC_SAR_Seq_1_SAR.c"
  14              		.section	.debug_abbrev,"",%progbits
  15              	.Ldebug_abbrev0:
  16              		.section	.debug_info,"",%progbits
  17              	.Ldebug_info0:
  18              		.section	.debug_line,"",%progbits
  19              	.Ldebug_line0:
  20 0000 F4010000 		.text
  20      02006A00 
  20      00000201 
  20      FB0E0D00 
  20      01010101 
  21              	.Ltext0:
  22              		.cfi_sections	.debug_frame
  23              		.global	ADC_SAR_Seq_1_SAR_initVar
  24              		.bss
  25              		.type	ADC_SAR_Seq_1_SAR_initVar, %object
  26              		.size	ADC_SAR_Seq_1_SAR_initVar, 1
  27              	ADC_SAR_Seq_1_SAR_initVar:
  28 0000 00       		.space	1
  29              		.comm	ADC_SAR_Seq_1_SAR_offset,2,2
  30              		.comm	ADC_SAR_Seq_1_SAR_countsPerVolt,2,2
  31              		.comm	ADC_SAR_Seq_1_SAR_shift,2,2
  32              		.section	.text.ADC_SAR_Seq_1_SAR_Start,"ax",%progbits
  33              		.align	2
  34              		.global	ADC_SAR_Seq_1_SAR_Start
  35              		.thumb
  36              		.thumb_func
  37              		.type	ADC_SAR_Seq_1_SAR_Start, %function
  38              	ADC_SAR_Seq_1_SAR_Start:
  39              	.LFB0:
  40              		.file 1 ".\\Generated_Source\\PSoC5\\ADC_SAR_Seq_1_SAR.c"
   1:.\Generated_Source\PSoC5/ADC_SAR_Seq_1_SAR.c **** /*******************************************************************************
   2:.\Generated_Source\PSoC5/ADC_SAR_Seq_1_SAR.c **** * File Name: ADC_SAR_Seq_1_SAR.c
   3:.\Generated_Source\PSoC5/ADC_SAR_Seq_1_SAR.c **** * Version 2.0
   4:.\Generated_Source\PSoC5/ADC_SAR_Seq_1_SAR.c **** *
   5:.\Generated_Source\PSoC5/ADC_SAR_Seq_1_SAR.c **** * Description:
   6:.\Generated_Source\PSoC5/ADC_SAR_Seq_1_SAR.c **** *  This file provides the source code to the API for the Successive
   7:.\Generated_Source\PSoC5/ADC_SAR_Seq_1_SAR.c **** *  approximation ADC Component.
   8:.\Generated_Source\PSoC5/ADC_SAR_Seq_1_SAR.c **** *
   9:.\Generated_Source\PSoC5/ADC_SAR_Seq_1_SAR.c **** * Note:
  10:.\Generated_Source\PSoC5/ADC_SAR_Seq_1_SAR.c **** *
  11:.\Generated_Source\PSoC5/ADC_SAR_Seq_1_SAR.c **** ********************************************************************************
  12:.\Generated_Source\PSoC5/ADC_SAR_Seq_1_SAR.c **** * Copyright 2008-2012, Cypress Semiconductor Corporation.  All rights reserved.
  13:.\Generated_Source\PSoC5/ADC_SAR_Seq_1_SAR.c **** * You may use this file only in accordance with the license, terms, conditions,
ARM GAS  C:\Users\karunmj\AppData\Local\Temp\ccy4LQk2.s 			page 2


  14:.\Generated_Source\PSoC5/ADC_SAR_Seq_1_SAR.c **** * disclaimers, and limitations in the end user license agreement accompanying
  15:.\Generated_Source\PSoC5/ADC_SAR_Seq_1_SAR.c **** * the software package with which this file was provided.
  16:.\Generated_Source\PSoC5/ADC_SAR_Seq_1_SAR.c **** *******************************************************************************/
  17:.\Generated_Source\PSoC5/ADC_SAR_Seq_1_SAR.c **** 
  18:.\Generated_Source\PSoC5/ADC_SAR_Seq_1_SAR.c **** #include "CyLib.h"
  19:.\Generated_Source\PSoC5/ADC_SAR_Seq_1_SAR.c **** #include "ADC_SAR_Seq_1_SAR.h"
  20:.\Generated_Source\PSoC5/ADC_SAR_Seq_1_SAR.c **** 
  21:.\Generated_Source\PSoC5/ADC_SAR_Seq_1_SAR.c **** #if(ADC_SAR_Seq_1_SAR_DEFAULT_INTERNAL_CLK)
  22:.\Generated_Source\PSoC5/ADC_SAR_Seq_1_SAR.c ****     #include "ADC_SAR_Seq_1_SAR_theACLK.h"
  23:.\Generated_Source\PSoC5/ADC_SAR_Seq_1_SAR.c **** #endif /* End ADC_SAR_Seq_1_SAR_DEFAULT_INTERNAL_CLK */
  24:.\Generated_Source\PSoC5/ADC_SAR_Seq_1_SAR.c **** 
  25:.\Generated_Source\PSoC5/ADC_SAR_Seq_1_SAR.c **** 
  26:.\Generated_Source\PSoC5/ADC_SAR_Seq_1_SAR.c **** /***************************************
  27:.\Generated_Source\PSoC5/ADC_SAR_Seq_1_SAR.c **** * Forward function references
  28:.\Generated_Source\PSoC5/ADC_SAR_Seq_1_SAR.c **** ***************************************/
  29:.\Generated_Source\PSoC5/ADC_SAR_Seq_1_SAR.c **** static void ADC_SAR_Seq_1_SAR_CalcGain(uint8 resolution);
  30:.\Generated_Source\PSoC5/ADC_SAR_Seq_1_SAR.c **** 
  31:.\Generated_Source\PSoC5/ADC_SAR_Seq_1_SAR.c **** 
  32:.\Generated_Source\PSoC5/ADC_SAR_Seq_1_SAR.c **** /***************************************
  33:.\Generated_Source\PSoC5/ADC_SAR_Seq_1_SAR.c **** * Global data allocation
  34:.\Generated_Source\PSoC5/ADC_SAR_Seq_1_SAR.c **** ***************************************/
  35:.\Generated_Source\PSoC5/ADC_SAR_Seq_1_SAR.c **** uint8 ADC_SAR_Seq_1_SAR_initVar = 0u;
  36:.\Generated_Source\PSoC5/ADC_SAR_Seq_1_SAR.c **** volatile int16 ADC_SAR_Seq_1_SAR_offset;
  37:.\Generated_Source\PSoC5/ADC_SAR_Seq_1_SAR.c **** volatile int16 ADC_SAR_Seq_1_SAR_countsPerVolt;   /* Gain compensation */
  38:.\Generated_Source\PSoC5/ADC_SAR_Seq_1_SAR.c **** volatile int16 ADC_SAR_Seq_1_SAR_shift;
  39:.\Generated_Source\PSoC5/ADC_SAR_Seq_1_SAR.c **** 
  40:.\Generated_Source\PSoC5/ADC_SAR_Seq_1_SAR.c **** 
  41:.\Generated_Source\PSoC5/ADC_SAR_Seq_1_SAR.c **** /***************************************
  42:.\Generated_Source\PSoC5/ADC_SAR_Seq_1_SAR.c **** * Local data allocation
  43:.\Generated_Source\PSoC5/ADC_SAR_Seq_1_SAR.c **** ***************************************/
  44:.\Generated_Source\PSoC5/ADC_SAR_Seq_1_SAR.c **** #if(CY_PSOC5A)
  45:.\Generated_Source\PSoC5/ADC_SAR_Seq_1_SAR.c ****     static uint8 ADC_SAR_Seq_1_SAR_resolution;
  46:.\Generated_Source\PSoC5/ADC_SAR_Seq_1_SAR.c **** #endif /* End CY_PSOC5A */
  47:.\Generated_Source\PSoC5/ADC_SAR_Seq_1_SAR.c **** 
  48:.\Generated_Source\PSoC5/ADC_SAR_Seq_1_SAR.c **** 
  49:.\Generated_Source\PSoC5/ADC_SAR_Seq_1_SAR.c **** /*******************************************************************************
  50:.\Generated_Source\PSoC5/ADC_SAR_Seq_1_SAR.c **** * Function Name: ADC_SAR_Seq_1_SAR_Start
  51:.\Generated_Source\PSoC5/ADC_SAR_Seq_1_SAR.c **** ********************************************************************************
  52:.\Generated_Source\PSoC5/ADC_SAR_Seq_1_SAR.c **** *
  53:.\Generated_Source\PSoC5/ADC_SAR_Seq_1_SAR.c **** * Summary:
  54:.\Generated_Source\PSoC5/ADC_SAR_Seq_1_SAR.c **** *  Performs all required initialization for this component and enables the
  55:.\Generated_Source\PSoC5/ADC_SAR_Seq_1_SAR.c **** *  power.
  56:.\Generated_Source\PSoC5/ADC_SAR_Seq_1_SAR.c **** *
  57:.\Generated_Source\PSoC5/ADC_SAR_Seq_1_SAR.c **** * Parameters:
  58:.\Generated_Source\PSoC5/ADC_SAR_Seq_1_SAR.c **** *  None.
  59:.\Generated_Source\PSoC5/ADC_SAR_Seq_1_SAR.c **** *
  60:.\Generated_Source\PSoC5/ADC_SAR_Seq_1_SAR.c **** * Return:
  61:.\Generated_Source\PSoC5/ADC_SAR_Seq_1_SAR.c **** *  None.
  62:.\Generated_Source\PSoC5/ADC_SAR_Seq_1_SAR.c **** *
  63:.\Generated_Source\PSoC5/ADC_SAR_Seq_1_SAR.c **** * Global variables:
  64:.\Generated_Source\PSoC5/ADC_SAR_Seq_1_SAR.c **** *  The ADC_SAR_Seq_1_SAR_initVar variable is used to indicate when/if initial
  65:.\Generated_Source\PSoC5/ADC_SAR_Seq_1_SAR.c **** *  configuration of this component has happened. The variable is initialized to
  66:.\Generated_Source\PSoC5/ADC_SAR_Seq_1_SAR.c **** *  zero and set to 1 the first time ADC_Start() is called. This allows for
  67:.\Generated_Source\PSoC5/ADC_SAR_Seq_1_SAR.c **** *  component Re-Start without re-initialization in all subsequent calls to the
  68:.\Generated_Source\PSoC5/ADC_SAR_Seq_1_SAR.c **** *  ADC_SAR_Seq_1_SAR_Start() routine.
  69:.\Generated_Source\PSoC5/ADC_SAR_Seq_1_SAR.c **** *  If re-initialization of the component is required the variable should be set
  70:.\Generated_Source\PSoC5/ADC_SAR_Seq_1_SAR.c **** *  to zero before call of ADC_SAR_Seq_1_SAR_Start() routine, or the user may call
ARM GAS  C:\Users\karunmj\AppData\Local\Temp\ccy4LQk2.s 			page 3


  71:.\Generated_Source\PSoC5/ADC_SAR_Seq_1_SAR.c **** *  ADC_SAR_Seq_1_SAR_Init() and ADC_SAR_Seq_1_SAR_Enable() as done in the
  72:.\Generated_Source\PSoC5/ADC_SAR_Seq_1_SAR.c **** *  ADC_SAR_Seq_1_SAR_Start() routine.
  73:.\Generated_Source\PSoC5/ADC_SAR_Seq_1_SAR.c **** *
  74:.\Generated_Source\PSoC5/ADC_SAR_Seq_1_SAR.c **** *******************************************************************************/
  75:.\Generated_Source\PSoC5/ADC_SAR_Seq_1_SAR.c **** void ADC_SAR_Seq_1_SAR_Start(void)
  76:.\Generated_Source\PSoC5/ADC_SAR_Seq_1_SAR.c **** {
  41              		.loc 1 76 0
  42              		.cfi_startproc
  43              		@ args = 0, pretend = 0, frame = 0
  44              		@ frame_needed = 1, uses_anonymous_args = 0
  45 0000 80B5     		push	{r7, lr}
  46              	.LCFI0:
  47              		.cfi_def_cfa_offset 8
  48 0002 00AF     		add	r7, sp, #0
  49              		.cfi_offset 14, -4
  50              		.cfi_offset 7, -8
  51              	.LCFI1:
  52              		.cfi_def_cfa_register 7
  77:.\Generated_Source\PSoC5/ADC_SAR_Seq_1_SAR.c **** 
  78:.\Generated_Source\PSoC5/ADC_SAR_Seq_1_SAR.c ****     /* If not Initialized then initialize all required hardware and software */
  79:.\Generated_Source\PSoC5/ADC_SAR_Seq_1_SAR.c ****     if(ADC_SAR_Seq_1_SAR_initVar == 0u)
  53              		.loc 1 79 0
  54 0004 40F20003 		movw	r3, #:lower16:ADC_SAR_Seq_1_SAR_initVar
  55 0008 C0F20003 		movt	r3, #:upper16:ADC_SAR_Seq_1_SAR_initVar
  56 000c 1B78     		ldrb	r3, [r3, #0]	@ zero_extendqisi2
  57 000e 002B     		cmp	r3, #0
  58 0010 08D1     		bne	.L2
  80:.\Generated_Source\PSoC5/ADC_SAR_Seq_1_SAR.c ****     {
  81:.\Generated_Source\PSoC5/ADC_SAR_Seq_1_SAR.c ****         ADC_SAR_Seq_1_SAR_Init();
  59              		.loc 1 81 0
  60 0012 FFF7FEFF 		bl	ADC_SAR_Seq_1_SAR_Init
  82:.\Generated_Source\PSoC5/ADC_SAR_Seq_1_SAR.c ****         ADC_SAR_Seq_1_SAR_initVar = 1u;
  61              		.loc 1 82 0
  62 0016 40F20003 		movw	r3, #:lower16:ADC_SAR_Seq_1_SAR_initVar
  63 001a C0F20003 		movt	r3, #:upper16:ADC_SAR_Seq_1_SAR_initVar
  64 001e 4FF00102 		mov	r2, #1
  65 0022 1A70     		strb	r2, [r3, #0]
  66              	.L2:
  83:.\Generated_Source\PSoC5/ADC_SAR_Seq_1_SAR.c ****     }
  84:.\Generated_Source\PSoC5/ADC_SAR_Seq_1_SAR.c ****     ADC_SAR_Seq_1_SAR_Enable();
  67              		.loc 1 84 0
  68 0024 FFF7FEFF 		bl	ADC_SAR_Seq_1_SAR_Enable
  85:.\Generated_Source\PSoC5/ADC_SAR_Seq_1_SAR.c **** }
  69              		.loc 1 85 0
  70 0028 80BD     		pop	{r7, pc}
  71              		.cfi_endproc
  72              	.LFE0:
  73              		.size	ADC_SAR_Seq_1_SAR_Start, .-ADC_SAR_Seq_1_SAR_Start
  74 002a 00BF     		.section	.text.ADC_SAR_Seq_1_SAR_Init,"ax",%progbits
  75              		.align	2
  76              		.global	ADC_SAR_Seq_1_SAR_Init
  77              		.thumb
  78              		.thumb_func
  79              		.type	ADC_SAR_Seq_1_SAR_Init, %function
  80              	ADC_SAR_Seq_1_SAR_Init:
  81              	.LFB1:
  86:.\Generated_Source\PSoC5/ADC_SAR_Seq_1_SAR.c **** 
ARM GAS  C:\Users\karunmj\AppData\Local\Temp\ccy4LQk2.s 			page 4


  87:.\Generated_Source\PSoC5/ADC_SAR_Seq_1_SAR.c **** 
  88:.\Generated_Source\PSoC5/ADC_SAR_Seq_1_SAR.c **** /*******************************************************************************
  89:.\Generated_Source\PSoC5/ADC_SAR_Seq_1_SAR.c **** * Function Name: ADC_SAR_Seq_1_SAR_Init
  90:.\Generated_Source\PSoC5/ADC_SAR_Seq_1_SAR.c **** ********************************************************************************
  91:.\Generated_Source\PSoC5/ADC_SAR_Seq_1_SAR.c **** *
  92:.\Generated_Source\PSoC5/ADC_SAR_Seq_1_SAR.c **** * Summary:
  93:.\Generated_Source\PSoC5/ADC_SAR_Seq_1_SAR.c **** *  Initialize component's parameters to the parameters set by user in the
  94:.\Generated_Source\PSoC5/ADC_SAR_Seq_1_SAR.c **** *  customizer of the component placed onto schematic. Usually called in
  95:.\Generated_Source\PSoC5/ADC_SAR_Seq_1_SAR.c **** *  ADC_SAR_Seq_1_SAR_Start().
  96:.\Generated_Source\PSoC5/ADC_SAR_Seq_1_SAR.c **** *
  97:.\Generated_Source\PSoC5/ADC_SAR_Seq_1_SAR.c **** * Parameters:
  98:.\Generated_Source\PSoC5/ADC_SAR_Seq_1_SAR.c **** *  None.
  99:.\Generated_Source\PSoC5/ADC_SAR_Seq_1_SAR.c **** *
 100:.\Generated_Source\PSoC5/ADC_SAR_Seq_1_SAR.c **** * Return:
 101:.\Generated_Source\PSoC5/ADC_SAR_Seq_1_SAR.c **** *  None.
 102:.\Generated_Source\PSoC5/ADC_SAR_Seq_1_SAR.c **** *
 103:.\Generated_Source\PSoC5/ADC_SAR_Seq_1_SAR.c **** * Global variables:
 104:.\Generated_Source\PSoC5/ADC_SAR_Seq_1_SAR.c **** *  The ADC_SAR_Seq_1_SAR_offset variable is initialized to 0.
 105:.\Generated_Source\PSoC5/ADC_SAR_Seq_1_SAR.c **** *
 106:.\Generated_Source\PSoC5/ADC_SAR_Seq_1_SAR.c **** *******************************************************************************/
 107:.\Generated_Source\PSoC5/ADC_SAR_Seq_1_SAR.c **** void ADC_SAR_Seq_1_SAR_Init(void)
 108:.\Generated_Source\PSoC5/ADC_SAR_Seq_1_SAR.c **** {
  82              		.loc 1 108 0
  83              		.cfi_startproc
  84              		@ args = 0, pretend = 0, frame = 0
  85              		@ frame_needed = 1, uses_anonymous_args = 0
  86 0000 80B5     		push	{r7, lr}
  87              	.LCFI2:
  88              		.cfi_def_cfa_offset 8
  89 0002 00AF     		add	r7, sp, #0
  90              		.cfi_offset 14, -4
  91              		.cfi_offset 7, -8
  92              	.LCFI3:
  93              		.cfi_def_cfa_register 7
 109:.\Generated_Source\PSoC5/ADC_SAR_Seq_1_SAR.c **** 
 110:.\Generated_Source\PSoC5/ADC_SAR_Seq_1_SAR.c ****     /* This is only valid if there is an internal clock */
 111:.\Generated_Source\PSoC5/ADC_SAR_Seq_1_SAR.c ****     #if(ADC_SAR_Seq_1_SAR_DEFAULT_INTERNAL_CLK)
 112:.\Generated_Source\PSoC5/ADC_SAR_Seq_1_SAR.c ****         ADC_SAR_Seq_1_SAR_theACLK_SetMode(CYCLK_DUTY);
 113:.\Generated_Source\PSoC5/ADC_SAR_Seq_1_SAR.c ****     #endif /* End ADC_SAR_Seq_1_SAR_DEFAULT_INTERNAL_CLK */
 114:.\Generated_Source\PSoC5/ADC_SAR_Seq_1_SAR.c **** 
 115:.\Generated_Source\PSoC5/ADC_SAR_Seq_1_SAR.c ****     #if(ADC_SAR_Seq_1_SAR_IRQ_REMOVE == 0u)
 116:.\Generated_Source\PSoC5/ADC_SAR_Seq_1_SAR.c ****         /* Start and set interrupt vector */
 117:.\Generated_Source\PSoC5/ADC_SAR_Seq_1_SAR.c ****         CyIntSetPriority(ADC_SAR_Seq_1_SAR_INTC_NUMBER, ADC_SAR_Seq_1_SAR_INTC_PRIOR_NUMBER);
 118:.\Generated_Source\PSoC5/ADC_SAR_Seq_1_SAR.c ****         (void)CyIntSetVector(ADC_SAR_Seq_1_SAR_INTC_NUMBER, &ADC_SAR_Seq_1_SAR_ISR);
 119:.\Generated_Source\PSoC5/ADC_SAR_Seq_1_SAR.c ****     #endif   /* End ADC_SAR_Seq_1_SAR_IRQ_REMOVE */        
 120:.\Generated_Source\PSoC5/ADC_SAR_Seq_1_SAR.c **** 
 121:.\Generated_Source\PSoC5/ADC_SAR_Seq_1_SAR.c ****     /* Enable IRQ mode*/
 122:.\Generated_Source\PSoC5/ADC_SAR_Seq_1_SAR.c ****     ADC_SAR_Seq_1_SAR_SAR_CSR1_REG |= ADC_SAR_Seq_1_SAR_SAR_IRQ_MASK_EN | ADC_SAR_Seq_1_SAR_SAR_IRQ
  94              		.loc 1 122 0
  95 0004 45F60113 		movw	r3, #:lower16:1073764609
  96 0008 C4F20003 		movt	r3, #:upper16:1073764609
  97 000c 45F60112 		movw	r2, #:lower16:1073764609
  98 0010 C4F20002 		movt	r2, #:upper16:1073764609
  99 0014 1278     		ldrb	r2, [r2, #0]
 100 0016 D2B2     		uxtb	r2, r2
 101 0018 42F00602 		orr	r2, r2, #6
 102 001c D2B2     		uxtb	r2, r2
ARM GAS  C:\Users\karunmj\AppData\Local\Temp\ccy4LQk2.s 			page 5


 103 001e 1A70     		strb	r2, [r3, #0]
 123:.\Generated_Source\PSoC5/ADC_SAR_Seq_1_SAR.c **** 
 124:.\Generated_Source\PSoC5/ADC_SAR_Seq_1_SAR.c ****     /*Set SAR ADC resolution ADC */
 125:.\Generated_Source\PSoC5/ADC_SAR_Seq_1_SAR.c ****     ADC_SAR_Seq_1_SAR_SetResolution(ADC_SAR_Seq_1_SAR_DEFAULT_RESOLUTION);
 104              		.loc 1 125 0
 105 0020 4FF00C00 		mov	r0, #12
 106 0024 FFF7FEFF 		bl	ADC_SAR_Seq_1_SAR_SetResolution
 126:.\Generated_Source\PSoC5/ADC_SAR_Seq_1_SAR.c ****     ADC_SAR_Seq_1_SAR_offset = 0;
 107              		.loc 1 126 0
 108 0028 40F20003 		movw	r3, #:lower16:ADC_SAR_Seq_1_SAR_offset
 109 002c C0F20003 		movt	r3, #:upper16:ADC_SAR_Seq_1_SAR_offset
 110 0030 4FF00002 		mov	r2, #0
 111 0034 1A80     		strh	r2, [r3, #0]	@ movhi
 127:.\Generated_Source\PSoC5/ADC_SAR_Seq_1_SAR.c **** }
 112              		.loc 1 127 0
 113 0036 80BD     		pop	{r7, pc}
 114              		.cfi_endproc
 115              	.LFE1:
 116              		.size	ADC_SAR_Seq_1_SAR_Init, .-ADC_SAR_Seq_1_SAR_Init
 117              		.section	.text.ADC_SAR_Seq_1_SAR_Enable,"ax",%progbits
 118              		.align	2
 119              		.global	ADC_SAR_Seq_1_SAR_Enable
 120              		.thumb
 121              		.thumb_func
 122              		.type	ADC_SAR_Seq_1_SAR_Enable, %function
 123              	ADC_SAR_Seq_1_SAR_Enable:
 124              	.LFB2:
 128:.\Generated_Source\PSoC5/ADC_SAR_Seq_1_SAR.c **** 
 129:.\Generated_Source\PSoC5/ADC_SAR_Seq_1_SAR.c **** 
 130:.\Generated_Source\PSoC5/ADC_SAR_Seq_1_SAR.c **** /*******************************************************************************
 131:.\Generated_Source\PSoC5/ADC_SAR_Seq_1_SAR.c **** * Function Name: ADC_SAR_Seq_1_SAR_Enable
 132:.\Generated_Source\PSoC5/ADC_SAR_Seq_1_SAR.c **** ********************************************************************************
 133:.\Generated_Source\PSoC5/ADC_SAR_Seq_1_SAR.c **** *
 134:.\Generated_Source\PSoC5/ADC_SAR_Seq_1_SAR.c **** * Summary:
 135:.\Generated_Source\PSoC5/ADC_SAR_Seq_1_SAR.c **** *  Enables the reference, clock and power for SAR ADC.
 136:.\Generated_Source\PSoC5/ADC_SAR_Seq_1_SAR.c **** *
 137:.\Generated_Source\PSoC5/ADC_SAR_Seq_1_SAR.c **** * Parameters:
 138:.\Generated_Source\PSoC5/ADC_SAR_Seq_1_SAR.c **** *  None.
 139:.\Generated_Source\PSoC5/ADC_SAR_Seq_1_SAR.c **** *
 140:.\Generated_Source\PSoC5/ADC_SAR_Seq_1_SAR.c **** * Return:
 141:.\Generated_Source\PSoC5/ADC_SAR_Seq_1_SAR.c **** *  None.
 142:.\Generated_Source\PSoC5/ADC_SAR_Seq_1_SAR.c **** *
 143:.\Generated_Source\PSoC5/ADC_SAR_Seq_1_SAR.c **** *******************************************************************************/
 144:.\Generated_Source\PSoC5/ADC_SAR_Seq_1_SAR.c **** void ADC_SAR_Seq_1_SAR_Enable(void)
 145:.\Generated_Source\PSoC5/ADC_SAR_Seq_1_SAR.c **** {
 125              		.loc 1 145 0
 126              		.cfi_startproc
 127              		@ args = 0, pretend = 0, frame = 8
 128              		@ frame_needed = 1, uses_anonymous_args = 0
 129 0000 80B5     		push	{r7, lr}
 130              	.LCFI4:
 131              		.cfi_def_cfa_offset 8
 132 0002 82B0     		sub	sp, sp, #8
 133              	.LCFI5:
 134              		.cfi_def_cfa_offset 16
 135 0004 00AF     		add	r7, sp, #0
 136              		.cfi_offset 14, -4
ARM GAS  C:\Users\karunmj\AppData\Local\Temp\ccy4LQk2.s 			page 6


 137              		.cfi_offset 7, -8
 138              	.LCFI6:
 139              		.cfi_def_cfa_register 7
 146:.\Generated_Source\PSoC5/ADC_SAR_Seq_1_SAR.c ****     uint8 tmpReg;
 147:.\Generated_Source\PSoC5/ADC_SAR_Seq_1_SAR.c ****     uint8 enableInterrupts;
 148:.\Generated_Source\PSoC5/ADC_SAR_Seq_1_SAR.c ****     enableInterrupts = CyEnterCriticalSection();
 140              		.loc 1 148 0
 141 0006 FFF7FEFF 		bl	CyEnterCriticalSection
 142 000a 0346     		mov	r3, r0
 143 000c FB71     		strb	r3, [r7, #7]
 149:.\Generated_Source\PSoC5/ADC_SAR_Seq_1_SAR.c **** 
 150:.\Generated_Source\PSoC5/ADC_SAR_Seq_1_SAR.c ****     /* Enable the SAR ADC block in Active Power Mode */
 151:.\Generated_Source\PSoC5/ADC_SAR_Seq_1_SAR.c ****     ADC_SAR_Seq_1_SAR_PWRMGR_SAR_REG |= ADC_SAR_Seq_1_SAR_ACT_PWR_SAR_EN;
 144              		.loc 1 151 0
 145 000e 44F2AB33 		movw	r3, #:lower16:1073759147
 146 0012 C4F20003 		movt	r3, #:upper16:1073759147
 147 0016 44F2AB32 		movw	r2, #:lower16:1073759147
 148 001a C4F20002 		movt	r2, #:upper16:1073759147
 149 001e 1278     		ldrb	r2, [r2, #0]
 150 0020 D2B2     		uxtb	r2, r2
 151 0022 42F00102 		orr	r2, r2, #1
 152 0026 D2B2     		uxtb	r2, r2
 153 0028 1A70     		strb	r2, [r3, #0]
 152:.\Generated_Source\PSoC5/ADC_SAR_Seq_1_SAR.c **** 
 153:.\Generated_Source\PSoC5/ADC_SAR_Seq_1_SAR.c ****      /* Enable the SAR ADC in Standby Power Mode*/
 154:.\Generated_Source\PSoC5/ADC_SAR_Seq_1_SAR.c ****     ADC_SAR_Seq_1_SAR_STBY_PWRMGR_SAR_REG |= ADC_SAR_Seq_1_SAR_STBY_PWR_SAR_EN;
 154              		.loc 1 154 0
 155 002a 44F2BB33 		movw	r3, #:lower16:1073759163
 156 002e C4F20003 		movt	r3, #:upper16:1073759163
 157 0032 44F2BB32 		movw	r2, #:lower16:1073759163
 158 0036 C4F20002 		movt	r2, #:upper16:1073759163
 159 003a 1278     		ldrb	r2, [r2, #0]
 160 003c D2B2     		uxtb	r2, r2
 161 003e 42F00102 		orr	r2, r2, #1
 162 0042 D2B2     		uxtb	r2, r2
 163 0044 1A70     		strb	r2, [r3, #0]
 155:.\Generated_Source\PSoC5/ADC_SAR_Seq_1_SAR.c **** 
 156:.\Generated_Source\PSoC5/ADC_SAR_Seq_1_SAR.c ****     /* This is only valid if there is an internal clock */
 157:.\Generated_Source\PSoC5/ADC_SAR_Seq_1_SAR.c ****     #if(ADC_SAR_Seq_1_SAR_DEFAULT_INTERNAL_CLK)
 158:.\Generated_Source\PSoC5/ADC_SAR_Seq_1_SAR.c ****         ADC_SAR_Seq_1_SAR_PWRMGR_CLK_REG |= ADC_SAR_Seq_1_SAR_ACT_PWR_CLK_EN;
 159:.\Generated_Source\PSoC5/ADC_SAR_Seq_1_SAR.c ****         ADC_SAR_Seq_1_SAR_STBY_PWRMGR_CLK_REG |= ADC_SAR_Seq_1_SAR_STBY_PWR_CLK_EN;
 160:.\Generated_Source\PSoC5/ADC_SAR_Seq_1_SAR.c ****     #endif /* End ADC_SAR_Seq_1_SAR_DEFAULT_INTERNAL_CLK */
 161:.\Generated_Source\PSoC5/ADC_SAR_Seq_1_SAR.c **** 
 162:.\Generated_Source\PSoC5/ADC_SAR_Seq_1_SAR.c ****     /* Enable VCM buffer and Enable Int Ref Amp */
 163:.\Generated_Source\PSoC5/ADC_SAR_Seq_1_SAR.c ****     tmpReg = ADC_SAR_Seq_1_SAR_SAR_CSR3_REG;
 164              		.loc 1 163 0
 165 0046 45F60313 		movw	r3, #:lower16:1073764611
 166 004a C4F20003 		movt	r3, #:upper16:1073764611
 167 004e 1B78     		ldrb	r3, [r3, #0]
 168 0050 BB71     		strb	r3, [r7, #6]
 164:.\Generated_Source\PSoC5/ADC_SAR_Seq_1_SAR.c ****     #if(CY_PSOC5A) /* Make sure that full power is applied for VREF buffer */
 165:.\Generated_Source\PSoC5/ADC_SAR_Seq_1_SAR.c ****         tmpReg &= (uint8)~ADC_SAR_Seq_1_SAR_SAR_PWR_CTRL_VREF_DIV_BY4;
 166:.\Generated_Source\PSoC5/ADC_SAR_Seq_1_SAR.c ****     #endif /* CY_PSOC5A */
 167:.\Generated_Source\PSoC5/ADC_SAR_Seq_1_SAR.c ****     tmpReg |= ADC_SAR_Seq_1_SAR_SAR_EN_BUF_VCM_EN;
 169              		.loc 1 167 0
 170 0052 BB79     		ldrb	r3, [r7, #6]
 171 0054 43F00203 		orr	r3, r3, #2
ARM GAS  C:\Users\karunmj\AppData\Local\Temp\ccy4LQk2.s 			page 7


 172 0058 BB71     		strb	r3, [r7, #6]
 168:.\Generated_Source\PSoC5/ADC_SAR_Seq_1_SAR.c ****     /* PD_BUF_VREF is OFF in External reference or Vdda reference mode */
 169:.\Generated_Source\PSoC5/ADC_SAR_Seq_1_SAR.c ****     #if((ADC_SAR_Seq_1_SAR_DEFAULT_REFERENCE == ADC_SAR_Seq_1_SAR__EXT_REF) || \
 170:.\Generated_Source\PSoC5/ADC_SAR_Seq_1_SAR.c ****         (ADC_SAR_Seq_1_SAR_DEFAULT_RANGE == ADC_SAR_Seq_1_SAR__VNEG_VDDA_DIFF))
 171:.\Generated_Source\PSoC5/ADC_SAR_Seq_1_SAR.c ****         tmpReg &= (uint8)~ADC_SAR_Seq_1_SAR_SAR_EN_BUF_VREF_EN;
 172:.\Generated_Source\PSoC5/ADC_SAR_Seq_1_SAR.c ****     #else /* In INTREF or INTREF Bypassed this buffer is ON */
 173:.\Generated_Source\PSoC5/ADC_SAR_Seq_1_SAR.c ****         tmpReg |= ADC_SAR_Seq_1_SAR_SAR_EN_BUF_VREF_EN;
 173              		.loc 1 173 0
 174 005a BB79     		ldrb	r3, [r7, #6]
 175 005c 43F00103 		orr	r3, r3, #1
 176 0060 BB71     		strb	r3, [r7, #6]
 174:.\Generated_Source\PSoC5/ADC_SAR_Seq_1_SAR.c ****     #endif /* ADC_SAR_Seq_1_SAR_DEFAULT_REFERENCE == ADC_SAR_Seq_1_SAR__EXT_REF */
 175:.\Generated_Source\PSoC5/ADC_SAR_Seq_1_SAR.c ****     ADC_SAR_Seq_1_SAR_SAR_CSR3_REG = tmpReg;
 177              		.loc 1 175 0
 178 0062 45F60313 		movw	r3, #:lower16:1073764611
 179 0066 C4F20003 		movt	r3, #:upper16:1073764611
 180 006a BA79     		ldrb	r2, [r7, #6]
 181 006c 1A70     		strb	r2, [r3, #0]
 176:.\Generated_Source\PSoC5/ADC_SAR_Seq_1_SAR.c **** 
 177:.\Generated_Source\PSoC5/ADC_SAR_Seq_1_SAR.c ****     /* Set reference for ADC */
 178:.\Generated_Source\PSoC5/ADC_SAR_Seq_1_SAR.c ****     #if(ADC_SAR_Seq_1_SAR_DEFAULT_RANGE == ADC_SAR_Seq_1_SAR__VNEG_VDDA_DIFF)
 179:.\Generated_Source\PSoC5/ADC_SAR_Seq_1_SAR.c ****         #if(ADC_SAR_Seq_1_SAR_DEFAULT_REFERENCE == ADC_SAR_Seq_1_SAR__EXT_REF)
 180:.\Generated_Source\PSoC5/ADC_SAR_Seq_1_SAR.c ****             ADC_SAR_Seq_1_SAR_SAR_CSR6_REG = ADC_SAR_Seq_1_SAR_INT_BYPASS_EXT_VREF; /* S2 */
 181:.\Generated_Source\PSoC5/ADC_SAR_Seq_1_SAR.c ****         #else /* Internal Vdda reference or obsolete bypass mode */
 182:.\Generated_Source\PSoC5/ADC_SAR_Seq_1_SAR.c ****             ADC_SAR_Seq_1_SAR_SAR_CSR6_REG = ADC_SAR_Seq_1_SAR_VDDA_VREF;           /* S7 */
 183:.\Generated_Source\PSoC5/ADC_SAR_Seq_1_SAR.c ****         #endif /* ADC_SAR_Seq_1_SAR_DEFAULT_REFERENCE == ADC_SAR_Seq_1_SAR__EXT_REF */
 184:.\Generated_Source\PSoC5/ADC_SAR_Seq_1_SAR.c ****     #else  /* Reference goes through internal buffer */
 185:.\Generated_Source\PSoC5/ADC_SAR_Seq_1_SAR.c ****         #if(ADC_SAR_Seq_1_SAR_DEFAULT_REFERENCE == ADC_SAR_Seq_1_SAR__INT_REF_NOT_BYPASSED)
 186:.\Generated_Source\PSoC5/ADC_SAR_Seq_1_SAR.c ****             ADC_SAR_Seq_1_SAR_SAR_CSR6_REG = ADC_SAR_Seq_1_SAR_INT_VREF;            /* S3 + S4 */
 182              		.loc 1 186 0
 183 006e 45F60613 		movw	r3, #:lower16:1073764614
 184 0072 C4F20003 		movt	r3, #:upper16:1073764614
 185 0076 4FF01802 		mov	r2, #24
 186 007a 1A70     		strb	r2, [r3, #0]
 187:.\Generated_Source\PSoC5/ADC_SAR_Seq_1_SAR.c ****         #else /* INTREF Bypassed of External */
 188:.\Generated_Source\PSoC5/ADC_SAR_Seq_1_SAR.c ****             ADC_SAR_Seq_1_SAR_SAR_CSR6_REG = ADC_SAR_Seq_1_SAR_INT_BYPASS_EXT_VREF; /* S2 */
 189:.\Generated_Source\PSoC5/ADC_SAR_Seq_1_SAR.c ****         #endif /* ADC_SAR_Seq_1_SAR_DEFAULT_REFERENCE == ADC_SAR_Seq_1_SAR__INT_REF_NOT_BYPASSED */
 190:.\Generated_Source\PSoC5/ADC_SAR_Seq_1_SAR.c ****     #endif /* VNEG_VDDA_DIFF */
 191:.\Generated_Source\PSoC5/ADC_SAR_Seq_1_SAR.c **** 
 192:.\Generated_Source\PSoC5/ADC_SAR_Seq_1_SAR.c ****     /* Low non-overlap delay for sampling clock signals (for 1MSPS) */
 193:.\Generated_Source\PSoC5/ADC_SAR_Seq_1_SAR.c ****     #if(ADC_SAR_Seq_1_SAR_HIGH_POWER_PULSE == 0u) /* MinPulseWidth <= 50 ns */
 194:.\Generated_Source\PSoC5/ADC_SAR_Seq_1_SAR.c ****         ADC_SAR_Seq_1_SAR_SAR_CSR5_REG &= (uint8)~ADC_SAR_Seq_1_SAR_SAR_DLY_INC;
 195:.\Generated_Source\PSoC5/ADC_SAR_Seq_1_SAR.c ****     #else /* Set High non-overlap delay for sampling clock signals (for <500KSPS)*/
 196:.\Generated_Source\PSoC5/ADC_SAR_Seq_1_SAR.c ****         ADC_SAR_Seq_1_SAR_SAR_CSR5_REG |= ADC_SAR_Seq_1_SAR_SAR_DLY_INC;
 187              		.loc 1 196 0
 188 007c 45F60513 		movw	r3, #:lower16:1073764613
 189 0080 C4F20003 		movt	r3, #:upper16:1073764613
 190 0084 45F60512 		movw	r2, #:lower16:1073764613
 191 0088 C4F20002 		movt	r2, #:upper16:1073764613
 192 008c 1278     		ldrb	r2, [r2, #0]
 193 008e D2B2     		uxtb	r2, r2
 194 0090 42F04002 		orr	r2, r2, #64
 195 0094 D2B2     		uxtb	r2, r2
 196 0096 1A70     		strb	r2, [r3, #0]
 197:.\Generated_Source\PSoC5/ADC_SAR_Seq_1_SAR.c ****     #endif /* ADC_SAR_Seq_1_SAR_CLOCK_FREQUENCY > (ADC_SAR_Seq_1_SAR_MAX_FREQUENCY / 2) */
 198:.\Generated_Source\PSoC5/ADC_SAR_Seq_1_SAR.c **** 
 199:.\Generated_Source\PSoC5/ADC_SAR_Seq_1_SAR.c ****      /* Delay control for comparator latch enable, low delay, (Default for 1MSPS) */
ARM GAS  C:\Users\karunmj\AppData\Local\Temp\ccy4LQk2.s 			page 8


 200:.\Generated_Source\PSoC5/ADC_SAR_Seq_1_SAR.c ****     #if(ADC_SAR_Seq_1_SAR_HIGH_POWER_PULSE == 0u) /* MinPulseWidth <= 50 ns */
 201:.\Generated_Source\PSoC5/ADC_SAR_Seq_1_SAR.c ****         ADC_SAR_Seq_1_SAR_SAR_CSR5_REG |= ADC_SAR_Seq_1_SAR_SAR_DCEN;
 202:.\Generated_Source\PSoC5/ADC_SAR_Seq_1_SAR.c ****     #else /* Delay control for comparator latch enable, high delay (for <500ksps)*/
 203:.\Generated_Source\PSoC5/ADC_SAR_Seq_1_SAR.c ****         ADC_SAR_Seq_1_SAR_SAR_CSR5_REG &= (uint8)~ADC_SAR_Seq_1_SAR_SAR_DCEN;
 197              		.loc 1 203 0
 198 0098 45F60513 		movw	r3, #:lower16:1073764613
 199 009c C4F20003 		movt	r3, #:upper16:1073764613
 200 00a0 45F60512 		movw	r2, #:lower16:1073764613
 201 00a4 C4F20002 		movt	r2, #:upper16:1073764613
 202 00a8 1278     		ldrb	r2, [r2, #0]
 203 00aa D2B2     		uxtb	r2, r2
 204 00ac 02F0DF02 		and	r2, r2, #223
 205 00b0 1A70     		strb	r2, [r3, #0]
 204:.\Generated_Source\PSoC5/ADC_SAR_Seq_1_SAR.c ****     #endif /* ADC_SAR_Seq_1_SAR_CLOCK_FREQUENCY > (ADC_SAR_Seq_1_SAR_MAX_FREQUENCY / 2) */
 205:.\Generated_Source\PSoC5/ADC_SAR_Seq_1_SAR.c **** 
 206:.\Generated_Source\PSoC5/ADC_SAR_Seq_1_SAR.c ****     /* Set default power and other configurations for control register 0 in multiple lines */
 207:.\Generated_Source\PSoC5/ADC_SAR_Seq_1_SAR.c ****     ADC_SAR_Seq_1_SAR_SAR_CSR0_REG = (uint8)((uint8)ADC_SAR_Seq_1_SAR_DEFAULT_POWER << ADC_SAR_Seq_
 206              		.loc 1 207 0
 207 00b2 45F60013 		movw	r3, #:lower16:1073764608
 208 00b6 C4F20003 		movt	r3, #:upper16:1073764608
 209 00ba 6FF03702 		mvn	r2, #55
 210 00be 1A70     		strb	r2, [r3, #0]
 208:.\Generated_Source\PSoC5/ADC_SAR_Seq_1_SAR.c ****     /* SAR_HIZ_CLEAR:   Should not be used for LP */
 209:.\Generated_Source\PSoC5/ADC_SAR_Seq_1_SAR.c ****     #if ((CY_PSOC5LP) || (ADC_SAR_Seq_1_SAR_DEFAULT_REFERENCE != ADC_SAR_Seq_1_SAR__EXT_REF))
 210:.\Generated_Source\PSoC5/ADC_SAR_Seq_1_SAR.c ****         | ADC_SAR_Seq_1_SAR_SAR_HIZ_CLEAR
 211:.\Generated_Source\PSoC5/ADC_SAR_Seq_1_SAR.c ****     #endif /* SAR_HIZ_CLEAR */
 212:.\Generated_Source\PSoC5/ADC_SAR_Seq_1_SAR.c ****     /*Set Convertion mode */
 213:.\Generated_Source\PSoC5/ADC_SAR_Seq_1_SAR.c ****     #if(ADC_SAR_Seq_1_SAR_DEFAULT_CONV_MODE != ADC_SAR_Seq_1_SAR__FREE_RUNNING)      /* If triggere
 214:.\Generated_Source\PSoC5/ADC_SAR_Seq_1_SAR.c ****         | ADC_SAR_Seq_1_SAR_SAR_MX_SOF_UDB           /* source: UDB */
 215:.\Generated_Source\PSoC5/ADC_SAR_Seq_1_SAR.c ****         | ADC_SAR_Seq_1_SAR_SAR_SOF_MODE_EDGE        /* Set edge-sensitive sof source */
 216:.\Generated_Source\PSoC5/ADC_SAR_Seq_1_SAR.c ****     #endif /* ADC_SAR_Seq_1_SAR_DEFAULT_CONV_MODE */
 217:.\Generated_Source\PSoC5/ADC_SAR_Seq_1_SAR.c ****     ; /* end of multiple line initialization */
 218:.\Generated_Source\PSoC5/ADC_SAR_Seq_1_SAR.c **** 
 219:.\Generated_Source\PSoC5/ADC_SAR_Seq_1_SAR.c ****     /* Enable clock for SAR ADC*/
 220:.\Generated_Source\PSoC5/ADC_SAR_Seq_1_SAR.c ****     ADC_SAR_Seq_1_SAR_SAR_CLK_REG |= ADC_SAR_Seq_1_SAR_SAR_MX_CLK_EN;
 211              		.loc 1 220 0
 212 00c0 45F62733 		movw	r3, #:lower16:1073765159
 213 00c4 C4F20003 		movt	r3, #:upper16:1073765159
 214 00c8 45F62732 		movw	r2, #:lower16:1073765159
 215 00cc C4F20002 		movt	r2, #:upper16:1073765159
 216 00d0 1278     		ldrb	r2, [r2, #0]
 217 00d2 D2B2     		uxtb	r2, r2
 218 00d4 42F00802 		orr	r2, r2, #8
 219 00d8 D2B2     		uxtb	r2, r2
 220 00da 1A70     		strb	r2, [r3, #0]
 221:.\Generated_Source\PSoC5/ADC_SAR_Seq_1_SAR.c **** 
 222:.\Generated_Source\PSoC5/ADC_SAR_Seq_1_SAR.c ****     #if(CY_PSOC5A)
 223:.\Generated_Source\PSoC5/ADC_SAR_Seq_1_SAR.c ****         /* Software Reset */
 224:.\Generated_Source\PSoC5/ADC_SAR_Seq_1_SAR.c ****         ADC_SAR_Seq_1_SAR_SAR_CSR0_REG |= ADC_SAR_Seq_1_SAR_SAR_RESET_SOFT_ACTIVE;
 225:.\Generated_Source\PSoC5/ADC_SAR_Seq_1_SAR.c ****         CyDelayUs(2u); /* 2us delay is required for the lowest 1Mhz clock connected to SAR */
 226:.\Generated_Source\PSoC5/ADC_SAR_Seq_1_SAR.c ****         ADC_SAR_Seq_1_SAR_SAR_CSR0_REG &= (uint8)~ADC_SAR_Seq_1_SAR_SAR_RESET_SOFT_ACTIVE;
 227:.\Generated_Source\PSoC5/ADC_SAR_Seq_1_SAR.c ****     #else
 228:.\Generated_Source\PSoC5/ADC_SAR_Seq_1_SAR.c ****         CyDelayUs(10u); /* The block is ready to use 10 us after the enable signal is set high. */
 221              		.loc 1 228 0
 222 00dc 4FF00A00 		mov	r0, #10
 223 00e0 FFF7FEFF 		bl	CyDelayUs
 229:.\Generated_Source\PSoC5/ADC_SAR_Seq_1_SAR.c ****     #endif /* End CY_PSOC5A */
ARM GAS  C:\Users\karunmj\AppData\Local\Temp\ccy4LQk2.s 			page 9


 230:.\Generated_Source\PSoC5/ADC_SAR_Seq_1_SAR.c **** 
 231:.\Generated_Source\PSoC5/ADC_SAR_Seq_1_SAR.c ****     #if(ADC_SAR_Seq_1_SAR_IRQ_REMOVE == 0u)
 232:.\Generated_Source\PSoC5/ADC_SAR_Seq_1_SAR.c ****         /* Clear a pending interrupt */
 233:.\Generated_Source\PSoC5/ADC_SAR_Seq_1_SAR.c ****         CyIntClearPending(ADC_SAR_Seq_1_SAR_INTC_NUMBER);
 234:.\Generated_Source\PSoC5/ADC_SAR_Seq_1_SAR.c ****     #endif   /* End ADC_SAR_Seq_1_SAR_IRQ_REMOVE */        
 235:.\Generated_Source\PSoC5/ADC_SAR_Seq_1_SAR.c **** 
 236:.\Generated_Source\PSoC5/ADC_SAR_Seq_1_SAR.c ****     CyExitCriticalSection(enableInterrupts);
 224              		.loc 1 236 0
 225 00e4 FB79     		ldrb	r3, [r7, #7]	@ zero_extendqisi2
 226 00e6 1846     		mov	r0, r3
 227 00e8 FFF7FEFF 		bl	CyExitCriticalSection
 237:.\Generated_Source\PSoC5/ADC_SAR_Seq_1_SAR.c **** }
 228              		.loc 1 237 0
 229 00ec 07F10807 		add	r7, r7, #8
 230 00f0 BD46     		mov	sp, r7
 231 00f2 80BD     		pop	{r7, pc}
 232              		.cfi_endproc
 233              	.LFE2:
 234              		.size	ADC_SAR_Seq_1_SAR_Enable, .-ADC_SAR_Seq_1_SAR_Enable
 235              		.section	.text.ADC_SAR_Seq_1_SAR_Stop,"ax",%progbits
 236              		.align	2
 237              		.global	ADC_SAR_Seq_1_SAR_Stop
 238              		.thumb
 239              		.thumb_func
 240              		.type	ADC_SAR_Seq_1_SAR_Stop, %function
 241              	ADC_SAR_Seq_1_SAR_Stop:
 242              	.LFB3:
 238:.\Generated_Source\PSoC5/ADC_SAR_Seq_1_SAR.c **** 
 239:.\Generated_Source\PSoC5/ADC_SAR_Seq_1_SAR.c **** 
 240:.\Generated_Source\PSoC5/ADC_SAR_Seq_1_SAR.c **** /*******************************************************************************
 241:.\Generated_Source\PSoC5/ADC_SAR_Seq_1_SAR.c **** * Function Name: ADC_SAR_Seq_1_SAR_Stop
 242:.\Generated_Source\PSoC5/ADC_SAR_Seq_1_SAR.c **** ********************************************************************************
 243:.\Generated_Source\PSoC5/ADC_SAR_Seq_1_SAR.c **** *
 244:.\Generated_Source\PSoC5/ADC_SAR_Seq_1_SAR.c **** * Summary:
 245:.\Generated_Source\PSoC5/ADC_SAR_Seq_1_SAR.c **** *  Stops convertion and reduce the power to the minimum.
 246:.\Generated_Source\PSoC5/ADC_SAR_Seq_1_SAR.c **** *
 247:.\Generated_Source\PSoC5/ADC_SAR_Seq_1_SAR.c **** * Parameters:
 248:.\Generated_Source\PSoC5/ADC_SAR_Seq_1_SAR.c **** *  None.
 249:.\Generated_Source\PSoC5/ADC_SAR_Seq_1_SAR.c **** *
 250:.\Generated_Source\PSoC5/ADC_SAR_Seq_1_SAR.c **** * Return:
 251:.\Generated_Source\PSoC5/ADC_SAR_Seq_1_SAR.c **** *  None.
 252:.\Generated_Source\PSoC5/ADC_SAR_Seq_1_SAR.c **** *
 253:.\Generated_Source\PSoC5/ADC_SAR_Seq_1_SAR.c **** *******************************************************************************/
 254:.\Generated_Source\PSoC5/ADC_SAR_Seq_1_SAR.c **** void ADC_SAR_Seq_1_SAR_Stop(void)
 255:.\Generated_Source\PSoC5/ADC_SAR_Seq_1_SAR.c **** {
 243              		.loc 1 255 0
 244              		.cfi_startproc
 245              		@ args = 0, pretend = 0, frame = 8
 246              		@ frame_needed = 1, uses_anonymous_args = 0
 247 0000 80B5     		push	{r7, lr}
 248              	.LCFI7:
 249              		.cfi_def_cfa_offset 8
 250 0002 82B0     		sub	sp, sp, #8
 251              	.LCFI8:
 252              		.cfi_def_cfa_offset 16
 253 0004 00AF     		add	r7, sp, #0
 254              		.cfi_offset 14, -4
ARM GAS  C:\Users\karunmj\AppData\Local\Temp\ccy4LQk2.s 			page 10


 255              		.cfi_offset 7, -8
 256              	.LCFI9:
 257              		.cfi_def_cfa_register 7
 256:.\Generated_Source\PSoC5/ADC_SAR_Seq_1_SAR.c ****     uint8 enableInterrupts;
 257:.\Generated_Source\PSoC5/ADC_SAR_Seq_1_SAR.c ****     enableInterrupts = CyEnterCriticalSection();
 258              		.loc 1 257 0
 259 0006 FFF7FEFF 		bl	CyEnterCriticalSection
 260 000a 0346     		mov	r3, r0
 261 000c FB71     		strb	r3, [r7, #7]
 258:.\Generated_Source\PSoC5/ADC_SAR_Seq_1_SAR.c **** 
 259:.\Generated_Source\PSoC5/ADC_SAR_Seq_1_SAR.c ****     /* Stop all conversions */
 260:.\Generated_Source\PSoC5/ADC_SAR_Seq_1_SAR.c ****     ADC_SAR_Seq_1_SAR_SAR_CSR0_REG &= (uint8)~ADC_SAR_Seq_1_SAR_SAR_SOF_START_CONV;
 262              		.loc 1 260 0
 263 000e 45F60013 		movw	r3, #:lower16:1073764608
 264 0012 C4F20003 		movt	r3, #:upper16:1073764608
 265 0016 45F60012 		movw	r2, #:lower16:1073764608
 266 001a C4F20002 		movt	r2, #:upper16:1073764608
 267 001e 1278     		ldrb	r2, [r2, #0]
 268 0020 D2B2     		uxtb	r2, r2
 269 0022 02F0FE02 		and	r2, r2, #254
 270 0026 1A70     		strb	r2, [r3, #0]
 261:.\Generated_Source\PSoC5/ADC_SAR_Seq_1_SAR.c **** 
 262:.\Generated_Source\PSoC5/ADC_SAR_Seq_1_SAR.c ****     #if(CY_PSOC5A)
 263:.\Generated_Source\PSoC5/ADC_SAR_Seq_1_SAR.c ****         /* Leave the SAR block powered and reduce the power to the minimum */
 264:.\Generated_Source\PSoC5/ADC_SAR_Seq_1_SAR.c ****         ADC_SAR_Seq_1_SAR_SAR_CSR0_REG |= ADC_SAR_Seq_1_SAR_ICONT_LV_3;
 265:.\Generated_Source\PSoC5/ADC_SAR_Seq_1_SAR.c ****          /* Disconnect Bypass Cap */
 266:.\Generated_Source\PSoC5/ADC_SAR_Seq_1_SAR.c ****         ADC_SAR_Seq_1_SAR_SAR_CSR6_REG &= (uint8)~ADC_SAR_Seq_1_SAR_INT_BYPASS_EXT_VREF;
 267:.\Generated_Source\PSoC5/ADC_SAR_Seq_1_SAR.c ****         /* Disable reference buffer and reduce the reference power to the minimum */
 268:.\Generated_Source\PSoC5/ADC_SAR_Seq_1_SAR.c ****         ADC_SAR_Seq_1_SAR_SAR_CSR3_REG &= (uint8)~ADC_SAR_Seq_1_SAR_SAR_EN_BUF_VREF_EN; /*VCM buffe
 269:.\Generated_Source\PSoC5/ADC_SAR_Seq_1_SAR.c ****         ADC_SAR_Seq_1_SAR_SAR_CSR3_REG |= ADC_SAR_Seq_1_SAR_SAR_PWR_CTRL_VREF_DIV_BY4;
 270:.\Generated_Source\PSoC5/ADC_SAR_Seq_1_SAR.c ****     #else
 271:.\Generated_Source\PSoC5/ADC_SAR_Seq_1_SAR.c ****         /* Disable the SAR ADC block in Active Power Mode */
 272:.\Generated_Source\PSoC5/ADC_SAR_Seq_1_SAR.c ****         ADC_SAR_Seq_1_SAR_PWRMGR_SAR_REG &= (uint8)~ADC_SAR_Seq_1_SAR_ACT_PWR_SAR_EN;
 271              		.loc 1 272 0
 272 0028 44F2AB33 		movw	r3, #:lower16:1073759147
 273 002c C4F20003 		movt	r3, #:upper16:1073759147
 274 0030 44F2AB32 		movw	r2, #:lower16:1073759147
 275 0034 C4F20002 		movt	r2, #:upper16:1073759147
 276 0038 1278     		ldrb	r2, [r2, #0]
 277 003a D2B2     		uxtb	r2, r2
 278 003c 02F0FE02 		and	r2, r2, #254
 279 0040 1A70     		strb	r2, [r3, #0]
 273:.\Generated_Source\PSoC5/ADC_SAR_Seq_1_SAR.c ****         /* Disable the SAR ADC in Standby Power Mode */
 274:.\Generated_Source\PSoC5/ADC_SAR_Seq_1_SAR.c ****         ADC_SAR_Seq_1_SAR_STBY_PWRMGR_SAR_REG &= (uint8)~ADC_SAR_Seq_1_SAR_STBY_PWR_SAR_EN;
 280              		.loc 1 274 0
 281 0042 44F2BB33 		movw	r3, #:lower16:1073759163
 282 0046 C4F20003 		movt	r3, #:upper16:1073759163
 283 004a 44F2BB32 		movw	r2, #:lower16:1073759163
 284 004e C4F20002 		movt	r2, #:upper16:1073759163
 285 0052 1278     		ldrb	r2, [r2, #0]
 286 0054 D2B2     		uxtb	r2, r2
 287 0056 02F0FE02 		and	r2, r2, #254
 288 005a 1A70     		strb	r2, [r3, #0]
 275:.\Generated_Source\PSoC5/ADC_SAR_Seq_1_SAR.c ****     #endif /* End CY_PSOC5A */
 276:.\Generated_Source\PSoC5/ADC_SAR_Seq_1_SAR.c **** 
 277:.\Generated_Source\PSoC5/ADC_SAR_Seq_1_SAR.c ****     /* This is only valid if there is an internal clock */
 278:.\Generated_Source\PSoC5/ADC_SAR_Seq_1_SAR.c ****     #if(ADC_SAR_Seq_1_SAR_DEFAULT_INTERNAL_CLK)
ARM GAS  C:\Users\karunmj\AppData\Local\Temp\ccy4LQk2.s 			page 11


 279:.\Generated_Source\PSoC5/ADC_SAR_Seq_1_SAR.c ****         ADC_SAR_Seq_1_SAR_PWRMGR_CLK_REG &= (uint8)~ADC_SAR_Seq_1_SAR_ACT_PWR_CLK_EN;
 280:.\Generated_Source\PSoC5/ADC_SAR_Seq_1_SAR.c ****         ADC_SAR_Seq_1_SAR_STBY_PWRMGR_CLK_REG &= (uint8)~ADC_SAR_Seq_1_SAR_STBY_PWR_CLK_EN;
 281:.\Generated_Source\PSoC5/ADC_SAR_Seq_1_SAR.c ****     #endif /* End ADC_SAR_Seq_1_SAR_DEFAULT_INTERNAL_CLK */
 282:.\Generated_Source\PSoC5/ADC_SAR_Seq_1_SAR.c **** 
 283:.\Generated_Source\PSoC5/ADC_SAR_Seq_1_SAR.c ****     CyExitCriticalSection(enableInterrupts);
 289              		.loc 1 283 0
 290 005c FB79     		ldrb	r3, [r7, #7]	@ zero_extendqisi2
 291 005e 1846     		mov	r0, r3
 292 0060 FFF7FEFF 		bl	CyExitCriticalSection
 284:.\Generated_Source\PSoC5/ADC_SAR_Seq_1_SAR.c **** 
 285:.\Generated_Source\PSoC5/ADC_SAR_Seq_1_SAR.c **** }
 293              		.loc 1 285 0
 294 0064 07F10807 		add	r7, r7, #8
 295 0068 BD46     		mov	sp, r7
 296 006a 80BD     		pop	{r7, pc}
 297              		.cfi_endproc
 298              	.LFE3:
 299              		.size	ADC_SAR_Seq_1_SAR_Stop, .-ADC_SAR_Seq_1_SAR_Stop
 300              		.section	.text.ADC_SAR_Seq_1_SAR_SetPower,"ax",%progbits
 301              		.align	2
 302              		.global	ADC_SAR_Seq_1_SAR_SetPower
 303              		.thumb
 304              		.thumb_func
 305              		.type	ADC_SAR_Seq_1_SAR_SetPower, %function
 306              	ADC_SAR_Seq_1_SAR_SetPower:
 307              	.LFB4:
 286:.\Generated_Source\PSoC5/ADC_SAR_Seq_1_SAR.c **** 
 287:.\Generated_Source\PSoC5/ADC_SAR_Seq_1_SAR.c **** 
 288:.\Generated_Source\PSoC5/ADC_SAR_Seq_1_SAR.c **** /*******************************************************************************
 289:.\Generated_Source\PSoC5/ADC_SAR_Seq_1_SAR.c **** * Function Name: ADC_SAR_Seq_1_SAR_SetPower
 290:.\Generated_Source\PSoC5/ADC_SAR_Seq_1_SAR.c **** ********************************************************************************
 291:.\Generated_Source\PSoC5/ADC_SAR_Seq_1_SAR.c **** *
 292:.\Generated_Source\PSoC5/ADC_SAR_Seq_1_SAR.c **** * Summary:
 293:.\Generated_Source\PSoC5/ADC_SAR_Seq_1_SAR.c **** *  Sets the Power mode.
 294:.\Generated_Source\PSoC5/ADC_SAR_Seq_1_SAR.c **** *
 295:.\Generated_Source\PSoC5/ADC_SAR_Seq_1_SAR.c **** * Parameters:
 296:.\Generated_Source\PSoC5/ADC_SAR_Seq_1_SAR.c **** *  power:  Power setting for ADC
 297:.\Generated_Source\PSoC5/ADC_SAR_Seq_1_SAR.c **** *  0 ->    Normal
 298:.\Generated_Source\PSoC5/ADC_SAR_Seq_1_SAR.c **** *  1 ->    Half power
 299:.\Generated_Source\PSoC5/ADC_SAR_Seq_1_SAR.c **** *  2 ->    1/3rd power
 300:.\Generated_Source\PSoC5/ADC_SAR_Seq_1_SAR.c **** *  3 ->    Quarter power.
 301:.\Generated_Source\PSoC5/ADC_SAR_Seq_1_SAR.c **** *
 302:.\Generated_Source\PSoC5/ADC_SAR_Seq_1_SAR.c **** * Return:
 303:.\Generated_Source\PSoC5/ADC_SAR_Seq_1_SAR.c **** *  None.
 304:.\Generated_Source\PSoC5/ADC_SAR_Seq_1_SAR.c **** *
 305:.\Generated_Source\PSoC5/ADC_SAR_Seq_1_SAR.c **** *******************************************************************************/
 306:.\Generated_Source\PSoC5/ADC_SAR_Seq_1_SAR.c **** void ADC_SAR_Seq_1_SAR_SetPower(uint8 power)
 307:.\Generated_Source\PSoC5/ADC_SAR_Seq_1_SAR.c **** {
 308              		.loc 1 307 0
 309              		.cfi_startproc
 310              		@ args = 0, pretend = 0, frame = 16
 311              		@ frame_needed = 1, uses_anonymous_args = 0
 312              		@ link register save eliminated.
 313 0000 80B4     		push	{r7}
 314              	.LCFI10:
 315              		.cfi_def_cfa_offset 4
 316 0002 85B0     		sub	sp, sp, #20
ARM GAS  C:\Users\karunmj\AppData\Local\Temp\ccy4LQk2.s 			page 12


 317              	.LCFI11:
 318              		.cfi_def_cfa_offset 24
 319 0004 00AF     		add	r7, sp, #0
 320              		.cfi_offset 7, -4
 321              	.LCFI12:
 322              		.cfi_def_cfa_register 7
 323 0006 0346     		mov	r3, r0
 324 0008 FB71     		strb	r3, [r7, #7]
 308:.\Generated_Source\PSoC5/ADC_SAR_Seq_1_SAR.c ****     uint8 tmpReg;
 309:.\Generated_Source\PSoC5/ADC_SAR_Seq_1_SAR.c **** 
 310:.\Generated_Source\PSoC5/ADC_SAR_Seq_1_SAR.c ****     /* mask off invalid power settings */
 311:.\Generated_Source\PSoC5/ADC_SAR_Seq_1_SAR.c ****     power &= ADC_SAR_Seq_1_SAR_SAR_API_POWER_MASK;
 325              		.loc 1 311 0
 326 000a FB79     		ldrb	r3, [r7, #7]
 327 000c 03F00303 		and	r3, r3, #3
 328 0010 FB71     		strb	r3, [r7, #7]
 312:.\Generated_Source\PSoC5/ADC_SAR_Seq_1_SAR.c **** 
 313:.\Generated_Source\PSoC5/ADC_SAR_Seq_1_SAR.c ****     /* Set Power parameter  */
 314:.\Generated_Source\PSoC5/ADC_SAR_Seq_1_SAR.c ****     tmpReg = ADC_SAR_Seq_1_SAR_SAR_CSR0_REG & (uint8)~ADC_SAR_Seq_1_SAR_SAR_POWER_MASK;
 329              		.loc 1 314 0
 330 0012 45F60013 		movw	r3, #:lower16:1073764608
 331 0016 C4F20003 		movt	r3, #:upper16:1073764608
 332 001a 1B78     		ldrb	r3, [r3, #0]
 333 001c DBB2     		uxtb	r3, r3
 334 001e 03F03F03 		and	r3, r3, #63
 335 0022 FB73     		strb	r3, [r7, #15]
 315:.\Generated_Source\PSoC5/ADC_SAR_Seq_1_SAR.c ****     tmpReg |= (uint8)(power << ADC_SAR_Seq_1_SAR_SAR_POWER_SHIFT);
 336              		.loc 1 315 0
 337 0024 FB79     		ldrb	r3, [r7, #7]
 338 0026 4FEA8313 		lsl	r3, r3, #6
 339 002a DAB2     		uxtb	r2, r3
 340 002c FB7B     		ldrb	r3, [r7, #15]
 341 002e 42EA0303 		orr	r3, r2, r3
 342 0032 FB73     		strb	r3, [r7, #15]
 316:.\Generated_Source\PSoC5/ADC_SAR_Seq_1_SAR.c ****     ADC_SAR_Seq_1_SAR_SAR_CSR0_REG = tmpReg;
 343              		.loc 1 316 0
 344 0034 45F60013 		movw	r3, #:lower16:1073764608
 345 0038 C4F20003 		movt	r3, #:upper16:1073764608
 346 003c FA7B     		ldrb	r2, [r7, #15]
 347 003e 1A70     		strb	r2, [r3, #0]
 317:.\Generated_Source\PSoC5/ADC_SAR_Seq_1_SAR.c **** }
 348              		.loc 1 317 0
 349 0040 07F11407 		add	r7, r7, #20
 350 0044 BD46     		mov	sp, r7
 351 0046 80BC     		pop	{r7}
 352 0048 7047     		bx	lr
 353              		.cfi_endproc
 354              	.LFE4:
 355              		.size	ADC_SAR_Seq_1_SAR_SetPower, .-ADC_SAR_Seq_1_SAR_SetPower
 356 004a 00BF     		.section	.text.ADC_SAR_Seq_1_SAR_SetResolution,"ax",%progbits
 357              		.align	2
 358              		.global	ADC_SAR_Seq_1_SAR_SetResolution
 359              		.thumb
 360              		.thumb_func
 361              		.type	ADC_SAR_Seq_1_SAR_SetResolution, %function
 362              	ADC_SAR_Seq_1_SAR_SetResolution:
 363              	.LFB5:
ARM GAS  C:\Users\karunmj\AppData\Local\Temp\ccy4LQk2.s 			page 13


 318:.\Generated_Source\PSoC5/ADC_SAR_Seq_1_SAR.c **** 
 319:.\Generated_Source\PSoC5/ADC_SAR_Seq_1_SAR.c **** 
 320:.\Generated_Source\PSoC5/ADC_SAR_Seq_1_SAR.c **** /*******************************************************************************
 321:.\Generated_Source\PSoC5/ADC_SAR_Seq_1_SAR.c **** * Function Name: ADC_SAR_Seq_1_SAR_SetResolution
 322:.\Generated_Source\PSoC5/ADC_SAR_Seq_1_SAR.c **** ********************************************************************************
 323:.\Generated_Source\PSoC5/ADC_SAR_Seq_1_SAR.c **** *
 324:.\Generated_Source\PSoC5/ADC_SAR_Seq_1_SAR.c **** * Summary:
 325:.\Generated_Source\PSoC5/ADC_SAR_Seq_1_SAR.c **** *  Sets the Relution of the SAR.
 326:.\Generated_Source\PSoC5/ADC_SAR_Seq_1_SAR.c **** *  This function does not affect the actual conversion with PSoC5 ES1 silicon.
 327:.\Generated_Source\PSoC5/ADC_SAR_Seq_1_SAR.c **** *
 328:.\Generated_Source\PSoC5/ADC_SAR_Seq_1_SAR.c **** * Parameters:
 329:.\Generated_Source\PSoC5/ADC_SAR_Seq_1_SAR.c **** *  resolution:
 330:.\Generated_Source\PSoC5/ADC_SAR_Seq_1_SAR.c **** *  12 ->    RES12
 331:.\Generated_Source\PSoC5/ADC_SAR_Seq_1_SAR.c **** *  10 ->    RES10
 332:.\Generated_Source\PSoC5/ADC_SAR_Seq_1_SAR.c **** *  8  ->    RES8
 333:.\Generated_Source\PSoC5/ADC_SAR_Seq_1_SAR.c **** *
 334:.\Generated_Source\PSoC5/ADC_SAR_Seq_1_SAR.c **** * Return:
 335:.\Generated_Source\PSoC5/ADC_SAR_Seq_1_SAR.c **** *  None.
 336:.\Generated_Source\PSoC5/ADC_SAR_Seq_1_SAR.c **** *
 337:.\Generated_Source\PSoC5/ADC_SAR_Seq_1_SAR.c **** * Side Effects:
 338:.\Generated_Source\PSoC5/ADC_SAR_Seq_1_SAR.c **** *  The ADC resolution cannot be changed during a conversion cycle. The
 339:.\Generated_Source\PSoC5/ADC_SAR_Seq_1_SAR.c **** *  recommended best practice is to stop conversions with
 340:.\Generated_Source\PSoC5/ADC_SAR_Seq_1_SAR.c **** *  ADC_StopConvert(), change the resolution, then restart the
 341:.\Generated_Source\PSoC5/ADC_SAR_Seq_1_SAR.c **** *  conversions with ADC_StartConvert().
 342:.\Generated_Source\PSoC5/ADC_SAR_Seq_1_SAR.c **** *  If you decide not to stop conversions before calling this API, you
 343:.\Generated_Source\PSoC5/ADC_SAR_Seq_1_SAR.c **** *  should use ADC_IsEndConversion() to wait until conversion is complete
 344:.\Generated_Source\PSoC5/ADC_SAR_Seq_1_SAR.c **** *  before changing the resolution.
 345:.\Generated_Source\PSoC5/ADC_SAR_Seq_1_SAR.c **** *  If you call ADC_SetResolution() during a conversion, the resolution will
 346:.\Generated_Source\PSoC5/ADC_SAR_Seq_1_SAR.c **** *  not be changed until the current conversion is complete. Data will not be
 347:.\Generated_Source\PSoC5/ADC_SAR_Seq_1_SAR.c **** *  available in the new resolution for another 6 + "New Resolution(in bits)"
 348:.\Generated_Source\PSoC5/ADC_SAR_Seq_1_SAR.c **** *  clock cycles.
 349:.\Generated_Source\PSoC5/ADC_SAR_Seq_1_SAR.c **** *  You may need add a delay of this number of clock cycles after
 350:.\Generated_Source\PSoC5/ADC_SAR_Seq_1_SAR.c **** *  ADC_SetResolution() is called before data is valid again.
 351:.\Generated_Source\PSoC5/ADC_SAR_Seq_1_SAR.c **** *  Affects ADC_CountsTo_Volts(), ADC_CountsTo_mVolts(), and
 352:.\Generated_Source\PSoC5/ADC_SAR_Seq_1_SAR.c **** *  ADC_CountsTo_uVolts() by calculating the correct conversion between ADC
 353:.\Generated_Source\PSoC5/ADC_SAR_Seq_1_SAR.c **** *  counts and the applied input voltage. Calculation depends on resolution,
 354:.\Generated_Source\PSoC5/ADC_SAR_Seq_1_SAR.c **** *  input range, and voltage reference.
 355:.\Generated_Source\PSoC5/ADC_SAR_Seq_1_SAR.c **** *
 356:.\Generated_Source\PSoC5/ADC_SAR_Seq_1_SAR.c **** *******************************************************************************/
 357:.\Generated_Source\PSoC5/ADC_SAR_Seq_1_SAR.c **** void ADC_SAR_Seq_1_SAR_SetResolution(uint8 resolution)
 358:.\Generated_Source\PSoC5/ADC_SAR_Seq_1_SAR.c **** {
 364              		.loc 1 358 0
 365              		.cfi_startproc
 366              		@ args = 0, pretend = 0, frame = 16
 367              		@ frame_needed = 1, uses_anonymous_args = 0
 368 0000 80B5     		push	{r7, lr}
 369              	.LCFI13:
 370              		.cfi_def_cfa_offset 8
 371 0002 84B0     		sub	sp, sp, #16
 372              	.LCFI14:
 373              		.cfi_def_cfa_offset 24
 374 0004 00AF     		add	r7, sp, #0
 375              		.cfi_offset 14, -4
 376              		.cfi_offset 7, -8
 377              	.LCFI15:
 378              		.cfi_def_cfa_register 7
 379 0006 0346     		mov	r3, r0
ARM GAS  C:\Users\karunmj\AppData\Local\Temp\ccy4LQk2.s 			page 14


 380 0008 FB71     		strb	r3, [r7, #7]
 359:.\Generated_Source\PSoC5/ADC_SAR_Seq_1_SAR.c ****     uint8 tmpReg;
 360:.\Generated_Source\PSoC5/ADC_SAR_Seq_1_SAR.c **** 
 361:.\Generated_Source\PSoC5/ADC_SAR_Seq_1_SAR.c ****     /* remember resolution for the GetResult APIs */
 362:.\Generated_Source\PSoC5/ADC_SAR_Seq_1_SAR.c ****     #if(CY_PSOC5A)
 363:.\Generated_Source\PSoC5/ADC_SAR_Seq_1_SAR.c ****         ADC_SAR_Seq_1_SAR_resolution = resolution;
 364:.\Generated_Source\PSoC5/ADC_SAR_Seq_1_SAR.c ****     #endif /* End CY_PSOC5A */
 365:.\Generated_Source\PSoC5/ADC_SAR_Seq_1_SAR.c **** 
 366:.\Generated_Source\PSoC5/ADC_SAR_Seq_1_SAR.c ****     /* Set SAR ADC resolution and sample width: 18 conversion cycles at 12bits + 1 gap */
 367:.\Generated_Source\PSoC5/ADC_SAR_Seq_1_SAR.c ****     switch (resolution)
 381              		.loc 1 367 0
 382 000a FB79     		ldrb	r3, [r7, #7]	@ zero_extendqisi2
 383 000c 0A2B     		cmp	r3, #10
 384 000e 08D0     		beq	.L15
 385 0010 0C2B     		cmp	r3, #12
 386 0012 02D0     		beq	.L16
 387 0014 082B     		cmp	r3, #8
 388 0016 08D0     		beq	.L14
 389 0018 0BE0     		b	.L19
 390              	.L16:
 368:.\Generated_Source\PSoC5/ADC_SAR_Seq_1_SAR.c ****     {
 369:.\Generated_Source\PSoC5/ADC_SAR_Seq_1_SAR.c ****         case (uint8)ADC_SAR_Seq_1_SAR__BITS_12:
 370:.\Generated_Source\PSoC5/ADC_SAR_Seq_1_SAR.c ****             tmpReg = ADC_SAR_Seq_1_SAR_SAR_RESOLUTION_12BIT | ADC_SAR_Seq_1_SAR_SAR_SAMPLE_WIDTH;
 391              		.loc 1 370 0
 392 001a 6FF03B03 		mvn	r3, #59
 393 001e FB73     		strb	r3, [r7, #15]
 371:.\Generated_Source\PSoC5/ADC_SAR_Seq_1_SAR.c ****             break;
 394              		.loc 1 371 0
 395 0020 0EE0     		b	.L17
 396              	.L15:
 372:.\Generated_Source\PSoC5/ADC_SAR_Seq_1_SAR.c ****         case (uint8)ADC_SAR_Seq_1_SAR__BITS_10:
 373:.\Generated_Source\PSoC5/ADC_SAR_Seq_1_SAR.c ****             /* Use 12bits for PSoC5 production silicon and shift the
 374:.\Generated_Source\PSoC5/ADC_SAR_Seq_1_SAR.c ****             *  results for lower resolution in GetResult16() API
 375:.\Generated_Source\PSoC5/ADC_SAR_Seq_1_SAR.c ****             */
 376:.\Generated_Source\PSoC5/ADC_SAR_Seq_1_SAR.c ****             #if(CY_PSOC5A)
 377:.\Generated_Source\PSoC5/ADC_SAR_Seq_1_SAR.c ****                 tmpReg = ADC_SAR_Seq_1_SAR_SAR_RESOLUTION_12BIT | ADC_SAR_Seq_1_SAR_SAR_SAMPLE_WIDT
 378:.\Generated_Source\PSoC5/ADC_SAR_Seq_1_SAR.c ****             #else
 379:.\Generated_Source\PSoC5/ADC_SAR_Seq_1_SAR.c ****                 tmpReg = ADC_SAR_Seq_1_SAR_SAR_RESOLUTION_10BIT | ADC_SAR_Seq_1_SAR_SAR_SAMPLE_WIDT
 397              		.loc 1 379 0
 398 0022 6FF07B03 		mvn	r3, #123
 399 0026 FB73     		strb	r3, [r7, #15]
 380:.\Generated_Source\PSoC5/ADC_SAR_Seq_1_SAR.c ****             #endif /* End CY_PSOC5A */
 381:.\Generated_Source\PSoC5/ADC_SAR_Seq_1_SAR.c ****             break;
 400              		.loc 1 381 0
 401 0028 0AE0     		b	.L17
 402              	.L14:
 382:.\Generated_Source\PSoC5/ADC_SAR_Seq_1_SAR.c ****         case (uint8)ADC_SAR_Seq_1_SAR__BITS_8:
 383:.\Generated_Source\PSoC5/ADC_SAR_Seq_1_SAR.c ****             #if(CY_PSOC5A)
 384:.\Generated_Source\PSoC5/ADC_SAR_Seq_1_SAR.c ****                 tmpReg = ADC_SAR_Seq_1_SAR_SAR_RESOLUTION_12BIT | ADC_SAR_Seq_1_SAR_SAR_SAMPLE_WIDT
 385:.\Generated_Source\PSoC5/ADC_SAR_Seq_1_SAR.c ****             #else
 386:.\Generated_Source\PSoC5/ADC_SAR_Seq_1_SAR.c ****                 tmpReg = ADC_SAR_Seq_1_SAR_SAR_RESOLUTION_8BIT | ADC_SAR_Seq_1_SAR_SAR_SAMPLE_WIDTH
 403              		.loc 1 386 0
 404 002a 4FF04403 		mov	r3, #68
 405 002e FB73     		strb	r3, [r7, #15]
 387:.\Generated_Source\PSoC5/ADC_SAR_Seq_1_SAR.c ****             #endif /* End CY_PSOC5A */
 388:.\Generated_Source\PSoC5/ADC_SAR_Seq_1_SAR.c ****             break;
 406              		.loc 1 388 0
ARM GAS  C:\Users\karunmj\AppData\Local\Temp\ccy4LQk2.s 			page 15


 407 0030 06E0     		b	.L17
 408              	.L19:
 389:.\Generated_Source\PSoC5/ADC_SAR_Seq_1_SAR.c ****         default:
 390:.\Generated_Source\PSoC5/ADC_SAR_Seq_1_SAR.c ****             tmpReg = ADC_SAR_Seq_1_SAR_SAR_RESOLUTION_12BIT | ADC_SAR_Seq_1_SAR_SAR_SAMPLE_WIDTH;
 409              		.loc 1 390 0
 410 0032 6FF03B03 		mvn	r3, #59
 411 0036 FB73     		strb	r3, [r7, #15]
 391:.\Generated_Source\PSoC5/ADC_SAR_Seq_1_SAR.c ****             /* Halt CPU in debug mode if resolution is out of valid range */
 392:.\Generated_Source\PSoC5/ADC_SAR_Seq_1_SAR.c ****             CYASSERT(0u != 0u);
 412              		.loc 1 392 0
 413 0038 4FF00000 		mov	r0, #0
 414 003c FFF7FEFF 		bl	CyHalt
 415              	.L17:
 393:.\Generated_Source\PSoC5/ADC_SAR_Seq_1_SAR.c ****             break;
 394:.\Generated_Source\PSoC5/ADC_SAR_Seq_1_SAR.c ****     }
 395:.\Generated_Source\PSoC5/ADC_SAR_Seq_1_SAR.c ****     ADC_SAR_Seq_1_SAR_SAR_CSR2_REG = tmpReg;
 416              		.loc 1 395 0
 417 0040 45F60213 		movw	r3, #:lower16:1073764610
 418 0044 C4F20003 		movt	r3, #:upper16:1073764610
 419 0048 FA7B     		ldrb	r2, [r7, #15]
 420 004a 1A70     		strb	r2, [r3, #0]
 396:.\Generated_Source\PSoC5/ADC_SAR_Seq_1_SAR.c **** 
 397:.\Generated_Source\PSoC5/ADC_SAR_Seq_1_SAR.c ****      /* Calculate gain for convert counts to volts */
 398:.\Generated_Source\PSoC5/ADC_SAR_Seq_1_SAR.c ****     ADC_SAR_Seq_1_SAR_CalcGain(resolution);
 421              		.loc 1 398 0
 422 004c FB79     		ldrb	r3, [r7, #7]	@ zero_extendqisi2
 423 004e 1846     		mov	r0, r3
 424 0050 FFF7FEFF 		bl	ADC_SAR_Seq_1_SAR_CalcGain
 399:.\Generated_Source\PSoC5/ADC_SAR_Seq_1_SAR.c **** }
 425              		.loc 1 399 0
 426 0054 07F11007 		add	r7, r7, #16
 427 0058 BD46     		mov	sp, r7
 428 005a 80BD     		pop	{r7, pc}
 429              		.cfi_endproc
 430              	.LFE5:
 431              		.size	ADC_SAR_Seq_1_SAR_SetResolution, .-ADC_SAR_Seq_1_SAR_SetResolution
 432              		.section	.text.ADC_SAR_Seq_1_SAR_StartConvert,"ax",%progbits
 433              		.align	2
 434              		.global	ADC_SAR_Seq_1_SAR_StartConvert
 435              		.thumb
 436              		.thumb_func
 437              		.type	ADC_SAR_Seq_1_SAR_StartConvert, %function
 438              	ADC_SAR_Seq_1_SAR_StartConvert:
 439              	.LFB6:
 400:.\Generated_Source\PSoC5/ADC_SAR_Seq_1_SAR.c **** 
 401:.\Generated_Source\PSoC5/ADC_SAR_Seq_1_SAR.c **** 
 402:.\Generated_Source\PSoC5/ADC_SAR_Seq_1_SAR.c **** #if(ADC_SAR_Seq_1_SAR_DEFAULT_CONV_MODE != ADC_SAR_Seq_1_SAR__HARDWARE_TRIGGER)
 403:.\Generated_Source\PSoC5/ADC_SAR_Seq_1_SAR.c **** 
 404:.\Generated_Source\PSoC5/ADC_SAR_Seq_1_SAR.c **** 
 405:.\Generated_Source\PSoC5/ADC_SAR_Seq_1_SAR.c ****     /*******************************************************************************
 406:.\Generated_Source\PSoC5/ADC_SAR_Seq_1_SAR.c ****     * Function Name: ADC_SAR_Seq_1_SAR_StartConvert
 407:.\Generated_Source\PSoC5/ADC_SAR_Seq_1_SAR.c ****     ********************************************************************************
 408:.\Generated_Source\PSoC5/ADC_SAR_Seq_1_SAR.c ****     *
 409:.\Generated_Source\PSoC5/ADC_SAR_Seq_1_SAR.c ****     * Summary:
 410:.\Generated_Source\PSoC5/ADC_SAR_Seq_1_SAR.c ****     *  Starts ADC conversion using the given mode. The API is available in the 
 411:.\Generated_Source\PSoC5/ADC_SAR_Seq_1_SAR.c ****     *  free running and the software trigger mode.
 412:.\Generated_Source\PSoC5/ADC_SAR_Seq_1_SAR.c ****     *
ARM GAS  C:\Users\karunmj\AppData\Local\Temp\ccy4LQk2.s 			page 16


 413:.\Generated_Source\PSoC5/ADC_SAR_Seq_1_SAR.c ****     * Parameters:
 414:.\Generated_Source\PSoC5/ADC_SAR_Seq_1_SAR.c ****     *  None.
 415:.\Generated_Source\PSoC5/ADC_SAR_Seq_1_SAR.c ****     *
 416:.\Generated_Source\PSoC5/ADC_SAR_Seq_1_SAR.c ****     * Return:
 417:.\Generated_Source\PSoC5/ADC_SAR_Seq_1_SAR.c ****     *  None.
 418:.\Generated_Source\PSoC5/ADC_SAR_Seq_1_SAR.c ****     *
 419:.\Generated_Source\PSoC5/ADC_SAR_Seq_1_SAR.c ****     * Theory:
 420:.\Generated_Source\PSoC5/ADC_SAR_Seq_1_SAR.c ****     *  Forces the ADC to initiate a conversion. In Free Running mode, the ADC will
 421:.\Generated_Source\PSoC5/ADC_SAR_Seq_1_SAR.c ****     *  run continuously. In a software trigger mode the function also acts as a 
 422:.\Generated_Source\PSoC5/ADC_SAR_Seq_1_SAR.c ****     *  software version of the SOC. Here every conversion has to be triggered by 
 423:.\Generated_Source\PSoC5/ADC_SAR_Seq_1_SAR.c ****     *  the routine. This writes into the SOC bit in SAR_CTRL reg.
 424:.\Generated_Source\PSoC5/ADC_SAR_Seq_1_SAR.c ****     *
 425:.\Generated_Source\PSoC5/ADC_SAR_Seq_1_SAR.c ****     * Side Effects:
 426:.\Generated_Source\PSoC5/ADC_SAR_Seq_1_SAR.c ****     *  In a software trigger mode the function switches source for SOF from the 
 427:.\Generated_Source\PSoC5/ADC_SAR_Seq_1_SAR.c ****     *  external pin to the internal SOF generation. Application should not call 
 428:.\Generated_Source\PSoC5/ADC_SAR_Seq_1_SAR.c ****     *  StartConvert if external source used for SOF.
 429:.\Generated_Source\PSoC5/ADC_SAR_Seq_1_SAR.c ****     *******************************************************************************/
 430:.\Generated_Source\PSoC5/ADC_SAR_Seq_1_SAR.c ****     void ADC_SAR_Seq_1_SAR_StartConvert(void)
 431:.\Generated_Source\PSoC5/ADC_SAR_Seq_1_SAR.c ****     {
 440              		.loc 1 431 0
 441              		.cfi_startproc
 442              		@ args = 0, pretend = 0, frame = 0
 443              		@ frame_needed = 1, uses_anonymous_args = 0
 444              		@ link register save eliminated.
 445 0000 80B4     		push	{r7}
 446              	.LCFI16:
 447              		.cfi_def_cfa_offset 4
 448 0002 00AF     		add	r7, sp, #0
 449              		.cfi_offset 7, -4
 450              	.LCFI17:
 451              		.cfi_def_cfa_register 7
 432:.\Generated_Source\PSoC5/ADC_SAR_Seq_1_SAR.c ****         #if(ADC_SAR_Seq_1_SAR_DEFAULT_CONV_MODE != ADC_SAR_Seq_1_SAR__FREE_RUNNING)  /* If software
 433:.\Generated_Source\PSoC5/ADC_SAR_Seq_1_SAR.c ****             ADC_SAR_Seq_1_SAR_SAR_CSR0_REG &= (uint8)~ADC_SAR_Seq_1_SAR_SAR_MX_SOF_UDB;   /* source
 434:.\Generated_Source\PSoC5/ADC_SAR_Seq_1_SAR.c ****         #endif /* End ADC_SAR_Seq_1_SAR_DEFAULT_CONV_MODE */
 435:.\Generated_Source\PSoC5/ADC_SAR_Seq_1_SAR.c **** 
 436:.\Generated_Source\PSoC5/ADC_SAR_Seq_1_SAR.c ****         /* Start the conversion */
 437:.\Generated_Source\PSoC5/ADC_SAR_Seq_1_SAR.c ****         ADC_SAR_Seq_1_SAR_SAR_CSR0_REG |= ADC_SAR_Seq_1_SAR_SAR_SOF_START_CONV;
 452              		.loc 1 437 0
 453 0004 45F60013 		movw	r3, #:lower16:1073764608
 454 0008 C4F20003 		movt	r3, #:upper16:1073764608
 455 000c 45F60012 		movw	r2, #:lower16:1073764608
 456 0010 C4F20002 		movt	r2, #:upper16:1073764608
 457 0014 1278     		ldrb	r2, [r2, #0]
 458 0016 D2B2     		uxtb	r2, r2
 459 0018 42F00102 		orr	r2, r2, #1
 460 001c D2B2     		uxtb	r2, r2
 461 001e 1A70     		strb	r2, [r3, #0]
 438:.\Generated_Source\PSoC5/ADC_SAR_Seq_1_SAR.c ****     }
 462              		.loc 1 438 0
 463 0020 BD46     		mov	sp, r7
 464 0022 80BC     		pop	{r7}
 465 0024 7047     		bx	lr
 466              		.cfi_endproc
 467              	.LFE6:
 468              		.size	ADC_SAR_Seq_1_SAR_StartConvert, .-ADC_SAR_Seq_1_SAR_StartConvert
 469 0026 00BF     		.section	.text.ADC_SAR_Seq_1_SAR_StopConvert,"ax",%progbits
 470              		.align	2
ARM GAS  C:\Users\karunmj\AppData\Local\Temp\ccy4LQk2.s 			page 17


 471              		.global	ADC_SAR_Seq_1_SAR_StopConvert
 472              		.thumb
 473              		.thumb_func
 474              		.type	ADC_SAR_Seq_1_SAR_StopConvert, %function
 475              	ADC_SAR_Seq_1_SAR_StopConvert:
 476              	.LFB7:
 439:.\Generated_Source\PSoC5/ADC_SAR_Seq_1_SAR.c **** 
 440:.\Generated_Source\PSoC5/ADC_SAR_Seq_1_SAR.c **** 
 441:.\Generated_Source\PSoC5/ADC_SAR_Seq_1_SAR.c ****     /*******************************************************************************
 442:.\Generated_Source\PSoC5/ADC_SAR_Seq_1_SAR.c ****     * Function Name: ADC_SAR_Seq_1_SAR_StopConvert
 443:.\Generated_Source\PSoC5/ADC_SAR_Seq_1_SAR.c ****     ********************************************************************************
 444:.\Generated_Source\PSoC5/ADC_SAR_Seq_1_SAR.c ****     *
 445:.\Generated_Source\PSoC5/ADC_SAR_Seq_1_SAR.c ****     * Summary:
 446:.\Generated_Source\PSoC5/ADC_SAR_Seq_1_SAR.c ****     *  Stops ADC conversion using the given mode. The API is available in the 
 447:.\Generated_Source\PSoC5/ADC_SAR_Seq_1_SAR.c ****     *  free running and the software trigger mode.
 448:.\Generated_Source\PSoC5/ADC_SAR_Seq_1_SAR.c ****     *
 449:.\Generated_Source\PSoC5/ADC_SAR_Seq_1_SAR.c ****     * Parameters:
 450:.\Generated_Source\PSoC5/ADC_SAR_Seq_1_SAR.c ****     *  None.
 451:.\Generated_Source\PSoC5/ADC_SAR_Seq_1_SAR.c ****     *
 452:.\Generated_Source\PSoC5/ADC_SAR_Seq_1_SAR.c ****     * Return:
 453:.\Generated_Source\PSoC5/ADC_SAR_Seq_1_SAR.c ****     *  None.
 454:.\Generated_Source\PSoC5/ADC_SAR_Seq_1_SAR.c ****     *
 455:.\Generated_Source\PSoC5/ADC_SAR_Seq_1_SAR.c ****     * Theory:
 456:.\Generated_Source\PSoC5/ADC_SAR_Seq_1_SAR.c ****     *  Stops ADC conversion in Free Running mode.
 457:.\Generated_Source\PSoC5/ADC_SAR_Seq_1_SAR.c ****     *  This writes into the SOC bit in SAR_CTRL reg.
 458:.\Generated_Source\PSoC5/ADC_SAR_Seq_1_SAR.c ****     *
 459:.\Generated_Source\PSoC5/ADC_SAR_Seq_1_SAR.c ****     * Side Effects:
 460:.\Generated_Source\PSoC5/ADC_SAR_Seq_1_SAR.c ****     *  In a software trigger mode the function set a software version of the SOC 
 461:.\Generated_Source\PSoC5/ADC_SAR_Seq_1_SAR.c ****     *  to low level and switch SOF source to hardware SOF input.
 462:.\Generated_Source\PSoC5/ADC_SAR_Seq_1_SAR.c ****     *
 463:.\Generated_Source\PSoC5/ADC_SAR_Seq_1_SAR.c ****     *******************************************************************************/
 464:.\Generated_Source\PSoC5/ADC_SAR_Seq_1_SAR.c ****     void ADC_SAR_Seq_1_SAR_StopConvert(void)
 465:.\Generated_Source\PSoC5/ADC_SAR_Seq_1_SAR.c ****     {
 477              		.loc 1 465 0
 478              		.cfi_startproc
 479              		@ args = 0, pretend = 0, frame = 0
 480              		@ frame_needed = 1, uses_anonymous_args = 0
 481              		@ link register save eliminated.
 482 0000 80B4     		push	{r7}
 483              	.LCFI18:
 484              		.cfi_def_cfa_offset 4
 485 0002 00AF     		add	r7, sp, #0
 486              		.cfi_offset 7, -4
 487              	.LCFI19:
 488              		.cfi_def_cfa_register 7
 466:.\Generated_Source\PSoC5/ADC_SAR_Seq_1_SAR.c ****         /* Stop all conversions */
 467:.\Generated_Source\PSoC5/ADC_SAR_Seq_1_SAR.c ****         ADC_SAR_Seq_1_SAR_SAR_CSR0_REG &= (uint8)~ADC_SAR_Seq_1_SAR_SAR_SOF_START_CONV;
 489              		.loc 1 467 0
 490 0004 45F60013 		movw	r3, #:lower16:1073764608
 491 0008 C4F20003 		movt	r3, #:upper16:1073764608
 492 000c 45F60012 		movw	r2, #:lower16:1073764608
 493 0010 C4F20002 		movt	r2, #:upper16:1073764608
 494 0014 1278     		ldrb	r2, [r2, #0]
 495 0016 D2B2     		uxtb	r2, r2
 496 0018 02F0FE02 		and	r2, r2, #254
 497 001c 1A70     		strb	r2, [r3, #0]
 468:.\Generated_Source\PSoC5/ADC_SAR_Seq_1_SAR.c **** 
ARM GAS  C:\Users\karunmj\AppData\Local\Temp\ccy4LQk2.s 			page 18


 469:.\Generated_Source\PSoC5/ADC_SAR_Seq_1_SAR.c ****         #if(ADC_SAR_Seq_1_SAR_DEFAULT_CONV_MODE != ADC_SAR_Seq_1_SAR__FREE_RUNNING)  /* If software
 470:.\Generated_Source\PSoC5/ADC_SAR_Seq_1_SAR.c ****             /* Return source to UDB for hardware SOF signal */
 471:.\Generated_Source\PSoC5/ADC_SAR_Seq_1_SAR.c ****             ADC_SAR_Seq_1_SAR_SAR_CSR0_REG |= ADC_SAR_Seq_1_SAR_SAR_MX_SOF_UDB;    /* source: UDB *
 472:.\Generated_Source\PSoC5/ADC_SAR_Seq_1_SAR.c ****         #endif /* End ADC_SAR_Seq_1_SAR_DEFAULT_CONV_MODE */
 473:.\Generated_Source\PSoC5/ADC_SAR_Seq_1_SAR.c **** 
 474:.\Generated_Source\PSoC5/ADC_SAR_Seq_1_SAR.c ****     }
 498              		.loc 1 474 0
 499 001e BD46     		mov	sp, r7
 500 0020 80BC     		pop	{r7}
 501 0022 7047     		bx	lr
 502              		.cfi_endproc
 503              	.LFE7:
 504              		.size	ADC_SAR_Seq_1_SAR_StopConvert, .-ADC_SAR_Seq_1_SAR_StopConvert
 505              		.section	.text.ADC_SAR_Seq_1_SAR_IsEndConversion,"ax",%progbits
 506              		.align	2
 507              		.global	ADC_SAR_Seq_1_SAR_IsEndConversion
 508              		.thumb
 509              		.thumb_func
 510              		.type	ADC_SAR_Seq_1_SAR_IsEndConversion, %function
 511              	ADC_SAR_Seq_1_SAR_IsEndConversion:
 512              	.LFB8:
 475:.\Generated_Source\PSoC5/ADC_SAR_Seq_1_SAR.c **** 
 476:.\Generated_Source\PSoC5/ADC_SAR_Seq_1_SAR.c **** #endif /* End ADC_SAR_Seq_1_SAR_DEFAULT_CONV_MODE != ADC_SAR_Seq_1_SAR__HARDWARE_TRIGGER */
 477:.\Generated_Source\PSoC5/ADC_SAR_Seq_1_SAR.c **** 
 478:.\Generated_Source\PSoC5/ADC_SAR_Seq_1_SAR.c **** 
 479:.\Generated_Source\PSoC5/ADC_SAR_Seq_1_SAR.c **** /*******************************************************************************
 480:.\Generated_Source\PSoC5/ADC_SAR_Seq_1_SAR.c **** * Function Name: ADC_SAR_Seq_1_SAR_IsEndConversion
 481:.\Generated_Source\PSoC5/ADC_SAR_Seq_1_SAR.c **** ********************************************************************************
 482:.\Generated_Source\PSoC5/ADC_SAR_Seq_1_SAR.c **** *
 483:.\Generated_Source\PSoC5/ADC_SAR_Seq_1_SAR.c **** * Summary:
 484:.\Generated_Source\PSoC5/ADC_SAR_Seq_1_SAR.c **** *  Queries the ADC to see if conversion is complete
 485:.\Generated_Source\PSoC5/ADC_SAR_Seq_1_SAR.c **** *
 486:.\Generated_Source\PSoC5/ADC_SAR_Seq_1_SAR.c **** * Parameters:
 487:.\Generated_Source\PSoC5/ADC_SAR_Seq_1_SAR.c **** *  retMode:  Wait mode,
 488:.\Generated_Source\PSoC5/ADC_SAR_Seq_1_SAR.c **** *   0 if return with answer imediately.
 489:.\Generated_Source\PSoC5/ADC_SAR_Seq_1_SAR.c **** *   1 if wait until conversion is complete, then return.
 490:.\Generated_Source\PSoC5/ADC_SAR_Seq_1_SAR.c **** *
 491:.\Generated_Source\PSoC5/ADC_SAR_Seq_1_SAR.c **** * Return:
 492:.\Generated_Source\PSoC5/ADC_SAR_Seq_1_SAR.c **** *  (uint8)  0 =>  Conversion not complete.
 493:.\Generated_Source\PSoC5/ADC_SAR_Seq_1_SAR.c **** *           1 =>  Conversion complete.
 494:.\Generated_Source\PSoC5/ADC_SAR_Seq_1_SAR.c **** *
 495:.\Generated_Source\PSoC5/ADC_SAR_Seq_1_SAR.c **** *******************************************************************************/
 496:.\Generated_Source\PSoC5/ADC_SAR_Seq_1_SAR.c **** uint8 ADC_SAR_Seq_1_SAR_IsEndConversion(uint8 retMode)
 497:.\Generated_Source\PSoC5/ADC_SAR_Seq_1_SAR.c **** {
 513              		.loc 1 497 0
 514              		.cfi_startproc
 515              		@ args = 0, pretend = 0, frame = 16
 516              		@ frame_needed = 1, uses_anonymous_args = 0
 517 0000 80B5     		push	{r7, lr}
 518              	.LCFI20:
 519              		.cfi_def_cfa_offset 8
 520 0002 84B0     		sub	sp, sp, #16
 521              	.LCFI21:
 522              		.cfi_def_cfa_offset 24
 523 0004 00AF     		add	r7, sp, #0
 524              		.cfi_offset 14, -4
 525              		.cfi_offset 7, -8
ARM GAS  C:\Users\karunmj\AppData\Local\Temp\ccy4LQk2.s 			page 19


 526              	.LCFI22:
 527              		.cfi_def_cfa_register 7
 528 0006 0346     		mov	r3, r0
 529 0008 FB71     		strb	r3, [r7, #7]
 530              	.L26:
 498:.\Generated_Source\PSoC5/ADC_SAR_Seq_1_SAR.c ****     uint8 status;
 499:.\Generated_Source\PSoC5/ADC_SAR_Seq_1_SAR.c **** 
 500:.\Generated_Source\PSoC5/ADC_SAR_Seq_1_SAR.c ****     do
 501:.\Generated_Source\PSoC5/ADC_SAR_Seq_1_SAR.c ****     {
 502:.\Generated_Source\PSoC5/ADC_SAR_Seq_1_SAR.c ****         status = ADC_SAR_Seq_1_SAR_SAR_CSR1_REG & ADC_SAR_Seq_1_SAR_SAR_EOF_1;
 531              		.loc 1 502 0
 532 000a 45F60113 		movw	r3, #:lower16:1073764609
 533 000e C4F20003 		movt	r3, #:upper16:1073764609
 534 0012 1B78     		ldrb	r3, [r3, #0]
 535 0014 DBB2     		uxtb	r3, r3
 536 0016 03F00103 		and	r3, r3, #1
 537 001a FB73     		strb	r3, [r7, #15]
 503:.\Generated_Source\PSoC5/ADC_SAR_Seq_1_SAR.c ****     } while ((status != ADC_SAR_Seq_1_SAR_SAR_EOF_1) && (retMode == ADC_SAR_Seq_1_SAR_WAIT_FOR_RESU
 538              		.loc 1 503 0
 539 001c FB7B     		ldrb	r3, [r7, #15]	@ zero_extendqisi2
 540 001e 012B     		cmp	r3, #1
 541 0020 02D0     		beq	.L25
 542 0022 FB79     		ldrb	r3, [r7, #7]	@ zero_extendqisi2
 543 0024 002B     		cmp	r3, #0
 544 0026 F0D0     		beq	.L26
 545              	.L25:
 504:.\Generated_Source\PSoC5/ADC_SAR_Seq_1_SAR.c ****     /* If convertion complete, wait until EOF bit released */
 505:.\Generated_Source\PSoC5/ADC_SAR_Seq_1_SAR.c ****     if(status == ADC_SAR_Seq_1_SAR_SAR_EOF_1)
 546              		.loc 1 505 0
 547 0028 FB7B     		ldrb	r3, [r7, #15]	@ zero_extendqisi2
 548 002a 012B     		cmp	r3, #1
 549 002c 08D1     		bne	.L27
 506:.\Generated_Source\PSoC5/ADC_SAR_Seq_1_SAR.c ****     {
 507:.\Generated_Source\PSoC5/ADC_SAR_Seq_1_SAR.c ****         /* wait one ADC clock to let the EOC status bit release */
 508:.\Generated_Source\PSoC5/ADC_SAR_Seq_1_SAR.c ****         CyDelayUs(1u);
 550              		.loc 1 508 0
 551 002e 4FF00100 		mov	r0, #1
 552 0032 FFF7FEFF 		bl	CyDelayUs
 509:.\Generated_Source\PSoC5/ADC_SAR_Seq_1_SAR.c ****         /* Do the unconditional read operation of the CSR1 register to make sure the EOC bit has be
 510:.\Generated_Source\PSoC5/ADC_SAR_Seq_1_SAR.c ****         CY_GET_REG8(ADC_SAR_Seq_1_SAR_SAR_CSR1_PTR);
 553              		.loc 1 510 0
 554 0036 45F60113 		movw	r3, #:lower16:1073764609
 555 003a C4F20003 		movt	r3, #:upper16:1073764609
 556 003e 1B78     		ldrb	r3, [r3, #0]
 557              	.L27:
 511:.\Generated_Source\PSoC5/ADC_SAR_Seq_1_SAR.c ****     }
 512:.\Generated_Source\PSoC5/ADC_SAR_Seq_1_SAR.c **** 
 513:.\Generated_Source\PSoC5/ADC_SAR_Seq_1_SAR.c ****     return(status);
 558              		.loc 1 513 0
 559 0040 FB7B     		ldrb	r3, [r7, #15]	@ zero_extendqisi2
 514:.\Generated_Source\PSoC5/ADC_SAR_Seq_1_SAR.c **** }
 560              		.loc 1 514 0
 561 0042 1846     		mov	r0, r3
 562 0044 07F11007 		add	r7, r7, #16
 563 0048 BD46     		mov	sp, r7
 564 004a 80BD     		pop	{r7, pc}
 565              		.cfi_endproc
ARM GAS  C:\Users\karunmj\AppData\Local\Temp\ccy4LQk2.s 			page 20


 566              	.LFE8:
 567              		.size	ADC_SAR_Seq_1_SAR_IsEndConversion, .-ADC_SAR_Seq_1_SAR_IsEndConversion
 568              		.section	.text.ADC_SAR_Seq_1_SAR_GetResult8,"ax",%progbits
 569              		.align	2
 570              		.global	ADC_SAR_Seq_1_SAR_GetResult8
 571              		.thumb
 572              		.thumb_func
 573              		.type	ADC_SAR_Seq_1_SAR_GetResult8, %function
 574              	ADC_SAR_Seq_1_SAR_GetResult8:
 575              	.LFB9:
 515:.\Generated_Source\PSoC5/ADC_SAR_Seq_1_SAR.c **** 
 516:.\Generated_Source\PSoC5/ADC_SAR_Seq_1_SAR.c **** 
 517:.\Generated_Source\PSoC5/ADC_SAR_Seq_1_SAR.c **** /*******************************************************************************
 518:.\Generated_Source\PSoC5/ADC_SAR_Seq_1_SAR.c **** * Function Name: ADC_SAR_Seq_1_SAR_GetResult8
 519:.\Generated_Source\PSoC5/ADC_SAR_Seq_1_SAR.c **** ********************************************************************************
 520:.\Generated_Source\PSoC5/ADC_SAR_Seq_1_SAR.c **** *
 521:.\Generated_Source\PSoC5/ADC_SAR_Seq_1_SAR.c **** * Summary:
 522:.\Generated_Source\PSoC5/ADC_SAR_Seq_1_SAR.c **** *  Returns an 8-bit result or the LSB of the last conversion.
 523:.\Generated_Source\PSoC5/ADC_SAR_Seq_1_SAR.c **** *  ADC_SAR_Seq_1_SAR_IsEndConversion() should be called to verify that the data
 524:.\Generated_Source\PSoC5/ADC_SAR_Seq_1_SAR.c **** *   sample is ready
 525:.\Generated_Source\PSoC5/ADC_SAR_Seq_1_SAR.c **** *
 526:.\Generated_Source\PSoC5/ADC_SAR_Seq_1_SAR.c **** * Parameters:
 527:.\Generated_Source\PSoC5/ADC_SAR_Seq_1_SAR.c **** *  None.
 528:.\Generated_Source\PSoC5/ADC_SAR_Seq_1_SAR.c **** *
 529:.\Generated_Source\PSoC5/ADC_SAR_Seq_1_SAR.c **** * Return:
 530:.\Generated_Source\PSoC5/ADC_SAR_Seq_1_SAR.c **** *  ADC result.
 531:.\Generated_Source\PSoC5/ADC_SAR_Seq_1_SAR.c **** *
 532:.\Generated_Source\PSoC5/ADC_SAR_Seq_1_SAR.c **** * Global Variables:
 533:.\Generated_Source\PSoC5/ADC_SAR_Seq_1_SAR.c **** *  ADC_SAR_Seq_1_SAR_shift - used to convert the ADC counts to the 2's
 534:.\Generated_Source\PSoC5/ADC_SAR_Seq_1_SAR.c **** *  compliment form.
 535:.\Generated_Source\PSoC5/ADC_SAR_Seq_1_SAR.c **** *  ADC_SAR_Seq_1_SAR_resolution - used to shift the results for lower
 536:.\Generated_Source\PSoC5/ADC_SAR_Seq_1_SAR.c **** *   resolution.
 537:.\Generated_Source\PSoC5/ADC_SAR_Seq_1_SAR.c **** *
 538:.\Generated_Source\PSoC5/ADC_SAR_Seq_1_SAR.c **** *******************************************************************************/
 539:.\Generated_Source\PSoC5/ADC_SAR_Seq_1_SAR.c **** int8 ADC_SAR_Seq_1_SAR_GetResult8( void )
 540:.\Generated_Source\PSoC5/ADC_SAR_Seq_1_SAR.c **** {
 576              		.loc 1 540 0
 577              		.cfi_startproc
 578              		@ args = 0, pretend = 0, frame = 0
 579              		@ frame_needed = 1, uses_anonymous_args = 0
 580              		@ link register save eliminated.
 581 0000 80B4     		push	{r7}
 582              	.LCFI23:
 583              		.cfi_def_cfa_offset 4
 584 0002 00AF     		add	r7, sp, #0
 585              		.cfi_offset 7, -4
 586              	.LCFI24:
 587              		.cfi_def_cfa_register 7
 541:.\Generated_Source\PSoC5/ADC_SAR_Seq_1_SAR.c **** 
 542:.\Generated_Source\PSoC5/ADC_SAR_Seq_1_SAR.c ****     #if(CY_PSOC5A)
 543:.\Generated_Source\PSoC5/ADC_SAR_Seq_1_SAR.c **** 
 544:.\Generated_Source\PSoC5/ADC_SAR_Seq_1_SAR.c ****         uint16 res;
 545:.\Generated_Source\PSoC5/ADC_SAR_Seq_1_SAR.c **** 
 546:.\Generated_Source\PSoC5/ADC_SAR_Seq_1_SAR.c ****         res = CY_GET_REG16(ADC_SAR_Seq_1_SAR_SAR_WRK_PTR);
 547:.\Generated_Source\PSoC5/ADC_SAR_Seq_1_SAR.c **** 
 548:.\Generated_Source\PSoC5/ADC_SAR_Seq_1_SAR.c ****         /* Use 12bits for PSoC5 production silicon and shift the results for lower resolution in th
 549:.\Generated_Source\PSoC5/ADC_SAR_Seq_1_SAR.c ****         switch (ADC_SAR_Seq_1_SAR_resolution)
ARM GAS  C:\Users\karunmj\AppData\Local\Temp\ccy4LQk2.s 			page 21


 550:.\Generated_Source\PSoC5/ADC_SAR_Seq_1_SAR.c ****         {
 551:.\Generated_Source\PSoC5/ADC_SAR_Seq_1_SAR.c ****             case (uint8)ADC_SAR_Seq_1_SAR__BITS_10:
 552:.\Generated_Source\PSoC5/ADC_SAR_Seq_1_SAR.c ****                 res >>= 2u;
 553:.\Generated_Source\PSoC5/ADC_SAR_Seq_1_SAR.c ****                 break;
 554:.\Generated_Source\PSoC5/ADC_SAR_Seq_1_SAR.c ****             case (uint8)ADC_SAR_Seq_1_SAR__BITS_8:
 555:.\Generated_Source\PSoC5/ADC_SAR_Seq_1_SAR.c ****                 res >>= 4u;
 556:.\Generated_Source\PSoC5/ADC_SAR_Seq_1_SAR.c ****                 break;
 557:.\Generated_Source\PSoC5/ADC_SAR_Seq_1_SAR.c ****             default: /* Do not shift for 12 bits */
 558:.\Generated_Source\PSoC5/ADC_SAR_Seq_1_SAR.c ****                 break;
 559:.\Generated_Source\PSoC5/ADC_SAR_Seq_1_SAR.c ****         }
 560:.\Generated_Source\PSoC5/ADC_SAR_Seq_1_SAR.c ****         return( (int8)((int16)res - ADC_SAR_Seq_1_SAR_shift) );
 561:.\Generated_Source\PSoC5/ADC_SAR_Seq_1_SAR.c ****     #else
 562:.\Generated_Source\PSoC5/ADC_SAR_Seq_1_SAR.c ****         return( (int8)ADC_SAR_Seq_1_SAR_SAR_WRK0_REG - (int8)ADC_SAR_Seq_1_SAR_shift);
 588              		.loc 1 562 0
 589 0004 45F6A033 		movw	r3, #:lower16:1073765280
 590 0008 C4F20003 		movt	r3, #:upper16:1073765280
 591 000c 1B78     		ldrb	r3, [r3, #0]
 592 000e DAB2     		uxtb	r2, r3
 593 0010 40F20003 		movw	r3, #:lower16:ADC_SAR_Seq_1_SAR_shift
 594 0014 C0F20003 		movt	r3, #:upper16:ADC_SAR_Seq_1_SAR_shift
 595 0018 1B88     		ldrh	r3, [r3, #0]	@ movhi
 596 001a 9BB2     		uxth	r3, r3
 597 001c DBB2     		uxtb	r3, r3
 598 001e C3EB0203 		rsb	r3, r3, r2
 599 0022 DBB2     		uxtb	r3, r3
 600 0024 5BB2     		sxtb	r3, r3
 563:.\Generated_Source\PSoC5/ADC_SAR_Seq_1_SAR.c ****     #endif /* End CY_PSOC5A */
 564:.\Generated_Source\PSoC5/ADC_SAR_Seq_1_SAR.c **** 
 565:.\Generated_Source\PSoC5/ADC_SAR_Seq_1_SAR.c **** }
 601              		.loc 1 565 0
 602 0026 1846     		mov	r0, r3
 603 0028 BD46     		mov	sp, r7
 604 002a 80BC     		pop	{r7}
 605 002c 7047     		bx	lr
 606              		.cfi_endproc
 607              	.LFE9:
 608              		.size	ADC_SAR_Seq_1_SAR_GetResult8, .-ADC_SAR_Seq_1_SAR_GetResult8
 609 002e 00BF     		.section	.text.ADC_SAR_Seq_1_SAR_GetResult16,"ax",%progbits
 610              		.align	2
 611              		.global	ADC_SAR_Seq_1_SAR_GetResult16
 612              		.thumb
 613              		.thumb_func
 614              		.type	ADC_SAR_Seq_1_SAR_GetResult16, %function
 615              	ADC_SAR_Seq_1_SAR_GetResult16:
 616              	.LFB10:
 566:.\Generated_Source\PSoC5/ADC_SAR_Seq_1_SAR.c **** 
 567:.\Generated_Source\PSoC5/ADC_SAR_Seq_1_SAR.c **** 
 568:.\Generated_Source\PSoC5/ADC_SAR_Seq_1_SAR.c **** /*******************************************************************************
 569:.\Generated_Source\PSoC5/ADC_SAR_Seq_1_SAR.c **** * Function Name: ADC_SAR_Seq_1_SAR_GetResult16
 570:.\Generated_Source\PSoC5/ADC_SAR_Seq_1_SAR.c **** ********************************************************************************
 571:.\Generated_Source\PSoC5/ADC_SAR_Seq_1_SAR.c **** *
 572:.\Generated_Source\PSoC5/ADC_SAR_Seq_1_SAR.c **** * Summary:
 573:.\Generated_Source\PSoC5/ADC_SAR_Seq_1_SAR.c **** *  Gets the data available in the SAR DATA registers.
 574:.\Generated_Source\PSoC5/ADC_SAR_Seq_1_SAR.c **** *  ADC_SAR_Seq_1_SAR_IsEndConversion() should be called to verify that the data
 575:.\Generated_Source\PSoC5/ADC_SAR_Seq_1_SAR.c **** *   sample is ready
 576:.\Generated_Source\PSoC5/ADC_SAR_Seq_1_SAR.c **** *
 577:.\Generated_Source\PSoC5/ADC_SAR_Seq_1_SAR.c **** * Parameters:
ARM GAS  C:\Users\karunmj\AppData\Local\Temp\ccy4LQk2.s 			page 22


 578:.\Generated_Source\PSoC5/ADC_SAR_Seq_1_SAR.c **** *  None.
 579:.\Generated_Source\PSoC5/ADC_SAR_Seq_1_SAR.c **** *
 580:.\Generated_Source\PSoC5/ADC_SAR_Seq_1_SAR.c **** * Return:
 581:.\Generated_Source\PSoC5/ADC_SAR_Seq_1_SAR.c **** *  ADC result. WORD value which has the converted 12bits. In the differential
 582:.\Generated_Source\PSoC5/ADC_SAR_Seq_1_SAR.c **** *  input mode the SAR ADC outputs digitally converted data in binary offset
 583:.\Generated_Source\PSoC5/ADC_SAR_Seq_1_SAR.c **** *  scheme, this function converts the data into 2's compliment form.
 584:.\Generated_Source\PSoC5/ADC_SAR_Seq_1_SAR.c **** *
 585:.\Generated_Source\PSoC5/ADC_SAR_Seq_1_SAR.c **** * Global Variables:
 586:.\Generated_Source\PSoC5/ADC_SAR_Seq_1_SAR.c **** *  ADC_SAR_Seq_1_SAR_shift - used to convert the ADC counts to the 2's
 587:.\Generated_Source\PSoC5/ADC_SAR_Seq_1_SAR.c **** *  compliment form.
 588:.\Generated_Source\PSoC5/ADC_SAR_Seq_1_SAR.c **** *  ADC_SAR_Seq_1_SAR_resolution - used to shift the results for lower
 589:.\Generated_Source\PSoC5/ADC_SAR_Seq_1_SAR.c **** *   resolution.
 590:.\Generated_Source\PSoC5/ADC_SAR_Seq_1_SAR.c **** *
 591:.\Generated_Source\PSoC5/ADC_SAR_Seq_1_SAR.c **** *******************************************************************************/
 592:.\Generated_Source\PSoC5/ADC_SAR_Seq_1_SAR.c **** int16 ADC_SAR_Seq_1_SAR_GetResult16( void )
 593:.\Generated_Source\PSoC5/ADC_SAR_Seq_1_SAR.c **** {
 617              		.loc 1 593 0
 618              		.cfi_startproc
 619              		@ args = 0, pretend = 0, frame = 8
 620              		@ frame_needed = 1, uses_anonymous_args = 0
 621              		@ link register save eliminated.
 622 0000 80B4     		push	{r7}
 623              	.LCFI25:
 624              		.cfi_def_cfa_offset 4
 625 0002 83B0     		sub	sp, sp, #12
 626              	.LCFI26:
 627              		.cfi_def_cfa_offset 16
 628 0004 00AF     		add	r7, sp, #0
 629              		.cfi_offset 7, -4
 630              	.LCFI27:
 631              		.cfi_def_cfa_register 7
 594:.\Generated_Source\PSoC5/ADC_SAR_Seq_1_SAR.c ****     uint16 res;
 595:.\Generated_Source\PSoC5/ADC_SAR_Seq_1_SAR.c **** 
 596:.\Generated_Source\PSoC5/ADC_SAR_Seq_1_SAR.c ****     res = CY_GET_REG16(ADC_SAR_Seq_1_SAR_SAR_WRK_PTR);
 632              		.loc 1 596 0
 633 0006 45F6A033 		movw	r3, #:lower16:1073765280
 634 000a C4F20003 		movt	r3, #:upper16:1073765280
 635 000e 1B88     		ldrh	r3, [r3, #0]	@ movhi
 636 0010 FB80     		strh	r3, [r7, #6]	@ movhi
 597:.\Generated_Source\PSoC5/ADC_SAR_Seq_1_SAR.c **** 
 598:.\Generated_Source\PSoC5/ADC_SAR_Seq_1_SAR.c ****     #if(CY_PSOC5A)
 599:.\Generated_Source\PSoC5/ADC_SAR_Seq_1_SAR.c ****         /* Use 12bits for PSoC5 production silicon and shift the results for lower resolution in th
 600:.\Generated_Source\PSoC5/ADC_SAR_Seq_1_SAR.c ****         switch (ADC_SAR_Seq_1_SAR_resolution)
 601:.\Generated_Source\PSoC5/ADC_SAR_Seq_1_SAR.c ****         {
 602:.\Generated_Source\PSoC5/ADC_SAR_Seq_1_SAR.c ****             case (uint8)ADC_SAR_Seq_1_SAR__BITS_10:
 603:.\Generated_Source\PSoC5/ADC_SAR_Seq_1_SAR.c ****                 res >>= 2u;
 604:.\Generated_Source\PSoC5/ADC_SAR_Seq_1_SAR.c ****                 break;
 605:.\Generated_Source\PSoC5/ADC_SAR_Seq_1_SAR.c ****             case (uint8)ADC_SAR_Seq_1_SAR__BITS_8:
 606:.\Generated_Source\PSoC5/ADC_SAR_Seq_1_SAR.c ****                 res >>= 4u;
 607:.\Generated_Source\PSoC5/ADC_SAR_Seq_1_SAR.c ****                 break;
 608:.\Generated_Source\PSoC5/ADC_SAR_Seq_1_SAR.c ****             default: /* Do not shift for 12 bits */
 609:.\Generated_Source\PSoC5/ADC_SAR_Seq_1_SAR.c ****                 break;
 610:.\Generated_Source\PSoC5/ADC_SAR_Seq_1_SAR.c ****         }
 611:.\Generated_Source\PSoC5/ADC_SAR_Seq_1_SAR.c ****     #endif /* End CY_PSOC5A */
 612:.\Generated_Source\PSoC5/ADC_SAR_Seq_1_SAR.c **** 
 613:.\Generated_Source\PSoC5/ADC_SAR_Seq_1_SAR.c ****     return( (int16)res - ADC_SAR_Seq_1_SAR_shift );
 637              		.loc 1 613 0
ARM GAS  C:\Users\karunmj\AppData\Local\Temp\ccy4LQk2.s 			page 23


 638 0012 40F20003 		movw	r3, #:lower16:ADC_SAR_Seq_1_SAR_shift
 639 0016 C0F20003 		movt	r3, #:upper16:ADC_SAR_Seq_1_SAR_shift
 640 001a 1B88     		ldrh	r3, [r3, #0]	@ movhi
 641 001c 9BB2     		uxth	r3, r3
 642 001e 9BB2     		uxth	r3, r3
 643 0020 FA88     		ldrh	r2, [r7, #6]	@ movhi
 644 0022 C3EB0203 		rsb	r3, r3, r2
 645 0026 9BB2     		uxth	r3, r3
 646 0028 1BB2     		sxth	r3, r3
 614:.\Generated_Source\PSoC5/ADC_SAR_Seq_1_SAR.c **** }
 647              		.loc 1 614 0
 648 002a 1846     		mov	r0, r3
 649 002c 07F10C07 		add	r7, r7, #12
 650 0030 BD46     		mov	sp, r7
 651 0032 80BC     		pop	{r7}
 652 0034 7047     		bx	lr
 653              		.cfi_endproc
 654              	.LFE10:
 655              		.size	ADC_SAR_Seq_1_SAR_GetResult16, .-ADC_SAR_Seq_1_SAR_GetResult16
 656 0036 00BF     		.section	.text.ADC_SAR_Seq_1_SAR_SetOffset,"ax",%progbits
 657              		.align	2
 658              		.global	ADC_SAR_Seq_1_SAR_SetOffset
 659              		.thumb
 660              		.thumb_func
 661              		.type	ADC_SAR_Seq_1_SAR_SetOffset, %function
 662              	ADC_SAR_Seq_1_SAR_SetOffset:
 663              	.LFB11:
 615:.\Generated_Source\PSoC5/ADC_SAR_Seq_1_SAR.c **** 
 616:.\Generated_Source\PSoC5/ADC_SAR_Seq_1_SAR.c **** 
 617:.\Generated_Source\PSoC5/ADC_SAR_Seq_1_SAR.c **** /*******************************************************************************
 618:.\Generated_Source\PSoC5/ADC_SAR_Seq_1_SAR.c **** * Function Name: ADC_SAR_Seq_1_SAR_SetOffset
 619:.\Generated_Source\PSoC5/ADC_SAR_Seq_1_SAR.c **** ********************************************************************************
 620:.\Generated_Source\PSoC5/ADC_SAR_Seq_1_SAR.c **** *
 621:.\Generated_Source\PSoC5/ADC_SAR_Seq_1_SAR.c **** * Summary:
 622:.\Generated_Source\PSoC5/ADC_SAR_Seq_1_SAR.c **** *  This function sets the offset for voltage readings.
 623:.\Generated_Source\PSoC5/ADC_SAR_Seq_1_SAR.c **** *
 624:.\Generated_Source\PSoC5/ADC_SAR_Seq_1_SAR.c **** * Parameters:
 625:.\Generated_Source\PSoC5/ADC_SAR_Seq_1_SAR.c **** *  int16: Offset in counts
 626:.\Generated_Source\PSoC5/ADC_SAR_Seq_1_SAR.c **** *
 627:.\Generated_Source\PSoC5/ADC_SAR_Seq_1_SAR.c **** * Return:
 628:.\Generated_Source\PSoC5/ADC_SAR_Seq_1_SAR.c **** *  None.
 629:.\Generated_Source\PSoC5/ADC_SAR_Seq_1_SAR.c **** *
 630:.\Generated_Source\PSoC5/ADC_SAR_Seq_1_SAR.c **** * Global Variables:
 631:.\Generated_Source\PSoC5/ADC_SAR_Seq_1_SAR.c **** *  The ADC_SAR_Seq_1_SAR_offset variable modified. This variable is used for
 632:.\Generated_Source\PSoC5/ADC_SAR_Seq_1_SAR.c **** *  offset calibration purpose.
 633:.\Generated_Source\PSoC5/ADC_SAR_Seq_1_SAR.c **** *  Affects the ADC_SAR_Seq_1_SAR_CountsTo_Volts,
 634:.\Generated_Source\PSoC5/ADC_SAR_Seq_1_SAR.c **** *  ADC_SAR_Seq_1_SAR_CountsTo_mVolts, ADC_SAR_Seq_1_SAR_CountsTo_uVolts functions
 635:.\Generated_Source\PSoC5/ADC_SAR_Seq_1_SAR.c **** *  by subtracting the given offset.
 636:.\Generated_Source\PSoC5/ADC_SAR_Seq_1_SAR.c **** *
 637:.\Generated_Source\PSoC5/ADC_SAR_Seq_1_SAR.c **** *******************************************************************************/
 638:.\Generated_Source\PSoC5/ADC_SAR_Seq_1_SAR.c **** void ADC_SAR_Seq_1_SAR_SetOffset(int16 offset)
 639:.\Generated_Source\PSoC5/ADC_SAR_Seq_1_SAR.c **** {
 664              		.loc 1 639 0
 665              		.cfi_startproc
 666              		@ args = 0, pretend = 0, frame = 8
 667              		@ frame_needed = 1, uses_anonymous_args = 0
 668              		@ link register save eliminated.
ARM GAS  C:\Users\karunmj\AppData\Local\Temp\ccy4LQk2.s 			page 24


 669 0000 80B4     		push	{r7}
 670              	.LCFI28:
 671              		.cfi_def_cfa_offset 4
 672 0002 83B0     		sub	sp, sp, #12
 673              	.LCFI29:
 674              		.cfi_def_cfa_offset 16
 675 0004 00AF     		add	r7, sp, #0
 676              		.cfi_offset 7, -4
 677              	.LCFI30:
 678              		.cfi_def_cfa_register 7
 679 0006 0346     		mov	r3, r0
 680 0008 FB80     		strh	r3, [r7, #6]	@ movhi
 640:.\Generated_Source\PSoC5/ADC_SAR_Seq_1_SAR.c ****     ADC_SAR_Seq_1_SAR_offset = offset;
 681              		.loc 1 640 0
 682 000a 40F20003 		movw	r3, #:lower16:ADC_SAR_Seq_1_SAR_offset
 683 000e C0F20003 		movt	r3, #:upper16:ADC_SAR_Seq_1_SAR_offset
 684 0012 FA88     		ldrh	r2, [r7, #6]	@ movhi
 685 0014 1A80     		strh	r2, [r3, #0]	@ movhi
 641:.\Generated_Source\PSoC5/ADC_SAR_Seq_1_SAR.c **** }
 686              		.loc 1 641 0
 687 0016 07F10C07 		add	r7, r7, #12
 688 001a BD46     		mov	sp, r7
 689 001c 80BC     		pop	{r7}
 690 001e 7047     		bx	lr
 691              		.cfi_endproc
 692              	.LFE11:
 693              		.size	ADC_SAR_Seq_1_SAR_SetOffset, .-ADC_SAR_Seq_1_SAR_SetOffset
 694              		.section	.text.ADC_SAR_Seq_1_SAR_CalcGain,"ax",%progbits
 695              		.align	2
 696              		.thumb
 697              		.thumb_func
 698              		.type	ADC_SAR_Seq_1_SAR_CalcGain, %function
 699              	ADC_SAR_Seq_1_SAR_CalcGain:
 700              	.LFB12:
 642:.\Generated_Source\PSoC5/ADC_SAR_Seq_1_SAR.c **** 
 643:.\Generated_Source\PSoC5/ADC_SAR_Seq_1_SAR.c **** 
 644:.\Generated_Source\PSoC5/ADC_SAR_Seq_1_SAR.c **** /*******************************************************************************
 645:.\Generated_Source\PSoC5/ADC_SAR_Seq_1_SAR.c **** * Function Name: ADC_SAR_Seq_1_SAR_CalcGain
 646:.\Generated_Source\PSoC5/ADC_SAR_Seq_1_SAR.c **** ********************************************************************************
 647:.\Generated_Source\PSoC5/ADC_SAR_Seq_1_SAR.c **** *
 648:.\Generated_Source\PSoC5/ADC_SAR_Seq_1_SAR.c **** * Summary:
 649:.\Generated_Source\PSoC5/ADC_SAR_Seq_1_SAR.c **** *  This function calculates the ADC gain in counts per volt.
 650:.\Generated_Source\PSoC5/ADC_SAR_Seq_1_SAR.c **** *
 651:.\Generated_Source\PSoC5/ADC_SAR_Seq_1_SAR.c **** * Parameters:
 652:.\Generated_Source\PSoC5/ADC_SAR_Seq_1_SAR.c **** *  uint8: resolution
 653:.\Generated_Source\PSoC5/ADC_SAR_Seq_1_SAR.c **** *
 654:.\Generated_Source\PSoC5/ADC_SAR_Seq_1_SAR.c **** * Return:
 655:.\Generated_Source\PSoC5/ADC_SAR_Seq_1_SAR.c **** *  None.
 656:.\Generated_Source\PSoC5/ADC_SAR_Seq_1_SAR.c **** *
 657:.\Generated_Source\PSoC5/ADC_SAR_Seq_1_SAR.c **** * Global Variables:
 658:.\Generated_Source\PSoC5/ADC_SAR_Seq_1_SAR.c **** *  ADC_SAR_Seq_1_SAR_shift variable initialized. This variable is used to
 659:.\Generated_Source\PSoC5/ADC_SAR_Seq_1_SAR.c **** *  convert the ADC counts to the 2's compliment form.
 660:.\Generated_Source\PSoC5/ADC_SAR_Seq_1_SAR.c **** *  ADC_SAR_Seq_1_SAR_countsPerVolt variable initialized. This variable is used
 661:.\Generated_Source\PSoC5/ADC_SAR_Seq_1_SAR.c **** *  for gain calibration purpose.
 662:.\Generated_Source\PSoC5/ADC_SAR_Seq_1_SAR.c **** *
 663:.\Generated_Source\PSoC5/ADC_SAR_Seq_1_SAR.c **** *******************************************************************************/
 664:.\Generated_Source\PSoC5/ADC_SAR_Seq_1_SAR.c **** static void ADC_SAR_Seq_1_SAR_CalcGain( uint8 resolution )
ARM GAS  C:\Users\karunmj\AppData\Local\Temp\ccy4LQk2.s 			page 25


 665:.\Generated_Source\PSoC5/ADC_SAR_Seq_1_SAR.c **** {
 701              		.loc 1 665 0
 702              		.cfi_startproc
 703              		@ args = 0, pretend = 0, frame = 16
 704              		@ frame_needed = 1, uses_anonymous_args = 0
 705 0000 80B5     		push	{r7, lr}
 706              	.LCFI31:
 707              		.cfi_def_cfa_offset 8
 708 0002 84B0     		sub	sp, sp, #16
 709              	.LCFI32:
 710              		.cfi_def_cfa_offset 24
 711 0004 00AF     		add	r7, sp, #0
 712              		.cfi_offset 14, -4
 713              		.cfi_offset 7, -8
 714              	.LCFI33:
 715              		.cfi_def_cfa_register 7
 716 0006 0346     		mov	r3, r0
 717 0008 FB71     		strb	r3, [r7, #7]
 666:.\Generated_Source\PSoC5/ADC_SAR_Seq_1_SAR.c ****     int32 counts;
 667:.\Generated_Source\PSoC5/ADC_SAR_Seq_1_SAR.c ****     #if(!((ADC_SAR_Seq_1_SAR_DEFAULT_RANGE == ADC_SAR_Seq_1_SAR__VSS_TO_VREF) || \
 668:.\Generated_Source\PSoC5/ADC_SAR_Seq_1_SAR.c ****          (ADC_SAR_Seq_1_SAR_DEFAULT_RANGE == ADC_SAR_Seq_1_SAR__VSSA_TO_VDDA) || \
 669:.\Generated_Source\PSoC5/ADC_SAR_Seq_1_SAR.c ****          (ADC_SAR_Seq_1_SAR_DEFAULT_RANGE == ADC_SAR_Seq_1_SAR__VSSA_TO_VDAC)) )
 670:.\Generated_Source\PSoC5/ADC_SAR_Seq_1_SAR.c ****         uint16 diff_zero;
 671:.\Generated_Source\PSoC5/ADC_SAR_Seq_1_SAR.c ****     #endif /* End ADC_SAR_Seq_1_SAR_DEFAULT_RANGE */
 672:.\Generated_Source\PSoC5/ADC_SAR_Seq_1_SAR.c **** 
 673:.\Generated_Source\PSoC5/ADC_SAR_Seq_1_SAR.c ****     switch (resolution)
 718              		.loc 1 673 0
 719 000a FB79     		ldrb	r3, [r7, #7]	@ zero_extendqisi2
 720 000c 0A2B     		cmp	r3, #10
 721 000e 08D0     		beq	.L38
 722 0010 0C2B     		cmp	r3, #12
 723 0012 02D0     		beq	.L39
 724 0014 082B     		cmp	r3, #8
 725 0016 08D0     		beq	.L37
 726 0018 0BE0     		b	.L42
 727              	.L39:
 674:.\Generated_Source\PSoC5/ADC_SAR_Seq_1_SAR.c ****     {
 675:.\Generated_Source\PSoC5/ADC_SAR_Seq_1_SAR.c ****         case (uint8)ADC_SAR_Seq_1_SAR__BITS_12:
 676:.\Generated_Source\PSoC5/ADC_SAR_Seq_1_SAR.c ****             counts = (int32)ADC_SAR_Seq_1_SAR_SAR_WRK_MAX;
 728              		.loc 1 676 0
 729 001a 40F6FF73 		movw	r3, #4095
 730 001e FB60     		str	r3, [r7, #12]
 677:.\Generated_Source\PSoC5/ADC_SAR_Seq_1_SAR.c ****             #if(!((ADC_SAR_Seq_1_SAR_DEFAULT_RANGE == ADC_SAR_Seq_1_SAR__VSS_TO_VREF) || \
 678:.\Generated_Source\PSoC5/ADC_SAR_Seq_1_SAR.c ****                  (ADC_SAR_Seq_1_SAR_DEFAULT_RANGE == ADC_SAR_Seq_1_SAR__VSSA_TO_VDDA) || \
 679:.\Generated_Source\PSoC5/ADC_SAR_Seq_1_SAR.c ****                  (ADC_SAR_Seq_1_SAR_DEFAULT_RANGE == ADC_SAR_Seq_1_SAR__VSSA_TO_VDAC)) )
 680:.\Generated_Source\PSoC5/ADC_SAR_Seq_1_SAR.c ****                 diff_zero = ADC_SAR_Seq_1_SAR_SAR_DIFF_SHIFT;
 681:.\Generated_Source\PSoC5/ADC_SAR_Seq_1_SAR.c ****             #endif /* End ADC_SAR_Seq_1_SAR_DEFAULT_RANGE */
 682:.\Generated_Source\PSoC5/ADC_SAR_Seq_1_SAR.c ****             break;
 731              		.loc 1 682 0
 732 0020 0EE0     		b	.L40
 733              	.L38:
 683:.\Generated_Source\PSoC5/ADC_SAR_Seq_1_SAR.c ****         case (uint8)ADC_SAR_Seq_1_SAR__BITS_10:
 684:.\Generated_Source\PSoC5/ADC_SAR_Seq_1_SAR.c ****             counts = (int32)(ADC_SAR_Seq_1_SAR_SAR_WRK_MAX >> 2u);
 734              		.loc 1 684 0
 735 0022 40F2FF33 		movw	r3, #1023
 736 0026 FB60     		str	r3, [r7, #12]
 685:.\Generated_Source\PSoC5/ADC_SAR_Seq_1_SAR.c ****             #if(!((ADC_SAR_Seq_1_SAR_DEFAULT_RANGE == ADC_SAR_Seq_1_SAR__VSS_TO_VREF) || \
ARM GAS  C:\Users\karunmj\AppData\Local\Temp\ccy4LQk2.s 			page 26


 686:.\Generated_Source\PSoC5/ADC_SAR_Seq_1_SAR.c ****                  (ADC_SAR_Seq_1_SAR_DEFAULT_RANGE == ADC_SAR_Seq_1_SAR__VSSA_TO_VDDA) || \
 687:.\Generated_Source\PSoC5/ADC_SAR_Seq_1_SAR.c ****                  (ADC_SAR_Seq_1_SAR_DEFAULT_RANGE == ADC_SAR_Seq_1_SAR__VSSA_TO_VDAC)) )
 688:.\Generated_Source\PSoC5/ADC_SAR_Seq_1_SAR.c ****                 diff_zero = ADC_SAR_Seq_1_SAR_SAR_DIFF_SHIFT >> 2u;
 689:.\Generated_Source\PSoC5/ADC_SAR_Seq_1_SAR.c ****             #endif /* End ADC_SAR_Seq_1_SAR_DEFAULT_RANGE */
 690:.\Generated_Source\PSoC5/ADC_SAR_Seq_1_SAR.c ****             break;
 737              		.loc 1 690 0
 738 0028 0AE0     		b	.L40
 739              	.L37:
 691:.\Generated_Source\PSoC5/ADC_SAR_Seq_1_SAR.c ****         case (uint8)ADC_SAR_Seq_1_SAR__BITS_8:
 692:.\Generated_Source\PSoC5/ADC_SAR_Seq_1_SAR.c ****             counts = (int32)(ADC_SAR_Seq_1_SAR_SAR_WRK_MAX >> 4u);
 740              		.loc 1 692 0
 741 002a 4FF0FF03 		mov	r3, #255
 742 002e FB60     		str	r3, [r7, #12]
 693:.\Generated_Source\PSoC5/ADC_SAR_Seq_1_SAR.c ****             #if(!((ADC_SAR_Seq_1_SAR_DEFAULT_RANGE == ADC_SAR_Seq_1_SAR__VSS_TO_VREF) || \
 694:.\Generated_Source\PSoC5/ADC_SAR_Seq_1_SAR.c ****                  (ADC_SAR_Seq_1_SAR_DEFAULT_RANGE == ADC_SAR_Seq_1_SAR__VSSA_TO_VDDA) || \
 695:.\Generated_Source\PSoC5/ADC_SAR_Seq_1_SAR.c ****                  (ADC_SAR_Seq_1_SAR_DEFAULT_RANGE == ADC_SAR_Seq_1_SAR__VSSA_TO_VDAC)) )
 696:.\Generated_Source\PSoC5/ADC_SAR_Seq_1_SAR.c ****                 diff_zero = ADC_SAR_Seq_1_SAR_SAR_DIFF_SHIFT >> 4u;
 697:.\Generated_Source\PSoC5/ADC_SAR_Seq_1_SAR.c ****             #endif /* End ADC_SAR_Seq_1_SAR_DEFAULT_RANGE */
 698:.\Generated_Source\PSoC5/ADC_SAR_Seq_1_SAR.c ****             break;
 743              		.loc 1 698 0
 744 0030 06E0     		b	.L40
 745              	.L42:
 699:.\Generated_Source\PSoC5/ADC_SAR_Seq_1_SAR.c ****         default: /* Halt CPU in debug mode if resolution is out of valid range */
 700:.\Generated_Source\PSoC5/ADC_SAR_Seq_1_SAR.c ****             counts = 0;
 746              		.loc 1 700 0
 747 0032 4FF00003 		mov	r3, #0
 748 0036 FB60     		str	r3, [r7, #12]
 701:.\Generated_Source\PSoC5/ADC_SAR_Seq_1_SAR.c ****             #if(!((ADC_SAR_Seq_1_SAR_DEFAULT_RANGE == ADC_SAR_Seq_1_SAR__VSS_TO_VREF) || \
 702:.\Generated_Source\PSoC5/ADC_SAR_Seq_1_SAR.c ****                  (ADC_SAR_Seq_1_SAR_DEFAULT_RANGE == ADC_SAR_Seq_1_SAR__VSSA_TO_VDDA) || \
 703:.\Generated_Source\PSoC5/ADC_SAR_Seq_1_SAR.c ****                  (ADC_SAR_Seq_1_SAR_DEFAULT_RANGE == ADC_SAR_Seq_1_SAR__VSSA_TO_VDAC)) )
 704:.\Generated_Source\PSoC5/ADC_SAR_Seq_1_SAR.c ****                 diff_zero = 0u;
 705:.\Generated_Source\PSoC5/ADC_SAR_Seq_1_SAR.c ****             #endif /* End ADC_SAR_Seq_1_SAR_DEFAULT_RANGE */
 706:.\Generated_Source\PSoC5/ADC_SAR_Seq_1_SAR.c ****             CYASSERT(0u != 0u);
 749              		.loc 1 706 0
 750 0038 4FF00000 		mov	r0, #0
 751 003c FFF7FEFF 		bl	CyHalt
 752              	.L40:
 707:.\Generated_Source\PSoC5/ADC_SAR_Seq_1_SAR.c ****             break;
 708:.\Generated_Source\PSoC5/ADC_SAR_Seq_1_SAR.c ****     }
 709:.\Generated_Source\PSoC5/ADC_SAR_Seq_1_SAR.c ****     counts *= 1000; /* To avoid float point arithmetic*/
 753              		.loc 1 709 0
 754 0040 FB68     		ldr	r3, [r7, #12]
 755 0042 4FF47A72 		mov	r2, #1000
 756 0046 02FB03F3 		mul	r3, r2, r3
 757 004a FB60     		str	r3, [r7, #12]
 710:.\Generated_Source\PSoC5/ADC_SAR_Seq_1_SAR.c ****     ADC_SAR_Seq_1_SAR_countsPerVolt = (int16)(counts / ADC_SAR_Seq_1_SAR_DEFAULT_REF_VOLTAGE_MV / 2
 758              		.loc 1 710 0
 759 004c FA68     		ldr	r2, [r7, #12]
 760 004e 48F6AD33 		movw	r3, #:lower16:1759218605
 761 0052 C6F6DB03 		movt	r3, #:upper16:1759218605
 762 0056 83FB0213 		smull	r1, r3, r3, r2
 763 005a 4FEAE321 		asr	r1, r3, #11
 764 005e 4FEAE273 		asr	r3, r2, #31
 765 0062 C3EB0103 		rsb	r3, r3, r1
 766 0066 9AB2     		uxth	r2, r3
 767 0068 40F20003 		movw	r3, #:lower16:ADC_SAR_Seq_1_SAR_countsPerVolt
 768 006c C0F20003 		movt	r3, #:upper16:ADC_SAR_Seq_1_SAR_countsPerVolt
ARM GAS  C:\Users\karunmj\AppData\Local\Temp\ccy4LQk2.s 			page 27


 769 0070 1A80     		strh	r2, [r3, #0]	@ movhi
 711:.\Generated_Source\PSoC5/ADC_SAR_Seq_1_SAR.c **** 
 712:.\Generated_Source\PSoC5/ADC_SAR_Seq_1_SAR.c ****     #if( (ADC_SAR_Seq_1_SAR_DEFAULT_RANGE == ADC_SAR_Seq_1_SAR__VSS_TO_VREF) || \
 713:.\Generated_Source\PSoC5/ADC_SAR_Seq_1_SAR.c ****          (ADC_SAR_Seq_1_SAR_DEFAULT_RANGE == ADC_SAR_Seq_1_SAR__VSSA_TO_VDDA) || \
 714:.\Generated_Source\PSoC5/ADC_SAR_Seq_1_SAR.c ****          (ADC_SAR_Seq_1_SAR_DEFAULT_RANGE == ADC_SAR_Seq_1_SAR__VSSA_TO_VDAC) )
 715:.\Generated_Source\PSoC5/ADC_SAR_Seq_1_SAR.c ****         ADC_SAR_Seq_1_SAR_shift = 0;
 770              		.loc 1 715 0
 771 0072 40F20003 		movw	r3, #:lower16:ADC_SAR_Seq_1_SAR_shift
 772 0076 C0F20003 		movt	r3, #:upper16:ADC_SAR_Seq_1_SAR_shift
 773 007a 4FF00002 		mov	r2, #0
 774 007e 1A80     		strh	r2, [r3, #0]	@ movhi
 716:.\Generated_Source\PSoC5/ADC_SAR_Seq_1_SAR.c ****     #else
 717:.\Generated_Source\PSoC5/ADC_SAR_Seq_1_SAR.c ****         ADC_SAR_Seq_1_SAR_shift = diff_zero;
 718:.\Generated_Source\PSoC5/ADC_SAR_Seq_1_SAR.c ****     #endif /* End ADC_SAR_Seq_1_SAR_DEFAULT_RANGE */
 719:.\Generated_Source\PSoC5/ADC_SAR_Seq_1_SAR.c **** }
 775              		.loc 1 719 0
 776 0080 07F11007 		add	r7, r7, #16
 777 0084 BD46     		mov	sp, r7
 778 0086 80BD     		pop	{r7, pc}
 779              		.cfi_endproc
 780              	.LFE12:
 781              		.size	ADC_SAR_Seq_1_SAR_CalcGain, .-ADC_SAR_Seq_1_SAR_CalcGain
 782              		.section	.text.ADC_SAR_Seq_1_SAR_SetGain,"ax",%progbits
 783              		.align	2
 784              		.global	ADC_SAR_Seq_1_SAR_SetGain
 785              		.thumb
 786              		.thumb_func
 787              		.type	ADC_SAR_Seq_1_SAR_SetGain, %function
 788              	ADC_SAR_Seq_1_SAR_SetGain:
 789              	.LFB13:
 720:.\Generated_Source\PSoC5/ADC_SAR_Seq_1_SAR.c **** 
 721:.\Generated_Source\PSoC5/ADC_SAR_Seq_1_SAR.c **** 
 722:.\Generated_Source\PSoC5/ADC_SAR_Seq_1_SAR.c **** /*******************************************************************************
 723:.\Generated_Source\PSoC5/ADC_SAR_Seq_1_SAR.c **** * Function Name: ADC_SAR_Seq_1_SAR_SetGain
 724:.\Generated_Source\PSoC5/ADC_SAR_Seq_1_SAR.c **** ********************************************************************************
 725:.\Generated_Source\PSoC5/ADC_SAR_Seq_1_SAR.c **** *
 726:.\Generated_Source\PSoC5/ADC_SAR_Seq_1_SAR.c **** * Summary:
 727:.\Generated_Source\PSoC5/ADC_SAR_Seq_1_SAR.c **** *  This function sets the ADC gain in counts per volt.
 728:.\Generated_Source\PSoC5/ADC_SAR_Seq_1_SAR.c **** *
 729:.\Generated_Source\PSoC5/ADC_SAR_Seq_1_SAR.c **** * Parameters:
 730:.\Generated_Source\PSoC5/ADC_SAR_Seq_1_SAR.c **** *  int16  adcGain  counts per volt
 731:.\Generated_Source\PSoC5/ADC_SAR_Seq_1_SAR.c **** *
 732:.\Generated_Source\PSoC5/ADC_SAR_Seq_1_SAR.c **** * Return:
 733:.\Generated_Source\PSoC5/ADC_SAR_Seq_1_SAR.c **** *  None.
 734:.\Generated_Source\PSoC5/ADC_SAR_Seq_1_SAR.c **** *
 735:.\Generated_Source\PSoC5/ADC_SAR_Seq_1_SAR.c **** * Global Variables:
 736:.\Generated_Source\PSoC5/ADC_SAR_Seq_1_SAR.c **** *  ADC_SAR_Seq_1_SAR_countsPerVolt variable modified. This variable is used
 737:.\Generated_Source\PSoC5/ADC_SAR_Seq_1_SAR.c **** *  for gain calibration purpose.
 738:.\Generated_Source\PSoC5/ADC_SAR_Seq_1_SAR.c **** *
 739:.\Generated_Source\PSoC5/ADC_SAR_Seq_1_SAR.c **** *******************************************************************************/
 740:.\Generated_Source\PSoC5/ADC_SAR_Seq_1_SAR.c **** void ADC_SAR_Seq_1_SAR_SetGain(int16 adcGain)
 741:.\Generated_Source\PSoC5/ADC_SAR_Seq_1_SAR.c **** {
 790              		.loc 1 741 0
 791              		.cfi_startproc
 792              		@ args = 0, pretend = 0, frame = 8
 793              		@ frame_needed = 1, uses_anonymous_args = 0
 794              		@ link register save eliminated.
ARM GAS  C:\Users\karunmj\AppData\Local\Temp\ccy4LQk2.s 			page 28


 795 0000 80B4     		push	{r7}
 796              	.LCFI34:
 797              		.cfi_def_cfa_offset 4
 798 0002 83B0     		sub	sp, sp, #12
 799              	.LCFI35:
 800              		.cfi_def_cfa_offset 16
 801 0004 00AF     		add	r7, sp, #0
 802              		.cfi_offset 7, -4
 803              	.LCFI36:
 804              		.cfi_def_cfa_register 7
 805 0006 0346     		mov	r3, r0
 806 0008 FB80     		strh	r3, [r7, #6]	@ movhi
 742:.\Generated_Source\PSoC5/ADC_SAR_Seq_1_SAR.c ****     ADC_SAR_Seq_1_SAR_countsPerVolt = adcGain;
 807              		.loc 1 742 0
 808 000a 40F20003 		movw	r3, #:lower16:ADC_SAR_Seq_1_SAR_countsPerVolt
 809 000e C0F20003 		movt	r3, #:upper16:ADC_SAR_Seq_1_SAR_countsPerVolt
 810 0012 FA88     		ldrh	r2, [r7, #6]	@ movhi
 811 0014 1A80     		strh	r2, [r3, #0]	@ movhi
 743:.\Generated_Source\PSoC5/ADC_SAR_Seq_1_SAR.c **** }
 812              		.loc 1 743 0
 813 0016 07F10C07 		add	r7, r7, #12
 814 001a BD46     		mov	sp, r7
 815 001c 80BC     		pop	{r7}
 816 001e 7047     		bx	lr
 817              		.cfi_endproc
 818              	.LFE13:
 819              		.size	ADC_SAR_Seq_1_SAR_SetGain, .-ADC_SAR_Seq_1_SAR_SetGain
 820              		.section	.text.ADC_SAR_Seq_1_SAR_CountsTo_mVolts,"ax",%progbits
 821              		.align	2
 822              		.global	ADC_SAR_Seq_1_SAR_CountsTo_mVolts
 823              		.thumb
 824              		.thumb_func
 825              		.type	ADC_SAR_Seq_1_SAR_CountsTo_mVolts, %function
 826              	ADC_SAR_Seq_1_SAR_CountsTo_mVolts:
 827              	.LFB14:
 744:.\Generated_Source\PSoC5/ADC_SAR_Seq_1_SAR.c **** 
 745:.\Generated_Source\PSoC5/ADC_SAR_Seq_1_SAR.c **** 
 746:.\Generated_Source\PSoC5/ADC_SAR_Seq_1_SAR.c **** /*******************************************************************************
 747:.\Generated_Source\PSoC5/ADC_SAR_Seq_1_SAR.c **** * Function Name: ADC_SAR_Seq_1_SAR_CountsTo_mVolts
 748:.\Generated_Source\PSoC5/ADC_SAR_Seq_1_SAR.c **** ********************************************************************************
 749:.\Generated_Source\PSoC5/ADC_SAR_Seq_1_SAR.c **** *
 750:.\Generated_Source\PSoC5/ADC_SAR_Seq_1_SAR.c **** * Summary:
 751:.\Generated_Source\PSoC5/ADC_SAR_Seq_1_SAR.c **** *  This function converts ADC counts to mVolts
 752:.\Generated_Source\PSoC5/ADC_SAR_Seq_1_SAR.c **** *
 753:.\Generated_Source\PSoC5/ADC_SAR_Seq_1_SAR.c **** * Parameters:
 754:.\Generated_Source\PSoC5/ADC_SAR_Seq_1_SAR.c **** *  int16  adcCounts   Reading from ADC.
 755:.\Generated_Source\PSoC5/ADC_SAR_Seq_1_SAR.c **** *
 756:.\Generated_Source\PSoC5/ADC_SAR_Seq_1_SAR.c **** * Return:
 757:.\Generated_Source\PSoC5/ADC_SAR_Seq_1_SAR.c **** *  int16  Result in mVolts
 758:.\Generated_Source\PSoC5/ADC_SAR_Seq_1_SAR.c **** *
 759:.\Generated_Source\PSoC5/ADC_SAR_Seq_1_SAR.c **** * Global Variables:
 760:.\Generated_Source\PSoC5/ADC_SAR_Seq_1_SAR.c **** *  ADC_SAR_Seq_1_SAR_offset variable used.
 761:.\Generated_Source\PSoC5/ADC_SAR_Seq_1_SAR.c **** *  ADC_SAR_Seq_1_SAR_countsPerVolt variable used.
 762:.\Generated_Source\PSoC5/ADC_SAR_Seq_1_SAR.c **** *
 763:.\Generated_Source\PSoC5/ADC_SAR_Seq_1_SAR.c **** *******************************************************************************/
 764:.\Generated_Source\PSoC5/ADC_SAR_Seq_1_SAR.c **** int16 ADC_SAR_Seq_1_SAR_CountsTo_mVolts(int16 adcCounts)
 765:.\Generated_Source\PSoC5/ADC_SAR_Seq_1_SAR.c **** {
ARM GAS  C:\Users\karunmj\AppData\Local\Temp\ccy4LQk2.s 			page 29


 828              		.loc 1 765 0
 829              		.cfi_startproc
 830              		@ args = 0, pretend = 0, frame = 16
 831              		@ frame_needed = 1, uses_anonymous_args = 0
 832              		@ link register save eliminated.
 833 0000 80B4     		push	{r7}
 834              	.LCFI37:
 835              		.cfi_def_cfa_offset 4
 836 0002 85B0     		sub	sp, sp, #20
 837              	.LCFI38:
 838              		.cfi_def_cfa_offset 24
 839 0004 00AF     		add	r7, sp, #0
 840              		.cfi_offset 7, -4
 841              	.LCFI39:
 842              		.cfi_def_cfa_register 7
 843 0006 0346     		mov	r3, r0
 844 0008 FB80     		strh	r3, [r7, #6]	@ movhi
 766:.\Generated_Source\PSoC5/ADC_SAR_Seq_1_SAR.c **** 
 767:.\Generated_Source\PSoC5/ADC_SAR_Seq_1_SAR.c ****     int16 mVolts;
 768:.\Generated_Source\PSoC5/ADC_SAR_Seq_1_SAR.c **** 
 769:.\Generated_Source\PSoC5/ADC_SAR_Seq_1_SAR.c ****     /* Subtract ADC offset */
 770:.\Generated_Source\PSoC5/ADC_SAR_Seq_1_SAR.c ****     adcCounts -= ADC_SAR_Seq_1_SAR_offset;
 845              		.loc 1 770 0
 846 000a FA88     		ldrh	r2, [r7, #6]
 847 000c 40F20003 		movw	r3, #:lower16:ADC_SAR_Seq_1_SAR_offset
 848 0010 C0F20003 		movt	r3, #:upper16:ADC_SAR_Seq_1_SAR_offset
 849 0014 1B88     		ldrh	r3, [r3, #0]	@ movhi
 850 0016 9BB2     		uxth	r3, r3
 851 0018 9BB2     		uxth	r3, r3
 852 001a C3EB0203 		rsb	r3, r3, r2
 853 001e 9BB2     		uxth	r3, r3
 854 0020 FB80     		strh	r3, [r7, #6]	@ movhi
 771:.\Generated_Source\PSoC5/ADC_SAR_Seq_1_SAR.c **** 
 772:.\Generated_Source\PSoC5/ADC_SAR_Seq_1_SAR.c ****     mVolts = (int16)(( (int32)adcCounts * 1000 ) / ADC_SAR_Seq_1_SAR_countsPerVolt) ;
 855              		.loc 1 772 0
 856 0022 B7F90630 		ldrsh	r3, [r7, #6]
 857 0026 4FF47A72 		mov	r2, #1000
 858 002a 02FB03F2 		mul	r2, r2, r3
 859 002e 40F20003 		movw	r3, #:lower16:ADC_SAR_Seq_1_SAR_countsPerVolt
 860 0032 C0F20003 		movt	r3, #:upper16:ADC_SAR_Seq_1_SAR_countsPerVolt
 861 0036 1B88     		ldrh	r3, [r3, #0]	@ movhi
 862 0038 9BB2     		uxth	r3, r3
 863 003a 1BB2     		sxth	r3, r3
 864 003c 92FBF3F3 		sdiv	r3, r2, r3
 865 0040 FB81     		strh	r3, [r7, #14]	@ movhi
 773:.\Generated_Source\PSoC5/ADC_SAR_Seq_1_SAR.c **** 
 774:.\Generated_Source\PSoC5/ADC_SAR_Seq_1_SAR.c ****     return( mVolts );
 866              		.loc 1 774 0
 867 0042 FB89     		ldrh	r3, [r7, #14]
 868 0044 1BB2     		sxth	r3, r3
 775:.\Generated_Source\PSoC5/ADC_SAR_Seq_1_SAR.c **** }
 869              		.loc 1 775 0
 870 0046 1846     		mov	r0, r3
 871 0048 07F11407 		add	r7, r7, #20
 872 004c BD46     		mov	sp, r7
 873 004e 80BC     		pop	{r7}
 874 0050 7047     		bx	lr
ARM GAS  C:\Users\karunmj\AppData\Local\Temp\ccy4LQk2.s 			page 30


 875              		.cfi_endproc
 876              	.LFE14:
 877              		.size	ADC_SAR_Seq_1_SAR_CountsTo_mVolts, .-ADC_SAR_Seq_1_SAR_CountsTo_mVolts
 878 0052 00BF     		.section	.text.ADC_SAR_Seq_1_SAR_CountsTo_uVolts,"ax",%progbits
 879              		.align	2
 880              		.global	ADC_SAR_Seq_1_SAR_CountsTo_uVolts
 881              		.thumb
 882              		.thumb_func
 883              		.type	ADC_SAR_Seq_1_SAR_CountsTo_uVolts, %function
 884              	ADC_SAR_Seq_1_SAR_CountsTo_uVolts:
 885              	.LFB15:
 776:.\Generated_Source\PSoC5/ADC_SAR_Seq_1_SAR.c **** 
 777:.\Generated_Source\PSoC5/ADC_SAR_Seq_1_SAR.c **** 
 778:.\Generated_Source\PSoC5/ADC_SAR_Seq_1_SAR.c **** /*******************************************************************************
 779:.\Generated_Source\PSoC5/ADC_SAR_Seq_1_SAR.c **** * Function Name: ADC_SAR_Seq_1_SAR_CountsTo_uVolts
 780:.\Generated_Source\PSoC5/ADC_SAR_Seq_1_SAR.c **** ********************************************************************************
 781:.\Generated_Source\PSoC5/ADC_SAR_Seq_1_SAR.c **** *
 782:.\Generated_Source\PSoC5/ADC_SAR_Seq_1_SAR.c **** * Summary:
 783:.\Generated_Source\PSoC5/ADC_SAR_Seq_1_SAR.c **** *  This function converts ADC counts to micro Volts
 784:.\Generated_Source\PSoC5/ADC_SAR_Seq_1_SAR.c **** *
 785:.\Generated_Source\PSoC5/ADC_SAR_Seq_1_SAR.c **** * Parameters:
 786:.\Generated_Source\PSoC5/ADC_SAR_Seq_1_SAR.c **** *  int16  adcCounts   Reading from ADC.
 787:.\Generated_Source\PSoC5/ADC_SAR_Seq_1_SAR.c **** *
 788:.\Generated_Source\PSoC5/ADC_SAR_Seq_1_SAR.c **** * Return:
 789:.\Generated_Source\PSoC5/ADC_SAR_Seq_1_SAR.c **** *  int32  Result in micro Volts
 790:.\Generated_Source\PSoC5/ADC_SAR_Seq_1_SAR.c **** *
 791:.\Generated_Source\PSoC5/ADC_SAR_Seq_1_SAR.c **** * Global Variables:
 792:.\Generated_Source\PSoC5/ADC_SAR_Seq_1_SAR.c **** *  ADC_SAR_Seq_1_SAR_offset variable used.
 793:.\Generated_Source\PSoC5/ADC_SAR_Seq_1_SAR.c **** *  ADC_SAR_Seq_1_SAR_countsPerVolt variable used.
 794:.\Generated_Source\PSoC5/ADC_SAR_Seq_1_SAR.c **** *
 795:.\Generated_Source\PSoC5/ADC_SAR_Seq_1_SAR.c **** *******************************************************************************/
 796:.\Generated_Source\PSoC5/ADC_SAR_Seq_1_SAR.c **** int32 ADC_SAR_Seq_1_SAR_CountsTo_uVolts(int16 adcCounts)
 797:.\Generated_Source\PSoC5/ADC_SAR_Seq_1_SAR.c **** {
 886              		.loc 1 797 0
 887              		.cfi_startproc
 888              		@ args = 0, pretend = 0, frame = 16
 889              		@ frame_needed = 1, uses_anonymous_args = 0
 890              		@ link register save eliminated.
 891 0000 80B4     		push	{r7}
 892              	.LCFI40:
 893              		.cfi_def_cfa_offset 4
 894 0002 85B0     		sub	sp, sp, #20
 895              	.LCFI41:
 896              		.cfi_def_cfa_offset 24
 897 0004 00AF     		add	r7, sp, #0
 898              		.cfi_offset 7, -4
 899              	.LCFI42:
 900              		.cfi_def_cfa_register 7
 901 0006 0346     		mov	r3, r0
 902 0008 FB80     		strh	r3, [r7, #6]	@ movhi
 798:.\Generated_Source\PSoC5/ADC_SAR_Seq_1_SAR.c **** 
 799:.\Generated_Source\PSoC5/ADC_SAR_Seq_1_SAR.c ****     int32 uVolts;
 800:.\Generated_Source\PSoC5/ADC_SAR_Seq_1_SAR.c **** 
 801:.\Generated_Source\PSoC5/ADC_SAR_Seq_1_SAR.c ****     /* Subtract ADC offset */
 802:.\Generated_Source\PSoC5/ADC_SAR_Seq_1_SAR.c ****     adcCounts -= ADC_SAR_Seq_1_SAR_offset;
 903              		.loc 1 802 0
 904 000a FA88     		ldrh	r2, [r7, #6]
ARM GAS  C:\Users\karunmj\AppData\Local\Temp\ccy4LQk2.s 			page 31


 905 000c 40F20003 		movw	r3, #:lower16:ADC_SAR_Seq_1_SAR_offset
 906 0010 C0F20003 		movt	r3, #:upper16:ADC_SAR_Seq_1_SAR_offset
 907 0014 1B88     		ldrh	r3, [r3, #0]	@ movhi
 908 0016 9BB2     		uxth	r3, r3
 909 0018 9BB2     		uxth	r3, r3
 910 001a C3EB0203 		rsb	r3, r3, r2
 911 001e 9BB2     		uxth	r3, r3
 912 0020 FB80     		strh	r3, [r7, #6]	@ movhi
 803:.\Generated_Source\PSoC5/ADC_SAR_Seq_1_SAR.c ****     /* To convert adcCounts to microVolts it is required to be multiplied
 804:.\Generated_Source\PSoC5/ADC_SAR_Seq_1_SAR.c ****     *  on 1 million. It is multiplied on 500000 and later on 2 to
 805:.\Generated_Source\PSoC5/ADC_SAR_Seq_1_SAR.c ****     *  to avoid 32bit arithmetic overflows.
 806:.\Generated_Source\PSoC5/ADC_SAR_Seq_1_SAR.c ****     */
 807:.\Generated_Source\PSoC5/ADC_SAR_Seq_1_SAR.c ****     uVolts = (( (int32)adcCounts * 500000 ) / ADC_SAR_Seq_1_SAR_countsPerVolt) * 2;
 913              		.loc 1 807 0
 914 0022 B7F90620 		ldrsh	r2, [r7, #6]
 915 0026 4AF22013 		movw	r3, #:lower16:500000
 916 002a C0F20703 		movt	r3, #:upper16:500000
 917 002e 03FB02F2 		mul	r2, r3, r2
 918 0032 40F20003 		movw	r3, #:lower16:ADC_SAR_Seq_1_SAR_countsPerVolt
 919 0036 C0F20003 		movt	r3, #:upper16:ADC_SAR_Seq_1_SAR_countsPerVolt
 920 003a 1B88     		ldrh	r3, [r3, #0]	@ movhi
 921 003c 9BB2     		uxth	r3, r3
 922 003e 1BB2     		sxth	r3, r3
 923 0040 92FBF3F3 		sdiv	r3, r2, r3
 924 0044 4FEA4303 		lsl	r3, r3, #1
 925 0048 FB60     		str	r3, [r7, #12]
 808:.\Generated_Source\PSoC5/ADC_SAR_Seq_1_SAR.c **** 
 809:.\Generated_Source\PSoC5/ADC_SAR_Seq_1_SAR.c ****     return( uVolts );
 926              		.loc 1 809 0
 927 004a FB68     		ldr	r3, [r7, #12]
 810:.\Generated_Source\PSoC5/ADC_SAR_Seq_1_SAR.c **** }
 928              		.loc 1 810 0
 929 004c 1846     		mov	r0, r3
 930 004e 07F11407 		add	r7, r7, #20
 931 0052 BD46     		mov	sp, r7
 932 0054 80BC     		pop	{r7}
 933 0056 7047     		bx	lr
 934              		.cfi_endproc
 935              	.LFE15:
 936              		.size	ADC_SAR_Seq_1_SAR_CountsTo_uVolts, .-ADC_SAR_Seq_1_SAR_CountsTo_uVolts
 937              		.global	__aeabi_i2f
 938              		.global	__aeabi_fdiv
 939              		.section	.text.ADC_SAR_Seq_1_SAR_CountsTo_Volts,"ax",%progbits
 940              		.align	2
 941              		.global	ADC_SAR_Seq_1_SAR_CountsTo_Volts
 942              		.thumb
 943              		.thumb_func
 944              		.type	ADC_SAR_Seq_1_SAR_CountsTo_Volts, %function
 945              	ADC_SAR_Seq_1_SAR_CountsTo_Volts:
 946              	.LFB16:
 811:.\Generated_Source\PSoC5/ADC_SAR_Seq_1_SAR.c **** 
 812:.\Generated_Source\PSoC5/ADC_SAR_Seq_1_SAR.c **** 
 813:.\Generated_Source\PSoC5/ADC_SAR_Seq_1_SAR.c **** /*******************************************************************************
 814:.\Generated_Source\PSoC5/ADC_SAR_Seq_1_SAR.c **** * Function Name: ADC_SAR_Seq_1_SAR_CountsTo_Volts
 815:.\Generated_Source\PSoC5/ADC_SAR_Seq_1_SAR.c **** ********************************************************************************
 816:.\Generated_Source\PSoC5/ADC_SAR_Seq_1_SAR.c **** *
 817:.\Generated_Source\PSoC5/ADC_SAR_Seq_1_SAR.c **** * Summary:
ARM GAS  C:\Users\karunmj\AppData\Local\Temp\ccy4LQk2.s 			page 32


 818:.\Generated_Source\PSoC5/ADC_SAR_Seq_1_SAR.c **** *  This function converts ADC counts to Volts
 819:.\Generated_Source\PSoC5/ADC_SAR_Seq_1_SAR.c **** *
 820:.\Generated_Source\PSoC5/ADC_SAR_Seq_1_SAR.c **** * Parameters:
 821:.\Generated_Source\PSoC5/ADC_SAR_Seq_1_SAR.c **** *  int16  adcCounts   Reading from ADC.
 822:.\Generated_Source\PSoC5/ADC_SAR_Seq_1_SAR.c **** *
 823:.\Generated_Source\PSoC5/ADC_SAR_Seq_1_SAR.c **** * Return:
 824:.\Generated_Source\PSoC5/ADC_SAR_Seq_1_SAR.c **** *  float  Result in mVolts
 825:.\Generated_Source\PSoC5/ADC_SAR_Seq_1_SAR.c **** *
 826:.\Generated_Source\PSoC5/ADC_SAR_Seq_1_SAR.c **** * Global Variables:
 827:.\Generated_Source\PSoC5/ADC_SAR_Seq_1_SAR.c **** *  ADC_SAR_Seq_1_SAR_offset variable used.
 828:.\Generated_Source\PSoC5/ADC_SAR_Seq_1_SAR.c **** *  ADC_SAR_Seq_1_SAR_countsPerVolt variable used.
 829:.\Generated_Source\PSoC5/ADC_SAR_Seq_1_SAR.c **** *
 830:.\Generated_Source\PSoC5/ADC_SAR_Seq_1_SAR.c **** *******************************************************************************/
 831:.\Generated_Source\PSoC5/ADC_SAR_Seq_1_SAR.c **** float32 ADC_SAR_Seq_1_SAR_CountsTo_Volts(int16 adcCounts)
 832:.\Generated_Source\PSoC5/ADC_SAR_Seq_1_SAR.c **** {
 947              		.loc 1 832 0
 948              		.cfi_startproc
 949              		@ args = 0, pretend = 0, frame = 16
 950              		@ frame_needed = 1, uses_anonymous_args = 0
 951 0000 90B5     		push	{r4, r7, lr}
 952              	.LCFI43:
 953              		.cfi_def_cfa_offset 12
 954 0002 85B0     		sub	sp, sp, #20
 955              	.LCFI44:
 956              		.cfi_def_cfa_offset 32
 957 0004 00AF     		add	r7, sp, #0
 958              		.cfi_offset 14, -4
 959              		.cfi_offset 7, -8
 960              		.cfi_offset 4, -12
 961              	.LCFI45:
 962              		.cfi_def_cfa_register 7
 963 0006 0346     		mov	r3, r0
 964 0008 FB80     		strh	r3, [r7, #6]	@ movhi
 833:.\Generated_Source\PSoC5/ADC_SAR_Seq_1_SAR.c ****     float32 volts;
 834:.\Generated_Source\PSoC5/ADC_SAR_Seq_1_SAR.c **** 
 835:.\Generated_Source\PSoC5/ADC_SAR_Seq_1_SAR.c ****     /* Subtract ADC offset */
 836:.\Generated_Source\PSoC5/ADC_SAR_Seq_1_SAR.c ****     adcCounts -= ADC_SAR_Seq_1_SAR_offset;
 965              		.loc 1 836 0
 966 000a FA88     		ldrh	r2, [r7, #6]
 967 000c 40F20003 		movw	r3, #:lower16:ADC_SAR_Seq_1_SAR_offset
 968 0010 C0F20003 		movt	r3, #:upper16:ADC_SAR_Seq_1_SAR_offset
 969 0014 1B88     		ldrh	r3, [r3, #0]	@ movhi
 970 0016 9BB2     		uxth	r3, r3
 971 0018 9BB2     		uxth	r3, r3
 972 001a C3EB0203 		rsb	r3, r3, r2
 973 001e 9BB2     		uxth	r3, r3
 974 0020 FB80     		strh	r3, [r7, #6]	@ movhi
 837:.\Generated_Source\PSoC5/ADC_SAR_Seq_1_SAR.c **** 
 838:.\Generated_Source\PSoC5/ADC_SAR_Seq_1_SAR.c ****     volts = (float32)adcCounts / (float32)ADC_SAR_Seq_1_SAR_countsPerVolt;
 975              		.loc 1 838 0
 976 0022 B7F90630 		ldrsh	r3, [r7, #6]
 977 0026 1846     		mov	r0, r3
 978 0028 FFF7FEFF 		bl	__aeabi_i2f
 979 002c 0446     		mov	r4, r0
 980 002e 40F20003 		movw	r3, #:lower16:ADC_SAR_Seq_1_SAR_countsPerVolt
 981 0032 C0F20003 		movt	r3, #:upper16:ADC_SAR_Seq_1_SAR_countsPerVolt
 982 0036 1B88     		ldrh	r3, [r3, #0]	@ movhi
ARM GAS  C:\Users\karunmj\AppData\Local\Temp\ccy4LQk2.s 			page 33


 983 0038 9BB2     		uxth	r3, r3
 984 003a 1BB2     		sxth	r3, r3
 985 003c 1846     		mov	r0, r3
 986 003e FFF7FEFF 		bl	__aeabi_i2f
 987 0042 0346     		mov	r3, r0
 988 0044 2046     		mov	r0, r4
 989 0046 1946     		mov	r1, r3
 990 0048 FFF7FEFF 		bl	__aeabi_fdiv
 991 004c 0346     		mov	r3, r0
 992 004e FB60     		str	r3, [r7, #12]	@ float
 839:.\Generated_Source\PSoC5/ADC_SAR_Seq_1_SAR.c **** 
 840:.\Generated_Source\PSoC5/ADC_SAR_Seq_1_SAR.c ****     return( volts );
 993              		.loc 1 840 0
 994 0050 FB68     		ldr	r3, [r7, #12]	@ float
 841:.\Generated_Source\PSoC5/ADC_SAR_Seq_1_SAR.c **** }
 995              		.loc 1 841 0
 996 0052 1846     		mov	r0, r3
 997 0054 07F11407 		add	r7, r7, #20
 998 0058 BD46     		mov	sp, r7
 999 005a 90BD     		pop	{r4, r7, pc}
 1000              		.cfi_endproc
 1001              	.LFE16:
 1002              		.size	ADC_SAR_Seq_1_SAR_CountsTo_Volts, .-ADC_SAR_Seq_1_SAR_CountsTo_Volts
 1003              		.text
 1004              	.Letext0:
 1005              		.section	.debug_loc,"",%progbits
 1006              	.Ldebug_loc0:
 1007              	.LLST0:
 1008 0000 00000000 		.4byte	.LFB0
 1009 0004 02000000 		.4byte	.LCFI0
 1010 0008 0100     		.2byte	0x1
 1011 000a 5D       		.byte	0x5d
 1012 000b 02000000 		.4byte	.LCFI0
 1013 000f 04000000 		.4byte	.LCFI1
 1014 0013 0200     		.2byte	0x2
 1015 0015 7D       		.byte	0x7d
 1016 0016 08       		.sleb128 8
 1017 0017 04000000 		.4byte	.LCFI1
 1018 001b 2A000000 		.4byte	.LFE0
 1019 001f 0200     		.2byte	0x2
 1020 0021 77       		.byte	0x77
 1021 0022 08       		.sleb128 8
 1022 0023 00000000 		.4byte	0x0
 1023 0027 00000000 		.4byte	0x0
 1024              	.LLST1:
 1025 002b 00000000 		.4byte	.LFB1
 1026 002f 02000000 		.4byte	.LCFI2
 1027 0033 0100     		.2byte	0x1
 1028 0035 5D       		.byte	0x5d
 1029 0036 02000000 		.4byte	.LCFI2
 1030 003a 04000000 		.4byte	.LCFI3
 1031 003e 0200     		.2byte	0x2
 1032 0040 7D       		.byte	0x7d
 1033 0041 08       		.sleb128 8
 1034 0042 04000000 		.4byte	.LCFI3
 1035 0046 38000000 		.4byte	.LFE1
 1036 004a 0200     		.2byte	0x2
ARM GAS  C:\Users\karunmj\AppData\Local\Temp\ccy4LQk2.s 			page 34


 1037 004c 77       		.byte	0x77
 1038 004d 08       		.sleb128 8
 1039 004e 00000000 		.4byte	0x0
 1040 0052 00000000 		.4byte	0x0
 1041              	.LLST2:
 1042 0056 00000000 		.4byte	.LFB2
 1043 005a 02000000 		.4byte	.LCFI4
 1044 005e 0100     		.2byte	0x1
 1045 0060 5D       		.byte	0x5d
 1046 0061 02000000 		.4byte	.LCFI4
 1047 0065 04000000 		.4byte	.LCFI5
 1048 0069 0200     		.2byte	0x2
 1049 006b 7D       		.byte	0x7d
 1050 006c 08       		.sleb128 8
 1051 006d 04000000 		.4byte	.LCFI5
 1052 0071 06000000 		.4byte	.LCFI6
 1053 0075 0200     		.2byte	0x2
 1054 0077 7D       		.byte	0x7d
 1055 0078 10       		.sleb128 16
 1056 0079 06000000 		.4byte	.LCFI6
 1057 007d F4000000 		.4byte	.LFE2
 1058 0081 0200     		.2byte	0x2
 1059 0083 77       		.byte	0x77
 1060 0084 10       		.sleb128 16
 1061 0085 00000000 		.4byte	0x0
 1062 0089 00000000 		.4byte	0x0
 1063              	.LLST3:
 1064 008d 00000000 		.4byte	.LFB3
 1065 0091 02000000 		.4byte	.LCFI7
 1066 0095 0100     		.2byte	0x1
 1067 0097 5D       		.byte	0x5d
 1068 0098 02000000 		.4byte	.LCFI7
 1069 009c 04000000 		.4byte	.LCFI8
 1070 00a0 0200     		.2byte	0x2
 1071 00a2 7D       		.byte	0x7d
 1072 00a3 08       		.sleb128 8
 1073 00a4 04000000 		.4byte	.LCFI8
 1074 00a8 06000000 		.4byte	.LCFI9
 1075 00ac 0200     		.2byte	0x2
 1076 00ae 7D       		.byte	0x7d
 1077 00af 10       		.sleb128 16
 1078 00b0 06000000 		.4byte	.LCFI9
 1079 00b4 6C000000 		.4byte	.LFE3
 1080 00b8 0200     		.2byte	0x2
 1081 00ba 77       		.byte	0x77
 1082 00bb 10       		.sleb128 16
 1083 00bc 00000000 		.4byte	0x0
 1084 00c0 00000000 		.4byte	0x0
 1085              	.LLST4:
 1086 00c4 00000000 		.4byte	.LFB4
 1087 00c8 02000000 		.4byte	.LCFI10
 1088 00cc 0100     		.2byte	0x1
 1089 00ce 5D       		.byte	0x5d
 1090 00cf 02000000 		.4byte	.LCFI10
 1091 00d3 04000000 		.4byte	.LCFI11
 1092 00d7 0200     		.2byte	0x2
 1093 00d9 7D       		.byte	0x7d
ARM GAS  C:\Users\karunmj\AppData\Local\Temp\ccy4LQk2.s 			page 35


 1094 00da 04       		.sleb128 4
 1095 00db 04000000 		.4byte	.LCFI11
 1096 00df 06000000 		.4byte	.LCFI12
 1097 00e3 0200     		.2byte	0x2
 1098 00e5 7D       		.byte	0x7d
 1099 00e6 18       		.sleb128 24
 1100 00e7 06000000 		.4byte	.LCFI12
 1101 00eb 4A000000 		.4byte	.LFE4
 1102 00ef 0200     		.2byte	0x2
 1103 00f1 77       		.byte	0x77
 1104 00f2 18       		.sleb128 24
 1105 00f3 00000000 		.4byte	0x0
 1106 00f7 00000000 		.4byte	0x0
 1107              	.LLST5:
 1108 00fb 00000000 		.4byte	.LFB5
 1109 00ff 02000000 		.4byte	.LCFI13
 1110 0103 0100     		.2byte	0x1
 1111 0105 5D       		.byte	0x5d
 1112 0106 02000000 		.4byte	.LCFI13
 1113 010a 04000000 		.4byte	.LCFI14
 1114 010e 0200     		.2byte	0x2
 1115 0110 7D       		.byte	0x7d
 1116 0111 08       		.sleb128 8
 1117 0112 04000000 		.4byte	.LCFI14
 1118 0116 06000000 		.4byte	.LCFI15
 1119 011a 0200     		.2byte	0x2
 1120 011c 7D       		.byte	0x7d
 1121 011d 18       		.sleb128 24
 1122 011e 06000000 		.4byte	.LCFI15
 1123 0122 5C000000 		.4byte	.LFE5
 1124 0126 0200     		.2byte	0x2
 1125 0128 77       		.byte	0x77
 1126 0129 18       		.sleb128 24
 1127 012a 00000000 		.4byte	0x0
 1128 012e 00000000 		.4byte	0x0
 1129              	.LLST6:
 1130 0132 00000000 		.4byte	.LFB6
 1131 0136 02000000 		.4byte	.LCFI16
 1132 013a 0100     		.2byte	0x1
 1133 013c 5D       		.byte	0x5d
 1134 013d 02000000 		.4byte	.LCFI16
 1135 0141 04000000 		.4byte	.LCFI17
 1136 0145 0200     		.2byte	0x2
 1137 0147 7D       		.byte	0x7d
 1138 0148 04       		.sleb128 4
 1139 0149 04000000 		.4byte	.LCFI17
 1140 014d 26000000 		.4byte	.LFE6
 1141 0151 0200     		.2byte	0x2
 1142 0153 77       		.byte	0x77
 1143 0154 04       		.sleb128 4
 1144 0155 00000000 		.4byte	0x0
 1145 0159 00000000 		.4byte	0x0
 1146              	.LLST7:
 1147 015d 00000000 		.4byte	.LFB7
 1148 0161 02000000 		.4byte	.LCFI18
 1149 0165 0100     		.2byte	0x1
 1150 0167 5D       		.byte	0x5d
ARM GAS  C:\Users\karunmj\AppData\Local\Temp\ccy4LQk2.s 			page 36


 1151 0168 02000000 		.4byte	.LCFI18
 1152 016c 04000000 		.4byte	.LCFI19
 1153 0170 0200     		.2byte	0x2
 1154 0172 7D       		.byte	0x7d
 1155 0173 04       		.sleb128 4
 1156 0174 04000000 		.4byte	.LCFI19
 1157 0178 24000000 		.4byte	.LFE7
 1158 017c 0200     		.2byte	0x2
 1159 017e 77       		.byte	0x77
 1160 017f 04       		.sleb128 4
 1161 0180 00000000 		.4byte	0x0
 1162 0184 00000000 		.4byte	0x0
 1163              	.LLST8:
 1164 0188 00000000 		.4byte	.LFB8
 1165 018c 02000000 		.4byte	.LCFI20
 1166 0190 0100     		.2byte	0x1
 1167 0192 5D       		.byte	0x5d
 1168 0193 02000000 		.4byte	.LCFI20
 1169 0197 04000000 		.4byte	.LCFI21
 1170 019b 0200     		.2byte	0x2
 1171 019d 7D       		.byte	0x7d
 1172 019e 08       		.sleb128 8
 1173 019f 04000000 		.4byte	.LCFI21
 1174 01a3 06000000 		.4byte	.LCFI22
 1175 01a7 0200     		.2byte	0x2
 1176 01a9 7D       		.byte	0x7d
 1177 01aa 18       		.sleb128 24
 1178 01ab 06000000 		.4byte	.LCFI22
 1179 01af 4C000000 		.4byte	.LFE8
 1180 01b3 0200     		.2byte	0x2
 1181 01b5 77       		.byte	0x77
 1182 01b6 18       		.sleb128 24
 1183 01b7 00000000 		.4byte	0x0
 1184 01bb 00000000 		.4byte	0x0
 1185              	.LLST9:
 1186 01bf 00000000 		.4byte	.LFB9
 1187 01c3 02000000 		.4byte	.LCFI23
 1188 01c7 0100     		.2byte	0x1
 1189 01c9 5D       		.byte	0x5d
 1190 01ca 02000000 		.4byte	.LCFI23
 1191 01ce 04000000 		.4byte	.LCFI24
 1192 01d2 0200     		.2byte	0x2
 1193 01d4 7D       		.byte	0x7d
 1194 01d5 04       		.sleb128 4
 1195 01d6 04000000 		.4byte	.LCFI24
 1196 01da 2E000000 		.4byte	.LFE9
 1197 01de 0200     		.2byte	0x2
 1198 01e0 77       		.byte	0x77
 1199 01e1 04       		.sleb128 4
 1200 01e2 00000000 		.4byte	0x0
 1201 01e6 00000000 		.4byte	0x0
 1202              	.LLST10:
 1203 01ea 00000000 		.4byte	.LFB10
 1204 01ee 02000000 		.4byte	.LCFI25
 1205 01f2 0100     		.2byte	0x1
 1206 01f4 5D       		.byte	0x5d
 1207 01f5 02000000 		.4byte	.LCFI25
ARM GAS  C:\Users\karunmj\AppData\Local\Temp\ccy4LQk2.s 			page 37


 1208 01f9 04000000 		.4byte	.LCFI26
 1209 01fd 0200     		.2byte	0x2
 1210 01ff 7D       		.byte	0x7d
 1211 0200 04       		.sleb128 4
 1212 0201 04000000 		.4byte	.LCFI26
 1213 0205 06000000 		.4byte	.LCFI27
 1214 0209 0200     		.2byte	0x2
 1215 020b 7D       		.byte	0x7d
 1216 020c 10       		.sleb128 16
 1217 020d 06000000 		.4byte	.LCFI27
 1218 0211 36000000 		.4byte	.LFE10
 1219 0215 0200     		.2byte	0x2
 1220 0217 77       		.byte	0x77
 1221 0218 10       		.sleb128 16
 1222 0219 00000000 		.4byte	0x0
 1223 021d 00000000 		.4byte	0x0
 1224              	.LLST11:
 1225 0221 00000000 		.4byte	.LFB11
 1226 0225 02000000 		.4byte	.LCFI28
 1227 0229 0100     		.2byte	0x1
 1228 022b 5D       		.byte	0x5d
 1229 022c 02000000 		.4byte	.LCFI28
 1230 0230 04000000 		.4byte	.LCFI29
 1231 0234 0200     		.2byte	0x2
 1232 0236 7D       		.byte	0x7d
 1233 0237 04       		.sleb128 4
 1234 0238 04000000 		.4byte	.LCFI29
 1235 023c 06000000 		.4byte	.LCFI30
 1236 0240 0200     		.2byte	0x2
 1237 0242 7D       		.byte	0x7d
 1238 0243 10       		.sleb128 16
 1239 0244 06000000 		.4byte	.LCFI30
 1240 0248 20000000 		.4byte	.LFE11
 1241 024c 0200     		.2byte	0x2
 1242 024e 77       		.byte	0x77
 1243 024f 10       		.sleb128 16
 1244 0250 00000000 		.4byte	0x0
 1245 0254 00000000 		.4byte	0x0
 1246              	.LLST12:
 1247 0258 00000000 		.4byte	.LFB12
 1248 025c 02000000 		.4byte	.LCFI31
 1249 0260 0100     		.2byte	0x1
 1250 0262 5D       		.byte	0x5d
 1251 0263 02000000 		.4byte	.LCFI31
 1252 0267 04000000 		.4byte	.LCFI32
 1253 026b 0200     		.2byte	0x2
 1254 026d 7D       		.byte	0x7d
 1255 026e 08       		.sleb128 8
 1256 026f 04000000 		.4byte	.LCFI32
 1257 0273 06000000 		.4byte	.LCFI33
 1258 0277 0200     		.2byte	0x2
 1259 0279 7D       		.byte	0x7d
 1260 027a 18       		.sleb128 24
 1261 027b 06000000 		.4byte	.LCFI33
 1262 027f 88000000 		.4byte	.LFE12
 1263 0283 0200     		.2byte	0x2
 1264 0285 77       		.byte	0x77
ARM GAS  C:\Users\karunmj\AppData\Local\Temp\ccy4LQk2.s 			page 38


 1265 0286 18       		.sleb128 24
 1266 0287 00000000 		.4byte	0x0
 1267 028b 00000000 		.4byte	0x0
 1268              	.LLST13:
 1269 028f 00000000 		.4byte	.LFB13
 1270 0293 02000000 		.4byte	.LCFI34
 1271 0297 0100     		.2byte	0x1
 1272 0299 5D       		.byte	0x5d
 1273 029a 02000000 		.4byte	.LCFI34
 1274 029e 04000000 		.4byte	.LCFI35
 1275 02a2 0200     		.2byte	0x2
 1276 02a4 7D       		.byte	0x7d
 1277 02a5 04       		.sleb128 4
 1278 02a6 04000000 		.4byte	.LCFI35
 1279 02aa 06000000 		.4byte	.LCFI36
 1280 02ae 0200     		.2byte	0x2
 1281 02b0 7D       		.byte	0x7d
 1282 02b1 10       		.sleb128 16
 1283 02b2 06000000 		.4byte	.LCFI36
 1284 02b6 20000000 		.4byte	.LFE13
 1285 02ba 0200     		.2byte	0x2
 1286 02bc 77       		.byte	0x77
 1287 02bd 10       		.sleb128 16
 1288 02be 00000000 		.4byte	0x0
 1289 02c2 00000000 		.4byte	0x0
 1290              	.LLST14:
 1291 02c6 00000000 		.4byte	.LFB14
 1292 02ca 02000000 		.4byte	.LCFI37
 1293 02ce 0100     		.2byte	0x1
 1294 02d0 5D       		.byte	0x5d
 1295 02d1 02000000 		.4byte	.LCFI37
 1296 02d5 04000000 		.4byte	.LCFI38
 1297 02d9 0200     		.2byte	0x2
 1298 02db 7D       		.byte	0x7d
 1299 02dc 04       		.sleb128 4
 1300 02dd 04000000 		.4byte	.LCFI38
 1301 02e1 06000000 		.4byte	.LCFI39
 1302 02e5 0200     		.2byte	0x2
 1303 02e7 7D       		.byte	0x7d
 1304 02e8 18       		.sleb128 24
 1305 02e9 06000000 		.4byte	.LCFI39
 1306 02ed 52000000 		.4byte	.LFE14
 1307 02f1 0200     		.2byte	0x2
 1308 02f3 77       		.byte	0x77
 1309 02f4 18       		.sleb128 24
 1310 02f5 00000000 		.4byte	0x0
 1311 02f9 00000000 		.4byte	0x0
 1312              	.LLST15:
 1313 02fd 00000000 		.4byte	.LFB15
 1314 0301 02000000 		.4byte	.LCFI40
 1315 0305 0100     		.2byte	0x1
 1316 0307 5D       		.byte	0x5d
 1317 0308 02000000 		.4byte	.LCFI40
 1318 030c 04000000 		.4byte	.LCFI41
 1319 0310 0200     		.2byte	0x2
 1320 0312 7D       		.byte	0x7d
 1321 0313 04       		.sleb128 4
ARM GAS  C:\Users\karunmj\AppData\Local\Temp\ccy4LQk2.s 			page 39


 1322 0314 04000000 		.4byte	.LCFI41
 1323 0318 06000000 		.4byte	.LCFI42
 1324 031c 0200     		.2byte	0x2
 1325 031e 7D       		.byte	0x7d
 1326 031f 18       		.sleb128 24
 1327 0320 06000000 		.4byte	.LCFI42
 1328 0324 58000000 		.4byte	.LFE15
 1329 0328 0200     		.2byte	0x2
 1330 032a 77       		.byte	0x77
 1331 032b 18       		.sleb128 24
 1332 032c 00000000 		.4byte	0x0
 1333 0330 00000000 		.4byte	0x0
 1334              	.LLST16:
 1335 0334 00000000 		.4byte	.LFB16
 1336 0338 02000000 		.4byte	.LCFI43
 1337 033c 0100     		.2byte	0x1
 1338 033e 5D       		.byte	0x5d
 1339 033f 02000000 		.4byte	.LCFI43
 1340 0343 04000000 		.4byte	.LCFI44
 1341 0347 0200     		.2byte	0x2
 1342 0349 7D       		.byte	0x7d
 1343 034a 0C       		.sleb128 12
 1344 034b 04000000 		.4byte	.LCFI44
 1345 034f 06000000 		.4byte	.LCFI45
 1346 0353 0200     		.2byte	0x2
 1347 0355 7D       		.byte	0x7d
 1348 0356 20       		.sleb128 32
 1349 0357 06000000 		.4byte	.LCFI45
 1350 035b 5C000000 		.4byte	.LFE16
 1351 035f 0200     		.2byte	0x2
 1352 0361 77       		.byte	0x77
 1353 0362 20       		.sleb128 32
 1354 0363 00000000 		.4byte	0x0
 1355 0367 00000000 		.4byte	0x0
 1356              		.file 2 ".\\Generated_Source\\PSoC5\\/cytypes.h"
 1357              		.section	.debug_info
 1358 0000 02040000 		.4byte	0x402
 1359 0004 0200     		.2byte	0x2
 1360 0006 00000000 		.4byte	.Ldebug_abbrev0
 1361 000a 04       		.byte	0x4
 1362 000b 01       		.uleb128 0x1
 1363 000c C4020000 		.4byte	.LASF50
 1364 0010 01       		.byte	0x1
 1365 0011 D7020000 		.4byte	.LASF51
 1366 0015 EE010000 		.4byte	.LASF52
 1367 0019 00000000 		.4byte	0x0
 1368 001d 00000000 		.4byte	0x0
 1369 0021 00000000 		.4byte	.Ldebug_ranges0+0x0
 1370 0025 00000000 		.4byte	.Ldebug_line0
 1371 0029 02       		.uleb128 0x2
 1372 002a 01       		.byte	0x1
 1373 002b 06       		.byte	0x6
 1374 002c B7030000 		.4byte	.LASF0
 1375 0030 02       		.uleb128 0x2
 1376 0031 01       		.byte	0x1
 1377 0032 08       		.byte	0x8
 1378 0033 0E010000 		.4byte	.LASF1
ARM GAS  C:\Users\karunmj\AppData\Local\Temp\ccy4LQk2.s 			page 40


 1379 0037 02       		.uleb128 0x2
 1380 0038 02       		.byte	0x2
 1381 0039 05       		.byte	0x5
 1382 003a 39030000 		.4byte	.LASF2
 1383 003e 02       		.uleb128 0x2
 1384 003f 02       		.byte	0x2
 1385 0040 07       		.byte	0x7
 1386 0041 4B000000 		.4byte	.LASF3
 1387 0045 03       		.uleb128 0x3
 1388 0046 04       		.byte	0x4
 1389 0047 05       		.byte	0x5
 1390 0048 696E7400 		.ascii	"int\000"
 1391 004c 02       		.uleb128 0x2
 1392 004d 04       		.byte	0x4
 1393 004e 07       		.byte	0x7
 1394 004f B9010000 		.4byte	.LASF4
 1395 0053 02       		.uleb128 0x2
 1396 0054 08       		.byte	0x8
 1397 0055 05       		.byte	0x5
 1398 0056 00000000 		.4byte	.LASF5
 1399 005a 02       		.uleb128 0x2
 1400 005b 08       		.byte	0x8
 1401 005c 07       		.byte	0x7
 1402 005d D7010000 		.4byte	.LASF6
 1403 0061 02       		.uleb128 0x2
 1404 0062 04       		.byte	0x4
 1405 0063 05       		.byte	0x5
 1406 0064 86030000 		.4byte	.LASF7
 1407 0068 04       		.uleb128 0x4
 1408 0069 04       		.byte	0x4
 1409 006a 07       		.byte	0x7
 1410 006b 02       		.uleb128 0x2
 1411 006c 04       		.byte	0x4
 1412 006d 07       		.byte	0x7
 1413 006e 5D010000 		.4byte	.LASF8
 1414 0072 02       		.uleb128 0x2
 1415 0073 01       		.byte	0x1
 1416 0074 08       		.byte	0x8
 1417 0075 04030000 		.4byte	.LASF9
 1418 0079 05       		.uleb128 0x5
 1419 007a 43030000 		.4byte	.LASF10
 1420 007e 02       		.byte	0x2
 1421 007f 4C       		.byte	0x4c
 1422 0080 30000000 		.4byte	0x30
 1423 0084 05       		.uleb128 0x5
 1424 0085 AD010000 		.4byte	.LASF11
 1425 0089 02       		.byte	0x2
 1426 008a 4D       		.byte	0x4d
 1427 008b 3E000000 		.4byte	0x3e
 1428 008f 05       		.uleb128 0x5
 1429 0090 B4010000 		.4byte	.LASF12
 1430 0094 02       		.byte	0x2
 1431 0095 4F       		.byte	0x4f
 1432 0096 29000000 		.4byte	0x29
 1433 009a 05       		.uleb128 0x5
 1434 009b 57010000 		.4byte	.LASF13
 1435 009f 02       		.byte	0x2
ARM GAS  C:\Users\karunmj\AppData\Local\Temp\ccy4LQk2.s 			page 41


 1436 00a0 50       		.byte	0x50
 1437 00a1 37000000 		.4byte	0x37
 1438 00a5 05       		.uleb128 0x5
 1439 00a6 6F010000 		.4byte	.LASF14
 1440 00aa 02       		.byte	0x2
 1441 00ab 51       		.byte	0x51
 1442 00ac 61000000 		.4byte	0x61
 1443 00b0 05       		.uleb128 0x5
 1444 00b1 A8000000 		.4byte	.LASF15
 1445 00b5 02       		.byte	0x2
 1446 00b6 52       		.byte	0x52
 1447 00b7 BB000000 		.4byte	0xbb
 1448 00bb 02       		.uleb128 0x2
 1449 00bc 04       		.byte	0x4
 1450 00bd 04       		.byte	0x4
 1451 00be CE000000 		.4byte	.LASF16
 1452 00c2 02       		.uleb128 0x2
 1453 00c3 08       		.byte	0x8
 1454 00c4 04       		.byte	0x4
 1455 00c5 9E010000 		.4byte	.LASF17
 1456 00c9 06       		.uleb128 0x6
 1457 00ca 01       		.byte	0x1
 1458 00cb 75010000 		.4byte	.LASF18
 1459 00cf 01       		.byte	0x1
 1460 00d0 4B       		.byte	0x4b
 1461 00d1 01       		.byte	0x1
 1462 00d2 00000000 		.4byte	.LFB0
 1463 00d6 2A000000 		.4byte	.LFE0
 1464 00da 00000000 		.4byte	.LLST0
 1465 00de 06       		.uleb128 0x6
 1466 00df 01       		.byte	0x1
 1467 00e0 09030000 		.4byte	.LASF19
 1468 00e4 01       		.byte	0x1
 1469 00e5 6B       		.byte	0x6b
 1470 00e6 01       		.byte	0x1
 1471 00e7 00000000 		.4byte	.LFB1
 1472 00eb 38000000 		.4byte	.LFE1
 1473 00ef 2B000000 		.4byte	.LLST1
 1474 00f3 07       		.uleb128 0x7
 1475 00f4 01       		.byte	0x1
 1476 00f5 20030000 		.4byte	.LASF22
 1477 00f9 01       		.byte	0x1
 1478 00fa 90       		.byte	0x90
 1479 00fb 01       		.byte	0x1
 1480 00fc 00000000 		.4byte	.LFB2
 1481 0100 F4000000 		.4byte	.LFE2
 1482 0104 56000000 		.4byte	.LLST2
 1483 0108 29010000 		.4byte	0x129
 1484 010c 08       		.uleb128 0x8
 1485 010d D0020000 		.4byte	.LASF20
 1486 0111 01       		.byte	0x1
 1487 0112 92       		.byte	0x92
 1488 0113 79000000 		.4byte	0x79
 1489 0117 02       		.byte	0x2
 1490 0118 91       		.byte	0x91
 1491 0119 76       		.sleb128 -10
 1492 011a 08       		.uleb128 0x8
ARM GAS  C:\Users\karunmj\AppData\Local\Temp\ccy4LQk2.s 			page 42


 1493 011b 8D010000 		.4byte	.LASF21
 1494 011f 01       		.byte	0x1
 1495 0120 93       		.byte	0x93
 1496 0121 79000000 		.4byte	0x79
 1497 0125 02       		.byte	0x2
 1498 0126 91       		.byte	0x91
 1499 0127 77       		.sleb128 -9
 1500 0128 00       		.byte	0x0
 1501 0129 07       		.uleb128 0x7
 1502 012a 01       		.byte	0x1
 1503 012b 2D000000 		.4byte	.LASF23
 1504 012f 01       		.byte	0x1
 1505 0130 FE       		.byte	0xfe
 1506 0131 01       		.byte	0x1
 1507 0132 00000000 		.4byte	.LFB3
 1508 0136 6C000000 		.4byte	.LFE3
 1509 013a 8D000000 		.4byte	.LLST3
 1510 013e 52010000 		.4byte	0x152
 1511 0142 09       		.uleb128 0x9
 1512 0143 8D010000 		.4byte	.LASF21
 1513 0147 01       		.byte	0x1
 1514 0148 0001     		.2byte	0x100
 1515 014a 79000000 		.4byte	0x79
 1516 014e 02       		.byte	0x2
 1517 014f 91       		.byte	0x91
 1518 0150 77       		.sleb128 -9
 1519 0151 00       		.byte	0x0
 1520 0152 0A       		.uleb128 0xa
 1521 0153 01       		.byte	0x1
 1522 0154 5E000000 		.4byte	.LASF24
 1523 0158 01       		.byte	0x1
 1524 0159 3201     		.2byte	0x132
 1525 015b 01       		.byte	0x1
 1526 015c 00000000 		.4byte	.LFB4
 1527 0160 4A000000 		.4byte	.LFE4
 1528 0164 C4000000 		.4byte	.LLST4
 1529 0168 8B010000 		.4byte	0x18b
 1530 016c 0B       		.uleb128 0xb
 1531 016d 80000000 		.4byte	.LASF26
 1532 0171 01       		.byte	0x1
 1533 0172 3201     		.2byte	0x132
 1534 0174 79000000 		.4byte	0x79
 1535 0178 02       		.byte	0x2
 1536 0179 91       		.byte	0x91
 1537 017a 6F       		.sleb128 -17
 1538 017b 09       		.uleb128 0x9
 1539 017c D0020000 		.4byte	.LASF20
 1540 0180 01       		.byte	0x1
 1541 0181 3401     		.2byte	0x134
 1542 0183 79000000 		.4byte	0x79
 1543 0187 02       		.byte	0x2
 1544 0188 91       		.byte	0x91
 1545 0189 77       		.sleb128 -9
 1546 018a 00       		.byte	0x0
 1547 018b 0A       		.uleb128 0xa
 1548 018c 01       		.byte	0x1
 1549 018d D4000000 		.4byte	.LASF25
ARM GAS  C:\Users\karunmj\AppData\Local\Temp\ccy4LQk2.s 			page 43


 1550 0191 01       		.byte	0x1
 1551 0192 6501     		.2byte	0x165
 1552 0194 01       		.byte	0x1
 1553 0195 00000000 		.4byte	.LFB5
 1554 0199 5C000000 		.4byte	.LFE5
 1555 019d FB000000 		.4byte	.LLST5
 1556 01a1 C4010000 		.4byte	0x1c4
 1557 01a5 0B       		.uleb128 0xb
 1558 01a6 C3030000 		.4byte	.LASF27
 1559 01aa 01       		.byte	0x1
 1560 01ab 6501     		.2byte	0x165
 1561 01ad 79000000 		.4byte	0x79
 1562 01b1 02       		.byte	0x2
 1563 01b2 91       		.byte	0x91
 1564 01b3 6F       		.sleb128 -17
 1565 01b4 09       		.uleb128 0x9
 1566 01b5 D0020000 		.4byte	.LASF20
 1567 01b9 01       		.byte	0x1
 1568 01ba 6701     		.2byte	0x167
 1569 01bc 79000000 		.4byte	0x79
 1570 01c0 02       		.byte	0x2
 1571 01c1 91       		.byte	0x91
 1572 01c2 77       		.sleb128 -9
 1573 01c3 00       		.byte	0x0
 1574 01c4 0C       		.uleb128 0xc
 1575 01c5 01       		.byte	0x1
 1576 01c6 49030000 		.4byte	.LASF28
 1577 01ca 01       		.byte	0x1
 1578 01cb AE01     		.2byte	0x1ae
 1579 01cd 01       		.byte	0x1
 1580 01ce 00000000 		.4byte	.LFB6
 1581 01d2 26000000 		.4byte	.LFE6
 1582 01d6 32010000 		.4byte	.LLST6
 1583 01da 0C       		.uleb128 0xc
 1584 01db 01       		.byte	0x1
 1585 01dc 68030000 		.4byte	.LASF29
 1586 01e0 01       		.byte	0x1
 1587 01e1 D001     		.2byte	0x1d0
 1588 01e3 01       		.byte	0x1
 1589 01e4 00000000 		.4byte	.LFB7
 1590 01e8 24000000 		.4byte	.LFE7
 1591 01ec 5D010000 		.4byte	.LLST7
 1592 01f0 0D       		.uleb128 0xd
 1593 01f1 01       		.byte	0x1
 1594 01f2 1C010000 		.4byte	.LASF32
 1595 01f6 01       		.byte	0x1
 1596 01f7 F001     		.2byte	0x1f0
 1597 01f9 01       		.byte	0x1
 1598 01fa 79000000 		.4byte	0x79
 1599 01fe 00000000 		.4byte	.LFB8
 1600 0202 4C000000 		.4byte	.LFE8
 1601 0206 88010000 		.4byte	.LLST8
 1602 020a 2D020000 		.4byte	0x22d
 1603 020e 0B       		.uleb128 0xb
 1604 020f 8F030000 		.4byte	.LASF30
 1605 0213 01       		.byte	0x1
 1606 0214 F001     		.2byte	0x1f0
ARM GAS  C:\Users\karunmj\AppData\Local\Temp\ccy4LQk2.s 			page 44


 1607 0216 79000000 		.4byte	0x79
 1608 021a 02       		.byte	0x2
 1609 021b 91       		.byte	0x91
 1610 021c 6F       		.sleb128 -17
 1611 021d 09       		.uleb128 0x9
 1612 021e 79000000 		.4byte	.LASF31
 1613 0222 01       		.byte	0x1
 1614 0223 F201     		.2byte	0x1f2
 1615 0225 79000000 		.4byte	0x79
 1616 0229 02       		.byte	0x2
 1617 022a 91       		.byte	0x91
 1618 022b 77       		.sleb128 -9
 1619 022c 00       		.byte	0x0
 1620 022d 0E       		.uleb128 0xe
 1621 022e 01       		.byte	0x1
 1622 022f EA030000 		.4byte	.LASF53
 1623 0233 01       		.byte	0x1
 1624 0234 1B02     		.2byte	0x21b
 1625 0236 01       		.byte	0x1
 1626 0237 8F000000 		.4byte	0x8f
 1627 023b 00000000 		.4byte	.LFB9
 1628 023f 2E000000 		.4byte	.LFE9
 1629 0243 BF010000 		.4byte	.LLST9
 1630 0247 0D       		.uleb128 0xd
 1631 0248 01       		.byte	0x1
 1632 0249 B0000000 		.4byte	.LASF33
 1633 024d 01       		.byte	0x1
 1634 024e 5002     		.2byte	0x250
 1635 0250 01       		.byte	0x1
 1636 0251 9A000000 		.4byte	0x9a
 1637 0255 00000000 		.4byte	.LFB10
 1638 0259 36000000 		.4byte	.LFE10
 1639 025d EA010000 		.4byte	.LLST10
 1640 0261 75020000 		.4byte	0x275
 1641 0265 0F       		.uleb128 0xf
 1642 0266 72657300 		.ascii	"res\000"
 1643 026a 01       		.byte	0x1
 1644 026b 5202     		.2byte	0x252
 1645 026d 84000000 		.4byte	0x84
 1646 0271 02       		.byte	0x2
 1647 0272 91       		.byte	0x91
 1648 0273 76       		.sleb128 -10
 1649 0274 00       		.byte	0x0
 1650 0275 0A       		.uleb128 0xa
 1651 0276 01       		.byte	0x1
 1652 0277 CE030000 		.4byte	.LASF34
 1653 027b 01       		.byte	0x1
 1654 027c 7E02     		.2byte	0x27e
 1655 027e 01       		.byte	0x1
 1656 027f 00000000 		.4byte	.LFB11
 1657 0283 20000000 		.4byte	.LFE11
 1658 0287 21020000 		.4byte	.LLST11
 1659 028b 9F020000 		.4byte	0x29f
 1660 028f 0B       		.uleb128 0xb
 1661 0290 0E000000 		.4byte	.LASF35
 1662 0294 01       		.byte	0x1
 1663 0295 7E02     		.2byte	0x27e
ARM GAS  C:\Users\karunmj\AppData\Local\Temp\ccy4LQk2.s 			page 45


 1664 0297 9A000000 		.4byte	0x9a
 1665 029b 02       		.byte	0x2
 1666 029c 91       		.byte	0x91
 1667 029d 76       		.sleb128 -10
 1668 029e 00       		.byte	0x0
 1669 029f 10       		.uleb128 0x10
 1670 02a0 A9020000 		.4byte	.LASF54
 1671 02a4 01       		.byte	0x1
 1672 02a5 9802     		.2byte	0x298
 1673 02a7 01       		.byte	0x1
 1674 02a8 00000000 		.4byte	.LFB12
 1675 02ac 88000000 		.4byte	.LFE12
 1676 02b0 58020000 		.4byte	.LLST12
 1677 02b4 D7020000 		.4byte	0x2d7
 1678 02b8 0B       		.uleb128 0xb
 1679 02b9 C3030000 		.4byte	.LASF27
 1680 02bd 01       		.byte	0x1
 1681 02be 9802     		.2byte	0x298
 1682 02c0 79000000 		.4byte	0x79
 1683 02c4 02       		.byte	0x2
 1684 02c5 91       		.byte	0x91
 1685 02c6 6F       		.sleb128 -17
 1686 02c7 09       		.uleb128 0x9
 1687 02c8 D0010000 		.4byte	.LASF36
 1688 02cc 01       		.byte	0x1
 1689 02cd 9A02     		.2byte	0x29a
 1690 02cf A5000000 		.4byte	0xa5
 1691 02d3 02       		.byte	0x2
 1692 02d4 91       		.byte	0x91
 1693 02d5 74       		.sleb128 -12
 1694 02d6 00       		.byte	0x0
 1695 02d7 0A       		.uleb128 0xa
 1696 02d8 01       		.byte	0x1
 1697 02d9 3F020000 		.4byte	.LASF37
 1698 02dd 01       		.byte	0x1
 1699 02de E402     		.2byte	0x2e4
 1700 02e0 01       		.byte	0x1
 1701 02e1 00000000 		.4byte	.LFB13
 1702 02e5 20000000 		.4byte	.LFE13
 1703 02e9 8F020000 		.4byte	.LLST13
 1704 02ed 01030000 		.4byte	0x301
 1705 02f1 0B       		.uleb128 0xb
 1706 02f2 A5010000 		.4byte	.LASF38
 1707 02f6 01       		.byte	0x1
 1708 02f7 E402     		.2byte	0x2e4
 1709 02f9 9A000000 		.4byte	0x9a
 1710 02fd 02       		.byte	0x2
 1711 02fe 91       		.byte	0x91
 1712 02ff 76       		.sleb128 -10
 1713 0300 00       		.byte	0x0
 1714 0301 0D       		.uleb128 0xd
 1715 0302 01       		.byte	0x1
 1716 0303 86000000 		.4byte	.LASF39
 1717 0307 01       		.byte	0x1
 1718 0308 FC02     		.2byte	0x2fc
 1719 030a 01       		.byte	0x1
 1720 030b 9A000000 		.4byte	0x9a
ARM GAS  C:\Users\karunmj\AppData\Local\Temp\ccy4LQk2.s 			page 46


 1721 030f 00000000 		.4byte	.LFB14
 1722 0313 52000000 		.4byte	.LFE14
 1723 0317 C6020000 		.4byte	.LLST14
 1724 031b 3E030000 		.4byte	0x33e
 1725 031f 0B       		.uleb128 0xb
 1726 0320 C6010000 		.4byte	.LASF40
 1727 0324 01       		.byte	0x1
 1728 0325 FC02     		.2byte	0x2fc
 1729 0327 9A000000 		.4byte	0x9a
 1730 032b 02       		.byte	0x2
 1731 032c 91       		.byte	0x91
 1732 032d 6E       		.sleb128 -18
 1733 032e 09       		.uleb128 0x9
 1734 032f 81020000 		.4byte	.LASF41
 1735 0333 01       		.byte	0x1
 1736 0334 FF02     		.2byte	0x2ff
 1737 0336 9A000000 		.4byte	0x9a
 1738 033a 02       		.byte	0x2
 1739 033b 91       		.byte	0x91
 1740 033c 76       		.sleb128 -10
 1741 033d 00       		.byte	0x0
 1742 033e 0D       		.uleb128 0xd
 1743 033f 01       		.byte	0x1
 1744 0340 5F020000 		.4byte	.LASF42
 1745 0344 01       		.byte	0x1
 1746 0345 1C03     		.2byte	0x31c
 1747 0347 01       		.byte	0x1
 1748 0348 A5000000 		.4byte	0xa5
 1749 034c 00000000 		.4byte	.LFB15
 1750 0350 58000000 		.4byte	.LFE15
 1751 0354 FD020000 		.4byte	.LLST15
 1752 0358 7B030000 		.4byte	0x37b
 1753 035c 0B       		.uleb128 0xb
 1754 035d C6010000 		.4byte	.LASF40
 1755 0361 01       		.byte	0x1
 1756 0362 1C03     		.2byte	0x31c
 1757 0364 9A000000 		.4byte	0x9a
 1758 0368 02       		.byte	0x2
 1759 0369 91       		.byte	0x91
 1760 036a 6E       		.sleb128 -18
 1761 036b 09       		.uleb128 0x9
 1762 036c 44000000 		.4byte	.LASF43
 1763 0370 01       		.byte	0x1
 1764 0371 1F03     		.2byte	0x31f
 1765 0373 A5000000 		.4byte	0xa5
 1766 0377 02       		.byte	0x2
 1767 0378 91       		.byte	0x91
 1768 0379 74       		.sleb128 -12
 1769 037a 00       		.byte	0x0
 1770 037b 0D       		.uleb128 0xd
 1771 037c 01       		.byte	0x1
 1772 037d 88020000 		.4byte	.LASF44
 1773 0381 01       		.byte	0x1
 1774 0382 3F03     		.2byte	0x33f
 1775 0384 01       		.byte	0x1
 1776 0385 B0000000 		.4byte	0xb0
 1777 0389 00000000 		.4byte	.LFB16
ARM GAS  C:\Users\karunmj\AppData\Local\Temp\ccy4LQk2.s 			page 47


 1778 038d 5C000000 		.4byte	.LFE16
 1779 0391 34030000 		.4byte	.LLST16
 1780 0395 B8030000 		.4byte	0x3b8
 1781 0399 0B       		.uleb128 0xb
 1782 039a C6010000 		.4byte	.LASF40
 1783 039e 01       		.byte	0x1
 1784 039f 3F03     		.2byte	0x33f
 1785 03a1 9A000000 		.4byte	0x9a
 1786 03a5 02       		.byte	0x2
 1787 03a6 91       		.byte	0x91
 1788 03a7 66       		.sleb128 -26
 1789 03a8 09       		.uleb128 0x9
 1790 03a9 59020000 		.4byte	.LASF45
 1791 03ad 01       		.byte	0x1
 1792 03ae 4103     		.2byte	0x341
 1793 03b0 B0000000 		.4byte	0xb0
 1794 03b4 02       		.byte	0x2
 1795 03b5 91       		.byte	0x91
 1796 03b6 6C       		.sleb128 -20
 1797 03b7 00       		.byte	0x0
 1798 03b8 11       		.uleb128 0x11
 1799 03b9 F4000000 		.4byte	.LASF46
 1800 03bd 01       		.byte	0x1
 1801 03be 23       		.byte	0x23
 1802 03bf 79000000 		.4byte	0x79
 1803 03c3 01       		.byte	0x1
 1804 03c4 05       		.byte	0x5
 1805 03c5 03       		.byte	0x3
 1806 03c6 00000000 		.4byte	ADC_SAR_Seq_1_SAR_initVar
 1807 03ca 11       		.uleb128 0x11
 1808 03cb 3E010000 		.4byte	.LASF47
 1809 03cf 01       		.byte	0x1
 1810 03d0 24       		.byte	0x24
 1811 03d1 DC030000 		.4byte	0x3dc
 1812 03d5 01       		.byte	0x1
 1813 03d6 05       		.byte	0x5
 1814 03d7 03       		.byte	0x3
 1815 03d8 00000000 		.4byte	ADC_SAR_Seq_1_SAR_offset
 1816 03dc 12       		.uleb128 0x12
 1817 03dd 9A000000 		.4byte	0x9a
 1818 03e1 11       		.uleb128 0x11
 1819 03e2 97030000 		.4byte	.LASF48
 1820 03e6 01       		.byte	0x1
 1821 03e7 25       		.byte	0x25
 1822 03e8 DC030000 		.4byte	0x3dc
 1823 03ec 01       		.byte	0x1
 1824 03ed 05       		.byte	0x5
 1825 03ee 03       		.byte	0x3
 1826 03ef 00000000 		.4byte	ADC_SAR_Seq_1_SAR_countsPerVolt
 1827 03f3 11       		.uleb128 0x11
 1828 03f4 15000000 		.4byte	.LASF49
 1829 03f8 01       		.byte	0x1
 1830 03f9 26       		.byte	0x26
 1831 03fa DC030000 		.4byte	0x3dc
 1832 03fe 01       		.byte	0x1
 1833 03ff 05       		.byte	0x5
 1834 0400 03       		.byte	0x3
ARM GAS  C:\Users\karunmj\AppData\Local\Temp\ccy4LQk2.s 			page 48


 1835 0401 00000000 		.4byte	ADC_SAR_Seq_1_SAR_shift
 1836 0405 00       		.byte	0x0
 1837              		.section	.debug_abbrev
 1838 0000 01       		.uleb128 0x1
 1839 0001 11       		.uleb128 0x11
 1840 0002 01       		.byte	0x1
 1841 0003 25       		.uleb128 0x25
 1842 0004 0E       		.uleb128 0xe
 1843 0005 13       		.uleb128 0x13
 1844 0006 0B       		.uleb128 0xb
 1845 0007 03       		.uleb128 0x3
 1846 0008 0E       		.uleb128 0xe
 1847 0009 1B       		.uleb128 0x1b
 1848 000a 0E       		.uleb128 0xe
 1849 000b 11       		.uleb128 0x11
 1850 000c 01       		.uleb128 0x1
 1851 000d 52       		.uleb128 0x52
 1852 000e 01       		.uleb128 0x1
 1853 000f 55       		.uleb128 0x55
 1854 0010 06       		.uleb128 0x6
 1855 0011 10       		.uleb128 0x10
 1856 0012 06       		.uleb128 0x6
 1857 0013 00       		.byte	0x0
 1858 0014 00       		.byte	0x0
 1859 0015 02       		.uleb128 0x2
 1860 0016 24       		.uleb128 0x24
 1861 0017 00       		.byte	0x0
 1862 0018 0B       		.uleb128 0xb
 1863 0019 0B       		.uleb128 0xb
 1864 001a 3E       		.uleb128 0x3e
 1865 001b 0B       		.uleb128 0xb
 1866 001c 03       		.uleb128 0x3
 1867 001d 0E       		.uleb128 0xe
 1868 001e 00       		.byte	0x0
 1869 001f 00       		.byte	0x0
 1870 0020 03       		.uleb128 0x3
 1871 0021 24       		.uleb128 0x24
 1872 0022 00       		.byte	0x0
 1873 0023 0B       		.uleb128 0xb
 1874 0024 0B       		.uleb128 0xb
 1875 0025 3E       		.uleb128 0x3e
 1876 0026 0B       		.uleb128 0xb
 1877 0027 03       		.uleb128 0x3
 1878 0028 08       		.uleb128 0x8
 1879 0029 00       		.byte	0x0
 1880 002a 00       		.byte	0x0
 1881 002b 04       		.uleb128 0x4
 1882 002c 24       		.uleb128 0x24
 1883 002d 00       		.byte	0x0
 1884 002e 0B       		.uleb128 0xb
 1885 002f 0B       		.uleb128 0xb
 1886 0030 3E       		.uleb128 0x3e
 1887 0031 0B       		.uleb128 0xb
 1888 0032 00       		.byte	0x0
 1889 0033 00       		.byte	0x0
 1890 0034 05       		.uleb128 0x5
 1891 0035 16       		.uleb128 0x16
ARM GAS  C:\Users\karunmj\AppData\Local\Temp\ccy4LQk2.s 			page 49


 1892 0036 00       		.byte	0x0
 1893 0037 03       		.uleb128 0x3
 1894 0038 0E       		.uleb128 0xe
 1895 0039 3A       		.uleb128 0x3a
 1896 003a 0B       		.uleb128 0xb
 1897 003b 3B       		.uleb128 0x3b
 1898 003c 0B       		.uleb128 0xb
 1899 003d 49       		.uleb128 0x49
 1900 003e 13       		.uleb128 0x13
 1901 003f 00       		.byte	0x0
 1902 0040 00       		.byte	0x0
 1903 0041 06       		.uleb128 0x6
 1904 0042 2E       		.uleb128 0x2e
 1905 0043 00       		.byte	0x0
 1906 0044 3F       		.uleb128 0x3f
 1907 0045 0C       		.uleb128 0xc
 1908 0046 03       		.uleb128 0x3
 1909 0047 0E       		.uleb128 0xe
 1910 0048 3A       		.uleb128 0x3a
 1911 0049 0B       		.uleb128 0xb
 1912 004a 3B       		.uleb128 0x3b
 1913 004b 0B       		.uleb128 0xb
 1914 004c 27       		.uleb128 0x27
 1915 004d 0C       		.uleb128 0xc
 1916 004e 11       		.uleb128 0x11
 1917 004f 01       		.uleb128 0x1
 1918 0050 12       		.uleb128 0x12
 1919 0051 01       		.uleb128 0x1
 1920 0052 40       		.uleb128 0x40
 1921 0053 06       		.uleb128 0x6
 1922 0054 00       		.byte	0x0
 1923 0055 00       		.byte	0x0
 1924 0056 07       		.uleb128 0x7
 1925 0057 2E       		.uleb128 0x2e
 1926 0058 01       		.byte	0x1
 1927 0059 3F       		.uleb128 0x3f
 1928 005a 0C       		.uleb128 0xc
 1929 005b 03       		.uleb128 0x3
 1930 005c 0E       		.uleb128 0xe
 1931 005d 3A       		.uleb128 0x3a
 1932 005e 0B       		.uleb128 0xb
 1933 005f 3B       		.uleb128 0x3b
 1934 0060 0B       		.uleb128 0xb
 1935 0061 27       		.uleb128 0x27
 1936 0062 0C       		.uleb128 0xc
 1937 0063 11       		.uleb128 0x11
 1938 0064 01       		.uleb128 0x1
 1939 0065 12       		.uleb128 0x12
 1940 0066 01       		.uleb128 0x1
 1941 0067 40       		.uleb128 0x40
 1942 0068 06       		.uleb128 0x6
 1943 0069 01       		.uleb128 0x1
 1944 006a 13       		.uleb128 0x13
 1945 006b 00       		.byte	0x0
 1946 006c 00       		.byte	0x0
 1947 006d 08       		.uleb128 0x8
 1948 006e 34       		.uleb128 0x34
ARM GAS  C:\Users\karunmj\AppData\Local\Temp\ccy4LQk2.s 			page 50


 1949 006f 00       		.byte	0x0
 1950 0070 03       		.uleb128 0x3
 1951 0071 0E       		.uleb128 0xe
 1952 0072 3A       		.uleb128 0x3a
 1953 0073 0B       		.uleb128 0xb
 1954 0074 3B       		.uleb128 0x3b
 1955 0075 0B       		.uleb128 0xb
 1956 0076 49       		.uleb128 0x49
 1957 0077 13       		.uleb128 0x13
 1958 0078 02       		.uleb128 0x2
 1959 0079 0A       		.uleb128 0xa
 1960 007a 00       		.byte	0x0
 1961 007b 00       		.byte	0x0
 1962 007c 09       		.uleb128 0x9
 1963 007d 34       		.uleb128 0x34
 1964 007e 00       		.byte	0x0
 1965 007f 03       		.uleb128 0x3
 1966 0080 0E       		.uleb128 0xe
 1967 0081 3A       		.uleb128 0x3a
 1968 0082 0B       		.uleb128 0xb
 1969 0083 3B       		.uleb128 0x3b
 1970 0084 05       		.uleb128 0x5
 1971 0085 49       		.uleb128 0x49
 1972 0086 13       		.uleb128 0x13
 1973 0087 02       		.uleb128 0x2
 1974 0088 0A       		.uleb128 0xa
 1975 0089 00       		.byte	0x0
 1976 008a 00       		.byte	0x0
 1977 008b 0A       		.uleb128 0xa
 1978 008c 2E       		.uleb128 0x2e
 1979 008d 01       		.byte	0x1
 1980 008e 3F       		.uleb128 0x3f
 1981 008f 0C       		.uleb128 0xc
 1982 0090 03       		.uleb128 0x3
 1983 0091 0E       		.uleb128 0xe
 1984 0092 3A       		.uleb128 0x3a
 1985 0093 0B       		.uleb128 0xb
 1986 0094 3B       		.uleb128 0x3b
 1987 0095 05       		.uleb128 0x5
 1988 0096 27       		.uleb128 0x27
 1989 0097 0C       		.uleb128 0xc
 1990 0098 11       		.uleb128 0x11
 1991 0099 01       		.uleb128 0x1
 1992 009a 12       		.uleb128 0x12
 1993 009b 01       		.uleb128 0x1
 1994 009c 40       		.uleb128 0x40
 1995 009d 06       		.uleb128 0x6
 1996 009e 01       		.uleb128 0x1
 1997 009f 13       		.uleb128 0x13
 1998 00a0 00       		.byte	0x0
 1999 00a1 00       		.byte	0x0
 2000 00a2 0B       		.uleb128 0xb
 2001 00a3 05       		.uleb128 0x5
 2002 00a4 00       		.byte	0x0
 2003 00a5 03       		.uleb128 0x3
 2004 00a6 0E       		.uleb128 0xe
 2005 00a7 3A       		.uleb128 0x3a
ARM GAS  C:\Users\karunmj\AppData\Local\Temp\ccy4LQk2.s 			page 51


 2006 00a8 0B       		.uleb128 0xb
 2007 00a9 3B       		.uleb128 0x3b
 2008 00aa 05       		.uleb128 0x5
 2009 00ab 49       		.uleb128 0x49
 2010 00ac 13       		.uleb128 0x13
 2011 00ad 02       		.uleb128 0x2
 2012 00ae 0A       		.uleb128 0xa
 2013 00af 00       		.byte	0x0
 2014 00b0 00       		.byte	0x0
 2015 00b1 0C       		.uleb128 0xc
 2016 00b2 2E       		.uleb128 0x2e
 2017 00b3 00       		.byte	0x0
 2018 00b4 3F       		.uleb128 0x3f
 2019 00b5 0C       		.uleb128 0xc
 2020 00b6 03       		.uleb128 0x3
 2021 00b7 0E       		.uleb128 0xe
 2022 00b8 3A       		.uleb128 0x3a
 2023 00b9 0B       		.uleb128 0xb
 2024 00ba 3B       		.uleb128 0x3b
 2025 00bb 05       		.uleb128 0x5
 2026 00bc 27       		.uleb128 0x27
 2027 00bd 0C       		.uleb128 0xc
 2028 00be 11       		.uleb128 0x11
 2029 00bf 01       		.uleb128 0x1
 2030 00c0 12       		.uleb128 0x12
 2031 00c1 01       		.uleb128 0x1
 2032 00c2 40       		.uleb128 0x40
 2033 00c3 06       		.uleb128 0x6
 2034 00c4 00       		.byte	0x0
 2035 00c5 00       		.byte	0x0
 2036 00c6 0D       		.uleb128 0xd
 2037 00c7 2E       		.uleb128 0x2e
 2038 00c8 01       		.byte	0x1
 2039 00c9 3F       		.uleb128 0x3f
 2040 00ca 0C       		.uleb128 0xc
 2041 00cb 03       		.uleb128 0x3
 2042 00cc 0E       		.uleb128 0xe
 2043 00cd 3A       		.uleb128 0x3a
 2044 00ce 0B       		.uleb128 0xb
 2045 00cf 3B       		.uleb128 0x3b
 2046 00d0 05       		.uleb128 0x5
 2047 00d1 27       		.uleb128 0x27
 2048 00d2 0C       		.uleb128 0xc
 2049 00d3 49       		.uleb128 0x49
 2050 00d4 13       		.uleb128 0x13
 2051 00d5 11       		.uleb128 0x11
 2052 00d6 01       		.uleb128 0x1
 2053 00d7 12       		.uleb128 0x12
 2054 00d8 01       		.uleb128 0x1
 2055 00d9 40       		.uleb128 0x40
 2056 00da 06       		.uleb128 0x6
 2057 00db 01       		.uleb128 0x1
 2058 00dc 13       		.uleb128 0x13
 2059 00dd 00       		.byte	0x0
 2060 00de 00       		.byte	0x0
 2061 00df 0E       		.uleb128 0xe
 2062 00e0 2E       		.uleb128 0x2e
ARM GAS  C:\Users\karunmj\AppData\Local\Temp\ccy4LQk2.s 			page 52


 2063 00e1 00       		.byte	0x0
 2064 00e2 3F       		.uleb128 0x3f
 2065 00e3 0C       		.uleb128 0xc
 2066 00e4 03       		.uleb128 0x3
 2067 00e5 0E       		.uleb128 0xe
 2068 00e6 3A       		.uleb128 0x3a
 2069 00e7 0B       		.uleb128 0xb
 2070 00e8 3B       		.uleb128 0x3b
 2071 00e9 05       		.uleb128 0x5
 2072 00ea 27       		.uleb128 0x27
 2073 00eb 0C       		.uleb128 0xc
 2074 00ec 49       		.uleb128 0x49
 2075 00ed 13       		.uleb128 0x13
 2076 00ee 11       		.uleb128 0x11
 2077 00ef 01       		.uleb128 0x1
 2078 00f0 12       		.uleb128 0x12
 2079 00f1 01       		.uleb128 0x1
 2080 00f2 40       		.uleb128 0x40
 2081 00f3 06       		.uleb128 0x6
 2082 00f4 00       		.byte	0x0
 2083 00f5 00       		.byte	0x0
 2084 00f6 0F       		.uleb128 0xf
 2085 00f7 34       		.uleb128 0x34
 2086 00f8 00       		.byte	0x0
 2087 00f9 03       		.uleb128 0x3
 2088 00fa 08       		.uleb128 0x8
 2089 00fb 3A       		.uleb128 0x3a
 2090 00fc 0B       		.uleb128 0xb
 2091 00fd 3B       		.uleb128 0x3b
 2092 00fe 05       		.uleb128 0x5
 2093 00ff 49       		.uleb128 0x49
 2094 0100 13       		.uleb128 0x13
 2095 0101 02       		.uleb128 0x2
 2096 0102 0A       		.uleb128 0xa
 2097 0103 00       		.byte	0x0
 2098 0104 00       		.byte	0x0
 2099 0105 10       		.uleb128 0x10
 2100 0106 2E       		.uleb128 0x2e
 2101 0107 01       		.byte	0x1
 2102 0108 03       		.uleb128 0x3
 2103 0109 0E       		.uleb128 0xe
 2104 010a 3A       		.uleb128 0x3a
 2105 010b 0B       		.uleb128 0xb
 2106 010c 3B       		.uleb128 0x3b
 2107 010d 05       		.uleb128 0x5
 2108 010e 27       		.uleb128 0x27
 2109 010f 0C       		.uleb128 0xc
 2110 0110 11       		.uleb128 0x11
 2111 0111 01       		.uleb128 0x1
 2112 0112 12       		.uleb128 0x12
 2113 0113 01       		.uleb128 0x1
 2114 0114 40       		.uleb128 0x40
 2115 0115 06       		.uleb128 0x6
 2116 0116 01       		.uleb128 0x1
 2117 0117 13       		.uleb128 0x13
 2118 0118 00       		.byte	0x0
 2119 0119 00       		.byte	0x0
ARM GAS  C:\Users\karunmj\AppData\Local\Temp\ccy4LQk2.s 			page 53


 2120 011a 11       		.uleb128 0x11
 2121 011b 34       		.uleb128 0x34
 2122 011c 00       		.byte	0x0
 2123 011d 03       		.uleb128 0x3
 2124 011e 0E       		.uleb128 0xe
 2125 011f 3A       		.uleb128 0x3a
 2126 0120 0B       		.uleb128 0xb
 2127 0121 3B       		.uleb128 0x3b
 2128 0122 0B       		.uleb128 0xb
 2129 0123 49       		.uleb128 0x49
 2130 0124 13       		.uleb128 0x13
 2131 0125 3F       		.uleb128 0x3f
 2132 0126 0C       		.uleb128 0xc
 2133 0127 02       		.uleb128 0x2
 2134 0128 0A       		.uleb128 0xa
 2135 0129 00       		.byte	0x0
 2136 012a 00       		.byte	0x0
 2137 012b 12       		.uleb128 0x12
 2138 012c 35       		.uleb128 0x35
 2139 012d 00       		.byte	0x0
 2140 012e 49       		.uleb128 0x49
 2141 012f 13       		.uleb128 0x13
 2142 0130 00       		.byte	0x0
 2143 0131 00       		.byte	0x0
 2144 0132 00       		.byte	0x0
 2145              		.section	.debug_pubnames,"",%progbits
 2146 0000 98020000 		.4byte	0x298
 2147 0004 0200     		.2byte	0x2
 2148 0006 00000000 		.4byte	.Ldebug_info0
 2149 000a 06040000 		.4byte	0x406
 2150 000e C9000000 		.4byte	0xc9
 2151 0012 4144435F 		.ascii	"ADC_SAR_Seq_1_SAR_Start\000"
 2151      5341525F 
 2151      5365715F 
 2151      315F5341 
 2151      525F5374 
 2152 002a DE000000 		.4byte	0xde
 2153 002e 4144435F 		.ascii	"ADC_SAR_Seq_1_SAR_Init\000"
 2153      5341525F 
 2153      5365715F 
 2153      315F5341 
 2153      525F496E 
 2154 0045 F3000000 		.4byte	0xf3
 2155 0049 4144435F 		.ascii	"ADC_SAR_Seq_1_SAR_Enable\000"
 2155      5341525F 
 2155      5365715F 
 2155      315F5341 
 2155      525F456E 
 2156 0062 29010000 		.4byte	0x129
 2157 0066 4144435F 		.ascii	"ADC_SAR_Seq_1_SAR_Stop\000"
 2157      5341525F 
 2157      5365715F 
 2157      315F5341 
 2157      525F5374 
 2158 007d 52010000 		.4byte	0x152
 2159 0081 4144435F 		.ascii	"ADC_SAR_Seq_1_SAR_SetPower\000"
 2159      5341525F 
ARM GAS  C:\Users\karunmj\AppData\Local\Temp\ccy4LQk2.s 			page 54


 2159      5365715F 
 2159      315F5341 
 2159      525F5365 
 2160 009c 8B010000 		.4byte	0x18b
 2161 00a0 4144435F 		.ascii	"ADC_SAR_Seq_1_SAR_SetResolution\000"
 2161      5341525F 
 2161      5365715F 
 2161      315F5341 
 2161      525F5365 
 2162 00c0 C4010000 		.4byte	0x1c4
 2163 00c4 4144435F 		.ascii	"ADC_SAR_Seq_1_SAR_StartConvert\000"
 2163      5341525F 
 2163      5365715F 
 2163      315F5341 
 2163      525F5374 
 2164 00e3 DA010000 		.4byte	0x1da
 2165 00e7 4144435F 		.ascii	"ADC_SAR_Seq_1_SAR_StopConvert\000"
 2165      5341525F 
 2165      5365715F 
 2165      315F5341 
 2165      525F5374 
 2166 0105 F0010000 		.4byte	0x1f0
 2167 0109 4144435F 		.ascii	"ADC_SAR_Seq_1_SAR_IsEndConversion\000"
 2167      5341525F 
 2167      5365715F 
 2167      315F5341 
 2167      525F4973 
 2168 012b 2D020000 		.4byte	0x22d
 2169 012f 4144435F 		.ascii	"ADC_SAR_Seq_1_SAR_GetResult8\000"
 2169      5341525F 
 2169      5365715F 
 2169      315F5341 
 2169      525F4765 
 2170 014c 47020000 		.4byte	0x247
 2171 0150 4144435F 		.ascii	"ADC_SAR_Seq_1_SAR_GetResult16\000"
 2171      5341525F 
 2171      5365715F 
 2171      315F5341 
 2171      525F4765 
 2172 016e 75020000 		.4byte	0x275
 2173 0172 4144435F 		.ascii	"ADC_SAR_Seq_1_SAR_SetOffset\000"
 2173      5341525F 
 2173      5365715F 
 2173      315F5341 
 2173      525F5365 
 2174 018e D7020000 		.4byte	0x2d7
 2175 0192 4144435F 		.ascii	"ADC_SAR_Seq_1_SAR_SetGain\000"
 2175      5341525F 
 2175      5365715F 
 2175      315F5341 
 2175      525F5365 
 2176 01ac 01030000 		.4byte	0x301
 2177 01b0 4144435F 		.ascii	"ADC_SAR_Seq_1_SAR_CountsTo_mVolts\000"
 2177      5341525F 
 2177      5365715F 
 2177      315F5341 
 2177      525F436F 
ARM GAS  C:\Users\karunmj\AppData\Local\Temp\ccy4LQk2.s 			page 55


 2178 01d2 3E030000 		.4byte	0x33e
 2179 01d6 4144435F 		.ascii	"ADC_SAR_Seq_1_SAR_CountsTo_uVolts\000"
 2179      5341525F 
 2179      5365715F 
 2179      315F5341 
 2179      525F436F 
 2180 01f8 7B030000 		.4byte	0x37b
 2181 01fc 4144435F 		.ascii	"ADC_SAR_Seq_1_SAR_CountsTo_Volts\000"
 2181      5341525F 
 2181      5365715F 
 2181      315F5341 
 2181      525F436F 
 2182 021d B8030000 		.4byte	0x3b8
 2183 0221 4144435F 		.ascii	"ADC_SAR_Seq_1_SAR_initVar\000"
 2183      5341525F 
 2183      5365715F 
 2183      315F5341 
 2183      525F696E 
 2184 023b CA030000 		.4byte	0x3ca
 2185 023f 4144435F 		.ascii	"ADC_SAR_Seq_1_SAR_offset\000"
 2185      5341525F 
 2185      5365715F 
 2185      315F5341 
 2185      525F6F66 
 2186 0258 E1030000 		.4byte	0x3e1
 2187 025c 4144435F 		.ascii	"ADC_SAR_Seq_1_SAR_countsPerVolt\000"
 2187      5341525F 
 2187      5365715F 
 2187      315F5341 
 2187      525F636F 
 2188 027c F3030000 		.4byte	0x3f3
 2189 0280 4144435F 		.ascii	"ADC_SAR_Seq_1_SAR_shift\000"
 2189      5341525F 
 2189      5365715F 
 2189      315F5341 
 2189      525F7368 
 2190 0298 00000000 		.4byte	0x0
 2191              		.section	.debug_aranges,"",%progbits
 2192 0000 9C000000 		.4byte	0x9c
 2193 0004 0200     		.2byte	0x2
 2194 0006 00000000 		.4byte	.Ldebug_info0
 2195 000a 04       		.byte	0x4
 2196 000b 00       		.byte	0x0
 2197 000c 0000     		.2byte	0x0
 2198 000e 0000     		.2byte	0x0
 2199 0010 00000000 		.4byte	.LFB0
 2200 0014 2A000000 		.4byte	.LFE0-.LFB0
 2201 0018 00000000 		.4byte	.LFB1
 2202 001c 38000000 		.4byte	.LFE1-.LFB1
 2203 0020 00000000 		.4byte	.LFB2
 2204 0024 F4000000 		.4byte	.LFE2-.LFB2
 2205 0028 00000000 		.4byte	.LFB3
 2206 002c 6C000000 		.4byte	.LFE3-.LFB3
 2207 0030 00000000 		.4byte	.LFB4
 2208 0034 4A000000 		.4byte	.LFE4-.LFB4
 2209 0038 00000000 		.4byte	.LFB5
 2210 003c 5C000000 		.4byte	.LFE5-.LFB5
ARM GAS  C:\Users\karunmj\AppData\Local\Temp\ccy4LQk2.s 			page 56


 2211 0040 00000000 		.4byte	.LFB6
 2212 0044 26000000 		.4byte	.LFE6-.LFB6
 2213 0048 00000000 		.4byte	.LFB7
 2214 004c 24000000 		.4byte	.LFE7-.LFB7
 2215 0050 00000000 		.4byte	.LFB8
 2216 0054 4C000000 		.4byte	.LFE8-.LFB8
 2217 0058 00000000 		.4byte	.LFB9
 2218 005c 2E000000 		.4byte	.LFE9-.LFB9
 2219 0060 00000000 		.4byte	.LFB10
 2220 0064 36000000 		.4byte	.LFE10-.LFB10
 2221 0068 00000000 		.4byte	.LFB11
 2222 006c 20000000 		.4byte	.LFE11-.LFB11
 2223 0070 00000000 		.4byte	.LFB12
 2224 0074 88000000 		.4byte	.LFE12-.LFB12
 2225 0078 00000000 		.4byte	.LFB13
 2226 007c 20000000 		.4byte	.LFE13-.LFB13
 2227 0080 00000000 		.4byte	.LFB14
 2228 0084 52000000 		.4byte	.LFE14-.LFB14
 2229 0088 00000000 		.4byte	.LFB15
 2230 008c 58000000 		.4byte	.LFE15-.LFB15
 2231 0090 00000000 		.4byte	.LFB16
 2232 0094 5C000000 		.4byte	.LFE16-.LFB16
 2233 0098 00000000 		.4byte	0x0
 2234 009c 00000000 		.4byte	0x0
 2235              		.section	.debug_ranges,"",%progbits
 2236              	.Ldebug_ranges0:
 2237 0000 00000000 		.4byte	.Ltext0
 2238 0004 00000000 		.4byte	.Letext0
 2239 0008 00000000 		.4byte	.LFB0
 2240 000c 2A000000 		.4byte	.LFE0
 2241 0010 00000000 		.4byte	.LFB1
 2242 0014 38000000 		.4byte	.LFE1
 2243 0018 00000000 		.4byte	.LFB2
 2244 001c F4000000 		.4byte	.LFE2
 2245 0020 00000000 		.4byte	.LFB3
 2246 0024 6C000000 		.4byte	.LFE3
 2247 0028 00000000 		.4byte	.LFB4
 2248 002c 4A000000 		.4byte	.LFE4
 2249 0030 00000000 		.4byte	.LFB5
 2250 0034 5C000000 		.4byte	.LFE5
 2251 0038 00000000 		.4byte	.LFB6
 2252 003c 26000000 		.4byte	.LFE6
 2253 0040 00000000 		.4byte	.LFB7
 2254 0044 24000000 		.4byte	.LFE7
 2255 0048 00000000 		.4byte	.LFB8
 2256 004c 4C000000 		.4byte	.LFE8
 2257 0050 00000000 		.4byte	.LFB9
 2258 0054 2E000000 		.4byte	.LFE9
 2259 0058 00000000 		.4byte	.LFB10
 2260 005c 36000000 		.4byte	.LFE10
 2261 0060 00000000 		.4byte	.LFB11
 2262 0064 20000000 		.4byte	.LFE11
 2263 0068 00000000 		.4byte	.LFB12
 2264 006c 88000000 		.4byte	.LFE12
 2265 0070 00000000 		.4byte	.LFB13
 2266 0074 20000000 		.4byte	.LFE13
 2267 0078 00000000 		.4byte	.LFB14
ARM GAS  C:\Users\karunmj\AppData\Local\Temp\ccy4LQk2.s 			page 57


 2268 007c 52000000 		.4byte	.LFE14
 2269 0080 00000000 		.4byte	.LFB15
 2270 0084 58000000 		.4byte	.LFE15
 2271 0088 00000000 		.4byte	.LFB16
 2272 008c 5C000000 		.4byte	.LFE16
 2273 0090 00000000 		.4byte	0x0
 2274 0094 00000000 		.4byte	0x0
 2275              		.section	.debug_str,"MS",%progbits,1
 2276              	.LASF5:
 2277 0000 6C6F6E67 		.ascii	"long long int\000"
 2277      206C6F6E 
 2277      6720696E 
 2277      7400
 2278              	.LASF35:
 2279 000e 6F666673 		.ascii	"offset\000"
 2279      657400
 2280              	.LASF49:
 2281 0015 4144435F 		.ascii	"ADC_SAR_Seq_1_SAR_shift\000"
 2281      5341525F 
 2281      5365715F 
 2281      315F5341 
 2281      525F7368 
 2282              	.LASF23:
 2283 002d 4144435F 		.ascii	"ADC_SAR_Seq_1_SAR_Stop\000"
 2283      5341525F 
 2283      5365715F 
 2283      315F5341 
 2283      525F5374 
 2284              	.LASF43:
 2285 0044 75566F6C 		.ascii	"uVolts\000"
 2285      747300
 2286              	.LASF3:
 2287 004b 73686F72 		.ascii	"short unsigned int\000"
 2287      7420756E 
 2287      7369676E 
 2287      65642069 
 2287      6E7400
 2288              	.LASF24:
 2289 005e 4144435F 		.ascii	"ADC_SAR_Seq_1_SAR_SetPower\000"
 2289      5341525F 
 2289      5365715F 
 2289      315F5341 
 2289      525F5365 
 2290              	.LASF31:
 2291 0079 73746174 		.ascii	"status\000"
 2291      757300
 2292              	.LASF26:
 2293 0080 706F7765 		.ascii	"power\000"
 2293      7200
 2294              	.LASF39:
 2295 0086 4144435F 		.ascii	"ADC_SAR_Seq_1_SAR_CountsTo_mVolts\000"
 2295      5341525F 
 2295      5365715F 
 2295      315F5341 
 2295      525F436F 
 2296              	.LASF15:
 2297 00a8 666C6F61 		.ascii	"float32\000"
ARM GAS  C:\Users\karunmj\AppData\Local\Temp\ccy4LQk2.s 			page 58


 2297      74333200 
 2298              	.LASF33:
 2299 00b0 4144435F 		.ascii	"ADC_SAR_Seq_1_SAR_GetResult16\000"
 2299      5341525F 
 2299      5365715F 
 2299      315F5341 
 2299      525F4765 
 2300              	.LASF16:
 2301 00ce 666C6F61 		.ascii	"float\000"
 2301      7400
 2302              	.LASF25:
 2303 00d4 4144435F 		.ascii	"ADC_SAR_Seq_1_SAR_SetResolution\000"
 2303      5341525F 
 2303      5365715F 
 2303      315F5341 
 2303      525F5365 
 2304              	.LASF46:
 2305 00f4 4144435F 		.ascii	"ADC_SAR_Seq_1_SAR_initVar\000"
 2305      5341525F 
 2305      5365715F 
 2305      315F5341 
 2305      525F696E 
 2306              	.LASF1:
 2307 010e 756E7369 		.ascii	"unsigned char\000"
 2307      676E6564 
 2307      20636861 
 2307      7200
 2308              	.LASF32:
 2309 011c 4144435F 		.ascii	"ADC_SAR_Seq_1_SAR_IsEndConversion\000"
 2309      5341525F 
 2309      5365715F 
 2309      315F5341 
 2309      525F4973 
 2310              	.LASF47:
 2311 013e 4144435F 		.ascii	"ADC_SAR_Seq_1_SAR_offset\000"
 2311      5341525F 
 2311      5365715F 
 2311      315F5341 
 2311      525F6F66 
 2312              	.LASF13:
 2313 0157 696E7431 		.ascii	"int16\000"
 2313      3600
 2314              	.LASF8:
 2315 015d 6C6F6E67 		.ascii	"long unsigned int\000"
 2315      20756E73 
 2315      69676E65 
 2315      6420696E 
 2315      7400
 2316              	.LASF14:
 2317 016f 696E7433 		.ascii	"int32\000"
 2317      3200
 2318              	.LASF18:
 2319 0175 4144435F 		.ascii	"ADC_SAR_Seq_1_SAR_Start\000"
 2319      5341525F 
 2319      5365715F 
 2319      315F5341 
 2319      525F5374 
ARM GAS  C:\Users\karunmj\AppData\Local\Temp\ccy4LQk2.s 			page 59


 2320              	.LASF21:
 2321 018d 656E6162 		.ascii	"enableInterrupts\000"
 2321      6C65496E 
 2321      74657272 
 2321      75707473 
 2321      00
 2322              	.LASF17:
 2323 019e 646F7562 		.ascii	"double\000"
 2323      6C6500
 2324              	.LASF38:
 2325 01a5 61646347 		.ascii	"adcGain\000"
 2325      61696E00 
 2326              	.LASF11:
 2327 01ad 75696E74 		.ascii	"uint16\000"
 2327      313600
 2328              	.LASF12:
 2329 01b4 696E7438 		.ascii	"int8\000"
 2329      00
 2330              	.LASF4:
 2331 01b9 756E7369 		.ascii	"unsigned int\000"
 2331      676E6564 
 2331      20696E74 
 2331      00
 2332              	.LASF40:
 2333 01c6 61646343 		.ascii	"adcCounts\000"
 2333      6F756E74 
 2333      7300
 2334              	.LASF36:
 2335 01d0 636F756E 		.ascii	"counts\000"
 2335      747300
 2336              	.LASF6:
 2337 01d7 6C6F6E67 		.ascii	"long long unsigned int\000"
 2337      206C6F6E 
 2337      6720756E 
 2337      7369676E 
 2337      65642069 
 2338              	.LASF52:
 2339 01ee 433A5C55 		.ascii	"C:\\Users\\karunmj\\Documents\\GitHub\\m2m\\hardwar"
 2339      73657273 
 2339      5C6B6172 
 2339      756E6D6A 
 2339      5C446F63 
 2340 021b 655C7073 		.ascii	"e\\psoc5\\Campbell_Conductivity.cydsn\000"
 2340      6F63355C 
 2340      43616D70 
 2340      62656C6C 
 2340      5F436F6E 
 2341              	.LASF37:
 2342 023f 4144435F 		.ascii	"ADC_SAR_Seq_1_SAR_SetGain\000"
 2342      5341525F 
 2342      5365715F 
 2342      315F5341 
 2342      525F5365 
 2343              	.LASF45:
 2344 0259 766F6C74 		.ascii	"volts\000"
 2344      7300
 2345              	.LASF42:
ARM GAS  C:\Users\karunmj\AppData\Local\Temp\ccy4LQk2.s 			page 60


 2346 025f 4144435F 		.ascii	"ADC_SAR_Seq_1_SAR_CountsTo_uVolts\000"
 2346      5341525F 
 2346      5365715F 
 2346      315F5341 
 2346      525F436F 
 2347              	.LASF41:
 2348 0281 6D566F6C 		.ascii	"mVolts\000"
 2348      747300
 2349              	.LASF44:
 2350 0288 4144435F 		.ascii	"ADC_SAR_Seq_1_SAR_CountsTo_Volts\000"
 2350      5341525F 
 2350      5365715F 
 2350      315F5341 
 2350      525F436F 
 2351              	.LASF54:
 2352 02a9 4144435F 		.ascii	"ADC_SAR_Seq_1_SAR_CalcGain\000"
 2352      5341525F 
 2352      5365715F 
 2352      315F5341 
 2352      525F4361 
 2353              	.LASF50:
 2354 02c4 474E5520 		.ascii	"GNU C 4.4.1\000"
 2354      4320342E 
 2354      342E3100 
 2355              	.LASF20:
 2356 02d0 746D7052 		.ascii	"tmpReg\000"
 2356      656700
 2357              	.LASF51:
 2358 02d7 2E5C4765 		.ascii	".\\Generated_Source\\PSoC5\\ADC_SAR_Seq_1_SAR.c\000"
 2358      6E657261 
 2358      7465645F 
 2358      536F7572 
 2358      63655C50 
 2359              	.LASF9:
 2360 0304 63686172 		.ascii	"char\000"
 2360      00
 2361              	.LASF19:
 2362 0309 4144435F 		.ascii	"ADC_SAR_Seq_1_SAR_Init\000"
 2362      5341525F 
 2362      5365715F 
 2362      315F5341 
 2362      525F496E 
 2363              	.LASF22:
 2364 0320 4144435F 		.ascii	"ADC_SAR_Seq_1_SAR_Enable\000"
 2364      5341525F 
 2364      5365715F 
 2364      315F5341 
 2364      525F456E 
 2365              	.LASF2:
 2366 0339 73686F72 		.ascii	"short int\000"
 2366      7420696E 
 2366      7400
 2367              	.LASF10:
 2368 0343 75696E74 		.ascii	"uint8\000"
 2368      3800
 2369              	.LASF28:
 2370 0349 4144435F 		.ascii	"ADC_SAR_Seq_1_SAR_StartConvert\000"
ARM GAS  C:\Users\karunmj\AppData\Local\Temp\ccy4LQk2.s 			page 61


 2370      5341525F 
 2370      5365715F 
 2370      315F5341 
 2370      525F5374 
 2371              	.LASF29:
 2372 0368 4144435F 		.ascii	"ADC_SAR_Seq_1_SAR_StopConvert\000"
 2372      5341525F 
 2372      5365715F 
 2372      315F5341 
 2372      525F5374 
 2373              	.LASF7:
 2374 0386 6C6F6E67 		.ascii	"long int\000"
 2374      20696E74 
 2374      00
 2375              	.LASF30:
 2376 038f 7265744D 		.ascii	"retMode\000"
 2376      6F646500 
 2377              	.LASF48:
 2378 0397 4144435F 		.ascii	"ADC_SAR_Seq_1_SAR_countsPerVolt\000"
 2378      5341525F 
 2378      5365715F 
 2378      315F5341 
 2378      525F636F 
 2379              	.LASF0:
 2380 03b7 7369676E 		.ascii	"signed char\000"
 2380      65642063 
 2380      68617200 
 2381              	.LASF27:
 2382 03c3 7265736F 		.ascii	"resolution\000"
 2382      6C757469 
 2382      6F6E00
 2383              	.LASF34:
 2384 03ce 4144435F 		.ascii	"ADC_SAR_Seq_1_SAR_SetOffset\000"
 2384      5341525F 
 2384      5365715F 
 2384      315F5341 
 2384      525F5365 
 2385              	.LASF53:
 2386 03ea 4144435F 		.ascii	"ADC_SAR_Seq_1_SAR_GetResult8\000"
 2386      5341525F 
 2386      5365715F 
 2386      315F5341 
 2386      525F4765 
 2387              		.ident	"GCC: (Sourcery G++ Lite 2010q1-188) 4.4.1"
