ARM GAS  C:\Users\karunmj\AppData\Local\Temp\cckaKPrh.s 			page 1


   1              		.syntax unified
   2              		.cpu cortex-m3
   3              		.fpu softvfp
   4              		.eabi_attribute 20, 1
   5              		.eabi_attribute 21, 1
   6              		.eabi_attribute 23, 3
   7              		.eabi_attribute 24, 1
   8              		.eabi_attribute 25, 1
   9              		.eabi_attribute 26, 1
  10              		.eabi_attribute 30, 6
  11              		.eabi_attribute 18, 4
  12              		.thumb
  13              		.file	"cyfitter_cfg.c"
  20 0000 31020000 		.text
  20      0200F000 
  20      00000201 
  20      FB0E0D00 
  20      01010101 
  21              	.Ltext0:
  22              		.cfi_sections	.debug_frame
  23              		.section	.text.CYMEMZERO,"ax",%progbits
  24              		.align	2
  25              		.thumb
  26              		.thumb_func
  27              		.type	CYMEMZERO, %function
  28              	CYMEMZERO:
  29              	.LFB0:
  30              		.file 1 ".\\Generated_Source\\PSoC5\\cyfitter_cfg.c"
   1:.\Generated_Source\PSoC5/cyfitter_cfg.c **** /*******************************************************************************
   2:.\Generated_Source\PSoC5/cyfitter_cfg.c **** * FILENAME: cyfitter_cfg.c
   3:.\Generated_Source\PSoC5/cyfitter_cfg.c **** * PSoC Creator 2.2 Component Pack 6
   4:.\Generated_Source\PSoC5/cyfitter_cfg.c **** *
   5:.\Generated_Source\PSoC5/cyfitter_cfg.c **** * Description:
   6:.\Generated_Source\PSoC5/cyfitter_cfg.c **** * This file is automatically generated by PSoC Creator with device 
   7:.\Generated_Source\PSoC5/cyfitter_cfg.c **** * initialization code.  Except for the user defined sections in
   8:.\Generated_Source\PSoC5/cyfitter_cfg.c **** * CyClockStartupError(), this file should not be modified.
   9:.\Generated_Source\PSoC5/cyfitter_cfg.c **** *
  10:.\Generated_Source\PSoC5/cyfitter_cfg.c **** ********************************************************************************
  11:.\Generated_Source\PSoC5/cyfitter_cfg.c **** * Copyright 2013, Cypress Semiconductor Corporation.  All rights reserved.
  12:.\Generated_Source\PSoC5/cyfitter_cfg.c **** * You may use this file only in accordance with the license, terms, conditions, 
  13:.\Generated_Source\PSoC5/cyfitter_cfg.c **** * disclaimers, and limitations in the end user license agreement accompanying 
  14:.\Generated_Source\PSoC5/cyfitter_cfg.c **** * the software package with which this file was provided.
  15:.\Generated_Source\PSoC5/cyfitter_cfg.c **** ********************************************************************************/
  16:.\Generated_Source\PSoC5/cyfitter_cfg.c **** 
  17:.\Generated_Source\PSoC5/cyfitter_cfg.c **** #include <string.h>
  18:.\Generated_Source\PSoC5/cyfitter_cfg.c **** #include <cytypes.h>
  19:.\Generated_Source\PSoC5/cyfitter_cfg.c **** #include <cydevice_trm.h>
  20:.\Generated_Source\PSoC5/cyfitter_cfg.c **** #include <cyfitter.h>
  21:.\Generated_Source\PSoC5/cyfitter_cfg.c **** #include <CyLib.h>
  22:.\Generated_Source\PSoC5/cyfitter_cfg.c **** #include <cyfitter_cfg.h>
  23:.\Generated_Source\PSoC5/cyfitter_cfg.c **** 
ARM GAS  C:\Users\karunmj\AppData\Local\Temp\cckaKPrh.s 			page 2


  24:.\Generated_Source\PSoC5/cyfitter_cfg.c **** /* Clock startup error codes                                                   */
  25:.\Generated_Source\PSoC5/cyfitter_cfg.c **** #define CYCLOCKSTART_NO_ERROR    0u
  26:.\Generated_Source\PSoC5/cyfitter_cfg.c **** #define CYCLOCKSTART_XTAL_ERROR  1u
  27:.\Generated_Source\PSoC5/cyfitter_cfg.c **** #define CYCLOCKSTART_32KHZ_ERROR 2u
  28:.\Generated_Source\PSoC5/cyfitter_cfg.c **** #define CYCLOCKSTART_PLL_ERROR   3u
  29:.\Generated_Source\PSoC5/cyfitter_cfg.c **** 
  30:.\Generated_Source\PSoC5/cyfitter_cfg.c **** #ifdef CY_NEED_CYCLOCKSTARTUPERROR
  31:.\Generated_Source\PSoC5/cyfitter_cfg.c **** /*******************************************************************************
  32:.\Generated_Source\PSoC5/cyfitter_cfg.c **** * Function Name: CyClockStartupError
  33:.\Generated_Source\PSoC5/cyfitter_cfg.c **** ********************************************************************************
  34:.\Generated_Source\PSoC5/cyfitter_cfg.c **** * Summary:
  35:.\Generated_Source\PSoC5/cyfitter_cfg.c **** *  If an error is encountered during clock configuration (crystal startup error,
  36:.\Generated_Source\PSoC5/cyfitter_cfg.c **** *  PLL lock error, etc.), the system will end up here.  Unless reimplemented by
  37:.\Generated_Source\PSoC5/cyfitter_cfg.c **** *  the customer, this function will stop in an infinite loop.
  38:.\Generated_Source\PSoC5/cyfitter_cfg.c **** *
  39:.\Generated_Source\PSoC5/cyfitter_cfg.c **** * Parameters:
  40:.\Generated_Source\PSoC5/cyfitter_cfg.c **** *   void
  41:.\Generated_Source\PSoC5/cyfitter_cfg.c **** *
  42:.\Generated_Source\PSoC5/cyfitter_cfg.c **** * Return:
  43:.\Generated_Source\PSoC5/cyfitter_cfg.c **** *   void
  44:.\Generated_Source\PSoC5/cyfitter_cfg.c **** *
  45:.\Generated_Source\PSoC5/cyfitter_cfg.c **** *******************************************************************************/
  46:.\Generated_Source\PSoC5/cyfitter_cfg.c **** #if defined(__GNUC__) || defined(__ARMCC_VERSION)
  47:.\Generated_Source\PSoC5/cyfitter_cfg.c **** __attribute__ ((unused))
  48:.\Generated_Source\PSoC5/cyfitter_cfg.c **** #endif
  49:.\Generated_Source\PSoC5/cyfitter_cfg.c **** static void CyClockStartupError(uint8 errorCode);
  50:.\Generated_Source\PSoC5/cyfitter_cfg.c **** #if defined(__GNUC__) || defined(__ARMCC_VERSION)
  51:.\Generated_Source\PSoC5/cyfitter_cfg.c **** __attribute__ ((unused))
  52:.\Generated_Source\PSoC5/cyfitter_cfg.c **** #endif
  53:.\Generated_Source\PSoC5/cyfitter_cfg.c **** static void CyClockStartupError(uint8 errorCode)
  54:.\Generated_Source\PSoC5/cyfitter_cfg.c **** {
  55:.\Generated_Source\PSoC5/cyfitter_cfg.c ****     /* To remove the compiler warning if errorCode not used.                */
  56:.\Generated_Source\PSoC5/cyfitter_cfg.c ****     errorCode = errorCode;
  57:.\Generated_Source\PSoC5/cyfitter_cfg.c **** 
  58:.\Generated_Source\PSoC5/cyfitter_cfg.c ****     /* `#START CyClockStartupError` */
  59:.\Generated_Source\PSoC5/cyfitter_cfg.c **** 
  60:.\Generated_Source\PSoC5/cyfitter_cfg.c ****     /* If we have a clock startup error (bad MHz crystal, PLL lock, etc.),  */
  61:.\Generated_Source\PSoC5/cyfitter_cfg.c ****     /* we will end up here to allow the customer to implement something to  */
  62:.\Generated_Source\PSoC5/cyfitter_cfg.c ****     /* deal with the clock condition.                                       */
  63:.\Generated_Source\PSoC5/cyfitter_cfg.c **** 
  64:.\Generated_Source\PSoC5/cyfitter_cfg.c ****     /* `#END` */
  65:.\Generated_Source\PSoC5/cyfitter_cfg.c **** 
  66:.\Generated_Source\PSoC5/cyfitter_cfg.c ****     /* If nothing else, stop here since the clocks have not started         */
  67:.\Generated_Source\PSoC5/cyfitter_cfg.c ****     /* correctly.                                                           */
  68:.\Generated_Source\PSoC5/cyfitter_cfg.c ****     while(1) {}
  69:.\Generated_Source\PSoC5/cyfitter_cfg.c **** }
  70:.\Generated_Source\PSoC5/cyfitter_cfg.c **** #endif
  71:.\Generated_Source\PSoC5/cyfitter_cfg.c **** 
  72:.\Generated_Source\PSoC5/cyfitter_cfg.c **** 
  73:.\Generated_Source\PSoC5/cyfitter_cfg.c **** #if defined(__GNUC__) || defined(__ARMCC_VERSION)
  74:.\Generated_Source\PSoC5/cyfitter_cfg.c **** 	#define CYPACKED __attribute__ ((packed))
  75:.\Generated_Source\PSoC5/cyfitter_cfg.c **** 	#define CYALIGNED __attribute__ ((aligned))
  76:.\Generated_Source\PSoC5/cyfitter_cfg.c **** 	
  77:.\Generated_Source\PSoC5/cyfitter_cfg.c **** 	#if defined(__ARMCC_VERSION)
  78:.\Generated_Source\PSoC5/cyfitter_cfg.c **** 		#define CY_CFG_MEMORY_BARRIER() __memory_changed()
  79:.\Generated_Source\PSoC5/cyfitter_cfg.c **** 	#else
  80:.\Generated_Source\PSoC5/cyfitter_cfg.c **** 		#define CY_CFG_MEMORY_BARRIER() __sync_synchronize()
ARM GAS  C:\Users\karunmj\AppData\Local\Temp\cckaKPrh.s 			page 3


  81:.\Generated_Source\PSoC5/cyfitter_cfg.c **** 	#endif
  82:.\Generated_Source\PSoC5/cyfitter_cfg.c **** 	
  83:.\Generated_Source\PSoC5/cyfitter_cfg.c **** 
  84:.\Generated_Source\PSoC5/cyfitter_cfg.c **** 	__attribute__ ((unused))
  85:.\Generated_Source\PSoC5/cyfitter_cfg.c **** 	static void CYMEMZERO(void *s, size_t n);
  86:.\Generated_Source\PSoC5/cyfitter_cfg.c **** 	__attribute__ ((unused))
  87:.\Generated_Source\PSoC5/cyfitter_cfg.c **** 	static void CYMEMZERO(void *s, size_t n)
  88:.\Generated_Source\PSoC5/cyfitter_cfg.c **** 	{
  31              		.loc 1 88 0
  32              		.cfi_startproc
  33              		@ args = 0, pretend = 0, frame = 8
  34              		@ frame_needed = 1, uses_anonymous_args = 0
  35 0000 80B5     		push	{r7, lr}
  36              	.LCFI0:
  37              		.cfi_def_cfa_offset 8
  38 0002 82B0     		sub	sp, sp, #8
  39              	.LCFI1:
  40              		.cfi_def_cfa_offset 16
  41 0004 00AF     		add	r7, sp, #0
  42              		.cfi_offset 14, -4
  43              		.cfi_offset 7, -8
  44              	.LCFI2:
  45              		.cfi_def_cfa_register 7
  46 0006 7860     		str	r0, [r7, #4]
  47 0008 3960     		str	r1, [r7, #0]
  89:.\Generated_Source\PSoC5/cyfitter_cfg.c **** 		(void)memset(s, 0, n);
  48              		.loc 1 89 0
  49 000a 7868     		ldr	r0, [r7, #4]
  50 000c 4FF00001 		mov	r1, #0
  51 0010 3A68     		ldr	r2, [r7, #0]
  52 0012 FFF7FEFF 		bl	memset
  90:.\Generated_Source\PSoC5/cyfitter_cfg.c **** 	}
  53              		.loc 1 90 0
  54 0016 07F10807 		add	r7, r7, #8
  55 001a BD46     		mov	sp, r7
  56 001c 80BD     		pop	{r7, pc}
  57              		.cfi_endproc
  58              	.LFE0:
  59              		.size	CYMEMZERO, .-CYMEMZERO
  60 001e 00BF     		.section	.text.CYCONFIGCPY,"ax",%progbits
  61              		.align	2
  62              		.thumb
  63              		.thumb_func
  64              		.type	CYCONFIGCPY, %function
  65              	CYCONFIGCPY:
  66              	.LFB1:
  91:.\Generated_Source\PSoC5/cyfitter_cfg.c **** 	__attribute__ ((unused))
  92:.\Generated_Source\PSoC5/cyfitter_cfg.c **** 	static void CYCONFIGCPY(void *dest, const void *src, size_t n);
  93:.\Generated_Source\PSoC5/cyfitter_cfg.c **** 	__attribute__ ((unused))
  94:.\Generated_Source\PSoC5/cyfitter_cfg.c **** 	static void CYCONFIGCPY(void *dest, const void *src, size_t n)
  95:.\Generated_Source\PSoC5/cyfitter_cfg.c **** 	{
  67              		.loc 1 95 0
  68              		.cfi_startproc
  69              		@ args = 0, pretend = 0, frame = 16
  70              		@ frame_needed = 1, uses_anonymous_args = 0
  71 0000 80B5     		push	{r7, lr}
  72              	.LCFI3:
ARM GAS  C:\Users\karunmj\AppData\Local\Temp\cckaKPrh.s 			page 4


  73              		.cfi_def_cfa_offset 8
  74 0002 84B0     		sub	sp, sp, #16
  75              	.LCFI4:
  76              		.cfi_def_cfa_offset 24
  77 0004 00AF     		add	r7, sp, #0
  78              		.cfi_offset 14, -4
  79              		.cfi_offset 7, -8
  80              	.LCFI5:
  81              		.cfi_def_cfa_register 7
  82 0006 F860     		str	r0, [r7, #12]
  83 0008 B960     		str	r1, [r7, #8]
  84 000a 7A60     		str	r2, [r7, #4]
  96:.\Generated_Source\PSoC5/cyfitter_cfg.c **** 		(void)memcpy(dest, src, n);
  85              		.loc 1 96 0
  86 000c F868     		ldr	r0, [r7, #12]
  87 000e B968     		ldr	r1, [r7, #8]
  88 0010 7A68     		ldr	r2, [r7, #4]
  89 0012 FFF7FEFF 		bl	memcpy
  97:.\Generated_Source\PSoC5/cyfitter_cfg.c **** 	}
  90              		.loc 1 97 0
  91 0016 07F11007 		add	r7, r7, #16
  92 001a BD46     		mov	sp, r7
  93 001c 80BD     		pop	{r7, pc}
  94              		.cfi_endproc
  95              	.LFE1:
  96              		.size	CYCONFIGCPY, .-CYCONFIGCPY
  97 001e 00BF     		.section	.text.CYCONFIGCPYCODE,"ax",%progbits
  98              		.align	2
  99              		.thumb
 100              		.thumb_func
 101              		.type	CYCONFIGCPYCODE, %function
 102              	CYCONFIGCPYCODE:
 103              	.LFB2:
  98:.\Generated_Source\PSoC5/cyfitter_cfg.c **** 	__attribute__ ((unused))
  99:.\Generated_Source\PSoC5/cyfitter_cfg.c **** 	static void CYCONFIGCPYCODE(void *dest, const void *src, size_t n);
 100:.\Generated_Source\PSoC5/cyfitter_cfg.c **** 	__attribute__ ((unused))
 101:.\Generated_Source\PSoC5/cyfitter_cfg.c **** 	static void CYCONFIGCPYCODE(void *dest, const void *src, size_t n)
 102:.\Generated_Source\PSoC5/cyfitter_cfg.c **** 	{
 104              		.loc 1 102 0
 105              		.cfi_startproc
 106              		@ args = 0, pretend = 0, frame = 16
 107              		@ frame_needed = 1, uses_anonymous_args = 0
 108 0000 80B5     		push	{r7, lr}
 109              	.LCFI6:
 110              		.cfi_def_cfa_offset 8
 111 0002 84B0     		sub	sp, sp, #16
 112              	.LCFI7:
 113              		.cfi_def_cfa_offset 24
 114 0004 00AF     		add	r7, sp, #0
 115              		.cfi_offset 14, -4
 116              		.cfi_offset 7, -8
 117              	.LCFI8:
 118              		.cfi_def_cfa_register 7
 119 0006 F860     		str	r0, [r7, #12]
 120 0008 B960     		str	r1, [r7, #8]
 121 000a 7A60     		str	r2, [r7, #4]
 103:.\Generated_Source\PSoC5/cyfitter_cfg.c **** 		(void)memcpy(dest, src, n);
ARM GAS  C:\Users\karunmj\AppData\Local\Temp\cckaKPrh.s 			page 5


 122              		.loc 1 103 0
 123 000c F868     		ldr	r0, [r7, #12]
 124 000e B968     		ldr	r1, [r7, #8]
 125 0010 7A68     		ldr	r2, [r7, #4]
 126 0012 FFF7FEFF 		bl	memcpy
 104:.\Generated_Source\PSoC5/cyfitter_cfg.c **** 	}
 127              		.loc 1 104 0
 128 0016 07F11007 		add	r7, r7, #16
 129 001a BD46     		mov	sp, r7
 130 001c 80BD     		pop	{r7, pc}
 131              		.cfi_endproc
 132              	.LFE2:
 133              		.size	CYCONFIGCPYCODE, .-CYCONFIGCPYCODE
 134 001e 00BF     		.section	.text.cfg_write_bytes32,"ax",%progbits
 135              		.align	2
 136              		.thumb
 137              		.thumb_func
 138              		.type	cfg_write_bytes32, %function
 139              	cfg_write_bytes32:
 140              	.LFB3:
 105:.\Generated_Source\PSoC5/cyfitter_cfg.c **** #else
 106:.\Generated_Source\PSoC5/cyfitter_cfg.c **** 	#error Unsupported toolchain
 107:.\Generated_Source\PSoC5/cyfitter_cfg.c **** #endif
 108:.\Generated_Source\PSoC5/cyfitter_cfg.c **** 
 109:.\Generated_Source\PSoC5/cyfitter_cfg.c **** #define CY_CFG_BASE_ADDR_COUNT 24u
 110:.\Generated_Source\PSoC5/cyfitter_cfg.c **** typedef struct
 111:.\Generated_Source\PSoC5/cyfitter_cfg.c **** {
 112:.\Generated_Source\PSoC5/cyfitter_cfg.c **** 	uint8 offset;
 113:.\Generated_Source\PSoC5/cyfitter_cfg.c **** 	uint8 value;
 114:.\Generated_Source\PSoC5/cyfitter_cfg.c **** } CYPACKED cy_cfg_addrvalue_t;
 115:.\Generated_Source\PSoC5/cyfitter_cfg.c **** 
 116:.\Generated_Source\PSoC5/cyfitter_cfg.c **** #define cy_cfg_addr_table ((const uint32 CYFAR *)0x48000000u)
 117:.\Generated_Source\PSoC5/cyfitter_cfg.c **** #define cy_cfg_data_table ((const cy_cfg_addrvalue_t CYFAR *)0x48000060u)
 118:.\Generated_Source\PSoC5/cyfitter_cfg.c **** 
 119:.\Generated_Source\PSoC5/cyfitter_cfg.c **** /* IOPINS0_0 Address: CYREG_PRT0_DR Size (bytes): 10 */
 120:.\Generated_Source\PSoC5/cyfitter_cfg.c **** #define BS_IOPINS0_0_VAL ((const uint8 CYFAR *)0x4800020Cu)
 121:.\Generated_Source\PSoC5/cyfitter_cfg.c **** 
 122:.\Generated_Source\PSoC5/cyfitter_cfg.c **** /* IOPINS0_3 Address: CYREG_PRT3_DM0 Size (bytes): 8 */
 123:.\Generated_Source\PSoC5/cyfitter_cfg.c **** #define BS_IOPINS0_3_VAL ((const uint8 CYFAR *)0x48000218u)
 124:.\Generated_Source\PSoC5/cyfitter_cfg.c **** 
 125:.\Generated_Source\PSoC5/cyfitter_cfg.c **** /* CYDEV_CLKDIST_ACFG0_CFG0 Address: CYREG_CLKDIST_ACFG0_CFG0 Size (bytes): 4 */
 126:.\Generated_Source\PSoC5/cyfitter_cfg.c **** #define BS_CYDEV_CLKDIST_ACFG0_CFG0_VAL ((const uint8 CYFAR *)0x48000220u)
 127:.\Generated_Source\PSoC5/cyfitter_cfg.c **** 
 128:.\Generated_Source\PSoC5/cyfitter_cfg.c **** 
 129:.\Generated_Source\PSoC5/cyfitter_cfg.c **** /*******************************************************************************
 130:.\Generated_Source\PSoC5/cyfitter_cfg.c **** * Function Name: cfg_write_bytes32
 131:.\Generated_Source\PSoC5/cyfitter_cfg.c **** ********************************************************************************
 132:.\Generated_Source\PSoC5/cyfitter_cfg.c **** * Summary:
 133:.\Generated_Source\PSoC5/cyfitter_cfg.c **** *  This function is used for setting up the chip configuration areas that
 134:.\Generated_Source\PSoC5/cyfitter_cfg.c **** *  contain relatively sparse data.
 135:.\Generated_Source\PSoC5/cyfitter_cfg.c **** *
 136:.\Generated_Source\PSoC5/cyfitter_cfg.c **** * Parameters:
 137:.\Generated_Source\PSoC5/cyfitter_cfg.c **** *   void
 138:.\Generated_Source\PSoC5/cyfitter_cfg.c **** *
 139:.\Generated_Source\PSoC5/cyfitter_cfg.c **** * Return:
 140:.\Generated_Source\PSoC5/cyfitter_cfg.c **** *   void
 141:.\Generated_Source\PSoC5/cyfitter_cfg.c **** *
ARM GAS  C:\Users\karunmj\AppData\Local\Temp\cckaKPrh.s 			page 6


 142:.\Generated_Source\PSoC5/cyfitter_cfg.c **** *******************************************************************************/
 143:.\Generated_Source\PSoC5/cyfitter_cfg.c **** static void cfg_write_bytes32(const uint32 addr_table[], const cy_cfg_addrvalue_t data_table[]);
 144:.\Generated_Source\PSoC5/cyfitter_cfg.c **** static void cfg_write_bytes32(const uint32 addr_table[], const cy_cfg_addrvalue_t data_table[])
 145:.\Generated_Source\PSoC5/cyfitter_cfg.c **** {
 141              		.loc 1 145 0
 142              		.cfi_startproc
 143              		@ args = 0, pretend = 0, frame = 24
 144              		@ frame_needed = 1, uses_anonymous_args = 0
 145              		@ link register save eliminated.
 146 0000 80B4     		push	{r7}
 147              	.LCFI9:
 148              		.cfi_def_cfa_offset 4
 149 0002 87B0     		sub	sp, sp, #28
 150              	.LCFI10:
 151              		.cfi_def_cfa_offset 32
 152 0004 00AF     		add	r7, sp, #0
 153              		.cfi_offset 7, -4
 154              	.LCFI11:
 155              		.cfi_def_cfa_register 7
 156 0006 7860     		str	r0, [r7, #4]
 157 0008 3960     		str	r1, [r7, #0]
 146:.\Generated_Source\PSoC5/cyfitter_cfg.c **** 	/* For 32-bit little-endian architectures */
 147:.\Generated_Source\PSoC5/cyfitter_cfg.c **** 	uint32 i, j = 0u;
 158              		.loc 1 147 0
 159 000a 4FF00003 		mov	r3, #0
 160 000e FB60     		str	r3, [r7, #12]
 148:.\Generated_Source\PSoC5/cyfitter_cfg.c **** 	for (i = 0u; i < CY_CFG_BASE_ADDR_COUNT; i++)
 161              		.loc 1 148 0
 162 0010 4FF00003 		mov	r3, #0
 163 0014 BB60     		str	r3, [r7, #8]
 164 0016 2CE0     		b	.L8
 165              	.L11:
 166              	.LBB2:
 149:.\Generated_Source\PSoC5/cyfitter_cfg.c **** 	{
 150:.\Generated_Source\PSoC5/cyfitter_cfg.c **** 		uint32 baseAddr = addr_table[i];
 167              		.loc 1 150 0
 168 0018 BB68     		ldr	r3, [r7, #8]
 169 001a 4FEA8302 		lsl	r2, r3, #2
 170 001e 7B68     		ldr	r3, [r7, #4]
 171 0020 1344     		add	r3, r2, r3
 172 0022 1B68     		ldr	r3, [r3, #0]
 173 0024 3B61     		str	r3, [r7, #16]
 151:.\Generated_Source\PSoC5/cyfitter_cfg.c **** 		uint8 count = (uint8)baseAddr;
 174              		.loc 1 151 0
 175 0026 3B69     		ldr	r3, [r7, #16]
 176 0028 FB75     		strb	r3, [r7, #23]
 152:.\Generated_Source\PSoC5/cyfitter_cfg.c **** 		baseAddr &= 0xFFFFFF00u;
 177              		.loc 1 152 0
 178 002a 3B69     		ldr	r3, [r7, #16]
 179 002c 23F0FF03 		bic	r3, r3, #255
 180 0030 3B61     		str	r3, [r7, #16]
 153:.\Generated_Source\PSoC5/cyfitter_cfg.c **** 		while (count != 0u)
 181              		.loc 1 153 0
 182 0032 17E0     		b	.L9
 183              	.L10:
 154:.\Generated_Source\PSoC5/cyfitter_cfg.c **** 		{
 155:.\Generated_Source\PSoC5/cyfitter_cfg.c **** 			CY_SET_XTND_REG8((void CYFAR *)(baseAddr + data_table[j].offset), data_table[j].value);
ARM GAS  C:\Users\karunmj\AppData\Local\Temp\cckaKPrh.s 			page 7


 184              		.loc 1 155 0
 185 0034 FB68     		ldr	r3, [r7, #12]
 186 0036 4FEA4302 		lsl	r2, r3, #1
 187 003a 3B68     		ldr	r3, [r7, #0]
 188 003c 1344     		add	r3, r2, r3
 189 003e 1B78     		ldrb	r3, [r3, #0]	@ zero_extendqisi2
 190 0040 1A46     		mov	r2, r3
 191 0042 3B69     		ldr	r3, [r7, #16]
 192 0044 1344     		add	r3, r2, r3
 193 0046 FA68     		ldr	r2, [r7, #12]
 194 0048 4FEA4201 		lsl	r1, r2, #1
 195 004c 3A68     		ldr	r2, [r7, #0]
 196 004e 0A44     		add	r2, r1, r2
 197 0050 5278     		ldrb	r2, [r2, #1]	@ zero_extendqisi2
 198 0052 1A70     		strb	r2, [r3, #0]
 156:.\Generated_Source\PSoC5/cyfitter_cfg.c **** 			j++;
 199              		.loc 1 156 0
 200 0054 FB68     		ldr	r3, [r7, #12]
 201 0056 03F10103 		add	r3, r3, #1
 202 005a FB60     		str	r3, [r7, #12]
 157:.\Generated_Source\PSoC5/cyfitter_cfg.c **** 			count--;
 203              		.loc 1 157 0
 204 005c FB7D     		ldrb	r3, [r7, #23]
 205 005e 03F1FF33 		add	r3, r3, #-1
 206 0062 FB75     		strb	r3, [r7, #23]
 207              	.L9:
 208              		.loc 1 153 0
 209 0064 FB7D     		ldrb	r3, [r7, #23]	@ zero_extendqisi2
 210 0066 002B     		cmp	r3, #0
 211 0068 E4D1     		bne	.L10
 212              	.LBE2:
 213              		.loc 1 148 0
 214 006a BB68     		ldr	r3, [r7, #8]
 215 006c 03F10103 		add	r3, r3, #1
 216 0070 BB60     		str	r3, [r7, #8]
 217              	.L8:
 218 0072 BB68     		ldr	r3, [r7, #8]
 219 0074 172B     		cmp	r3, #23
 220 0076 CFD9     		bls	.L11
 158:.\Generated_Source\PSoC5/cyfitter_cfg.c **** 		}
 159:.\Generated_Source\PSoC5/cyfitter_cfg.c **** 	}
 160:.\Generated_Source\PSoC5/cyfitter_cfg.c **** }
 221              		.loc 1 160 0
 222 0078 07F11C07 		add	r7, r7, #28
 223 007c BD46     		mov	sp, r7
 224 007e 80BC     		pop	{r7}
 225 0080 7047     		bx	lr
 226              		.cfi_endproc
 227              	.LFE3:
 228              		.size	cfg_write_bytes32, .-cfg_write_bytes32
 229 0082 00BF     		.section	.text.ClockSetup,"ax",%progbits
 230              		.align	2
 231              		.thumb
 232              		.thumb_func
 233              		.type	ClockSetup, %function
 234              	ClockSetup:
 235              	.LFB4:
ARM GAS  C:\Users\karunmj\AppData\Local\Temp\cckaKPrh.s 			page 8


 161:.\Generated_Source\PSoC5/cyfitter_cfg.c **** 
 162:.\Generated_Source\PSoC5/cyfitter_cfg.c **** /*******************************************************************************
 163:.\Generated_Source\PSoC5/cyfitter_cfg.c **** * Function Name: ClockSetup
 164:.\Generated_Source\PSoC5/cyfitter_cfg.c **** ********************************************************************************
 165:.\Generated_Source\PSoC5/cyfitter_cfg.c **** *
 166:.\Generated_Source\PSoC5/cyfitter_cfg.c **** * Summary:
 167:.\Generated_Source\PSoC5/cyfitter_cfg.c **** *  Performs the initialization of all of the clocks in the device based on the
 168:.\Generated_Source\PSoC5/cyfitter_cfg.c **** *  settings in the Clock tab of the DWR.  This includes enabling the requested
 169:.\Generated_Source\PSoC5/cyfitter_cfg.c **** *  clocks and setting the necessary dividers to produce the desired frequency. 
 170:.\Generated_Source\PSoC5/cyfitter_cfg.c **** *
 171:.\Generated_Source\PSoC5/cyfitter_cfg.c **** * Parameters:
 172:.\Generated_Source\PSoC5/cyfitter_cfg.c **** *  void
 173:.\Generated_Source\PSoC5/cyfitter_cfg.c **** *
 174:.\Generated_Source\PSoC5/cyfitter_cfg.c **** * Return:
 175:.\Generated_Source\PSoC5/cyfitter_cfg.c **** *  void
 176:.\Generated_Source\PSoC5/cyfitter_cfg.c **** *
 177:.\Generated_Source\PSoC5/cyfitter_cfg.c **** *******************************************************************************/
 178:.\Generated_Source\PSoC5/cyfitter_cfg.c **** static void ClockSetup(void);
 179:.\Generated_Source\PSoC5/cyfitter_cfg.c **** static void ClockSetup(void)
 180:.\Generated_Source\PSoC5/cyfitter_cfg.c **** {
 236              		.loc 1 180 0
 237              		.cfi_startproc
 238              		@ args = 0, pretend = 0, frame = 8
 239              		@ frame_needed = 1, uses_anonymous_args = 0
 240 0000 80B5     		push	{r7, lr}
 241              	.LCFI12:
 242              		.cfi_def_cfa_offset 8
 243 0002 82B0     		sub	sp, sp, #8
 244              	.LCFI13:
 245              		.cfi_def_cfa_offset 16
 246 0004 00AF     		add	r7, sp, #0
 247              		.cfi_offset 14, -4
 248              		.cfi_offset 7, -8
 249              	.LCFI14:
 250              		.cfi_def_cfa_register 7
 181:.\Generated_Source\PSoC5/cyfitter_cfg.c **** 	uint32 timeout;
 182:.\Generated_Source\PSoC5/cyfitter_cfg.c **** 	uint8 pllLock;
 183:.\Generated_Source\PSoC5/cyfitter_cfg.c **** 
 184:.\Generated_Source\PSoC5/cyfitter_cfg.c **** 
 185:.\Generated_Source\PSoC5/cyfitter_cfg.c **** 	/* Configure Digital Clocks based on settings from Clock DWR */
 186:.\Generated_Source\PSoC5/cyfitter_cfg.c **** 	CY_SET_XTND_REG16((void CYFAR *)(CYREG_CLKDIST_DCFG0_CFG0), 0x0001u);
 251              		.loc 1 186 0
 252 0006 44F28003 		movw	r3, #:lower16:1073758336
 253 000a C4F20003 		movt	r3, #:upper16:1073758336
 254 000e 4FF00102 		mov	r2, #1
 255 0012 1A80     		strh	r2, [r3, #0]	@ movhi
 187:.\Generated_Source\PSoC5/cyfitter_cfg.c **** 	CY_SET_XTND_REG8((void CYFAR *)(CYREG_CLKDIST_DCFG0_CFG0 + 0x2u), 0x18u);
 256              		.loc 1 187 0
 257 0014 44F28203 		movw	r3, #:lower16:1073758338
 258 0018 C4F20003 		movt	r3, #:upper16:1073758338
 259 001c 4FF01802 		mov	r2, #24
 260 0020 1A70     		strb	r2, [r3, #0]
 188:.\Generated_Source\PSoC5/cyfitter_cfg.c **** 	CY_SET_XTND_REG16((void CYFAR *)(CYREG_CLKDIST_DCFG1_CFG0), 0x000Eu);
 261              		.loc 1 188 0
 262 0022 44F28403 		movw	r3, #:lower16:1073758340
 263 0026 C4F20003 		movt	r3, #:upper16:1073758340
 264 002a 4FF00E02 		mov	r2, #14
ARM GAS  C:\Users\karunmj\AppData\Local\Temp\cckaKPrh.s 			page 9


 265 002e 1A80     		strh	r2, [r3, #0]	@ movhi
 189:.\Generated_Source\PSoC5/cyfitter_cfg.c **** 	CY_SET_XTND_REG8((void CYFAR *)(CYREG_CLKDIST_DCFG1_CFG0 + 0x2u), 0x19u);
 266              		.loc 1 189 0
 267 0030 44F28603 		movw	r3, #:lower16:1073758342
 268 0034 C4F20003 		movt	r3, #:upper16:1073758342
 269 0038 4FF01902 		mov	r2, #25
 270 003c 1A70     		strb	r2, [r3, #0]
 190:.\Generated_Source\PSoC5/cyfitter_cfg.c **** 
 191:.\Generated_Source\PSoC5/cyfitter_cfg.c **** 	/* Configure Analog Clocks based on settings from Clock DWR */
 192:.\Generated_Source\PSoC5/cyfitter_cfg.c **** 	CYCONFIGCPY((void CYFAR *)(CYREG_CLKDIST_ACFG0_CFG0), (const void CYFAR *)(BS_CYDEV_CLKDIST_ACFG0_
 271              		.loc 1 192 0
 272 003e 44F20010 		movw	r0, #:lower16:1073758464
 273 0042 C4F20000 		movt	r0, #:upper16:1073758464
 274 0046 40F22021 		movw	r1, #:lower16:1207960096
 275 004a C4F60001 		movt	r1, #:upper16:1207960096
 276 004e 4FF00402 		mov	r2, #4
 277 0052 FFF7FEFF 		bl	CYCONFIGCPY
 193:.\Generated_Source\PSoC5/cyfitter_cfg.c **** 
 194:.\Generated_Source\PSoC5/cyfitter_cfg.c **** 	/* Configure ILO based on settings from Clock DWR */
 195:.\Generated_Source\PSoC5/cyfitter_cfg.c **** 	CY_SET_XTND_REG8((void CYFAR *)(CYREG_SLOWCLK_ILO_CR0), 0x02u);
 278              		.loc 1 195 0
 279 0056 44F20033 		movw	r3, #:lower16:1073758976
 280 005a C4F20003 		movt	r3, #:upper16:1073758976
 281 005e 4FF00202 		mov	r2, #2
 282 0062 1A70     		strb	r2, [r3, #0]
 196:.\Generated_Source\PSoC5/cyfitter_cfg.c **** 	CY_SET_XTND_REG8((void CYFAR *)(CYREG_CLKDIST_CR), 0x08u);
 283              		.loc 1 196 0
 284 0064 44F20003 		movw	r3, #:lower16:1073758208
 285 0068 C4F20003 		movt	r3, #:upper16:1073758208
 286 006c 4FF00802 		mov	r2, #8
 287 0070 1A70     		strb	r2, [r3, #0]
 197:.\Generated_Source\PSoC5/cyfitter_cfg.c **** 
 198:.\Generated_Source\PSoC5/cyfitter_cfg.c **** 	/* Configure IMO based on settings from Clock DWR */
 199:.\Generated_Source\PSoC5/cyfitter_cfg.c **** 	CY_SET_XTND_REG8((void CYFAR *)(CYREG_FASTCLK_IMO_CR), 0x03u);
 288              		.loc 1 199 0
 289 0072 44F20023 		movw	r3, #:lower16:1073758720
 290 0076 C4F20003 		movt	r3, #:upper16:1073758720
 291 007a 4FF00302 		mov	r2, #3
 292 007e 1A70     		strb	r2, [r3, #0]
 200:.\Generated_Source\PSoC5/cyfitter_cfg.c **** 	CY_SET_XTND_REG8((void CYFAR *)(CYREG_IMO_TR1), (CY_GET_XTND_REG8((void CYFAR *)CYREG_FLSHID_CUST_
 293              		.loc 1 200 0
 294 0080 44F2A163 		movw	r3, #:lower16:1073759905
 295 0084 C4F20003 		movt	r3, #:upper16:1073759905
 296 0088 40F20812 		movw	r2, #:lower16:1224737032
 297 008c C4F60012 		movt	r2, #:upper16:1224737032
 298 0090 1278     		ldrb	r2, [r2, #0]
 299 0092 D2B2     		uxtb	r2, r2
 300 0094 1A70     		strb	r2, [r3, #0]
 201:.\Generated_Source\PSoC5/cyfitter_cfg.c **** 
 202:.\Generated_Source\PSoC5/cyfitter_cfg.c **** 	/* Configure PLL based on settings from Clock DWR */
 203:.\Generated_Source\PSoC5/cyfitter_cfg.c **** 	CY_SET_XTND_REG16((void CYFAR *)(CYREG_FASTCLK_PLL_P), 0x0008u);
 301              		.loc 1 203 0
 302 0096 44F22223 		movw	r3, #:lower16:1073758754
 303 009a C4F20003 		movt	r3, #:upper16:1073758754
 304 009e 4FF00802 		mov	r2, #8
 305 00a2 1A80     		strh	r2, [r3, #0]	@ movhi
 204:.\Generated_Source\PSoC5/cyfitter_cfg.c **** 	CY_SET_XTND_REG16((void CYFAR *)(CYREG_FASTCLK_PLL_CFG0), 0x1051u);
ARM GAS  C:\Users\karunmj\AppData\Local\Temp\cckaKPrh.s 			page 10


 306              		.loc 1 204 0
 307 00a4 44F22023 		movw	r3, #:lower16:1073758752
 308 00a8 C4F20003 		movt	r3, #:upper16:1073758752
 309 00ac 41F25102 		movw	r2, #4177
 310 00b0 1A80     		strh	r2, [r3, #0]	@ movhi
 205:.\Generated_Source\PSoC5/cyfitter_cfg.c **** 	/* Wait up to 250us for the PLL to lock */
 206:.\Generated_Source\PSoC5/cyfitter_cfg.c **** 	pllLock = 0u;
 311              		.loc 1 206 0
 312 00b2 4FF00003 		mov	r3, #0
 313 00b6 FB71     		strb	r3, [r7, #7]
 207:.\Generated_Source\PSoC5/cyfitter_cfg.c **** 	for (timeout = 250u / 10u; (timeout > 0u) && (pllLock != 0x03u); timeout--) { 
 314              		.loc 1 207 0
 315 00b8 4FF01903 		mov	r3, #25
 316 00bc 3B60     		str	r3, [r7, #0]
 317 00be 19E0     		b	.L14
 318              	.L16:
 208:.\Generated_Source\PSoC5/cyfitter_cfg.c **** 		pllLock = 0x03u & ((uint8)((uint8)pllLock << 1) | ((CY_GET_XTND_REG8((void CYFAR *)CYREG_FASTCLK_
 319              		.loc 1 208 0
 320 00c0 FB79     		ldrb	r3, [r7, #7]
 321 00c2 4FEA4303 		lsl	r3, r3, #1
 322 00c6 DAB2     		uxtb	r2, r3
 323 00c8 44F22523 		movw	r3, #:lower16:1073758757
 324 00cc C4F20003 		movt	r3, #:upper16:1073758757
 325 00d0 1B78     		ldrb	r3, [r3, #0]
 326 00d2 DBB2     		uxtb	r3, r3
 327 00d4 03F00103 		and	r3, r3, #1
 328 00d8 42EA0303 		orr	r3, r2, r3
 329 00dc DBB2     		uxtb	r3, r3
 330 00de 03F00303 		and	r3, r3, #3
 331 00e2 FB71     		strb	r3, [r7, #7]
 209:.\Generated_Source\PSoC5/cyfitter_cfg.c **** 		CyDelayCycles(10u * 48u); /* Delay 10us based on 48MHz clock */
 332              		.loc 1 209 0
 333 00e4 4FF4F070 		mov	r0, #480
 334 00e8 FFF7FEFF 		bl	CyDelayCycles
 335              		.loc 1 207 0
 336 00ec 3B68     		ldr	r3, [r7, #0]
 337 00ee 03F1FF33 		add	r3, r3, #-1
 338 00f2 3B60     		str	r3, [r7, #0]
 339              	.L14:
 340 00f4 3B68     		ldr	r3, [r7, #0]
 341 00f6 002B     		cmp	r3, #0
 342 00f8 02D0     		beq	.L15
 343 00fa FB79     		ldrb	r3, [r7, #7]	@ zero_extendqisi2
 344 00fc 032B     		cmp	r3, #3
 345 00fe DFD1     		bne	.L16
 346              	.L15:
 210:.\Generated_Source\PSoC5/cyfitter_cfg.c **** 	}
 211:.\Generated_Source\PSoC5/cyfitter_cfg.c **** 
 212:.\Generated_Source\PSoC5/cyfitter_cfg.c **** 	/* Configure Bus/Master Clock based on settings from Clock DWR */
 213:.\Generated_Source\PSoC5/cyfitter_cfg.c **** 	CY_SET_XTND_REG16((void CYFAR *)(CYREG_CLKDIST_MSTR0), 0x0100u);
 347              		.loc 1 213 0
 348 0100 44F20403 		movw	r3, #:lower16:1073758212
 349 0104 C4F20003 		movt	r3, #:upper16:1073758212
 350 0108 4FF48072 		mov	r2, #256
 351 010c 1A80     		strh	r2, [r3, #0]	@ movhi
 214:.\Generated_Source\PSoC5/cyfitter_cfg.c **** 	CY_SET_XTND_REG8((void CYFAR *)(CYREG_CLKDIST_MSTR0), 0x07u);
 352              		.loc 1 214 0
ARM GAS  C:\Users\karunmj\AppData\Local\Temp\cckaKPrh.s 			page 11


 353 010e 44F20403 		movw	r3, #:lower16:1073758212
 354 0112 C4F20003 		movt	r3, #:upper16:1073758212
 355 0116 4FF00702 		mov	r2, #7
 356 011a 1A70     		strb	r2, [r3, #0]
 215:.\Generated_Source\PSoC5/cyfitter_cfg.c **** 	CY_SET_XTND_REG8((void CYFAR *)(CYREG_CLKDIST_BCFG0), 0x00u);
 357              		.loc 1 215 0
 358 011c 44F20603 		movw	r3, #:lower16:1073758214
 359 0120 C4F20003 		movt	r3, #:upper16:1073758214
 360 0124 4FF00002 		mov	r2, #0
 361 0128 1A70     		strb	r2, [r3, #0]
 216:.\Generated_Source\PSoC5/cyfitter_cfg.c **** 	CY_SET_XTND_REG8((void CYFAR *)(CYREG_CLKDIST_BCFG2), 0x48u);
 362              		.loc 1 216 0
 363 012a 44F20803 		movw	r3, #:lower16:1073758216
 364 012e C4F20003 		movt	r3, #:upper16:1073758216
 365 0132 4FF04802 		mov	r2, #72
 366 0136 1A70     		strb	r2, [r3, #0]
 217:.\Generated_Source\PSoC5/cyfitter_cfg.c **** 	CY_SET_XTND_REG8((void CYFAR *)(CYREG_CLKDIST_MSTR0), 0x00u);
 367              		.loc 1 217 0
 368 0138 44F20403 		movw	r3, #:lower16:1073758212
 369 013c C4F20003 		movt	r3, #:upper16:1073758212
 370 0140 4FF00002 		mov	r2, #0
 371 0144 1A70     		strb	r2, [r3, #0]
 218:.\Generated_Source\PSoC5/cyfitter_cfg.c **** 	CY_SET_XTND_REG8((void CYFAR *)(CYREG_CLKDIST_LD), 0x02u);
 372              		.loc 1 218 0
 373 0146 44F20103 		movw	r3, #:lower16:1073758209
 374 014a C4F20003 		movt	r3, #:upper16:1073758209
 375 014e 4FF00202 		mov	r2, #2
 376 0152 1A70     		strb	r2, [r3, #0]
 219:.\Generated_Source\PSoC5/cyfitter_cfg.c **** 	CY_SET_XTND_REG8((void CYFAR *)(CYREG_CLKDIST_DLY1), 0x04u);
 377              		.loc 1 219 0
 378 0154 44F20B03 		movw	r3, #:lower16:1073758219
 379 0158 C4F20003 		movt	r3, #:upper16:1073758219
 380 015c 4FF00402 		mov	r2, #4
 381 0160 1A70     		strb	r2, [r3, #0]
 220:.\Generated_Source\PSoC5/cyfitter_cfg.c **** 
 221:.\Generated_Source\PSoC5/cyfitter_cfg.c **** 	CY_SET_XTND_REG8((void CYFAR *)(CYREG_PM_ACT_CFG2), ((CY_GET_XTND_REG8((void CYFAR *)CYREG_PM_ACT_
 382              		.loc 1 221 0
 383 0162 44F2A233 		movw	r3, #:lower16:1073759138
 384 0166 C4F20003 		movt	r3, #:upper16:1073759138
 385 016a 44F2A232 		movw	r2, #:lower16:1073759138
 386 016e C4F20002 		movt	r2, #:upper16:1073759138
 387 0172 1278     		ldrb	r2, [r2, #0]
 388 0174 D2B2     		uxtb	r2, r2
 389 0176 42F00302 		orr	r2, r2, #3
 390 017a D2B2     		uxtb	r2, r2
 391 017c 1A70     		strb	r2, [r3, #0]
 222:.\Generated_Source\PSoC5/cyfitter_cfg.c **** 	CY_SET_XTND_REG8((void CYFAR *)(CYREG_PM_ACT_CFG1), ((CY_GET_XTND_REG8((void CYFAR *)CYREG_PM_ACT_
 392              		.loc 1 222 0
 393 017e 44F2A133 		movw	r3, #:lower16:1073759137
 394 0182 C4F20003 		movt	r3, #:upper16:1073759137
 395 0186 44F2A132 		movw	r2, #:lower16:1073759137
 396 018a C4F20002 		movt	r2, #:upper16:1073759137
 397 018e 1278     		ldrb	r2, [r2, #0]
 398 0190 D2B2     		uxtb	r2, r2
 399 0192 42F00102 		orr	r2, r2, #1
 400 0196 D2B2     		uxtb	r2, r2
 401 0198 1A70     		strb	r2, [r3, #0]
ARM GAS  C:\Users\karunmj\AppData\Local\Temp\cckaKPrh.s 			page 12


 223:.\Generated_Source\PSoC5/cyfitter_cfg.c **** 	CY_SET_XTND_REG8((void CYFAR *)(CYREG_PM_ACT_CFG0), ((CY_GET_XTND_REG8((void CYFAR *)CYREG_PM_ACT_
 402              		.loc 1 223 0
 403 019a 44F2A033 		movw	r3, #:lower16:1073759136
 404 019e C4F20003 		movt	r3, #:upper16:1073759136
 405 01a2 44F2A032 		movw	r2, #:lower16:1073759136
 406 01a6 C4F20002 		movt	r2, #:upper16:1073759136
 407 01aa 1278     		ldrb	r2, [r2, #0]
 408 01ac D2B2     		uxtb	r2, r2
 409 01ae 6FEA4262 		mvn	r2, r2, lsl #25
 410 01b2 6FEA5262 		mvn	r2, r2, lsr #25
 411 01b6 D2B2     		uxtb	r2, r2
 412 01b8 1A70     		strb	r2, [r3, #0]
 224:.\Generated_Source\PSoC5/cyfitter_cfg.c **** }
 413              		.loc 1 224 0
 414 01ba 07F10807 		add	r7, r7, #8
 415 01be BD46     		mov	sp, r7
 416 01c0 80BD     		pop	{r7, pc}
 417              		.cfi_endproc
 418              	.LFE4:
 419              		.size	ClockSetup, .-ClockSetup
 420 01c2 00BF     		.section	.text.AnalogSetDefault,"ax",%progbits
 421              		.align	2
 422              		.thumb
 423              		.thumb_func
 424              		.type	AnalogSetDefault, %function
 425              	AnalogSetDefault:
 426              	.LFB5:
 225:.\Generated_Source\PSoC5/cyfitter_cfg.c **** 
 226:.\Generated_Source\PSoC5/cyfitter_cfg.c **** 
 227:.\Generated_Source\PSoC5/cyfitter_cfg.c **** /* Analog API Functions */
 228:.\Generated_Source\PSoC5/cyfitter_cfg.c **** 
 229:.\Generated_Source\PSoC5/cyfitter_cfg.c **** 
 230:.\Generated_Source\PSoC5/cyfitter_cfg.c **** /*******************************************************************************
 231:.\Generated_Source\PSoC5/cyfitter_cfg.c **** * Function Name: AnalogSetDefault
 232:.\Generated_Source\PSoC5/cyfitter_cfg.c **** ********************************************************************************
 233:.\Generated_Source\PSoC5/cyfitter_cfg.c **** *
 234:.\Generated_Source\PSoC5/cyfitter_cfg.c **** * Summary:
 235:.\Generated_Source\PSoC5/cyfitter_cfg.c **** *  Sets up the analog portions of the chip to default values based on chip
 236:.\Generated_Source\PSoC5/cyfitter_cfg.c **** *  configuration options from the project.
 237:.\Generated_Source\PSoC5/cyfitter_cfg.c **** *
 238:.\Generated_Source\PSoC5/cyfitter_cfg.c **** * Parameters:
 239:.\Generated_Source\PSoC5/cyfitter_cfg.c **** *  void
 240:.\Generated_Source\PSoC5/cyfitter_cfg.c **** *
 241:.\Generated_Source\PSoC5/cyfitter_cfg.c **** * Return:
 242:.\Generated_Source\PSoC5/cyfitter_cfg.c **** *  void
 243:.\Generated_Source\PSoC5/cyfitter_cfg.c **** *
 244:.\Generated_Source\PSoC5/cyfitter_cfg.c **** *******************************************************************************/
 245:.\Generated_Source\PSoC5/cyfitter_cfg.c **** static void AnalogSetDefault(void);
 246:.\Generated_Source\PSoC5/cyfitter_cfg.c **** static void AnalogSetDefault(void)
 247:.\Generated_Source\PSoC5/cyfitter_cfg.c **** {
 427              		.loc 1 247 0
 428              		.cfi_startproc
 429              		@ args = 0, pretend = 0, frame = 8
 430              		@ frame_needed = 1, uses_anonymous_args = 0
 431              		@ link register save eliminated.
 432 0000 80B4     		push	{r7}
 433              	.LCFI15:
ARM GAS  C:\Users\karunmj\AppData\Local\Temp\cckaKPrh.s 			page 13


 434              		.cfi_def_cfa_offset 4
 435 0002 83B0     		sub	sp, sp, #12
 436              	.LCFI16:
 437              		.cfi_def_cfa_offset 16
 438 0004 00AF     		add	r7, sp, #0
 439              		.cfi_offset 7, -4
 440              	.LCFI17:
 441              		.cfi_def_cfa_register 7
 248:.\Generated_Source\PSoC5/cyfitter_cfg.c **** 	uint8 bg_xover_inl_trim = CY_GET_XTND_REG8((void CYFAR *)(CYREG_FLSHID_MFG_CFG_BG_XOVER_INL_TRIM +
 442              		.loc 1 248 0
 443 0006 40F2CF13 		movw	r3, #:lower16:1224737231
 444 000a C4F60013 		movt	r3, #:upper16:1224737231
 445 000e 1B78     		ldrb	r3, [r3, #0]
 446 0010 FB71     		strb	r3, [r7, #7]
 249:.\Generated_Source\PSoC5/cyfitter_cfg.c **** 	CY_SET_XTND_REG8((void CYFAR *)CYREG_BG_DFT0, bg_xover_inl_trim & 0x07u);
 447              		.loc 1 249 0
 448 0012 45F66E03 		movw	r3, #:lower16:1073764462
 449 0016 C4F20003 		movt	r3, #:upper16:1073764462
 450 001a FA79     		ldrb	r2, [r7, #7]	@ zero_extendqisi2
 451 001c 02F00702 		and	r2, r2, #7
 452 0020 1A70     		strb	r2, [r3, #0]
 250:.\Generated_Source\PSoC5/cyfitter_cfg.c **** 	CY_SET_XTND_REG8((void CYFAR *)CYREG_BG_DFT1, ((uint8)((uint8)bg_xover_inl_trim >> 4)) & 0x0Fu);
 453              		.loc 1 250 0
 454 0022 45F66F03 		movw	r3, #:lower16:1073764463
 455 0026 C4F20003 		movt	r3, #:upper16:1073764463
 456 002a FA79     		ldrb	r2, [r7, #7]	@ zero_extendqisi2
 457 002c 4FEA1212 		lsr	r2, r2, #4
 458 0030 D2B2     		uxtb	r2, r2
 459 0032 1A70     		strb	r2, [r3, #0]
 251:.\Generated_Source\PSoC5/cyfitter_cfg.c **** 	CY_SET_XTND_REG8((void CYFAR *)CYREG_PRT3_AG, 0x03u);
 460              		.loc 1 251 0
 461 0034 45F23D13 		movw	r3, #:lower16:1073762621
 462 0038 C4F20003 		movt	r3, #:upper16:1073762621
 463 003c 4FF00302 		mov	r2, #3
 464 0040 1A70     		strb	r2, [r3, #0]
 252:.\Generated_Source\PSoC5/cyfitter_cfg.c **** 	CY_SET_XTND_REG8((void CYFAR *)CYREG_SC0_SW0, 0x10u);
 465              		.loc 1 252 0
 466 0042 45F60023 		movw	r3, #:lower16:1073764864
 467 0046 C4F20003 		movt	r3, #:upper16:1073764864
 468 004a 4FF01002 		mov	r2, #16
 469 004e 1A70     		strb	r2, [r3, #0]
 253:.\Generated_Source\PSoC5/cyfitter_cfg.c **** 	CY_SET_XTND_REG8((void CYFAR *)CYREG_SC0_SW3, 0x20u);
 470              		.loc 1 253 0
 471 0050 45F60323 		movw	r3, #:lower16:1073764867
 472 0054 C4F20003 		movt	r3, #:upper16:1073764867
 473 0058 4FF02002 		mov	r2, #32
 474 005c 1A70     		strb	r2, [r3, #0]
 254:.\Generated_Source\PSoC5/cyfitter_cfg.c **** 	CY_SET_XTND_REG8((void CYFAR *)CYREG_SC0_SW8, 0x80u);
 475              		.loc 1 254 0
 476 005e 45F60823 		movw	r3, #:lower16:1073764872
 477 0062 C4F20003 		movt	r3, #:upper16:1073764872
 478 0066 6FF07F02 		mvn	r2, #127
 479 006a 1A70     		strb	r2, [r3, #0]
 255:.\Generated_Source\PSoC5/cyfitter_cfg.c **** 	CY_SET_XTND_REG8((void CYFAR *)CYREG_SC1_SW0, 0x80u);
 480              		.loc 1 255 0
 481 006c 45F61023 		movw	r3, #:lower16:1073764880
 482 0070 C4F20003 		movt	r3, #:upper16:1073764880
ARM GAS  C:\Users\karunmj\AppData\Local\Temp\cckaKPrh.s 			page 14


 483 0074 6FF07F02 		mvn	r2, #127
 484 0078 1A70     		strb	r2, [r3, #0]
 256:.\Generated_Source\PSoC5/cyfitter_cfg.c **** 	CY_SET_XTND_REG8((void CYFAR *)CYREG_SC1_SW3, 0x20u);
 485              		.loc 1 256 0
 486 007a 45F61323 		movw	r3, #:lower16:1073764883
 487 007e C4F20003 		movt	r3, #:upper16:1073764883
 488 0082 4FF02002 		mov	r2, #32
 489 0086 1A70     		strb	r2, [r3, #0]
 257:.\Generated_Source\PSoC5/cyfitter_cfg.c **** 	CY_SET_XTND_REG8((void CYFAR *)CYREG_SC1_SW10, 0x08u);
 490              		.loc 1 257 0
 491 0088 45F61A23 		movw	r3, #:lower16:1073764890
 492 008c C4F20003 		movt	r3, #:upper16:1073764890
 493 0090 4FF00802 		mov	r2, #8
 494 0094 1A70     		strb	r2, [r3, #0]
 258:.\Generated_Source\PSoC5/cyfitter_cfg.c **** 	CY_SET_XTND_REG8((void CYFAR *)CYREG_SC2_SW0, 0x10u);
 495              		.loc 1 258 0
 496 0096 45F62023 		movw	r3, #:lower16:1073764896
 497 009a C4F20003 		movt	r3, #:upper16:1073764896
 498 009e 4FF01002 		mov	r2, #16
 499 00a2 1A70     		strb	r2, [r3, #0]
 259:.\Generated_Source\PSoC5/cyfitter_cfg.c **** 	CY_SET_XTND_REG8((void CYFAR *)CYREG_SC2_SW3, 0x20u);
 500              		.loc 1 259 0
 501 00a4 45F62323 		movw	r3, #:lower16:1073764899
 502 00a8 C4F20003 		movt	r3, #:upper16:1073764899
 503 00ac 4FF02002 		mov	r2, #32
 504 00b0 1A70     		strb	r2, [r3, #0]
 260:.\Generated_Source\PSoC5/cyfitter_cfg.c **** 	CY_SET_XTND_REG8((void CYFAR *)CYREG_SC2_SW8, 0x40u);
 505              		.loc 1 260 0
 506 00b2 45F62823 		movw	r3, #:lower16:1073764904
 507 00b6 C4F20003 		movt	r3, #:upper16:1073764904
 508 00ba 4FF04002 		mov	r2, #64
 509 00be 1A70     		strb	r2, [r3, #0]
 261:.\Generated_Source\PSoC5/cyfitter_cfg.c **** 	CY_SET_XTND_REG8((void CYFAR *)CYREG_DAC1_SW3, 0x80u);
 510              		.loc 1 261 0
 511 00c0 45F68B23 		movw	r3, #:lower16:1073765003
 512 00c4 C4F20003 		movt	r3, #:upper16:1073765003
 513 00c8 6FF07F02 		mvn	r2, #127
 514 00cc 1A70     		strb	r2, [r3, #0]
 262:.\Generated_Source\PSoC5/cyfitter_cfg.c **** 	CY_SET_XTND_REG8((void CYFAR *)CYREG_DAC1_SW4, 0x02u);
 515              		.loc 1 262 0
 516 00ce 45F68C23 		movw	r3, #:lower16:1073765004
 517 00d2 C4F20003 		movt	r3, #:upper16:1073765004
 518 00d6 4FF00202 		mov	r2, #2
 519 00da 1A70     		strb	r2, [r3, #0]
 263:.\Generated_Source\PSoC5/cyfitter_cfg.c **** 	CY_SET_XTND_REG8((void CYFAR *)CYREG_CMP1_SW0, 0xA0u);
 520              		.loc 1 263 0
 521 00dc 45F6C823 		movw	r3, #:lower16:1073765064
 522 00e0 C4F20003 		movt	r3, #:upper16:1073765064
 523 00e4 6FF05F02 		mvn	r2, #95
 524 00e8 1A70     		strb	r2, [r3, #0]
 264:.\Generated_Source\PSoC5/cyfitter_cfg.c **** 	CY_SET_XTND_REG8((void CYFAR *)CYREG_CMP1_SW6, 0x08u);
 525              		.loc 1 264 0
 526 00ea 45F6CE23 		movw	r3, #:lower16:1073765070
 527 00ee C4F20003 		movt	r3, #:upper16:1073765070
 528 00f2 4FF00802 		mov	r2, #8
 529 00f6 1A70     		strb	r2, [r3, #0]
 265:.\Generated_Source\PSoC5/cyfitter_cfg.c **** 	CY_SET_XTND_REG8((void CYFAR *)CYREG_CMP2_SW0, 0x10u);
ARM GAS  C:\Users\karunmj\AppData\Local\Temp\cckaKPrh.s 			page 15


 530              		.loc 1 265 0
 531 00f8 45F6D023 		movw	r3, #:lower16:1073765072
 532 00fc C4F20003 		movt	r3, #:upper16:1073765072
 533 0100 4FF01002 		mov	r2, #16
 534 0104 1A70     		strb	r2, [r3, #0]
 266:.\Generated_Source\PSoC5/cyfitter_cfg.c **** 	CY_SET_XTND_REG8((void CYFAR *)CYREG_CMP2_SW4, 0x80u);
 535              		.loc 1 266 0
 536 0106 45F6D423 		movw	r3, #:lower16:1073765076
 537 010a C4F20003 		movt	r3, #:upper16:1073765076
 538 010e 6FF07F02 		mvn	r2, #127
 539 0112 1A70     		strb	r2, [r3, #0]
 267:.\Generated_Source\PSoC5/cyfitter_cfg.c **** 	CY_SET_XTND_REG8((void CYFAR *)CYREG_CMP3_SW0, 0x40u);
 540              		.loc 1 267 0
 541 0114 45F6D823 		movw	r3, #:lower16:1073765080
 542 0118 C4F20003 		movt	r3, #:upper16:1073765080
 543 011c 4FF04002 		mov	r2, #64
 544 0120 1A70     		strb	r2, [r3, #0]
 268:.\Generated_Source\PSoC5/cyfitter_cfg.c **** 	CY_SET_XTND_REG8((void CYFAR *)CYREG_CMP3_SW4, 0x02u);
 545              		.loc 1 268 0
 546 0122 45F6DC23 		movw	r3, #:lower16:1073765084
 547 0126 C4F20003 		movt	r3, #:upper16:1073765084
 548 012a 4FF00202 		mov	r2, #2
 549 012e 1A70     		strb	r2, [r3, #0]
 269:.\Generated_Source\PSoC5/cyfitter_cfg.c **** 	CY_SET_XTND_REG8((void CYFAR *)CYREG_DSM0_SW3, 0x01u);
 550              		.loc 1 269 0
 551 0130 45F60333 		movw	r3, #:lower16:1073765123
 552 0134 C4F20003 		movt	r3, #:upper16:1073765123
 553 0138 4FF00102 		mov	r2, #1
 554 013c 1A70     		strb	r2, [r3, #0]
 270:.\Generated_Source\PSoC5/cyfitter_cfg.c **** 	CY_SET_XTND_REG8((void CYFAR *)CYREG_BUS_SW0, 0x50u);
 555              		.loc 1 270 0
 556 013e 45F65833 		movw	r3, #:lower16:1073765208
 557 0142 C4F20003 		movt	r3, #:upper16:1073765208
 558 0146 4FF05002 		mov	r2, #80
 559 014a 1A70     		strb	r2, [r3, #0]
 271:.\Generated_Source\PSoC5/cyfitter_cfg.c **** 	CY_SET_XTND_REG8((void CYFAR *)CYREG_BUS_SW3, 0x01u);
 560              		.loc 1 271 0
 561 014c 45F65B33 		movw	r3, #:lower16:1073765211
 562 0150 C4F20003 		movt	r3, #:upper16:1073765211
 563 0154 4FF00102 		mov	r2, #1
 564 0158 1A70     		strb	r2, [r3, #0]
 272:.\Generated_Source\PSoC5/cyfitter_cfg.c **** 	CY_SET_XTND_REG8((void CYFAR *)CYREG_PUMP_CR0, 0x44u);
 565              		.loc 1 272 0
 566 015a 45F67603 		movw	r3, #:lower16:1073764470
 567 015e C4F20003 		movt	r3, #:upper16:1073764470
 568 0162 4FF04402 		mov	r2, #68
 569 0166 1A70     		strb	r2, [r3, #0]
 273:.\Generated_Source\PSoC5/cyfitter_cfg.c **** }
 570              		.loc 1 273 0
 571 0168 07F10C07 		add	r7, r7, #12
 572 016c BD46     		mov	sp, r7
 573 016e 80BC     		pop	{r7}
 574 0170 7047     		bx	lr
 575              		.cfi_endproc
 576              	.LFE5:
 577              		.size	AnalogSetDefault, .-AnalogSetDefault
 578 0172 00BF     		.section	.text.SetAnalogRoutingPumps,"ax",%progbits
ARM GAS  C:\Users\karunmj\AppData\Local\Temp\cckaKPrh.s 			page 16


 579              		.align	2
 580              		.global	SetAnalogRoutingPumps
 581              		.thumb
 582              		.thumb_func
 583              		.type	SetAnalogRoutingPumps, %function
 584              	SetAnalogRoutingPumps:
 585              	.LFB6:
 274:.\Generated_Source\PSoC5/cyfitter_cfg.c **** 
 275:.\Generated_Source\PSoC5/cyfitter_cfg.c **** 
 276:.\Generated_Source\PSoC5/cyfitter_cfg.c **** /*******************************************************************************
 277:.\Generated_Source\PSoC5/cyfitter_cfg.c **** * Function Name: SetAnalogRoutingPumps
 278:.\Generated_Source\PSoC5/cyfitter_cfg.c **** ********************************************************************************
 279:.\Generated_Source\PSoC5/cyfitter_cfg.c **** *
 280:.\Generated_Source\PSoC5/cyfitter_cfg.c **** * Summary:
 281:.\Generated_Source\PSoC5/cyfitter_cfg.c **** * Enables or disables the analog pumps feeding analog routing switches.
 282:.\Generated_Source\PSoC5/cyfitter_cfg.c **** * Intended to be called at startup, based on the Vdda system configuration;
 283:.\Generated_Source\PSoC5/cyfitter_cfg.c **** * may be called during operation when the user informs us that the Vdda voltage
 284:.\Generated_Source\PSoC5/cyfitter_cfg.c **** * crossed the pump threshold.
 285:.\Generated_Source\PSoC5/cyfitter_cfg.c **** *
 286:.\Generated_Source\PSoC5/cyfitter_cfg.c **** * Parameters:
 287:.\Generated_Source\PSoC5/cyfitter_cfg.c **** *  enabled - 1 to enable the pumps, 0 to disable the pumps
 288:.\Generated_Source\PSoC5/cyfitter_cfg.c **** *
 289:.\Generated_Source\PSoC5/cyfitter_cfg.c **** * Return:
 290:.\Generated_Source\PSoC5/cyfitter_cfg.c **** *  void
 291:.\Generated_Source\PSoC5/cyfitter_cfg.c **** *
 292:.\Generated_Source\PSoC5/cyfitter_cfg.c **** *******************************************************************************/
 293:.\Generated_Source\PSoC5/cyfitter_cfg.c **** void SetAnalogRoutingPumps(uint8 enabled)
 294:.\Generated_Source\PSoC5/cyfitter_cfg.c **** {
 586              		.loc 1 294 0
 587              		.cfi_startproc
 588              		@ args = 0, pretend = 0, frame = 16
 589              		@ frame_needed = 1, uses_anonymous_args = 0
 590              		@ link register save eliminated.
 591 0000 80B4     		push	{r7}
 592              	.LCFI18:
 593              		.cfi_def_cfa_offset 4
 594 0002 85B0     		sub	sp, sp, #20
 595              	.LCFI19:
 596              		.cfi_def_cfa_offset 24
 597 0004 00AF     		add	r7, sp, #0
 598              		.cfi_offset 7, -4
 599              	.LCFI20:
 600              		.cfi_def_cfa_register 7
 601 0006 0346     		mov	r3, r0
 602 0008 FB71     		strb	r3, [r7, #7]
 295:.\Generated_Source\PSoC5/cyfitter_cfg.c **** 	uint8 regValue = CY_GET_XTND_REG8((void CYFAR *)CYREG_PUMP_CR0);
 603              		.loc 1 295 0
 604 000a 45F67603 		movw	r3, #:lower16:1073764470
 605 000e C4F20003 		movt	r3, #:upper16:1073764470
 606 0012 1B78     		ldrb	r3, [r3, #0]
 607 0014 FB73     		strb	r3, [r7, #15]
 296:.\Generated_Source\PSoC5/cyfitter_cfg.c **** 	if (enabled != 0u)
 608              		.loc 1 296 0
 609 0016 FB79     		ldrb	r3, [r7, #7]	@ zero_extendqisi2
 610 0018 002B     		cmp	r3, #0
 611 001a 04D0     		beq	.L21
 297:.\Generated_Source\PSoC5/cyfitter_cfg.c **** 	{
ARM GAS  C:\Users\karunmj\AppData\Local\Temp\cckaKPrh.s 			page 17


 298:.\Generated_Source\PSoC5/cyfitter_cfg.c **** 		regValue |= 0x22u;
 612              		.loc 1 298 0
 613 001c FB7B     		ldrb	r3, [r7, #15]
 614 001e 43F02203 		orr	r3, r3, #34
 615 0022 FB73     		strb	r3, [r7, #15]
 616 0024 03E0     		b	.L22
 617              	.L21:
 299:.\Generated_Source\PSoC5/cyfitter_cfg.c **** 	}
 300:.\Generated_Source\PSoC5/cyfitter_cfg.c **** 	else
 301:.\Generated_Source\PSoC5/cyfitter_cfg.c **** 	{
 302:.\Generated_Source\PSoC5/cyfitter_cfg.c **** 		regValue &= (uint8)~0x22u;
 618              		.loc 1 302 0
 619 0026 FB7B     		ldrb	r3, [r7, #15]
 620 0028 23F02203 		bic	r3, r3, #34
 621 002c FB73     		strb	r3, [r7, #15]
 622              	.L22:
 303:.\Generated_Source\PSoC5/cyfitter_cfg.c **** 	}
 304:.\Generated_Source\PSoC5/cyfitter_cfg.c **** 	CY_SET_XTND_REG8((void CYFAR *)CYREG_PUMP_CR0, regValue);
 623              		.loc 1 304 0
 624 002e 45F67603 		movw	r3, #:lower16:1073764470
 625 0032 C4F20003 		movt	r3, #:upper16:1073764470
 626 0036 FA7B     		ldrb	r2, [r7, #15]
 627 0038 1A70     		strb	r2, [r3, #0]
 305:.\Generated_Source\PSoC5/cyfitter_cfg.c **** }
 628              		.loc 1 305 0
 629 003a 07F11407 		add	r7, r7, #20
 630 003e BD46     		mov	sp, r7
 631 0040 80BC     		pop	{r7}
 632 0042 7047     		bx	lr
 633              		.cfi_endproc
 634              	.LFE6:
 635              		.size	SetAnalogRoutingPumps, .-SetAnalogRoutingPumps
 636              		.global	AMux_1_CYAMUXSIDE_A__addrTable
 637              		.section	.rodata
 638              		.align	2
 639              		.type	AMux_1_CYAMUXSIDE_A__addrTable, %object
 640              		.size	AMux_1_CYAMUXSIDE_A__addrTable, 16
 641              	AMux_1_CYAMUXSIDE_A__addrTable:
 642 0000 CB5A0040 		.word	1073765067
 643 0004 005B0040 		.word	1073765120
 644 0008 3C510040 		.word	1073762620
 645 000c 3C510040 		.word	1073762620
 646              		.global	AMux_1_CYAMUXSIDE_A__maskTable
 647              		.align	2
 648              		.type	AMux_1_CYAMUXSIDE_A__maskTable, %object
 649              		.size	AMux_1_CYAMUXSIDE_A__maskTable, 4
 650              	AMux_1_CYAMUXSIDE_A__maskTable:
 651 0010 10       		.byte	16
 652 0011 40       		.byte	64
 653 0012 10       		.byte	16
 654 0013 08       		.byte	8
 655              		.section	.text.AMux_1_CYAMUXSIDE_A_Set,"ax",%progbits
 656              		.align	2
 657              		.global	AMux_1_CYAMUXSIDE_A_Set
 658              		.thumb
 659              		.thumb_func
 660              		.type	AMux_1_CYAMUXSIDE_A_Set, %function
ARM GAS  C:\Users\karunmj\AppData\Local\Temp\cckaKPrh.s 			page 18


 661              	AMux_1_CYAMUXSIDE_A_Set:
 662              	.LFB7:
 306:.\Generated_Source\PSoC5/cyfitter_cfg.c **** 
 307:.\Generated_Source\PSoC5/cyfitter_cfg.c **** #define CY_AMUX_UNUSED CYREG_BOOST_SR
 308:.\Generated_Source\PSoC5/cyfitter_cfg.c **** /* This is an implementation detail of the AMux. Code that depends on it may be
 309:.\Generated_Source\PSoC5/cyfitter_cfg.c ****    incompatible with other versions of PSoC Creator. */
 310:.\Generated_Source\PSoC5/cyfitter_cfg.c **** uint8 CYXDATA * const CYCODE AMux_1_CYAMUXSIDE_A__addrTable[4] = {
 311:.\Generated_Source\PSoC5/cyfitter_cfg.c **** 	(uint8 CYXDATA *)CYREG_CMP1_SW3, 
 312:.\Generated_Source\PSoC5/cyfitter_cfg.c **** 	(uint8 CYXDATA *)CYREG_DSM0_SW0, 
 313:.\Generated_Source\PSoC5/cyfitter_cfg.c **** 	(uint8 CYXDATA *)CYREG_PRT3_AMUX, 
 314:.\Generated_Source\PSoC5/cyfitter_cfg.c **** 	(uint8 CYXDATA *)CYREG_PRT3_AMUX, 
 315:.\Generated_Source\PSoC5/cyfitter_cfg.c **** };
 316:.\Generated_Source\PSoC5/cyfitter_cfg.c **** 
 317:.\Generated_Source\PSoC5/cyfitter_cfg.c **** /* This is an implementation detail of the AMux. Code that depends on it may be
 318:.\Generated_Source\PSoC5/cyfitter_cfg.c ****    incompatible with other versions of PSoC Creator. */
 319:.\Generated_Source\PSoC5/cyfitter_cfg.c **** const uint8 CYCODE AMux_1_CYAMUXSIDE_A__maskTable[4] = {
 320:.\Generated_Source\PSoC5/cyfitter_cfg.c **** 	0x10u, 
 321:.\Generated_Source\PSoC5/cyfitter_cfg.c **** 	0x40u, 
 322:.\Generated_Source\PSoC5/cyfitter_cfg.c **** 	0x10u, 
 323:.\Generated_Source\PSoC5/cyfitter_cfg.c **** 	0x08u, 
 324:.\Generated_Source\PSoC5/cyfitter_cfg.c **** };
 325:.\Generated_Source\PSoC5/cyfitter_cfg.c **** 
 326:.\Generated_Source\PSoC5/cyfitter_cfg.c **** /*******************************************************************************
 327:.\Generated_Source\PSoC5/cyfitter_cfg.c **** * Function Name: AMux_1_CYAMUXSIDE_A_Set
 328:.\Generated_Source\PSoC5/cyfitter_cfg.c **** ********************************************************************************
 329:.\Generated_Source\PSoC5/cyfitter_cfg.c **** * Summary:
 330:.\Generated_Source\PSoC5/cyfitter_cfg.c **** *  This function is used to set a particular channel as active on the AMux.
 331:.\Generated_Source\PSoC5/cyfitter_cfg.c **** *
 332:.\Generated_Source\PSoC5/cyfitter_cfg.c **** * Parameters:  
 333:.\Generated_Source\PSoC5/cyfitter_cfg.c **** *   channel - The mux channel input to set as active
 334:.\Generated_Source\PSoC5/cyfitter_cfg.c **** *
 335:.\Generated_Source\PSoC5/cyfitter_cfg.c **** * Return:
 336:.\Generated_Source\PSoC5/cyfitter_cfg.c **** *   void
 337:.\Generated_Source\PSoC5/cyfitter_cfg.c **** *
 338:.\Generated_Source\PSoC5/cyfitter_cfg.c **** *******************************************************************************/
 339:.\Generated_Source\PSoC5/cyfitter_cfg.c **** void AMux_1_CYAMUXSIDE_A_Set(uint8 channel)
 340:.\Generated_Source\PSoC5/cyfitter_cfg.c **** {
 663              		.loc 1 340 0
 664              		.cfi_startproc
 665              		@ args = 0, pretend = 0, frame = 8
 666              		@ frame_needed = 1, uses_anonymous_args = 0
 667              		@ link register save eliminated.
 668 0000 80B4     		push	{r7}
 669              	.LCFI21:
 670              		.cfi_def_cfa_offset 4
 671 0002 83B0     		sub	sp, sp, #12
 672              	.LCFI22:
 673              		.cfi_def_cfa_offset 16
 674 0004 00AF     		add	r7, sp, #0
 675              		.cfi_offset 7, -4
 676              	.LCFI23:
 677              		.cfi_def_cfa_register 7
 678 0006 0346     		mov	r3, r0
 679 0008 FB71     		strb	r3, [r7, #7]
 341:.\Generated_Source\PSoC5/cyfitter_cfg.c **** 	if (channel < 4)
 680              		.loc 1 341 0
 681 000a FB79     		ldrb	r3, [r7, #7]	@ zero_extendqisi2
ARM GAS  C:\Users\karunmj\AppData\Local\Temp\cckaKPrh.s 			page 19


 682 000c 032B     		cmp	r3, #3
 683 000e 18D8     		bhi	.L26
 342:.\Generated_Source\PSoC5/cyfitter_cfg.c **** 	{
 343:.\Generated_Source\PSoC5/cyfitter_cfg.c **** 		*AMux_1_CYAMUXSIDE_A__addrTable[channel] |= AMux_1_CYAMUXSIDE_A__maskTable[channel];
 684              		.loc 1 343 0
 685 0010 FA79     		ldrb	r2, [r7, #7]	@ zero_extendqisi2
 686 0012 40F20003 		movw	r3, #:lower16:AMux_1_CYAMUXSIDE_A__addrTable
 687 0016 C0F20003 		movt	r3, #:upper16:AMux_1_CYAMUXSIDE_A__addrTable
 688 001a 53F82220 		ldr	r2, [r3, r2, lsl #2]
 689 001e F979     		ldrb	r1, [r7, #7]	@ zero_extendqisi2
 690 0020 40F20003 		movw	r3, #:lower16:AMux_1_CYAMUXSIDE_A__addrTable
 691 0024 C0F20003 		movt	r3, #:upper16:AMux_1_CYAMUXSIDE_A__addrTable
 692 0028 53F82130 		ldr	r3, [r3, r1, lsl #2]
 693 002c 1978     		ldrb	r1, [r3, #0]	@ zero_extendqisi2
 694 002e F879     		ldrb	r0, [r7, #7]	@ zero_extendqisi2
 695 0030 40F20003 		movw	r3, #:lower16:AMux_1_CYAMUXSIDE_A__maskTable
 696 0034 C0F20003 		movt	r3, #:upper16:AMux_1_CYAMUXSIDE_A__maskTable
 697 0038 1B5C     		ldrb	r3, [r3, r0]	@ zero_extendqisi2
 698 003a 41EA0303 		orr	r3, r1, r3
 699 003e DBB2     		uxtb	r3, r3
 700 0040 1370     		strb	r3, [r2, #0]
 701              	.L26:
 344:.\Generated_Source\PSoC5/cyfitter_cfg.c **** 	}
 345:.\Generated_Source\PSoC5/cyfitter_cfg.c **** }
 702              		.loc 1 345 0
 703 0042 07F10C07 		add	r7, r7, #12
 704 0046 BD46     		mov	sp, r7
 705 0048 80BC     		pop	{r7}
 706 004a 7047     		bx	lr
 707              		.cfi_endproc
 708              	.LFE7:
 709              		.size	AMux_1_CYAMUXSIDE_A_Set, .-AMux_1_CYAMUXSIDE_A_Set
 710              		.section	.text.AMux_1_CYAMUXSIDE_A_Unset,"ax",%progbits
 711              		.align	2
 712              		.global	AMux_1_CYAMUXSIDE_A_Unset
 713              		.thumb
 714              		.thumb_func
 715              		.type	AMux_1_CYAMUXSIDE_A_Unset, %function
 716              	AMux_1_CYAMUXSIDE_A_Unset:
 717              	.LFB8:
 346:.\Generated_Source\PSoC5/cyfitter_cfg.c **** 
 347:.\Generated_Source\PSoC5/cyfitter_cfg.c **** /*******************************************************************************
 348:.\Generated_Source\PSoC5/cyfitter_cfg.c **** * Function Name: AMux_1_CYAMUXSIDE_A_Unset
 349:.\Generated_Source\PSoC5/cyfitter_cfg.c **** ********************************************************************************
 350:.\Generated_Source\PSoC5/cyfitter_cfg.c **** * Summary:
 351:.\Generated_Source\PSoC5/cyfitter_cfg.c **** *  This function is used to clear a particular channel from being active on the
 352:.\Generated_Source\PSoC5/cyfitter_cfg.c **** *  AMux.
 353:.\Generated_Source\PSoC5/cyfitter_cfg.c **** *
 354:.\Generated_Source\PSoC5/cyfitter_cfg.c **** * Parameters:  
 355:.\Generated_Source\PSoC5/cyfitter_cfg.c **** *   channel - The mux channel input to mark inactive
 356:.\Generated_Source\PSoC5/cyfitter_cfg.c **** *
 357:.\Generated_Source\PSoC5/cyfitter_cfg.c **** * Return:
 358:.\Generated_Source\PSoC5/cyfitter_cfg.c **** *   void
 359:.\Generated_Source\PSoC5/cyfitter_cfg.c **** *
 360:.\Generated_Source\PSoC5/cyfitter_cfg.c **** *******************************************************************************/
 361:.\Generated_Source\PSoC5/cyfitter_cfg.c **** void AMux_1_CYAMUXSIDE_A_Unset(uint8 channel)
 362:.\Generated_Source\PSoC5/cyfitter_cfg.c **** {
ARM GAS  C:\Users\karunmj\AppData\Local\Temp\cckaKPrh.s 			page 20


 718              		.loc 1 362 0
 719              		.cfi_startproc
 720              		@ args = 0, pretend = 0, frame = 8
 721              		@ frame_needed = 1, uses_anonymous_args = 0
 722              		@ link register save eliminated.
 723 0000 80B4     		push	{r7}
 724              	.LCFI24:
 725              		.cfi_def_cfa_offset 4
 726 0002 83B0     		sub	sp, sp, #12
 727              	.LCFI25:
 728              		.cfi_def_cfa_offset 16
 729 0004 00AF     		add	r7, sp, #0
 730              		.cfi_offset 7, -4
 731              	.LCFI26:
 732              		.cfi_def_cfa_register 7
 733 0006 0346     		mov	r3, r0
 734 0008 FB71     		strb	r3, [r7, #7]
 363:.\Generated_Source\PSoC5/cyfitter_cfg.c **** 	if (channel < 4)
 735              		.loc 1 363 0
 736 000a FB79     		ldrb	r3, [r7, #7]	@ zero_extendqisi2
 737 000c 032B     		cmp	r3, #3
 738 000e 1BD8     		bhi	.L29
 364:.\Generated_Source\PSoC5/cyfitter_cfg.c **** 	{
 365:.\Generated_Source\PSoC5/cyfitter_cfg.c **** 		*AMux_1_CYAMUXSIDE_A__addrTable[channel] &= (uint8)~AMux_1_CYAMUXSIDE_A__maskTable[channel];
 739              		.loc 1 365 0
 740 0010 FA79     		ldrb	r2, [r7, #7]	@ zero_extendqisi2
 741 0012 40F20003 		movw	r3, #:lower16:AMux_1_CYAMUXSIDE_A__addrTable
 742 0016 C0F20003 		movt	r3, #:upper16:AMux_1_CYAMUXSIDE_A__addrTable
 743 001a 53F82220 		ldr	r2, [r3, r2, lsl #2]
 744 001e F979     		ldrb	r1, [r7, #7]	@ zero_extendqisi2
 745 0020 40F20003 		movw	r3, #:lower16:AMux_1_CYAMUXSIDE_A__addrTable
 746 0024 C0F20003 		movt	r3, #:upper16:AMux_1_CYAMUXSIDE_A__addrTable
 747 0028 53F82130 		ldr	r3, [r3, r1, lsl #2]
 748 002c 1978     		ldrb	r1, [r3, #0]	@ zero_extendqisi2
 749 002e F879     		ldrb	r0, [r7, #7]	@ zero_extendqisi2
 750 0030 40F20003 		movw	r3, #:lower16:AMux_1_CYAMUXSIDE_A__maskTable
 751 0034 C0F20003 		movt	r3, #:upper16:AMux_1_CYAMUXSIDE_A__maskTable
 752 0038 1B5C     		ldrb	r3, [r3, r0]	@ zero_extendqisi2
 753 003a 6FEA0303 		mvn	r3, r3
 754 003e DBB2     		uxtb	r3, r3
 755 0040 01EA0303 		and	r3, r1, r3
 756 0044 DBB2     		uxtb	r3, r3
 757 0046 1370     		strb	r3, [r2, #0]
 758              	.L29:
 366:.\Generated_Source\PSoC5/cyfitter_cfg.c **** 	}
 367:.\Generated_Source\PSoC5/cyfitter_cfg.c **** }
 759              		.loc 1 367 0
 760 0048 07F10C07 		add	r7, r7, #12
 761 004c BD46     		mov	sp, r7
 762 004e 80BC     		pop	{r7}
 763 0050 7047     		bx	lr
 764              		.cfi_endproc
 765              	.LFE8:
 766              		.size	AMux_1_CYAMUXSIDE_A_Unset, .-AMux_1_CYAMUXSIDE_A_Unset
 767              		.global	AMux_1_CYAMUXSIDE_B__addrTable
 768 0052 00BF     		.section	.rodata
 769              		.align	2
ARM GAS  C:\Users\karunmj\AppData\Local\Temp\cckaKPrh.s 			page 21


 770              		.type	AMux_1_CYAMUXSIDE_B__addrTable, %object
 771              		.size	AMux_1_CYAMUXSIDE_B__addrTable, 16
 772              	AMux_1_CYAMUXSIDE_B__addrTable:
 773 0014 045B0040 		.word	1073765124
 774 0018 045B0040 		.word	1073765124
 775 001c 035B0040 		.word	1073765123
 776 0020 035B0040 		.word	1073765123
 777              		.global	AMux_1_CYAMUXSIDE_B__maskTable
 778              		.align	2
 779              		.type	AMux_1_CYAMUXSIDE_B__maskTable, %object
 780              		.size	AMux_1_CYAMUXSIDE_B__maskTable, 4
 781              	AMux_1_CYAMUXSIDE_B__maskTable:
 782 0024 80       		.byte	-128
 783 0025 80       		.byte	-128
 784 0026 40       		.byte	64
 785 0027 40       		.byte	64
 786              		.section	.text.AMux_1_CYAMUXSIDE_B_Set,"ax",%progbits
 787              		.align	2
 788              		.global	AMux_1_CYAMUXSIDE_B_Set
 789              		.thumb
 790              		.thumb_func
 791              		.type	AMux_1_CYAMUXSIDE_B_Set, %function
 792              	AMux_1_CYAMUXSIDE_B_Set:
 793              	.LFB9:
 368:.\Generated_Source\PSoC5/cyfitter_cfg.c **** 
 369:.\Generated_Source\PSoC5/cyfitter_cfg.c **** /* This is an implementation detail of the AMux. Code that depends on it may be
 370:.\Generated_Source\PSoC5/cyfitter_cfg.c ****    incompatible with other versions of PSoC Creator. */
 371:.\Generated_Source\PSoC5/cyfitter_cfg.c **** uint8 CYXDATA * const CYCODE AMux_1_CYAMUXSIDE_B__addrTable[4] = {
 372:.\Generated_Source\PSoC5/cyfitter_cfg.c **** 	(uint8 CYXDATA *)CYREG_DSM0_SW4, 
 373:.\Generated_Source\PSoC5/cyfitter_cfg.c **** 	(uint8 CYXDATA *)CYREG_DSM0_SW4, 
 374:.\Generated_Source\PSoC5/cyfitter_cfg.c **** 	(uint8 CYXDATA *)CYREG_DSM0_SW3, 
 375:.\Generated_Source\PSoC5/cyfitter_cfg.c **** 	(uint8 CYXDATA *)CYREG_DSM0_SW3, 
 376:.\Generated_Source\PSoC5/cyfitter_cfg.c **** };
 377:.\Generated_Source\PSoC5/cyfitter_cfg.c **** 
 378:.\Generated_Source\PSoC5/cyfitter_cfg.c **** /* This is an implementation detail of the AMux. Code that depends on it may be
 379:.\Generated_Source\PSoC5/cyfitter_cfg.c ****    incompatible with other versions of PSoC Creator. */
 380:.\Generated_Source\PSoC5/cyfitter_cfg.c **** const uint8 CYCODE AMux_1_CYAMUXSIDE_B__maskTable[4] = {
 381:.\Generated_Source\PSoC5/cyfitter_cfg.c **** 	0x80u, 
 382:.\Generated_Source\PSoC5/cyfitter_cfg.c **** 	0x80u, 
 383:.\Generated_Source\PSoC5/cyfitter_cfg.c **** 	0x40u, 
 384:.\Generated_Source\PSoC5/cyfitter_cfg.c **** 	0x40u, 
 385:.\Generated_Source\PSoC5/cyfitter_cfg.c **** };
 386:.\Generated_Source\PSoC5/cyfitter_cfg.c **** 
 387:.\Generated_Source\PSoC5/cyfitter_cfg.c **** /*******************************************************************************
 388:.\Generated_Source\PSoC5/cyfitter_cfg.c **** * Function Name: AMux_1_CYAMUXSIDE_B_Set
 389:.\Generated_Source\PSoC5/cyfitter_cfg.c **** ********************************************************************************
 390:.\Generated_Source\PSoC5/cyfitter_cfg.c **** * Summary:
 391:.\Generated_Source\PSoC5/cyfitter_cfg.c **** *  This function is used to set a particular channel as active on the AMux.
 392:.\Generated_Source\PSoC5/cyfitter_cfg.c **** *
 393:.\Generated_Source\PSoC5/cyfitter_cfg.c **** * Parameters:  
 394:.\Generated_Source\PSoC5/cyfitter_cfg.c **** *   channel - The mux channel input to set as active
 395:.\Generated_Source\PSoC5/cyfitter_cfg.c **** *
 396:.\Generated_Source\PSoC5/cyfitter_cfg.c **** * Return:
 397:.\Generated_Source\PSoC5/cyfitter_cfg.c **** *   void
 398:.\Generated_Source\PSoC5/cyfitter_cfg.c **** *
 399:.\Generated_Source\PSoC5/cyfitter_cfg.c **** *******************************************************************************/
 400:.\Generated_Source\PSoC5/cyfitter_cfg.c **** void AMux_1_CYAMUXSIDE_B_Set(uint8 channel)
ARM GAS  C:\Users\karunmj\AppData\Local\Temp\cckaKPrh.s 			page 22


 401:.\Generated_Source\PSoC5/cyfitter_cfg.c **** {
 794              		.loc 1 401 0
 795              		.cfi_startproc
 796              		@ args = 0, pretend = 0, frame = 8
 797              		@ frame_needed = 1, uses_anonymous_args = 0
 798              		@ link register save eliminated.
 799 0000 80B4     		push	{r7}
 800              	.LCFI27:
 801              		.cfi_def_cfa_offset 4
 802 0002 83B0     		sub	sp, sp, #12
 803              	.LCFI28:
 804              		.cfi_def_cfa_offset 16
 805 0004 00AF     		add	r7, sp, #0
 806              		.cfi_offset 7, -4
 807              	.LCFI29:
 808              		.cfi_def_cfa_register 7
 809 0006 0346     		mov	r3, r0
 810 0008 FB71     		strb	r3, [r7, #7]
 402:.\Generated_Source\PSoC5/cyfitter_cfg.c **** 	if (channel < 4)
 811              		.loc 1 402 0
 812 000a FB79     		ldrb	r3, [r7, #7]	@ zero_extendqisi2
 813 000c 032B     		cmp	r3, #3
 814 000e 18D8     		bhi	.L32
 403:.\Generated_Source\PSoC5/cyfitter_cfg.c **** 	{
 404:.\Generated_Source\PSoC5/cyfitter_cfg.c **** 		*AMux_1_CYAMUXSIDE_B__addrTable[channel] |= AMux_1_CYAMUXSIDE_B__maskTable[channel];
 815              		.loc 1 404 0
 816 0010 FA79     		ldrb	r2, [r7, #7]	@ zero_extendqisi2
 817 0012 40F20003 		movw	r3, #:lower16:AMux_1_CYAMUXSIDE_B__addrTable
 818 0016 C0F20003 		movt	r3, #:upper16:AMux_1_CYAMUXSIDE_B__addrTable
 819 001a 53F82220 		ldr	r2, [r3, r2, lsl #2]
 820 001e F979     		ldrb	r1, [r7, #7]	@ zero_extendqisi2
 821 0020 40F20003 		movw	r3, #:lower16:AMux_1_CYAMUXSIDE_B__addrTable
 822 0024 C0F20003 		movt	r3, #:upper16:AMux_1_CYAMUXSIDE_B__addrTable
 823 0028 53F82130 		ldr	r3, [r3, r1, lsl #2]
 824 002c 1978     		ldrb	r1, [r3, #0]	@ zero_extendqisi2
 825 002e F879     		ldrb	r0, [r7, #7]	@ zero_extendqisi2
 826 0030 40F20003 		movw	r3, #:lower16:AMux_1_CYAMUXSIDE_B__maskTable
 827 0034 C0F20003 		movt	r3, #:upper16:AMux_1_CYAMUXSIDE_B__maskTable
 828 0038 1B5C     		ldrb	r3, [r3, r0]	@ zero_extendqisi2
 829 003a 41EA0303 		orr	r3, r1, r3
 830 003e DBB2     		uxtb	r3, r3
 831 0040 1370     		strb	r3, [r2, #0]
 832              	.L32:
 405:.\Generated_Source\PSoC5/cyfitter_cfg.c **** 	}
 406:.\Generated_Source\PSoC5/cyfitter_cfg.c **** }
 833              		.loc 1 406 0
 834 0042 07F10C07 		add	r7, r7, #12
 835 0046 BD46     		mov	sp, r7
 836 0048 80BC     		pop	{r7}
 837 004a 7047     		bx	lr
 838              		.cfi_endproc
 839              	.LFE9:
 840              		.size	AMux_1_CYAMUXSIDE_B_Set, .-AMux_1_CYAMUXSIDE_B_Set
 841              		.section	.text.AMux_1_CYAMUXSIDE_B_Unset,"ax",%progbits
 842              		.align	2
 843              		.global	AMux_1_CYAMUXSIDE_B_Unset
 844              		.thumb
ARM GAS  C:\Users\karunmj\AppData\Local\Temp\cckaKPrh.s 			page 23


 845              		.thumb_func
 846              		.type	AMux_1_CYAMUXSIDE_B_Unset, %function
 847              	AMux_1_CYAMUXSIDE_B_Unset:
 848              	.LFB10:
 407:.\Generated_Source\PSoC5/cyfitter_cfg.c **** 
 408:.\Generated_Source\PSoC5/cyfitter_cfg.c **** /*******************************************************************************
 409:.\Generated_Source\PSoC5/cyfitter_cfg.c **** * Function Name: AMux_1_CYAMUXSIDE_B_Unset
 410:.\Generated_Source\PSoC5/cyfitter_cfg.c **** ********************************************************************************
 411:.\Generated_Source\PSoC5/cyfitter_cfg.c **** * Summary:
 412:.\Generated_Source\PSoC5/cyfitter_cfg.c **** *  This function is used to clear a particular channel from being active on the
 413:.\Generated_Source\PSoC5/cyfitter_cfg.c **** *  AMux.
 414:.\Generated_Source\PSoC5/cyfitter_cfg.c **** *
 415:.\Generated_Source\PSoC5/cyfitter_cfg.c **** * Parameters:  
 416:.\Generated_Source\PSoC5/cyfitter_cfg.c **** *   channel - The mux channel input to mark inactive
 417:.\Generated_Source\PSoC5/cyfitter_cfg.c **** *
 418:.\Generated_Source\PSoC5/cyfitter_cfg.c **** * Return:
 419:.\Generated_Source\PSoC5/cyfitter_cfg.c **** *   void
 420:.\Generated_Source\PSoC5/cyfitter_cfg.c **** *
 421:.\Generated_Source\PSoC5/cyfitter_cfg.c **** *******************************************************************************/
 422:.\Generated_Source\PSoC5/cyfitter_cfg.c **** void AMux_1_CYAMUXSIDE_B_Unset(uint8 channel)
 423:.\Generated_Source\PSoC5/cyfitter_cfg.c **** {
 849              		.loc 1 423 0
 850              		.cfi_startproc
 851              		@ args = 0, pretend = 0, frame = 8
 852              		@ frame_needed = 1, uses_anonymous_args = 0
 853              		@ link register save eliminated.
 854 0000 80B4     		push	{r7}
 855              	.LCFI30:
 856              		.cfi_def_cfa_offset 4
 857 0002 83B0     		sub	sp, sp, #12
 858              	.LCFI31:
 859              		.cfi_def_cfa_offset 16
 860 0004 00AF     		add	r7, sp, #0
 861              		.cfi_offset 7, -4
 862              	.LCFI32:
 863              		.cfi_def_cfa_register 7
 864 0006 0346     		mov	r3, r0
 865 0008 FB71     		strb	r3, [r7, #7]
 424:.\Generated_Source\PSoC5/cyfitter_cfg.c **** 	if (channel < 4)
 866              		.loc 1 424 0
 867 000a FB79     		ldrb	r3, [r7, #7]	@ zero_extendqisi2
 868 000c 032B     		cmp	r3, #3
 869 000e 1BD8     		bhi	.L35
 425:.\Generated_Source\PSoC5/cyfitter_cfg.c **** 	{
 426:.\Generated_Source\PSoC5/cyfitter_cfg.c **** 		*AMux_1_CYAMUXSIDE_B__addrTable[channel] &= (uint8)~AMux_1_CYAMUXSIDE_B__maskTable[channel];
 870              		.loc 1 426 0
 871 0010 FA79     		ldrb	r2, [r7, #7]	@ zero_extendqisi2
 872 0012 40F20003 		movw	r3, #:lower16:AMux_1_CYAMUXSIDE_B__addrTable
 873 0016 C0F20003 		movt	r3, #:upper16:AMux_1_CYAMUXSIDE_B__addrTable
 874 001a 53F82220 		ldr	r2, [r3, r2, lsl #2]
 875 001e F979     		ldrb	r1, [r7, #7]	@ zero_extendqisi2
 876 0020 40F20003 		movw	r3, #:lower16:AMux_1_CYAMUXSIDE_B__addrTable
 877 0024 C0F20003 		movt	r3, #:upper16:AMux_1_CYAMUXSIDE_B__addrTable
 878 0028 53F82130 		ldr	r3, [r3, r1, lsl #2]
 879 002c 1978     		ldrb	r1, [r3, #0]	@ zero_extendqisi2
 880 002e F879     		ldrb	r0, [r7, #7]	@ zero_extendqisi2
 881 0030 40F20003 		movw	r3, #:lower16:AMux_1_CYAMUXSIDE_B__maskTable
ARM GAS  C:\Users\karunmj\AppData\Local\Temp\cckaKPrh.s 			page 24


 882 0034 C0F20003 		movt	r3, #:upper16:AMux_1_CYAMUXSIDE_B__maskTable
 883 0038 1B5C     		ldrb	r3, [r3, r0]	@ zero_extendqisi2
 884 003a 6FEA0303 		mvn	r3, r3
 885 003e DBB2     		uxtb	r3, r3
 886 0040 01EA0303 		and	r3, r1, r3
 887 0044 DBB2     		uxtb	r3, r3
 888 0046 1370     		strb	r3, [r2, #0]
 889              	.L35:
 427:.\Generated_Source\PSoC5/cyfitter_cfg.c **** 	}
 428:.\Generated_Source\PSoC5/cyfitter_cfg.c **** }
 890              		.loc 1 428 0
 891 0048 07F10C07 		add	r7, r7, #12
 892 004c BD46     		mov	sp, r7
 893 004e 80BC     		pop	{r7}
 894 0050 7047     		bx	lr
 895              		.cfi_endproc
 896              	.LFE10:
 897              		.size	AMux_1_CYAMUXSIDE_B_Unset, .-AMux_1_CYAMUXSIDE_B_Unset
 898 0052 00BF     		.section	.text.cyfitter_cfg,"ax",%progbits
 899              		.align	2
 900              		.global	cyfitter_cfg
 901              		.thumb
 902              		.thumb_func
 903              		.type	cyfitter_cfg, %function
 904              	cyfitter_cfg:
 905              	.LFB11:
 429:.\Generated_Source\PSoC5/cyfitter_cfg.c **** 
 430:.\Generated_Source\PSoC5/cyfitter_cfg.c **** 
 431:.\Generated_Source\PSoC5/cyfitter_cfg.c **** 
 432:.\Generated_Source\PSoC5/cyfitter_cfg.c **** /*******************************************************************************
 433:.\Generated_Source\PSoC5/cyfitter_cfg.c **** * Function Name: cyfitter_cfg
 434:.\Generated_Source\PSoC5/cyfitter_cfg.c **** ********************************************************************************
 435:.\Generated_Source\PSoC5/cyfitter_cfg.c **** * Summary:
 436:.\Generated_Source\PSoC5/cyfitter_cfg.c **** *  This function is called by the start-up code for the selected device. It
 437:.\Generated_Source\PSoC5/cyfitter_cfg.c **** *  performs all of the necessary device configuration based on the design
 438:.\Generated_Source\PSoC5/cyfitter_cfg.c **** *  settings.  This includes settings from the Design Wide Resources (DWR) such
 439:.\Generated_Source\PSoC5/cyfitter_cfg.c **** *  as Clocks and Pins as well as any component configuration that is necessary.
 440:.\Generated_Source\PSoC5/cyfitter_cfg.c **** *
 441:.\Generated_Source\PSoC5/cyfitter_cfg.c **** * Parameters:  
 442:.\Generated_Source\PSoC5/cyfitter_cfg.c **** *   void
 443:.\Generated_Source\PSoC5/cyfitter_cfg.c **** *
 444:.\Generated_Source\PSoC5/cyfitter_cfg.c **** * Return:
 445:.\Generated_Source\PSoC5/cyfitter_cfg.c **** *   void
 446:.\Generated_Source\PSoC5/cyfitter_cfg.c **** *
 447:.\Generated_Source\PSoC5/cyfitter_cfg.c **** *******************************************************************************/
 448:.\Generated_Source\PSoC5/cyfitter_cfg.c **** 
 449:.\Generated_Source\PSoC5/cyfitter_cfg.c **** void cyfitter_cfg(void)
 450:.\Generated_Source\PSoC5/cyfitter_cfg.c **** {
 906              		.loc 1 450 0
 907              		.cfi_startproc
 908              		@ args = 0, pretend = 0, frame = 8
 909              		@ frame_needed = 1, uses_anonymous_args = 0
 910 0000 80B5     		push	{r7, lr}
 911              	.LCFI33:
 912              		.cfi_def_cfa_offset 8
 913 0002 82B0     		sub	sp, sp, #8
 914              	.LCFI34:
ARM GAS  C:\Users\karunmj\AppData\Local\Temp\cckaKPrh.s 			page 25


 915              		.cfi_def_cfa_offset 16
 916 0004 00AF     		add	r7, sp, #0
 917              		.cfi_offset 14, -4
 918              		.cfi_offset 7, -8
 919              	.LCFI35:
 920              		.cfi_def_cfa_register 7
 451:.\Generated_Source\PSoC5/cyfitter_cfg.c **** #ifdef CYGlobalIntDisable
 452:.\Generated_Source\PSoC5/cyfitter_cfg.c **** 	/* Disable interrupts by default. Let user enable if/when they want. */
 453:.\Generated_Source\PSoC5/cyfitter_cfg.c **** 	CYGlobalIntDisable
 921              		.loc 1 453 0
 922              	@ 453 ".\Generated_Source\PSoC5\cyfitter_cfg.c" 1
 923 0006 72B6     		CPSID   i
 924              	@ 0 "" 2
 454:.\Generated_Source\PSoC5/cyfitter_cfg.c **** #endif
 455:.\Generated_Source\PSoC5/cyfitter_cfg.c **** 
 456:.\Generated_Source\PSoC5/cyfitter_cfg.c **** 	/* Enable/Disable Debug functionality based on settings from System DWR */
 457:.\Generated_Source\PSoC5/cyfitter_cfg.c **** 	CY_SET_XTND_REG8((void CYFAR *)CYREG_MLOGIC_DEBUG, (CY_GET_XTND_REG8((void CYFAR *)CYREG_MLOGIC_DE
 925              		.loc 1 457 0
 926              		.thumb
 927 0008 44F2E863 		movw	r3, #:lower16:1073759976
 928 000c C4F20003 		movt	r3, #:upper16:1073759976
 929 0010 44F2E862 		movw	r2, #:lower16:1073759976
 930 0014 C4F20002 		movt	r2, #:upper16:1073759976
 931 0018 1278     		ldrb	r2, [r2, #0]
 932 001a D2B2     		uxtb	r2, r2
 933 001c 42F00402 		orr	r2, r2, #4
 934 0020 D2B2     		uxtb	r2, r2
 935 0022 1A70     		strb	r2, [r3, #0]
 936              	.LBB3:
 458:.\Generated_Source\PSoC5/cyfitter_cfg.c **** 
 459:.\Generated_Source\PSoC5/cyfitter_cfg.c **** 	{
 460:.\Generated_Source\PSoC5/cyfitter_cfg.c **** 
 461:.\Generated_Source\PSoC5/cyfitter_cfg.c **** 		typedef struct {
 462:.\Generated_Source\PSoC5/cyfitter_cfg.c **** 			void CYFAR *address;
 463:.\Generated_Source\PSoC5/cyfitter_cfg.c **** 			uint16 size;
 464:.\Generated_Source\PSoC5/cyfitter_cfg.c **** 		} CYPACKED cfg_memset_t;
 465:.\Generated_Source\PSoC5/cyfitter_cfg.c **** 
 466:.\Generated_Source\PSoC5/cyfitter_cfg.c **** 		static const cfg_memset_t CYCODE cfg_memset_list [] = {
 467:.\Generated_Source\PSoC5/cyfitter_cfg.c **** 			/* address, size */
 468:.\Generated_Source\PSoC5/cyfitter_cfg.c **** 			{(void CYFAR *)(CYREG_PRT1_DR), 32u},
 469:.\Generated_Source\PSoC5/cyfitter_cfg.c **** 			{(void CYFAR *)(CYREG_PRT4_DR), 48u},
 470:.\Generated_Source\PSoC5/cyfitter_cfg.c **** 			{(void CYFAR *)(CYREG_PRT12_DR), 16u},
 471:.\Generated_Source\PSoC5/cyfitter_cfg.c **** 			{(void CYFAR *)(CYREG_PRT15_DR), 16u},
 472:.\Generated_Source\PSoC5/cyfitter_cfg.c **** 			{(void CYFAR *)(CYDEV_UCFG_B0_P0_U0_BASE), 4096u},
 473:.\Generated_Source\PSoC5/cyfitter_cfg.c **** 			{(void CYFAR *)(CYDEV_UCFG_B1_P2_U0_BASE), 2048u},
 474:.\Generated_Source\PSoC5/cyfitter_cfg.c **** 			{(void CYFAR *)(CYDEV_UCFG_DSI0_BASE), 2560u},
 475:.\Generated_Source\PSoC5/cyfitter_cfg.c **** 			{(void CYFAR *)(CYDEV_UCFG_DSI12_BASE), 512u},
 476:.\Generated_Source\PSoC5/cyfitter_cfg.c **** 			{(void CYFAR *)(CYREG_BCTL0_MDCLK_EN), 32u},
 477:.\Generated_Source\PSoC5/cyfitter_cfg.c **** 		};
 478:.\Generated_Source\PSoC5/cyfitter_cfg.c **** 
 479:.\Generated_Source\PSoC5/cyfitter_cfg.c **** 		uint8 CYDATA i;
 480:.\Generated_Source\PSoC5/cyfitter_cfg.c **** 
 481:.\Generated_Source\PSoC5/cyfitter_cfg.c **** 		/* Zero out critical memory blocks before beginning configuration */
 482:.\Generated_Source\PSoC5/cyfitter_cfg.c **** 		for (i = 0u; i < (sizeof(cfg_memset_list)/sizeof(cfg_memset_list[0])); i++)
 937              		.loc 1 482 0
 938 0024 4FF00003 		mov	r3, #0
 939 0028 FB70     		strb	r3, [r7, #3]
ARM GAS  C:\Users\karunmj\AppData\Local\Temp\cckaKPrh.s 			page 26


 940 002a 2FE0     		b	.L37
 941              	.L38:
 942              	.LBB4:
 483:.\Generated_Source\PSoC5/cyfitter_cfg.c **** 		{
 484:.\Generated_Source\PSoC5/cyfitter_cfg.c **** 			const cfg_memset_t CYCODE * CYDATA ms = &cfg_memset_list[i];
 943              		.loc 1 484 0
 944 002c FA78     		ldrb	r2, [r7, #3]	@ zero_extendqisi2
 945 002e 1346     		mov	r3, r2
 946 0030 4FEA4303 		lsl	r3, r3, #1
 947 0034 1344     		add	r3, r3, r2
 948 0036 4FEA4303 		lsl	r3, r3, #1
 949 003a 1A46     		mov	r2, r3
 950 003c 40F20003 		movw	r3, #:lower16:cfg_memset_list.2177
 951 0040 C0F20003 		movt	r3, #:upper16:cfg_memset_list.2177
 952 0044 1344     		add	r3, r2, r3
 953 0046 7B60     		str	r3, [r7, #4]
 485:.\Generated_Source\PSoC5/cyfitter_cfg.c **** 			CYMEMZERO(ms->address, (uint32)(ms->size));
 954              		.loc 1 485 0
 955 0048 7B68     		ldr	r3, [r7, #4]
 956 004a 1A78     		ldrb	r2, [r3, #0]	@ zero_extendqisi2
 957 004c 5978     		ldrb	r1, [r3, #1]	@ zero_extendqisi2
 958 004e 4FEA0121 		lsl	r1, r1, #8
 959 0052 41EA0202 		orr	r2, r1, r2
 960 0056 9978     		ldrb	r1, [r3, #2]	@ zero_extendqisi2
 961 0058 4FEA0141 		lsl	r1, r1, #16
 962 005c 41EA0202 		orr	r2, r1, r2
 963 0060 DB78     		ldrb	r3, [r3, #3]	@ zero_extendqisi2
 964 0062 4FEA0363 		lsl	r3, r3, #24
 965 0066 43EA0203 		orr	r3, r3, r2
 966 006a 1A46     		mov	r2, r3
 967 006c 7B68     		ldr	r3, [r7, #4]
 968 006e 1979     		ldrb	r1, [r3, #4]	@ zero_extendqisi2
 969 0070 5B79     		ldrb	r3, [r3, #5]	@ zero_extendqisi2
 970 0072 4FEA0323 		lsl	r3, r3, #8
 971 0076 43EA0103 		orr	r3, r3, r1
 972 007a 9BB2     		uxth	r3, r3
 973 007c 1046     		mov	r0, r2
 974 007e 1946     		mov	r1, r3
 975 0080 FFF7FEFF 		bl	CYMEMZERO
 976              	.LBE4:
 977              		.loc 1 482 0
 978 0084 FB78     		ldrb	r3, [r7, #3]
 979 0086 03F10103 		add	r3, r3, #1
 980 008a FB70     		strb	r3, [r7, #3]
 981              	.L37:
 982 008c FB78     		ldrb	r3, [r7, #3]	@ zero_extendqisi2
 983 008e 082B     		cmp	r3, #8
 984 0090 CCD9     		bls	.L38
 486:.\Generated_Source\PSoC5/cyfitter_cfg.c **** 		}
 487:.\Generated_Source\PSoC5/cyfitter_cfg.c **** 
 488:.\Generated_Source\PSoC5/cyfitter_cfg.c **** 		cfg_write_bytes32(cy_cfg_addr_table, cy_cfg_data_table);
 985              		.loc 1 488 0
 986 0092 4FF09040 		mov	r0, #1207959552
 987 0096 40F26001 		movw	r1, #:lower16:1207959648
 988 009a C4F60001 		movt	r1, #:upper16:1207959648
 989 009e FFF7FEFF 		bl	cfg_write_bytes32
 489:.\Generated_Source\PSoC5/cyfitter_cfg.c **** 
ARM GAS  C:\Users\karunmj\AppData\Local\Temp\cckaKPrh.s 			page 27


 490:.\Generated_Source\PSoC5/cyfitter_cfg.c **** 		/* Perform normal device configuration. Order is not critical for these items. */
 491:.\Generated_Source\PSoC5/cyfitter_cfg.c **** 		CY_SET_XTND_REG16((void CYFAR *)(CYREG_LUT1_CR), 0x0103u);
 990              		.loc 1 491 0
 991 00a2 45F64A03 		movw	r3, #:lower16:1073764426
 992 00a6 C4F20003 		movt	r3, #:upper16:1073764426
 993 00aa 40F20312 		movw	r2, #259
 994 00ae 1A80     		strh	r2, [r3, #0]	@ movhi
 492:.\Generated_Source\PSoC5/cyfitter_cfg.c **** 		CY_SET_XTND_REG16((void CYFAR *)(CYREG_LUT2_CR), 0x0203u);
 995              		.loc 1 492 0
 996 00b0 45F64C03 		movw	r3, #:lower16:1073764428
 997 00b4 C4F20003 		movt	r3, #:upper16:1073764428
 998 00b8 40F20322 		movw	r2, #515
 999 00bc 1A80     		strh	r2, [r3, #0]	@ movhi
 493:.\Generated_Source\PSoC5/cyfitter_cfg.c **** 		CY_SET_XTND_REG16((void CYFAR *)(CYREG_LUT3_CR), 0x0303u);
 1000              		.loc 1 493 0
 1001 00be 45F64E03 		movw	r3, #:lower16:1073764430
 1002 00c2 C4F20003 		movt	r3, #:upper16:1073764430
 1003 00c6 40F20332 		movw	r2, #771
 1004 00ca 1A80     		strh	r2, [r3, #0]	@ movhi
 494:.\Generated_Source\PSoC5/cyfitter_cfg.c **** 
 495:.\Generated_Source\PSoC5/cyfitter_cfg.c **** 		/* Enable digital routing */
 496:.\Generated_Source\PSoC5/cyfitter_cfg.c **** 		CY_SET_XTND_REG8((void CYFAR *)CYREG_BCTL0_BANK_CTL, CY_GET_XTND_REG8((void CYFAR *)CYREG_BCTL0_B
 1005              		.loc 1 496 0
 1006 00cc 45F20303 		movw	r3, #:lower16:1073827843
 1007 00d0 C4F20103 		movt	r3, #:upper16:1073827843
 1008 00d4 45F20302 		movw	r2, #:lower16:1073827843
 1009 00d8 C4F20102 		movt	r2, #:upper16:1073827843
 1010 00dc 1278     		ldrb	r2, [r2, #0]
 1011 00de D2B2     		uxtb	r2, r2
 1012 00e0 42F00202 		orr	r2, r2, #2
 1013 00e4 D2B2     		uxtb	r2, r2
 1014 00e6 1A70     		strb	r2, [r3, #0]
 497:.\Generated_Source\PSoC5/cyfitter_cfg.c **** 		CY_SET_XTND_REG8((void CYFAR *)CYREG_BCTL1_BANK_CTL, CY_GET_XTND_REG8((void CYFAR *)CYREG_BCTL1_B
 1015              		.loc 1 497 0
 1016 00e8 45F21303 		movw	r3, #:lower16:1073827859
 1017 00ec C4F20103 		movt	r3, #:upper16:1073827859
 1018 00f0 45F21302 		movw	r2, #:lower16:1073827859
 1019 00f4 C4F20102 		movt	r2, #:upper16:1073827859
 1020 00f8 1278     		ldrb	r2, [r2, #0]
 1021 00fa D2B2     		uxtb	r2, r2
 1022 00fc 42F00202 		orr	r2, r2, #2
 1023 0100 D2B2     		uxtb	r2, r2
 1024 0102 1A70     		strb	r2, [r3, #0]
 498:.\Generated_Source\PSoC5/cyfitter_cfg.c **** 
 499:.\Generated_Source\PSoC5/cyfitter_cfg.c **** 		/* Enable UDB array */
 500:.\Generated_Source\PSoC5/cyfitter_cfg.c **** 		CY_SET_XTND_REG8((void CYFAR *)CYREG_PM_ACT_CFG0, CY_GET_XTND_REG8((void CYFAR *)CYREG_PM_ACT_CFG
 1025              		.loc 1 500 0
 1026 0104 44F2A033 		movw	r3, #:lower16:1073759136
 1027 0108 C4F20003 		movt	r3, #:upper16:1073759136
 1028 010c 44F2A032 		movw	r2, #:lower16:1073759136
 1029 0110 C4F20002 		movt	r2, #:upper16:1073759136
 1030 0114 1278     		ldrb	r2, [r2, #0]
 1031 0116 D2B2     		uxtb	r2, r2
 1032 0118 42F04002 		orr	r2, r2, #64
 1033 011c D2B2     		uxtb	r2, r2
 1034 011e 1A70     		strb	r2, [r3, #0]
 501:.\Generated_Source\PSoC5/cyfitter_cfg.c **** 		CY_SET_XTND_REG8((void CYFAR *)CYREG_PM_AVAIL_CR2, CY_GET_XTND_REG8((void CYFAR *)CYREG_PM_AVAIL_
ARM GAS  C:\Users\karunmj\AppData\Local\Temp\cckaKPrh.s 			page 28


 1035              		.loc 1 501 0
 1036 0120 44F2C233 		movw	r3, #:lower16:1073759170
 1037 0124 C4F20003 		movt	r3, #:upper16:1073759170
 1038 0128 44F2C232 		movw	r2, #:lower16:1073759170
 1039 012c C4F20002 		movt	r2, #:upper16:1073759170
 1040 0130 1278     		ldrb	r2, [r2, #0]
 1041 0132 D2B2     		uxtb	r2, r2
 1042 0134 42F01002 		orr	r2, r2, #16
 1043 0138 D2B2     		uxtb	r2, r2
 1044 013a 1A70     		strb	r2, [r3, #0]
 1045              	.LBE3:
 502:.\Generated_Source\PSoC5/cyfitter_cfg.c **** 	}
 503:.\Generated_Source\PSoC5/cyfitter_cfg.c **** 
 504:.\Generated_Source\PSoC5/cyfitter_cfg.c **** 	/* Perform second pass device configuration. These items must be configured in specific order afte
 505:.\Generated_Source\PSoC5/cyfitter_cfg.c **** 	CYCONFIGCPY((void CYFAR *)(CYREG_PRT0_DR), (const void CYFAR *)(BS_IOPINS0_0_VAL), 10u);
 1046              		.loc 1 505 0
 1047 013c 45F20010 		movw	r0, #:lower16:1073762560
 1048 0140 C4F20000 		movt	r0, #:upper16:1073762560
 1049 0144 40F20C21 		movw	r1, #:lower16:1207960076
 1050 0148 C4F60001 		movt	r1, #:upper16:1207960076
 1051 014c 4FF00A02 		mov	r2, #10
 1052 0150 FFF7FEFF 		bl	CYCONFIGCPY
 506:.\Generated_Source\PSoC5/cyfitter_cfg.c **** 	CYCONFIGCPY((void CYFAR *)(CYREG_PRT3_DM0), (const void CYFAR *)(BS_IOPINS0_3_VAL), 8u);
 1053              		.loc 1 506 0
 1054 0154 45F23210 		movw	r0, #:lower16:1073762610
 1055 0158 C4F20000 		movt	r0, #:upper16:1073762610
 1056 015c 40F21821 		movw	r1, #:lower16:1207960088
 1057 0160 C4F60001 		movt	r1, #:upper16:1207960088
 1058 0164 4FF00802 		mov	r2, #8
 1059 0168 FFF7FEFF 		bl	CYCONFIGCPY
 507:.\Generated_Source\PSoC5/cyfitter_cfg.c **** 
 508:.\Generated_Source\PSoC5/cyfitter_cfg.c **** 	/* Switch Boost to the precision bandgap reference from its internal reference */
 509:.\Generated_Source\PSoC5/cyfitter_cfg.c **** 	CY_SET_REG8((void CYXDATA *)CYDEV_BOOST_CR2, (CY_GET_REG8((void CYXDATA *)CYDEV_BOOST_CR2) | 0x08u
 1060              		.loc 1 509 0
 1061 016c 44F22233 		movw	r3, #:lower16:1073759010
 1062 0170 C4F20003 		movt	r3, #:upper16:1073759010
 1063 0174 44F22232 		movw	r2, #:lower16:1073759010
 1064 0178 C4F20002 		movt	r2, #:upper16:1073759010
 1065 017c 1278     		ldrb	r2, [r2, #0]
 1066 017e D2B2     		uxtb	r2, r2
 1067 0180 42F00802 		orr	r2, r2, #8
 1068 0184 D2B2     		uxtb	r2, r2
 1069 0186 1A70     		strb	r2, [r3, #0]
 510:.\Generated_Source\PSoC5/cyfitter_cfg.c **** 
 511:.\Generated_Source\PSoC5/cyfitter_cfg.c **** 	/* Set Flash Cycles based on max possible frequency in case a glitch occurs during ClockSetup(). *
 512:.\Generated_Source\PSoC5/cyfitter_cfg.c **** 	CY_SET_XTND_REG8((void CYFAR *)(CYREG_CACHE_CC_CTL), (((CYDEV_INSTRUCT_CACHE_ENABLED) != 0) ? 0x01
 1070              		.loc 1 512 0
 1071 0188 44F60003 		movw	r3, #:lower16:1073760256
 1072 018c C4F20003 		movt	r3, #:upper16:1073760256
 1073 0190 4FF00102 		mov	r2, #1
 1074 0194 1A70     		strb	r2, [r3, #0]
 513:.\Generated_Source\PSoC5/cyfitter_cfg.c **** 	/* Setup clocks based on selections from Clock DWR */
 514:.\Generated_Source\PSoC5/cyfitter_cfg.c **** 	ClockSetup();
 1075              		.loc 1 514 0
 1076 0196 FFF7FEFF 		bl	ClockSetup
 515:.\Generated_Source\PSoC5/cyfitter_cfg.c **** 	/* Set Flash Cycles based on newly configured 24.00MHz Bus Clock. */
 516:.\Generated_Source\PSoC5/cyfitter_cfg.c **** 	CY_SET_XTND_REG8((void CYFAR *)(CYREG_CACHE_CC_CTL), (((CYDEV_INSTRUCT_CACHE_ENABLED) != 0) ? 0x81
ARM GAS  C:\Users\karunmj\AppData\Local\Temp\cckaKPrh.s 			page 29


 1077              		.loc 1 516 0
 1078 019a 44F60003 		movw	r3, #:lower16:1073760256
 1079 019e C4F20003 		movt	r3, #:upper16:1073760256
 1080 01a2 6FF07E02 		mvn	r2, #126
 1081 01a6 1A70     		strb	r2, [r3, #0]
 517:.\Generated_Source\PSoC5/cyfitter_cfg.c **** 	CY_SET_XTND_REG8((void CYFAR *)(CYREG_PANTHER_WAITPIPE), 0x01u);
 1082              		.loc 1 517 0
 1083 01a8 40F20403 		movw	r3, #:lower16:1074266116
 1084 01ac C4F20803 		movt	r3, #:upper16:1074266116
 1085 01b0 4FF00102 		mov	r2, #1
 1086 01b4 1A70     		strb	r2, [r3, #0]
 518:.\Generated_Source\PSoC5/cyfitter_cfg.c **** 
 519:.\Generated_Source\PSoC5/cyfitter_cfg.c **** 	/* Perform basic analog initialization to defaults */
 520:.\Generated_Source\PSoC5/cyfitter_cfg.c **** 	AnalogSetDefault();
 1087              		.loc 1 520 0
 1088 01b6 FFF7FEFF 		bl	AnalogSetDefault
 521:.\Generated_Source\PSoC5/cyfitter_cfg.c **** 
 522:.\Generated_Source\PSoC5/cyfitter_cfg.c **** 	/* Configure alternate active mode */
 523:.\Generated_Source\PSoC5/cyfitter_cfg.c **** 	CYCONFIGCPY((void CYFAR *)CYDEV_PM_STBY_BASE, (const void CYFAR *)CYDEV_PM_ACT_BASE, 14u);
 1089              		.loc 1 523 0
 1090 01ba 44F2B030 		movw	r0, #:lower16:1073759152
 1091 01be C4F20000 		movt	r0, #:upper16:1073759152
 1092 01c2 44F2A031 		movw	r1, #:lower16:1073759136
 1093 01c6 C4F20001 		movt	r1, #:upper16:1073759136
 1094 01ca 4FF00E02 		mov	r2, #14
 1095 01ce FFF7FEFF 		bl	CYCONFIGCPY
 524:.\Generated_Source\PSoC5/cyfitter_cfg.c **** }
 1096              		.loc 1 524 0
 1097 01d2 07F10807 		add	r7, r7, #8
 1098 01d6 BD46     		mov	sp, r7
 1099 01d8 80BD     		pop	{r7, pc}
 1100              		.cfi_endproc
 1101              	.LFE11:
 1102              		.size	cyfitter_cfg, .-cyfitter_cfg
 1103 01da 00BF     		.section	.rodata
 1104              		.align	2
 1105              		.type	cfg_memset_list.2177, %object
 1106              		.size	cfg_memset_list.2177, 54
 1107              	cfg_memset_list.2177:
 1108 0028 10510040 		.word	1073762576
 1109 002c 2000     		.short	32
 1110 002e 40510040 		.4byte	1073762624
 1111 0032 3000     		.short	48
 1112 0034 C0510040 		.word	1073762752
 1113 0038 1000     		.short	16
 1114 003a F0510040 		.4byte	1073762800
 1115 003e 1000     		.short	16
 1116 0040 00000140 		.word	1073807360
 1117 0044 0010     		.short	4096
 1118 0046 00140140 		.4byte	1073812480
 1119 004a 0008     		.short	2048
 1120 004c 00400140 		.word	1073823744
 1121 0050 000A     		.short	2560
 1122 0052 004C0140 		.4byte	1073826816
 1123 0056 0002     		.short	512
 1124 0058 00500140 		.word	1073827840
 1125 005c 2000     		.short	32
ARM GAS  C:\Users\karunmj\AppData\Local\Temp\cckaKPrh.s 			page 30


 1126 005e 0000     		.text
 1127              	.Letext0: