ARM GAS  C:\Users\karunmj\AppData\Local\Temp\cccBtoqr.s 			page 1


   1              		.syntax unified
   2              		.cpu cortex-m3
   3              		.fpu softvfp
   4              		.eabi_attribute 20, 1
   5              		.eabi_attribute 21, 1
   6              		.eabi_attribute 23, 3
   7              		.eabi_attribute 24, 1
   8              		.eabi_attribute 25, 1
   9              		.eabi_attribute 26, 1
  10              		.eabi_attribute 30, 6
  11              		.eabi_attribute 18, 4
  12              		.thumb
  13              		.file	"emFile_1_MMC_HW_SPI.c"
  20 0000 82010000 		.text
  20      02006C00 
  20      00000201 
  20      FB0E0D00 
  20      01010101 
  21              	.Ltext0:
  22              		.cfi_sections	.debug_frame
  23              		.bss
  24              	emFile_1_isInited0:
  25 0000 00       		.space	1
  26              		.section	.text.emFile_1_Init,"ax",%progbits
  27              		.align	2
  28              		.thumb
  29              		.thumb_func
  30              		.type	emFile_1_Init, %function
  31              	emFile_1_Init:
  32              	.LFB29:
  33              		.file 1 ".\\Generated_Source\\PSoC5\\emFile_1_MMC_HW_SPI.c"
   1:.\Generated_Source\PSoC5/emFile_1_MMC_HW_SPI.c **** /*******************************************************************************
   2:.\Generated_Source\PSoC5/emFile_1_MMC_HW_SPI.c **** * File Name: emFile_1_MMC_HW_SPI.c
   3:.\Generated_Source\PSoC5/emFile_1_MMC_HW_SPI.c **** * Version 1.20
   4:.\Generated_Source\PSoC5/emFile_1_MMC_HW_SPI.c **** *
   5:.\Generated_Source\PSoC5/emFile_1_MMC_HW_SPI.c **** * Description:
   6:.\Generated_Source\PSoC5/emFile_1_MMC_HW_SPI.c **** *  Contains a set of File System APIs that implements SPI mode driver operation.
   7:.\Generated_Source\PSoC5/emFile_1_MMC_HW_SPI.c **** *
   8:.\Generated_Source\PSoC5/emFile_1_MMC_HW_SPI.c **** * Note:
   9:.\Generated_Source\PSoC5/emFile_1_MMC_HW_SPI.c **** *
  10:.\Generated_Source\PSoC5/emFile_1_MMC_HW_SPI.c **** ********************************************************************************
  11:.\Generated_Source\PSoC5/emFile_1_MMC_HW_SPI.c **** * Copyright 2011-2012, Cypress Semiconductor Corporation.  All rights reserved.
  12:.\Generated_Source\PSoC5/emFile_1_MMC_HW_SPI.c **** * You may use this file only in accordance with the license, terms, conditions,
  13:.\Generated_Source\PSoC5/emFile_1_MMC_HW_SPI.c **** * disclaimers, and limitations in the end user license agreement accompanying
  14:.\Generated_Source\PSoC5/emFile_1_MMC_HW_SPI.c **** * the software package with which this file was provided.
  15:.\Generated_Source\PSoC5/emFile_1_MMC_HW_SPI.c **** *******************************************************************************/
  16:.\Generated_Source\PSoC5/emFile_1_MMC_HW_SPI.c **** 
  17:.\Generated_Source\PSoC5/emFile_1_MMC_HW_SPI.c **** #include "FS.h"
  18:.\Generated_Source\PSoC5/emFile_1_MMC_HW_SPI.c **** #include "emFile_1.h"
  19:.\Generated_Source\PSoC5/emFile_1_MMC_HW_SPI.c **** #include "MMC_X_HW.h"
  20:.\Generated_Source\PSoC5/emFile_1_MMC_HW_SPI.c **** #include "device.h"
ARM GAS  C:\Users\karunmj\AppData\Local\Temp\cccBtoqr.s 			page 2


  21:.\Generated_Source\PSoC5/emFile_1_MMC_HW_SPI.c **** 
  22:.\Generated_Source\PSoC5/emFile_1_MMC_HW_SPI.c **** 
  23:.\Generated_Source\PSoC5/emFile_1_MMC_HW_SPI.c **** /*********************************************************************
  24:.\Generated_Source\PSoC5/emFile_1_MMC_HW_SPI.c **** *             Macros
  25:.\Generated_Source\PSoC5/emFile_1_MMC_HW_SPI.c **** *********************************************************************/
  26:.\Generated_Source\PSoC5/emFile_1_MMC_HW_SPI.c **** /* in mV, example means 3.3V */
  27:.\Generated_Source\PSoC5/emFile_1_MMC_HW_SPI.c **** #define emFile_1_MMC_DEFAULT_SUPPLY_VOLTAGE    (3300u)
  28:.\Generated_Source\PSoC5/emFile_1_MMC_HW_SPI.c **** 
  29:.\Generated_Source\PSoC5/emFile_1_MMC_HW_SPI.c **** /* Max. startup frequency (KHz) */
  30:.\Generated_Source\PSoC5/emFile_1_MMC_HW_SPI.c **** #define emFile_1_STARTUP_FREQ                   (400u)
  31:.\Generated_Source\PSoC5/emFile_1_MMC_HW_SPI.c **** 
  32:.\Generated_Source\PSoC5/emFile_1_MMC_HW_SPI.c **** 
  33:.\Generated_Source\PSoC5/emFile_1_MMC_HW_SPI.c **** /*********************************************************************
  34:.\Generated_Source\PSoC5/emFile_1_MMC_HW_SPI.c **** *       Static data
  35:.\Generated_Source\PSoC5/emFile_1_MMC_HW_SPI.c **** *********************************************************************/
  36:.\Generated_Source\PSoC5/emFile_1_MMC_HW_SPI.c **** 
  37:.\Generated_Source\PSoC5/emFile_1_MMC_HW_SPI.c **** static char emFile_1_isInited0;
  38:.\Generated_Source\PSoC5/emFile_1_MMC_HW_SPI.c **** 
  39:.\Generated_Source\PSoC5/emFile_1_MMC_HW_SPI.c **** #if (emFile_1_NUMBER_SD_CARDS >= 2u)
  40:.\Generated_Source\PSoC5/emFile_1_MMC_HW_SPI.c **** 
  41:.\Generated_Source\PSoC5/emFile_1_MMC_HW_SPI.c ****     static char emFile_1_isInited1;
  42:.\Generated_Source\PSoC5/emFile_1_MMC_HW_SPI.c **** 
  43:.\Generated_Source\PSoC5/emFile_1_MMC_HW_SPI.c **** #endif /* (emFile_1_NUMBER_SD_CARDS >= 2u) */
  44:.\Generated_Source\PSoC5/emFile_1_MMC_HW_SPI.c **** 
  45:.\Generated_Source\PSoC5/emFile_1_MMC_HW_SPI.c **** #if (emFile_1_NUMBER_SD_CARDS >= 3u)
  46:.\Generated_Source\PSoC5/emFile_1_MMC_HW_SPI.c **** 
  47:.\Generated_Source\PSoC5/emFile_1_MMC_HW_SPI.c ****     static char emFile_1_isInited2;
  48:.\Generated_Source\PSoC5/emFile_1_MMC_HW_SPI.c **** 
  49:.\Generated_Source\PSoC5/emFile_1_MMC_HW_SPI.c **** #endif /* (emFile_1_NUMBER_SD_CARDS >= 3u) */
  50:.\Generated_Source\PSoC5/emFile_1_MMC_HW_SPI.c **** 
  51:.\Generated_Source\PSoC5/emFile_1_MMC_HW_SPI.c **** #if (emFile_1_NUMBER_SD_CARDS == 4u)
  52:.\Generated_Source\PSoC5/emFile_1_MMC_HW_SPI.c **** 
  53:.\Generated_Source\PSoC5/emFile_1_MMC_HW_SPI.c ****     static char emFile_1_isInited3;
  54:.\Generated_Source\PSoC5/emFile_1_MMC_HW_SPI.c **** 
  55:.\Generated_Source\PSoC5/emFile_1_MMC_HW_SPI.c **** #endif /* (emFile_1_NUMBER_SD_CARDS == 4u) */
  56:.\Generated_Source\PSoC5/emFile_1_MMC_HW_SPI.c **** 
  57:.\Generated_Source\PSoC5/emFile_1_MMC_HW_SPI.c **** 
  58:.\Generated_Source\PSoC5/emFile_1_MMC_HW_SPI.c **** /*******************************************************************************
  59:.\Generated_Source\PSoC5/emFile_1_MMC_HW_SPI.c **** * Function Name: emFile_1_Init
  60:.\Generated_Source\PSoC5/emFile_1_MMC_HW_SPI.c **** ********************************************************************************
  61:.\Generated_Source\PSoC5/emFile_1_MMC_HW_SPI.c **** *
  62:.\Generated_Source\PSoC5/emFile_1_MMC_HW_SPI.c **** * Summary:
  63:.\Generated_Source\PSoC5/emFile_1_MMC_HW_SPI.c **** *  Initialize SPI Masters.
  64:.\Generated_Source\PSoC5/emFile_1_MMC_HW_SPI.c **** *
  65:.\Generated_Source\PSoC5/emFile_1_MMC_HW_SPI.c **** * Parameters:
  66:.\Generated_Source\PSoC5/emFile_1_MMC_HW_SPI.c **** *  Unit - Unit (SPIM) number.
  67:.\Generated_Source\PSoC5/emFile_1_MMC_HW_SPI.c **** *
  68:.\Generated_Source\PSoC5/emFile_1_MMC_HW_SPI.c **** * Return:
  69:.\Generated_Source\PSoC5/emFile_1_MMC_HW_SPI.c **** *  None
  70:.\Generated_Source\PSoC5/emFile_1_MMC_HW_SPI.c **** *
  71:.\Generated_Source\PSoC5/emFile_1_MMC_HW_SPI.c **** * Reentrant:
  72:.\Generated_Source\PSoC5/emFile_1_MMC_HW_SPI.c **** *  No
  73:.\Generated_Source\PSoC5/emFile_1_MMC_HW_SPI.c **** *
  74:.\Generated_Source\PSoC5/emFile_1_MMC_HW_SPI.c **** *******************************************************************************/
  75:.\Generated_Source\PSoC5/emFile_1_MMC_HW_SPI.c **** static void emFile_1_Init(U8 Unit) CYREENTRANT
  76:.\Generated_Source\PSoC5/emFile_1_MMC_HW_SPI.c **** {
  34              		.loc 1 76 0
ARM GAS  C:\Users\karunmj\AppData\Local\Temp\cccBtoqr.s 			page 3


  35              		.cfi_startproc
  36              		@ args = 0, pretend = 0, frame = 8
  37              		@ frame_needed = 1, uses_anonymous_args = 0
  38 0000 80B5     		push	{r7, lr}
  39              	.LCFI0:
  40              		.cfi_def_cfa_offset 8
  41 0002 82B0     		sub	sp, sp, #8
  42              	.LCFI1:
  43              		.cfi_def_cfa_offset 16
  44 0004 00AF     		add	r7, sp, #0
  45              		.cfi_offset 14, -4
  46              		.cfi_offset 7, -8
  47              	.LCFI2:
  48              		.cfi_def_cfa_register 7
  49 0006 0346     		mov	r3, r0
  50 0008 FB71     		strb	r3, [r7, #7]
  77:.\Generated_Source\PSoC5/emFile_1_MMC_HW_SPI.c ****     switch(Unit)
  51              		.loc 1 77 0
  52 000a FB79     		ldrb	r3, [r7, #7]	@ zero_extendqisi2
  53 000c 002B     		cmp	r3, #0
  54 000e 1AD1     		bne	.L7
  55              	.L3:
  78:.\Generated_Source\PSoC5/emFile_1_MMC_HW_SPI.c ****     {
  79:.\Generated_Source\PSoC5/emFile_1_MMC_HW_SPI.c ****     case 0u:
  80:.\Generated_Source\PSoC5/emFile_1_MMC_HW_SPI.c **** 
  81:.\Generated_Source\PSoC5/emFile_1_MMC_HW_SPI.c ****         if (emFile_1_isInited0 == 0u)
  56              		.loc 1 81 0
  57 0010 40F20003 		movw	r3, #:lower16:emFile_1_isInited0
  58 0014 C0F20003 		movt	r3, #:upper16:emFile_1_isInited0
  59 0018 1B78     		ldrb	r3, [r3, #0]	@ zero_extendqisi2
  60 001a 002B     		cmp	r3, #0
  61 001c 2ED1     		bne	.L8
  82:.\Generated_Source\PSoC5/emFile_1_MMC_HW_SPI.c ****         {
  83:.\Generated_Source\PSoC5/emFile_1_MMC_HW_SPI.c ****             /* Indicate that SPI 0 was initialized */
  84:.\Generated_Source\PSoC5/emFile_1_MMC_HW_SPI.c ****             emFile_1_isInited0 = 1u;
  62              		.loc 1 84 0
  63 001e 40F20003 		movw	r3, #:lower16:emFile_1_isInited0
  64 0022 C0F20003 		movt	r3, #:upper16:emFile_1_isInited0
  65 0026 4FF00102 		mov	r2, #1
  66 002a 1A70     		strb	r2, [r3, #0]
  85:.\Generated_Source\PSoC5/emFile_1_MMC_HW_SPI.c **** 
  86:.\Generated_Source\PSoC5/emFile_1_MMC_HW_SPI.c ****             /* Initialize SPI */
  87:.\Generated_Source\PSoC5/emFile_1_MMC_HW_SPI.c **** 
  88:.\Generated_Source\PSoC5/emFile_1_MMC_HW_SPI.c ****             /* Stop the clock to set a required divider */
  89:.\Generated_Source\PSoC5/emFile_1_MMC_HW_SPI.c ****             emFile_1_Clock_1_Stop();
  67              		.loc 1 89 0
  68 002c FFF7FEFF 		bl	emFile_1_Clock_1_Stop
  90:.\Generated_Source\PSoC5/emFile_1_MMC_HW_SPI.c **** 
  91:.\Generated_Source\PSoC5/emFile_1_MMC_HW_SPI.c ****             /* Set the inital clock frequency to 400 KHz */
  92:.\Generated_Source\PSoC5/emFile_1_MMC_HW_SPI.c ****             emFile_1_Clock_1_SetDividerValue(BCLK__BUS_CLK__KHZ/emFile_1_STARTUP_FREQ);
  69              		.loc 1 92 0
  70 0030 4FF03B00 		mov	r0, #59
  71 0034 4FF00101 		mov	r1, #1
  72 0038 FFF7FEFF 		bl	emFile_1_Clock_1_SetDividerRegister
  93:.\Generated_Source\PSoC5/emFile_1_MMC_HW_SPI.c **** 
  94:.\Generated_Source\PSoC5/emFile_1_MMC_HW_SPI.c ****             /* Start the clock */
  95:.\Generated_Source\PSoC5/emFile_1_MMC_HW_SPI.c ****             emFile_1_Clock_1_Start();
ARM GAS  C:\Users\karunmj\AppData\Local\Temp\cccBtoqr.s 			page 4


  73              		.loc 1 95 0
  74 003c FFF7FEFF 		bl	emFile_1_Clock_1_Start
  96:.\Generated_Source\PSoC5/emFile_1_MMC_HW_SPI.c **** 
  97:.\Generated_Source\PSoC5/emFile_1_MMC_HW_SPI.c ****             /* Start SPI 0 */
  98:.\Generated_Source\PSoC5/emFile_1_MMC_HW_SPI.c ****             emFile_1_SPI0_Start();
  75              		.loc 1 98 0
  76 0040 FFF7FEFF 		bl	emFile_1_SPI0_Start
  99:.\Generated_Source\PSoC5/emFile_1_MMC_HW_SPI.c ****         }
 100:.\Generated_Source\PSoC5/emFile_1_MMC_HW_SPI.c **** 
 101:.\Generated_Source\PSoC5/emFile_1_MMC_HW_SPI.c ****         break;
  77              		.loc 1 101 0
  78 0044 1BE0     		b	.L6
  79              	.L7:
 102:.\Generated_Source\PSoC5/emFile_1_MMC_HW_SPI.c **** 
 103:.\Generated_Source\PSoC5/emFile_1_MMC_HW_SPI.c ****         #if (emFile_1_NUMBER_SD_CARDS >= 2u)
 104:.\Generated_Source\PSoC5/emFile_1_MMC_HW_SPI.c **** 
 105:.\Generated_Source\PSoC5/emFile_1_MMC_HW_SPI.c ****             case 1u:
 106:.\Generated_Source\PSoC5/emFile_1_MMC_HW_SPI.c **** 
 107:.\Generated_Source\PSoC5/emFile_1_MMC_HW_SPI.c ****                 if (emFile_1_isInited1 == 0u)
 108:.\Generated_Source\PSoC5/emFile_1_MMC_HW_SPI.c ****                 {
 109:.\Generated_Source\PSoC5/emFile_1_MMC_HW_SPI.c ****                     /* Indicate that SPI 1 was initialized */
 110:.\Generated_Source\PSoC5/emFile_1_MMC_HW_SPI.c ****                     emFile_1_isInited1 = 1u;
 111:.\Generated_Source\PSoC5/emFile_1_MMC_HW_SPI.c **** 
 112:.\Generated_Source\PSoC5/emFile_1_MMC_HW_SPI.c ****                     /* Stop the clock to set a required divider */
 113:.\Generated_Source\PSoC5/emFile_1_MMC_HW_SPI.c ****                     emFile_1_Clock_2_Stop();
 114:.\Generated_Source\PSoC5/emFile_1_MMC_HW_SPI.c **** 
 115:.\Generated_Source\PSoC5/emFile_1_MMC_HW_SPI.c ****                     /* Set the inital clock frequency to 400 KHz */
 116:.\Generated_Source\PSoC5/emFile_1_MMC_HW_SPI.c ****                     emFile_1_Clock_2_SetDividerValue(BCLK__BUS_CLK__KHZ/emFile_1_STARTUP_FREQ);
 117:.\Generated_Source\PSoC5/emFile_1_MMC_HW_SPI.c **** 
 118:.\Generated_Source\PSoC5/emFile_1_MMC_HW_SPI.c ****                     /* Start the clock */
 119:.\Generated_Source\PSoC5/emFile_1_MMC_HW_SPI.c ****                     emFile_1_Clock_2_Start();
 120:.\Generated_Source\PSoC5/emFile_1_MMC_HW_SPI.c **** 
 121:.\Generated_Source\PSoC5/emFile_1_MMC_HW_SPI.c ****                     /* Start SPI 1 */
 122:.\Generated_Source\PSoC5/emFile_1_MMC_HW_SPI.c ****                     emFile_1_SPI1_Start();
 123:.\Generated_Source\PSoC5/emFile_1_MMC_HW_SPI.c ****                 }
 124:.\Generated_Source\PSoC5/emFile_1_MMC_HW_SPI.c **** 
 125:.\Generated_Source\PSoC5/emFile_1_MMC_HW_SPI.c ****                 break;
 126:.\Generated_Source\PSoC5/emFile_1_MMC_HW_SPI.c **** 
 127:.\Generated_Source\PSoC5/emFile_1_MMC_HW_SPI.c ****         #endif /* (emFile_1_NUMBER_SD_CARDS >= 2u) */
 128:.\Generated_Source\PSoC5/emFile_1_MMC_HW_SPI.c **** 
 129:.\Generated_Source\PSoC5/emFile_1_MMC_HW_SPI.c ****         #if (emFile_1_NUMBER_SD_CARDS >= 3u)
 130:.\Generated_Source\PSoC5/emFile_1_MMC_HW_SPI.c **** 
 131:.\Generated_Source\PSoC5/emFile_1_MMC_HW_SPI.c ****             case 2u:
 132:.\Generated_Source\PSoC5/emFile_1_MMC_HW_SPI.c **** 
 133:.\Generated_Source\PSoC5/emFile_1_MMC_HW_SPI.c ****                 if (emFile_1_isInited2 == 0u)
 134:.\Generated_Source\PSoC5/emFile_1_MMC_HW_SPI.c ****                 {
 135:.\Generated_Source\PSoC5/emFile_1_MMC_HW_SPI.c ****                     /* Indicate that SPI 2 was initialized */
 136:.\Generated_Source\PSoC5/emFile_1_MMC_HW_SPI.c ****                     emFile_1_isInited2 = 1u;
 137:.\Generated_Source\PSoC5/emFile_1_MMC_HW_SPI.c **** 
 138:.\Generated_Source\PSoC5/emFile_1_MMC_HW_SPI.c ****                     /* Stop the clock to set a required divider */
 139:.\Generated_Source\PSoC5/emFile_1_MMC_HW_SPI.c ****                     emFile_1_Clock_3_Stop();
 140:.\Generated_Source\PSoC5/emFile_1_MMC_HW_SPI.c **** 
 141:.\Generated_Source\PSoC5/emFile_1_MMC_HW_SPI.c ****                     /* Set the inital clock frequency to 400 KHz */
 142:.\Generated_Source\PSoC5/emFile_1_MMC_HW_SPI.c ****                     emFile_1_Clock_3_SetDividerValue(BCLK__BUS_CLK__KHZ/emFile_1_STARTUP_FREQ);
 143:.\Generated_Source\PSoC5/emFile_1_MMC_HW_SPI.c **** 
 144:.\Generated_Source\PSoC5/emFile_1_MMC_HW_SPI.c ****                     /* Start the clock */
 145:.\Generated_Source\PSoC5/emFile_1_MMC_HW_SPI.c ****                     emFile_1_Clock_3_Start();
ARM GAS  C:\Users\karunmj\AppData\Local\Temp\cccBtoqr.s 			page 5


 146:.\Generated_Source\PSoC5/emFile_1_MMC_HW_SPI.c **** 
 147:.\Generated_Source\PSoC5/emFile_1_MMC_HW_SPI.c ****                     /* Start SPI 2 */
 148:.\Generated_Source\PSoC5/emFile_1_MMC_HW_SPI.c ****                     emFile_1_SPI2_Start();
 149:.\Generated_Source\PSoC5/emFile_1_MMC_HW_SPI.c ****                 }
 150:.\Generated_Source\PSoC5/emFile_1_MMC_HW_SPI.c **** 
 151:.\Generated_Source\PSoC5/emFile_1_MMC_HW_SPI.c ****                 break;
 152:.\Generated_Source\PSoC5/emFile_1_MMC_HW_SPI.c **** 
 153:.\Generated_Source\PSoC5/emFile_1_MMC_HW_SPI.c ****         #endif /* (emFile_1_NUMBER_SD_CARDS >= 3u) */
 154:.\Generated_Source\PSoC5/emFile_1_MMC_HW_SPI.c **** 
 155:.\Generated_Source\PSoC5/emFile_1_MMC_HW_SPI.c ****         #if (emFile_1_NUMBER_SD_CARDS == 4u)
 156:.\Generated_Source\PSoC5/emFile_1_MMC_HW_SPI.c **** 
 157:.\Generated_Source\PSoC5/emFile_1_MMC_HW_SPI.c ****             case 3u:
 158:.\Generated_Source\PSoC5/emFile_1_MMC_HW_SPI.c **** 
 159:.\Generated_Source\PSoC5/emFile_1_MMC_HW_SPI.c ****                 if (emFile_1_isInited3 == 0u)
 160:.\Generated_Source\PSoC5/emFile_1_MMC_HW_SPI.c ****                 {
 161:.\Generated_Source\PSoC5/emFile_1_MMC_HW_SPI.c ****                     /* Indicate that SPI 3 was initialized */
 162:.\Generated_Source\PSoC5/emFile_1_MMC_HW_SPI.c ****                     emFile_1_isInited3 = 1u;
 163:.\Generated_Source\PSoC5/emFile_1_MMC_HW_SPI.c **** 
 164:.\Generated_Source\PSoC5/emFile_1_MMC_HW_SPI.c ****                     /* Stop the clock to set a required divider */
 165:.\Generated_Source\PSoC5/emFile_1_MMC_HW_SPI.c ****                     emFile_1_Clock_4_Stop();
 166:.\Generated_Source\PSoC5/emFile_1_MMC_HW_SPI.c **** 
 167:.\Generated_Source\PSoC5/emFile_1_MMC_HW_SPI.c ****                     /* Set the inital clock frequency to 400 KHz */
 168:.\Generated_Source\PSoC5/emFile_1_MMC_HW_SPI.c ****                     emFile_1_Clock_4_SetDividerValue(BCLK__BUS_CLK__KHZ/emFile_1_STARTUP_FREQ);
 169:.\Generated_Source\PSoC5/emFile_1_MMC_HW_SPI.c **** 
 170:.\Generated_Source\PSoC5/emFile_1_MMC_HW_SPI.c ****                     /* Start the clock */
 171:.\Generated_Source\PSoC5/emFile_1_MMC_HW_SPI.c ****                     emFile_1_Clock_4_Start();
 172:.\Generated_Source\PSoC5/emFile_1_MMC_HW_SPI.c **** 
 173:.\Generated_Source\PSoC5/emFile_1_MMC_HW_SPI.c ****                     /* Start SPI 3 */
 174:.\Generated_Source\PSoC5/emFile_1_MMC_HW_SPI.c ****                     emFile_1_SPI3_Start();
 175:.\Generated_Source\PSoC5/emFile_1_MMC_HW_SPI.c ****                 }
 176:.\Generated_Source\PSoC5/emFile_1_MMC_HW_SPI.c **** 
 177:.\Generated_Source\PSoC5/emFile_1_MMC_HW_SPI.c ****                 break;
 178:.\Generated_Source\PSoC5/emFile_1_MMC_HW_SPI.c **** 
 179:.\Generated_Source\PSoC5/emFile_1_MMC_HW_SPI.c ****         #endif /* (emFile_1_NUMBER_SD_CARDS == 4u) */
 180:.\Generated_Source\PSoC5/emFile_1_MMC_HW_SPI.c **** 
 181:.\Generated_Source\PSoC5/emFile_1_MMC_HW_SPI.c ****     default:
 182:.\Generated_Source\PSoC5/emFile_1_MMC_HW_SPI.c **** 
 183:.\Generated_Source\PSoC5/emFile_1_MMC_HW_SPI.c ****         if (emFile_1_isInited0 == 0u)
  80              		.loc 1 183 0
  81 0046 40F20003 		movw	r3, #:lower16:emFile_1_isInited0
  82 004a C0F20003 		movt	r3, #:upper16:emFile_1_isInited0
  83 004e 1B78     		ldrb	r3, [r3, #0]	@ zero_extendqisi2
  84 0050 002B     		cmp	r3, #0
  85 0052 14D1     		bne	.L6
 184:.\Generated_Source\PSoC5/emFile_1_MMC_HW_SPI.c ****         {
 185:.\Generated_Source\PSoC5/emFile_1_MMC_HW_SPI.c ****             /* Indicate that SPI 0 was initialized */
 186:.\Generated_Source\PSoC5/emFile_1_MMC_HW_SPI.c ****             emFile_1_isInited0 = 1u;
  86              		.loc 1 186 0
  87 0054 40F20003 		movw	r3, #:lower16:emFile_1_isInited0
  88 0058 C0F20003 		movt	r3, #:upper16:emFile_1_isInited0
  89 005c 4FF00102 		mov	r2, #1
  90 0060 1A70     		strb	r2, [r3, #0]
 187:.\Generated_Source\PSoC5/emFile_1_MMC_HW_SPI.c **** 
 188:.\Generated_Source\PSoC5/emFile_1_MMC_HW_SPI.c ****             /* Stop the clock to set a required divider */
 189:.\Generated_Source\PSoC5/emFile_1_MMC_HW_SPI.c ****             emFile_1_Clock_1_Stop();
  91              		.loc 1 189 0
  92 0062 FFF7FEFF 		bl	emFile_1_Clock_1_Stop
ARM GAS  C:\Users\karunmj\AppData\Local\Temp\cccBtoqr.s 			page 6


 190:.\Generated_Source\PSoC5/emFile_1_MMC_HW_SPI.c **** 
 191:.\Generated_Source\PSoC5/emFile_1_MMC_HW_SPI.c ****             /* Set the inital clock frequency to 400 KHz */
 192:.\Generated_Source\PSoC5/emFile_1_MMC_HW_SPI.c ****             emFile_1_Clock_1_SetDividerValue(BCLK__BUS_CLK__KHZ/emFile_1_STARTUP_FREQ);
  93              		.loc 1 192 0
  94 0066 4FF03B00 		mov	r0, #59
  95 006a 4FF00101 		mov	r1, #1
  96 006e FFF7FEFF 		bl	emFile_1_Clock_1_SetDividerRegister
 193:.\Generated_Source\PSoC5/emFile_1_MMC_HW_SPI.c **** 
 194:.\Generated_Source\PSoC5/emFile_1_MMC_HW_SPI.c ****             /* Start the clock */
 195:.\Generated_Source\PSoC5/emFile_1_MMC_HW_SPI.c ****             emFile_1_Clock_1_Start();
  97              		.loc 1 195 0
  98 0072 FFF7FEFF 		bl	emFile_1_Clock_1_Start
 196:.\Generated_Source\PSoC5/emFile_1_MMC_HW_SPI.c **** 
 197:.\Generated_Source\PSoC5/emFile_1_MMC_HW_SPI.c ****             /* Start SPI 0 */
 198:.\Generated_Source\PSoC5/emFile_1_MMC_HW_SPI.c ****             emFile_1_SPI0_Start();
  99              		.loc 1 198 0
 100 0076 FFF7FEFF 		bl	emFile_1_SPI0_Start
 101 007a 00E0     		b	.L6
 102              	.L8:
 103              		.loc 1 101 0
 104 007c 00BF     		nop
 105              	.L6:
 199:.\Generated_Source\PSoC5/emFile_1_MMC_HW_SPI.c ****         }
 200:.\Generated_Source\PSoC5/emFile_1_MMC_HW_SPI.c ****         
 201:.\Generated_Source\PSoC5/emFile_1_MMC_HW_SPI.c ****         break;
 202:.\Generated_Source\PSoC5/emFile_1_MMC_HW_SPI.c ****       }
 203:.\Generated_Source\PSoC5/emFile_1_MMC_HW_SPI.c **** }
 106              		.loc 1 203 0
 107 007e 07F10807 		add	r7, r7, #8
 108 0082 BD46     		mov	sp, r7
 109 0084 80BD     		pop	{r7, pc}
 110              		.cfi_endproc
 111              	.LFE29:
 112              		.size	emFile_1_Init, .-emFile_1_Init
 113 0086 00BF     		.section	.text.emFile_1_ReadWriteSPI,"ax",%progbits
 114              		.align	2
 115              		.thumb
 116              		.thumb_func
 117              		.type	emFile_1_ReadWriteSPI, %function
 118              	emFile_1_ReadWriteSPI:
 119              	.LFB30:
 204:.\Generated_Source\PSoC5/emFile_1_MMC_HW_SPI.c **** 
 205:.\Generated_Source\PSoC5/emFile_1_MMC_HW_SPI.c **** 
 206:.\Generated_Source\PSoC5/emFile_1_MMC_HW_SPI.c **** /*******************************************************************************
 207:.\Generated_Source\PSoC5/emFile_1_MMC_HW_SPI.c **** * Function Name: emFile_1_ReadWriteSPI
 208:.\Generated_Source\PSoC5/emFile_1_MMC_HW_SPI.c **** ********************************************************************************
 209:.\Generated_Source\PSoC5/emFile_1_MMC_HW_SPI.c **** *
 210:.\Generated_Source\PSoC5/emFile_1_MMC_HW_SPI.c **** * Summary:
 211:.\Generated_Source\PSoC5/emFile_1_MMC_HW_SPI.c **** *  Reads and Writes data via SPI.
 212:.\Generated_Source\PSoC5/emFile_1_MMC_HW_SPI.c **** *
 213:.\Generated_Source\PSoC5/emFile_1_MMC_HW_SPI.c **** * Parameters:
 214:.\Generated_Source\PSoC5/emFile_1_MMC_HW_SPI.c **** *  Unit - Unit number;
 215:.\Generated_Source\PSoC5/emFile_1_MMC_HW_SPI.c **** *  Data - data to be written.
 216:.\Generated_Source\PSoC5/emFile_1_MMC_HW_SPI.c **** *
 217:.\Generated_Source\PSoC5/emFile_1_MMC_HW_SPI.c **** * Return:
 218:.\Generated_Source\PSoC5/emFile_1_MMC_HW_SPI.c **** *  Data received from SD card.
 219:.\Generated_Source\PSoC5/emFile_1_MMC_HW_SPI.c **** *
ARM GAS  C:\Users\karunmj\AppData\Local\Temp\cccBtoqr.s 			page 7


 220:.\Generated_Source\PSoC5/emFile_1_MMC_HW_SPI.c **** * Reentrant:
 221:.\Generated_Source\PSoC5/emFile_1_MMC_HW_SPI.c **** *  No
 222:.\Generated_Source\PSoC5/emFile_1_MMC_HW_SPI.c **** *
 223:.\Generated_Source\PSoC5/emFile_1_MMC_HW_SPI.c **** *******************************************************************************/
 224:.\Generated_Source\PSoC5/emFile_1_MMC_HW_SPI.c **** static U8 emFile_1_ReadWriteSPI(U8 Unit, U8 Data) CYREENTRANT
 225:.\Generated_Source\PSoC5/emFile_1_MMC_HW_SPI.c **** {
 120              		.loc 1 225 0
 121              		.cfi_startproc
 122              		@ args = 0, pretend = 0, frame = 16
 123              		@ frame_needed = 1, uses_anonymous_args = 0
 124 0000 80B5     		push	{r7, lr}
 125              	.LCFI3:
 126              		.cfi_def_cfa_offset 8
 127 0002 84B0     		sub	sp, sp, #16
 128              	.LCFI4:
 129              		.cfi_def_cfa_offset 24
 130 0004 00AF     		add	r7, sp, #0
 131              		.cfi_offset 14, -4
 132              		.cfi_offset 7, -8
 133              	.LCFI5:
 134              		.cfi_def_cfa_register 7
 135 0006 0246     		mov	r2, r0
 136 0008 0B46     		mov	r3, r1
 137 000a FA71     		strb	r2, [r7, #7]
 138 000c BB71     		strb	r3, [r7, #6]
 226:.\Generated_Source\PSoC5/emFile_1_MMC_HW_SPI.c ****     U8 spiData;
 227:.\Generated_Source\PSoC5/emFile_1_MMC_HW_SPI.c **** 
 228:.\Generated_Source\PSoC5/emFile_1_MMC_HW_SPI.c ****     switch(Unit)
 139              		.loc 1 228 0
 140 000e FB79     		ldrb	r3, [r7, #7]	@ zero_extendqisi2
 141 0010 002B     		cmp	r3, #0
 142 0012 0FD1     		bne	.L16
 143              	.L11:
 229:.\Generated_Source\PSoC5/emFile_1_MMC_HW_SPI.c ****     {
 230:.\Generated_Source\PSoC5/emFile_1_MMC_HW_SPI.c ****     case 0u:
 231:.\Generated_Source\PSoC5/emFile_1_MMC_HW_SPI.c **** 
 232:.\Generated_Source\PSoC5/emFile_1_MMC_HW_SPI.c ****         /* Send Data */
 233:.\Generated_Source\PSoC5/emFile_1_MMC_HW_SPI.c ****         emFile_1_SPI0_WriteTxData(Data);
 144              		.loc 1 233 0
 145 0014 BB79     		ldrb	r3, [r7, #6]	@ zero_extendqisi2
 146 0016 1846     		mov	r0, r3
 147 0018 FFF7FEFF 		bl	emFile_1_SPI0_WriteTxData
 148              	.L12:
 234:.\Generated_Source\PSoC5/emFile_1_MMC_HW_SPI.c **** 
 235:.\Generated_Source\PSoC5/emFile_1_MMC_HW_SPI.c ****         /* Wait until all bits are shifted */
 236:.\Generated_Source\PSoC5/emFile_1_MMC_HW_SPI.c ****         while (0u == (emFile_1_SPI0_STS_SPI_DONE & emFile_1_SPI0_ReadTxStatus()));
 149              		.loc 1 236 0
 150 001c FFF7FEFF 		bl	emFile_1_SPI0_ReadTxStatus
 151 0020 0346     		mov	r3, r0
 152 0022 03F00103 		and	r3, r3, #1
 153 0026 002B     		cmp	r3, #0
 154 0028 F8D0     		beq	.L12
 237:.\Generated_Source\PSoC5/emFile_1_MMC_HW_SPI.c **** 
 238:.\Generated_Source\PSoC5/emFile_1_MMC_HW_SPI.c ****         /* Read data */
 239:.\Generated_Source\PSoC5/emFile_1_MMC_HW_SPI.c ****         spiData = emFile_1_SPI0_ReadRxData();
 155              		.loc 1 239 0
 156 002a FFF7FEFF 		bl	emFile_1_SPI0_ReadRxData
ARM GAS  C:\Users\karunmj\AppData\Local\Temp\cccBtoqr.s 			page 8


 157 002e 0346     		mov	r3, r0
 158 0030 FB73     		strb	r3, [r7, #15]
 240:.\Generated_Source\PSoC5/emFile_1_MMC_HW_SPI.c **** 
 241:.\Generated_Source\PSoC5/emFile_1_MMC_HW_SPI.c ****         break;
 159              		.loc 1 241 0
 160 0032 0EE0     		b	.L13
 161              	.L16:
 242:.\Generated_Source\PSoC5/emFile_1_MMC_HW_SPI.c **** 
 243:.\Generated_Source\PSoC5/emFile_1_MMC_HW_SPI.c ****     #if (emFile_1_NUMBER_SD_CARDS >= 2u)
 244:.\Generated_Source\PSoC5/emFile_1_MMC_HW_SPI.c **** 
 245:.\Generated_Source\PSoC5/emFile_1_MMC_HW_SPI.c ****         case 1u:
 246:.\Generated_Source\PSoC5/emFile_1_MMC_HW_SPI.c **** 
 247:.\Generated_Source\PSoC5/emFile_1_MMC_HW_SPI.c ****             /* Send Data */
 248:.\Generated_Source\PSoC5/emFile_1_MMC_HW_SPI.c ****             emFile_1_SPI1_WriteTxData(Data);
 249:.\Generated_Source\PSoC5/emFile_1_MMC_HW_SPI.c **** 
 250:.\Generated_Source\PSoC5/emFile_1_MMC_HW_SPI.c ****             /* Wait until all bits are shifted */
 251:.\Generated_Source\PSoC5/emFile_1_MMC_HW_SPI.c ****             while (0u == (emFile_1_SPI1_STS_SPI_DONE & emFile_1_SPI1_ReadTxStatus()));
 252:.\Generated_Source\PSoC5/emFile_1_MMC_HW_SPI.c **** 
 253:.\Generated_Source\PSoC5/emFile_1_MMC_HW_SPI.c ****             /* Read data */
 254:.\Generated_Source\PSoC5/emFile_1_MMC_HW_SPI.c ****             spiData = emFile_1_SPI1_ReadRxData();
 255:.\Generated_Source\PSoC5/emFile_1_MMC_HW_SPI.c **** 
 256:.\Generated_Source\PSoC5/emFile_1_MMC_HW_SPI.c ****             break;
 257:.\Generated_Source\PSoC5/emFile_1_MMC_HW_SPI.c **** 
 258:.\Generated_Source\PSoC5/emFile_1_MMC_HW_SPI.c ****     #endif /* (emFile_1_NUMBER_SD_CARDS >= 2u) */
 259:.\Generated_Source\PSoC5/emFile_1_MMC_HW_SPI.c **** 
 260:.\Generated_Source\PSoC5/emFile_1_MMC_HW_SPI.c ****     #if (emFile_1_NUMBER_SD_CARDS >= 3u)
 261:.\Generated_Source\PSoC5/emFile_1_MMC_HW_SPI.c **** 
 262:.\Generated_Source\PSoC5/emFile_1_MMC_HW_SPI.c ****         case 2u:
 263:.\Generated_Source\PSoC5/emFile_1_MMC_HW_SPI.c **** 
 264:.\Generated_Source\PSoC5/emFile_1_MMC_HW_SPI.c ****             /* Send Data */
 265:.\Generated_Source\PSoC5/emFile_1_MMC_HW_SPI.c ****             emFile_1_SPI2_WriteTxData(Data);
 266:.\Generated_Source\PSoC5/emFile_1_MMC_HW_SPI.c **** 
 267:.\Generated_Source\PSoC5/emFile_1_MMC_HW_SPI.c ****             /* Wait until all bits are shifted */
 268:.\Generated_Source\PSoC5/emFile_1_MMC_HW_SPI.c ****             while (0u == (emFile_1_SPI2_STS_SPI_DONE & emFile_1_SPI2_ReadTxStatus()));
 269:.\Generated_Source\PSoC5/emFile_1_MMC_HW_SPI.c **** 
 270:.\Generated_Source\PSoC5/emFile_1_MMC_HW_SPI.c ****             /* Read data */
 271:.\Generated_Source\PSoC5/emFile_1_MMC_HW_SPI.c ****             spiData = emFile_1_SPI2_ReadRxData();
 272:.\Generated_Source\PSoC5/emFile_1_MMC_HW_SPI.c **** 
 273:.\Generated_Source\PSoC5/emFile_1_MMC_HW_SPI.c ****             break;
 274:.\Generated_Source\PSoC5/emFile_1_MMC_HW_SPI.c **** 
 275:.\Generated_Source\PSoC5/emFile_1_MMC_HW_SPI.c ****     #endif /* (emFile_1_NUMBER_SD_CARDS >= 2u) */
 276:.\Generated_Source\PSoC5/emFile_1_MMC_HW_SPI.c **** 
 277:.\Generated_Source\PSoC5/emFile_1_MMC_HW_SPI.c ****     #if (emFile_1_NUMBER_SD_CARDS >= 4u)
 278:.\Generated_Source\PSoC5/emFile_1_MMC_HW_SPI.c **** 
 279:.\Generated_Source\PSoC5/emFile_1_MMC_HW_SPI.c ****         case 3u:
 280:.\Generated_Source\PSoC5/emFile_1_MMC_HW_SPI.c **** 
 281:.\Generated_Source\PSoC5/emFile_1_MMC_HW_SPI.c ****             /* Send Data */
 282:.\Generated_Source\PSoC5/emFile_1_MMC_HW_SPI.c ****             emFile_1_SPI3_WriteTxData(Data);
 283:.\Generated_Source\PSoC5/emFile_1_MMC_HW_SPI.c **** 
 284:.\Generated_Source\PSoC5/emFile_1_MMC_HW_SPI.c ****             /* Wait until all bits are shifted */
 285:.\Generated_Source\PSoC5/emFile_1_MMC_HW_SPI.c ****             while (0u == (emFile_1_SPI3_STS_SPI_DONE & emFile_1_SPI3_ReadTxStatus()));
 286:.\Generated_Source\PSoC5/emFile_1_MMC_HW_SPI.c **** 
 287:.\Generated_Source\PSoC5/emFile_1_MMC_HW_SPI.c ****             /* Read data */
 288:.\Generated_Source\PSoC5/emFile_1_MMC_HW_SPI.c ****             spiData = emFile_1_SPI3_ReadRxData();
 289:.\Generated_Source\PSoC5/emFile_1_MMC_HW_SPI.c **** 
 290:.\Generated_Source\PSoC5/emFile_1_MMC_HW_SPI.c ****             break;
 291:.\Generated_Source\PSoC5/emFile_1_MMC_HW_SPI.c **** 
ARM GAS  C:\Users\karunmj\AppData\Local\Temp\cccBtoqr.s 			page 9


 292:.\Generated_Source\PSoC5/emFile_1_MMC_HW_SPI.c ****     #endif /* (emFile_1_NUMBER_SD_CARDS >= 4u) */
 293:.\Generated_Source\PSoC5/emFile_1_MMC_HW_SPI.c **** 
 294:.\Generated_Source\PSoC5/emFile_1_MMC_HW_SPI.c ****     default:
 295:.\Generated_Source\PSoC5/emFile_1_MMC_HW_SPI.c **** 
 296:.\Generated_Source\PSoC5/emFile_1_MMC_HW_SPI.c ****         /* Send Data */
 297:.\Generated_Source\PSoC5/emFile_1_MMC_HW_SPI.c ****         emFile_1_SPI0_WriteTxData(Data);
 162              		.loc 1 297 0
 163 0034 BB79     		ldrb	r3, [r7, #6]	@ zero_extendqisi2
 164 0036 1846     		mov	r0, r3
 165 0038 FFF7FEFF 		bl	emFile_1_SPI0_WriteTxData
 166              	.L14:
 298:.\Generated_Source\PSoC5/emFile_1_MMC_HW_SPI.c **** 
 299:.\Generated_Source\PSoC5/emFile_1_MMC_HW_SPI.c ****         /* Wait until all bits are shifted */
 300:.\Generated_Source\PSoC5/emFile_1_MMC_HW_SPI.c ****         while (0u == (emFile_1_SPI0_STS_SPI_DONE & emFile_1_SPI0_ReadTxStatus()));
 167              		.loc 1 300 0
 168 003c FFF7FEFF 		bl	emFile_1_SPI0_ReadTxStatus
 169 0040 0346     		mov	r3, r0
 170 0042 03F00103 		and	r3, r3, #1
 171 0046 002B     		cmp	r3, #0
 172 0048 F8D0     		beq	.L14
 301:.\Generated_Source\PSoC5/emFile_1_MMC_HW_SPI.c **** 
 302:.\Generated_Source\PSoC5/emFile_1_MMC_HW_SPI.c ****         /* Read data */
 303:.\Generated_Source\PSoC5/emFile_1_MMC_HW_SPI.c ****         spiData = emFile_1_SPI0_ReadRxData();
 173              		.loc 1 303 0
 174 004a FFF7FEFF 		bl	emFile_1_SPI0_ReadRxData
 175 004e 0346     		mov	r3, r0
 176 0050 FB73     		strb	r3, [r7, #15]
 177              	.L13:
 304:.\Generated_Source\PSoC5/emFile_1_MMC_HW_SPI.c ****         
 305:.\Generated_Source\PSoC5/emFile_1_MMC_HW_SPI.c ****         break;
 306:.\Generated_Source\PSoC5/emFile_1_MMC_HW_SPI.c ****     }
 307:.\Generated_Source\PSoC5/emFile_1_MMC_HW_SPI.c **** 
 308:.\Generated_Source\PSoC5/emFile_1_MMC_HW_SPI.c ****     return(spiData);
 178              		.loc 1 308 0
 179 0052 FB7B     		ldrb	r3, [r7, #15]	@ zero_extendqisi2
 309:.\Generated_Source\PSoC5/emFile_1_MMC_HW_SPI.c **** }
 180              		.loc 1 309 0
 181 0054 1846     		mov	r0, r3
 182 0056 07F11007 		add	r7, r7, #16
 183 005a BD46     		mov	sp, r7
 184 005c 80BD     		pop	{r7, pc}
 185              		.cfi_endproc
 186              	.LFE30:
 187              		.size	emFile_1_ReadWriteSPI, .-emFile_1_ReadWriteSPI
 188 005e 00BF     		.section	.text.FS_MMC_HW_X_EnableCS,"ax",%progbits
 189              		.align	2
 190              		.global	FS_MMC_HW_X_EnableCS
 191              		.thumb
 192              		.thumb_func
 193              		.type	FS_MMC_HW_X_EnableCS, %function
 194              	FS_MMC_HW_X_EnableCS:
 195              	.LFB31:
 310:.\Generated_Source\PSoC5/emFile_1_MMC_HW_SPI.c **** 
 311:.\Generated_Source\PSoC5/emFile_1_MMC_HW_SPI.c **** /*******************************************************************************
 312:.\Generated_Source\PSoC5/emFile_1_MMC_HW_SPI.c **** * Function Name: FS_MMC_HW_X_EnableCS
 313:.\Generated_Source\PSoC5/emFile_1_MMC_HW_SPI.c **** ********************************************************************************
 314:.\Generated_Source\PSoC5/emFile_1_MMC_HW_SPI.c **** *
ARM GAS  C:\Users\karunmj\AppData\Local\Temp\cccBtoqr.s 			page 10


 315:.\Generated_Source\PSoC5/emFile_1_MMC_HW_SPI.c **** * Summary:
 316:.\Generated_Source\PSoC5/emFile_1_MMC_HW_SPI.c **** *  FS low level function. Sets the card slot active using the
 317:.\Generated_Source\PSoC5/emFile_1_MMC_HW_SPI.c **** *  chip select (CS) line.
 318:.\Generated_Source\PSoC5/emFile_1_MMC_HW_SPI.c **** *
 319:.\Generated_Source\PSoC5/emFile_1_MMC_HW_SPI.c **** * Parameters:
 320:.\Generated_Source\PSoC5/emFile_1_MMC_HW_SPI.c **** *  Unit      - Device Index.
 321:.\Generated_Source\PSoC5/emFile_1_MMC_HW_SPI.c **** *
 322:.\Generated_Source\PSoC5/emFile_1_MMC_HW_SPI.c **** * Return:
 323:.\Generated_Source\PSoC5/emFile_1_MMC_HW_SPI.c **** *  None
 324:.\Generated_Source\PSoC5/emFile_1_MMC_HW_SPI.c **** *
 325:.\Generated_Source\PSoC5/emFile_1_MMC_HW_SPI.c **** * Reentrant:
 326:.\Generated_Source\PSoC5/emFile_1_MMC_HW_SPI.c **** *  No
 327:.\Generated_Source\PSoC5/emFile_1_MMC_HW_SPI.c **** *
 328:.\Generated_Source\PSoC5/emFile_1_MMC_HW_SPI.c **** *******************************************************************************/
 329:.\Generated_Source\PSoC5/emFile_1_MMC_HW_SPI.c **** void FS_MMC_HW_X_EnableCS(U8 Unit)
 330:.\Generated_Source\PSoC5/emFile_1_MMC_HW_SPI.c **** {
 196              		.loc 1 330 0
 197              		.cfi_startproc
 198              		@ args = 0, pretend = 0, frame = 8
 199              		@ frame_needed = 1, uses_anonymous_args = 0
 200 0000 80B5     		push	{r7, lr}
 201              	.LCFI6:
 202              		.cfi_def_cfa_offset 8
 203 0002 82B0     		sub	sp, sp, #8
 204              	.LCFI7:
 205              		.cfi_def_cfa_offset 16
 206 0004 00AF     		add	r7, sp, #0
 207              		.cfi_offset 14, -4
 208              		.cfi_offset 7, -8
 209              	.LCFI8:
 210              		.cfi_def_cfa_register 7
 211 0006 0346     		mov	r3, r0
 212 0008 FB71     		strb	r3, [r7, #7]
 331:.\Generated_Source\PSoC5/emFile_1_MMC_HW_SPI.c ****     switch(Unit)
 213              		.loc 1 331 0
 214 000a FB79     		ldrb	r3, [r7, #7]	@ zero_extendqisi2
 215 000c 002B     		cmp	r3, #0
 216 000e 04D1     		bne	.L22
 217              	.L19:
 332:.\Generated_Source\PSoC5/emFile_1_MMC_HW_SPI.c ****     {
 333:.\Generated_Source\PSoC5/emFile_1_MMC_HW_SPI.c ****         case 0u:
 334:.\Generated_Source\PSoC5/emFile_1_MMC_HW_SPI.c **** 
 335:.\Generated_Source\PSoC5/emFile_1_MMC_HW_SPI.c ****             /* Set CS to 0 */
 336:.\Generated_Source\PSoC5/emFile_1_MMC_HW_SPI.c ****             emFile_1_SPI0_CS_Write(0u);
 218              		.loc 1 336 0
 219 0010 4FF00000 		mov	r0, #0
 220 0014 FFF7FEFF 		bl	emFile_1_SPI0_CS_Write
 337:.\Generated_Source\PSoC5/emFile_1_MMC_HW_SPI.c **** 
 338:.\Generated_Source\PSoC5/emFile_1_MMC_HW_SPI.c ****             break;
 221              		.loc 1 338 0
 222 0018 03E0     		b	.L21
 223              	.L22:
 339:.\Generated_Source\PSoC5/emFile_1_MMC_HW_SPI.c **** 
 340:.\Generated_Source\PSoC5/emFile_1_MMC_HW_SPI.c ****         #if (emFile_1_NUMBER_SD_CARDS >= 2u)
 341:.\Generated_Source\PSoC5/emFile_1_MMC_HW_SPI.c **** 
 342:.\Generated_Source\PSoC5/emFile_1_MMC_HW_SPI.c ****             case 1u:
 343:.\Generated_Source\PSoC5/emFile_1_MMC_HW_SPI.c **** 
ARM GAS  C:\Users\karunmj\AppData\Local\Temp\cccBtoqr.s 			page 11


 344:.\Generated_Source\PSoC5/emFile_1_MMC_HW_SPI.c ****                 /* Set CS to 0 */
 345:.\Generated_Source\PSoC5/emFile_1_MMC_HW_SPI.c ****                 emFile_1_SPI1_CS_Write(0u);
 346:.\Generated_Source\PSoC5/emFile_1_MMC_HW_SPI.c **** 
 347:.\Generated_Source\PSoC5/emFile_1_MMC_HW_SPI.c ****                 break;
 348:.\Generated_Source\PSoC5/emFile_1_MMC_HW_SPI.c **** 
 349:.\Generated_Source\PSoC5/emFile_1_MMC_HW_SPI.c ****         #endif /* (emFile_1_NUMBER_SD_CARDS >= 2u) */
 350:.\Generated_Source\PSoC5/emFile_1_MMC_HW_SPI.c **** 
 351:.\Generated_Source\PSoC5/emFile_1_MMC_HW_SPI.c ****         #if (emFile_1_NUMBER_SD_CARDS >= 3u)
 352:.\Generated_Source\PSoC5/emFile_1_MMC_HW_SPI.c **** 
 353:.\Generated_Source\PSoC5/emFile_1_MMC_HW_SPI.c ****             case 2u:
 354:.\Generated_Source\PSoC5/emFile_1_MMC_HW_SPI.c **** 
 355:.\Generated_Source\PSoC5/emFile_1_MMC_HW_SPI.c ****                 /* Set CS to 0 */
 356:.\Generated_Source\PSoC5/emFile_1_MMC_HW_SPI.c ****                 emFile_1_SPI2_CS_Write(0u);
 357:.\Generated_Source\PSoC5/emFile_1_MMC_HW_SPI.c **** 
 358:.\Generated_Source\PSoC5/emFile_1_MMC_HW_SPI.c ****                 break;
 359:.\Generated_Source\PSoC5/emFile_1_MMC_HW_SPI.c **** 
 360:.\Generated_Source\PSoC5/emFile_1_MMC_HW_SPI.c ****         #endif /* (emFile_1_NUMBER_SD_CARDS >= 3u) */
 361:.\Generated_Source\PSoC5/emFile_1_MMC_HW_SPI.c **** 
 362:.\Generated_Source\PSoC5/emFile_1_MMC_HW_SPI.c ****         #if (emFile_1_NUMBER_SD_CARDS == 4u)
 363:.\Generated_Source\PSoC5/emFile_1_MMC_HW_SPI.c **** 
 364:.\Generated_Source\PSoC5/emFile_1_MMC_HW_SPI.c ****             case 3u:
 365:.\Generated_Source\PSoC5/emFile_1_MMC_HW_SPI.c **** 
 366:.\Generated_Source\PSoC5/emFile_1_MMC_HW_SPI.c ****                 /* Set CS to 0 */
 367:.\Generated_Source\PSoC5/emFile_1_MMC_HW_SPI.c ****                 emFile_1_SPI3_CS_Write(0u);
 368:.\Generated_Source\PSoC5/emFile_1_MMC_HW_SPI.c **** 
 369:.\Generated_Source\PSoC5/emFile_1_MMC_HW_SPI.c ****                 break;
 370:.\Generated_Source\PSoC5/emFile_1_MMC_HW_SPI.c **** 
 371:.\Generated_Source\PSoC5/emFile_1_MMC_HW_SPI.c ****         #endif /* (emFile_1_NUMBER_SD_CARDS == 4u) */
 372:.\Generated_Source\PSoC5/emFile_1_MMC_HW_SPI.c **** 
 373:.\Generated_Source\PSoC5/emFile_1_MMC_HW_SPI.c ****         default:
 374:.\Generated_Source\PSoC5/emFile_1_MMC_HW_SPI.c **** 
 375:.\Generated_Source\PSoC5/emFile_1_MMC_HW_SPI.c ****             emFile_1_SPI0_CS_Write(0u);
 224              		.loc 1 375 0
 225 001a 4FF00000 		mov	r0, #0
 226 001e FFF7FEFF 		bl	emFile_1_SPI0_CS_Write
 227              	.L21:
 376:.\Generated_Source\PSoC5/emFile_1_MMC_HW_SPI.c **** 
 377:.\Generated_Source\PSoC5/emFile_1_MMC_HW_SPI.c ****             break;
 378:.\Generated_Source\PSoC5/emFile_1_MMC_HW_SPI.c ****     }
 379:.\Generated_Source\PSoC5/emFile_1_MMC_HW_SPI.c **** }
 228              		.loc 1 379 0
 229 0022 07F10807 		add	r7, r7, #8
 230 0026 BD46     		mov	sp, r7
 231 0028 80BD     		pop	{r7, pc}
 232              		.cfi_endproc
 233              	.LFE31:
 234              		.size	FS_MMC_HW_X_EnableCS, .-FS_MMC_HW_X_EnableCS
 235 002a 00BF     		.section	.text.FS_MMC_HW_X_DisableCS,"ax",%progbits
 236              		.align	2
 237              		.global	FS_MMC_HW_X_DisableCS
 238              		.thumb
 239              		.thumb_func
 240              		.type	FS_MMC_HW_X_DisableCS, %function
 241              	FS_MMC_HW_X_DisableCS:
 242              	.LFB32:
 380:.\Generated_Source\PSoC5/emFile_1_MMC_HW_SPI.c **** 
 381:.\Generated_Source\PSoC5/emFile_1_MMC_HW_SPI.c **** 
ARM GAS  C:\Users\karunmj\AppData\Local\Temp\cccBtoqr.s 			page 12


 382:.\Generated_Source\PSoC5/emFile_1_MMC_HW_SPI.c **** /*******************************************************************************
 383:.\Generated_Source\PSoC5/emFile_1_MMC_HW_SPI.c **** * Function Name: FS_MMC_HW_X_DisableCS
 384:.\Generated_Source\PSoC5/emFile_1_MMC_HW_SPI.c **** ********************************************************************************
 385:.\Generated_Source\PSoC5/emFile_1_MMC_HW_SPI.c **** *
 386:.\Generated_Source\PSoC5/emFile_1_MMC_HW_SPI.c **** * Summary:
 387:.\Generated_Source\PSoC5/emFile_1_MMC_HW_SPI.c **** *  FS low level function. Clears the card slot inactive using the
 388:.\Generated_Source\PSoC5/emFile_1_MMC_HW_SPI.c **** *  chip select (CS) line.
 389:.\Generated_Source\PSoC5/emFile_1_MMC_HW_SPI.c **** *
 390:.\Generated_Source\PSoC5/emFile_1_MMC_HW_SPI.c **** * Parameters:
 391:.\Generated_Source\PSoC5/emFile_1_MMC_HW_SPI.c **** *  Unit      - Device Index.
 392:.\Generated_Source\PSoC5/emFile_1_MMC_HW_SPI.c **** *
 393:.\Generated_Source\PSoC5/emFile_1_MMC_HW_SPI.c **** * Return:
 394:.\Generated_Source\PSoC5/emFile_1_MMC_HW_SPI.c **** *  None
 395:.\Generated_Source\PSoC5/emFile_1_MMC_HW_SPI.c **** *
 396:.\Generated_Source\PSoC5/emFile_1_MMC_HW_SPI.c **** * Reentrant:
 397:.\Generated_Source\PSoC5/emFile_1_MMC_HW_SPI.c **** *  No
 398:.\Generated_Source\PSoC5/emFile_1_MMC_HW_SPI.c **** *
 399:.\Generated_Source\PSoC5/emFile_1_MMC_HW_SPI.c **** *******************************************************************************/
 400:.\Generated_Source\PSoC5/emFile_1_MMC_HW_SPI.c **** void FS_MMC_HW_X_DisableCS(U8 Unit)
 401:.\Generated_Source\PSoC5/emFile_1_MMC_HW_SPI.c **** {
 243              		.loc 1 401 0
 244              		.cfi_startproc
 245              		@ args = 0, pretend = 0, frame = 8
 246              		@ frame_needed = 1, uses_anonymous_args = 0
 247 0000 80B5     		push	{r7, lr}
 248              	.LCFI9:
 249              		.cfi_def_cfa_offset 8
 250 0002 82B0     		sub	sp, sp, #8
 251              	.LCFI10:
 252              		.cfi_def_cfa_offset 16
 253 0004 00AF     		add	r7, sp, #0
 254              		.cfi_offset 14, -4
 255              		.cfi_offset 7, -8
 256              	.LCFI11:
 257              		.cfi_def_cfa_register 7
 258 0006 0346     		mov	r3, r0
 259 0008 FB71     		strb	r3, [r7, #7]
 402:.\Generated_Source\PSoC5/emFile_1_MMC_HW_SPI.c ****     switch(Unit)
 260              		.loc 1 402 0
 261 000a FB79     		ldrb	r3, [r7, #7]	@ zero_extendqisi2
 262 000c 002B     		cmp	r3, #0
 263 000e 04D1     		bne	.L28
 264              	.L25:
 403:.\Generated_Source\PSoC5/emFile_1_MMC_HW_SPI.c ****     {
 404:.\Generated_Source\PSoC5/emFile_1_MMC_HW_SPI.c ****     case 0u:
 405:.\Generated_Source\PSoC5/emFile_1_MMC_HW_SPI.c **** 
 406:.\Generated_Source\PSoC5/emFile_1_MMC_HW_SPI.c ****         emFile_1_SPI0_CS_Write(1u);
 265              		.loc 1 406 0
 266 0010 4FF00100 		mov	r0, #1
 267 0014 FFF7FEFF 		bl	emFile_1_SPI0_CS_Write
 407:.\Generated_Source\PSoC5/emFile_1_MMC_HW_SPI.c **** 
 408:.\Generated_Source\PSoC5/emFile_1_MMC_HW_SPI.c ****         break;
 268              		.loc 1 408 0
 269 0018 03E0     		b	.L27
 270              	.L28:
 409:.\Generated_Source\PSoC5/emFile_1_MMC_HW_SPI.c **** 
 410:.\Generated_Source\PSoC5/emFile_1_MMC_HW_SPI.c ****     #if (emFile_1_NUMBER_SD_CARDS >= 2u)
ARM GAS  C:\Users\karunmj\AppData\Local\Temp\cccBtoqr.s 			page 13


 411:.\Generated_Source\PSoC5/emFile_1_MMC_HW_SPI.c **** 
 412:.\Generated_Source\PSoC5/emFile_1_MMC_HW_SPI.c ****         case 1u:
 413:.\Generated_Source\PSoC5/emFile_1_MMC_HW_SPI.c **** 
 414:.\Generated_Source\PSoC5/emFile_1_MMC_HW_SPI.c ****             emFile_1_SPI1_CS_Write(1u);
 415:.\Generated_Source\PSoC5/emFile_1_MMC_HW_SPI.c **** 
 416:.\Generated_Source\PSoC5/emFile_1_MMC_HW_SPI.c ****             break;
 417:.\Generated_Source\PSoC5/emFile_1_MMC_HW_SPI.c **** 
 418:.\Generated_Source\PSoC5/emFile_1_MMC_HW_SPI.c ****     #endif /* (emFile_1_NUMBER_SD_CARDS >= 2u) */
 419:.\Generated_Source\PSoC5/emFile_1_MMC_HW_SPI.c **** 
 420:.\Generated_Source\PSoC5/emFile_1_MMC_HW_SPI.c ****     #if (emFile_1_NUMBER_SD_CARDS >= 3u)
 421:.\Generated_Source\PSoC5/emFile_1_MMC_HW_SPI.c **** 
 422:.\Generated_Source\PSoC5/emFile_1_MMC_HW_SPI.c ****         case 2u:
 423:.\Generated_Source\PSoC5/emFile_1_MMC_HW_SPI.c **** 
 424:.\Generated_Source\PSoC5/emFile_1_MMC_HW_SPI.c ****             emFile_1_SPI2_CS_Write(1u);
 425:.\Generated_Source\PSoC5/emFile_1_MMC_HW_SPI.c **** 
 426:.\Generated_Source\PSoC5/emFile_1_MMC_HW_SPI.c ****             break;
 427:.\Generated_Source\PSoC5/emFile_1_MMC_HW_SPI.c **** 
 428:.\Generated_Source\PSoC5/emFile_1_MMC_HW_SPI.c ****     #endif /* (emFile_1_NUMBER_SD_CARDS >= 3u) */
 429:.\Generated_Source\PSoC5/emFile_1_MMC_HW_SPI.c **** 
 430:.\Generated_Source\PSoC5/emFile_1_MMC_HW_SPI.c ****     #if (emFile_1_NUMBER_SD_CARDS == 4u)
 431:.\Generated_Source\PSoC5/emFile_1_MMC_HW_SPI.c **** 
 432:.\Generated_Source\PSoC5/emFile_1_MMC_HW_SPI.c ****         case 3u:
 433:.\Generated_Source\PSoC5/emFile_1_MMC_HW_SPI.c **** 
 434:.\Generated_Source\PSoC5/emFile_1_MMC_HW_SPI.c ****             emFile_1_SPI3_CS_Write(1u);
 435:.\Generated_Source\PSoC5/emFile_1_MMC_HW_SPI.c **** 
 436:.\Generated_Source\PSoC5/emFile_1_MMC_HW_SPI.c ****             break;
 437:.\Generated_Source\PSoC5/emFile_1_MMC_HW_SPI.c **** 
 438:.\Generated_Source\PSoC5/emFile_1_MMC_HW_SPI.c ****     #endif /* (emFile_1_NUMBER_SD_CARDS == 4u) */
 439:.\Generated_Source\PSoC5/emFile_1_MMC_HW_SPI.c **** 
 440:.\Generated_Source\PSoC5/emFile_1_MMC_HW_SPI.c ****     default:
 441:.\Generated_Source\PSoC5/emFile_1_MMC_HW_SPI.c **** 
 442:.\Generated_Source\PSoC5/emFile_1_MMC_HW_SPI.c ****         emFile_1_SPI0_CS_Write(1u);
 271              		.loc 1 442 0
 272 001a 4FF00100 		mov	r0, #1
 273 001e FFF7FEFF 		bl	emFile_1_SPI0_CS_Write
 274              	.L27:
 443:.\Generated_Source\PSoC5/emFile_1_MMC_HW_SPI.c ****         
 444:.\Generated_Source\PSoC5/emFile_1_MMC_HW_SPI.c ****         break;
 445:.\Generated_Source\PSoC5/emFile_1_MMC_HW_SPI.c ****     }
 446:.\Generated_Source\PSoC5/emFile_1_MMC_HW_SPI.c **** }
 275              		.loc 1 446 0
 276 0022 07F10807 		add	r7, r7, #8
 277 0026 BD46     		mov	sp, r7
 278 0028 80BD     		pop	{r7, pc}
 279              		.cfi_endproc
 280              	.LFE32:
 281              		.size	FS_MMC_HW_X_DisableCS, .-FS_MMC_HW_X_DisableCS
 282 002a 00BF     		.section	.text.FS_MMC_HW_X_IsWriteProtected,"ax",%progbits
 283              		.align	2
 284              		.global	FS_MMC_HW_X_IsWriteProtected
 285              		.thumb
 286              		.thumb_func
 287              		.type	FS_MMC_HW_X_IsWriteProtected, %function
 288              	FS_MMC_HW_X_IsWriteProtected:
 289              	.LFB33:
 447:.\Generated_Source\PSoC5/emFile_1_MMC_HW_SPI.c **** 
 448:.\Generated_Source\PSoC5/emFile_1_MMC_HW_SPI.c **** 
ARM GAS  C:\Users\karunmj\AppData\Local\Temp\cccBtoqr.s 			page 14


 449:.\Generated_Source\PSoC5/emFile_1_MMC_HW_SPI.c **** /*******************************************************************************
 450:.\Generated_Source\PSoC5/emFile_1_MMC_HW_SPI.c **** * Function Name: FS_MMC_HW_X_IsWriteProtected
 451:.\Generated_Source\PSoC5/emFile_1_MMC_HW_SPI.c **** ********************************************************************************
 452:.\Generated_Source\PSoC5/emFile_1_MMC_HW_SPI.c **** *
 453:.\Generated_Source\PSoC5/emFile_1_MMC_HW_SPI.c **** * Summary:
 454:.\Generated_Source\PSoC5/emFile_1_MMC_HW_SPI.c **** *  FS low level function. Returns the state of the physical write
 455:.\Generated_Source\PSoC5/emFile_1_MMC_HW_SPI.c **** *  protection of the SD cards.
 456:.\Generated_Source\PSoC5/emFile_1_MMC_HW_SPI.c **** *
 457:.\Generated_Source\PSoC5/emFile_1_MMC_HW_SPI.c **** * Parameters:
 458:.\Generated_Source\PSoC5/emFile_1_MMC_HW_SPI.c **** *  Unit      - Device Index.
 459:.\Generated_Source\PSoC5/emFile_1_MMC_HW_SPI.c **** *
 460:.\Generated_Source\PSoC5/emFile_1_MMC_HW_SPI.c **** * Return:
 461:.\Generated_Source\PSoC5/emFile_1_MMC_HW_SPI.c **** *    1       - the card is write protected;
 462:.\Generated_Source\PSoC5/emFile_1_MMC_HW_SPI.c **** *    0       - the card is not write protected.
 463:.\Generated_Source\PSoC5/emFile_1_MMC_HW_SPI.c **** *
 464:.\Generated_Source\PSoC5/emFile_1_MMC_HW_SPI.c **** * Reentrant:
 465:.\Generated_Source\PSoC5/emFile_1_MMC_HW_SPI.c **** *  No
 466:.\Generated_Source\PSoC5/emFile_1_MMC_HW_SPI.c **** *
 467:.\Generated_Source\PSoC5/emFile_1_MMC_HW_SPI.c **** *******************************************************************************/
 468:.\Generated_Source\PSoC5/emFile_1_MMC_HW_SPI.c **** int FS_MMC_HW_X_IsWriteProtected(U8 Unit)
 469:.\Generated_Source\PSoC5/emFile_1_MMC_HW_SPI.c **** {
 290              		.loc 1 469 0
 291              		.cfi_startproc
 292              		@ args = 0, pretend = 0, frame = 16
 293              		@ frame_needed = 1, uses_anonymous_args = 0
 294              		@ link register save eliminated.
 295 0000 80B4     		push	{r7}
 296              	.LCFI12:
 297              		.cfi_def_cfa_offset 4
 298 0002 85B0     		sub	sp, sp, #20
 299              	.LCFI13:
 300              		.cfi_def_cfa_offset 24
 301 0004 00AF     		add	r7, sp, #0
 302              		.cfi_offset 7, -4
 303              	.LCFI14:
 304              		.cfi_def_cfa_register 7
 305 0006 0346     		mov	r3, r0
 306 0008 FB71     		strb	r3, [r7, #7]
 470:.\Generated_Source\PSoC5/emFile_1_MMC_HW_SPI.c ****    int wpState;
 471:.\Generated_Source\PSoC5/emFile_1_MMC_HW_SPI.c **** 
 472:.\Generated_Source\PSoC5/emFile_1_MMC_HW_SPI.c ****     switch(Unit)
 307              		.loc 1 472 0
 308 000a FB79     		ldrb	r3, [r7, #7]	@ zero_extendqisi2
 309 000c 002B     		cmp	r3, #0
 310 000e 03D1     		bne	.L34
 311              	.L31:
 473:.\Generated_Source\PSoC5/emFile_1_MMC_HW_SPI.c ****     {
 474:.\Generated_Source\PSoC5/emFile_1_MMC_HW_SPI.c ****     case 0u:
 475:.\Generated_Source\PSoC5/emFile_1_MMC_HW_SPI.c **** 
 476:.\Generated_Source\PSoC5/emFile_1_MMC_HW_SPI.c ****         #if (emFile_1_WP0_EN)
 477:.\Generated_Source\PSoC5/emFile_1_MMC_HW_SPI.c **** 
 478:.\Generated_Source\PSoC5/emFile_1_MMC_HW_SPI.c ****             /* Based on physical switch state */
 479:.\Generated_Source\PSoC5/emFile_1_MMC_HW_SPI.c ****               wpState = (int)emFile_1_SPI0_WP_Read();
 480:.\Generated_Source\PSoC5/emFile_1_MMC_HW_SPI.c **** 
 481:.\Generated_Source\PSoC5/emFile_1_MMC_HW_SPI.c ****         #else
 482:.\Generated_Source\PSoC5/emFile_1_MMC_HW_SPI.c **** 
 483:.\Generated_Source\PSoC5/emFile_1_MMC_HW_SPI.c ****             wpState = 0;
ARM GAS  C:\Users\karunmj\AppData\Local\Temp\cccBtoqr.s 			page 15


 312              		.loc 1 483 0
 313 0010 4FF00003 		mov	r3, #0
 314 0014 FB60     		str	r3, [r7, #12]
 484:.\Generated_Source\PSoC5/emFile_1_MMC_HW_SPI.c **** 
 485:.\Generated_Source\PSoC5/emFile_1_MMC_HW_SPI.c ****         #endif /* (emFile_1_WP0_EN) */
 486:.\Generated_Source\PSoC5/emFile_1_MMC_HW_SPI.c **** 
 487:.\Generated_Source\PSoC5/emFile_1_MMC_HW_SPI.c ****         break;
 315              		.loc 1 487 0
 316 0016 02E0     		b	.L32
 317              	.L34:
 488:.\Generated_Source\PSoC5/emFile_1_MMC_HW_SPI.c **** 
 489:.\Generated_Source\PSoC5/emFile_1_MMC_HW_SPI.c ****     #if (emFile_1_NUMBER_SD_CARDS >= 2u)
 490:.\Generated_Source\PSoC5/emFile_1_MMC_HW_SPI.c **** 
 491:.\Generated_Source\PSoC5/emFile_1_MMC_HW_SPI.c ****         case 1u:
 492:.\Generated_Source\PSoC5/emFile_1_MMC_HW_SPI.c **** 
 493:.\Generated_Source\PSoC5/emFile_1_MMC_HW_SPI.c ****             #if (emFile_1_WP1_EN)
 494:.\Generated_Source\PSoC5/emFile_1_MMC_HW_SPI.c **** 
 495:.\Generated_Source\PSoC5/emFile_1_MMC_HW_SPI.c ****                    /* Based on physical switch state */
 496:.\Generated_Source\PSoC5/emFile_1_MMC_HW_SPI.c ****                 wpState = (int)emFile_1_SPI1_WP_Read();
 497:.\Generated_Source\PSoC5/emFile_1_MMC_HW_SPI.c **** 
 498:.\Generated_Source\PSoC5/emFile_1_MMC_HW_SPI.c ****             #else
 499:.\Generated_Source\PSoC5/emFile_1_MMC_HW_SPI.c **** 
 500:.\Generated_Source\PSoC5/emFile_1_MMC_HW_SPI.c ****                 wpState = 0;
 501:.\Generated_Source\PSoC5/emFile_1_MMC_HW_SPI.c **** 
 502:.\Generated_Source\PSoC5/emFile_1_MMC_HW_SPI.c ****             #endif /* (emFile_1_WP1_EN) */
 503:.\Generated_Source\PSoC5/emFile_1_MMC_HW_SPI.c **** 
 504:.\Generated_Source\PSoC5/emFile_1_MMC_HW_SPI.c ****             break;
 505:.\Generated_Source\PSoC5/emFile_1_MMC_HW_SPI.c **** 
 506:.\Generated_Source\PSoC5/emFile_1_MMC_HW_SPI.c ****     #endif /* (emFile_1_NUMBER_SD_CARDS >= 2u) */
 507:.\Generated_Source\PSoC5/emFile_1_MMC_HW_SPI.c **** 
 508:.\Generated_Source\PSoC5/emFile_1_MMC_HW_SPI.c ****     #if (emFile_1_NUMBER_SD_CARDS >= 3u)
 509:.\Generated_Source\PSoC5/emFile_1_MMC_HW_SPI.c **** 
 510:.\Generated_Source\PSoC5/emFile_1_MMC_HW_SPI.c ****         case 2u:
 511:.\Generated_Source\PSoC5/emFile_1_MMC_HW_SPI.c **** 
 512:.\Generated_Source\PSoC5/emFile_1_MMC_HW_SPI.c ****             #if (emFile_1_WP2_EN)
 513:.\Generated_Source\PSoC5/emFile_1_MMC_HW_SPI.c **** 
 514:.\Generated_Source\PSoC5/emFile_1_MMC_HW_SPI.c ****                   /* Based on physical switch state */
 515:.\Generated_Source\PSoC5/emFile_1_MMC_HW_SPI.c ****                 wpState = (int)emFile_1_SPI2_WP_Read();
 516:.\Generated_Source\PSoC5/emFile_1_MMC_HW_SPI.c **** 
 517:.\Generated_Source\PSoC5/emFile_1_MMC_HW_SPI.c ****             #else
 518:.\Generated_Source\PSoC5/emFile_1_MMC_HW_SPI.c **** 
 519:.\Generated_Source\PSoC5/emFile_1_MMC_HW_SPI.c ****                 wpState = 0;
 520:.\Generated_Source\PSoC5/emFile_1_MMC_HW_SPI.c **** 
 521:.\Generated_Source\PSoC5/emFile_1_MMC_HW_SPI.c ****             #endif /* (emFile_1_WP2_EN) */
 522:.\Generated_Source\PSoC5/emFile_1_MMC_HW_SPI.c **** 
 523:.\Generated_Source\PSoC5/emFile_1_MMC_HW_SPI.c ****             break;
 524:.\Generated_Source\PSoC5/emFile_1_MMC_HW_SPI.c **** 
 525:.\Generated_Source\PSoC5/emFile_1_MMC_HW_SPI.c ****     #endif /* (emFile_1_NUMBER_SD_CARDS >= 3u) */
 526:.\Generated_Source\PSoC5/emFile_1_MMC_HW_SPI.c **** 
 527:.\Generated_Source\PSoC5/emFile_1_MMC_HW_SPI.c ****     #if (emFile_1_NUMBER_SD_CARDS == 4u)
 528:.\Generated_Source\PSoC5/emFile_1_MMC_HW_SPI.c **** 
 529:.\Generated_Source\PSoC5/emFile_1_MMC_HW_SPI.c ****         case 3u:
 530:.\Generated_Source\PSoC5/emFile_1_MMC_HW_SPI.c **** 
 531:.\Generated_Source\PSoC5/emFile_1_MMC_HW_SPI.c ****             #if (emFile_1_WP3_EN)
 532:.\Generated_Source\PSoC5/emFile_1_MMC_HW_SPI.c **** 
 533:.\Generated_Source\PSoC5/emFile_1_MMC_HW_SPI.c ****                 /* Based on physical switch state */
 534:.\Generated_Source\PSoC5/emFile_1_MMC_HW_SPI.c ****                 wpState = (int)emFile_1_SPI3_WP_Read();
ARM GAS  C:\Users\karunmj\AppData\Local\Temp\cccBtoqr.s 			page 16


 535:.\Generated_Source\PSoC5/emFile_1_MMC_HW_SPI.c **** 
 536:.\Generated_Source\PSoC5/emFile_1_MMC_HW_SPI.c ****             #else
 537:.\Generated_Source\PSoC5/emFile_1_MMC_HW_SPI.c **** 
 538:.\Generated_Source\PSoC5/emFile_1_MMC_HW_SPI.c ****                 wpState = 0;
 539:.\Generated_Source\PSoC5/emFile_1_MMC_HW_SPI.c **** 
 540:.\Generated_Source\PSoC5/emFile_1_MMC_HW_SPI.c ****             #endif /* (emFile_1_WP3_EN) */
 541:.\Generated_Source\PSoC5/emFile_1_MMC_HW_SPI.c **** 
 542:.\Generated_Source\PSoC5/emFile_1_MMC_HW_SPI.c ****             break;
 543:.\Generated_Source\PSoC5/emFile_1_MMC_HW_SPI.c **** 
 544:.\Generated_Source\PSoC5/emFile_1_MMC_HW_SPI.c ****     #endif /* (emFile_1_NUMBER_SD_CARDS == 4u) */
 545:.\Generated_Source\PSoC5/emFile_1_MMC_HW_SPI.c **** 
 546:.\Generated_Source\PSoC5/emFile_1_MMC_HW_SPI.c ****     default:
 547:.\Generated_Source\PSoC5/emFile_1_MMC_HW_SPI.c **** 
 548:.\Generated_Source\PSoC5/emFile_1_MMC_HW_SPI.c ****         #if (emFile_1_WP0_EN)
 549:.\Generated_Source\PSoC5/emFile_1_MMC_HW_SPI.c **** 
 550:.\Generated_Source\PSoC5/emFile_1_MMC_HW_SPI.c ****               /* Based on physical switch state */
 551:.\Generated_Source\PSoC5/emFile_1_MMC_HW_SPI.c ****             wpState = (int)emFile_1_SPI0_WP_Read();
 552:.\Generated_Source\PSoC5/emFile_1_MMC_HW_SPI.c **** 
 553:.\Generated_Source\PSoC5/emFile_1_MMC_HW_SPI.c ****         #else
 554:.\Generated_Source\PSoC5/emFile_1_MMC_HW_SPI.c **** 
 555:.\Generated_Source\PSoC5/emFile_1_MMC_HW_SPI.c ****             wpState = 0;
 318              		.loc 1 555 0
 319 0018 4FF00003 		mov	r3, #0
 320 001c FB60     		str	r3, [r7, #12]
 321              	.L32:
 556:.\Generated_Source\PSoC5/emFile_1_MMC_HW_SPI.c **** 
 557:.\Generated_Source\PSoC5/emFile_1_MMC_HW_SPI.c ****         #endif /* (emFile_1_WP0_EN) */
 558:.\Generated_Source\PSoC5/emFile_1_MMC_HW_SPI.c ****         
 559:.\Generated_Source\PSoC5/emFile_1_MMC_HW_SPI.c ****         break;
 560:.\Generated_Source\PSoC5/emFile_1_MMC_HW_SPI.c ****     }
 561:.\Generated_Source\PSoC5/emFile_1_MMC_HW_SPI.c **** 
 562:.\Generated_Source\PSoC5/emFile_1_MMC_HW_SPI.c ****     return(wpState);
 322              		.loc 1 562 0
 323 001e FB68     		ldr	r3, [r7, #12]
 563:.\Generated_Source\PSoC5/emFile_1_MMC_HW_SPI.c **** }
 324              		.loc 1 563 0
 325 0020 1846     		mov	r0, r3
 326 0022 07F11407 		add	r7, r7, #20
 327 0026 BD46     		mov	sp, r7
 328 0028 80BC     		pop	{r7}
 329 002a 7047     		bx	lr
 330              		.cfi_endproc
 331              	.LFE33:
 332              		.size	FS_MMC_HW_X_IsWriteProtected, .-FS_MMC_HW_X_IsWriteProtected
 333              		.section	.text.FS_MMC_HW_X_SetMaxSpeed,"ax",%progbits
 334              		.align	2
 335              		.global	FS_MMC_HW_X_SetMaxSpeed
 336              		.thumb
 337              		.thumb_func
 338              		.type	FS_MMC_HW_X_SetMaxSpeed, %function
 339              	FS_MMC_HW_X_SetMaxSpeed:
 340              	.LFB34:
 564:.\Generated_Source\PSoC5/emFile_1_MMC_HW_SPI.c **** 
 565:.\Generated_Source\PSoC5/emFile_1_MMC_HW_SPI.c **** 
 566:.\Generated_Source\PSoC5/emFile_1_MMC_HW_SPI.c **** /*******************************************************************************
 567:.\Generated_Source\PSoC5/emFile_1_MMC_HW_SPI.c **** * Function Name: FS_MMC_HW_X_SetMaxSpeed
 568:.\Generated_Source\PSoC5/emFile_1_MMC_HW_SPI.c **** ********************************************************************************
ARM GAS  C:\Users\karunmj\AppData\Local\Temp\cccBtoqr.s 			page 17


 569:.\Generated_Source\PSoC5/emFile_1_MMC_HW_SPI.c **** *
 570:.\Generated_Source\PSoC5/emFile_1_MMC_HW_SPI.c **** * Summary:
 571:.\Generated_Source\PSoC5/emFile_1_MMC_HW_SPI.c **** *  FS low level function. Sets the SPI interface to a maximum frequency.
 572:.\Generated_Source\PSoC5/emFile_1_MMC_HW_SPI.c **** *  Make sure that you set the frequency lower or equal but never higher
 573:.\Generated_Source\PSoC5/emFile_1_MMC_HW_SPI.c **** *  than the given value. Recommended startup frequency is 100kHz - 400kHz.
 574:.\Generated_Source\PSoC5/emFile_1_MMC_HW_SPI.c **** *
 575:.\Generated_Source\PSoC5/emFile_1_MMC_HW_SPI.c **** * Parameters:
 576:.\Generated_Source\PSoC5/emFile_1_MMC_HW_SPI.c **** *  Unit             - Device Index;
 577:.\Generated_Source\PSoC5/emFile_1_MMC_HW_SPI.c **** *  MaxFreq          - SPI clock frequency in kHz.
 578:.\Generated_Source\PSoC5/emFile_1_MMC_HW_SPI.c **** *
 579:.\Generated_Source\PSoC5/emFile_1_MMC_HW_SPI.c **** * Return:
 580:.\Generated_Source\PSoC5/emFile_1_MMC_HW_SPI.c **** *  max. frequency   - the maximum frequency set in kHz;
 581:.\Generated_Source\PSoC5/emFile_1_MMC_HW_SPI.c **** *  0                - the frequency could not be set.
 582:.\Generated_Source\PSoC5/emFile_1_MMC_HW_SPI.c **** *
 583:.\Generated_Source\PSoC5/emFile_1_MMC_HW_SPI.c **** * Reentrant:
 584:.\Generated_Source\PSoC5/emFile_1_MMC_HW_SPI.c **** *  No
 585:.\Generated_Source\PSoC5/emFile_1_MMC_HW_SPI.c **** *
 586:.\Generated_Source\PSoC5/emFile_1_MMC_HW_SPI.c **** *******************************************************************************/
 587:.\Generated_Source\PSoC5/emFile_1_MMC_HW_SPI.c **** U16 FS_MMC_HW_X_SetMaxSpeed(U8 Unit, U16 MaxFreq)
 588:.\Generated_Source\PSoC5/emFile_1_MMC_HW_SPI.c **** {
 341              		.loc 1 588 0
 342              		.cfi_startproc
 343              		@ args = 0, pretend = 0, frame = 16
 344              		@ frame_needed = 1, uses_anonymous_args = 0
 345 0000 80B5     		push	{r7, lr}
 346              	.LCFI15:
 347              		.cfi_def_cfa_offset 8
 348 0002 84B0     		sub	sp, sp, #16
 349              	.LCFI16:
 350              		.cfi_def_cfa_offset 24
 351 0004 00AF     		add	r7, sp, #0
 352              		.cfi_offset 14, -4
 353              		.cfi_offset 7, -8
 354              	.LCFI17:
 355              		.cfi_def_cfa_register 7
 356 0006 0246     		mov	r2, r0
 357 0008 0B46     		mov	r3, r1
 358 000a FA71     		strb	r2, [r7, #7]
 359 000c BB80     		strh	r3, [r7, #4]	@ movhi
 589:.\Generated_Source\PSoC5/emFile_1_MMC_HW_SPI.c ****     U16 freq;
 590:.\Generated_Source\PSoC5/emFile_1_MMC_HW_SPI.c ****     U32 divResult;
 591:.\Generated_Source\PSoC5/emFile_1_MMC_HW_SPI.c **** 
 592:.\Generated_Source\PSoC5/emFile_1_MMC_HW_SPI.c ****     if(MaxFreq < emFile_1_STARTUP_FREQ)
 360              		.loc 1 592 0
 361 000e BA88     		ldrh	r2, [r7, #4]
 362 0010 40F28F13 		movw	r3, #399
 363 0014 9A42     		cmp	r2, r3
 364 0016 03D8     		bhi	.L36
 593:.\Generated_Source\PSoC5/emFile_1_MMC_HW_SPI.c ****     {
 594:.\Generated_Source\PSoC5/emFile_1_MMC_HW_SPI.c ****         MaxFreq = emFile_1_STARTUP_FREQ;
 365              		.loc 1 594 0
 366 0018 4FF4C873 		mov	r3, #400
 367 001c BB80     		strh	r3, [r7, #4]	@ movhi
 368 001e 06E0     		b	.L37
 369              	.L36:
 595:.\Generated_Source\PSoC5/emFile_1_MMC_HW_SPI.c ****     }
 596:.\Generated_Source\PSoC5/emFile_1_MMC_HW_SPI.c ****     else if(MaxFreq > emFile_1_MAX_SPI_FREQ)
ARM GAS  C:\Users\karunmj\AppData\Local\Temp\cccBtoqr.s 			page 18


 370              		.loc 1 596 0
 371 0020 BB88     		ldrh	r3, [r7, #4]
 372 0022 B3F57A6F 		cmp	r3, #4000
 373 0026 02D9     		bls	.L37
 597:.\Generated_Source\PSoC5/emFile_1_MMC_HW_SPI.c ****     {
 598:.\Generated_Source\PSoC5/emFile_1_MMC_HW_SPI.c ****         MaxFreq = emFile_1_MAX_SPI_FREQ;
 374              		.loc 1 598 0
 375 0028 4FF47A63 		mov	r3, #4000
 376 002c BB80     		strh	r3, [r7, #4]	@ movhi
 377              	.L37:
 599:.\Generated_Source\PSoC5/emFile_1_MMC_HW_SPI.c ****     }
 600:.\Generated_Source\PSoC5/emFile_1_MMC_HW_SPI.c ****     else
 601:.\Generated_Source\PSoC5/emFile_1_MMC_HW_SPI.c ****     {
 602:.\Generated_Source\PSoC5/emFile_1_MMC_HW_SPI.c ****         /* Do nothing */
 603:.\Generated_Source\PSoC5/emFile_1_MMC_HW_SPI.c ****     }
 604:.\Generated_Source\PSoC5/emFile_1_MMC_HW_SPI.c **** 
 605:.\Generated_Source\PSoC5/emFile_1_MMC_HW_SPI.c ****     freq = MaxFreq << 1u;
 378              		.loc 1 605 0
 379 002e BB88     		ldrh	r3, [r7, #4]	@ movhi
 380 0030 4FEA4303 		lsl	r3, r3, #1
 381 0034 7B81     		strh	r3, [r7, #10]	@ movhi
 606:.\Generated_Source\PSoC5/emFile_1_MMC_HW_SPI.c **** 
 607:.\Generated_Source\PSoC5/emFile_1_MMC_HW_SPI.c ****     divResult = ((U32) BCLK__BUS_CLK__KHZ)/((U32) freq);
 382              		.loc 1 607 0
 383 0036 7B89     		ldrh	r3, [r7, #10]
 384 0038 45F6C052 		movw	r2, #24000
 385 003c B2FBF3F3 		udiv	r3, r2, r3
 386 0040 9BB2     		uxth	r3, r3
 387 0042 FB60     		str	r3, [r7, #12]
 608:.\Generated_Source\PSoC5/emFile_1_MMC_HW_SPI.c **** 
 609:.\Generated_Source\PSoC5/emFile_1_MMC_HW_SPI.c ****     switch(Unit)
 388              		.loc 1 609 0
 389 0044 FB79     		ldrb	r3, [r7, #7]	@ zero_extendqisi2
 390 0046 002B     		cmp	r3, #0
 391 0048 0ED1     		bne	.L42
 392              	.L39:
 610:.\Generated_Source\PSoC5/emFile_1_MMC_HW_SPI.c ****     {
 611:.\Generated_Source\PSoC5/emFile_1_MMC_HW_SPI.c ****         case 0u:
 612:.\Generated_Source\PSoC5/emFile_1_MMC_HW_SPI.c ****             emFile_1_Clock_1_Stop();
 393              		.loc 1 612 0
 394 004a FFF7FEFF 		bl	emFile_1_Clock_1_Stop
 613:.\Generated_Source\PSoC5/emFile_1_MMC_HW_SPI.c ****             emFile_1_Clock_1_SetDividerValue((U16)divResult);    /* update the frequency */
 395              		.loc 1 613 0
 396 004e FB68     		ldr	r3, [r7, #12]
 397 0050 9BB2     		uxth	r3, r3
 398 0052 03F1FF33 		add	r3, r3, #-1
 399 0056 9BB2     		uxth	r3, r3
 400 0058 1846     		mov	r0, r3
 401 005a 4FF00101 		mov	r1, #1
 402 005e FFF7FEFF 		bl	emFile_1_Clock_1_SetDividerRegister
 614:.\Generated_Source\PSoC5/emFile_1_MMC_HW_SPI.c ****             emFile_1_Clock_1_Start();
 403              		.loc 1 614 0
 404 0062 FFF7FEFF 		bl	emFile_1_Clock_1_Start
 615:.\Generated_Source\PSoC5/emFile_1_MMC_HW_SPI.c ****             break;
 405              		.loc 1 615 0
 406 0066 0DE0     		b	.L40
 407              	.L42:
ARM GAS  C:\Users\karunmj\AppData\Local\Temp\cccBtoqr.s 			page 19


 616:.\Generated_Source\PSoC5/emFile_1_MMC_HW_SPI.c **** 
 617:.\Generated_Source\PSoC5/emFile_1_MMC_HW_SPI.c ****         #if (emFile_1_NUMBER_SD_CARDS >= 2u)
 618:.\Generated_Source\PSoC5/emFile_1_MMC_HW_SPI.c **** 
 619:.\Generated_Source\PSoC5/emFile_1_MMC_HW_SPI.c ****         case 1u:
 620:.\Generated_Source\PSoC5/emFile_1_MMC_HW_SPI.c **** 
 621:.\Generated_Source\PSoC5/emFile_1_MMC_HW_SPI.c ****             emFile_1_Clock_2_Stop();
 622:.\Generated_Source\PSoC5/emFile_1_MMC_HW_SPI.c ****             emFile_1_Clock_2_SetDividerValue((U16)divResult);    /* update the frequency */
 623:.\Generated_Source\PSoC5/emFile_1_MMC_HW_SPI.c ****             emFile_1_Clock_2_Start();
 624:.\Generated_Source\PSoC5/emFile_1_MMC_HW_SPI.c ****             break;
 625:.\Generated_Source\PSoC5/emFile_1_MMC_HW_SPI.c **** 
 626:.\Generated_Source\PSoC5/emFile_1_MMC_HW_SPI.c ****         #endif /* (emFile_1_NUMBER_SD_CARDS >= 2u) */
 627:.\Generated_Source\PSoC5/emFile_1_MMC_HW_SPI.c **** 
 628:.\Generated_Source\PSoC5/emFile_1_MMC_HW_SPI.c ****         #if (emFile_1_NUMBER_SD_CARDS >= 3u)
 629:.\Generated_Source\PSoC5/emFile_1_MMC_HW_SPI.c **** 
 630:.\Generated_Source\PSoC5/emFile_1_MMC_HW_SPI.c ****         case 2u:
 631:.\Generated_Source\PSoC5/emFile_1_MMC_HW_SPI.c **** 
 632:.\Generated_Source\PSoC5/emFile_1_MMC_HW_SPI.c ****             emFile_1_Clock_3_Stop();
 633:.\Generated_Source\PSoC5/emFile_1_MMC_HW_SPI.c ****             emFile_1_Clock_3_SetDividerValue((U16)divResult);    /* update the frequency */
 634:.\Generated_Source\PSoC5/emFile_1_MMC_HW_SPI.c ****             emFile_1_Clock_3_Start();
 635:.\Generated_Source\PSoC5/emFile_1_MMC_HW_SPI.c ****             break;
 636:.\Generated_Source\PSoC5/emFile_1_MMC_HW_SPI.c **** 
 637:.\Generated_Source\PSoC5/emFile_1_MMC_HW_SPI.c ****         #endif /* (emFile_1_NUMBER_SD_CARDS >= 3u) */
 638:.\Generated_Source\PSoC5/emFile_1_MMC_HW_SPI.c **** 
 639:.\Generated_Source\PSoC5/emFile_1_MMC_HW_SPI.c ****         #if (emFile_1_NUMBER_SD_CARDS == 4u)
 640:.\Generated_Source\PSoC5/emFile_1_MMC_HW_SPI.c **** 
 641:.\Generated_Source\PSoC5/emFile_1_MMC_HW_SPI.c ****         case 3u:
 642:.\Generated_Source\PSoC5/emFile_1_MMC_HW_SPI.c **** 
 643:.\Generated_Source\PSoC5/emFile_1_MMC_HW_SPI.c ****             emFile_1_Clock_4_Stop();
 644:.\Generated_Source\PSoC5/emFile_1_MMC_HW_SPI.c ****             emFile_1_Clock_4_SetDividerValue((U16)divResult);    /* update the frequency */
 645:.\Generated_Source\PSoC5/emFile_1_MMC_HW_SPI.c ****             emFile_1_Clock_4_Start();
 646:.\Generated_Source\PSoC5/emFile_1_MMC_HW_SPI.c ****             break;
 647:.\Generated_Source\PSoC5/emFile_1_MMC_HW_SPI.c **** 
 648:.\Generated_Source\PSoC5/emFile_1_MMC_HW_SPI.c ****         #endif /* (emFile_1_NUMBER_SD_CARDS == 4u) */
 649:.\Generated_Source\PSoC5/emFile_1_MMC_HW_SPI.c **** 
 650:.\Generated_Source\PSoC5/emFile_1_MMC_HW_SPI.c ****         default:
 651:.\Generated_Source\PSoC5/emFile_1_MMC_HW_SPI.c ****             emFile_1_Clock_1_Stop();
 408              		.loc 1 651 0
 409 0068 FFF7FEFF 		bl	emFile_1_Clock_1_Stop
 652:.\Generated_Source\PSoC5/emFile_1_MMC_HW_SPI.c ****             emFile_1_Clock_1_SetDividerValue((U16)divResult);    /* update the frequency */
 410              		.loc 1 652 0
 411 006c FB68     		ldr	r3, [r7, #12]
 412 006e 9BB2     		uxth	r3, r3
 413 0070 03F1FF33 		add	r3, r3, #-1
 414 0074 9BB2     		uxth	r3, r3
 415 0076 1846     		mov	r0, r3
 416 0078 4FF00101 		mov	r1, #1
 417 007c FFF7FEFF 		bl	emFile_1_Clock_1_SetDividerRegister
 653:.\Generated_Source\PSoC5/emFile_1_MMC_HW_SPI.c ****             emFile_1_Clock_1_Start();
 418              		.loc 1 653 0
 419 0080 FFF7FEFF 		bl	emFile_1_Clock_1_Start
 420              	.L40:
 654:.\Generated_Source\PSoC5/emFile_1_MMC_HW_SPI.c ****             break;
 655:.\Generated_Source\PSoC5/emFile_1_MMC_HW_SPI.c ****     }
 656:.\Generated_Source\PSoC5/emFile_1_MMC_HW_SPI.c **** 
 657:.\Generated_Source\PSoC5/emFile_1_MMC_HW_SPI.c ****     return (MaxFreq);
 421              		.loc 1 657 0
 422 0084 BB88     		ldrh	r3, [r7, #4]
ARM GAS  C:\Users\karunmj\AppData\Local\Temp\cccBtoqr.s 			page 20


 658:.\Generated_Source\PSoC5/emFile_1_MMC_HW_SPI.c **** 
 659:.\Generated_Source\PSoC5/emFile_1_MMC_HW_SPI.c **** }
 423              		.loc 1 659 0
 424 0086 1846     		mov	r0, r3
 425 0088 07F11007 		add	r7, r7, #16
 426 008c BD46     		mov	sp, r7
 427 008e 80BD     		pop	{r7, pc}
 428              		.cfi_endproc
 429              	.LFE34:
 430              		.size	FS_MMC_HW_X_SetMaxSpeed, .-FS_MMC_HW_X_SetMaxSpeed
 431              		.section	.text.FS_MMC_HW_X_SetVoltage,"ax",%progbits
 432              		.align	2
 433              		.global	FS_MMC_HW_X_SetVoltage
 434              		.thumb
 435              		.thumb_func
 436              		.type	FS_MMC_HW_X_SetVoltage, %function
 437              	FS_MMC_HW_X_SetVoltage:
 438              	.LFB35:
 660:.\Generated_Source\PSoC5/emFile_1_MMC_HW_SPI.c **** 
 661:.\Generated_Source\PSoC5/emFile_1_MMC_HW_SPI.c **** 
 662:.\Generated_Source\PSoC5/emFile_1_MMC_HW_SPI.c **** /*******************************************************************************
 663:.\Generated_Source\PSoC5/emFile_1_MMC_HW_SPI.c **** * Function Name: FS_MMC_HW_X_SetVoltage
 664:.\Generated_Source\PSoC5/emFile_1_MMC_HW_SPI.c **** ********************************************************************************
 665:.\Generated_Source\PSoC5/emFile_1_MMC_HW_SPI.c **** *
 666:.\Generated_Source\PSoC5/emFile_1_MMC_HW_SPI.c **** * Summary:
 667:.\Generated_Source\PSoC5/emFile_1_MMC_HW_SPI.c **** *  FS low level function. Be sure that your card slot si within the given
 668:.\Generated_Source\PSoC5/emFile_1_MMC_HW_SPI.c **** *  voltage range. Return 1 if your slot can support the required voltage,
 669:.\Generated_Source\PSoC5/emFile_1_MMC_HW_SPI.c **** *  and if not, return 0.
 670:.\Generated_Source\PSoC5/emFile_1_MMC_HW_SPI.c **** *
 671:.\Generated_Source\PSoC5/emFile_1_MMC_HW_SPI.c **** * Parameters:
 672:.\Generated_Source\PSoC5/emFile_1_MMC_HW_SPI.c **** *  Unit             - Device Index;
 673:.\Generated_Source\PSoC5/emFile_1_MMC_HW_SPI.c **** *  Vmin             - Minimum supply voltage in mV;
 674:.\Generated_Source\PSoC5/emFile_1_MMC_HW_SPI.c **** *  Vmin             - Maximum supply voltage in mV.
 675:.\Generated_Source\PSoC5/emFile_1_MMC_HW_SPI.c **** *
 676:.\Generated_Source\PSoC5/emFile_1_MMC_HW_SPI.c **** * Return:
 677:.\Generated_Source\PSoC5/emFile_1_MMC_HW_SPI.c **** *  1                - the card slot supports the voltage range;
 678:.\Generated_Source\PSoC5/emFile_1_MMC_HW_SPI.c **** *  0                - the card slot does not support the voltage range.
 679:.\Generated_Source\PSoC5/emFile_1_MMC_HW_SPI.c **** *
 680:.\Generated_Source\PSoC5/emFile_1_MMC_HW_SPI.c **** * Reentrant:
 681:.\Generated_Source\PSoC5/emFile_1_MMC_HW_SPI.c **** *  No
 682:.\Generated_Source\PSoC5/emFile_1_MMC_HW_SPI.c **** *
 683:.\Generated_Source\PSoC5/emFile_1_MMC_HW_SPI.c **** *******************************************************************************/
 684:.\Generated_Source\PSoC5/emFile_1_MMC_HW_SPI.c **** int FS_MMC_HW_X_SetVoltage(U8 Unit, U16 Vmin, U16 Vmax)
 685:.\Generated_Source\PSoC5/emFile_1_MMC_HW_SPI.c **** {
 439              		.loc 1 685 0
 440              		.cfi_startproc
 441              		@ args = 0, pretend = 0, frame = 16
 442              		@ frame_needed = 1, uses_anonymous_args = 0
 443              		@ link register save eliminated.
 444 0000 80B4     		push	{r7}
 445              	.LCFI18:
 446              		.cfi_def_cfa_offset 4
 447 0002 85B0     		sub	sp, sp, #20
 448              	.LCFI19:
 449              		.cfi_def_cfa_offset 24
 450 0004 00AF     		add	r7, sp, #0
 451              		.cfi_offset 7, -4
ARM GAS  C:\Users\karunmj\AppData\Local\Temp\cccBtoqr.s 			page 21


 452              	.LCFI20:
 453              		.cfi_def_cfa_register 7
 454 0006 1346     		mov	r3, r2
 455 0008 0246     		mov	r2, r0
 456 000a FA71     		strb	r2, [r7, #7]
 457 000c 0A46     		mov	r2, r1	@ movhi
 458 000e BA80     		strh	r2, [r7, #4]	@ movhi
 459 0010 7B80     		strh	r3, [r7, #2]	@ movhi
 686:.\Generated_Source\PSoC5/emFile_1_MMC_HW_SPI.c ****     int result;
 687:.\Generated_Source\PSoC5/emFile_1_MMC_HW_SPI.c **** 
 688:.\Generated_Source\PSoC5/emFile_1_MMC_HW_SPI.c ****     switch(Unit)
 460              		.loc 1 688 0
 461 0012 FB79     		ldrb	r3, [r7, #7]	@ zero_extendqisi2
 462 0014 03F10003 		add	r3, r3, #0
 463 0018 032B     		cmp	r3, #3
 464 001a 12D8     		bhi	.L44
 689:.\Generated_Source\PSoC5/emFile_1_MMC_HW_SPI.c ****     {
 690:.\Generated_Source\PSoC5/emFile_1_MMC_HW_SPI.c ****     case 0u:
 691:.\Generated_Source\PSoC5/emFile_1_MMC_HW_SPI.c **** 
 692:.\Generated_Source\PSoC5/emFile_1_MMC_HW_SPI.c ****     case 1u:
 693:.\Generated_Source\PSoC5/emFile_1_MMC_HW_SPI.c **** 
 694:.\Generated_Source\PSoC5/emFile_1_MMC_HW_SPI.c ****     case 2u:
 695:.\Generated_Source\PSoC5/emFile_1_MMC_HW_SPI.c **** 
 696:.\Generated_Source\PSoC5/emFile_1_MMC_HW_SPI.c ****     case 3u:
 697:.\Generated_Source\PSoC5/emFile_1_MMC_HW_SPI.c **** 
 698:.\Generated_Source\PSoC5/emFile_1_MMC_HW_SPI.c ****         if((Vmin <= emFile_1_MMC_DEFAULT_SUPPLY_VOLTAGE) &&
 465              		.loc 1 698 0
 466 001c BA88     		ldrh	r2, [r7, #4]
 467 001e 40F6E443 		movw	r3, #3300
 468 0022 9A42     		cmp	r2, r3
 469 0024 09D8     		bhi	.L46
 470 0026 7A88     		ldrh	r2, [r7, #2]
 471 0028 40F6E343 		movw	r3, #3299
 472 002c 9A42     		cmp	r2, r3
 473 002e 04D9     		bls	.L46
 699:.\Generated_Source\PSoC5/emFile_1_MMC_HW_SPI.c ****             (emFile_1_MMC_DEFAULT_SUPPLY_VOLTAGE <= Vmax))
 700:.\Generated_Source\PSoC5/emFile_1_MMC_HW_SPI.c ****         {
 701:.\Generated_Source\PSoC5/emFile_1_MMC_HW_SPI.c ****             result = emFile_1_RET_SUCCCESS;
 474              		.loc 1 701 0
 475 0030 4FF00103 		mov	r3, #1
 476 0034 FB60     		str	r3, [r7, #12]
 477              		.loc 1 698 0
 478 0036 00BF     		nop
 702:.\Generated_Source\PSoC5/emFile_1_MMC_HW_SPI.c ****         }
 703:.\Generated_Source\PSoC5/emFile_1_MMC_HW_SPI.c ****         else
 704:.\Generated_Source\PSoC5/emFile_1_MMC_HW_SPI.c ****         {
 705:.\Generated_Source\PSoC5/emFile_1_MMC_HW_SPI.c ****             result = emFile_1_RET_FAIL;
 706:.\Generated_Source\PSoC5/emFile_1_MMC_HW_SPI.c ****         }
 707:.\Generated_Source\PSoC5/emFile_1_MMC_HW_SPI.c **** 
 708:.\Generated_Source\PSoC5/emFile_1_MMC_HW_SPI.c ****         break;
 479              		.loc 1 708 0
 480 0038 14E0     		b	.L48
 481              	.L46:
 482              		.loc 1 705 0
 483 003a 4FF00003 		mov	r3, #0
 484 003e FB60     		str	r3, [r7, #12]
 485              		.loc 1 708 0
ARM GAS  C:\Users\karunmj\AppData\Local\Temp\cccBtoqr.s 			page 22


 486 0040 10E0     		b	.L48
 487              	.L44:
 709:.\Generated_Source\PSoC5/emFile_1_MMC_HW_SPI.c **** 
 710:.\Generated_Source\PSoC5/emFile_1_MMC_HW_SPI.c ****     default:
 711:.\Generated_Source\PSoC5/emFile_1_MMC_HW_SPI.c **** 
 712:.\Generated_Source\PSoC5/emFile_1_MMC_HW_SPI.c ****         if((Vmin <= emFile_1_MMC_DEFAULT_SUPPLY_VOLTAGE) &&
 488              		.loc 1 712 0
 489 0042 BA88     		ldrh	r2, [r7, #4]
 490 0044 40F6E443 		movw	r3, #3300
 491 0048 9A42     		cmp	r2, r3
 492 004a 08D8     		bhi	.L49
 493 004c 7A88     		ldrh	r2, [r7, #2]
 494 004e 40F6E343 		movw	r3, #3299
 495 0052 9A42     		cmp	r2, r3
 496 0054 03D9     		bls	.L49
 713:.\Generated_Source\PSoC5/emFile_1_MMC_HW_SPI.c ****             (emFile_1_MMC_DEFAULT_SUPPLY_VOLTAGE <= Vmax))
 714:.\Generated_Source\PSoC5/emFile_1_MMC_HW_SPI.c ****         {
 715:.\Generated_Source\PSoC5/emFile_1_MMC_HW_SPI.c ****             result = emFile_1_RET_SUCCCESS;
 497              		.loc 1 715 0
 498 0056 4FF00103 		mov	r3, #1
 499 005a FB60     		str	r3, [r7, #12]
 500              		.loc 1 712 0
 501 005c 02E0     		b	.L48
 502              	.L49:
 716:.\Generated_Source\PSoC5/emFile_1_MMC_HW_SPI.c ****         }
 717:.\Generated_Source\PSoC5/emFile_1_MMC_HW_SPI.c ****         else
 718:.\Generated_Source\PSoC5/emFile_1_MMC_HW_SPI.c ****         {
 719:.\Generated_Source\PSoC5/emFile_1_MMC_HW_SPI.c ****             result = emFile_1_RET_FAIL;
 503              		.loc 1 719 0
 504 005e 4FF00003 		mov	r3, #0
 505 0062 FB60     		str	r3, [r7, #12]
 506              	.L48:
 720:.\Generated_Source\PSoC5/emFile_1_MMC_HW_SPI.c ****         }
 721:.\Generated_Source\PSoC5/emFile_1_MMC_HW_SPI.c ****         
 722:.\Generated_Source\PSoC5/emFile_1_MMC_HW_SPI.c ****         break;
 723:.\Generated_Source\PSoC5/emFile_1_MMC_HW_SPI.c ****     }
 724:.\Generated_Source\PSoC5/emFile_1_MMC_HW_SPI.c **** 
 725:.\Generated_Source\PSoC5/emFile_1_MMC_HW_SPI.c ****     return(result);
 507              		.loc 1 725 0
 508 0064 FB68     		ldr	r3, [r7, #12]
 726:.\Generated_Source\PSoC5/emFile_1_MMC_HW_SPI.c **** }
 509              		.loc 1 726 0
 510 0066 1846     		mov	r0, r3
 511 0068 07F11407 		add	r7, r7, #20
 512 006c BD46     		mov	sp, r7
 513 006e 80BC     		pop	{r7}
 514 0070 7047     		bx	lr
 515              		.cfi_endproc
 516              	.LFE35:
 517              		.size	FS_MMC_HW_X_SetVoltage, .-FS_MMC_HW_X_SetVoltage
 518 0072 00BF     		.section	.text.FS_MMC_HW_X_IsPresent,"ax",%progbits
 519              		.align	2
 520              		.global	FS_MMC_HW_X_IsPresent
 521              		.thumb
 522              		.thumb_func
 523              		.type	FS_MMC_HW_X_IsPresent, %function
 524              	FS_MMC_HW_X_IsPresent:
ARM GAS  C:\Users\karunmj\AppData\Local\Temp\cccBtoqr.s 			page 23


 525              	.LFB36:
 727:.\Generated_Source\PSoC5/emFile_1_MMC_HW_SPI.c **** 
 728:.\Generated_Source\PSoC5/emFile_1_MMC_HW_SPI.c **** 
 729:.\Generated_Source\PSoC5/emFile_1_MMC_HW_SPI.c **** /*******************************************************************************
 730:.\Generated_Source\PSoC5/emFile_1_MMC_HW_SPI.c **** * Function Name: FS_MMC_HW_X_IsPresent
 731:.\Generated_Source\PSoC5/emFile_1_MMC_HW_SPI.c **** ********************************************************************************
 732:.\Generated_Source\PSoC5/emFile_1_MMC_HW_SPI.c **** *
 733:.\Generated_Source\PSoC5/emFile_1_MMC_HW_SPI.c **** * Summary:
 734:.\Generated_Source\PSoC5/emFile_1_MMC_HW_SPI.c **** *  Returns the state of the media. If you do not know the state, return
 735:.\Generated_Source\PSoC5/emFile_1_MMC_HW_SPI.c **** *  FS_MEDIA_STATE_UNKNOWN and the higher layer will try to figure out if
 736:.\Generated_Source\PSoC5/emFile_1_MMC_HW_SPI.c **** *  a media is present.
 737:.\Generated_Source\PSoC5/emFile_1_MMC_HW_SPI.c **** *
 738:.\Generated_Source\PSoC5/emFile_1_MMC_HW_SPI.c **** * Parameters:
 739:.\Generated_Source\PSoC5/emFile_1_MMC_HW_SPI.c **** *  Unit                      - Device Index.
 740:.\Generated_Source\PSoC5/emFile_1_MMC_HW_SPI.c **** *
 741:.\Generated_Source\PSoC5/emFile_1_MMC_HW_SPI.c **** * Return:
 742:.\Generated_Source\PSoC5/emFile_1_MMC_HW_SPI.c **** *  FS_MEDIA_STATE_UNKNOWN    - Media state is unknown;
 743:.\Generated_Source\PSoC5/emFile_1_MMC_HW_SPI.c **** *  FS_MEDIA_NOT_PRESENT      - Media is not present;
 744:.\Generated_Source\PSoC5/emFile_1_MMC_HW_SPI.c **** *  FS_MEDIA_IS_PRESENT       - Media is present.
 745:.\Generated_Source\PSoC5/emFile_1_MMC_HW_SPI.c **** *
 746:.\Generated_Source\PSoC5/emFile_1_MMC_HW_SPI.c **** * Reentrant:
 747:.\Generated_Source\PSoC5/emFile_1_MMC_HW_SPI.c **** *  No
 748:.\Generated_Source\PSoC5/emFile_1_MMC_HW_SPI.c **** *
 749:.\Generated_Source\PSoC5/emFile_1_MMC_HW_SPI.c **** *******************************************************************************/
 750:.\Generated_Source\PSoC5/emFile_1_MMC_HW_SPI.c **** int FS_MMC_HW_X_IsPresent(U8 Unit)
 751:.\Generated_Source\PSoC5/emFile_1_MMC_HW_SPI.c **** {
 526              		.loc 1 751 0
 527              		.cfi_startproc
 528              		@ args = 0, pretend = 0, frame = 16
 529              		@ frame_needed = 1, uses_anonymous_args = 0
 530 0000 80B5     		push	{r7, lr}
 531              	.LCFI21:
 532              		.cfi_def_cfa_offset 8
 533 0002 84B0     		sub	sp, sp, #16
 534              	.LCFI22:
 535              		.cfi_def_cfa_offset 24
 536 0004 00AF     		add	r7, sp, #0
 537              		.cfi_offset 14, -4
 538              		.cfi_offset 7, -8
 539              	.LCFI23:
 540              		.cfi_def_cfa_register 7
 541 0006 0346     		mov	r3, r0
 542 0008 FB71     		strb	r3, [r7, #7]
 752:.\Generated_Source\PSoC5/emFile_1_MMC_HW_SPI.c ****      int result;
 753:.\Generated_Source\PSoC5/emFile_1_MMC_HW_SPI.c **** 
 754:.\Generated_Source\PSoC5/emFile_1_MMC_HW_SPI.c ****     emFile_1_Init(Unit);
 543              		.loc 1 754 0
 544 000a FB79     		ldrb	r3, [r7, #7]	@ zero_extendqisi2
 545 000c 1846     		mov	r0, r3
 546 000e FFF7FEFF 		bl	emFile_1_Init
 755:.\Generated_Source\PSoC5/emFile_1_MMC_HW_SPI.c **** 
 756:.\Generated_Source\PSoC5/emFile_1_MMC_HW_SPI.c ****     switch(Unit)
 547              		.loc 1 756 0
 548 0012 FB79     		ldrb	r3, [r7, #7]	@ zero_extendqisi2
 549 0014 03F10003 		add	r3, r3, #0
 550 0018 032B     		cmp	r3, #3
 551 001a 03D8     		bhi	.L52
ARM GAS  C:\Users\karunmj\AppData\Local\Temp\cccBtoqr.s 			page 24


 757:.\Generated_Source\PSoC5/emFile_1_MMC_HW_SPI.c ****     {
 758:.\Generated_Source\PSoC5/emFile_1_MMC_HW_SPI.c ****     case 0u:
 759:.\Generated_Source\PSoC5/emFile_1_MMC_HW_SPI.c **** 
 760:.\Generated_Source\PSoC5/emFile_1_MMC_HW_SPI.c ****     case 1u:
 761:.\Generated_Source\PSoC5/emFile_1_MMC_HW_SPI.c **** 
 762:.\Generated_Source\PSoC5/emFile_1_MMC_HW_SPI.c ****     case 2u:
 763:.\Generated_Source\PSoC5/emFile_1_MMC_HW_SPI.c **** 
 764:.\Generated_Source\PSoC5/emFile_1_MMC_HW_SPI.c ****     case 3u:
 765:.\Generated_Source\PSoC5/emFile_1_MMC_HW_SPI.c **** 
 766:.\Generated_Source\PSoC5/emFile_1_MMC_HW_SPI.c ****         result = FS_MEDIA_STATE_UNKNOWN;
 552              		.loc 1 766 0
 553 001c 4FF00203 		mov	r3, #2
 554 0020 FB60     		str	r3, [r7, #12]
 767:.\Generated_Source\PSoC5/emFile_1_MMC_HW_SPI.c ****         break;
 555              		.loc 1 767 0
 556 0022 02E0     		b	.L54
 557              	.L52:
 768:.\Generated_Source\PSoC5/emFile_1_MMC_HW_SPI.c **** 
 769:.\Generated_Source\PSoC5/emFile_1_MMC_HW_SPI.c ****     default:
 770:.\Generated_Source\PSoC5/emFile_1_MMC_HW_SPI.c **** 
 771:.\Generated_Source\PSoC5/emFile_1_MMC_HW_SPI.c ****         result = FS_MEDIA_STATE_UNKNOWN;
 558              		.loc 1 771 0
 559 0024 4FF00203 		mov	r3, #2
 560 0028 FB60     		str	r3, [r7, #12]
 561              	.L54:
 772:.\Generated_Source\PSoC5/emFile_1_MMC_HW_SPI.c ****         break;
 773:.\Generated_Source\PSoC5/emFile_1_MMC_HW_SPI.c ****     }
 774:.\Generated_Source\PSoC5/emFile_1_MMC_HW_SPI.c **** 
 775:.\Generated_Source\PSoC5/emFile_1_MMC_HW_SPI.c ****     return(result);
 562              		.loc 1 775 0
 563 002a FB68     		ldr	r3, [r7, #12]
 776:.\Generated_Source\PSoC5/emFile_1_MMC_HW_SPI.c **** }
 564              		.loc 1 776 0
 565 002c 1846     		mov	r0, r3
 566 002e 07F11007 		add	r7, r7, #16
 567 0032 BD46     		mov	sp, r7
 568 0034 80BD     		pop	{r7, pc}
 569              		.cfi_endproc
 570              	.LFE36:
 571              		.size	FS_MMC_HW_X_IsPresent, .-FS_MMC_HW_X_IsPresent
 572 0036 00BF     		.section	.text.FS_MMC_HW_X_Read,"ax",%progbits
 573              		.align	2
 574              		.global	FS_MMC_HW_X_Read
 575              		.thumb
 576              		.thumb_func
 577              		.type	FS_MMC_HW_X_Read, %function
 578              	FS_MMC_HW_X_Read:
 579              	.LFB37:
 777:.\Generated_Source\PSoC5/emFile_1_MMC_HW_SPI.c **** 
 778:.\Generated_Source\PSoC5/emFile_1_MMC_HW_SPI.c **** 
 779:.\Generated_Source\PSoC5/emFile_1_MMC_HW_SPI.c **** /*******************************************************************************
 780:.\Generated_Source\PSoC5/emFile_1_MMC_HW_SPI.c **** * Function Name: FS_MMC_HW_X_Read
 781:.\Generated_Source\PSoC5/emFile_1_MMC_HW_SPI.c **** ********************************************************************************
 782:.\Generated_Source\PSoC5/emFile_1_MMC_HW_SPI.c **** *
 783:.\Generated_Source\PSoC5/emFile_1_MMC_HW_SPI.c **** * Summary:
 784:.\Generated_Source\PSoC5/emFile_1_MMC_HW_SPI.c **** *  FS low level function. Reads a specified number of bytes from MMC card to 
 785:.\Generated_Source\PSoC5/emFile_1_MMC_HW_SPI.c **** *  buffer.
ARM GAS  C:\Users\karunmj\AppData\Local\Temp\cccBtoqr.s 			page 25


 786:.\Generated_Source\PSoC5/emFile_1_MMC_HW_SPI.c **** *
 787:.\Generated_Source\PSoC5/emFile_1_MMC_HW_SPI.c **** * Parameters:
 788:.\Generated_Source\PSoC5/emFile_1_MMC_HW_SPI.c **** *    Unit             - Device Index;
 789:.\Generated_Source\PSoC5/emFile_1_MMC_HW_SPI.c **** *    pData            - Pointer to a data buffer;
 790:.\Generated_Source\PSoC5/emFile_1_MMC_HW_SPI.c **** *    NumBytes         - Number of bytes.
 791:.\Generated_Source\PSoC5/emFile_1_MMC_HW_SPI.c **** *
 792:.\Generated_Source\PSoC5/emFile_1_MMC_HW_SPI.c **** * Return:
 793:.\Generated_Source\PSoC5/emFile_1_MMC_HW_SPI.c **** *  None
 794:.\Generated_Source\PSoC5/emFile_1_MMC_HW_SPI.c **** *
 795:.\Generated_Source\PSoC5/emFile_1_MMC_HW_SPI.c **** * Reentrant:
 796:.\Generated_Source\PSoC5/emFile_1_MMC_HW_SPI.c **** *  No
 797:.\Generated_Source\PSoC5/emFile_1_MMC_HW_SPI.c **** *
 798:.\Generated_Source\PSoC5/emFile_1_MMC_HW_SPI.c **** *******************************************************************************/
 799:.\Generated_Source\PSoC5/emFile_1_MMC_HW_SPI.c **** #if (CY_PSOC5)
 800:.\Generated_Source\PSoC5/emFile_1_MMC_HW_SPI.c ****     void  FS_MMC_HW_X_Read (U8 Unit, U8 * pData, int NumBytes)
 801:.\Generated_Source\PSoC5/emFile_1_MMC_HW_SPI.c ****     {
 580              		.loc 1 801 0
 581              		.cfi_startproc
 582              		@ args = 0, pretend = 0, frame = 16
 583              		@ frame_needed = 1, uses_anonymous_args = 0
 584 0000 80B5     		push	{r7, lr}
 585              	.LCFI24:
 586              		.cfi_def_cfa_offset 8
 587 0002 84B0     		sub	sp, sp, #16
 588              	.LCFI25:
 589              		.cfi_def_cfa_offset 24
 590 0004 00AF     		add	r7, sp, #0
 591              		.cfi_offset 14, -4
 592              		.cfi_offset 7, -8
 593              	.LCFI26:
 594              		.cfi_def_cfa_register 7
 595 0006 0346     		mov	r3, r0
 596 0008 B960     		str	r1, [r7, #8]
 597 000a 7A60     		str	r2, [r7, #4]
 598 000c FB73     		strb	r3, [r7, #15]
 599              	.L57:
 802:.\Generated_Source\PSoC5/emFile_1_MMC_HW_SPI.c ****         do
 803:.\Generated_Source\PSoC5/emFile_1_MMC_HW_SPI.c ****         {
 804:.\Generated_Source\PSoC5/emFile_1_MMC_HW_SPI.c ****             *pData++ = emFile_1_ReadWriteSPI(Unit, 0xff);
 600              		.loc 1 804 0
 601 000e FB7B     		ldrb	r3, [r7, #15]	@ zero_extendqisi2
 602 0010 1846     		mov	r0, r3
 603 0012 4FF0FF01 		mov	r1, #255
 604 0016 FFF7FEFF 		bl	emFile_1_ReadWriteSPI
 605 001a 0346     		mov	r3, r0
 606 001c 1A46     		mov	r2, r3
 607 001e BB68     		ldr	r3, [r7, #8]
 608 0020 1A70     		strb	r2, [r3, #0]
 609 0022 BB68     		ldr	r3, [r7, #8]
 610 0024 03F10103 		add	r3, r3, #1
 611 0028 BB60     		str	r3, [r7, #8]
 805:.\Generated_Source\PSoC5/emFile_1_MMC_HW_SPI.c ****         } while (--NumBytes);
 612              		.loc 1 805 0
 613 002a 7B68     		ldr	r3, [r7, #4]
 614 002c 03F1FF33 		add	r3, r3, #-1
 615 0030 7B60     		str	r3, [r7, #4]
 616 0032 7B68     		ldr	r3, [r7, #4]
ARM GAS  C:\Users\karunmj\AppData\Local\Temp\cccBtoqr.s 			page 26


 617 0034 002B     		cmp	r3, #0
 618 0036 EAD1     		bne	.L57
 806:.\Generated_Source\PSoC5/emFile_1_MMC_HW_SPI.c ****     }
 619              		.loc 1 806 0
 620 0038 07F11007 		add	r7, r7, #16
 621 003c BD46     		mov	sp, r7
 622 003e 80BD     		pop	{r7, pc}
 623              		.cfi_endproc
 624              	.LFE37:
 625              		.size	FS_MMC_HW_X_Read, .-FS_MMC_HW_X_Read
 626              		.section	.text.FS_MMC_HW_X_Write,"ax",%progbits
 627              		.align	2
 628              		.global	FS_MMC_HW_X_Write
 629              		.thumb
 630              		.thumb_func
 631              		.type	FS_MMC_HW_X_Write, %function
 632              	FS_MMC_HW_X_Write:
 633              	.LFB38:
 807:.\Generated_Source\PSoC5/emFile_1_MMC_HW_SPI.c **** #else
 808:.\Generated_Source\PSoC5/emFile_1_MMC_HW_SPI.c ****     void  FS_MMC_HW_X_Read (U8 Unit, U8 xdata * pData, int NumBytes)
 809:.\Generated_Source\PSoC5/emFile_1_MMC_HW_SPI.c ****     {
 810:.\Generated_Source\PSoC5/emFile_1_MMC_HW_SPI.c ****         do
 811:.\Generated_Source\PSoC5/emFile_1_MMC_HW_SPI.c ****         {
 812:.\Generated_Source\PSoC5/emFile_1_MMC_HW_SPI.c ****             *pData++ = emFile_1_ReadWriteSPI(Unit, 0xff);
 813:.\Generated_Source\PSoC5/emFile_1_MMC_HW_SPI.c ****         } while (--NumBytes);
 814:.\Generated_Source\PSoC5/emFile_1_MMC_HW_SPI.c ****     }
 815:.\Generated_Source\PSoC5/emFile_1_MMC_HW_SPI.c **** #endif /* (CY_PSOC5) */
 816:.\Generated_Source\PSoC5/emFile_1_MMC_HW_SPI.c **** 
 817:.\Generated_Source\PSoC5/emFile_1_MMC_HW_SPI.c **** 
 818:.\Generated_Source\PSoC5/emFile_1_MMC_HW_SPI.c **** /*******************************************************************************
 819:.\Generated_Source\PSoC5/emFile_1_MMC_HW_SPI.c **** * Function Name: FS_MMC_HW_X_Write
 820:.\Generated_Source\PSoC5/emFile_1_MMC_HW_SPI.c **** ********************************************************************************
 821:.\Generated_Source\PSoC5/emFile_1_MMC_HW_SPI.c **** *
 822:.\Generated_Source\PSoC5/emFile_1_MMC_HW_SPI.c **** * Summary:
 823:.\Generated_Source\PSoC5/emFile_1_MMC_HW_SPI.c **** *  FS low level function. Writes a specified number of bytes from
 824:.\Generated_Source\PSoC5/emFile_1_MMC_HW_SPI.c **** *  data buffer to the MMC/SD card.
 825:.\Generated_Source\PSoC5/emFile_1_MMC_HW_SPI.c **** *
 826:.\Generated_Source\PSoC5/emFile_1_MMC_HW_SPI.c **** * Parameters:
 827:.\Generated_Source\PSoC5/emFile_1_MMC_HW_SPI.c **** *    Unit             - Device Index;
 828:.\Generated_Source\PSoC5/emFile_1_MMC_HW_SPI.c **** *    pData            - Pointer to a data buffer;
 829:.\Generated_Source\PSoC5/emFile_1_MMC_HW_SPI.c **** *    NumBytes         - Number of bytes.
 830:.\Generated_Source\PSoC5/emFile_1_MMC_HW_SPI.c **** *
 831:.\Generated_Source\PSoC5/emFile_1_MMC_HW_SPI.c **** * Return:
 832:.\Generated_Source\PSoC5/emFile_1_MMC_HW_SPI.c **** *  None
 833:.\Generated_Source\PSoC5/emFile_1_MMC_HW_SPI.c **** *
 834:.\Generated_Source\PSoC5/emFile_1_MMC_HW_SPI.c **** * Reentrant:
 835:.\Generated_Source\PSoC5/emFile_1_MMC_HW_SPI.c **** *  No
 836:.\Generated_Source\PSoC5/emFile_1_MMC_HW_SPI.c **** *
 837:.\Generated_Source\PSoC5/emFile_1_MMC_HW_SPI.c **** *******************************************************************************/
 838:.\Generated_Source\PSoC5/emFile_1_MMC_HW_SPI.c **** #if (CY_PSOC5)
 839:.\Generated_Source\PSoC5/emFile_1_MMC_HW_SPI.c ****     void  FS_MMC_HW_X_Write(U8 Unit, const U8 * pData, int NumBytes) 
 840:.\Generated_Source\PSoC5/emFile_1_MMC_HW_SPI.c ****     {
 634              		.loc 1 840 0
 635              		.cfi_startproc
 636              		@ args = 0, pretend = 0, frame = 16
 637              		@ frame_needed = 1, uses_anonymous_args = 0
 638 0000 80B5     		push	{r7, lr}
ARM GAS  C:\Users\karunmj\AppData\Local\Temp\cccBtoqr.s 			page 27


 639              	.LCFI27:
 640              		.cfi_def_cfa_offset 8
 641 0002 84B0     		sub	sp, sp, #16
 642              	.LCFI28:
 643              		.cfi_def_cfa_offset 24
 644 0004 00AF     		add	r7, sp, #0
 645              		.cfi_offset 14, -4
 646              		.cfi_offset 7, -8
 647              	.LCFI29:
 648              		.cfi_def_cfa_register 7
 649 0006 0346     		mov	r3, r0
 650 0008 B960     		str	r1, [r7, #8]
 651 000a 7A60     		str	r2, [r7, #4]
 652 000c FB73     		strb	r3, [r7, #15]
 653              	.L60:
 841:.\Generated_Source\PSoC5/emFile_1_MMC_HW_SPI.c ****         do
 842:.\Generated_Source\PSoC5/emFile_1_MMC_HW_SPI.c ****         {
 843:.\Generated_Source\PSoC5/emFile_1_MMC_HW_SPI.c ****             emFile_1_ReadWriteSPI(Unit, *pData++);
 654              		.loc 1 843 0
 655 000e BB68     		ldr	r3, [r7, #8]
 656 0010 1B78     		ldrb	r3, [r3, #0]	@ zero_extendqisi2
 657 0012 BA68     		ldr	r2, [r7, #8]
 658 0014 02F10102 		add	r2, r2, #1
 659 0018 BA60     		str	r2, [r7, #8]
 660 001a FA7B     		ldrb	r2, [r7, #15]	@ zero_extendqisi2
 661 001c 1046     		mov	r0, r2
 662 001e 1946     		mov	r1, r3
 663 0020 FFF7FEFF 		bl	emFile_1_ReadWriteSPI
 844:.\Generated_Source\PSoC5/emFile_1_MMC_HW_SPI.c ****         } while (--NumBytes);
 664              		.loc 1 844 0
 665 0024 7B68     		ldr	r3, [r7, #4]
 666 0026 03F1FF33 		add	r3, r3, #-1
 667 002a 7B60     		str	r3, [r7, #4]
 668 002c 7B68     		ldr	r3, [r7, #4]
 669 002e 002B     		cmp	r3, #0
 670 0030 EDD1     		bne	.L60
 845:.\Generated_Source\PSoC5/emFile_1_MMC_HW_SPI.c ****     }
 671              		.loc 1 845 0
 672 0032 07F11007 		add	r7, r7, #16
 673 0036 BD46     		mov	sp, r7
 674 0038 80BD     		pop	{r7, pc}
 675              		.cfi_endproc
 676              	.LFE38:
 677              		.size	FS_MMC_HW_X_Write, .-FS_MMC_HW_X_Write
 678 003a 00BF     		.text
 679              	.Letext0: