ARM GAS  C:\Users\karunmj\AppData\Local\Temp\ccnGshCM.s 			page 1


   1              		.syntax unified
   2              		.cpu cortex-m3
   3              		.fpu softvfp
   4              		.eabi_attribute 20, 1
   5              		.eabi_attribute 21, 1
   6              		.eabi_attribute 23, 3
   7              		.eabi_attribute 24, 1
   8              		.eabi_attribute 25, 1
   9              		.eabi_attribute 26, 1
  10              		.eabi_attribute 30, 6
  11              		.eabi_attribute 18, 4
  12              		.thumb
  13              		.file	"Pin_1.c"
  20 0000 AC000000 		.text
  20      02005E00 
  20      00000201 
  20      FB0E0D00 
  20      01010101 
  21              	.Ltext0:
  22              		.cfi_sections	.debug_frame
  23              		.section	.text.Pin_1_Write,"ax",%progbits
  24              		.align	2
  25              		.global	Pin_1_Write
  26              		.thumb
  27              		.thumb_func
  28              		.type	Pin_1_Write, %function
  29              	Pin_1_Write:
  30              	.LFB0:
  31              		.file 1 ".\\Generated_Source\\PSoC5\\Pin_1.c"
   1:.\Generated_Source\PSoC5/Pin_1.c **** /*******************************************************************************
   2:.\Generated_Source\PSoC5/Pin_1.c **** * File Name: Pin_1.c  
   3:.\Generated_Source\PSoC5/Pin_1.c **** * Version 1.90
   4:.\Generated_Source\PSoC5/Pin_1.c **** *
   5:.\Generated_Source\PSoC5/Pin_1.c **** * Description:
   6:.\Generated_Source\PSoC5/Pin_1.c **** *  This file contains API to enable firmware control of a Pins component.
   7:.\Generated_Source\PSoC5/Pin_1.c **** *
   8:.\Generated_Source\PSoC5/Pin_1.c **** * Note:
   9:.\Generated_Source\PSoC5/Pin_1.c **** *
  10:.\Generated_Source\PSoC5/Pin_1.c **** ********************************************************************************
  11:.\Generated_Source\PSoC5/Pin_1.c **** * Copyright 2008-2012, Cypress Semiconductor Corporation.  All rights reserved.
  12:.\Generated_Source\PSoC5/Pin_1.c **** * You may use this file only in accordance with the license, terms, conditions, 
  13:.\Generated_Source\PSoC5/Pin_1.c **** * disclaimers, and limitations in the end user license agreement accompanying 
  14:.\Generated_Source\PSoC5/Pin_1.c **** * the software package with which this file was provided.
  15:.\Generated_Source\PSoC5/Pin_1.c **** *******************************************************************************/
  16:.\Generated_Source\PSoC5/Pin_1.c **** 
  17:.\Generated_Source\PSoC5/Pin_1.c **** #include "cytypes.h"
  18:.\Generated_Source\PSoC5/Pin_1.c **** #include "Pin_1.h"
  19:.\Generated_Source\PSoC5/Pin_1.c **** 
  20:.\Generated_Source\PSoC5/Pin_1.c **** /* APIs are not generated for P15[7:6] on PSoC 5 */
  21:.\Generated_Source\PSoC5/Pin_1.c **** #if !(CY_PSOC5A &&\
  22:.\Generated_Source\PSoC5/Pin_1.c **** 	 Pin_1__PORT == 15 && ((Pin_1__MASK & 0xC0) != 0))
ARM GAS  C:\Users\karunmj\AppData\Local\Temp\ccnGshCM.s 			page 2


  23:.\Generated_Source\PSoC5/Pin_1.c **** 
  24:.\Generated_Source\PSoC5/Pin_1.c **** 
  25:.\Generated_Source\PSoC5/Pin_1.c **** /*******************************************************************************
  26:.\Generated_Source\PSoC5/Pin_1.c **** * Function Name: Pin_1_Write
  27:.\Generated_Source\PSoC5/Pin_1.c **** ********************************************************************************
  28:.\Generated_Source\PSoC5/Pin_1.c **** *
  29:.\Generated_Source\PSoC5/Pin_1.c **** * Summary:
  30:.\Generated_Source\PSoC5/Pin_1.c **** *  Assign a new value to the digital port's data output register.  
  31:.\Generated_Source\PSoC5/Pin_1.c **** *
  32:.\Generated_Source\PSoC5/Pin_1.c **** * Parameters:  
  33:.\Generated_Source\PSoC5/Pin_1.c **** *  prtValue:  The value to be assigned to the Digital Port. 
  34:.\Generated_Source\PSoC5/Pin_1.c **** *
  35:.\Generated_Source\PSoC5/Pin_1.c **** * Return: 
  36:.\Generated_Source\PSoC5/Pin_1.c **** *  None
  37:.\Generated_Source\PSoC5/Pin_1.c **** *  
  38:.\Generated_Source\PSoC5/Pin_1.c **** *******************************************************************************/
  39:.\Generated_Source\PSoC5/Pin_1.c **** void Pin_1_Write(uint8 value) 
  40:.\Generated_Source\PSoC5/Pin_1.c **** {
  32              		.loc 1 40 0
  33              		.cfi_startproc
  34              		@ args = 0, pretend = 0, frame = 16
  35              		@ frame_needed = 1, uses_anonymous_args = 0
  36              		@ link register save eliminated.
  37 0000 80B4     		push	{r7}
  38              	.LCFI0:
  39              		.cfi_def_cfa_offset 4
  40 0002 85B0     		sub	sp, sp, #20
  41              	.LCFI1:
  42              		.cfi_def_cfa_offset 24
  43 0004 00AF     		add	r7, sp, #0
  44              		.cfi_offset 7, -4
  45              	.LCFI2:
  46              		.cfi_def_cfa_register 7
  47 0006 0346     		mov	r3, r0
  48 0008 FB71     		strb	r3, [r7, #7]
  41:.\Generated_Source\PSoC5/Pin_1.c ****     uint8 staticBits = (Pin_1_DR & (uint8)(~Pin_1_MASK));
  49              		.loc 1 41 0
  50 000a 45F22013 		movw	r3, #:lower16:1073762592
  51 000e C4F20003 		movt	r3, #:upper16:1073762592
  52 0012 1B78     		ldrb	r3, [r3, #0]
  53 0014 DBB2     		uxtb	r3, r3
  54 0016 23F00803 		bic	r3, r3, #8
  55 001a FB73     		strb	r3, [r7, #15]
  42:.\Generated_Source\PSoC5/Pin_1.c ****     Pin_1_DR = staticBits | ((uint8)(value << Pin_1_SHIFT) & Pin_1_MASK);
  56              		.loc 1 42 0
  57 001c 45F22013 		movw	r3, #:lower16:1073762592
  58 0020 C4F20003 		movt	r3, #:upper16:1073762592
  59 0024 FA79     		ldrb	r2, [r7, #7]
  60 0026 4FEAC202 		lsl	r2, r2, #3
  61 002a D2B2     		uxtb	r2, r2
  62 002c 02F00802 		and	r2, r2, #8
  63 0030 F97B     		ldrb	r1, [r7, #15]
  64 0032 42EA0102 		orr	r2, r2, r1
  65 0036 D2B2     		uxtb	r2, r2
  66 0038 1A70     		strb	r2, [r3, #0]
  43:.\Generated_Source\PSoC5/Pin_1.c **** }
  67              		.loc 1 43 0
ARM GAS  C:\Users\karunmj\AppData\Local\Temp\ccnGshCM.s 			page 3


  68 003a 07F11407 		add	r7, r7, #20
  69 003e BD46     		mov	sp, r7
  70 0040 80BC     		pop	{r7}
  71 0042 7047     		bx	lr
  72              		.cfi_endproc
  73              	.LFE0:
  74              		.size	Pin_1_Write, .-Pin_1_Write
  75              		.section	.text.Pin_1_SetDriveMode,"ax",%progbits
  76              		.align	2
  77              		.global	Pin_1_SetDriveMode
  78              		.thumb
  79              		.thumb_func
  80              		.type	Pin_1_SetDriveMode, %function
  81              	Pin_1_SetDriveMode:
  82              	.LFB1:
  44:.\Generated_Source\PSoC5/Pin_1.c **** 
  45:.\Generated_Source\PSoC5/Pin_1.c **** 
  46:.\Generated_Source\PSoC5/Pin_1.c **** /*******************************************************************************
  47:.\Generated_Source\PSoC5/Pin_1.c **** * Function Name: Pin_1_SetDriveMode
  48:.\Generated_Source\PSoC5/Pin_1.c **** ********************************************************************************
  49:.\Generated_Source\PSoC5/Pin_1.c **** *
  50:.\Generated_Source\PSoC5/Pin_1.c **** * Summary:
  51:.\Generated_Source\PSoC5/Pin_1.c **** *  Change the drive mode on the pins of the port.
  52:.\Generated_Source\PSoC5/Pin_1.c **** * 
  53:.\Generated_Source\PSoC5/Pin_1.c **** * Parameters:  
  54:.\Generated_Source\PSoC5/Pin_1.c **** *  mode:  Change the pins to this drive mode.
  55:.\Generated_Source\PSoC5/Pin_1.c **** *
  56:.\Generated_Source\PSoC5/Pin_1.c **** * Return: 
  57:.\Generated_Source\PSoC5/Pin_1.c **** *  None
  58:.\Generated_Source\PSoC5/Pin_1.c **** *
  59:.\Generated_Source\PSoC5/Pin_1.c **** *******************************************************************************/
  60:.\Generated_Source\PSoC5/Pin_1.c **** void Pin_1_SetDriveMode(uint8 mode) 
  61:.\Generated_Source\PSoC5/Pin_1.c **** {
  83              		.loc 1 61 0
  84              		.cfi_startproc
  85              		@ args = 0, pretend = 0, frame = 8
  86              		@ frame_needed = 1, uses_anonymous_args = 0
  87              		@ link register save eliminated.
  88 0000 80B4     		push	{r7}
  89              	.LCFI3:
  90              		.cfi_def_cfa_offset 4
  91 0002 83B0     		sub	sp, sp, #12
  92              	.LCFI4:
  93              		.cfi_def_cfa_offset 16
  94 0004 00AF     		add	r7, sp, #0
  95              		.cfi_offset 7, -4
  96              	.LCFI5:
  97              		.cfi_def_cfa_register 7
  98 0006 0346     		mov	r3, r0
  99 0008 FB71     		strb	r3, [r7, #7]
  62:.\Generated_Source\PSoC5/Pin_1.c **** 	CyPins_SetPinDriveMode(Pin_1_0, mode);
 100              		.loc 1 62 0
 101 000a 45F21303 		movw	r3, #:lower16:1073762323
 102 000e C4F20003 		movt	r3, #:upper16:1073762323
 103 0012 45F21302 		movw	r2, #:lower16:1073762323
 104 0016 C4F20002 		movt	r2, #:upper16:1073762323
 105 001a 1278     		ldrb	r2, [r2, #0]
ARM GAS  C:\Users\karunmj\AppData\Local\Temp\ccnGshCM.s 			page 4


 106 001c D2B2     		uxtb	r2, r2
 107 001e D1B2     		uxtb	r1, r2
 108 0020 01F0F101 		and	r1, r1, #241
 109 0024 FA79     		ldrb	r2, [r7, #7]	@ zero_extendqisi2
 110 0026 D2B2     		uxtb	r2, r2
 111 0028 02F00E02 		and	r2, r2, #14
 112 002c 41EA0202 		orr	r2, r1, r2
 113 0030 D2B2     		uxtb	r2, r2
 114 0032 D2B2     		uxtb	r2, r2
 115 0034 1A70     		strb	r2, [r3, #0]
  63:.\Generated_Source\PSoC5/Pin_1.c **** }
 116              		.loc 1 63 0
 117 0036 07F10C07 		add	r7, r7, #12
 118 003a BD46     		mov	sp, r7
 119 003c 80BC     		pop	{r7}
 120 003e 7047     		bx	lr
 121              		.cfi_endproc
 122              	.LFE1:
 123              		.size	Pin_1_SetDriveMode, .-Pin_1_SetDriveMode
 124              		.section	.text.Pin_1_Read,"ax",%progbits
 125              		.align	2
 126              		.global	Pin_1_Read
 127              		.thumb
 128              		.thumb_func
 129              		.type	Pin_1_Read, %function
 130              	Pin_1_Read:
 131              	.LFB2:
  64:.\Generated_Source\PSoC5/Pin_1.c **** 
  65:.\Generated_Source\PSoC5/Pin_1.c **** 
  66:.\Generated_Source\PSoC5/Pin_1.c **** /*******************************************************************************
  67:.\Generated_Source\PSoC5/Pin_1.c **** * Function Name: Pin_1_Read
  68:.\Generated_Source\PSoC5/Pin_1.c **** ********************************************************************************
  69:.\Generated_Source\PSoC5/Pin_1.c **** *
  70:.\Generated_Source\PSoC5/Pin_1.c **** * Summary:
  71:.\Generated_Source\PSoC5/Pin_1.c **** *  Read the current value on the pins of the Digital Port in right justified 
  72:.\Generated_Source\PSoC5/Pin_1.c **** *  form.
  73:.\Generated_Source\PSoC5/Pin_1.c **** *
  74:.\Generated_Source\PSoC5/Pin_1.c **** * Parameters:  
  75:.\Generated_Source\PSoC5/Pin_1.c **** *  None
  76:.\Generated_Source\PSoC5/Pin_1.c **** *
  77:.\Generated_Source\PSoC5/Pin_1.c **** * Return: 
  78:.\Generated_Source\PSoC5/Pin_1.c **** *  Returns the current value of the Digital Port as a right justified number
  79:.\Generated_Source\PSoC5/Pin_1.c **** *  
  80:.\Generated_Source\PSoC5/Pin_1.c **** * Note:
  81:.\Generated_Source\PSoC5/Pin_1.c **** *  Macro Pin_1_ReadPS calls this function. 
  82:.\Generated_Source\PSoC5/Pin_1.c **** *  
  83:.\Generated_Source\PSoC5/Pin_1.c **** *******************************************************************************/
  84:.\Generated_Source\PSoC5/Pin_1.c **** uint8 Pin_1_Read(void) 
  85:.\Generated_Source\PSoC5/Pin_1.c **** {
 132              		.loc 1 85 0
 133              		.cfi_startproc
 134              		@ args = 0, pretend = 0, frame = 0
 135              		@ frame_needed = 1, uses_anonymous_args = 0
 136              		@ link register save eliminated.
 137 0000 80B4     		push	{r7}
 138              	.LCFI6:
 139              		.cfi_def_cfa_offset 4
ARM GAS  C:\Users\karunmj\AppData\Local\Temp\ccnGshCM.s 			page 5


 140 0002 00AF     		add	r7, sp, #0
 141              		.cfi_offset 7, -4
 142              	.LCFI7:
 143              		.cfi_def_cfa_register 7
  86:.\Generated_Source\PSoC5/Pin_1.c ****     return (Pin_1_PS & Pin_1_MASK) >> Pin_1_SHIFT;
 144              		.loc 1 86 0
 145 0004 45F22113 		movw	r3, #:lower16:1073762593
 146 0008 C4F20003 		movt	r3, #:upper16:1073762593
 147 000c 1B78     		ldrb	r3, [r3, #0]
 148 000e DBB2     		uxtb	r3, r3
 149 0010 03F00803 		and	r3, r3, #8
 150 0014 4FEAD303 		lsr	r3, r3, #3
 151 0018 DBB2     		uxtb	r3, r3
  87:.\Generated_Source\PSoC5/Pin_1.c **** }
 152              		.loc 1 87 0
 153 001a 1846     		mov	r0, r3
 154 001c BD46     		mov	sp, r7
 155 001e 80BC     		pop	{r7}
 156 0020 7047     		bx	lr
 157              		.cfi_endproc
 158              	.LFE2:
 159              		.size	Pin_1_Read, .-Pin_1_Read
 160 0022 00BF     		.section	.text.Pin_1_ReadDataReg,"ax",%progbits
 161              		.align	2
 162              		.global	Pin_1_ReadDataReg
 163              		.thumb
 164              		.thumb_func
 165              		.type	Pin_1_ReadDataReg, %function
 166              	Pin_1_ReadDataReg:
 167              	.LFB3:
  88:.\Generated_Source\PSoC5/Pin_1.c **** 
  89:.\Generated_Source\PSoC5/Pin_1.c **** 
  90:.\Generated_Source\PSoC5/Pin_1.c **** /*******************************************************************************
  91:.\Generated_Source\PSoC5/Pin_1.c **** * Function Name: Pin_1_ReadDataReg
  92:.\Generated_Source\PSoC5/Pin_1.c **** ********************************************************************************
  93:.\Generated_Source\PSoC5/Pin_1.c **** *
  94:.\Generated_Source\PSoC5/Pin_1.c **** * Summary:
  95:.\Generated_Source\PSoC5/Pin_1.c **** *  Read the current value assigned to a Digital Port's data output register
  96:.\Generated_Source\PSoC5/Pin_1.c **** *
  97:.\Generated_Source\PSoC5/Pin_1.c **** * Parameters:  
  98:.\Generated_Source\PSoC5/Pin_1.c **** *  None 
  99:.\Generated_Source\PSoC5/Pin_1.c **** *
 100:.\Generated_Source\PSoC5/Pin_1.c **** * Return: 
 101:.\Generated_Source\PSoC5/Pin_1.c **** *  Returns the current value assigned to the Digital Port's data output register
 102:.\Generated_Source\PSoC5/Pin_1.c **** *  
 103:.\Generated_Source\PSoC5/Pin_1.c **** *******************************************************************************/
 104:.\Generated_Source\PSoC5/Pin_1.c **** uint8 Pin_1_ReadDataReg(void) 
 105:.\Generated_Source\PSoC5/Pin_1.c **** {
 168              		.loc 1 105 0
 169              		.cfi_startproc
 170              		@ args = 0, pretend = 0, frame = 0
 171              		@ frame_needed = 1, uses_anonymous_args = 0
 172              		@ link register save eliminated.
 173 0000 80B4     		push	{r7}
 174              	.LCFI8:
 175              		.cfi_def_cfa_offset 4
 176 0002 00AF     		add	r7, sp, #0
ARM GAS  C:\Users\karunmj\AppData\Local\Temp\ccnGshCM.s 			page 6


 177              		.cfi_offset 7, -4
 178              	.LCFI9:
 179              		.cfi_def_cfa_register 7
 106:.\Generated_Source\PSoC5/Pin_1.c ****     return (Pin_1_DR & Pin_1_MASK) >> Pin_1_SHIFT;
 180              		.loc 1 106 0
 181 0004 45F22013 		movw	r3, #:lower16:1073762592
 182 0008 C4F20003 		movt	r3, #:upper16:1073762592
 183 000c 1B78     		ldrb	r3, [r3, #0]
 184 000e DBB2     		uxtb	r3, r3
 185 0010 03F00803 		and	r3, r3, #8
 186 0014 4FEAD303 		lsr	r3, r3, #3
 187 0018 DBB2     		uxtb	r3, r3
 107:.\Generated_Source\PSoC5/Pin_1.c **** }
 188              		.loc 1 107 0
 189 001a 1846     		mov	r0, r3
 190 001c BD46     		mov	sp, r7
 191 001e 80BC     		pop	{r7}
 192 0020 7047     		bx	lr
 193              		.cfi_endproc
 194              	.LFE3:
 195              		.size	Pin_1_ReadDataReg, .-Pin_1_ReadDataReg
 196 0022 00BF     		.text
 197              	.Letext0: