ARM GAS  C:\Users\karunmj\AppData\Local\Temp\ccdxf4AS.s 			page 1


   1              		.syntax unified
   2              		.cpu cortex-m3
   3              		.fpu softvfp
   4              		.eabi_attribute 20, 1
   5              		.eabi_attribute 21, 1
   6              		.eabi_attribute 23, 3
   7              		.eabi_attribute 24, 1
   8              		.eabi_attribute 25, 1
   9              		.eabi_attribute 26, 1
  10              		.eabi_attribute 30, 6
  11              		.eabi_attribute 18, 4
  12              		.thumb
  13              		.file	"ADC_DelSig_1_INT.c"
  20 0000 93000000 		.text
  20      02004200 
  20      00000201 
  20      FB0E0D00 
  20      01010101 
  21              	.Ltext0:
  22              		.cfi_sections	.debug_frame
  23              		.section	.text.ADC_DelSig_1_ISR1,"ax",%progbits
  24              		.align	2
  25              		.global	ADC_DelSig_1_ISR1
  26              		.thumb
  27              		.thumb_func
  28              		.type	ADC_DelSig_1_ISR1, %function
  29              	ADC_DelSig_1_ISR1:
  30              	.LFB0:
  31              		.file 1 ".\\Generated_Source\\PSoC5\\ADC_DelSig_1_INT.c"
   1:.\Generated_Source\PSoC5/ADC_DelSig_1_INT.c **** /*******************************************************************************
   2:.\Generated_Source\PSoC5/ADC_DelSig_1_INT.c **** * File Name: ADC_DelSig_1_INT.c  
   3:.\Generated_Source\PSoC5/ADC_DelSig_1_INT.c **** * Version 2.30
   4:.\Generated_Source\PSoC5/ADC_DelSig_1_INT.c **** *
   5:.\Generated_Source\PSoC5/ADC_DelSig_1_INT.c **** * Description:
   6:.\Generated_Source\PSoC5/ADC_DelSig_1_INT.c **** *  This file contains the code that operates during the ADC_DelSig interrupt 
   7:.\Generated_Source\PSoC5/ADC_DelSig_1_INT.c **** *  service routine.  
   8:.\Generated_Source\PSoC5/ADC_DelSig_1_INT.c **** *
   9:.\Generated_Source\PSoC5/ADC_DelSig_1_INT.c **** * Note:
  10:.\Generated_Source\PSoC5/ADC_DelSig_1_INT.c **** *
  11:.\Generated_Source\PSoC5/ADC_DelSig_1_INT.c **** *******************************************************************************
  12:.\Generated_Source\PSoC5/ADC_DelSig_1_INT.c **** * Copyright 2008-2012, Cypress Semiconductor Corporation.  All rights reserved.
  13:.\Generated_Source\PSoC5/ADC_DelSig_1_INT.c **** * You may use this file only in accordance with the license, terms, conditions, 
  14:.\Generated_Source\PSoC5/ADC_DelSig_1_INT.c **** * disclaimers, and limitations in the end user license agreement accompanying 
  15:.\Generated_Source\PSoC5/ADC_DelSig_1_INT.c **** * the software package with which this file was provided.
  16:.\Generated_Source\PSoC5/ADC_DelSig_1_INT.c **** ********************************************************************************/
  17:.\Generated_Source\PSoC5/ADC_DelSig_1_INT.c **** 
  18:.\Generated_Source\PSoC5/ADC_DelSig_1_INT.c **** #include "ADC_DelSig_1.h"  
  19:.\Generated_Source\PSoC5/ADC_DelSig_1_INT.c **** 
  20:.\Generated_Source\PSoC5/ADC_DelSig_1_INT.c **** 
  21:.\Generated_Source\PSoC5/ADC_DelSig_1_INT.c **** /*******************************************************************************
  22:.\Generated_Source\PSoC5/ADC_DelSig_1_INT.c **** * Custom Declarations and Variables
ARM GAS  C:\Users\karunmj\AppData\Local\Temp\ccdxf4AS.s 			page 2


  23:.\Generated_Source\PSoC5/ADC_DelSig_1_INT.c **** * - add user inlcude files, prototypes and variables between the following 
  24:.\Generated_Source\PSoC5/ADC_DelSig_1_INT.c **** *   #START and #END tags
  25:.\Generated_Source\PSoC5/ADC_DelSig_1_INT.c **** *******************************************************************************/
  26:.\Generated_Source\PSoC5/ADC_DelSig_1_INT.c **** /* `#START ADC_SYS_VAR`  */
  27:.\Generated_Source\PSoC5/ADC_DelSig_1_INT.c **** 
  28:.\Generated_Source\PSoC5/ADC_DelSig_1_INT.c **** /* `#END`  */
  29:.\Generated_Source\PSoC5/ADC_DelSig_1_INT.c **** 
  30:.\Generated_Source\PSoC5/ADC_DelSig_1_INT.c **** 
  31:.\Generated_Source\PSoC5/ADC_DelSig_1_INT.c **** /*****************************************************************************
  32:.\Generated_Source\PSoC5/ADC_DelSig_1_INT.c **** * Function Name: ADC_DelSig_1_ISR1
  33:.\Generated_Source\PSoC5/ADC_DelSig_1_INT.c **** ******************************************************************************
  34:.\Generated_Source\PSoC5/ADC_DelSig_1_INT.c **** *
  35:.\Generated_Source\PSoC5/ADC_DelSig_1_INT.c **** * Summary:
  36:.\Generated_Source\PSoC5/ADC_DelSig_1_INT.c **** *  Handle Interrupt Service Routine.  
  37:.\Generated_Source\PSoC5/ADC_DelSig_1_INT.c **** *
  38:.\Generated_Source\PSoC5/ADC_DelSig_1_INT.c **** * Parameters:  
  39:.\Generated_Source\PSoC5/ADC_DelSig_1_INT.c **** *  void
  40:.\Generated_Source\PSoC5/ADC_DelSig_1_INT.c **** *
  41:.\Generated_Source\PSoC5/ADC_DelSig_1_INT.c **** * Return: 
  42:.\Generated_Source\PSoC5/ADC_DelSig_1_INT.c **** *  void 
  43:.\Generated_Source\PSoC5/ADC_DelSig_1_INT.c **** *
  44:.\Generated_Source\PSoC5/ADC_DelSig_1_INT.c **** * Reentrant: 
  45:.\Generated_Source\PSoC5/ADC_DelSig_1_INT.c **** *  No
  46:.\Generated_Source\PSoC5/ADC_DelSig_1_INT.c **** *
  47:.\Generated_Source\PSoC5/ADC_DelSig_1_INT.c **** *****************************************************************************/
  48:.\Generated_Source\PSoC5/ADC_DelSig_1_INT.c **** CY_ISR( ADC_DelSig_1_ISR1)
  49:.\Generated_Source\PSoC5/ADC_DelSig_1_INT.c **** {
  32              		.loc 1 49 0
  33              		.cfi_startproc
  34              		@ args = 0, pretend = 0, frame = 0
  35              		@ frame_needed = 1, uses_anonymous_args = 0
  36              		@ link register save eliminated.
  37 0000 80B4     		push	{r7}
  38              	.LCFI0:
  39              		.cfi_def_cfa_offset 4
  40 0002 00AF     		add	r7, sp, #0
  41              		.cfi_offset 7, -4
  42              	.LCFI1:
  43              		.cfi_def_cfa_register 7
  50:.\Generated_Source\PSoC5/ADC_DelSig_1_INT.c ****     /***************************************************************************
  51:.\Generated_Source\PSoC5/ADC_DelSig_1_INT.c ****     *  Custom Code
  52:.\Generated_Source\PSoC5/ADC_DelSig_1_INT.c ****     *  - add user ISR code between the following #START and #END tags
  53:.\Generated_Source\PSoC5/ADC_DelSig_1_INT.c ****     **************************************************************************/
  54:.\Generated_Source\PSoC5/ADC_DelSig_1_INT.c ****     /* `#START MAIN_ADC_ISR1`  */
  55:.\Generated_Source\PSoC5/ADC_DelSig_1_INT.c **** 
  56:.\Generated_Source\PSoC5/ADC_DelSig_1_INT.c ****     /* `#END`  */
  57:.\Generated_Source\PSoC5/ADC_DelSig_1_INT.c ****     
  58:.\Generated_Source\PSoC5/ADC_DelSig_1_INT.c ****     /* Stop the conversion if conversion mode is single sample and resolution
  59:.\Generated_Source\PSoC5/ADC_DelSig_1_INT.c ****        is above 16 bits. 
  60:.\Generated_Source\PSoC5/ADC_DelSig_1_INT.c ****     */
  61:.\Generated_Source\PSoC5/ADC_DelSig_1_INT.c ****     #if(ADC_DelSig_1_CFG1_RESOLUTION > 16 && \
  62:.\Generated_Source\PSoC5/ADC_DelSig_1_INT.c ****         ADC_DelSig_1_CFG1_CONV_MODE == ADC_DelSig_1_MODE_SINGLE_SAMPLE) 
  63:.\Generated_Source\PSoC5/ADC_DelSig_1_INT.c ****         ADC_DelSig_1_StopConvert(); 
  64:.\Generated_Source\PSoC5/ADC_DelSig_1_INT.c ****     #endif /* Single sample conversion mode with resolution above 16 bits */         
  65:.\Generated_Source\PSoC5/ADC_DelSig_1_INT.c ****         
  66:.\Generated_Source\PSoC5/ADC_DelSig_1_INT.c **** }
  44              		.loc 1 66 0
ARM GAS  C:\Users\karunmj\AppData\Local\Temp\ccdxf4AS.s 			page 3


  45 0004 BD46     		mov	sp, r7
  46 0006 80BC     		pop	{r7}
  47 0008 7047     		bx	lr
  48              		.cfi_endproc
  49              	.LFE0:
  50              		.size	ADC_DelSig_1_ISR1, .-ADC_DelSig_1_ISR1
  51 000a 00BF     		.section	.text.ADC_DelSig_1_ISR2,"ax",%progbits
  52              		.align	2
  53              		.global	ADC_DelSig_1_ISR2
  54              		.thumb
  55              		.thumb_func
  56              		.type	ADC_DelSig_1_ISR2, %function
  57              	ADC_DelSig_1_ISR2:
  58              	.LFB1:
  67:.\Generated_Source\PSoC5/ADC_DelSig_1_INT.c **** 
  68:.\Generated_Source\PSoC5/ADC_DelSig_1_INT.c **** 
  69:.\Generated_Source\PSoC5/ADC_DelSig_1_INT.c **** /*****************************************************************************
  70:.\Generated_Source\PSoC5/ADC_DelSig_1_INT.c **** * Function Name: ADC_DelSig_1_ISR2
  71:.\Generated_Source\PSoC5/ADC_DelSig_1_INT.c **** ******************************************************************************
  72:.\Generated_Source\PSoC5/ADC_DelSig_1_INT.c **** *
  73:.\Generated_Source\PSoC5/ADC_DelSig_1_INT.c **** * Summary:
  74:.\Generated_Source\PSoC5/ADC_DelSig_1_INT.c **** *  Handle Interrupt Service Routine.  
  75:.\Generated_Source\PSoC5/ADC_DelSig_1_INT.c **** *
  76:.\Generated_Source\PSoC5/ADC_DelSig_1_INT.c **** * Parameters:  
  77:.\Generated_Source\PSoC5/ADC_DelSig_1_INT.c **** *  void
  78:.\Generated_Source\PSoC5/ADC_DelSig_1_INT.c **** *
  79:.\Generated_Source\PSoC5/ADC_DelSig_1_INT.c **** * Return: 
  80:.\Generated_Source\PSoC5/ADC_DelSig_1_INT.c **** *  void 
  81:.\Generated_Source\PSoC5/ADC_DelSig_1_INT.c **** *
  82:.\Generated_Source\PSoC5/ADC_DelSig_1_INT.c **** * Reentrant: 
  83:.\Generated_Source\PSoC5/ADC_DelSig_1_INT.c **** *  No
  84:.\Generated_Source\PSoC5/ADC_DelSig_1_INT.c **** *
  85:.\Generated_Source\PSoC5/ADC_DelSig_1_INT.c **** *****************************************************************************/
  86:.\Generated_Source\PSoC5/ADC_DelSig_1_INT.c **** CY_ISR( ADC_DelSig_1_ISR2)
  87:.\Generated_Source\PSoC5/ADC_DelSig_1_INT.c **** {
  59              		.loc 1 87 0
  60              		.cfi_startproc
  61              		@ args = 0, pretend = 0, frame = 0
  62              		@ frame_needed = 1, uses_anonymous_args = 0
  63              		@ link register save eliminated.
  64 0000 80B4     		push	{r7}
  65              	.LCFI2:
  66              		.cfi_def_cfa_offset 4
  67 0002 00AF     		add	r7, sp, #0
  68              		.cfi_offset 7, -4
  69              	.LCFI3:
  70              		.cfi_def_cfa_register 7
  88:.\Generated_Source\PSoC5/ADC_DelSig_1_INT.c ****     /***************************************************************************
  89:.\Generated_Source\PSoC5/ADC_DelSig_1_INT.c ****     *  Custom Code
  90:.\Generated_Source\PSoC5/ADC_DelSig_1_INT.c ****     *  - add user ISR code between the following #START and #END tags
  91:.\Generated_Source\PSoC5/ADC_DelSig_1_INT.c ****     **************************************************************************/
  92:.\Generated_Source\PSoC5/ADC_DelSig_1_INT.c ****     /* `#START MAIN_ADC_ISR2`  */
  93:.\Generated_Source\PSoC5/ADC_DelSig_1_INT.c **** 
  94:.\Generated_Source\PSoC5/ADC_DelSig_1_INT.c ****     /* `#END`  */
  95:.\Generated_Source\PSoC5/ADC_DelSig_1_INT.c ****     
  96:.\Generated_Source\PSoC5/ADC_DelSig_1_INT.c ****     /* Stop the conversion conversion mode is single sample and resolution
  97:.\Generated_Source\PSoC5/ADC_DelSig_1_INT.c ****        is above 16 bits.
ARM GAS  C:\Users\karunmj\AppData\Local\Temp\ccdxf4AS.s 			page 4


  98:.\Generated_Source\PSoC5/ADC_DelSig_1_INT.c ****     */
  99:.\Generated_Source\PSoC5/ADC_DelSig_1_INT.c ****     #if(ADC_DelSig_1_CFG2_RESOLUTION > 16 && \
 100:.\Generated_Source\PSoC5/ADC_DelSig_1_INT.c ****         ADC_DelSig_1_CFG2_CONVMODE == ADC_DelSig_1_MODE_SINGLE_SAMPLE) 
 101:.\Generated_Source\PSoC5/ADC_DelSig_1_INT.c ****         ADC_DelSig_1_StopConvert(); 
 102:.\Generated_Source\PSoC5/ADC_DelSig_1_INT.c ****     #endif /* Single sample conversion mode with resolution above 16 bits */
 103:.\Generated_Source\PSoC5/ADC_DelSig_1_INT.c ****     
 104:.\Generated_Source\PSoC5/ADC_DelSig_1_INT.c **** }
  71              		.loc 1 104 0
  72 0004 BD46     		mov	sp, r7
  73 0006 80BC     		pop	{r7}
  74 0008 7047     		bx	lr
  75              		.cfi_endproc
  76              	.LFE1:
  77              		.size	ADC_DelSig_1_ISR2, .-ADC_DelSig_1_ISR2
  78 000a 00BF     		.section	.text.ADC_DelSig_1_ISR3,"ax",%progbits
  79              		.align	2
  80              		.global	ADC_DelSig_1_ISR3
  81              		.thumb
  82              		.thumb_func
  83              		.type	ADC_DelSig_1_ISR3, %function
  84              	ADC_DelSig_1_ISR3:
  85              	.LFB2:
 105:.\Generated_Source\PSoC5/ADC_DelSig_1_INT.c **** 
 106:.\Generated_Source\PSoC5/ADC_DelSig_1_INT.c **** 
 107:.\Generated_Source\PSoC5/ADC_DelSig_1_INT.c **** /*****************************************************************************
 108:.\Generated_Source\PSoC5/ADC_DelSig_1_INT.c **** * Function Name: ADC_DelSig_1_ISR3
 109:.\Generated_Source\PSoC5/ADC_DelSig_1_INT.c **** ******************************************************************************
 110:.\Generated_Source\PSoC5/ADC_DelSig_1_INT.c **** *
 111:.\Generated_Source\PSoC5/ADC_DelSig_1_INT.c **** * Summary:
 112:.\Generated_Source\PSoC5/ADC_DelSig_1_INT.c **** *  Handle Interrupt Service Routine.  
 113:.\Generated_Source\PSoC5/ADC_DelSig_1_INT.c **** *
 114:.\Generated_Source\PSoC5/ADC_DelSig_1_INT.c **** * Parameters:  
 115:.\Generated_Source\PSoC5/ADC_DelSig_1_INT.c **** *  void
 116:.\Generated_Source\PSoC5/ADC_DelSig_1_INT.c **** *
 117:.\Generated_Source\PSoC5/ADC_DelSig_1_INT.c **** * Return: 
 118:.\Generated_Source\PSoC5/ADC_DelSig_1_INT.c **** *  void 
 119:.\Generated_Source\PSoC5/ADC_DelSig_1_INT.c **** *
 120:.\Generated_Source\PSoC5/ADC_DelSig_1_INT.c **** * Reentrant: 
 121:.\Generated_Source\PSoC5/ADC_DelSig_1_INT.c **** *  No
 122:.\Generated_Source\PSoC5/ADC_DelSig_1_INT.c **** *
 123:.\Generated_Source\PSoC5/ADC_DelSig_1_INT.c **** *****************************************************************************/
 124:.\Generated_Source\PSoC5/ADC_DelSig_1_INT.c **** CY_ISR( ADC_DelSig_1_ISR3)
 125:.\Generated_Source\PSoC5/ADC_DelSig_1_INT.c **** {
  86              		.loc 1 125 0
  87              		.cfi_startproc
  88              		@ args = 0, pretend = 0, frame = 0
  89              		@ frame_needed = 1, uses_anonymous_args = 0
  90              		@ link register save eliminated.
  91 0000 80B4     		push	{r7}
  92              	.LCFI4:
  93              		.cfi_def_cfa_offset 4
  94 0002 00AF     		add	r7, sp, #0
  95              		.cfi_offset 7, -4
  96              	.LCFI5:
  97              		.cfi_def_cfa_register 7
 126:.\Generated_Source\PSoC5/ADC_DelSig_1_INT.c ****     /***************************************************************************
 127:.\Generated_Source\PSoC5/ADC_DelSig_1_INT.c ****     *  Custom Code
ARM GAS  C:\Users\karunmj\AppData\Local\Temp\ccdxf4AS.s 			page 5


 128:.\Generated_Source\PSoC5/ADC_DelSig_1_INT.c ****     *  - add user ISR code between the following #START and #END tags
 129:.\Generated_Source\PSoC5/ADC_DelSig_1_INT.c ****     **************************************************************************/
 130:.\Generated_Source\PSoC5/ADC_DelSig_1_INT.c ****     /* `#START MAIN_ADC_ISR3`  */
 131:.\Generated_Source\PSoC5/ADC_DelSig_1_INT.c **** 
 132:.\Generated_Source\PSoC5/ADC_DelSig_1_INT.c ****     /* `#END`  */
 133:.\Generated_Source\PSoC5/ADC_DelSig_1_INT.c **** 
 134:.\Generated_Source\PSoC5/ADC_DelSig_1_INT.c ****     /* Stop the conversion if conversion mode is set to single sample and 
 135:.\Generated_Source\PSoC5/ADC_DelSig_1_INT.c ****        resolution is above 16 bits. 
 136:.\Generated_Source\PSoC5/ADC_DelSig_1_INT.c ****     */
 137:.\Generated_Source\PSoC5/ADC_DelSig_1_INT.c ****     #if(ADC_DelSig_1_CFG3_RESOLUTION > 16 && \
 138:.\Generated_Source\PSoC5/ADC_DelSig_1_INT.c ****         ADC_DelSig_1_CFG3_CONVMODE == ADC_DelSig_1_MODE_SINGLE_SAMPLE) 
 139:.\Generated_Source\PSoC5/ADC_DelSig_1_INT.c ****         ADC_DelSig_1_StopConvert(); 
 140:.\Generated_Source\PSoC5/ADC_DelSig_1_INT.c ****     #endif /* Single sample conversion mode with resolution above 16 bits */  
 141:.\Generated_Source\PSoC5/ADC_DelSig_1_INT.c **** }
  98              		.loc 1 141 0
  99 0004 BD46     		mov	sp, r7
 100 0006 80BC     		pop	{r7}
 101 0008 7047     		bx	lr
 102              		.cfi_endproc
 103              	.LFE2:
 104              		.size	ADC_DelSig_1_ISR3, .-ADC_DelSig_1_ISR3
 105 000a 00BF     		.section	.text.ADC_DelSig_1_ISR4,"ax",%progbits
 106              		.align	2
 107              		.global	ADC_DelSig_1_ISR4
 108              		.thumb
 109              		.thumb_func
 110              		.type	ADC_DelSig_1_ISR4, %function
 111              	ADC_DelSig_1_ISR4:
 112              	.LFB3:
 142:.\Generated_Source\PSoC5/ADC_DelSig_1_INT.c **** 
 143:.\Generated_Source\PSoC5/ADC_DelSig_1_INT.c **** 
 144:.\Generated_Source\PSoC5/ADC_DelSig_1_INT.c **** /*****************************************************************************
 145:.\Generated_Source\PSoC5/ADC_DelSig_1_INT.c **** * Function Name: ADC_DelSig_1_ISR4
 146:.\Generated_Source\PSoC5/ADC_DelSig_1_INT.c **** ******************************************************************************
 147:.\Generated_Source\PSoC5/ADC_DelSig_1_INT.c **** *
 148:.\Generated_Source\PSoC5/ADC_DelSig_1_INT.c **** * Summary:
 149:.\Generated_Source\PSoC5/ADC_DelSig_1_INT.c **** *  Handle Interrupt Service Routine.  
 150:.\Generated_Source\PSoC5/ADC_DelSig_1_INT.c **** *
 151:.\Generated_Source\PSoC5/ADC_DelSig_1_INT.c **** * Parameters:  
 152:.\Generated_Source\PSoC5/ADC_DelSig_1_INT.c **** *  void
 153:.\Generated_Source\PSoC5/ADC_DelSig_1_INT.c **** *
 154:.\Generated_Source\PSoC5/ADC_DelSig_1_INT.c **** * Return: 
 155:.\Generated_Source\PSoC5/ADC_DelSig_1_INT.c **** *  void 
 156:.\Generated_Source\PSoC5/ADC_DelSig_1_INT.c **** *
 157:.\Generated_Source\PSoC5/ADC_DelSig_1_INT.c **** * Reentrant: 
 158:.\Generated_Source\PSoC5/ADC_DelSig_1_INT.c **** *  No
 159:.\Generated_Source\PSoC5/ADC_DelSig_1_INT.c **** *
 160:.\Generated_Source\PSoC5/ADC_DelSig_1_INT.c **** *****************************************************************************/
 161:.\Generated_Source\PSoC5/ADC_DelSig_1_INT.c **** CY_ISR( ADC_DelSig_1_ISR4)
 162:.\Generated_Source\PSoC5/ADC_DelSig_1_INT.c **** {
 113              		.loc 1 162 0
 114              		.cfi_startproc
 115              		@ args = 0, pretend = 0, frame = 0
 116              		@ frame_needed = 1, uses_anonymous_args = 0
 117              		@ link register save eliminated.
 118 0000 80B4     		push	{r7}
 119              	.LCFI6:
ARM GAS  C:\Users\karunmj\AppData\Local\Temp\ccdxf4AS.s 			page 6


 120              		.cfi_def_cfa_offset 4
 121 0002 00AF     		add	r7, sp, #0
 122              		.cfi_offset 7, -4
 123              	.LCFI7:
 124              		.cfi_def_cfa_register 7
 163:.\Generated_Source\PSoC5/ADC_DelSig_1_INT.c ****     /***************************************************************************
 164:.\Generated_Source\PSoC5/ADC_DelSig_1_INT.c ****     *  Custom Code
 165:.\Generated_Source\PSoC5/ADC_DelSig_1_INT.c ****     *  - add user ISR code between the following #START and #END tags
 166:.\Generated_Source\PSoC5/ADC_DelSig_1_INT.c ****     **************************************************************************/
 167:.\Generated_Source\PSoC5/ADC_DelSig_1_INT.c ****     /* `#START MAIN_ADC_ISR4`  */
 168:.\Generated_Source\PSoC5/ADC_DelSig_1_INT.c **** 
 169:.\Generated_Source\PSoC5/ADC_DelSig_1_INT.c ****     /* `#END`  */
 170:.\Generated_Source\PSoC5/ADC_DelSig_1_INT.c ****     
 171:.\Generated_Source\PSoC5/ADC_DelSig_1_INT.c ****     /* Stop the conversion if conversion mode is set to single sample and 
 172:.\Generated_Source\PSoC5/ADC_DelSig_1_INT.c ****        resolution is above 16 bits. 
 173:.\Generated_Source\PSoC5/ADC_DelSig_1_INT.c ****     */
 174:.\Generated_Source\PSoC5/ADC_DelSig_1_INT.c ****     #if(ADC_DelSig_1_CFG4_RESOLUTION > 16 && \
 175:.\Generated_Source\PSoC5/ADC_DelSig_1_INT.c ****         ADC_DelSig_1_CFG4_CONVMODE == ADC_DelSig_1_MODE_SINGLE_SAMPLE) 
 176:.\Generated_Source\PSoC5/ADC_DelSig_1_INT.c ****         ADC_DelSig_1_StopConvert(); 
 177:.\Generated_Source\PSoC5/ADC_DelSig_1_INT.c ****     #endif /* Single sample conversion mode with resolution above 16 bits */
 178:.\Generated_Source\PSoC5/ADC_DelSig_1_INT.c **** }
 125              		.loc 1 178 0
 126 0004 BD46     		mov	sp, r7
 127 0006 80BC     		pop	{r7}
 128 0008 7047     		bx	lr
 129              		.cfi_endproc
 130              	.LFE3:
 131              		.size	ADC_DelSig_1_ISR4, .-ADC_DelSig_1_ISR4
 132 000a 00BF     		.text
 133              	.Letext0: