ARM GAS  C:\Users\karunmj\AppData\Local\Temp\ccoJ4cNM.s 			page 1


   1              		.syntax unified
   2              		.cpu cortex-m3
   3              		.fpu softvfp
   4              		.eabi_attribute 20, 1
   5              		.eabi_attribute 21, 1
   6              		.eabi_attribute 23, 3
   7              		.eabi_attribute 24, 1
   8              		.eabi_attribute 25, 1
   9              		.eabi_attribute 26, 1
  10              		.eabi_attribute 30, 6
  11              		.eabi_attribute 18, 4
  12              		.thumb
  13              		.file	"ADC_SAR_Seq_1.c"
  20 0000 45020000 		.text
  20      0200A200 
  20      00000201 
  20      FB0E0D00 
  20      01010101 
  21              	.Ltext0:
  22              		.cfi_sections	.debug_frame
  23              		.bss
  24              		.align	2
  25              	ADC_SAR_Seq_1_tempArray:
  26 0000 0000     		.space	2
  27              		.comm	ADC_SAR_Seq_1_finalArray,2,4
  28              		.global	ADC_SAR_Seq_1_initVar
  29 0002 0000     		.align	2
  30              		.type	ADC_SAR_Seq_1_initVar, %object
  31              		.size	ADC_SAR_Seq_1_initVar, 4
  32              	ADC_SAR_Seq_1_initVar:
  33 0004 00000000 		.space	4
  34              	ADC_SAR_Seq_1_tempChan:
  35 0008 00       		.space	1
  36              	ADC_SAR_Seq_1_finalChan:
  37 0009 00       		.space	1
  38              	ADC_SAR_Seq_1_tempTD:
  39 000a 00       		.space	1
  40              	ADC_SAR_Seq_1_finalTD:
  41 000b 00       		.space	1
  42              		.section	.text.ADC_SAR_Seq_1_TempBufDmaInit,"ax",%progbits
  43              		.align	2
  44              		.thumb
  45              		.thumb_func
  46              		.type	ADC_SAR_Seq_1_TempBufDmaInit, %function
  47              	ADC_SAR_Seq_1_TempBufDmaInit:
  48              	.LFB0:
  49              		.file 1 ".\\Generated_Source\\PSoC5\\ADC_SAR_Seq_1.c"
   1:.\Generated_Source\PSoC5/ADC_SAR_Seq_1.c **** /*******************************************************************************
   2:.\Generated_Source\PSoC5/ADC_SAR_Seq_1.c **** * File Name: ADC_SAR_Seq_1.c
   3:.\Generated_Source\PSoC5/ADC_SAR_Seq_1.c **** * Version 1.0
   4:.\Generated_Source\PSoC5/ADC_SAR_Seq_1.c **** *
ARM GAS  C:\Users\karunmj\AppData\Local\Temp\ccoJ4cNM.s 			page 2


   5:.\Generated_Source\PSoC5/ADC_SAR_Seq_1.c **** * Description:
   6:.\Generated_Source\PSoC5/ADC_SAR_Seq_1.c **** *  This file provides the API functionality of the ADC SAR Sequencer Component
   7:.\Generated_Source\PSoC5/ADC_SAR_Seq_1.c **** *
   8:.\Generated_Source\PSoC5/ADC_SAR_Seq_1.c **** * Note:
   9:.\Generated_Source\PSoC5/ADC_SAR_Seq_1.c **** *  None
  10:.\Generated_Source\PSoC5/ADC_SAR_Seq_1.c **** *
  11:.\Generated_Source\PSoC5/ADC_SAR_Seq_1.c **** ********************************************************************************
  12:.\Generated_Source\PSoC5/ADC_SAR_Seq_1.c **** * Copyright 2012, Cypress Semiconductor Corporation.  All rights reserved.
  13:.\Generated_Source\PSoC5/ADC_SAR_Seq_1.c **** * You may use this file only in accordance with the license, terms, conditions,
  14:.\Generated_Source\PSoC5/ADC_SAR_Seq_1.c **** * disclaimers, and limitations in the end user license agreement accompanying
  15:.\Generated_Source\PSoC5/ADC_SAR_Seq_1.c **** * the software package with which this file was provided.
  16:.\Generated_Source\PSoC5/ADC_SAR_Seq_1.c **** *******************************************************************************/
  17:.\Generated_Source\PSoC5/ADC_SAR_Seq_1.c **** 
  18:.\Generated_Source\PSoC5/ADC_SAR_Seq_1.c **** #include "ADC_SAR_Seq_1.h"
  19:.\Generated_Source\PSoC5/ADC_SAR_Seq_1.c **** #include "ADC_SAR_Seq_1_SAR.h"
  20:.\Generated_Source\PSoC5/ADC_SAR_Seq_1.c **** #if(ADC_SAR_Seq_1_IRQ_REMOVE == 0u)
  21:.\Generated_Source\PSoC5/ADC_SAR_Seq_1.c ****     #include <ADC_SAR_Seq_1_IRQ.H>
  22:.\Generated_Source\PSoC5/ADC_SAR_Seq_1.c **** #endif   /* End ADC_SAR_Seq_1_IRQ_REMOVE */
  23:.\Generated_Source\PSoC5/ADC_SAR_Seq_1.c **** 
  24:.\Generated_Source\PSoC5/ADC_SAR_Seq_1.c **** static void ADC_SAR_Seq_1_TempBufDmaInit(void);
  25:.\Generated_Source\PSoC5/ADC_SAR_Seq_1.c **** static void ADC_SAR_Seq_1_TempBufDmaRelease(void);
  26:.\Generated_Source\PSoC5/ADC_SAR_Seq_1.c **** 
  27:.\Generated_Source\PSoC5/ADC_SAR_Seq_1.c **** static void ADC_SAR_Seq_1_FinalBufDmaInit(void);
  28:.\Generated_Source\PSoC5/ADC_SAR_Seq_1.c **** static void ADC_SAR_Seq_1_FinalBufDmaRelease(void);
  29:.\Generated_Source\PSoC5/ADC_SAR_Seq_1.c **** 
  30:.\Generated_Source\PSoC5/ADC_SAR_Seq_1.c **** static int16 ADC_SAR_Seq_1_tempArray[ADC_SAR_Seq_1_NUMBER_OF_CHANNELS];
  31:.\Generated_Source\PSoC5/ADC_SAR_Seq_1.c **** int16  ADC_SAR_Seq_1_finalArray[ADC_SAR_Seq_1_NUMBER_OF_CHANNELS];
  32:.\Generated_Source\PSoC5/ADC_SAR_Seq_1.c **** uint32 ADC_SAR_Seq_1_initVar = 0u;
  33:.\Generated_Source\PSoC5/ADC_SAR_Seq_1.c **** static uint8 ADC_SAR_Seq_1_tempChan;
  34:.\Generated_Source\PSoC5/ADC_SAR_Seq_1.c **** static uint8 ADC_SAR_Seq_1_finalChan;
  35:.\Generated_Source\PSoC5/ADC_SAR_Seq_1.c **** static uint8 ADC_SAR_Seq_1_tempTD;
  36:.\Generated_Source\PSoC5/ADC_SAR_Seq_1.c **** static uint8 ADC_SAR_Seq_1_finalTD;
  37:.\Generated_Source\PSoC5/ADC_SAR_Seq_1.c **** 
  38:.\Generated_Source\PSoC5/ADC_SAR_Seq_1.c **** 
  39:.\Generated_Source\PSoC5/ADC_SAR_Seq_1.c **** /*******************************************************************************
  40:.\Generated_Source\PSoC5/ADC_SAR_Seq_1.c **** * Function Name: ADC_SAR_Seq_1_TempBufDmaInit()
  41:.\Generated_Source\PSoC5/ADC_SAR_Seq_1.c **** ********************************************************************************
  42:.\Generated_Source\PSoC5/ADC_SAR_Seq_1.c **** *
  43:.\Generated_Source\PSoC5/ADC_SAR_Seq_1.c **** * Summary:
  44:.\Generated_Source\PSoC5/ADC_SAR_Seq_1.c **** *  Provides initialization procedure for the TempBuf DMA
  45:.\Generated_Source\PSoC5/ADC_SAR_Seq_1.c **** *
  46:.\Generated_Source\PSoC5/ADC_SAR_Seq_1.c **** * Parameters:
  47:.\Generated_Source\PSoC5/ADC_SAR_Seq_1.c **** *  None.
  48:.\Generated_Source\PSoC5/ADC_SAR_Seq_1.c **** *
  49:.\Generated_Source\PSoC5/ADC_SAR_Seq_1.c **** * Return:
  50:.\Generated_Source\PSoC5/ADC_SAR_Seq_1.c **** *  None.
  51:.\Generated_Source\PSoC5/ADC_SAR_Seq_1.c **** *
  52:.\Generated_Source\PSoC5/ADC_SAR_Seq_1.c **** * Side Effects:
  53:.\Generated_Source\PSoC5/ADC_SAR_Seq_1.c **** *  None.
  54:.\Generated_Source\PSoC5/ADC_SAR_Seq_1.c **** *
  55:.\Generated_Source\PSoC5/ADC_SAR_Seq_1.c **** * Reentrant:
  56:.\Generated_Source\PSoC5/ADC_SAR_Seq_1.c **** *  No.
  57:.\Generated_Source\PSoC5/ADC_SAR_Seq_1.c **** *
  58:.\Generated_Source\PSoC5/ADC_SAR_Seq_1.c **** *******************************************************************************/
  59:.\Generated_Source\PSoC5/ADC_SAR_Seq_1.c **** static void ADC_SAR_Seq_1_TempBufDmaInit(void)
  60:.\Generated_Source\PSoC5/ADC_SAR_Seq_1.c **** {
  50              		.loc 1 60 0
ARM GAS  C:\Users\karunmj\AppData\Local\Temp\ccoJ4cNM.s 			page 3


  51              		.cfi_startproc
  52              		@ args = 0, pretend = 0, frame = 0
  53              		@ frame_needed = 1, uses_anonymous_args = 0
  54 0000 80B5     		push	{r7, lr}
  55              	.LCFI0:
  56              		.cfi_def_cfa_offset 8
  57 0002 00AF     		add	r7, sp, #0
  58              		.cfi_offset 14, -4
  59              		.cfi_offset 7, -8
  60              	.LCFI1:
  61              		.cfi_def_cfa_register 7
  61:.\Generated_Source\PSoC5/ADC_SAR_Seq_1.c ****     ADC_SAR_Seq_1_tempTD = CyDmaTdAllocate();
  62              		.loc 1 61 0
  63 0004 FFF7FEFF 		bl	CyDmaTdAllocate
  64 0008 0346     		mov	r3, r0
  65 000a 1A46     		mov	r2, r3
  66 000c 40F20003 		movw	r3, #:lower16:ADC_SAR_Seq_1_tempTD
  67 0010 C0F20003 		movt	r3, #:upper16:ADC_SAR_Seq_1_tempTD
  68 0014 1A70     		strb	r2, [r3, #0]
  62:.\Generated_Source\PSoC5/ADC_SAR_Seq_1.c **** 
  63:.\Generated_Source\PSoC5/ADC_SAR_Seq_1.c ****     /* Configure this Td as follows:
  64:.\Generated_Source\PSoC5/ADC_SAR_Seq_1.c ****     *  - The TD is looping on itself
  65:.\Generated_Source\PSoC5/ADC_SAR_Seq_1.c ****     *  - Increment the destination address, but not the source address
  66:.\Generated_Source\PSoC5/ADC_SAR_Seq_1.c ****     */
  67:.\Generated_Source\PSoC5/ADC_SAR_Seq_1.c ****     (void) CyDmaTdSetConfiguration(ADC_SAR_Seq_1_tempTD, ADC_SAR_Seq_1_TEMP_TRANSFER_COUNT,
  69              		.loc 1 67 0
  70 0016 40F20003 		movw	r3, #:lower16:ADC_SAR_Seq_1_tempTD
  71 001a C0F20003 		movt	r3, #:upper16:ADC_SAR_Seq_1_tempTD
  72 001e 1A78     		ldrb	r2, [r3, #0]	@ zero_extendqisi2
  73 0020 40F20003 		movw	r3, #:lower16:ADC_SAR_Seq_1_tempTD
  74 0024 C0F20003 		movt	r3, #:upper16:ADC_SAR_Seq_1_tempTD
  75 0028 1B78     		ldrb	r3, [r3, #0]	@ zero_extendqisi2
  76 002a 1046     		mov	r0, r2
  77 002c 4FF00201 		mov	r1, #2
  78 0030 1A46     		mov	r2, r3
  79 0032 4FF00603 		mov	r3, #6
  80 0036 FFF7FEFF 		bl	CyDmaTdSetConfiguration
  68:.\Generated_Source\PSoC5/ADC_SAR_Seq_1.c ****         ADC_SAR_Seq_1_tempTD, ((uint8)ADC_SAR_Seq_1_TempBuf__TD_TERMOUT_EN | (uint8)TD_INC_DST_ADR)
  69:.\Generated_Source\PSoC5/ADC_SAR_Seq_1.c **** 
  70:.\Generated_Source\PSoC5/ADC_SAR_Seq_1.c ****     /* From the SAR to the TempArray */
  71:.\Generated_Source\PSoC5/ADC_SAR_Seq_1.c ****     (void) CyDmaTdSetAddress(ADC_SAR_Seq_1_tempTD, (uint16)(LO16((uint32)ADC_SAR_Seq_1_SAR_DATA_ADD
  81              		.loc 1 71 0
  82 003a 40F20003 		movw	r3, #:lower16:ADC_SAR_Seq_1_tempTD
  83 003e C0F20003 		movt	r3, #:upper16:ADC_SAR_Seq_1_tempTD
  84 0042 1A78     		ldrb	r2, [r3, #0]	@ zero_extendqisi2
  85 0044 40F20003 		movw	r3, #:lower16:ADC_SAR_Seq_1_tempArray
  86 0048 C0F20003 		movt	r3, #:upper16:ADC_SAR_Seq_1_tempArray
  87 004c 9BB2     		uxth	r3, r3
  88 004e 1046     		mov	r0, r2
  89 0050 45F6A031 		movw	r1, #23456
  90 0054 1A46     		mov	r2, r3
  91 0056 FFF7FEFF 		bl	CyDmaTdSetAddress
  72:.\Generated_Source\PSoC5/ADC_SAR_Seq_1.c ****         (uint16)(LO16((uint32)ADC_SAR_Seq_1_tempArray)));
  73:.\Generated_Source\PSoC5/ADC_SAR_Seq_1.c **** 
  74:.\Generated_Source\PSoC5/ADC_SAR_Seq_1.c ****     /* Associate the TD with the channel */
  75:.\Generated_Source\PSoC5/ADC_SAR_Seq_1.c ****     (void) CyDmaChSetInitialTd(ADC_SAR_Seq_1_tempChan, ADC_SAR_Seq_1_tempTD);
  92              		.loc 1 75 0
ARM GAS  C:\Users\karunmj\AppData\Local\Temp\ccoJ4cNM.s 			page 4


  93 005a 40F20003 		movw	r3, #:lower16:ADC_SAR_Seq_1_tempChan
  94 005e C0F20003 		movt	r3, #:upper16:ADC_SAR_Seq_1_tempChan
  95 0062 1A78     		ldrb	r2, [r3, #0]	@ zero_extendqisi2
  96 0064 40F20003 		movw	r3, #:lower16:ADC_SAR_Seq_1_tempTD
  97 0068 C0F20003 		movt	r3, #:upper16:ADC_SAR_Seq_1_tempTD
  98 006c 1B78     		ldrb	r3, [r3, #0]	@ zero_extendqisi2
  99 006e 1046     		mov	r0, r2
 100 0070 1946     		mov	r1, r3
 101 0072 FFF7FEFF 		bl	CyDmaChSetInitialTd
  76:.\Generated_Source\PSoC5/ADC_SAR_Seq_1.c **** }
 102              		.loc 1 76 0
 103 0076 80BD     		pop	{r7, pc}
 104              		.cfi_endproc
 105              	.LFE0:
 106              		.size	ADC_SAR_Seq_1_TempBufDmaInit, .-ADC_SAR_Seq_1_TempBufDmaInit
 107              		.section	.text.ADC_SAR_Seq_1_TempBufDmaRelease,"ax",%progbits
 108              		.align	2
 109              		.thumb
 110              		.thumb_func
 111              		.type	ADC_SAR_Seq_1_TempBufDmaRelease, %function
 112              	ADC_SAR_Seq_1_TempBufDmaRelease:
 113              	.LFB1:
  77:.\Generated_Source\PSoC5/ADC_SAR_Seq_1.c **** 
  78:.\Generated_Source\PSoC5/ADC_SAR_Seq_1.c **** 
  79:.\Generated_Source\PSoC5/ADC_SAR_Seq_1.c **** /*******************************************************************************
  80:.\Generated_Source\PSoC5/ADC_SAR_Seq_1.c **** * Function Name: ADC_SAR_Seq_1_TempBufDmaRelease()
  81:.\Generated_Source\PSoC5/ADC_SAR_Seq_1.c **** ********************************************************************************
  82:.\Generated_Source\PSoC5/ADC_SAR_Seq_1.c **** *
  83:.\Generated_Source\PSoC5/ADC_SAR_Seq_1.c **** * Summary:
  84:.\Generated_Source\PSoC5/ADC_SAR_Seq_1.c **** *  Provides release procedure for the TempBuf DMA
  85:.\Generated_Source\PSoC5/ADC_SAR_Seq_1.c **** *
  86:.\Generated_Source\PSoC5/ADC_SAR_Seq_1.c **** * Parameters:
  87:.\Generated_Source\PSoC5/ADC_SAR_Seq_1.c **** *  None.
  88:.\Generated_Source\PSoC5/ADC_SAR_Seq_1.c **** *
  89:.\Generated_Source\PSoC5/ADC_SAR_Seq_1.c **** * Return:
  90:.\Generated_Source\PSoC5/ADC_SAR_Seq_1.c **** *  None.
  91:.\Generated_Source\PSoC5/ADC_SAR_Seq_1.c **** *
  92:.\Generated_Source\PSoC5/ADC_SAR_Seq_1.c **** * Side Effects:
  93:.\Generated_Source\PSoC5/ADC_SAR_Seq_1.c **** *  None.
  94:.\Generated_Source\PSoC5/ADC_SAR_Seq_1.c **** *
  95:.\Generated_Source\PSoC5/ADC_SAR_Seq_1.c **** * Reentrant:
  96:.\Generated_Source\PSoC5/ADC_SAR_Seq_1.c **** *  No.
  97:.\Generated_Source\PSoC5/ADC_SAR_Seq_1.c **** *
  98:.\Generated_Source\PSoC5/ADC_SAR_Seq_1.c **** *******************************************************************************/
  99:.\Generated_Source\PSoC5/ADC_SAR_Seq_1.c **** static void ADC_SAR_Seq_1_TempBufDmaRelease(void)
 100:.\Generated_Source\PSoC5/ADC_SAR_Seq_1.c **** {
 114              		.loc 1 100 0
 115              		.cfi_startproc
 116              		@ args = 0, pretend = 0, frame = 0
 117              		@ frame_needed = 1, uses_anonymous_args = 0
 118 0000 80B5     		push	{r7, lr}
 119              	.LCFI2:
 120              		.cfi_def_cfa_offset 8
 121 0002 00AF     		add	r7, sp, #0
 122              		.cfi_offset 14, -4
 123              		.cfi_offset 7, -8
 124              	.LCFI3:
ARM GAS  C:\Users\karunmj\AppData\Local\Temp\ccoJ4cNM.s 			page 5


 125              		.cfi_def_cfa_register 7
 101:.\Generated_Source\PSoC5/ADC_SAR_Seq_1.c ****     (void) CyDmaChDisable(ADC_SAR_Seq_1_tempChan);
 126              		.loc 1 101 0
 127 0004 40F20003 		movw	r3, #:lower16:ADC_SAR_Seq_1_tempChan
 128 0008 C0F20003 		movt	r3, #:upper16:ADC_SAR_Seq_1_tempChan
 129 000c 1B78     		ldrb	r3, [r3, #0]	@ zero_extendqisi2
 130 000e 1846     		mov	r0, r3
 131 0010 FFF7FEFF 		bl	CyDmaChDisable
 132              	.L4:
 102:.\Generated_Source\PSoC5/ADC_SAR_Seq_1.c **** 
 103:.\Generated_Source\PSoC5/ADC_SAR_Seq_1.c ****     /* Clear any potential DMA requests and re-reset TD pointers */
 104:.\Generated_Source\PSoC5/ADC_SAR_Seq_1.c ****     while(0u != (CY_DMA_CH_STRUCT_PTR[ADC_SAR_Seq_1_tempChan].basic_status[0u] & CY_DMA_STATUS_TD_A
 133              		.loc 1 104 0
 134 0014 40F20003 		movw	r3, #:lower16:ADC_SAR_Seq_1_tempChan
 135 0018 C0F20003 		movt	r3, #:upper16:ADC_SAR_Seq_1_tempChan
 136 001c 1B78     		ldrb	r3, [r3, #0]	@ zero_extendqisi2
 137 001e 4FEA0312 		lsl	r2, r3, #4
 138 0022 47F21003 		movw	r3, #:lower16:1073770512
 139 0026 C4F20003 		movt	r3, #:upper16:1073770512
 140 002a 1344     		add	r3, r2, r3
 141 002c 1B7A     		ldrb	r3, [r3, #8]
 142 002e DBB2     		uxtb	r3, r3
 143 0030 03F00203 		and	r3, r3, #2
 144 0034 002B     		cmp	r3, #0
 145 0036 EDD1     		bne	.L4
 105:.\Generated_Source\PSoC5/ADC_SAR_Seq_1.c ****     {
 106:.\Generated_Source\PSoC5/ADC_SAR_Seq_1.c ****         ; /* Wait for to be cleared */
 107:.\Generated_Source\PSoC5/ADC_SAR_Seq_1.c ****     }
 108:.\Generated_Source\PSoC5/ADC_SAR_Seq_1.c **** 
 109:.\Generated_Source\PSoC5/ADC_SAR_Seq_1.c ****     (void) CyDmaChSetRequest(ADC_SAR_Seq_1_tempChan, CY_DMA_CPU_TERM_CHAIN);
 146              		.loc 1 109 0
 147 0038 40F20003 		movw	r3, #:lower16:ADC_SAR_Seq_1_tempChan
 148 003c C0F20003 		movt	r3, #:upper16:ADC_SAR_Seq_1_tempChan
 149 0040 1B78     		ldrb	r3, [r3, #0]	@ zero_extendqisi2
 150 0042 1846     		mov	r0, r3
 151 0044 4FF00401 		mov	r1, #4
 152 0048 FFF7FEFF 		bl	CyDmaChSetRequest
 110:.\Generated_Source\PSoC5/ADC_SAR_Seq_1.c ****     (void) CyDmaChEnable    (ADC_SAR_Seq_1_tempChan, 1u);
 153              		.loc 1 110 0
 154 004c 40F20003 		movw	r3, #:lower16:ADC_SAR_Seq_1_tempChan
 155 0050 C0F20003 		movt	r3, #:upper16:ADC_SAR_Seq_1_tempChan
 156 0054 1B78     		ldrb	r3, [r3, #0]	@ zero_extendqisi2
 157 0056 1846     		mov	r0, r3
 158 0058 4FF00101 		mov	r1, #1
 159 005c FFF7FEFF 		bl	CyDmaChEnable
 160              	.L5:
 111:.\Generated_Source\PSoC5/ADC_SAR_Seq_1.c **** 
 112:.\Generated_Source\PSoC5/ADC_SAR_Seq_1.c ****     while(0u != (CY_DMA_CH_STRUCT_PTR[ADC_SAR_Seq_1_tempChan].basic_cfg[0u] & CY_DMA_STATUS_CHAIN_A
 161              		.loc 1 112 0
 162 0060 40F20003 		movw	r3, #:lower16:ADC_SAR_Seq_1_tempChan
 163 0064 C0F20003 		movt	r3, #:upper16:ADC_SAR_Seq_1_tempChan
 164 0068 1B78     		ldrb	r3, [r3, #0]	@ zero_extendqisi2
 165 006a 4FEA0312 		lsl	r2, r3, #4
 166 006e 47F21003 		movw	r3, #:lower16:1073770512
 167 0072 C4F20003 		movt	r3, #:upper16:1073770512
 168 0076 1344     		add	r3, r2, r3
 169 0078 1B78     		ldrb	r3, [r3, #0]
ARM GAS  C:\Users\karunmj\AppData\Local\Temp\ccoJ4cNM.s 			page 6


 170 007a DBB2     		uxtb	r3, r3
 171 007c 03F00103 		and	r3, r3, #1
 172 0080 DBB2     		uxtb	r3, r3
 173 0082 002B     		cmp	r3, #0
 174 0084 ECD1     		bne	.L5
 113:.\Generated_Source\PSoC5/ADC_SAR_Seq_1.c ****         {
 114:.\Generated_Source\PSoC5/ADC_SAR_Seq_1.c ****             ; /* Wait for to be cleared */
 115:.\Generated_Source\PSoC5/ADC_SAR_Seq_1.c ****         }
 116:.\Generated_Source\PSoC5/ADC_SAR_Seq_1.c **** 
 117:.\Generated_Source\PSoC5/ADC_SAR_Seq_1.c ****     /* Release allocated TD and mark it as invalid */
 118:.\Generated_Source\PSoC5/ADC_SAR_Seq_1.c ****     CyDmaTdFree(ADC_SAR_Seq_1_tempTD);
 175              		.loc 1 118 0
 176 0086 40F20003 		movw	r3, #:lower16:ADC_SAR_Seq_1_tempTD
 177 008a C0F20003 		movt	r3, #:upper16:ADC_SAR_Seq_1_tempTD
 178 008e 1B78     		ldrb	r3, [r3, #0]	@ zero_extendqisi2
 179 0090 1846     		mov	r0, r3
 180 0092 FFF7FEFF 		bl	CyDmaTdFree
 119:.\Generated_Source\PSoC5/ADC_SAR_Seq_1.c ****     ADC_SAR_Seq_1_tempTD = CY_DMA_INVALID_TD;
 181              		.loc 1 119 0
 182 0096 40F20003 		movw	r3, #:lower16:ADC_SAR_Seq_1_tempTD
 183 009a C0F20003 		movt	r3, #:upper16:ADC_SAR_Seq_1_tempTD
 184 009e 4FF0FF32 		mov	r2, #-1
 185 00a2 1A70     		strb	r2, [r3, #0]
 120:.\Generated_Source\PSoC5/ADC_SAR_Seq_1.c **** 
 121:.\Generated_Source\PSoC5/ADC_SAR_Seq_1.c **** }
 186              		.loc 1 121 0
 187 00a4 80BD     		pop	{r7, pc}
 188              		.cfi_endproc
 189              	.LFE1:
 190              		.size	ADC_SAR_Seq_1_TempBufDmaRelease, .-ADC_SAR_Seq_1_TempBufDmaRelease
 191 00a6 00BF     		.section	.text.ADC_SAR_Seq_1_FinalBufDmaInit,"ax",%progbits
 192              		.align	2
 193              		.thumb
 194              		.thumb_func
 195              		.type	ADC_SAR_Seq_1_FinalBufDmaInit, %function
 196              	ADC_SAR_Seq_1_FinalBufDmaInit:
 197              	.LFB2:
 122:.\Generated_Source\PSoC5/ADC_SAR_Seq_1.c **** 
 123:.\Generated_Source\PSoC5/ADC_SAR_Seq_1.c **** 
 124:.\Generated_Source\PSoC5/ADC_SAR_Seq_1.c **** /****************************************************************************
 125:.\Generated_Source\PSoC5/ADC_SAR_Seq_1.c **** * Function Name: ADC_SAR_Seq_1_FinalBufDmaInit()
 126:.\Generated_Source\PSoC5/ADC_SAR_Seq_1.c **** *****************************************************************************
 127:.\Generated_Source\PSoC5/ADC_SAR_Seq_1.c **** *
 128:.\Generated_Source\PSoC5/ADC_SAR_Seq_1.c **** * Summary:
 129:.\Generated_Source\PSoC5/ADC_SAR_Seq_1.c **** *  Provides initialization procedure for the FinalBuf DMA
 130:.\Generated_Source\PSoC5/ADC_SAR_Seq_1.c **** *
 131:.\Generated_Source\PSoC5/ADC_SAR_Seq_1.c **** * Parameters:
 132:.\Generated_Source\PSoC5/ADC_SAR_Seq_1.c **** *  None.
 133:.\Generated_Source\PSoC5/ADC_SAR_Seq_1.c **** *
 134:.\Generated_Source\PSoC5/ADC_SAR_Seq_1.c **** * Return:
 135:.\Generated_Source\PSoC5/ADC_SAR_Seq_1.c **** *  None.
 136:.\Generated_Source\PSoC5/ADC_SAR_Seq_1.c **** *
 137:.\Generated_Source\PSoC5/ADC_SAR_Seq_1.c **** * Side Effects:
 138:.\Generated_Source\PSoC5/ADC_SAR_Seq_1.c **** *  None.
 139:.\Generated_Source\PSoC5/ADC_SAR_Seq_1.c **** *
 140:.\Generated_Source\PSoC5/ADC_SAR_Seq_1.c **** * Reentrant:
 141:.\Generated_Source\PSoC5/ADC_SAR_Seq_1.c **** *  No.
ARM GAS  C:\Users\karunmj\AppData\Local\Temp\ccoJ4cNM.s 			page 7


 142:.\Generated_Source\PSoC5/ADC_SAR_Seq_1.c **** *
 143:.\Generated_Source\PSoC5/ADC_SAR_Seq_1.c **** ****************************************************************************/
 144:.\Generated_Source\PSoC5/ADC_SAR_Seq_1.c **** static void ADC_SAR_Seq_1_FinalBufDmaInit(void)
 145:.\Generated_Source\PSoC5/ADC_SAR_Seq_1.c **** {
 198              		.loc 1 145 0
 199              		.cfi_startproc
 200              		@ args = 0, pretend = 0, frame = 0
 201              		@ frame_needed = 1, uses_anonymous_args = 0
 202 0000 80B5     		push	{r7, lr}
 203              	.LCFI4:
 204              		.cfi_def_cfa_offset 8
 205 0002 00AF     		add	r7, sp, #0
 206              		.cfi_offset 14, -4
 207              		.cfi_offset 7, -8
 208              	.LCFI5:
 209              		.cfi_def_cfa_register 7
 146:.\Generated_Source\PSoC5/ADC_SAR_Seq_1.c ****     ADC_SAR_Seq_1_finalTD = CyDmaTdAllocate();
 210              		.loc 1 146 0
 211 0004 FFF7FEFF 		bl	CyDmaTdAllocate
 212 0008 0346     		mov	r3, r0
 213 000a 1A46     		mov	r2, r3
 214 000c 40F20003 		movw	r3, #:lower16:ADC_SAR_Seq_1_finalTD
 215 0010 C0F20003 		movt	r3, #:upper16:ADC_SAR_Seq_1_finalTD
 216 0014 1A70     		strb	r2, [r3, #0]
 147:.\Generated_Source\PSoC5/ADC_SAR_Seq_1.c **** 
 148:.\Generated_Source\PSoC5/ADC_SAR_Seq_1.c ****     /* Configure this Td as follows:
 149:.\Generated_Source\PSoC5/ADC_SAR_Seq_1.c ****     *  - The TD is looping on itself
 150:.\Generated_Source\PSoC5/ADC_SAR_Seq_1.c ****     *  - Increment the source and destination address
 151:.\Generated_Source\PSoC5/ADC_SAR_Seq_1.c ****     */
 152:.\Generated_Source\PSoC5/ADC_SAR_Seq_1.c ****     (void) CyDmaTdSetConfiguration(ADC_SAR_Seq_1_finalTD, ((uint16)ADC_SAR_Seq_1_FINAL_BYTES_PER_BU
 217              		.loc 1 152 0
 218 0016 40F20003 		movw	r3, #:lower16:ADC_SAR_Seq_1_finalTD
 219 001a C0F20003 		movt	r3, #:upper16:ADC_SAR_Seq_1_finalTD
 220 001e 1A78     		ldrb	r2, [r3, #0]	@ zero_extendqisi2
 221 0020 40F20003 		movw	r3, #:lower16:ADC_SAR_Seq_1_finalTD
 222 0024 C0F20003 		movt	r3, #:upper16:ADC_SAR_Seq_1_finalTD
 223 0028 1B78     		ldrb	r3, [r3, #0]	@ zero_extendqisi2
 224 002a 1046     		mov	r0, r2
 225 002c 4FF00201 		mov	r1, #2
 226 0030 1A46     		mov	r2, r3
 227 0032 4FF00703 		mov	r3, #7
 228 0036 FFF7FEFF 		bl	CyDmaTdSetConfiguration
 153:.\Generated_Source\PSoC5/ADC_SAR_Seq_1.c ****         ADC_SAR_Seq_1_finalTD, ((uint8)(ADC_SAR_Seq_1_FinalBuf__TD_TERMOUT_EN) | (uint8)TD_INC_SRC_
 154:.\Generated_Source\PSoC5/ADC_SAR_Seq_1.c ****             (uint8)TD_INC_DST_ADR));
 155:.\Generated_Source\PSoC5/ADC_SAR_Seq_1.c **** 
 156:.\Generated_Source\PSoC5/ADC_SAR_Seq_1.c ****     /* From the the TempArray to Final Array */
 157:.\Generated_Source\PSoC5/ADC_SAR_Seq_1.c ****     (void) CyDmaTdSetAddress(ADC_SAR_Seq_1_finalTD, (uint16)(LO16((uint32)ADC_SAR_Seq_1_tempArray))
 229              		.loc 1 157 0
 230 003a 40F20003 		movw	r3, #:lower16:ADC_SAR_Seq_1_finalTD
 231 003e C0F20003 		movt	r3, #:upper16:ADC_SAR_Seq_1_finalTD
 232 0042 1978     		ldrb	r1, [r3, #0]	@ zero_extendqisi2
 233 0044 40F20003 		movw	r3, #:lower16:ADC_SAR_Seq_1_tempArray
 234 0048 C0F20003 		movt	r3, #:upper16:ADC_SAR_Seq_1_tempArray
 235 004c 9AB2     		uxth	r2, r3
 236 004e 40F20003 		movw	r3, #:lower16:ADC_SAR_Seq_1_finalArray
 237 0052 C0F20003 		movt	r3, #:upper16:ADC_SAR_Seq_1_finalArray
 238 0056 9BB2     		uxth	r3, r3
ARM GAS  C:\Users\karunmj\AppData\Local\Temp\ccoJ4cNM.s 			page 8


 239 0058 0846     		mov	r0, r1
 240 005a 1146     		mov	r1, r2
 241 005c 1A46     		mov	r2, r3
 242 005e FFF7FEFF 		bl	CyDmaTdSetAddress
 158:.\Generated_Source\PSoC5/ADC_SAR_Seq_1.c ****         (uint16)(LO16((uint32)ADC_SAR_Seq_1_finalArray)));
 159:.\Generated_Source\PSoC5/ADC_SAR_Seq_1.c **** 
 160:.\Generated_Source\PSoC5/ADC_SAR_Seq_1.c ****     /* Associate the TD with the channel */
 161:.\Generated_Source\PSoC5/ADC_SAR_Seq_1.c ****     (void) CyDmaChSetInitialTd(ADC_SAR_Seq_1_finalChan, ADC_SAR_Seq_1_finalTD);
 243              		.loc 1 161 0
 244 0062 40F20003 		movw	r3, #:lower16:ADC_SAR_Seq_1_finalChan
 245 0066 C0F20003 		movt	r3, #:upper16:ADC_SAR_Seq_1_finalChan
 246 006a 1A78     		ldrb	r2, [r3, #0]	@ zero_extendqisi2
 247 006c 40F20003 		movw	r3, #:lower16:ADC_SAR_Seq_1_finalTD
 248 0070 C0F20003 		movt	r3, #:upper16:ADC_SAR_Seq_1_finalTD
 249 0074 1B78     		ldrb	r3, [r3, #0]	@ zero_extendqisi2
 250 0076 1046     		mov	r0, r2
 251 0078 1946     		mov	r1, r3
 252 007a FFF7FEFF 		bl	CyDmaChSetInitialTd
 162:.\Generated_Source\PSoC5/ADC_SAR_Seq_1.c **** }
 253              		.loc 1 162 0
 254 007e 80BD     		pop	{r7, pc}
 255              		.cfi_endproc
 256              	.LFE2:
 257              		.size	ADC_SAR_Seq_1_FinalBufDmaInit, .-ADC_SAR_Seq_1_FinalBufDmaInit
 258              		.section	.text.ADC_SAR_Seq_1_FinalBufDmaRelease,"ax",%progbits
 259              		.align	2
 260              		.thumb
 261              		.thumb_func
 262              		.type	ADC_SAR_Seq_1_FinalBufDmaRelease, %function
 263              	ADC_SAR_Seq_1_FinalBufDmaRelease:
 264              	.LFB3:
 163:.\Generated_Source\PSoC5/ADC_SAR_Seq_1.c **** 
 164:.\Generated_Source\PSoC5/ADC_SAR_Seq_1.c **** 
 165:.\Generated_Source\PSoC5/ADC_SAR_Seq_1.c **** /****************************************************************************
 166:.\Generated_Source\PSoC5/ADC_SAR_Seq_1.c **** * Function Name: ADC_SAR_Seq_1_FinalBufDmaRelease()
 167:.\Generated_Source\PSoC5/ADC_SAR_Seq_1.c **** *****************************************************************************
 168:.\Generated_Source\PSoC5/ADC_SAR_Seq_1.c **** *
 169:.\Generated_Source\PSoC5/ADC_SAR_Seq_1.c **** * Summary:
 170:.\Generated_Source\PSoC5/ADC_SAR_Seq_1.c **** *  Provides release procedure for the FinalBuf DMA.
 171:.\Generated_Source\PSoC5/ADC_SAR_Seq_1.c **** *
 172:.\Generated_Source\PSoC5/ADC_SAR_Seq_1.c **** * Parameters:
 173:.\Generated_Source\PSoC5/ADC_SAR_Seq_1.c **** *  None.
 174:.\Generated_Source\PSoC5/ADC_SAR_Seq_1.c **** *
 175:.\Generated_Source\PSoC5/ADC_SAR_Seq_1.c **** * Return:
 176:.\Generated_Source\PSoC5/ADC_SAR_Seq_1.c **** *  None.
 177:.\Generated_Source\PSoC5/ADC_SAR_Seq_1.c **** *
 178:.\Generated_Source\PSoC5/ADC_SAR_Seq_1.c **** * Side Effects:
 179:.\Generated_Source\PSoC5/ADC_SAR_Seq_1.c **** *  None.
 180:.\Generated_Source\PSoC5/ADC_SAR_Seq_1.c **** *
 181:.\Generated_Source\PSoC5/ADC_SAR_Seq_1.c **** * Reentrant:
 182:.\Generated_Source\PSoC5/ADC_SAR_Seq_1.c **** *  No.
 183:.\Generated_Source\PSoC5/ADC_SAR_Seq_1.c **** *
 184:.\Generated_Source\PSoC5/ADC_SAR_Seq_1.c **** ****************************************************************************/
 185:.\Generated_Source\PSoC5/ADC_SAR_Seq_1.c **** static void ADC_SAR_Seq_1_FinalBufDmaRelease(void)
 186:.\Generated_Source\PSoC5/ADC_SAR_Seq_1.c **** {
 265              		.loc 1 186 0
 266              		.cfi_startproc
ARM GAS  C:\Users\karunmj\AppData\Local\Temp\ccoJ4cNM.s 			page 9


 267              		@ args = 0, pretend = 0, frame = 0
 268              		@ frame_needed = 1, uses_anonymous_args = 0
 269 0000 80B5     		push	{r7, lr}
 270              	.LCFI6:
 271              		.cfi_def_cfa_offset 8
 272 0002 00AF     		add	r7, sp, #0
 273              		.cfi_offset 14, -4
 274              		.cfi_offset 7, -8
 275              	.LCFI7:
 276              		.cfi_def_cfa_register 7
 187:.\Generated_Source\PSoC5/ADC_SAR_Seq_1.c ****     (void) CyDmaChDisable(ADC_SAR_Seq_1_finalChan);
 277              		.loc 1 187 0
 278 0004 40F20003 		movw	r3, #:lower16:ADC_SAR_Seq_1_finalChan
 279 0008 C0F20003 		movt	r3, #:upper16:ADC_SAR_Seq_1_finalChan
 280 000c 1B78     		ldrb	r3, [r3, #0]	@ zero_extendqisi2
 281 000e 1846     		mov	r0, r3
 282 0010 FFF7FEFF 		bl	CyDmaChDisable
 283              	.L10:
 188:.\Generated_Source\PSoC5/ADC_SAR_Seq_1.c **** 
 189:.\Generated_Source\PSoC5/ADC_SAR_Seq_1.c ****     /* Clear any potential DMA requests and re-reset TD pointers */
 190:.\Generated_Source\PSoC5/ADC_SAR_Seq_1.c ****     while(0u != (CY_DMA_CH_STRUCT_PTR[ADC_SAR_Seq_1_finalChan].basic_status[0u] & CY_DMA_STATUS_TD_
 284              		.loc 1 190 0
 285 0014 40F20003 		movw	r3, #:lower16:ADC_SAR_Seq_1_finalChan
 286 0018 C0F20003 		movt	r3, #:upper16:ADC_SAR_Seq_1_finalChan
 287 001c 1B78     		ldrb	r3, [r3, #0]	@ zero_extendqisi2
 288 001e 4FEA0312 		lsl	r2, r3, #4
 289 0022 47F21003 		movw	r3, #:lower16:1073770512
 290 0026 C4F20003 		movt	r3, #:upper16:1073770512
 291 002a 1344     		add	r3, r2, r3
 292 002c 1B7A     		ldrb	r3, [r3, #8]
 293 002e DBB2     		uxtb	r3, r3
 294 0030 03F00203 		and	r3, r3, #2
 295 0034 002B     		cmp	r3, #0
 296 0036 EDD1     		bne	.L10
 191:.\Generated_Source\PSoC5/ADC_SAR_Seq_1.c ****     {
 192:.\Generated_Source\PSoC5/ADC_SAR_Seq_1.c ****         ; /* Wait for to be cleared */
 193:.\Generated_Source\PSoC5/ADC_SAR_Seq_1.c ****     }
 194:.\Generated_Source\PSoC5/ADC_SAR_Seq_1.c **** 
 195:.\Generated_Source\PSoC5/ADC_SAR_Seq_1.c ****     (void) CyDmaChSetRequest(ADC_SAR_Seq_1_finalChan, CY_DMA_CPU_TERM_CHAIN);
 297              		.loc 1 195 0
 298 0038 40F20003 		movw	r3, #:lower16:ADC_SAR_Seq_1_finalChan
 299 003c C0F20003 		movt	r3, #:upper16:ADC_SAR_Seq_1_finalChan
 300 0040 1B78     		ldrb	r3, [r3, #0]	@ zero_extendqisi2
 301 0042 1846     		mov	r0, r3
 302 0044 4FF00401 		mov	r1, #4
 303 0048 FFF7FEFF 		bl	CyDmaChSetRequest
 196:.\Generated_Source\PSoC5/ADC_SAR_Seq_1.c ****     (void) CyDmaChEnable    (ADC_SAR_Seq_1_finalChan, 1u);
 304              		.loc 1 196 0
 305 004c 40F20003 		movw	r3, #:lower16:ADC_SAR_Seq_1_finalChan
 306 0050 C0F20003 		movt	r3, #:upper16:ADC_SAR_Seq_1_finalChan
 307 0054 1B78     		ldrb	r3, [r3, #0]	@ zero_extendqisi2
 308 0056 1846     		mov	r0, r3
 309 0058 4FF00101 		mov	r1, #1
 310 005c FFF7FEFF 		bl	CyDmaChEnable
 311              	.L11:
 197:.\Generated_Source\PSoC5/ADC_SAR_Seq_1.c **** 
 198:.\Generated_Source\PSoC5/ADC_SAR_Seq_1.c ****     while(0u != (CY_DMA_CH_STRUCT_PTR[ADC_SAR_Seq_1_finalChan].basic_cfg[0u] & CY_DMA_STATUS_CHAIN_
ARM GAS  C:\Users\karunmj\AppData\Local\Temp\ccoJ4cNM.s 			page 10


 312              		.loc 1 198 0
 313 0060 40F20003 		movw	r3, #:lower16:ADC_SAR_Seq_1_finalChan
 314 0064 C0F20003 		movt	r3, #:upper16:ADC_SAR_Seq_1_finalChan
 315 0068 1B78     		ldrb	r3, [r3, #0]	@ zero_extendqisi2
 316 006a 4FEA0312 		lsl	r2, r3, #4
 317 006e 47F21003 		movw	r3, #:lower16:1073770512
 318 0072 C4F20003 		movt	r3, #:upper16:1073770512
 319 0076 1344     		add	r3, r2, r3
 320 0078 1B78     		ldrb	r3, [r3, #0]
 321 007a DBB2     		uxtb	r3, r3
 322 007c 03F00103 		and	r3, r3, #1
 323 0080 DBB2     		uxtb	r3, r3
 324 0082 002B     		cmp	r3, #0
 325 0084 ECD1     		bne	.L11
 199:.\Generated_Source\PSoC5/ADC_SAR_Seq_1.c ****         {
 200:.\Generated_Source\PSoC5/ADC_SAR_Seq_1.c ****             ; /* Wait for to be cleared */
 201:.\Generated_Source\PSoC5/ADC_SAR_Seq_1.c ****         }
 202:.\Generated_Source\PSoC5/ADC_SAR_Seq_1.c **** 
 203:.\Generated_Source\PSoC5/ADC_SAR_Seq_1.c ****     /* Release allocated TD and mark it as invalid */
 204:.\Generated_Source\PSoC5/ADC_SAR_Seq_1.c ****     CyDmaTdFree(ADC_SAR_Seq_1_finalTD);
 326              		.loc 1 204 0
 327 0086 40F20003 		movw	r3, #:lower16:ADC_SAR_Seq_1_finalTD
 328 008a C0F20003 		movt	r3, #:upper16:ADC_SAR_Seq_1_finalTD
 329 008e 1B78     		ldrb	r3, [r3, #0]	@ zero_extendqisi2
 330 0090 1846     		mov	r0, r3
 331 0092 FFF7FEFF 		bl	CyDmaTdFree
 205:.\Generated_Source\PSoC5/ADC_SAR_Seq_1.c ****     ADC_SAR_Seq_1_finalTD = CY_DMA_INVALID_TD;
 332              		.loc 1 205 0
 333 0096 40F20003 		movw	r3, #:lower16:ADC_SAR_Seq_1_finalTD
 334 009a C0F20003 		movt	r3, #:upper16:ADC_SAR_Seq_1_finalTD
 335 009e 4FF0FF32 		mov	r2, #-1
 336 00a2 1A70     		strb	r2, [r3, #0]
 206:.\Generated_Source\PSoC5/ADC_SAR_Seq_1.c **** }
 337              		.loc 1 206 0
 338 00a4 80BD     		pop	{r7, pc}
 339              		.cfi_endproc
 340              	.LFE3:
 341              		.size	ADC_SAR_Seq_1_FinalBufDmaRelease, .-ADC_SAR_Seq_1_FinalBufDmaRelease
 342 00a6 00BF     		.section	.text.ADC_SAR_Seq_1_Disable,"ax",%progbits
 343              		.align	2
 344              		.global	ADC_SAR_Seq_1_Disable
 345              		.thumb
 346              		.thumb_func
 347              		.type	ADC_SAR_Seq_1_Disable, %function
 348              	ADC_SAR_Seq_1_Disable:
 349              	.LFB4:
 207:.\Generated_Source\PSoC5/ADC_SAR_Seq_1.c **** 
 208:.\Generated_Source\PSoC5/ADC_SAR_Seq_1.c **** 
 209:.\Generated_Source\PSoC5/ADC_SAR_Seq_1.c **** /****************************************************************************
 210:.\Generated_Source\PSoC5/ADC_SAR_Seq_1.c **** * Function Name: ADC_SAR_Seq_1_Disable()
 211:.\Generated_Source\PSoC5/ADC_SAR_Seq_1.c **** *****************************************************************************
 212:.\Generated_Source\PSoC5/ADC_SAR_Seq_1.c **** *
 213:.\Generated_Source\PSoC5/ADC_SAR_Seq_1.c **** * Summary:
 214:.\Generated_Source\PSoC5/ADC_SAR_Seq_1.c **** *  Disables the component without disabling the ADC SAR.
 215:.\Generated_Source\PSoC5/ADC_SAR_Seq_1.c **** *
 216:.\Generated_Source\PSoC5/ADC_SAR_Seq_1.c **** * Parameters:
 217:.\Generated_Source\PSoC5/ADC_SAR_Seq_1.c **** *  None.
ARM GAS  C:\Users\karunmj\AppData\Local\Temp\ccoJ4cNM.s 			page 11


 218:.\Generated_Source\PSoC5/ADC_SAR_Seq_1.c **** *
 219:.\Generated_Source\PSoC5/ADC_SAR_Seq_1.c **** * Return:
 220:.\Generated_Source\PSoC5/ADC_SAR_Seq_1.c **** *  None.
 221:.\Generated_Source\PSoC5/ADC_SAR_Seq_1.c **** *
 222:.\Generated_Source\PSoC5/ADC_SAR_Seq_1.c **** * Side Effects:
 223:.\Generated_Source\PSoC5/ADC_SAR_Seq_1.c **** *  None.
 224:.\Generated_Source\PSoC5/ADC_SAR_Seq_1.c **** *
 225:.\Generated_Source\PSoC5/ADC_SAR_Seq_1.c **** * Reentrant:
 226:.\Generated_Source\PSoC5/ADC_SAR_Seq_1.c **** *  No.
 227:.\Generated_Source\PSoC5/ADC_SAR_Seq_1.c **** *
 228:.\Generated_Source\PSoC5/ADC_SAR_Seq_1.c **** ****************************************************************************/
 229:.\Generated_Source\PSoC5/ADC_SAR_Seq_1.c **** void ADC_SAR_Seq_1_Disable(void)
 230:.\Generated_Source\PSoC5/ADC_SAR_Seq_1.c **** {
 350              		.loc 1 230 0
 351              		.cfi_startproc
 352              		@ args = 0, pretend = 0, frame = 8
 353              		@ frame_needed = 1, uses_anonymous_args = 0
 354 0000 80B5     		push	{r7, lr}
 355              	.LCFI8:
 356              		.cfi_def_cfa_offset 8
 357 0002 82B0     		sub	sp, sp, #8
 358              	.LCFI9:
 359              		.cfi_def_cfa_offset 16
 360 0004 00AF     		add	r7, sp, #0
 361              		.cfi_offset 14, -4
 362              		.cfi_offset 7, -8
 363              	.LCFI10:
 364              		.cfi_def_cfa_register 7
 231:.\Generated_Source\PSoC5/ADC_SAR_Seq_1.c ****     uint8 enableInterrupts;
 232:.\Generated_Source\PSoC5/ADC_SAR_Seq_1.c **** 
 233:.\Generated_Source\PSoC5/ADC_SAR_Seq_1.c ****     ADC_SAR_Seq_1_CONTROL_REG &= ((uint8)(~ADC_SAR_Seq_1_BASE_COMPONENT_ENABLE));
 365              		.loc 1 233 0
 366 0006 46F27143 		movw	r3, #:lower16:1073767537
 367 000a C4F20003 		movt	r3, #:upper16:1073767537
 368 000e 46F27142 		movw	r2, #:lower16:1073767537
 369 0012 C4F20002 		movt	r2, #:upper16:1073767537
 370 0016 1278     		ldrb	r2, [r2, #0]
 371 0018 D2B2     		uxtb	r2, r2
 372 001a 02F0FE02 		and	r2, r2, #254
 373 001e 1A70     		strb	r2, [r3, #0]
 234:.\Generated_Source\PSoC5/ADC_SAR_Seq_1.c **** 
 235:.\Generated_Source\PSoC5/ADC_SAR_Seq_1.c ****     /* Disable Counter */
 236:.\Generated_Source\PSoC5/ADC_SAR_Seq_1.c ****     enableInterrupts = CyEnterCriticalSection();
 374              		.loc 1 236 0
 375 0020 FFF7FEFF 		bl	CyEnterCriticalSection
 376 0024 0346     		mov	r3, r0
 377 0026 FB71     		strb	r3, [r7, #7]
 237:.\Generated_Source\PSoC5/ADC_SAR_Seq_1.c ****     ADC_SAR_Seq_1_CYCLE_COUNTER_AUX_CONTROL_REG &= ((uint8)(~ADC_SAR_Seq_1_CYCLE_COUNTER_ENABLE));
 378              		.loc 1 237 0
 379 0028 46F29543 		movw	r3, #:lower16:1073767573
 380 002c C4F20003 		movt	r3, #:upper16:1073767573
 381 0030 46F29542 		movw	r2, #:lower16:1073767573
 382 0034 C4F20002 		movt	r2, #:upper16:1073767573
 383 0038 1278     		ldrb	r2, [r2, #0]
 384 003a D2B2     		uxtb	r2, r2
 385 003c 02F0DF02 		and	r2, r2, #223
 386 0040 1A70     		strb	r2, [r3, #0]
ARM GAS  C:\Users\karunmj\AppData\Local\Temp\ccoJ4cNM.s 			page 12


 238:.\Generated_Source\PSoC5/ADC_SAR_Seq_1.c ****     CyExitCriticalSection(enableInterrupts);
 387              		.loc 1 238 0
 388 0042 FB79     		ldrb	r3, [r7, #7]	@ zero_extendqisi2
 389 0044 1846     		mov	r0, r3
 390 0046 FFF7FEFF 		bl	CyExitCriticalSection
 239:.\Generated_Source\PSoC5/ADC_SAR_Seq_1.c ****     ADC_SAR_Seq_1_COUNT_REG = 0u;
 391              		.loc 1 239 0
 392 004a 46F27543 		movw	r3, #:lower16:1073767541
 393 004e C4F20003 		movt	r3, #:upper16:1073767541
 394 0052 4FF00002 		mov	r2, #0
 395 0056 1A70     		strb	r2, [r3, #0]
 240:.\Generated_Source\PSoC5/ADC_SAR_Seq_1.c **** 
 241:.\Generated_Source\PSoC5/ADC_SAR_Seq_1.c ****     ADC_SAR_Seq_1_TempBufDmaRelease();
 396              		.loc 1 241 0
 397 0058 FFF7FEFF 		bl	ADC_SAR_Seq_1_TempBufDmaRelease
 242:.\Generated_Source\PSoC5/ADC_SAR_Seq_1.c ****     ADC_SAR_Seq_1_FinalBufDmaRelease();
 398              		.loc 1 242 0
 399 005c FFF7FEFF 		bl	ADC_SAR_Seq_1_FinalBufDmaRelease
 243:.\Generated_Source\PSoC5/ADC_SAR_Seq_1.c **** }
 400              		.loc 1 243 0
 401 0060 07F10807 		add	r7, r7, #8
 402 0064 BD46     		mov	sp, r7
 403 0066 80BD     		pop	{r7, pc}
 404              		.cfi_endproc
 405              	.LFE4:
 406              		.size	ADC_SAR_Seq_1_Disable, .-ADC_SAR_Seq_1_Disable
 407              		.section	.text.ADC_SAR_Seq_1_Init,"ax",%progbits
 408              		.align	2
 409              		.global	ADC_SAR_Seq_1_Init
 410              		.thumb
 411              		.thumb_func
 412              		.type	ADC_SAR_Seq_1_Init, %function
 413              	ADC_SAR_Seq_1_Init:
 414              	.LFB5:
 244:.\Generated_Source\PSoC5/ADC_SAR_Seq_1.c **** 
 245:.\Generated_Source\PSoC5/ADC_SAR_Seq_1.c **** 
 246:.\Generated_Source\PSoC5/ADC_SAR_Seq_1.c **** /*******************************************************************************
 247:.\Generated_Source\PSoC5/ADC_SAR_Seq_1.c **** * Function Name: ADC_SAR_Seq_1_Init
 248:.\Generated_Source\PSoC5/ADC_SAR_Seq_1.c **** ********************************************************************************
 249:.\Generated_Source\PSoC5/ADC_SAR_Seq_1.c **** *
 250:.\Generated_Source\PSoC5/ADC_SAR_Seq_1.c **** * Summary:
 251:.\Generated_Source\PSoC5/ADC_SAR_Seq_1.c **** *  Inits channels for DMA transfer. Provides loading period to the AMUX address
 252:.\Generated_Source\PSoC5/ADC_SAR_Seq_1.c **** *  selection counter
 253:.\Generated_Source\PSoC5/ADC_SAR_Seq_1.c **** *
 254:.\Generated_Source\PSoC5/ADC_SAR_Seq_1.c **** * Parameters:
 255:.\Generated_Source\PSoC5/ADC_SAR_Seq_1.c **** *  None.
 256:.\Generated_Source\PSoC5/ADC_SAR_Seq_1.c **** *
 257:.\Generated_Source\PSoC5/ADC_SAR_Seq_1.c **** * Return:
 258:.\Generated_Source\PSoC5/ADC_SAR_Seq_1.c **** *  None.
 259:.\Generated_Source\PSoC5/ADC_SAR_Seq_1.c **** *
 260:.\Generated_Source\PSoC5/ADC_SAR_Seq_1.c **** * Reentrant:
 261:.\Generated_Source\PSoC5/ADC_SAR_Seq_1.c **** *  No.
 262:.\Generated_Source\PSoC5/ADC_SAR_Seq_1.c **** *
 263:.\Generated_Source\PSoC5/ADC_SAR_Seq_1.c **** *******************************************************************************/
 264:.\Generated_Source\PSoC5/ADC_SAR_Seq_1.c **** void ADC_SAR_Seq_1_Init(void)
 265:.\Generated_Source\PSoC5/ADC_SAR_Seq_1.c **** {
 415              		.loc 1 265 0
ARM GAS  C:\Users\karunmj\AppData\Local\Temp\ccoJ4cNM.s 			page 13


 416              		.cfi_startproc
 417              		@ args = 0, pretend = 0, frame = 0
 418              		@ frame_needed = 1, uses_anonymous_args = 0
 419 0000 80B5     		push	{r7, lr}
 420              	.LCFI11:
 421              		.cfi_def_cfa_offset 8
 422 0002 00AF     		add	r7, sp, #0
 423              		.cfi_offset 14, -4
 424              		.cfi_offset 7, -8
 425              	.LCFI12:
 426              		.cfi_def_cfa_register 7
 266:.\Generated_Source\PSoC5/ADC_SAR_Seq_1.c ****     /* Init DMA, 2 bytes bursts, each burst requires a request */
 267:.\Generated_Source\PSoC5/ADC_SAR_Seq_1.c ****     ADC_SAR_Seq_1_tempChan = ADC_SAR_Seq_1_TempBuf_DmaInitialize(ADC_SAR_Seq_1_TEMP_BYTES_PER_BURST
 427              		.loc 1 267 0
 428 0004 4FF00200 		mov	r0, #2
 429 0008 4FF00101 		mov	r1, #1
 430 000c 4FF48042 		mov	r2, #16384
 431 0010 41F6FF73 		movw	r3, #8191
 432 0014 FFF7FEFF 		bl	ADC_SAR_Seq_1_TempBuf_DmaInitialize
 433 0018 0346     		mov	r3, r0
 434 001a 1A46     		mov	r2, r3
 435 001c 40F20003 		movw	r3, #:lower16:ADC_SAR_Seq_1_tempChan
 436 0020 C0F20003 		movt	r3, #:upper16:ADC_SAR_Seq_1_tempChan
 437 0024 1A70     		strb	r2, [r3, #0]
 268:.\Generated_Source\PSoC5/ADC_SAR_Seq_1.c ****         ADC_SAR_Seq_1_REQUEST_PER_BURST, (uint16)(HI16(CYDEV_PERIPH_BASE)), (uint16)(HI16(CYDEV_SRA
 269:.\Generated_Source\PSoC5/ADC_SAR_Seq_1.c **** 
 270:.\Generated_Source\PSoC5/ADC_SAR_Seq_1.c ****     /* Init DMA, (ADC_SAR_Seq_1_NUMBER_OF_CHANNELS << 1u) bytes bursts, each burst requires a reque
 271:.\Generated_Source\PSoC5/ADC_SAR_Seq_1.c ****     ADC_SAR_Seq_1_finalChan = ADC_SAR_Seq_1_FinalBuf_DmaInitialize(ADC_SAR_Seq_1_FINAL_BYTES_PER_BU
 438              		.loc 1 271 0
 439 0026 4FF00200 		mov	r0, #2
 440 002a 4FF00101 		mov	r1, #1
 441 002e 41F6FF72 		movw	r2, #8191
 442 0032 41F6FF73 		movw	r3, #8191
 443 0036 FFF7FEFF 		bl	ADC_SAR_Seq_1_FinalBuf_DmaInitialize
 444 003a 0346     		mov	r3, r0
 445 003c 1A46     		mov	r2, r3
 446 003e 40F20003 		movw	r3, #:lower16:ADC_SAR_Seq_1_finalChan
 447 0042 C0F20003 		movt	r3, #:upper16:ADC_SAR_Seq_1_finalChan
 448 0046 1A70     		strb	r2, [r3, #0]
 272:.\Generated_Source\PSoC5/ADC_SAR_Seq_1.c ****         ADC_SAR_Seq_1_REQUEST_PER_BURST, (uint16)(HI16(CYDEV_SRAM_BASE)), (uint16)(HI16(CYDEV_SRAM_
 273:.\Generated_Source\PSoC5/ADC_SAR_Seq_1.c **** 
 274:.\Generated_Source\PSoC5/ADC_SAR_Seq_1.c ****     #if(ADC_SAR_Seq_1_IRQ_REMOVE == 0u)
 275:.\Generated_Source\PSoC5/ADC_SAR_Seq_1.c ****         /* Set the ISR to point to the ADC_SAR_SEQ_1_IRQ Interrupt. */
 276:.\Generated_Source\PSoC5/ADC_SAR_Seq_1.c ****         ADC_SAR_Seq_1_IRQ_SetVector(&ADC_SAR_Seq_1_ISR);
 449              		.loc 1 276 0
 450 0048 40F20000 		movw	r0, #:lower16:ADC_SAR_Seq_1_ISR
 451 004c C0F20000 		movt	r0, #:upper16:ADC_SAR_Seq_1_ISR
 452 0050 FFF7FEFF 		bl	ADC_SAR_Seq_1_IRQ_SetVector
 277:.\Generated_Source\PSoC5/ADC_SAR_Seq_1.c ****         /* Set the priority. */
 278:.\Generated_Source\PSoC5/ADC_SAR_Seq_1.c ****         ADC_SAR_Seq_1_IRQ_SetPriority((uint8)ADC_SAR_Seq_1_INTC_NUMBER);
 453              		.loc 1 278 0
 454 0054 4FF00000 		mov	r0, #0
 455 0058 FFF7FEFF 		bl	ADC_SAR_Seq_1_IRQ_SetPriority
 279:.\Generated_Source\PSoC5/ADC_SAR_Seq_1.c ****     #endif   /* End ADC_SAR_Seq_1_IRQ_REMOVE */
 280:.\Generated_Source\PSoC5/ADC_SAR_Seq_1.c **** 
 281:.\Generated_Source\PSoC5/ADC_SAR_Seq_1.c **** }
 456              		.loc 1 281 0
ARM GAS  C:\Users\karunmj\AppData\Local\Temp\ccoJ4cNM.s 			page 14


 457 005c 80BD     		pop	{r7, pc}
 458              		.cfi_endproc
 459              	.LFE5:
 460              		.size	ADC_SAR_Seq_1_Init, .-ADC_SAR_Seq_1_Init
 461 005e 00BF     		.section	.text.ADC_SAR_Seq_1_Enable,"ax",%progbits
 462              		.align	2
 463              		.global	ADC_SAR_Seq_1_Enable
 464              		.thumb
 465              		.thumb_func
 466              		.type	ADC_SAR_Seq_1_Enable, %function
 467              	ADC_SAR_Seq_1_Enable:
 468              	.LFB6:
 282:.\Generated_Source\PSoC5/ADC_SAR_Seq_1.c **** 
 283:.\Generated_Source\PSoC5/ADC_SAR_Seq_1.c **** 
 284:.\Generated_Source\PSoC5/ADC_SAR_Seq_1.c **** /*******************************************************************************
 285:.\Generated_Source\PSoC5/ADC_SAR_Seq_1.c **** * Function Name: ADC_SAR_Seq_1_Enable
 286:.\Generated_Source\PSoC5/ADC_SAR_Seq_1.c **** ********************************************************************************
 287:.\Generated_Source\PSoC5/ADC_SAR_Seq_1.c **** *
 288:.\Generated_Source\PSoC5/ADC_SAR_Seq_1.c **** * Summary:
 289:.\Generated_Source\PSoC5/ADC_SAR_Seq_1.c **** *  Enables DMA channels, address selection counter and FSM of Base component
 290:.\Generated_Source\PSoC5/ADC_SAR_Seq_1.c **** *
 291:.\Generated_Source\PSoC5/ADC_SAR_Seq_1.c **** * Parameters:
 292:.\Generated_Source\PSoC5/ADC_SAR_Seq_1.c **** *  None.
 293:.\Generated_Source\PSoC5/ADC_SAR_Seq_1.c **** *
 294:.\Generated_Source\PSoC5/ADC_SAR_Seq_1.c **** * Return:
 295:.\Generated_Source\PSoC5/ADC_SAR_Seq_1.c **** *  None.
 296:.\Generated_Source\PSoC5/ADC_SAR_Seq_1.c **** *
 297:.\Generated_Source\PSoC5/ADC_SAR_Seq_1.c **** * Side Effects:
 298:.\Generated_Source\PSoC5/ADC_SAR_Seq_1.c **** *  None.
 299:.\Generated_Source\PSoC5/ADC_SAR_Seq_1.c **** *
 300:.\Generated_Source\PSoC5/ADC_SAR_Seq_1.c **** * Reentrant:
 301:.\Generated_Source\PSoC5/ADC_SAR_Seq_1.c **** *  No.
 302:.\Generated_Source\PSoC5/ADC_SAR_Seq_1.c **** *
 303:.\Generated_Source\PSoC5/ADC_SAR_Seq_1.c **** *******************************************************************************/
 304:.\Generated_Source\PSoC5/ADC_SAR_Seq_1.c **** void ADC_SAR_Seq_1_Enable(void)
 305:.\Generated_Source\PSoC5/ADC_SAR_Seq_1.c **** {
 469              		.loc 1 305 0
 470              		.cfi_startproc
 471              		@ args = 0, pretend = 0, frame = 8
 472              		@ frame_needed = 1, uses_anonymous_args = 0
 473 0000 80B5     		push	{r7, lr}
 474              	.LCFI13:
 475              		.cfi_def_cfa_offset 8
 476 0002 82B0     		sub	sp, sp, #8
 477              	.LCFI14:
 478              		.cfi_def_cfa_offset 16
 479 0004 00AF     		add	r7, sp, #0
 480              		.cfi_offset 14, -4
 481              		.cfi_offset 7, -8
 482              	.LCFI15:
 483              		.cfi_def_cfa_register 7
 306:.\Generated_Source\PSoC5/ADC_SAR_Seq_1.c ****     uint8 enableInterrupts;
 307:.\Generated_Source\PSoC5/ADC_SAR_Seq_1.c **** 
 308:.\Generated_Source\PSoC5/ADC_SAR_Seq_1.c ****     ADC_SAR_Seq_1_FinalBufDmaInit();
 484              		.loc 1 308 0
 485 0006 FFF7FEFF 		bl	ADC_SAR_Seq_1_FinalBufDmaInit
 309:.\Generated_Source\PSoC5/ADC_SAR_Seq_1.c ****     ADC_SAR_Seq_1_TempBufDmaInit();
ARM GAS  C:\Users\karunmj\AppData\Local\Temp\ccoJ4cNM.s 			page 15


 486              		.loc 1 309 0
 487 000a FFF7FEFF 		bl	ADC_SAR_Seq_1_TempBufDmaInit
 310:.\Generated_Source\PSoC5/ADC_SAR_Seq_1.c **** 
 311:.\Generated_Source\PSoC5/ADC_SAR_Seq_1.c ****     (void) CyDmaChEnable(ADC_SAR_Seq_1_tempChan, 1u);
 488              		.loc 1 311 0
 489 000e 40F20003 		movw	r3, #:lower16:ADC_SAR_Seq_1_tempChan
 490 0012 C0F20003 		movt	r3, #:upper16:ADC_SAR_Seq_1_tempChan
 491 0016 1B78     		ldrb	r3, [r3, #0]	@ zero_extendqisi2
 492 0018 1846     		mov	r0, r3
 493 001a 4FF00101 		mov	r1, #1
 494 001e FFF7FEFF 		bl	CyDmaChEnable
 312:.\Generated_Source\PSoC5/ADC_SAR_Seq_1.c ****     (void) CyDmaChEnable(ADC_SAR_Seq_1_finalChan, 1u);
 495              		.loc 1 312 0
 496 0022 40F20003 		movw	r3, #:lower16:ADC_SAR_Seq_1_finalChan
 497 0026 C0F20003 		movt	r3, #:upper16:ADC_SAR_Seq_1_finalChan
 498 002a 1B78     		ldrb	r3, [r3, #0]	@ zero_extendqisi2
 499 002c 1846     		mov	r0, r3
 500 002e 4FF00101 		mov	r1, #1
 501 0032 FFF7FEFF 		bl	CyDmaChEnable
 313:.\Generated_Source\PSoC5/ADC_SAR_Seq_1.c **** 
 314:.\Generated_Source\PSoC5/ADC_SAR_Seq_1.c ****     /* Enable Counter and give Enable pulse to set an address of the last channel */
 315:.\Generated_Source\PSoC5/ADC_SAR_Seq_1.c ****     enableInterrupts = CyEnterCriticalSection();
 502              		.loc 1 315 0
 503 0036 FFF7FEFF 		bl	CyEnterCriticalSection
 504 003a 0346     		mov	r3, r0
 505 003c FB71     		strb	r3, [r7, #7]
 316:.\Generated_Source\PSoC5/ADC_SAR_Seq_1.c ****     ADC_SAR_Seq_1_CYCLE_COUNTER_AUX_CONTROL_REG |= ((uint8)(ADC_SAR_Seq_1_CYCLE_COUNTER_ENABLE));
 506              		.loc 1 316 0
 507 003e 46F29543 		movw	r3, #:lower16:1073767573
 508 0042 C4F20003 		movt	r3, #:upper16:1073767573
 509 0046 46F29542 		movw	r2, #:lower16:1073767573
 510 004a C4F20002 		movt	r2, #:upper16:1073767573
 511 004e 1278     		ldrb	r2, [r2, #0]
 512 0050 D2B2     		uxtb	r2, r2
 513 0052 42F02002 		orr	r2, r2, #32
 514 0056 D2B2     		uxtb	r2, r2
 515 0058 1A70     		strb	r2, [r3, #0]
 317:.\Generated_Source\PSoC5/ADC_SAR_Seq_1.c ****     CyExitCriticalSection(enableInterrupts);
 516              		.loc 1 317 0
 517 005a FB79     		ldrb	r3, [r7, #7]	@ zero_extendqisi2
 518 005c 1846     		mov	r0, r3
 519 005e FFF7FEFF 		bl	CyExitCriticalSection
 318:.\Generated_Source\PSoC5/ADC_SAR_Seq_1.c **** 
 319:.\Generated_Source\PSoC5/ADC_SAR_Seq_1.c ****     /* Enable FSM of the Base Component */
 320:.\Generated_Source\PSoC5/ADC_SAR_Seq_1.c ****     ADC_SAR_Seq_1_CONTROL_REG |= ((uint8)(ADC_SAR_Seq_1_BASE_COMPONENT_ENABLE));
 520              		.loc 1 320 0
 521 0062 46F27143 		movw	r3, #:lower16:1073767537
 522 0066 C4F20003 		movt	r3, #:upper16:1073767537
 523 006a 46F27142 		movw	r2, #:lower16:1073767537
 524 006e C4F20002 		movt	r2, #:upper16:1073767537
 525 0072 1278     		ldrb	r2, [r2, #0]
 526 0074 D2B2     		uxtb	r2, r2
 527 0076 42F00102 		orr	r2, r2, #1
 528 007a D2B2     		uxtb	r2, r2
 529 007c 1A70     		strb	r2, [r3, #0]
 321:.\Generated_Source\PSoC5/ADC_SAR_Seq_1.c ****     ADC_SAR_Seq_1_CONTROL_REG |= ((uint8)(ADC_SAR_Seq_1_LOAD_COUNTER_PERIOD));
 530              		.loc 1 321 0
ARM GAS  C:\Users\karunmj\AppData\Local\Temp\ccoJ4cNM.s 			page 16


 531 007e 46F27143 		movw	r3, #:lower16:1073767537
 532 0082 C4F20003 		movt	r3, #:upper16:1073767537
 533 0086 46F27142 		movw	r2, #:lower16:1073767537
 534 008a C4F20002 		movt	r2, #:upper16:1073767537
 535 008e 1278     		ldrb	r2, [r2, #0]
 536 0090 D2B2     		uxtb	r2, r2
 537 0092 42F00202 		orr	r2, r2, #2
 538 0096 D2B2     		uxtb	r2, r2
 539 0098 1A70     		strb	r2, [r3, #0]
 322:.\Generated_Source\PSoC5/ADC_SAR_Seq_1.c **** 
 323:.\Generated_Source\PSoC5/ADC_SAR_Seq_1.c ****     #if(ADC_SAR_Seq_1_IRQ_REMOVE == 0u)
 324:.\Generated_Source\PSoC5/ADC_SAR_Seq_1.c ****         /* Clear a pending interrupt */
 325:.\Generated_Source\PSoC5/ADC_SAR_Seq_1.c ****         CyIntClearPending(ADC_SAR_Seq_1_INTC_NUMBER);
 540              		.loc 1 325 0
 541 009a 4EF28023 		movw	r3, #:lower16:-536812928
 542 009e CEF20003 		movt	r3, #:upper16:-536812928
 543 00a2 4FF00102 		mov	r2, #1
 544 00a6 1A60     		str	r2, [r3, #0]
 326:.\Generated_Source\PSoC5/ADC_SAR_Seq_1.c ****     #endif   /* End ADC_SAR_Seq_1_IRQ_REMOVE */
 327:.\Generated_Source\PSoC5/ADC_SAR_Seq_1.c **** }
 545              		.loc 1 327 0
 546 00a8 07F10807 		add	r7, r7, #8
 547 00ac BD46     		mov	sp, r7
 548 00ae 80BD     		pop	{r7, pc}
 549              		.cfi_endproc
 550              	.LFE6:
 551              		.size	ADC_SAR_Seq_1_Enable, .-ADC_SAR_Seq_1_Enable
 552              		.section	.text.ADC_SAR_Seq_1_Start,"ax",%progbits
 553              		.align	2
 554              		.global	ADC_SAR_Seq_1_Start
 555              		.thumb
 556              		.thumb_func
 557              		.type	ADC_SAR_Seq_1_Start, %function
 558              	ADC_SAR_Seq_1_Start:
 559              	.LFB7:
 328:.\Generated_Source\PSoC5/ADC_SAR_Seq_1.c **** 
 329:.\Generated_Source\PSoC5/ADC_SAR_Seq_1.c **** 
 330:.\Generated_Source\PSoC5/ADC_SAR_Seq_1.c **** /*******************************************************************************
 331:.\Generated_Source\PSoC5/ADC_SAR_Seq_1.c **** * Function Name: ADC_SAR_Seq_1_Start
 332:.\Generated_Source\PSoC5/ADC_SAR_Seq_1.c **** ********************************************************************************
 333:.\Generated_Source\PSoC5/ADC_SAR_Seq_1.c **** *
 334:.\Generated_Source\PSoC5/ADC_SAR_Seq_1.c **** * Summary:
 335:.\Generated_Source\PSoC5/ADC_SAR_Seq_1.c **** *  Starts component
 336:.\Generated_Source\PSoC5/ADC_SAR_Seq_1.c **** *
 337:.\Generated_Source\PSoC5/ADC_SAR_Seq_1.c **** * Parameters:
 338:.\Generated_Source\PSoC5/ADC_SAR_Seq_1.c **** *  None.
 339:.\Generated_Source\PSoC5/ADC_SAR_Seq_1.c **** *
 340:.\Generated_Source\PSoC5/ADC_SAR_Seq_1.c **** * Return:
 341:.\Generated_Source\PSoC5/ADC_SAR_Seq_1.c **** *  None.
 342:.\Generated_Source\PSoC5/ADC_SAR_Seq_1.c **** *
 343:.\Generated_Source\PSoC5/ADC_SAR_Seq_1.c **** * Side Effects:
 344:.\Generated_Source\PSoC5/ADC_SAR_Seq_1.c **** *  None.
 345:.\Generated_Source\PSoC5/ADC_SAR_Seq_1.c **** *
 346:.\Generated_Source\PSoC5/ADC_SAR_Seq_1.c **** * Reentrant:
 347:.\Generated_Source\PSoC5/ADC_SAR_Seq_1.c **** *  No.
 348:.\Generated_Source\PSoC5/ADC_SAR_Seq_1.c **** *
 349:.\Generated_Source\PSoC5/ADC_SAR_Seq_1.c **** *******************************************************************************/
ARM GAS  C:\Users\karunmj\AppData\Local\Temp\ccoJ4cNM.s 			page 17


 350:.\Generated_Source\PSoC5/ADC_SAR_Seq_1.c **** void ADC_SAR_Seq_1_Start(void)
 351:.\Generated_Source\PSoC5/ADC_SAR_Seq_1.c **** {
 560              		.loc 1 351 0
 561              		.cfi_startproc
 562              		@ args = 0, pretend = 0, frame = 0
 563              		@ frame_needed = 1, uses_anonymous_args = 0
 564 0000 80B5     		push	{r7, lr}
 565              	.LCFI16:
 566              		.cfi_def_cfa_offset 8
 567 0002 00AF     		add	r7, sp, #0
 568              		.cfi_offset 14, -4
 569              		.cfi_offset 7, -8
 570              	.LCFI17:
 571              		.cfi_def_cfa_register 7
 352:.\Generated_Source\PSoC5/ADC_SAR_Seq_1.c ****     if(ADC_SAR_Seq_1_initVar == 0u)
 572              		.loc 1 352 0
 573 0004 40F20003 		movw	r3, #:lower16:ADC_SAR_Seq_1_initVar
 574 0008 C0F20003 		movt	r3, #:upper16:ADC_SAR_Seq_1_initVar
 575 000c 1B68     		ldr	r3, [r3, #0]
 576 000e 002B     		cmp	r3, #0
 577 0010 08D1     		bne	.L20
 353:.\Generated_Source\PSoC5/ADC_SAR_Seq_1.c ****     {
 354:.\Generated_Source\PSoC5/ADC_SAR_Seq_1.c ****         ADC_SAR_Seq_1_Init();
 578              		.loc 1 354 0
 579 0012 FFF7FEFF 		bl	ADC_SAR_Seq_1_Init
 355:.\Generated_Source\PSoC5/ADC_SAR_Seq_1.c ****         ADC_SAR_Seq_1_initVar = 1u;
 580              		.loc 1 355 0
 581 0016 40F20003 		movw	r3, #:lower16:ADC_SAR_Seq_1_initVar
 582 001a C0F20003 		movt	r3, #:upper16:ADC_SAR_Seq_1_initVar
 583 001e 4FF00102 		mov	r2, #1
 584 0022 1A60     		str	r2, [r3, #0]
 585              	.L20:
 356:.\Generated_Source\PSoC5/ADC_SAR_Seq_1.c ****     }
 357:.\Generated_Source\PSoC5/ADC_SAR_Seq_1.c **** 
 358:.\Generated_Source\PSoC5/ADC_SAR_Seq_1.c ****     ADC_SAR_Seq_1_Enable();
 586              		.loc 1 358 0
 587 0024 FFF7FEFF 		bl	ADC_SAR_Seq_1_Enable
 359:.\Generated_Source\PSoC5/ADC_SAR_Seq_1.c ****     ADC_SAR_Seq_1_SAR_Start();
 588              		.loc 1 359 0
 589 0028 FFF7FEFF 		bl	ADC_SAR_Seq_1_SAR_Start
 360:.\Generated_Source\PSoC5/ADC_SAR_Seq_1.c ****     (void) CY_GET_REG8(ADC_SAR_Seq_1_STATUS_PTR);
 590              		.loc 1 360 0
 591 002c 46F26143 		movw	r3, #:lower16:1073767521
 592 0030 C4F20003 		movt	r3, #:upper16:1073767521
 593 0034 1B78     		ldrb	r3, [r3, #0]
 361:.\Generated_Source\PSoC5/ADC_SAR_Seq_1.c **** 
 362:.\Generated_Source\PSoC5/ADC_SAR_Seq_1.c **** }
 594              		.loc 1 362 0
 595 0036 80BD     		pop	{r7, pc}
 596              		.cfi_endproc
 597              	.LFE7:
 598              		.size	ADC_SAR_Seq_1_Start, .-ADC_SAR_Seq_1_Start
 599              		.section	.text.ADC_SAR_Seq_1_Stop,"ax",%progbits
 600              		.align	2
 601              		.global	ADC_SAR_Seq_1_Stop
 602              		.thumb
 603              		.thumb_func
ARM GAS  C:\Users\karunmj\AppData\Local\Temp\ccoJ4cNM.s 			page 18


 604              		.type	ADC_SAR_Seq_1_Stop, %function
 605              	ADC_SAR_Seq_1_Stop:
 606              	.LFB8:
 363:.\Generated_Source\PSoC5/ADC_SAR_Seq_1.c **** 
 364:.\Generated_Source\PSoC5/ADC_SAR_Seq_1.c **** 
 365:.\Generated_Source\PSoC5/ADC_SAR_Seq_1.c **** /*******************************************************************************
 366:.\Generated_Source\PSoC5/ADC_SAR_Seq_1.c **** * Function Name: ADC_SAR_Seq_1_Stop
 367:.\Generated_Source\PSoC5/ADC_SAR_Seq_1.c **** ********************************************************************************
 368:.\Generated_Source\PSoC5/ADC_SAR_Seq_1.c **** *
 369:.\Generated_Source\PSoC5/ADC_SAR_Seq_1.c **** * Summary:
 370:.\Generated_Source\PSoC5/ADC_SAR_Seq_1.c **** *  Stops component.
 371:.\Generated_Source\PSoC5/ADC_SAR_Seq_1.c **** *
 372:.\Generated_Source\PSoC5/ADC_SAR_Seq_1.c **** * Parameters:
 373:.\Generated_Source\PSoC5/ADC_SAR_Seq_1.c **** *  None.
 374:.\Generated_Source\PSoC5/ADC_SAR_Seq_1.c **** *
 375:.\Generated_Source\PSoC5/ADC_SAR_Seq_1.c **** * Return:
 376:.\Generated_Source\PSoC5/ADC_SAR_Seq_1.c **** *  None.
 377:.\Generated_Source\PSoC5/ADC_SAR_Seq_1.c **** *
 378:.\Generated_Source\PSoC5/ADC_SAR_Seq_1.c **** * Side Effects:
 379:.\Generated_Source\PSoC5/ADC_SAR_Seq_1.c **** *  None.
 380:.\Generated_Source\PSoC5/ADC_SAR_Seq_1.c **** *
 381:.\Generated_Source\PSoC5/ADC_SAR_Seq_1.c **** * Reentrant:
 382:.\Generated_Source\PSoC5/ADC_SAR_Seq_1.c **** *  No.
 383:.\Generated_Source\PSoC5/ADC_SAR_Seq_1.c **** *
 384:.\Generated_Source\PSoC5/ADC_SAR_Seq_1.c **** *******************************************************************************/
 385:.\Generated_Source\PSoC5/ADC_SAR_Seq_1.c **** void ADC_SAR_Seq_1_Stop(void)
 386:.\Generated_Source\PSoC5/ADC_SAR_Seq_1.c **** {
 607              		.loc 1 386 0
 608              		.cfi_startproc
 609              		@ args = 0, pretend = 0, frame = 0
 610              		@ frame_needed = 1, uses_anonymous_args = 0
 611 0000 80B5     		push	{r7, lr}
 612              	.LCFI18:
 613              		.cfi_def_cfa_offset 8
 614 0002 00AF     		add	r7, sp, #0
 615              		.cfi_offset 14, -4
 616              		.cfi_offset 7, -8
 617              	.LCFI19:
 618              		.cfi_def_cfa_register 7
 387:.\Generated_Source\PSoC5/ADC_SAR_Seq_1.c ****     ADC_SAR_Seq_1_SAR_Stop();
 619              		.loc 1 387 0
 620 0004 FFF7FEFF 		bl	ADC_SAR_Seq_1_SAR_Stop
 388:.\Generated_Source\PSoC5/ADC_SAR_Seq_1.c ****     ADC_SAR_Seq_1_Disable();
 621              		.loc 1 388 0
 622 0008 FFF7FEFF 		bl	ADC_SAR_Seq_1_Disable
 389:.\Generated_Source\PSoC5/ADC_SAR_Seq_1.c **** }
 623              		.loc 1 389 0
 624 000c 80BD     		pop	{r7, pc}
 625              		.cfi_endproc
 626              	.LFE8:
 627              		.size	ADC_SAR_Seq_1_Stop, .-ADC_SAR_Seq_1_Stop
 628 000e 00BF     		.section	.text.ADC_SAR_Seq_1_StartConvert,"ax",%progbits
 629              		.align	2
 630              		.global	ADC_SAR_Seq_1_StartConvert
 631              		.thumb
 632              		.thumb_func
 633              		.type	ADC_SAR_Seq_1_StartConvert, %function
ARM GAS  C:\Users\karunmj\AppData\Local\Temp\ccoJ4cNM.s 			page 19


 634              	ADC_SAR_Seq_1_StartConvert:
 635              	.LFB9:
 390:.\Generated_Source\PSoC5/ADC_SAR_Seq_1.c **** 
 391:.\Generated_Source\PSoC5/ADC_SAR_Seq_1.c **** #if(ADC_SAR_Seq_1_SAMPLE_MODE != ADC_SAR_Seq_1_SAMPLE_MODE_HW_TRIGGERED)
 392:.\Generated_Source\PSoC5/ADC_SAR_Seq_1.c **** 
 393:.\Generated_Source\PSoC5/ADC_SAR_Seq_1.c ****     /*******************************************************************************
 394:.\Generated_Source\PSoC5/ADC_SAR_Seq_1.c ****     * Function Name: ADC_SAR_Seq_1_StartConvert
 395:.\Generated_Source\PSoC5/ADC_SAR_Seq_1.c ****     ********************************************************************************
 396:.\Generated_Source\PSoC5/ADC_SAR_Seq_1.c ****     *
 397:.\Generated_Source\PSoC5/ADC_SAR_Seq_1.c ****     * Summary:
 398:.\Generated_Source\PSoC5/ADC_SAR_Seq_1.c ****     *  When the Sample Mode parameter is set to 'Free Running', the component will
 399:.\Generated_Source\PSoC5/ADC_SAR_Seq_1.c ****     * operate in a continuous mode. The channels will be scanned continuously until
 400:.\Generated_Source\PSoC5/ADC_SAR_Seq_1.c ****     * _StopConvert()or  _Stop() is called
 401:.\Generated_Source\PSoC5/ADC_SAR_Seq_1.c ****     *
 402:.\Generated_Source\PSoC5/ADC_SAR_Seq_1.c ****     * Parameters:
 403:.\Generated_Source\PSoC5/ADC_SAR_Seq_1.c ****     *  None.
 404:.\Generated_Source\PSoC5/ADC_SAR_Seq_1.c ****     *
 405:.\Generated_Source\PSoC5/ADC_SAR_Seq_1.c ****     * Return:
 406:.\Generated_Source\PSoC5/ADC_SAR_Seq_1.c ****     *  None.
 407:.\Generated_Source\PSoC5/ADC_SAR_Seq_1.c ****     *
 408:.\Generated_Source\PSoC5/ADC_SAR_Seq_1.c ****     * Side Effects:
 409:.\Generated_Source\PSoC5/ADC_SAR_Seq_1.c ****     *  None.
 410:.\Generated_Source\PSoC5/ADC_SAR_Seq_1.c ****     *
 411:.\Generated_Source\PSoC5/ADC_SAR_Seq_1.c ****     * Reentrant:
 412:.\Generated_Source\PSoC5/ADC_SAR_Seq_1.c ****     *  No.
 413:.\Generated_Source\PSoC5/ADC_SAR_Seq_1.c ****     *
 414:.\Generated_Source\PSoC5/ADC_SAR_Seq_1.c ****     *******************************************************************************/
 415:.\Generated_Source\PSoC5/ADC_SAR_Seq_1.c ****     void ADC_SAR_Seq_1_StartConvert(void)
 416:.\Generated_Source\PSoC5/ADC_SAR_Seq_1.c ****     {
 636              		.loc 1 416 0
 637              		.cfi_startproc
 638              		@ args = 0, pretend = 0, frame = 0
 639              		@ frame_needed = 1, uses_anonymous_args = 0
 640 0000 80B5     		push	{r7, lr}
 641              	.LCFI20:
 642              		.cfi_def_cfa_offset 8
 643 0002 00AF     		add	r7, sp, #0
 644              		.cfi_offset 14, -4
 645              		.cfi_offset 7, -8
 646              	.LCFI21:
 647              		.cfi_def_cfa_register 7
 417:.\Generated_Source\PSoC5/ADC_SAR_Seq_1.c ****         #if(ADC_SAR_Seq_1_SAMPLE_MODE != ADC_SAR_Seq_1_SAMPLE_MODE_FREE_RUNNING)
 418:.\Generated_Source\PSoC5/ADC_SAR_Seq_1.c **** 
 419:.\Generated_Source\PSoC5/ADC_SAR_Seq_1.c ****             ADC_SAR_Seq_1_CONTROL_REG |= ((uint8)(ADC_SAR_Seq_1_SOFTWARE_SOC_PULSE));
 420:.\Generated_Source\PSoC5/ADC_SAR_Seq_1.c **** 
 421:.\Generated_Source\PSoC5/ADC_SAR_Seq_1.c ****         #else
 422:.\Generated_Source\PSoC5/ADC_SAR_Seq_1.c **** 
 423:.\Generated_Source\PSoC5/ADC_SAR_Seq_1.c ****             ADC_SAR_Seq_1_SAR_StartConvert();
 648              		.loc 1 423 0
 649 0004 FFF7FEFF 		bl	ADC_SAR_Seq_1_SAR_StartConvert
 424:.\Generated_Source\PSoC5/ADC_SAR_Seq_1.c **** 
 425:.\Generated_Source\PSoC5/ADC_SAR_Seq_1.c ****         #endif /* 
 426:.\Generated_Source\PSoC5/ADC_SAR_Seq_1.c ****                 #if(ADC_SAR_Seq_1_SAMPLE_MODE != 
 427:.\Generated_Source\PSoC5/ADC_SAR_Seq_1.c ****                 ADC_SAR_Seq_1_SAMPLE_MODE_FREE_RUNNING) 
 428:.\Generated_Source\PSoC5/ADC_SAR_Seq_1.c ****                */
 429:.\Generated_Source\PSoC5/ADC_SAR_Seq_1.c ****     }
 650              		.loc 1 429 0
ARM GAS  C:\Users\karunmj\AppData\Local\Temp\ccoJ4cNM.s 			page 20


 651 0008 80BD     		pop	{r7, pc}
 652              		.cfi_endproc
 653              	.LFE9:
 654              		.size	ADC_SAR_Seq_1_StartConvert, .-ADC_SAR_Seq_1_StartConvert
 655 000a 00BF     		.section	.text.ADC_SAR_Seq_1_StopConvert,"ax",%progbits
 656              		.align	2
 657              		.global	ADC_SAR_Seq_1_StopConvert
 658              		.thumb
 659              		.thumb_func
 660              		.type	ADC_SAR_Seq_1_StopConvert, %function
 661              	ADC_SAR_Seq_1_StopConvert:
 662              	.LFB10:
 430:.\Generated_Source\PSoC5/ADC_SAR_Seq_1.c **** 
 431:.\Generated_Source\PSoC5/ADC_SAR_Seq_1.c **** 
 432:.\Generated_Source\PSoC5/ADC_SAR_Seq_1.c ****     /*******************************************************************************
 433:.\Generated_Source\PSoC5/ADC_SAR_Seq_1.c ****     * Function Name: ADC_SAR_Seq_1_StopConvert
 434:.\Generated_Source\PSoC5/ADC_SAR_Seq_1.c ****     ********************************************************************************
 435:.\Generated_Source\PSoC5/ADC_SAR_Seq_1.c ****     *
 436:.\Generated_Source\PSoC5/ADC_SAR_Seq_1.c ****     * Summary:
 437:.\Generated_Source\PSoC5/ADC_SAR_Seq_1.c ****     *  Forces the component to stop all conversions
 438:.\Generated_Source\PSoC5/ADC_SAR_Seq_1.c ****     *
 439:.\Generated_Source\PSoC5/ADC_SAR_Seq_1.c ****     * Parameters:
 440:.\Generated_Source\PSoC5/ADC_SAR_Seq_1.c ****     *  None.
 441:.\Generated_Source\PSoC5/ADC_SAR_Seq_1.c ****     *
 442:.\Generated_Source\PSoC5/ADC_SAR_Seq_1.c ****     * Return:
 443:.\Generated_Source\PSoC5/ADC_SAR_Seq_1.c ****     *  None.
 444:.\Generated_Source\PSoC5/ADC_SAR_Seq_1.c ****     *
 445:.\Generated_Source\PSoC5/ADC_SAR_Seq_1.c ****     * Side Effects:
 446:.\Generated_Source\PSoC5/ADC_SAR_Seq_1.c ****     *  None.
 447:.\Generated_Source\PSoC5/ADC_SAR_Seq_1.c ****     *
 448:.\Generated_Source\PSoC5/ADC_SAR_Seq_1.c ****     * Reentrant:
 449:.\Generated_Source\PSoC5/ADC_SAR_Seq_1.c ****     *  No.
 450:.\Generated_Source\PSoC5/ADC_SAR_Seq_1.c ****     *
 451:.\Generated_Source\PSoC5/ADC_SAR_Seq_1.c ****     *******************************************************************************/
 452:.\Generated_Source\PSoC5/ADC_SAR_Seq_1.c ****     void ADC_SAR_Seq_1_StopConvert(void)
 453:.\Generated_Source\PSoC5/ADC_SAR_Seq_1.c ****     {
 663              		.loc 1 453 0
 664              		.cfi_startproc
 665              		@ args = 0, pretend = 0, frame = 0
 666              		@ frame_needed = 1, uses_anonymous_args = 0
 667 0000 80B5     		push	{r7, lr}
 668              	.LCFI22:
 669              		.cfi_def_cfa_offset 8
 670 0002 00AF     		add	r7, sp, #0
 671              		.cfi_offset 14, -4
 672              		.cfi_offset 7, -8
 673              	.LCFI23:
 674              		.cfi_def_cfa_register 7
 454:.\Generated_Source\PSoC5/ADC_SAR_Seq_1.c ****         ADC_SAR_Seq_1_SAR_StopConvert();
 675              		.loc 1 454 0
 676 0004 FFF7FEFF 		bl	ADC_SAR_Seq_1_SAR_StopConvert
 455:.\Generated_Source\PSoC5/ADC_SAR_Seq_1.c ****     }
 677              		.loc 1 455 0
 678 0008 80BD     		pop	{r7, pc}
 679              		.cfi_endproc
 680              	.LFE10:
 681              		.size	ADC_SAR_Seq_1_StopConvert, .-ADC_SAR_Seq_1_StopConvert
ARM GAS  C:\Users\karunmj\AppData\Local\Temp\ccoJ4cNM.s 			page 21


 682 000a 00BF     		.section	.text.ADC_SAR_Seq_1_IsEndConversion,"ax",%progbits
 683              		.align	2
 684              		.global	ADC_SAR_Seq_1_IsEndConversion
 685              		.thumb
 686              		.thumb_func
 687              		.type	ADC_SAR_Seq_1_IsEndConversion, %function
 688              	ADC_SAR_Seq_1_IsEndConversion:
 689              	.LFB11:
 456:.\Generated_Source\PSoC5/ADC_SAR_Seq_1.c **** 
 457:.\Generated_Source\PSoC5/ADC_SAR_Seq_1.c **** #endif /* ADC_SAR_Seq_1_SAMPLE_MODE != ADC_SAR_Seq_1_SAMPLE_MODE_HW_TRIGGERED */
 458:.\Generated_Source\PSoC5/ADC_SAR_Seq_1.c **** 
 459:.\Generated_Source\PSoC5/ADC_SAR_Seq_1.c **** 
 460:.\Generated_Source\PSoC5/ADC_SAR_Seq_1.c **** /*******************************************************************************
 461:.\Generated_Source\PSoC5/ADC_SAR_Seq_1.c **** * Function Name: ADC_SAR_Seq_1_IsEndConversion
 462:.\Generated_Source\PSoC5/ADC_SAR_Seq_1.c **** ********************************************************************************
 463:.\Generated_Source\PSoC5/ADC_SAR_Seq_1.c **** *
 464:.\Generated_Source\PSoC5/ADC_SAR_Seq_1.c **** * Summary:
 465:.\Generated_Source\PSoC5/ADC_SAR_Seq_1.c **** *  Checks for ADC end of conversion for the case one channel and end of scan
 466:.\Generated_Source\PSoC5/ADC_SAR_Seq_1.c **** *  for the case of multiple channels
 467:.\Generated_Source\PSoC5/ADC_SAR_Seq_1.c **** *
 468:.\Generated_Source\PSoC5/ADC_SAR_Seq_1.c **** * Parameters:
 469:.\Generated_Source\PSoC5/ADC_SAR_Seq_1.c **** *  None.
 470:.\Generated_Source\PSoC5/ADC_SAR_Seq_1.c **** *
 471:.\Generated_Source\PSoC5/ADC_SAR_Seq_1.c **** * Return:
 472:.\Generated_Source\PSoC5/ADC_SAR_Seq_1.c **** *  None.
 473:.\Generated_Source\PSoC5/ADC_SAR_Seq_1.c **** *
 474:.\Generated_Source\PSoC5/ADC_SAR_Seq_1.c **** * Side Effects:
 475:.\Generated_Source\PSoC5/ADC_SAR_Seq_1.c **** *  None.
 476:.\Generated_Source\PSoC5/ADC_SAR_Seq_1.c **** *
 477:.\Generated_Source\PSoC5/ADC_SAR_Seq_1.c **** * Reentrant:
 478:.\Generated_Source\PSoC5/ADC_SAR_Seq_1.c **** *  No.
 479:.\Generated_Source\PSoC5/ADC_SAR_Seq_1.c **** *
 480:.\Generated_Source\PSoC5/ADC_SAR_Seq_1.c **** *******************************************************************************/
 481:.\Generated_Source\PSoC5/ADC_SAR_Seq_1.c **** uint32 ADC_SAR_Seq_1_IsEndConversion(uint8 retMode)
 482:.\Generated_Source\PSoC5/ADC_SAR_Seq_1.c **** {
 690              		.loc 1 482 0
 691              		.cfi_startproc
 692              		@ args = 0, pretend = 0, frame = 16
 693              		@ frame_needed = 1, uses_anonymous_args = 0
 694              		@ link register save eliminated.
 695 0000 80B4     		push	{r7}
 696              	.LCFI24:
 697              		.cfi_def_cfa_offset 4
 698 0002 85B0     		sub	sp, sp, #20
 699              	.LCFI25:
 700              		.cfi_def_cfa_offset 24
 701 0004 00AF     		add	r7, sp, #0
 702              		.cfi_offset 7, -4
 703              	.LCFI26:
 704              		.cfi_def_cfa_register 7
 705 0006 0346     		mov	r3, r0
 706 0008 FB71     		strb	r3, [r7, #7]
 707              	.L30:
 483:.\Generated_Source\PSoC5/ADC_SAR_Seq_1.c ****     uint8 status;
 484:.\Generated_Source\PSoC5/ADC_SAR_Seq_1.c **** 
 485:.\Generated_Source\PSoC5/ADC_SAR_Seq_1.c ****     do
 486:.\Generated_Source\PSoC5/ADC_SAR_Seq_1.c ****     {
ARM GAS  C:\Users\karunmj\AppData\Local\Temp\ccoJ4cNM.s 			page 22


 487:.\Generated_Source\PSoC5/ADC_SAR_Seq_1.c ****       status = ADC_SAR_Seq_1_STATUS_REG;
 708              		.loc 1 487 0
 709 000a 46F26143 		movw	r3, #:lower16:1073767521
 710 000e C4F20003 		movt	r3, #:upper16:1073767521
 711 0012 1B78     		ldrb	r3, [r3, #0]
 712 0014 FB73     		strb	r3, [r7, #15]
 488:.\Generated_Source\PSoC5/ADC_SAR_Seq_1.c ****     } while ((status == 0u) && (retMode == ADC_SAR_Seq_1_WAIT_FOR_RESULT));
 713              		.loc 1 488 0
 714 0016 FB7B     		ldrb	r3, [r7, #15]	@ zero_extendqisi2
 715 0018 002B     		cmp	r3, #0
 716 001a 02D1     		bne	.L29
 717 001c FB79     		ldrb	r3, [r7, #7]	@ zero_extendqisi2
 718 001e 002B     		cmp	r3, #0
 719 0020 F3D0     		beq	.L30
 720              	.L29:
 489:.\Generated_Source\PSoC5/ADC_SAR_Seq_1.c **** 
 490:.\Generated_Source\PSoC5/ADC_SAR_Seq_1.c ****     return((uint32)status);
 721              		.loc 1 490 0
 722 0022 FB7B     		ldrb	r3, [r7, #15]	@ zero_extendqisi2
 491:.\Generated_Source\PSoC5/ADC_SAR_Seq_1.c **** }
 723              		.loc 1 491 0
 724 0024 1846     		mov	r0, r3
 725 0026 07F11407 		add	r7, r7, #20
 726 002a BD46     		mov	sp, r7
 727 002c 80BC     		pop	{r7}
 728 002e 7047     		bx	lr
 729              		.cfi_endproc
 730              	.LFE11:
 731              		.size	ADC_SAR_Seq_1_IsEndConversion, .-ADC_SAR_Seq_1_IsEndConversion
 732              		.section	.text.ADC_SAR_Seq_1_GetResult16,"ax",%progbits
 733              		.align	2
 734              		.global	ADC_SAR_Seq_1_GetResult16
 735              		.thumb
 736              		.thumb_func
 737              		.type	ADC_SAR_Seq_1_GetResult16, %function
 738              	ADC_SAR_Seq_1_GetResult16:
 739              	.LFB12:
 492:.\Generated_Source\PSoC5/ADC_SAR_Seq_1.c **** 
 493:.\Generated_Source\PSoC5/ADC_SAR_Seq_1.c **** 
 494:.\Generated_Source\PSoC5/ADC_SAR_Seq_1.c **** /*******************************************************************************
 495:.\Generated_Source\PSoC5/ADC_SAR_Seq_1.c **** * Function Name: ADC_SAR_Seq_1_GetResult16
 496:.\Generated_Source\PSoC5/ADC_SAR_Seq_1.c **** ********************************************************************************
 497:.\Generated_Source\PSoC5/ADC_SAR_Seq_1.c **** *
 498:.\Generated_Source\PSoC5/ADC_SAR_Seq_1.c **** * Summary:
 499:.\Generated_Source\PSoC5/ADC_SAR_Seq_1.c **** *  Returns the ADC result for channel 'chan
 500:.\Generated_Source\PSoC5/ADC_SAR_Seq_1.c **** *
 501:.\Generated_Source\PSoC5/ADC_SAR_Seq_1.c **** * Parameters:
 502:.\Generated_Source\PSoC5/ADC_SAR_Seq_1.c **** *  None.
 503:.\Generated_Source\PSoC5/ADC_SAR_Seq_1.c **** *
 504:.\Generated_Source\PSoC5/ADC_SAR_Seq_1.c **** * Return:
 505:.\Generated_Source\PSoC5/ADC_SAR_Seq_1.c **** *  None.
 506:.\Generated_Source\PSoC5/ADC_SAR_Seq_1.c **** *
 507:.\Generated_Source\PSoC5/ADC_SAR_Seq_1.c **** * Side Effects:
 508:.\Generated_Source\PSoC5/ADC_SAR_Seq_1.c **** *  None.
 509:.\Generated_Source\PSoC5/ADC_SAR_Seq_1.c **** *
 510:.\Generated_Source\PSoC5/ADC_SAR_Seq_1.c **** * Reentrant:
 511:.\Generated_Source\PSoC5/ADC_SAR_Seq_1.c **** *  No.
ARM GAS  C:\Users\karunmj\AppData\Local\Temp\ccoJ4cNM.s 			page 23


 512:.\Generated_Source\PSoC5/ADC_SAR_Seq_1.c **** *
 513:.\Generated_Source\PSoC5/ADC_SAR_Seq_1.c **** *******************************************************************************/
 514:.\Generated_Source\PSoC5/ADC_SAR_Seq_1.c **** int16 ADC_SAR_Seq_1_GetResult16(uint16 chan)
 515:.\Generated_Source\PSoC5/ADC_SAR_Seq_1.c **** {
 740              		.loc 1 515 0
 741              		.cfi_startproc
 742              		@ args = 0, pretend = 0, frame = 8
 743              		@ frame_needed = 1, uses_anonymous_args = 0
 744              		@ link register save eliminated.
 745 0000 80B4     		push	{r7}
 746              	.LCFI27:
 747              		.cfi_def_cfa_offset 4
 748 0002 83B0     		sub	sp, sp, #12
 749              	.LCFI28:
 750              		.cfi_def_cfa_offset 16
 751 0004 00AF     		add	r7, sp, #0
 752              		.cfi_offset 7, -4
 753              	.LCFI29:
 754              		.cfi_def_cfa_register 7
 755 0006 0346     		mov	r3, r0
 756 0008 FB80     		strh	r3, [r7, #6]	@ movhi
 516:.\Generated_Source\PSoC5/ADC_SAR_Seq_1.c ****     return (ADC_SAR_Seq_1_finalArray[ADC_SAR_Seq_1_GET_RESULT_INDEX_OFFSET - chan] - ADC_SAR_Seq_1_
 757              		.loc 1 516 0
 758 000a FB88     		ldrh	r3, [r7, #6]
 759 000c C3F10002 		rsb	r2, r3, #0
 760 0010 40F20003 		movw	r3, #:lower16:ADC_SAR_Seq_1_finalArray
 761 0014 C0F20003 		movt	r3, #:upper16:ADC_SAR_Seq_1_finalArray
 762 0018 33F81230 		ldrh	r3, [r3, r2, lsl #1]
 763 001c 9AB2     		uxth	r2, r3
 764 001e 40F20003 		movw	r3, #:lower16:ADC_SAR_Seq_1_SAR_shift
 765 0022 C0F20003 		movt	r3, #:upper16:ADC_SAR_Seq_1_SAR_shift
 766 0026 1B88     		ldrh	r3, [r3, #0]	@ movhi
 767 0028 9BB2     		uxth	r3, r3
 768 002a 9BB2     		uxth	r3, r3
 769 002c C3EB0203 		rsb	r3, r3, r2
 770 0030 9BB2     		uxth	r3, r3
 771 0032 1BB2     		sxth	r3, r3
 517:.\Generated_Source\PSoC5/ADC_SAR_Seq_1.c **** }
 772              		.loc 1 517 0
 773 0034 1846     		mov	r0, r3
 774 0036 07F10C07 		add	r7, r7, #12
 775 003a BD46     		mov	sp, r7
 776 003c 80BC     		pop	{r7}
 777 003e 7047     		bx	lr
 778              		.cfi_endproc
 779              	.LFE12:
 780              		.size	ADC_SAR_Seq_1_GetResult16, .-ADC_SAR_Seq_1_GetResult16
 781              		.section	.text.ADC_SAR_Seq_1_GetAdcResult,"ax",%progbits
 782              		.align	2
 783              		.global	ADC_SAR_Seq_1_GetAdcResult
 784              		.thumb
 785              		.thumb_func
 786              		.type	ADC_SAR_Seq_1_GetAdcResult, %function
 787              	ADC_SAR_Seq_1_GetAdcResult:
 788              	.LFB13:
 518:.\Generated_Source\PSoC5/ADC_SAR_Seq_1.c **** 
 519:.\Generated_Source\PSoC5/ADC_SAR_Seq_1.c **** 
ARM GAS  C:\Users\karunmj\AppData\Local\Temp\ccoJ4cNM.s 			page 24


 520:.\Generated_Source\PSoC5/ADC_SAR_Seq_1.c **** /*******************************************************************************
 521:.\Generated_Source\PSoC5/ADC_SAR_Seq_1.c **** * Function Name: ADC_SAR_Seq_1_GetAdcResult
 522:.\Generated_Source\PSoC5/ADC_SAR_Seq_1.c **** ********************************************************************************
 523:.\Generated_Source\PSoC5/ADC_SAR_Seq_1.c **** *
 524:.\Generated_Source\PSoC5/ADC_SAR_Seq_1.c **** * Summary:
 525:.\Generated_Source\PSoC5/ADC_SAR_Seq_1.c **** *  Gets the data available in the SAR DATA register, not the results buffer
 526:.\Generated_Source\PSoC5/ADC_SAR_Seq_1.c **** *
 527:.\Generated_Source\PSoC5/ADC_SAR_Seq_1.c **** * Parameters:
 528:.\Generated_Source\PSoC5/ADC_SAR_Seq_1.c **** *  None.
 529:.\Generated_Source\PSoC5/ADC_SAR_Seq_1.c **** *
 530:.\Generated_Source\PSoC5/ADC_SAR_Seq_1.c **** * Return:
 531:.\Generated_Source\PSoC5/ADC_SAR_Seq_1.c **** *  None.
 532:.\Generated_Source\PSoC5/ADC_SAR_Seq_1.c **** *
 533:.\Generated_Source\PSoC5/ADC_SAR_Seq_1.c **** * Side Effects:
 534:.\Generated_Source\PSoC5/ADC_SAR_Seq_1.c **** *  None.
 535:.\Generated_Source\PSoC5/ADC_SAR_Seq_1.c **** *
 536:.\Generated_Source\PSoC5/ADC_SAR_Seq_1.c **** * Reentrant:
 537:.\Generated_Source\PSoC5/ADC_SAR_Seq_1.c **** *  No.
 538:.\Generated_Source\PSoC5/ADC_SAR_Seq_1.c **** *
 539:.\Generated_Source\PSoC5/ADC_SAR_Seq_1.c **** *******************************************************************************/
 540:.\Generated_Source\PSoC5/ADC_SAR_Seq_1.c **** int16 ADC_SAR_Seq_1_GetAdcResult(void)
 541:.\Generated_Source\PSoC5/ADC_SAR_Seq_1.c **** {
 789              		.loc 1 541 0
 790              		.cfi_startproc
 791              		@ args = 0, pretend = 0, frame = 0
 792              		@ frame_needed = 1, uses_anonymous_args = 0
 793 0000 80B5     		push	{r7, lr}
 794              	.LCFI30:
 795              		.cfi_def_cfa_offset 8
 796 0002 00AF     		add	r7, sp, #0
 797              		.cfi_offset 14, -4
 798              		.cfi_offset 7, -8
 799              	.LCFI31:
 800              		.cfi_def_cfa_register 7
 542:.\Generated_Source\PSoC5/ADC_SAR_Seq_1.c ****     return (ADC_SAR_Seq_1_SAR_GetResult16());
 801              		.loc 1 542 0
 802 0004 FFF7FEFF 		bl	ADC_SAR_Seq_1_SAR_GetResult16
 803 0008 0346     		mov	r3, r0
 804 000a 9BB2     		uxth	r3, r3
 805 000c 9BB2     		uxth	r3, r3
 806 000e 1BB2     		sxth	r3, r3
 543:.\Generated_Source\PSoC5/ADC_SAR_Seq_1.c **** }
 807              		.loc 1 543 0
 808 0010 1846     		mov	r0, r3
 809 0012 80BD     		pop	{r7, pc}
 810              		.cfi_endproc
 811              	.LFE13:
 812              		.size	ADC_SAR_Seq_1_GetAdcResult, .-ADC_SAR_Seq_1_GetAdcResult
 813              		.section	.text.ADC_SAR_Seq_1_SetOffset,"ax",%progbits
 814              		.align	2
 815              		.global	ADC_SAR_Seq_1_SetOffset
 816              		.thumb
 817              		.thumb_func
 818              		.type	ADC_SAR_Seq_1_SetOffset, %function
 819              	ADC_SAR_Seq_1_SetOffset:
 820              	.LFB14:
 544:.\Generated_Source\PSoC5/ADC_SAR_Seq_1.c **** 
ARM GAS  C:\Users\karunmj\AppData\Local\Temp\ccoJ4cNM.s 			page 25


 545:.\Generated_Source\PSoC5/ADC_SAR_Seq_1.c **** 
 546:.\Generated_Source\PSoC5/ADC_SAR_Seq_1.c **** /*******************************************************************************
 547:.\Generated_Source\PSoC5/ADC_SAR_Seq_1.c **** * Function Name: ADC_SAR_Seq_1_SetOffset
 548:.\Generated_Source\PSoC5/ADC_SAR_Seq_1.c **** ********************************************************************************
 549:.\Generated_Source\PSoC5/ADC_SAR_Seq_1.c **** *
 550:.\Generated_Source\PSoC5/ADC_SAR_Seq_1.c **** * Summary:
 551:.\Generated_Source\PSoC5/ADC_SAR_Seq_1.c **** *  Sets the ADC offset which is used by the functions _CountsTo_uVolts(),
 552:.\Generated_Source\PSoC5/ADC_SAR_Seq_1.c **** *  _CountsTo_mVolts() and _CountsTo_Volts() to substract the offset from the
 553:.\Generated_Source\PSoC5/ADC_SAR_Seq_1.c **** *  given reading before calculating the voltage conversion
 554:.\Generated_Source\PSoC5/ADC_SAR_Seq_1.c **** *
 555:.\Generated_Source\PSoC5/ADC_SAR_Seq_1.c **** * Parameters:
 556:.\Generated_Source\PSoC5/ADC_SAR_Seq_1.c **** *  None.
 557:.\Generated_Source\PSoC5/ADC_SAR_Seq_1.c **** *
 558:.\Generated_Source\PSoC5/ADC_SAR_Seq_1.c **** * Return:
 559:.\Generated_Source\PSoC5/ADC_SAR_Seq_1.c **** *  None.
 560:.\Generated_Source\PSoC5/ADC_SAR_Seq_1.c **** *
 561:.\Generated_Source\PSoC5/ADC_SAR_Seq_1.c **** * Side Effects:
 562:.\Generated_Source\PSoC5/ADC_SAR_Seq_1.c **** *  None.
 563:.\Generated_Source\PSoC5/ADC_SAR_Seq_1.c **** *
 564:.\Generated_Source\PSoC5/ADC_SAR_Seq_1.c **** * Reentrant:
 565:.\Generated_Source\PSoC5/ADC_SAR_Seq_1.c **** *  No.
 566:.\Generated_Source\PSoC5/ADC_SAR_Seq_1.c **** *
 567:.\Generated_Source\PSoC5/ADC_SAR_Seq_1.c **** *******************************************************************************/
 568:.\Generated_Source\PSoC5/ADC_SAR_Seq_1.c **** void ADC_SAR_Seq_1_SetOffset(int32 offset)
 569:.\Generated_Source\PSoC5/ADC_SAR_Seq_1.c **** {
 821              		.loc 1 569 0
 822              		.cfi_startproc
 823              		@ args = 0, pretend = 0, frame = 8
 824              		@ frame_needed = 1, uses_anonymous_args = 0
 825 0000 80B5     		push	{r7, lr}
 826              	.LCFI32:
 827              		.cfi_def_cfa_offset 8
 828 0002 82B0     		sub	sp, sp, #8
 829              	.LCFI33:
 830              		.cfi_def_cfa_offset 16
 831 0004 00AF     		add	r7, sp, #0
 832              		.cfi_offset 14, -4
 833              		.cfi_offset 7, -8
 834              	.LCFI34:
 835              		.cfi_def_cfa_register 7
 836 0006 7860     		str	r0, [r7, #4]
 570:.\Generated_Source\PSoC5/ADC_SAR_Seq_1.c ****     ADC_SAR_Seq_1_SAR_SetOffset((int16)offset);
 837              		.loc 1 570 0
 838 0008 7B68     		ldr	r3, [r7, #4]
 839 000a 9BB2     		uxth	r3, r3
 840 000c 1BB2     		sxth	r3, r3
 841 000e 1846     		mov	r0, r3
 842 0010 FFF7FEFF 		bl	ADC_SAR_Seq_1_SAR_SetOffset
 571:.\Generated_Source\PSoC5/ADC_SAR_Seq_1.c **** }
 843              		.loc 1 571 0
 844 0014 07F10807 		add	r7, r7, #8
 845 0018 BD46     		mov	sp, r7
 846 001a 80BD     		pop	{r7, pc}
 847              		.cfi_endproc
 848              	.LFE14:
 849              		.size	ADC_SAR_Seq_1_SetOffset, .-ADC_SAR_Seq_1_SetOffset
 850              		.section	.text.ADC_SAR_Seq_1_SetResolution,"ax",%progbits
ARM GAS  C:\Users\karunmj\AppData\Local\Temp\ccoJ4cNM.s 			page 26


 851              		.align	2
 852              		.global	ADC_SAR_Seq_1_SetResolution
 853              		.thumb
 854              		.thumb_func
 855              		.type	ADC_SAR_Seq_1_SetResolution, %function
 856              	ADC_SAR_Seq_1_SetResolution:
 857              	.LFB15:
 572:.\Generated_Source\PSoC5/ADC_SAR_Seq_1.c **** 
 573:.\Generated_Source\PSoC5/ADC_SAR_Seq_1.c **** 
 574:.\Generated_Source\PSoC5/ADC_SAR_Seq_1.c **** /*******************************************************************************
 575:.\Generated_Source\PSoC5/ADC_SAR_Seq_1.c **** * Function Name: ADC_SAR_Seq_1_SetResolution
 576:.\Generated_Source\PSoC5/ADC_SAR_Seq_1.c **** ********************************************************************************
 577:.\Generated_Source\PSoC5/ADC_SAR_Seq_1.c **** *
 578:.\Generated_Source\PSoC5/ADC_SAR_Seq_1.c **** * Summary:
 579:.\Generated_Source\PSoC5/ADC_SAR_Seq_1.c **** *  Sets the Relution of the SAR.
 580:.\Generated_Source\PSoC5/ADC_SAR_Seq_1.c **** *  This function does not affect the actual conversion with PSoC5 ES1 silicon.
 581:.\Generated_Source\PSoC5/ADC_SAR_Seq_1.c **** *
 582:.\Generated_Source\PSoC5/ADC_SAR_Seq_1.c **** * Parameters:
 583:.\Generated_Source\PSoC5/ADC_SAR_Seq_1.c **** *  resolution:
 584:.\Generated_Source\PSoC5/ADC_SAR_Seq_1.c **** *  12 ->    RES12
 585:.\Generated_Source\PSoC5/ADC_SAR_Seq_1.c **** *  10 ->    RES10
 586:.\Generated_Source\PSoC5/ADC_SAR_Seq_1.c **** *  8  ->    RES8
 587:.\Generated_Source\PSoC5/ADC_SAR_Seq_1.c **** *
 588:.\Generated_Source\PSoC5/ADC_SAR_Seq_1.c **** * Return:
 589:.\Generated_Source\PSoC5/ADC_SAR_Seq_1.c **** *  None.
 590:.\Generated_Source\PSoC5/ADC_SAR_Seq_1.c **** *
 591:.\Generated_Source\PSoC5/ADC_SAR_Seq_1.c **** * Side Effects:
 592:.\Generated_Source\PSoC5/ADC_SAR_Seq_1.c **** *  The ADC_SAR_Seq resolution cannot be changed during a conversion cycle. The
 593:.\Generated_Source\PSoC5/ADC_SAR_Seq_1.c **** *  recommended best practice is to stop conversions with
 594:.\Generated_Source\PSoC5/ADC_SAR_Seq_1.c **** *  ADC_SAR_Seq_StopConvert(), change the resolution, then restart the
 595:.\Generated_Source\PSoC5/ADC_SAR_Seq_1.c **** *  conversions with ADC_SAR_Seq_StartConvert().
 596:.\Generated_Source\PSoC5/ADC_SAR_Seq_1.c **** *  If you decide not to stop conversions before calling this API, you
 597:.\Generated_Source\PSoC5/ADC_SAR_Seq_1.c **** *  should use ADC_SAR_Seq_IsEndConversion() to wait until conversion is complete
 598:.\Generated_Source\PSoC5/ADC_SAR_Seq_1.c **** *  before changing the resolution.
 599:.\Generated_Source\PSoC5/ADC_SAR_Seq_1.c **** *  If you call ADC_SetResolution() during a conversion, the resolution will
 600:.\Generated_Source\PSoC5/ADC_SAR_Seq_1.c **** *  not be changed until the current conversion is complete. Data will not be
 601:.\Generated_Source\PSoC5/ADC_SAR_Seq_1.c **** *  available in the new resolution for another 6 + "New Resolution(in bits)"
 602:.\Generated_Source\PSoC5/ADC_SAR_Seq_1.c **** *  clock cycles.
 603:.\Generated_Source\PSoC5/ADC_SAR_Seq_1.c **** *  You may need add a delay of this number of clock cycles after
 604:.\Generated_Source\PSoC5/ADC_SAR_Seq_1.c **** *  ADC_SAR_Seq_SetResolution() is called before data is valid again.
 605:.\Generated_Source\PSoC5/ADC_SAR_Seq_1.c **** *  Affects ADC_SAR_Seq_CountsTo_Volts(), ADC_SAR_Seq_CountsTo_mVolts(), and
 606:.\Generated_Source\PSoC5/ADC_SAR_Seq_1.c **** *  ADC_SAR_Seq_CountsTo_uVolts() by calculating the correct conversion between
 607:.\Generated_Source\PSoC5/ADC_SAR_Seq_1.c **** *  ADC
 608:.\Generated_Source\PSoC5/ADC_SAR_Seq_1.c **** *  counts and the applied input voltage. Calculation depends on resolution,
 609:.\Generated_Source\PSoC5/ADC_SAR_Seq_1.c **** *  input range, and voltage reference.
 610:.\Generated_Source\PSoC5/ADC_SAR_Seq_1.c **** *
 611:.\Generated_Source\PSoC5/ADC_SAR_Seq_1.c **** *******************************************************************************/
 612:.\Generated_Source\PSoC5/ADC_SAR_Seq_1.c **** void ADC_SAR_Seq_1_SetResolution(uint8 resolution)
 613:.\Generated_Source\PSoC5/ADC_SAR_Seq_1.c **** {
 858              		.loc 1 613 0
 859              		.cfi_startproc
 860              		@ args = 0, pretend = 0, frame = 8
 861              		@ frame_needed = 1, uses_anonymous_args = 0
 862 0000 80B5     		push	{r7, lr}
 863              	.LCFI35:
 864              		.cfi_def_cfa_offset 8
 865 0002 82B0     		sub	sp, sp, #8
ARM GAS  C:\Users\karunmj\AppData\Local\Temp\ccoJ4cNM.s 			page 27


 866              	.LCFI36:
 867              		.cfi_def_cfa_offset 16
 868 0004 00AF     		add	r7, sp, #0
 869              		.cfi_offset 14, -4
 870              		.cfi_offset 7, -8
 871              	.LCFI37:
 872              		.cfi_def_cfa_register 7
 873 0006 0346     		mov	r3, r0
 874 0008 FB71     		strb	r3, [r7, #7]
 614:.\Generated_Source\PSoC5/ADC_SAR_Seq_1.c ****     ADC_SAR_Seq_1_SAR_SetResolution(resolution);
 875              		.loc 1 614 0
 876 000a FB79     		ldrb	r3, [r7, #7]	@ zero_extendqisi2
 877 000c 1846     		mov	r0, r3
 878 000e FFF7FEFF 		bl	ADC_SAR_Seq_1_SAR_SetResolution
 615:.\Generated_Source\PSoC5/ADC_SAR_Seq_1.c **** }
 879              		.loc 1 615 0
 880 0012 07F10807 		add	r7, r7, #8
 881 0016 BD46     		mov	sp, r7
 882 0018 80BD     		pop	{r7, pc}
 883              		.cfi_endproc
 884              	.LFE15:
 885              		.size	ADC_SAR_Seq_1_SetResolution, .-ADC_SAR_Seq_1_SetResolution
 886 001a 00BF     		.section	.text.ADC_SAR_Seq_1_SetGain,"ax",%progbits
 887              		.align	2
 888              		.global	ADC_SAR_Seq_1_SetGain
 889              		.thumb
 890              		.thumb_func
 891              		.type	ADC_SAR_Seq_1_SetGain, %function
 892              	ADC_SAR_Seq_1_SetGain:
 893              	.LFB16:
 616:.\Generated_Source\PSoC5/ADC_SAR_Seq_1.c **** 
 617:.\Generated_Source\PSoC5/ADC_SAR_Seq_1.c **** 
 618:.\Generated_Source\PSoC5/ADC_SAR_Seq_1.c **** /*******************************************************************************
 619:.\Generated_Source\PSoC5/ADC_SAR_Seq_1.c **** * Function Name: ADC_SAR_Seq_1_SetGain
 620:.\Generated_Source\PSoC5/ADC_SAR_Seq_1.c **** ********************************************************************************
 621:.\Generated_Source\PSoC5/ADC_SAR_Seq_1.c **** *
 622:.\Generated_Source\PSoC5/ADC_SAR_Seq_1.c **** * Summary:
 623:.\Generated_Source\PSoC5/ADC_SAR_Seq_1.c **** *  Sets the ADC gain in counts per volt for the voltage conversion
 624:.\Generated_Source\PSoC5/ADC_SAR_Seq_1.c **** *
 625:.\Generated_Source\PSoC5/ADC_SAR_Seq_1.c **** * Parameters:
 626:.\Generated_Source\PSoC5/ADC_SAR_Seq_1.c **** *  None.
 627:.\Generated_Source\PSoC5/ADC_SAR_Seq_1.c **** *
 628:.\Generated_Source\PSoC5/ADC_SAR_Seq_1.c **** * Return:
 629:.\Generated_Source\PSoC5/ADC_SAR_Seq_1.c **** *  None.
 630:.\Generated_Source\PSoC5/ADC_SAR_Seq_1.c **** *
 631:.\Generated_Source\PSoC5/ADC_SAR_Seq_1.c **** * Side Effects:
 632:.\Generated_Source\PSoC5/ADC_SAR_Seq_1.c **** *  None.
 633:.\Generated_Source\PSoC5/ADC_SAR_Seq_1.c **** *
 634:.\Generated_Source\PSoC5/ADC_SAR_Seq_1.c **** * Reentrant:
 635:.\Generated_Source\PSoC5/ADC_SAR_Seq_1.c **** *  No.
 636:.\Generated_Source\PSoC5/ADC_SAR_Seq_1.c **** *
 637:.\Generated_Source\PSoC5/ADC_SAR_Seq_1.c **** *******************************************************************************/
 638:.\Generated_Source\PSoC5/ADC_SAR_Seq_1.c **** void ADC_SAR_Seq_1_SetGain(int32 adcGain)
 639:.\Generated_Source\PSoC5/ADC_SAR_Seq_1.c **** {
 894              		.loc 1 639 0
 895              		.cfi_startproc
 896              		@ args = 0, pretend = 0, frame = 8
ARM GAS  C:\Users\karunmj\AppData\Local\Temp\ccoJ4cNM.s 			page 28


 897              		@ frame_needed = 1, uses_anonymous_args = 0
 898 0000 80B5     		push	{r7, lr}
 899              	.LCFI38:
 900              		.cfi_def_cfa_offset 8
 901 0002 82B0     		sub	sp, sp, #8
 902              	.LCFI39:
 903              		.cfi_def_cfa_offset 16
 904 0004 00AF     		add	r7, sp, #0
 905              		.cfi_offset 14, -4
 906              		.cfi_offset 7, -8
 907              	.LCFI40:
 908              		.cfi_def_cfa_register 7
 909 0006 7860     		str	r0, [r7, #4]
 640:.\Generated_Source\PSoC5/ADC_SAR_Seq_1.c ****     ADC_SAR_Seq_1_SAR_SetGain((int16)adcGain);
 910              		.loc 1 640 0
 911 0008 7B68     		ldr	r3, [r7, #4]
 912 000a 9BB2     		uxth	r3, r3
 913 000c 1BB2     		sxth	r3, r3
 914 000e 1846     		mov	r0, r3
 915 0010 FFF7FEFF 		bl	ADC_SAR_Seq_1_SAR_SetGain
 641:.\Generated_Source\PSoC5/ADC_SAR_Seq_1.c **** }
 916              		.loc 1 641 0
 917 0014 07F10807 		add	r7, r7, #8
 918 0018 BD46     		mov	sp, r7
 919 001a 80BD     		pop	{r7, pc}
 920              		.cfi_endproc
 921              	.LFE16:
 922              		.size	ADC_SAR_Seq_1_SetGain, .-ADC_SAR_Seq_1_SetGain
 923              		.section	.text.ADC_SAR_Seq_1_CountsTo_mVolts,"ax",%progbits
 924              		.align	2
 925              		.global	ADC_SAR_Seq_1_CountsTo_mVolts
 926              		.thumb
 927              		.thumb_func
 928              		.type	ADC_SAR_Seq_1_CountsTo_mVolts, %function
 929              	ADC_SAR_Seq_1_CountsTo_mVolts:
 930              	.LFB17:
 642:.\Generated_Source\PSoC5/ADC_SAR_Seq_1.c **** 
 643:.\Generated_Source\PSoC5/ADC_SAR_Seq_1.c **** 
 644:.\Generated_Source\PSoC5/ADC_SAR_Seq_1.c **** /*******************************************************************************
 645:.\Generated_Source\PSoC5/ADC_SAR_Seq_1.c **** * Function Name: ADC_SAR_Seq_1_CountsTo_mVolts
 646:.\Generated_Source\PSoC5/ADC_SAR_Seq_1.c **** ********************************************************************************
 647:.\Generated_Source\PSoC5/ADC_SAR_Seq_1.c **** *
 648:.\Generated_Source\PSoC5/ADC_SAR_Seq_1.c **** * Summary:
 649:.\Generated_Source\PSoC5/ADC_SAR_Seq_1.c **** *  Converts the ADC output to mVolts as a 32-bit integer
 650:.\Generated_Source\PSoC5/ADC_SAR_Seq_1.c **** *
 651:.\Generated_Source\PSoC5/ADC_SAR_Seq_1.c **** * Parameters:
 652:.\Generated_Source\PSoC5/ADC_SAR_Seq_1.c **** *  None.
 653:.\Generated_Source\PSoC5/ADC_SAR_Seq_1.c **** *
 654:.\Generated_Source\PSoC5/ADC_SAR_Seq_1.c **** * Return:
 655:.\Generated_Source\PSoC5/ADC_SAR_Seq_1.c **** *  None.
 656:.\Generated_Source\PSoC5/ADC_SAR_Seq_1.c **** *
 657:.\Generated_Source\PSoC5/ADC_SAR_Seq_1.c **** * Side Effects:
 658:.\Generated_Source\PSoC5/ADC_SAR_Seq_1.c **** *  None.
 659:.\Generated_Source\PSoC5/ADC_SAR_Seq_1.c **** *
 660:.\Generated_Source\PSoC5/ADC_SAR_Seq_1.c **** * Reentrant:
 661:.\Generated_Source\PSoC5/ADC_SAR_Seq_1.c **** *  No.
 662:.\Generated_Source\PSoC5/ADC_SAR_Seq_1.c **** *
ARM GAS  C:\Users\karunmj\AppData\Local\Temp\ccoJ4cNM.s 			page 29


 663:.\Generated_Source\PSoC5/ADC_SAR_Seq_1.c **** *******************************************************************************/
 664:.\Generated_Source\PSoC5/ADC_SAR_Seq_1.c **** int32 ADC_SAR_Seq_1_CountsTo_mVolts(int16 adcCounts)
 665:.\Generated_Source\PSoC5/ADC_SAR_Seq_1.c **** {
 931              		.loc 1 665 0
 932              		.cfi_startproc
 933              		@ args = 0, pretend = 0, frame = 8
 934              		@ frame_needed = 1, uses_anonymous_args = 0
 935 0000 80B5     		push	{r7, lr}
 936              	.LCFI41:
 937              		.cfi_def_cfa_offset 8
 938 0002 82B0     		sub	sp, sp, #8
 939              	.LCFI42:
 940              		.cfi_def_cfa_offset 16
 941 0004 00AF     		add	r7, sp, #0
 942              		.cfi_offset 14, -4
 943              		.cfi_offset 7, -8
 944              	.LCFI43:
 945              		.cfi_def_cfa_register 7
 946 0006 0346     		mov	r3, r0
 947 0008 FB80     		strh	r3, [r7, #6]	@ movhi
 666:.\Generated_Source\PSoC5/ADC_SAR_Seq_1.c ****     return ((int32) ADC_SAR_Seq_1_SAR_CountsTo_mVolts(adcCounts));
 948              		.loc 1 666 0
 949 000a B7F90630 		ldrsh	r3, [r7, #6]
 950 000e 1846     		mov	r0, r3
 951 0010 FFF7FEFF 		bl	ADC_SAR_Seq_1_SAR_CountsTo_mVolts
 952 0014 0346     		mov	r3, r0
 953 0016 9BB2     		uxth	r3, r3
 954 0018 1BB2     		sxth	r3, r3
 667:.\Generated_Source\PSoC5/ADC_SAR_Seq_1.c **** }
 955              		.loc 1 667 0
 956 001a 1846     		mov	r0, r3
 957 001c 07F10807 		add	r7, r7, #8
 958 0020 BD46     		mov	sp, r7
 959 0022 80BD     		pop	{r7, pc}
 960              		.cfi_endproc
 961              	.LFE17:
 962              		.size	ADC_SAR_Seq_1_CountsTo_mVolts, .-ADC_SAR_Seq_1_CountsTo_mVolts
 963              		.section	.text.ADC_SAR_Seq_1_CountsTo_uVolts,"ax",%progbits
 964              		.align	2
 965              		.global	ADC_SAR_Seq_1_CountsTo_uVolts
 966              		.thumb
 967              		.thumb_func
 968              		.type	ADC_SAR_Seq_1_CountsTo_uVolts, %function
 969              	ADC_SAR_Seq_1_CountsTo_uVolts:
 970              	.LFB18:
 668:.\Generated_Source\PSoC5/ADC_SAR_Seq_1.c **** 
 669:.\Generated_Source\PSoC5/ADC_SAR_Seq_1.c **** 
 670:.\Generated_Source\PSoC5/ADC_SAR_Seq_1.c **** /*******************************************************************************
 671:.\Generated_Source\PSoC5/ADC_SAR_Seq_1.c **** * Function Name: ADC_SAR_Seq_1_CountsTo_uVolts
 672:.\Generated_Source\PSoC5/ADC_SAR_Seq_1.c **** ********************************************************************************
 673:.\Generated_Source\PSoC5/ADC_SAR_Seq_1.c **** *
 674:.\Generated_Source\PSoC5/ADC_SAR_Seq_1.c **** * Summary:
 675:.\Generated_Source\PSoC5/ADC_SAR_Seq_1.c **** *  Converts the ADC output to uVolts as a 32-bit integer
 676:.\Generated_Source\PSoC5/ADC_SAR_Seq_1.c **** *
 677:.\Generated_Source\PSoC5/ADC_SAR_Seq_1.c **** * Parameters:
 678:.\Generated_Source\PSoC5/ADC_SAR_Seq_1.c **** *  None.
 679:.\Generated_Source\PSoC5/ADC_SAR_Seq_1.c **** *
ARM GAS  C:\Users\karunmj\AppData\Local\Temp\ccoJ4cNM.s 			page 30


 680:.\Generated_Source\PSoC5/ADC_SAR_Seq_1.c **** * Return:
 681:.\Generated_Source\PSoC5/ADC_SAR_Seq_1.c **** *  None.
 682:.\Generated_Source\PSoC5/ADC_SAR_Seq_1.c **** *
 683:.\Generated_Source\PSoC5/ADC_SAR_Seq_1.c **** * Side Effects:
 684:.\Generated_Source\PSoC5/ADC_SAR_Seq_1.c **** *  None.
 685:.\Generated_Source\PSoC5/ADC_SAR_Seq_1.c **** *
 686:.\Generated_Source\PSoC5/ADC_SAR_Seq_1.c **** * Reentrant:
 687:.\Generated_Source\PSoC5/ADC_SAR_Seq_1.c **** *  No.
 688:.\Generated_Source\PSoC5/ADC_SAR_Seq_1.c **** *
 689:.\Generated_Source\PSoC5/ADC_SAR_Seq_1.c **** *******************************************************************************/
 690:.\Generated_Source\PSoC5/ADC_SAR_Seq_1.c **** int32 ADC_SAR_Seq_1_CountsTo_uVolts(int16 adcCounts)
 691:.\Generated_Source\PSoC5/ADC_SAR_Seq_1.c **** {
 971              		.loc 1 691 0
 972              		.cfi_startproc
 973              		@ args = 0, pretend = 0, frame = 8
 974              		@ frame_needed = 1, uses_anonymous_args = 0
 975 0000 80B5     		push	{r7, lr}
 976              	.LCFI44:
 977              		.cfi_def_cfa_offset 8
 978 0002 82B0     		sub	sp, sp, #8
 979              	.LCFI45:
 980              		.cfi_def_cfa_offset 16
 981 0004 00AF     		add	r7, sp, #0
 982              		.cfi_offset 14, -4
 983              		.cfi_offset 7, -8
 984              	.LCFI46:
 985              		.cfi_def_cfa_register 7
 986 0006 0346     		mov	r3, r0
 987 0008 FB80     		strh	r3, [r7, #6]	@ movhi
 692:.\Generated_Source\PSoC5/ADC_SAR_Seq_1.c ****     return (ADC_SAR_Seq_1_SAR_CountsTo_uVolts(adcCounts));
 988              		.loc 1 692 0
 989 000a B7F90630 		ldrsh	r3, [r7, #6]
 990 000e 1846     		mov	r0, r3
 991 0010 FFF7FEFF 		bl	ADC_SAR_Seq_1_SAR_CountsTo_uVolts
 992 0014 0346     		mov	r3, r0
 693:.\Generated_Source\PSoC5/ADC_SAR_Seq_1.c **** }
 993              		.loc 1 693 0
 994 0016 1846     		mov	r0, r3
 995 0018 07F10807 		add	r7, r7, #8
 996 001c BD46     		mov	sp, r7
 997 001e 80BD     		pop	{r7, pc}
 998              		.cfi_endproc
 999              	.LFE18:
 1000              		.size	ADC_SAR_Seq_1_CountsTo_uVolts, .-ADC_SAR_Seq_1_CountsTo_uVolts
 1001              		.section	.text.ADC_SAR_Seq_1_CountsTo_Volts,"ax",%progbits
 1002              		.align	2
 1003              		.global	ADC_SAR_Seq_1_CountsTo_Volts
 1004              		.thumb
 1005              		.thumb_func
 1006              		.type	ADC_SAR_Seq_1_CountsTo_Volts, %function
 1007              	ADC_SAR_Seq_1_CountsTo_Volts:
 1008              	.LFB19:
 694:.\Generated_Source\PSoC5/ADC_SAR_Seq_1.c **** 
 695:.\Generated_Source\PSoC5/ADC_SAR_Seq_1.c **** 
 696:.\Generated_Source\PSoC5/ADC_SAR_Seq_1.c **** /*******************************************************************************
 697:.\Generated_Source\PSoC5/ADC_SAR_Seq_1.c **** * Function Name: ADC_SAR_Seq_1_CountsTo_Volts
 698:.\Generated_Source\PSoC5/ADC_SAR_Seq_1.c **** ********************************************************************************
ARM GAS  C:\Users\karunmj\AppData\Local\Temp\ccoJ4cNM.s 			page 31


 699:.\Generated_Source\PSoC5/ADC_SAR_Seq_1.c **** *
 700:.\Generated_Source\PSoC5/ADC_SAR_Seq_1.c **** * Summary:
 701:.\Generated_Source\PSoC5/ADC_SAR_Seq_1.c **** *  Converts the ADC output to Volts as a floating point number
 702:.\Generated_Source\PSoC5/ADC_SAR_Seq_1.c **** *
 703:.\Generated_Source\PSoC5/ADC_SAR_Seq_1.c **** * Parameters:
 704:.\Generated_Source\PSoC5/ADC_SAR_Seq_1.c **** *  None.
 705:.\Generated_Source\PSoC5/ADC_SAR_Seq_1.c **** *
 706:.\Generated_Source\PSoC5/ADC_SAR_Seq_1.c **** * Return:
 707:.\Generated_Source\PSoC5/ADC_SAR_Seq_1.c **** *  None.
 708:.\Generated_Source\PSoC5/ADC_SAR_Seq_1.c **** *
 709:.\Generated_Source\PSoC5/ADC_SAR_Seq_1.c **** * Side Effects:
 710:.\Generated_Source\PSoC5/ADC_SAR_Seq_1.c **** *  None.
 711:.\Generated_Source\PSoC5/ADC_SAR_Seq_1.c **** *
 712:.\Generated_Source\PSoC5/ADC_SAR_Seq_1.c **** * Reentrant:
 713:.\Generated_Source\PSoC5/ADC_SAR_Seq_1.c **** *  No.
 714:.\Generated_Source\PSoC5/ADC_SAR_Seq_1.c **** *
 715:.\Generated_Source\PSoC5/ADC_SAR_Seq_1.c **** *******************************************************************************/
 716:.\Generated_Source\PSoC5/ADC_SAR_Seq_1.c **** float32 ADC_SAR_Seq_1_CountsTo_Volts(int16 adcCounts)
 717:.\Generated_Source\PSoC5/ADC_SAR_Seq_1.c **** {
 1009              		.loc 1 717 0
 1010              		.cfi_startproc
 1011              		@ args = 0, pretend = 0, frame = 8
 1012              		@ frame_needed = 1, uses_anonymous_args = 0
 1013 0000 80B5     		push	{r7, lr}
 1014              	.LCFI47:
 1015              		.cfi_def_cfa_offset 8
 1016 0002 82B0     		sub	sp, sp, #8
 1017              	.LCFI48:
 1018              		.cfi_def_cfa_offset 16
 1019 0004 00AF     		add	r7, sp, #0
 1020              		.cfi_offset 14, -4
 1021              		.cfi_offset 7, -8
 1022              	.LCFI49:
 1023              		.cfi_def_cfa_register 7
 1024 0006 0346     		mov	r3, r0
 1025 0008 FB80     		strh	r3, [r7, #6]	@ movhi
 718:.\Generated_Source\PSoC5/ADC_SAR_Seq_1.c ****     return (ADC_SAR_Seq_1_SAR_CountsTo_Volts(adcCounts));
 1026              		.loc 1 718 0
 1027 000a B7F90630 		ldrsh	r3, [r7, #6]
 1028 000e 1846     		mov	r0, r3
 1029 0010 FFF7FEFF 		bl	ADC_SAR_Seq_1_SAR_CountsTo_Volts
 1030 0014 0346     		mov	r3, r0
 719:.\Generated_Source\PSoC5/ADC_SAR_Seq_1.c **** }
 1031              		.loc 1 719 0
 1032 0016 1846     		mov	r0, r3
 1033 0018 07F10807 		add	r7, r7, #8
 1034 001c BD46     		mov	sp, r7
 1035 001e 80BD     		pop	{r7, pc}
 1036              		.cfi_endproc
 1037              	.LFE19:
 1038              		.size	ADC_SAR_Seq_1_CountsTo_Volts, .-ADC_SAR_Seq_1_CountsTo_Volts
 1039              		.text
 1040              	.Letext0: