ARM GAS  C:\Users\karunmj\AppData\Local\Temp\ccZ3DH5A.s 			page 1


   1              		.syntax unified
   2              		.cpu cortex-m3
   3              		.fpu softvfp
   4              		.eabi_attribute 20, 1
   5              		.eabi_attribute 21, 1
   6              		.eabi_attribute 23, 3
   7              		.eabi_attribute 24, 1
   8              		.eabi_attribute 25, 1
   9              		.eabi_attribute 26, 1
  10              		.eabi_attribute 30, 6
  11              		.eabi_attribute 18, 4
  12              		.thumb
  13              		.file	"ADC_DelSig_1.c"
  14              		.section	.debug_abbrev,"",%progbits
  15              	.Ldebug_abbrev0:
  16              		.section	.debug_info,"",%progbits
  17              	.Ldebug_info0:
  18              		.section	.debug_line,"",%progbits
  19              	.Ldebug_line0:
  20 0000 C8030000 		.text
  20      02006500 
  20      00000201 
  20      FB0E0D00 
  20      01010101 
  21              	.Ltext0:
  22              		.cfi_sections	.debug_frame
  23              		.global	ADC_DelSig_1_convDone
  24              		.bss
  25              		.type	ADC_DelSig_1_convDone, %object
  26              		.size	ADC_DelSig_1_convDone, 1
  27              	ADC_DelSig_1_convDone:
  28 0000 00       		.space	1
  29              		.global	ADC_DelSig_1_stopConversion
  30              		.type	ADC_DelSig_1_stopConversion, %object
  31              		.size	ADC_DelSig_1_stopConversion, 1
  32              	ADC_DelSig_1_stopConversion:
  33 0001 00       		.space	1
  34              		.global	ADC_DelSig_1_initVar
  35              		.type	ADC_DelSig_1_initVar, %object
  36              		.size	ADC_DelSig_1_initVar, 1
  37              	ADC_DelSig_1_initVar:
  38 0002 00       		.space	1
  39              		.global	ADC_DelSig_1_started
  40              		.type	ADC_DelSig_1_started, %object
  41              		.size	ADC_DelSig_1_started, 1
  42              	ADC_DelSig_1_started:
  43 0003 00       		.space	1
  44              		.global	ADC_DelSig_1_Config
  45              		.data
  46              		.type	ADC_DelSig_1_Config, %object
  47              		.size	ADC_DelSig_1_Config, 1
  48              	ADC_DelSig_1_Config:
  49 0000 01       		.byte	1
  50              		.global	ADC_DelSig_1_Offset
  51              		.bss
  52              		.align	2
  53              		.type	ADC_DelSig_1_Offset, %object
ARM GAS  C:\Users\karunmj\AppData\Local\Temp\ccZ3DH5A.s 			page 2


  54              		.size	ADC_DelSig_1_Offset, 4
  55              	ADC_DelSig_1_Offset:
  56 0004 00000000 		.space	4
  57              		.global	ADC_DelSig_1_CountsPerVolt
  58              		.data
  59 0001 000000   		.align	2
  60              		.type	ADC_DelSig_1_CountsPerVolt, %object
  61              		.size	ADC_DelSig_1_CountsPerVolt, 4
  62              	ADC_DelSig_1_CountsPerVolt:
  63 0004 D5140000 		.word	5333
  64              		.section	.text.ADC_DelSig_1_Init,"ax",%progbits
  65              		.align	2
  66              		.global	ADC_DelSig_1_Init
  67              		.thumb
  68              		.thumb_func
  69              		.type	ADC_DelSig_1_Init, %function
  70              	ADC_DelSig_1_Init:
  71              	.LFB0:
  72              		.file 1 ".\\Generated_Source\\PSoC5\\ADC_DelSig_1.c"
   1:.\Generated_Source\PSoC5/ADC_DelSig_1.c **** /*******************************************************************************
   2:.\Generated_Source\PSoC5/ADC_DelSig_1.c **** * File Name: ADC_DelSig_1.c  
   3:.\Generated_Source\PSoC5/ADC_DelSig_1.c **** * Version 2.30
   4:.\Generated_Source\PSoC5/ADC_DelSig_1.c **** *
   5:.\Generated_Source\PSoC5/ADC_DelSig_1.c **** * Description:
   6:.\Generated_Source\PSoC5/ADC_DelSig_1.c **** *  This file provides the source code to the API for the Delta-Sigma ADC
   7:.\Generated_Source\PSoC5/ADC_DelSig_1.c **** *  Component.
   8:.\Generated_Source\PSoC5/ADC_DelSig_1.c **** *
   9:.\Generated_Source\PSoC5/ADC_DelSig_1.c **** * Note:
  10:.\Generated_Source\PSoC5/ADC_DelSig_1.c **** *
  11:.\Generated_Source\PSoC5/ADC_DelSig_1.c **** *******************************************************************************
  12:.\Generated_Source\PSoC5/ADC_DelSig_1.c **** * Copyright 2008-2012, Cypress Semiconductor Corporation.  All rights reserved.
  13:.\Generated_Source\PSoC5/ADC_DelSig_1.c **** * You may use this file only in accordance with the license, terms, conditions, 
  14:.\Generated_Source\PSoC5/ADC_DelSig_1.c **** * disclaimers, and limitations in the end user license agreement accompanying 
  15:.\Generated_Source\PSoC5/ADC_DelSig_1.c **** * the software package with which this file was provided.
  16:.\Generated_Source\PSoC5/ADC_DelSig_1.c **** ********************************************************************************/
  17:.\Generated_Source\PSoC5/ADC_DelSig_1.c **** 
  18:.\Generated_Source\PSoC5/ADC_DelSig_1.c **** #include "ADC_DelSig_1.h"
  19:.\Generated_Source\PSoC5/ADC_DelSig_1.c **** 
  20:.\Generated_Source\PSoC5/ADC_DelSig_1.c **** #if(ADC_DelSig_1_DEFAULT_INTERNAL_CLK)
  21:.\Generated_Source\PSoC5/ADC_DelSig_1.c ****     #include "ADC_DelSig_1_theACLK.h"
  22:.\Generated_Source\PSoC5/ADC_DelSig_1.c **** #endif /* ADC_DelSig_1_DEFAULT_INTERNAL_CLK */
  23:.\Generated_Source\PSoC5/ADC_DelSig_1.c **** 
  24:.\Generated_Source\PSoC5/ADC_DelSig_1.c **** #include "ADC_DelSig_1_Ext_CP_Clk.h"
  25:.\Generated_Source\PSoC5/ADC_DelSig_1.c **** 
  26:.\Generated_Source\PSoC5/ADC_DelSig_1.c **** #if(ADC_DelSig_1_DEFAULT_INPUT_MODE)
  27:.\Generated_Source\PSoC5/ADC_DelSig_1.c ****     #include "ADC_DelSig_1_AMux.h"
  28:.\Generated_Source\PSoC5/ADC_DelSig_1.c **** #endif /* ADC_DelSig_1_DEFAULT_INPUT_MODE */
  29:.\Generated_Source\PSoC5/ADC_DelSig_1.c **** 
  30:.\Generated_Source\PSoC5/ADC_DelSig_1.c **** /* Software flag for checking conversion completed or not */
  31:.\Generated_Source\PSoC5/ADC_DelSig_1.c **** volatile uint8 ADC_DelSig_1_convDone = 0u;
  32:.\Generated_Source\PSoC5/ADC_DelSig_1.c **** 
  33:.\Generated_Source\PSoC5/ADC_DelSig_1.c **** /* Software flag to stop conversion for single sample conversion mode 
  34:.\Generated_Source\PSoC5/ADC_DelSig_1.c ****    with resolution above 16 bits */
  35:.\Generated_Source\PSoC5/ADC_DelSig_1.c **** volatile uint8 ADC_DelSig_1_stopConversion = 0u;
  36:.\Generated_Source\PSoC5/ADC_DelSig_1.c **** 
  37:.\Generated_Source\PSoC5/ADC_DelSig_1.c **** /* To run the initialization block only at the start up */
  38:.\Generated_Source\PSoC5/ADC_DelSig_1.c **** uint8 ADC_DelSig_1_initVar = 0u;
ARM GAS  C:\Users\karunmj\AppData\Local\Temp\ccZ3DH5A.s 			page 3


  39:.\Generated_Source\PSoC5/ADC_DelSig_1.c **** 
  40:.\Generated_Source\PSoC5/ADC_DelSig_1.c **** /* To check whether ADC started or not before switching the configuration */
  41:.\Generated_Source\PSoC5/ADC_DelSig_1.c **** volatile uint8 ADC_DelSig_1_started = 0u;
  42:.\Generated_Source\PSoC5/ADC_DelSig_1.c **** 
  43:.\Generated_Source\PSoC5/ADC_DelSig_1.c **** /* Flag to hold ADC config number. By default active config is 1. */
  44:.\Generated_Source\PSoC5/ADC_DelSig_1.c **** volatile uint8 ADC_DelSig_1_Config = 1u;
  45:.\Generated_Source\PSoC5/ADC_DelSig_1.c **** 
  46:.\Generated_Source\PSoC5/ADC_DelSig_1.c **** volatile int32 ADC_DelSig_1_Offset = 0u;
  47:.\Generated_Source\PSoC5/ADC_DelSig_1.c **** volatile int32 ADC_DelSig_1_CountsPerVolt = (uint32)ADC_DelSig_1_CFG1_COUNTS_PER_VOLT;
  48:.\Generated_Source\PSoC5/ADC_DelSig_1.c **** 
  49:.\Generated_Source\PSoC5/ADC_DelSig_1.c **** /* Only valid for PSoC5A */
  50:.\Generated_Source\PSoC5/ADC_DelSig_1.c **** /* Variable to decide whether or not to restore the register values from
  51:.\Generated_Source\PSoC5/ADC_DelSig_1.c ****     backup structure */
  52:.\Generated_Source\PSoC5/ADC_DelSig_1.c **** #if (CY_PSOC5A)
  53:.\Generated_Source\PSoC5/ADC_DelSig_1.c ****     uint8 ADC_DelSig_1_restoreReg = 0u;
  54:.\Generated_Source\PSoC5/ADC_DelSig_1.c **** #endif /* CY_PSOC5A */
  55:.\Generated_Source\PSoC5/ADC_DelSig_1.c **** 
  56:.\Generated_Source\PSoC5/ADC_DelSig_1.c **** /* Valid only for PSoC5A silicon */
  57:.\Generated_Source\PSoC5/ADC_DelSig_1.c **** #if (CY_PSOC5A)
  58:.\Generated_Source\PSoC5/ADC_DelSig_1.c ****     /* Backup struct for power mode registers */
  59:.\Generated_Source\PSoC5/ADC_DelSig_1.c ****     static ADC_DelSig_1_POWERMODE_BACKUP_STRUCT ADC_DelSig_1_powerModeBackup = 
  60:.\Generated_Source\PSoC5/ADC_DelSig_1.c ****     {
  61:.\Generated_Source\PSoC5/ADC_DelSig_1.c ****         /* Initializing the structure fields with power mode registers of 
  62:.\Generated_Source\PSoC5/ADC_DelSig_1.c ****            config1 */
  63:.\Generated_Source\PSoC5/ADC_DelSig_1.c ****         ADC_DelSig_1_CFG1_DSM_CR14,
  64:.\Generated_Source\PSoC5/ADC_DelSig_1.c ****         ADC_DelSig_1_CFG1_DSM_CR15,
  65:.\Generated_Source\PSoC5/ADC_DelSig_1.c ****         ADC_DelSig_1_CFG1_DSM_CR16,
  66:.\Generated_Source\PSoC5/ADC_DelSig_1.c ****         ADC_DelSig_1_CFG1_DSM_CR17,
  67:.\Generated_Source\PSoC5/ADC_DelSig_1.c ****         ADC_DelSig_1_CFG1_DSM_REF0,
  68:.\Generated_Source\PSoC5/ADC_DelSig_1.c ****         ADC_DelSig_1_CFG1_DSM_BUF0,
  69:.\Generated_Source\PSoC5/ADC_DelSig_1.c ****         ADC_DelSig_1_CFG1_DSM_BUF1,
  70:.\Generated_Source\PSoC5/ADC_DelSig_1.c ****         ADC_DelSig_1_CFG1_DSM_CLK,
  71:.\Generated_Source\PSoC5/ADC_DelSig_1.c ****         ADC_DelSig_1_BYPASS_DISABLED
  72:.\Generated_Source\PSoC5/ADC_DelSig_1.c ****     };
  73:.\Generated_Source\PSoC5/ADC_DelSig_1.c **** #endif /* CY_PSOC5A */
  74:.\Generated_Source\PSoC5/ADC_DelSig_1.c **** 
  75:.\Generated_Source\PSoC5/ADC_DelSig_1.c **** 
  76:.\Generated_Source\PSoC5/ADC_DelSig_1.c **** /****************************************************************************** 
  77:.\Generated_Source\PSoC5/ADC_DelSig_1.c **** * Function Name: ADC_DelSig_1_Init
  78:.\Generated_Source\PSoC5/ADC_DelSig_1.c **** *******************************************************************************
  79:.\Generated_Source\PSoC5/ADC_DelSig_1.c **** *
  80:.\Generated_Source\PSoC5/ADC_DelSig_1.c **** * Summary:
  81:.\Generated_Source\PSoC5/ADC_DelSig_1.c **** *  Initialize component's parameters to the parameters set by user in the 
  82:.\Generated_Source\PSoC5/ADC_DelSig_1.c **** *  customizer of the component placed onto schematic. Usually called in 
  83:.\Generated_Source\PSoC5/ADC_DelSig_1.c **** * ADC_DelSig_1_Start().
  84:.\Generated_Source\PSoC5/ADC_DelSig_1.c **** *  
  85:.\Generated_Source\PSoC5/ADC_DelSig_1.c **** *
  86:.\Generated_Source\PSoC5/ADC_DelSig_1.c **** * Parameters:  
  87:.\Generated_Source\PSoC5/ADC_DelSig_1.c **** *  void
  88:.\Generated_Source\PSoC5/ADC_DelSig_1.c **** *
  89:.\Generated_Source\PSoC5/ADC_DelSig_1.c **** * Return: 
  90:.\Generated_Source\PSoC5/ADC_DelSig_1.c **** *  void 
  91:.\Generated_Source\PSoC5/ADC_DelSig_1.c **** *
  92:.\Generated_Source\PSoC5/ADC_DelSig_1.c **** *******************************************************************************/
  93:.\Generated_Source\PSoC5/ADC_DelSig_1.c **** void ADC_DelSig_1_Init(void) 
  94:.\Generated_Source\PSoC5/ADC_DelSig_1.c **** {
  73              		.loc 1 94 0
ARM GAS  C:\Users\karunmj\AppData\Local\Temp\ccZ3DH5A.s 			page 4


  74              		.cfi_startproc
  75              		@ args = 0, pretend = 0, frame = 0
  76              		@ frame_needed = 1, uses_anonymous_args = 0
  77 0000 80B5     		push	{r7, lr}
  78              	.LCFI0:
  79              		.cfi_def_cfa_offset 8
  80 0002 00AF     		add	r7, sp, #0
  81              		.cfi_offset 14, -4
  82              		.cfi_offset 7, -8
  83              	.LCFI1:
  84              		.cfi_def_cfa_register 7
  95:.\Generated_Source\PSoC5/ADC_DelSig_1.c ****     /* Initialize the registers with default customizer settings for config1 */
  96:.\Generated_Source\PSoC5/ADC_DelSig_1.c ****     ADC_DelSig_1_InitConfig(1);
  85              		.loc 1 96 0
  86 0004 4FF00100 		mov	r0, #1
  87 0008 FFF7FEFF 		bl	ADC_DelSig_1_InitConfig
  97:.\Generated_Source\PSoC5/ADC_DelSig_1.c **** 
  98:.\Generated_Source\PSoC5/ADC_DelSig_1.c ****     /* This is only valid if there is an internal clock */
  99:.\Generated_Source\PSoC5/ADC_DelSig_1.c ****     #if(ADC_DelSig_1_DEFAULT_INTERNAL_CLK)
 100:.\Generated_Source\PSoC5/ADC_DelSig_1.c ****         ADC_DelSig_1_theACLK_SetMode(CYCLK_DUTY);
  88              		.loc 1 100 0
  89 000c 4FF01000 		mov	r0, #16
  90 0010 FFF7FEFF 		bl	ADC_DelSig_1_theACLK_SetModeRegister
 101:.\Generated_Source\PSoC5/ADC_DelSig_1.c ****     #endif /* ADC_DelSig_1_DEFAULT_INTERNAL_CLK */
 102:.\Generated_Source\PSoC5/ADC_DelSig_1.c ****     
 103:.\Generated_Source\PSoC5/ADC_DelSig_1.c ****     /* Set the duty cycle for charge pump clock */
 104:.\Generated_Source\PSoC5/ADC_DelSig_1.c ****     ADC_DelSig_1_Ext_CP_Clk_SetMode(CYCLK_DUTY);
  91              		.loc 1 104 0
  92 0014 4FF01000 		mov	r0, #16
  93 0018 FFF7FEFF 		bl	ADC_DelSig_1_Ext_CP_Clk_SetModeRegister
 105:.\Generated_Source\PSoC5/ADC_DelSig_1.c **** 
 106:.\Generated_Source\PSoC5/ADC_DelSig_1.c ****     /* To perform ADC calibration */
 107:.\Generated_Source\PSoC5/ADC_DelSig_1.c ****     ADC_DelSig_1_GainCompensation(ADC_DelSig_1_CFG1_RANGE, 
  94              		.loc 1 107 0
  95 001c 4FF00600 		mov	r0, #6
  96 0020 48F24A11 		movw	r1, #33098
  97 0024 4FF40042 		mov	r2, #32768
  98 0028 4FF01003 		mov	r3, #16
  99 002c FFF7FEFF 		bl	ADC_DelSig_1_GainCompensation
 108:.\Generated_Source\PSoC5/ADC_DelSig_1.c ****                                       ADC_DelSig_1_CFG1_IDEAL_DEC_GAIN, 
 109:.\Generated_Source\PSoC5/ADC_DelSig_1.c ****                                       ADC_DelSig_1_CFG1_IDEAL_ODDDEC_GAIN, 
 110:.\Generated_Source\PSoC5/ADC_DelSig_1.c ****                                       ADC_DelSig_1_CFG1_RESOLUTION);        
 111:.\Generated_Source\PSoC5/ADC_DelSig_1.c **** }
 100              		.loc 1 111 0
 101 0030 80BD     		pop	{r7, pc}
 102              		.cfi_endproc
 103              	.LFE0:
 104              		.size	ADC_DelSig_1_Init, .-ADC_DelSig_1_Init
 105 0032 00BF     		.section	.text.ADC_DelSig_1_Enable,"ax",%progbits
 106              		.align	2
 107              		.global	ADC_DelSig_1_Enable
 108              		.thumb
 109              		.thumb_func
 110              		.type	ADC_DelSig_1_Enable, %function
 111              	ADC_DelSig_1_Enable:
 112              	.LFB1:
 112:.\Generated_Source\PSoC5/ADC_DelSig_1.c **** 
ARM GAS  C:\Users\karunmj\AppData\Local\Temp\ccZ3DH5A.s 			page 5


 113:.\Generated_Source\PSoC5/ADC_DelSig_1.c **** 
 114:.\Generated_Source\PSoC5/ADC_DelSig_1.c **** /******************************************************************************
 115:.\Generated_Source\PSoC5/ADC_DelSig_1.c **** * Function Name: ADC_DelSig_1_Enable
 116:.\Generated_Source\PSoC5/ADC_DelSig_1.c **** *******************************************************************************
 117:.\Generated_Source\PSoC5/ADC_DelSig_1.c **** *
 118:.\Generated_Source\PSoC5/ADC_DelSig_1.c **** * Summary: 
 119:.\Generated_Source\PSoC5/ADC_DelSig_1.c **** *  Enables the ADC DelSig block operation.
 120:.\Generated_Source\PSoC5/ADC_DelSig_1.c **** *  
 121:.\Generated_Source\PSoC5/ADC_DelSig_1.c **** *
 122:.\Generated_Source\PSoC5/ADC_DelSig_1.c **** * Parameters:  
 123:.\Generated_Source\PSoC5/ADC_DelSig_1.c **** *  void
 124:.\Generated_Source\PSoC5/ADC_DelSig_1.c **** *
 125:.\Generated_Source\PSoC5/ADC_DelSig_1.c **** * Return: 
 126:.\Generated_Source\PSoC5/ADC_DelSig_1.c **** *  void 
 127:.\Generated_Source\PSoC5/ADC_DelSig_1.c **** *
 128:.\Generated_Source\PSoC5/ADC_DelSig_1.c **** *******************************************************************************/
 129:.\Generated_Source\PSoC5/ADC_DelSig_1.c **** void ADC_DelSig_1_Enable(void) 
 130:.\Generated_Source\PSoC5/ADC_DelSig_1.c **** {
 113              		.loc 1 130 0
 114              		.cfi_startproc
 115              		@ args = 0, pretend = 0, frame = 0
 116              		@ frame_needed = 1, uses_anonymous_args = 0
 117 0000 80B5     		push	{r7, lr}
 118              	.LCFI2:
 119              		.cfi_def_cfa_offset 8
 120 0002 00AF     		add	r7, sp, #0
 121              		.cfi_offset 14, -4
 122              		.cfi_offset 7, -8
 123              	.LCFI3:
 124              		.cfi_def_cfa_register 7
 131:.\Generated_Source\PSoC5/ADC_DelSig_1.c ****     /* Restore the power registers if silicon used is PSoC5A */
 132:.\Generated_Source\PSoC5/ADC_DelSig_1.c ****     #if (CY_PSOC5A)
 133:.\Generated_Source\PSoC5/ADC_DelSig_1.c ****         if(ADC_DelSig_1_restoreReg && 
 134:.\Generated_Source\PSoC5/ADC_DelSig_1.c ****            (!(ADC_DelSig_1_powerModeBackup.bypassRestore)))
 135:.\Generated_Source\PSoC5/ADC_DelSig_1.c ****         {
 136:.\Generated_Source\PSoC5/ADC_DelSig_1.c ****             ADC_DelSig_1_RestorePowerRegisters();
 137:.\Generated_Source\PSoC5/ADC_DelSig_1.c ****             ADC_DelSig_1_restoreReg = 0u;
 138:.\Generated_Source\PSoC5/ADC_DelSig_1.c ****         }
 139:.\Generated_Source\PSoC5/ADC_DelSig_1.c ****         ADC_DelSig_1_powerModeBackup.bypassRestore = ADC_DelSig_1_BYPASS_DISABLED;
 140:.\Generated_Source\PSoC5/ADC_DelSig_1.c ****     #endif /* CY_PSOC5A */
 141:.\Generated_Source\PSoC5/ADC_DelSig_1.c **** 
 142:.\Generated_Source\PSoC5/ADC_DelSig_1.c ****     /* Enable active mode power for ADC */
 143:.\Generated_Source\PSoC5/ADC_DelSig_1.c ****     ADC_DelSig_1_PWRMGR_DEC_REG |= ADC_DelSig_1_ACT_PWR_DEC_EN;
 125              		.loc 1 143 0
 126 0004 44F2AA33 		movw	r3, #:lower16:1073759146
 127 0008 C4F20003 		movt	r3, #:upper16:1073759146
 128 000c 44F2AA32 		movw	r2, #:lower16:1073759146
 129 0010 C4F20002 		movt	r2, #:upper16:1073759146
 130 0014 1278     		ldrb	r2, [r2, #0]
 131 0016 D2B2     		uxtb	r2, r2
 132 0018 42F00102 		orr	r2, r2, #1
 133 001c D2B2     		uxtb	r2, r2
 134 001e 1A70     		strb	r2, [r3, #0]
 144:.\Generated_Source\PSoC5/ADC_DelSig_1.c ****     ADC_DelSig_1_PWRMGR_DSM_REG |= ADC_DelSig_1_ACT_PWR_DSM_EN;
 135              		.loc 1 144 0
 136 0020 44F2AA33 		movw	r3, #:lower16:1073759146
 137 0024 C4F20003 		movt	r3, #:upper16:1073759146
ARM GAS  C:\Users\karunmj\AppData\Local\Temp\ccZ3DH5A.s 			page 6


 138 0028 44F2AA32 		movw	r2, #:lower16:1073759146
 139 002c C4F20002 		movt	r2, #:upper16:1073759146
 140 0030 1278     		ldrb	r2, [r2, #0]
 141 0032 D2B2     		uxtb	r2, r2
 142 0034 42F01002 		orr	r2, r2, #16
 143 0038 D2B2     		uxtb	r2, r2
 144 003a 1A70     		strb	r2, [r3, #0]
 145:.\Generated_Source\PSoC5/ADC_DelSig_1.c ****     
 146:.\Generated_Source\PSoC5/ADC_DelSig_1.c ****      /* Enable alternative active mode power for ADC */
 147:.\Generated_Source\PSoC5/ADC_DelSig_1.c ****     ADC_DelSig_1_STBY_PWRMGR_DEC_REG |= ADC_DelSig_1_STBY_PWR_DEC_EN;
 145              		.loc 1 147 0
 146 003c 44F2BA33 		movw	r3, #:lower16:1073759162
 147 0040 C4F20003 		movt	r3, #:upper16:1073759162
 148 0044 44F2BA32 		movw	r2, #:lower16:1073759162
 149 0048 C4F20002 		movt	r2, #:upper16:1073759162
 150 004c 1278     		ldrb	r2, [r2, #0]
 151 004e D2B2     		uxtb	r2, r2
 152 0050 42F00102 		orr	r2, r2, #1
 153 0054 D2B2     		uxtb	r2, r2
 154 0056 1A70     		strb	r2, [r3, #0]
 148:.\Generated_Source\PSoC5/ADC_DelSig_1.c ****     #if (CY_PSOC3 || CY_PSOC5LP)
 149:.\Generated_Source\PSoC5/ADC_DelSig_1.c ****     ADC_DelSig_1_STBY_PWRMGR_DSM_REG |= ADC_DelSig_1_STBY_PWR_DSM_EN;
 155              		.loc 1 149 0
 156 0058 44F2BA33 		movw	r3, #:lower16:1073759162
 157 005c C4F20003 		movt	r3, #:upper16:1073759162
 158 0060 44F2BA32 		movw	r2, #:lower16:1073759162
 159 0064 C4F20002 		movt	r2, #:upper16:1073759162
 160 0068 1278     		ldrb	r2, [r2, #0]
 161 006a D2B2     		uxtb	r2, r2
 162 006c 42F01002 		orr	r2, r2, #16
 163 0070 D2B2     		uxtb	r2, r2
 164 0072 1A70     		strb	r2, [r3, #0]
 150:.\Generated_Source\PSoC5/ADC_DelSig_1.c ****     #endif /* CY_PSOC3 || CY_PSOC5LP */
 151:.\Generated_Source\PSoC5/ADC_DelSig_1.c **** 
 152:.\Generated_Source\PSoC5/ADC_DelSig_1.c ****     /* Config selected is 1, then before enablign the REFBUF0, REFBUF1 and 
 153:.\Generated_Source\PSoC5/ADC_DelSig_1.c **** 	   VCMBUF's enable and press circuit and then after a delay of 3
 154:.\Generated_Source\PSoC5/ADC_DelSig_1.c **** 	   microseconds, disable the press circuit. */
 155:.\Generated_Source\PSoC5/ADC_DelSig_1.c ****     if (ADC_DelSig_1_Config == 1u)
 165              		.loc 1 155 0
 166 0074 40F20003 		movw	r3, #:lower16:ADC_DelSig_1_Config
 167 0078 C0F20003 		movt	r3, #:upper16:ADC_DelSig_1_Config
 168 007c 1B78     		ldrb	r3, [r3, #0]
 169 007e DBB2     		uxtb	r3, r3
 170 0080 012B     		cmp	r3, #1
 171 0082 47D1     		bne	.L4
 156:.\Generated_Source\PSoC5/ADC_DelSig_1.c **** 	{
 157:.\Generated_Source\PSoC5/ADC_DelSig_1.c **** 	    /* Disable PRES, Enable power to VCMBUF0, REFBUF0 and REFBUF1, enable 
 158:.\Generated_Source\PSoC5/ADC_DelSig_1.c **** 	       PRES */
 159:.\Generated_Source\PSoC5/ADC_DelSig_1.c **** 	    #if (CY_PSOC3 || CY_PSOC5LP)
 160:.\Generated_Source\PSoC5/ADC_DelSig_1.c **** 	        ADC_DelSig_1_RESET_CR4_REG |= ADC_DelSig_1_IGNORE_PRESA1;
 172              		.loc 1 160 0
 173 0084 44F2F863 		movw	r3, #:lower16:1073759992
 174 0088 C4F20003 		movt	r3, #:upper16:1073759992
 175 008c 44F2F862 		movw	r2, #:lower16:1073759992
 176 0090 C4F20002 		movt	r2, #:upper16:1073759992
 177 0094 1278     		ldrb	r2, [r2, #0]
 178 0096 D2B2     		uxtb	r2, r2
ARM GAS  C:\Users\karunmj\AppData\Local\Temp\ccZ3DH5A.s 			page 7


 179 0098 42F00202 		orr	r2, r2, #2
 180 009c D2B2     		uxtb	r2, r2
 181 009e 1A70     		strb	r2, [r3, #0]
 161:.\Generated_Source\PSoC5/ADC_DelSig_1.c **** 	        ADC_DelSig_1_RESET_CR5_REG |= ADC_DelSig_1_IGNORE_PRESA2;
 182              		.loc 1 161 0
 183 00a0 44F2F963 		movw	r3, #:lower16:1073759993
 184 00a4 C4F20003 		movt	r3, #:upper16:1073759993
 185 00a8 44F2F962 		movw	r2, #:lower16:1073759993
 186 00ac C4F20002 		movt	r2, #:upper16:1073759993
 187 00b0 1278     		ldrb	r2, [r2, #0]
 188 00b2 D2B2     		uxtb	r2, r2
 189 00b4 42F00202 		orr	r2, r2, #2
 190 00b8 D2B2     		uxtb	r2, r2
 191 00ba 1A70     		strb	r2, [r3, #0]
 162:.\Generated_Source\PSoC5/ADC_DelSig_1.c **** 	    #elif (CY_PSOC5A)
 163:.\Generated_Source\PSoC5/ADC_DelSig_1.c **** 	        ADC_DelSig_1_RESET_CR1_REG |= ADC_DelSig_1_DIS_PRES1;
 164:.\Generated_Source\PSoC5/ADC_DelSig_1.c **** 	        ADC_DelSig_1_RESET_CR3_REG |= ADC_DelSig_1_DIS_PRES2;
 165:.\Generated_Source\PSoC5/ADC_DelSig_1.c **** 	    #endif /* CY_PSOC5A */
 166:.\Generated_Source\PSoC5/ADC_DelSig_1.c **** 	    
 167:.\Generated_Source\PSoC5/ADC_DelSig_1.c **** 	    ADC_DelSig_1_DSM_CR17_REG |= (ADC_DelSig_1_DSM_EN_BUF_VREF | ADC_DelSig_1_DSM_EN_BUF_VCM);
 192              		.loc 1 167 0
 193 00bc 45F69103 		movw	r3, #:lower16:1073764497
 194 00c0 C4F20003 		movt	r3, #:upper16:1073764497
 195 00c4 45F69102 		movw	r2, #:lower16:1073764497
 196 00c8 C4F20002 		movt	r2, #:upper16:1073764497
 197 00cc 1278     		ldrb	r2, [r2, #0]
 198 00ce D2B2     		uxtb	r2, r2
 199 00d0 42F00302 		orr	r2, r2, #3
 200 00d4 D2B2     		uxtb	r2, r2
 201 00d6 1A70     		strb	r2, [r3, #0]
 168:.\Generated_Source\PSoC5/ADC_DelSig_1.c **** 	    #if ((ADC_DelSig_1_CFG1_REFERENCE == ADC_DelSig_1_EXT_REF_ON_P03) || \
 169:.\Generated_Source\PSoC5/ADC_DelSig_1.c **** 	         (ADC_DelSig_1_CFG1_REFERENCE == ADC_DelSig_1_EXT_REF_ON_P32))
 170:.\Generated_Source\PSoC5/ADC_DelSig_1.c **** 	        ADC_DelSig_1_DSM_CR17_REG &= ~ADC_DelSig_1_DSM_EN_BUF_VREF;
 171:.\Generated_Source\PSoC5/ADC_DelSig_1.c **** 	    #endif /* Check for exteranl reference option */
 172:.\Generated_Source\PSoC5/ADC_DelSig_1.c **** 	    #if ((ADC_DelSig_1_CFG1_RANGE == ADC_DelSig_1_IR_VSSA_TO_2VREF) && \
 173:.\Generated_Source\PSoC5/ADC_DelSig_1.c **** 	          (CY_PSOC3 || CY_PSOC5LP) && \
 174:.\Generated_Source\PSoC5/ADC_DelSig_1.c **** 	          ((ADC_DelSig_1_CFG1_REFERENCE != ADC_DelSig_1_EXT_REF_ON_P03) && \
 175:.\Generated_Source\PSoC5/ADC_DelSig_1.c **** 	         (ADC_DelSig_1_CFG1_REFERENCE != ADC_DelSig_1_EXT_REF_ON_P32)))
 176:.\Generated_Source\PSoC5/ADC_DelSig_1.c **** 	        ADC_DelSig_1_DSM_REF0_REG |= ADC_DelSig_1_DSM_EN_BUF_VREF_INN;
 177:.\Generated_Source\PSoC5/ADC_DelSig_1.c **** 	    #endif /* ADC_DelSig_1_IR_VSSA_TO_2VREF */
 178:.\Generated_Source\PSoC5/ADC_DelSig_1.c **** 	    
 179:.\Generated_Source\PSoC5/ADC_DelSig_1.c **** 	        /* Wait for 3 microseconds */
 180:.\Generated_Source\PSoC5/ADC_DelSig_1.c **** 	    CyDelayUs(3);
 202              		.loc 1 180 0
 203 00d8 4FF00300 		mov	r0, #3
 204 00dc FFF7FEFF 		bl	CyDelayUs
 181:.\Generated_Source\PSoC5/ADC_DelSig_1.c ****         /* Enable the press circuit */
 182:.\Generated_Source\PSoC5/ADC_DelSig_1.c **** 	    #if (CY_PSOC3 || CY_PSOC5LP)
 183:.\Generated_Source\PSoC5/ADC_DelSig_1.c **** 	        ADC_DelSig_1_RESET_CR4_REG &= ~ADC_DelSig_1_IGNORE_PRESA1;
 205              		.loc 1 183 0
 206 00e0 44F2F863 		movw	r3, #:lower16:1073759992
 207 00e4 C4F20003 		movt	r3, #:upper16:1073759992
 208 00e8 44F2F862 		movw	r2, #:lower16:1073759992
 209 00ec C4F20002 		movt	r2, #:upper16:1073759992
 210 00f0 1278     		ldrb	r2, [r2, #0]
 211 00f2 D2B2     		uxtb	r2, r2
 212 00f4 02F0FD02 		and	r2, r2, #253
ARM GAS  C:\Users\karunmj\AppData\Local\Temp\ccZ3DH5A.s 			page 8


 213 00f8 1A70     		strb	r2, [r3, #0]
 184:.\Generated_Source\PSoC5/ADC_DelSig_1.c **** 	        ADC_DelSig_1_RESET_CR5_REG &= ~ADC_DelSig_1_IGNORE_PRESA2;
 214              		.loc 1 184 0
 215 00fa 44F2F963 		movw	r3, #:lower16:1073759993
 216 00fe C4F20003 		movt	r3, #:upper16:1073759993
 217 0102 44F2F962 		movw	r2, #:lower16:1073759993
 218 0106 C4F20002 		movt	r2, #:upper16:1073759993
 219 010a 1278     		ldrb	r2, [r2, #0]
 220 010c D2B2     		uxtb	r2, r2
 221 010e 02F0FD02 		and	r2, r2, #253
 222 0112 1A70     		strb	r2, [r3, #0]
 223              	.L4:
 185:.\Generated_Source\PSoC5/ADC_DelSig_1.c **** 	    #elif (CY_PSOC5A)
 186:.\Generated_Source\PSoC5/ADC_DelSig_1.c **** 	        ADC_DelSig_1_RESET_CR1_REG &= ~ADC_DelSig_1_DIS_PRES1;
 187:.\Generated_Source\PSoC5/ADC_DelSig_1.c **** 	        ADC_DelSig_1_RESET_CR3_REG &= ~ADC_DelSig_1_DIS_PRES2;
 188:.\Generated_Source\PSoC5/ADC_DelSig_1.c **** 	    #endif /* CY_PSOC5A */
 189:.\Generated_Source\PSoC5/ADC_DelSig_1.c **** 	}
 190:.\Generated_Source\PSoC5/ADC_DelSig_1.c ****     
 191:.\Generated_Source\PSoC5/ADC_DelSig_1.c ****     /* Enable negative pumps for DSM  */
 192:.\Generated_Source\PSoC5/ADC_DelSig_1.c ****     ADC_DelSig_1_PUMP_CR1_REG  |= ( ADC_DelSig_1_PUMP_CR1_CLKSEL | ADC_DelSig_1_PUMP_CR1_FORCE );
 224              		.loc 1 192 0
 225 0114 45F67703 		movw	r3, #:lower16:1073764471
 226 0118 C4F20003 		movt	r3, #:upper16:1073764471
 227 011c 45F67702 		movw	r2, #:lower16:1073764471
 228 0120 C4F20002 		movt	r2, #:upper16:1073764471
 229 0124 1278     		ldrb	r2, [r2, #0]
 230 0126 D2B2     		uxtb	r2, r2
 231 0128 42F00602 		orr	r2, r2, #6
 232 012c D2B2     		uxtb	r2, r2
 233 012e 1A70     		strb	r2, [r3, #0]
 193:.\Generated_Source\PSoC5/ADC_DelSig_1.c ****  
 194:.\Generated_Source\PSoC5/ADC_DelSig_1.c ****     /* This is only valid if there is an internal clock */
 195:.\Generated_Source\PSoC5/ADC_DelSig_1.c ****     #if(ADC_DelSig_1_DEFAULT_INTERNAL_CLK)
 196:.\Generated_Source\PSoC5/ADC_DelSig_1.c ****         ADC_DelSig_1_PWRMGR_CLK_REG |= ADC_DelSig_1_ACT_PWR_CLK_EN;        
 234              		.loc 1 196 0
 235 0130 44F2A133 		movw	r3, #:lower16:1073759137
 236 0134 C4F20003 		movt	r3, #:upper16:1073759137
 237 0138 44F2A132 		movw	r2, #:lower16:1073759137
 238 013c C4F20002 		movt	r2, #:upper16:1073759137
 239 0140 1278     		ldrb	r2, [r2, #0]
 240 0142 D2B2     		uxtb	r2, r2
 241 0144 42F00102 		orr	r2, r2, #1
 242 0148 D2B2     		uxtb	r2, r2
 243 014a 1A70     		strb	r2, [r3, #0]
 197:.\Generated_Source\PSoC5/ADC_DelSig_1.c ****         ADC_DelSig_1_STBY_PWRMGR_CLK_REG |= ADC_DelSig_1_STBY_PWR_CLK_EN;
 244              		.loc 1 197 0
 245 014c 44F2B133 		movw	r3, #:lower16:1073759153
 246 0150 C4F20003 		movt	r3, #:upper16:1073759153
 247 0154 44F2B132 		movw	r2, #:lower16:1073759153
 248 0158 C4F20002 		movt	r2, #:upper16:1073759153
 249 015c 1278     		ldrb	r2, [r2, #0]
 250 015e D2B2     		uxtb	r2, r2
 251 0160 42F00102 		orr	r2, r2, #1
 252 0164 D2B2     		uxtb	r2, r2
 253 0166 1A70     		strb	r2, [r3, #0]
 198:.\Generated_Source\PSoC5/ADC_DelSig_1.c ****     #endif /* ADC_DelSig_1_DEFAULT_INTERNAL_CLK */
 199:.\Generated_Source\PSoC5/ADC_DelSig_1.c ****     
ARM GAS  C:\Users\karunmj\AppData\Local\Temp\ccZ3DH5A.s 			page 9


 200:.\Generated_Source\PSoC5/ADC_DelSig_1.c ****     /* Enable the active and alternate active power for charge pump clock */
 201:.\Generated_Source\PSoC5/ADC_DelSig_1.c ****     ADC_DelSig_1_PWRMGR_CHARGE_PUMP_CLK_REG |= ADC_DelSig_1_ACT_PWR_CHARGE_PUMP_CLK_EN;
 254              		.loc 1 201 0
 255 0168 44F2A233 		movw	r3, #:lower16:1073759138
 256 016c C4F20003 		movt	r3, #:upper16:1073759138
 257 0170 44F2A232 		movw	r2, #:lower16:1073759138
 258 0174 C4F20002 		movt	r2, #:upper16:1073759138
 259 0178 1278     		ldrb	r2, [r2, #0]
 260 017a D2B2     		uxtb	r2, r2
 261 017c 42F00102 		orr	r2, r2, #1
 262 0180 D2B2     		uxtb	r2, r2
 263 0182 1A70     		strb	r2, [r3, #0]
 202:.\Generated_Source\PSoC5/ADC_DelSig_1.c ****     ADC_DelSig_1_STBY_PWRMGR_CHARGE_PUMP_CLK_REG |= ADC_DelSig_1_STBY_PWR_CHARGE_PUMP_CLK_EN;
 264              		.loc 1 202 0
 265 0184 44F2B233 		movw	r3, #:lower16:1073759154
 266 0188 C4F20003 		movt	r3, #:upper16:1073759154
 267 018c 44F2B232 		movw	r2, #:lower16:1073759154
 268 0190 C4F20002 		movt	r2, #:upper16:1073759154
 269 0194 1278     		ldrb	r2, [r2, #0]
 270 0196 D2B2     		uxtb	r2, r2
 271 0198 42F00102 		orr	r2, r2, #1
 272 019c D2B2     		uxtb	r2, r2
 273 019e 1A70     		strb	r2, [r3, #0]
 203:.\Generated_Source\PSoC5/ADC_DelSig_1.c ****         
 204:.\Generated_Source\PSoC5/ADC_DelSig_1.c **** }
 274              		.loc 1 204 0
 275 01a0 80BD     		pop	{r7, pc}
 276              		.cfi_endproc
 277              	.LFE1:
 278              		.size	ADC_DelSig_1_Enable, .-ADC_DelSig_1_Enable
 279 01a2 00BF     		.section	.text.ADC_DelSig_1_Start,"ax",%progbits
 280              		.align	2
 281              		.global	ADC_DelSig_1_Start
 282              		.thumb
 283              		.thumb_func
 284              		.type	ADC_DelSig_1_Start, %function
 285              	ADC_DelSig_1_Start:
 286              	.LFB2:
 205:.\Generated_Source\PSoC5/ADC_DelSig_1.c **** 
 206:.\Generated_Source\PSoC5/ADC_DelSig_1.c **** 
 207:.\Generated_Source\PSoC5/ADC_DelSig_1.c **** #if (CY_PSOC5A) /* valid only for PSoC5A silicon */
 208:.\Generated_Source\PSoC5/ADC_DelSig_1.c ****     /******************************************************************************* 
 209:.\Generated_Source\PSoC5/ADC_DelSig_1.c ****     * Function Name: ADC_DelSig_1_RestorePowerRegisters
 210:.\Generated_Source\PSoC5/ADC_DelSig_1.c ****     ********************************************************************************
 211:.\Generated_Source\PSoC5/ADC_DelSig_1.c ****     *
 212:.\Generated_Source\PSoC5/ADC_DelSig_1.c ****     * Summary: 
 213:.\Generated_Source\PSoC5/ADC_DelSig_1.c ****     *  Restores the power registers on calling Start() API. This API is only 
 214:.\Generated_Source\PSoC5/ADC_DelSig_1.c ****     *   for internal use and valid only for PSoC5A.
 215:.\Generated_Source\PSoC5/ADC_DelSig_1.c ****     *  
 216:.\Generated_Source\PSoC5/ADC_DelSig_1.c ****     *
 217:.\Generated_Source\PSoC5/ADC_DelSig_1.c ****     * Parameters:  
 218:.\Generated_Source\PSoC5/ADC_DelSig_1.c ****     *  void
 219:.\Generated_Source\PSoC5/ADC_DelSig_1.c ****     *
 220:.\Generated_Source\PSoC5/ADC_DelSig_1.c ****     * Return: 
 221:.\Generated_Source\PSoC5/ADC_DelSig_1.c ****     *  void 
 222:.\Generated_Source\PSoC5/ADC_DelSig_1.c ****     *
 223:.\Generated_Source\PSoC5/ADC_DelSig_1.c ****     ***************************************************************************/
ARM GAS  C:\Users\karunmj\AppData\Local\Temp\ccZ3DH5A.s 			page 10


 224:.\Generated_Source\PSoC5/ADC_DelSig_1.c ****     void ADC_DelSig_1_RestorePowerRegisters(void) 
 225:.\Generated_Source\PSoC5/ADC_DelSig_1.c ****     {
 226:.\Generated_Source\PSoC5/ADC_DelSig_1.c ****         ADC_DelSig_1_DSM_CR14_REG = ADC_DelSig_1_powerModeBackup.DSM_CR_14;
 227:.\Generated_Source\PSoC5/ADC_DelSig_1.c ****         ADC_DelSig_1_DSM_CR15_REG = ADC_DelSig_1_powerModeBackup.DSM_CR_15;
 228:.\Generated_Source\PSoC5/ADC_DelSig_1.c ****         ADC_DelSig_1_DSM_CR16_REG = ADC_DelSig_1_powerModeBackup.DSM_CR_16;
 229:.\Generated_Source\PSoC5/ADC_DelSig_1.c ****         ADC_DelSig_1_DSM_CR17_REG = ADC_DelSig_1_powerModeBackup.DSM_CR_17;
 230:.\Generated_Source\PSoC5/ADC_DelSig_1.c ****         ADC_DelSig_1_DSM_REF0_REG = ADC_DelSig_1_powerModeBackup.DSM_REF0;
 231:.\Generated_Source\PSoC5/ADC_DelSig_1.c ****         ADC_DelSig_1_DSM_BUF0_REG = ADC_DelSig_1_powerModeBackup.DSM_BUF0;
 232:.\Generated_Source\PSoC5/ADC_DelSig_1.c ****         ADC_DelSig_1_DSM_BUF1_REG = ADC_DelSig_1_powerModeBackup.DSM_BUF1;
 233:.\Generated_Source\PSoC5/ADC_DelSig_1.c ****         ADC_DelSig_1_DSM_CLK_REG = ADC_DelSig_1_powerModeBackup.DSM_CLK;
 234:.\Generated_Source\PSoC5/ADC_DelSig_1.c ****     }
 235:.\Generated_Source\PSoC5/ADC_DelSig_1.c **** 
 236:.\Generated_Source\PSoC5/ADC_DelSig_1.c **** 
 237:.\Generated_Source\PSoC5/ADC_DelSig_1.c ****     /************************************************************************** 
 238:.\Generated_Source\PSoC5/ADC_DelSig_1.c ****     * Function Name: ADC_DelSig_1_SavePowerRegisters
 239:.\Generated_Source\PSoC5/ADC_DelSig_1.c ****     ***************************************************************************
 240:.\Generated_Source\PSoC5/ADC_DelSig_1.c ****     *
 241:.\Generated_Source\PSoC5/ADC_DelSig_1.c ****     * Summary: 
 242:.\Generated_Source\PSoC5/ADC_DelSig_1.c ****     *  Save the power registers before stopping the block operation. This is 
 243:.\Generated_Source\PSoC5/ADC_DelSig_1.c ****     *  called by Stop() API. This API is only for internal use and valid only 
 244:.\Generated_Source\PSoC5/ADC_DelSig_1.c ****     *  for PSoC5A.
 245:.\Generated_Source\PSoC5/ADC_DelSig_1.c ****     *  
 246:.\Generated_Source\PSoC5/ADC_DelSig_1.c ****     *
 247:.\Generated_Source\PSoC5/ADC_DelSig_1.c ****     * Parameters:  
 248:.\Generated_Source\PSoC5/ADC_DelSig_1.c ****     *  void
 249:.\Generated_Source\PSoC5/ADC_DelSig_1.c ****     *
 250:.\Generated_Source\PSoC5/ADC_DelSig_1.c ****     * Return: 
 251:.\Generated_Source\PSoC5/ADC_DelSig_1.c ****     *  void 
 252:.\Generated_Source\PSoC5/ADC_DelSig_1.c ****     *
 253:.\Generated_Source\PSoC5/ADC_DelSig_1.c ****     **************************************************************************/
 254:.\Generated_Source\PSoC5/ADC_DelSig_1.c ****     void ADC_DelSig_1_SavePowerRegisters(void) 
 255:.\Generated_Source\PSoC5/ADC_DelSig_1.c ****     {
 256:.\Generated_Source\PSoC5/ADC_DelSig_1.c ****         ADC_DelSig_1_powerModeBackup.DSM_CR_14 = ADC_DelSig_1_DSM_CR14_REG;
 257:.\Generated_Source\PSoC5/ADC_DelSig_1.c ****         ADC_DelSig_1_powerModeBackup.DSM_CR_15 = ADC_DelSig_1_DSM_CR15_REG;
 258:.\Generated_Source\PSoC5/ADC_DelSig_1.c ****         ADC_DelSig_1_powerModeBackup.DSM_CR_16 = ADC_DelSig_1_DSM_CR16_REG;
 259:.\Generated_Source\PSoC5/ADC_DelSig_1.c ****         ADC_DelSig_1_powerModeBackup.DSM_CR_17 = ADC_DelSig_1_DSM_CR17_REG;
 260:.\Generated_Source\PSoC5/ADC_DelSig_1.c ****         ADC_DelSig_1_powerModeBackup.DSM_REF0 = ADC_DelSig_1_DSM_REF0_REG;
 261:.\Generated_Source\PSoC5/ADC_DelSig_1.c ****         ADC_DelSig_1_powerModeBackup.DSM_BUF0 = ADC_DelSig_1_DSM_BUF0_REG;
 262:.\Generated_Source\PSoC5/ADC_DelSig_1.c ****         ADC_DelSig_1_powerModeBackup.DSM_BUF1 = ADC_DelSig_1_DSM_BUF1_REG;
 263:.\Generated_Source\PSoC5/ADC_DelSig_1.c ****         ADC_DelSig_1_powerModeBackup.DSM_CLK = ADC_DelSig_1_DSM_CLK_REG;
 264:.\Generated_Source\PSoC5/ADC_DelSig_1.c ****     }
 265:.\Generated_Source\PSoC5/ADC_DelSig_1.c **** 
 266:.\Generated_Source\PSoC5/ADC_DelSig_1.c **** 
 267:.\Generated_Source\PSoC5/ADC_DelSig_1.c ****     /************************************************************************* 
 268:.\Generated_Source\PSoC5/ADC_DelSig_1.c ****     * Function Name: ADC_DelSig_1_SetLowPower
 269:.\Generated_Source\PSoC5/ADC_DelSig_1.c ****     ***************************************************************************
 270:.\Generated_Source\PSoC5/ADC_DelSig_1.c ****     *
 271:.\Generated_Source\PSoC5/ADC_DelSig_1.c ****     * Summary: 
 272:.\Generated_Source\PSoC5/ADC_DelSig_1.c ****     *  Set all the power registers of DSM block to low power mode. This API is
 273:.\Generated_Source\PSoC5/ADC_DelSig_1.c ****     *   called by Stop() API. This API is only for internal use and valid for 
 274:.\Generated_Source\PSoC5/ADC_DelSig_1.c ****     *   only PSoC5A.
 275:.\Generated_Source\PSoC5/ADC_DelSig_1.c ****     *  
 276:.\Generated_Source\PSoC5/ADC_DelSig_1.c ****     *
 277:.\Generated_Source\PSoC5/ADC_DelSig_1.c ****     * Parameters:  
 278:.\Generated_Source\PSoC5/ADC_DelSig_1.c ****     *  void
 279:.\Generated_Source\PSoC5/ADC_DelSig_1.c ****     *
 280:.\Generated_Source\PSoC5/ADC_DelSig_1.c ****     * Return: 
ARM GAS  C:\Users\karunmj\AppData\Local\Temp\ccZ3DH5A.s 			page 11


 281:.\Generated_Source\PSoC5/ADC_DelSig_1.c ****     *  void 
 282:.\Generated_Source\PSoC5/ADC_DelSig_1.c ****     *
 283:.\Generated_Source\PSoC5/ADC_DelSig_1.c ****     ***************************************************************************/
 284:.\Generated_Source\PSoC5/ADC_DelSig_1.c ****     void ADC_DelSig_1_SetLowPower(void) 
 285:.\Generated_Source\PSoC5/ADC_DelSig_1.c ****     {
 286:.\Generated_Source\PSoC5/ADC_DelSig_1.c ****         ADC_DelSig_1_DSM_CR14_REG &= ~ADC_DelSig_1_DSM_POWER1_MASK;
 287:.\Generated_Source\PSoC5/ADC_DelSig_1.c ****         ADC_DelSig_1_DSM_CR14_REG |= ADC_DelSig_1_DSM_POWER1_44UA;
 288:.\Generated_Source\PSoC5/ADC_DelSig_1.c ****         
 289:.\Generated_Source\PSoC5/ADC_DelSig_1.c ****         ADC_DelSig_1_DSM_CR15_REG &= ~(ADC_DelSig_1_DSM_POWER2_3_MASK | ADC_DelSig_1_DSM_POWER_COMP
 290:.\Generated_Source\PSoC5/ADC_DelSig_1.c ****         ADC_DelSig_1_DSM_CR15_REG |= (ADC_DelSig_1_DSM_POWER2_3_LOW | ADC_DelSig_1_DSM_POWER_VERYLO
 291:.\Generated_Source\PSoC5/ADC_DelSig_1.c ****         
 292:.\Generated_Source\PSoC5/ADC_DelSig_1.c ****         ADC_DelSig_1_DSM_CR16_REG &= ~(ADC_DelSig_1_DSM_CP_PWRCTL_MASK | ADC_DelSig_1_DSM_POWER_SUM
 293:.\Generated_Source\PSoC5/ADC_DelSig_1.c ****                                            ADC_DelSig_1_DSM_CP_ENABLE);
 294:.\Generated_Source\PSoC5/ADC_DelSig_1.c ****         ADC_DelSig_1_DSM_CR16_REG |= (ADC_DelSig_1_DSM_POWER_SUM_LOW | ADC_DelSig_1_DSM_CP_PWRCTL_L
 295:.\Generated_Source\PSoC5/ADC_DelSig_1.c ****         
 296:.\Generated_Source\PSoC5/ADC_DelSig_1.c ****         ADC_DelSig_1_DSM_CR17_REG &= ~(ADC_DelSig_1_DSM_EN_BUF_VREF | ADC_DelSig_1_DSM_PWR_CTRL_VCM
 297:.\Generated_Source\PSoC5/ADC_DelSig_1.c ****                                            ADC_DelSig_1_DSM_PWR_CTRL_VREF_MASK | ADC_DelSig_1_DSM_E
 298:.\Generated_Source\PSoC5/ADC_DelSig_1.c ****                                            ADC_DelSig_1_DSM_PWR_CTRL_VREF_INN_MASK);
 299:.\Generated_Source\PSoC5/ADC_DelSig_1.c ****         ADC_DelSig_1_DSM_CR17_REG |= (ADC_DelSig_1_DSM_PWR_CTRL_VREF_0 | ADC_DelSig_1_DSM_PWR_CTRL_
 300:.\Generated_Source\PSoC5/ADC_DelSig_1.c ****                                            ADC_DelSig_1_DSM_PWR_CTRL_VREF_INN_0);
 301:.\Generated_Source\PSoC5/ADC_DelSig_1.c ****         
 302:.\Generated_Source\PSoC5/ADC_DelSig_1.c ****         /* Disable reference buffers */
 303:.\Generated_Source\PSoC5/ADC_DelSig_1.c ****         ADC_DelSig_1_DSM_REF0_REG &= ~(ADC_DelSig_1_DSM_EN_BUF_VREF_INN | ADC_DelSig_1_DSM_VREF_RES
 304:.\Generated_Source\PSoC5/ADC_DelSig_1.c ****                                            ADC_DelSig_1_DSM_VCM_RES_DIV_EN);
 305:.\Generated_Source\PSoC5/ADC_DelSig_1.c ****             
 306:.\Generated_Source\PSoC5/ADC_DelSig_1.c ****         /* Disable the positive input buffer */
 307:.\Generated_Source\PSoC5/ADC_DelSig_1.c ****         ADC_DelSig_1_DSM_BUF0_REG &= ~ADC_DelSig_1_DSM_ENABLE_P;
 308:.\Generated_Source\PSoC5/ADC_DelSig_1.c ****         /* Disable the negative input buffer */
 309:.\Generated_Source\PSoC5/ADC_DelSig_1.c ****         ADC_DelSig_1_DSM_BUF1_REG &= ~ADC_DelSig_1_DSM_ENABLE_N;
 310:.\Generated_Source\PSoC5/ADC_DelSig_1.c ****         /* Disable the clock to DSM */
 311:.\Generated_Source\PSoC5/ADC_DelSig_1.c ****         ADC_DelSig_1_DSM_CLK_REG &= ~(ADC_DelSig_1_DSM_CLK_CLK_EN | ADC_DelSig_1_DSM_CLK_BYPASS_SYN
 312:.\Generated_Source\PSoC5/ADC_DelSig_1.c ****     }
 313:.\Generated_Source\PSoC5/ADC_DelSig_1.c **** #endif /* CY_PSOC5A */
 314:.\Generated_Source\PSoC5/ADC_DelSig_1.c **** 
 315:.\Generated_Source\PSoC5/ADC_DelSig_1.c **** 
 316:.\Generated_Source\PSoC5/ADC_DelSig_1.c **** /******************************************************************************* 
 317:.\Generated_Source\PSoC5/ADC_DelSig_1.c **** * Function Name: ADC_DelSig_1_Start
 318:.\Generated_Source\PSoC5/ADC_DelSig_1.c **** ********************************************************************************
 319:.\Generated_Source\PSoC5/ADC_DelSig_1.c **** *
 320:.\Generated_Source\PSoC5/ADC_DelSig_1.c **** * Summary:
 321:.\Generated_Source\PSoC5/ADC_DelSig_1.c **** *  The start function initializes the Delta Sigma Modulator with the default  
 322:.\Generated_Source\PSoC5/ADC_DelSig_1.c **** *  values, and sets the power to the given level.  A power level of 0, is the 
 323:.\Generated_Source\PSoC5/ADC_DelSig_1.c **** *  same as executing the stop function.
 324:.\Generated_Source\PSoC5/ADC_DelSig_1.c **** *
 325:.\Generated_Source\PSoC5/ADC_DelSig_1.c **** * Parameters:  
 326:.\Generated_Source\PSoC5/ADC_DelSig_1.c **** *  None
 327:.\Generated_Source\PSoC5/ADC_DelSig_1.c **** *
 328:.\Generated_Source\PSoC5/ADC_DelSig_1.c **** * Return: 
 329:.\Generated_Source\PSoC5/ADC_DelSig_1.c **** *  void 
 330:.\Generated_Source\PSoC5/ADC_DelSig_1.c **** *
 331:.\Generated_Source\PSoC5/ADC_DelSig_1.c **** * Global variables:
 332:.\Generated_Source\PSoC5/ADC_DelSig_1.c **** *  ADC_DelSig_1_initVar:  Used to check the initial configuration,
 333:.\Generated_Source\PSoC5/ADC_DelSig_1.c **** *  modified when this function is called for the first time.
 334:.\Generated_Source\PSoC5/ADC_DelSig_1.c **** *
 335:.\Generated_Source\PSoC5/ADC_DelSig_1.c **** *******************************************************************************/
 336:.\Generated_Source\PSoC5/ADC_DelSig_1.c **** void ADC_DelSig_1_Start() 
 337:.\Generated_Source\PSoC5/ADC_DelSig_1.c **** {
ARM GAS  C:\Users\karunmj\AppData\Local\Temp\ccZ3DH5A.s 			page 12


 287              		.loc 1 337 0
 288              		.cfi_startproc
 289              		@ args = 0, pretend = 0, frame = 0
 290              		@ frame_needed = 1, uses_anonymous_args = 0
 291 0000 80B5     		push	{r7, lr}
 292              	.LCFI4:
 293              		.cfi_def_cfa_offset 8
 294 0002 00AF     		add	r7, sp, #0
 295              		.cfi_offset 14, -4
 296              		.cfi_offset 7, -8
 297              	.LCFI5:
 298              		.cfi_def_cfa_register 7
 338:.\Generated_Source\PSoC5/ADC_DelSig_1.c ****     if(ADC_DelSig_1_initVar == 0u)
 299              		.loc 1 338 0
 300 0004 40F20003 		movw	r3, #:lower16:ADC_DelSig_1_initVar
 301 0008 C0F20003 		movt	r3, #:upper16:ADC_DelSig_1_initVar
 302 000c 1B78     		ldrb	r3, [r3, #0]	@ zero_extendqisi2
 303 000e 002B     		cmp	r3, #0
 304 0010 10D1     		bne	.L7
 339:.\Generated_Source\PSoC5/ADC_DelSig_1.c ****     {
 340:.\Generated_Source\PSoC5/ADC_DelSig_1.c ****         if(!(ADC_DelSig_1_started))
 305              		.loc 1 340 0
 306 0012 40F20003 		movw	r3, #:lower16:ADC_DelSig_1_started
 307 0016 C0F20003 		movt	r3, #:upper16:ADC_DelSig_1_started
 308 001a 1B78     		ldrb	r3, [r3, #0]
 309 001c DBB2     		uxtb	r3, r3
 310 001e 002B     		cmp	r3, #0
 311 0020 01D1     		bne	.L8
 341:.\Generated_Source\PSoC5/ADC_DelSig_1.c ****         {
 342:.\Generated_Source\PSoC5/ADC_DelSig_1.c ****             ADC_DelSig_1_Init();
 312              		.loc 1 342 0
 313 0022 FFF7FEFF 		bl	ADC_DelSig_1_Init
 314              	.L8:
 343:.\Generated_Source\PSoC5/ADC_DelSig_1.c ****         }
 344:.\Generated_Source\PSoC5/ADC_DelSig_1.c ****         ADC_DelSig_1_initVar = 1u;
 315              		.loc 1 344 0
 316 0026 40F20003 		movw	r3, #:lower16:ADC_DelSig_1_initVar
 317 002a C0F20003 		movt	r3, #:upper16:ADC_DelSig_1_initVar
 318 002e 4FF00102 		mov	r2, #1
 319 0032 1A70     		strb	r2, [r3, #0]
 320              	.L7:
 345:.\Generated_Source\PSoC5/ADC_DelSig_1.c ****     }
 346:.\Generated_Source\PSoC5/ADC_DelSig_1.c **** 
 347:.\Generated_Source\PSoC5/ADC_DelSig_1.c ****     /* Enable the ADC */
 348:.\Generated_Source\PSoC5/ADC_DelSig_1.c ****     ADC_DelSig_1_Enable();
 321              		.loc 1 348 0
 322 0034 FFF7FEFF 		bl	ADC_DelSig_1_Enable
 349:.\Generated_Source\PSoC5/ADC_DelSig_1.c **** }
 323              		.loc 1 349 0
 324 0038 80BD     		pop	{r7, pc}
 325              		.cfi_endproc
 326              	.LFE2:
 327              		.size	ADC_DelSig_1_Start, .-ADC_DelSig_1_Start
 328 003a 00BF     		.section	.text.ADC_DelSig_1_Stop,"ax",%progbits
 329              		.align	2
 330              		.global	ADC_DelSig_1_Stop
 331              		.thumb
ARM GAS  C:\Users\karunmj\AppData\Local\Temp\ccZ3DH5A.s 			page 13


 332              		.thumb_func
 333              		.type	ADC_DelSig_1_Stop, %function
 334              	ADC_DelSig_1_Stop:
 335              	.LFB3:
 350:.\Generated_Source\PSoC5/ADC_DelSig_1.c **** 
 351:.\Generated_Source\PSoC5/ADC_DelSig_1.c **** 
 352:.\Generated_Source\PSoC5/ADC_DelSig_1.c **** /*******************************************************************************
 353:.\Generated_Source\PSoC5/ADC_DelSig_1.c **** * Function Name: ADC_DelSig_1_Stop
 354:.\Generated_Source\PSoC5/ADC_DelSig_1.c **** ********************************************************************************
 355:.\Generated_Source\PSoC5/ADC_DelSig_1.c **** *
 356:.\Generated_Source\PSoC5/ADC_DelSig_1.c **** * Summary:
 357:.\Generated_Source\PSoC5/ADC_DelSig_1.c **** *  Stops and powers down ADC to lowest power state.
 358:.\Generated_Source\PSoC5/ADC_DelSig_1.c **** *
 359:.\Generated_Source\PSoC5/ADC_DelSig_1.c **** * Parameters:  
 360:.\Generated_Source\PSoC5/ADC_DelSig_1.c **** *  void
 361:.\Generated_Source\PSoC5/ADC_DelSig_1.c **** *
 362:.\Generated_Source\PSoC5/ADC_DelSig_1.c **** * Return: 
 363:.\Generated_Source\PSoC5/ADC_DelSig_1.c **** *  void 
 364:.\Generated_Source\PSoC5/ADC_DelSig_1.c **** *
 365:.\Generated_Source\PSoC5/ADC_DelSig_1.c **** *******************************************************************************/
 366:.\Generated_Source\PSoC5/ADC_DelSig_1.c **** void ADC_DelSig_1_Stop(void) 
 367:.\Generated_Source\PSoC5/ADC_DelSig_1.c **** {
 336              		.loc 1 367 0
 337              		.cfi_startproc
 338              		@ args = 0, pretend = 0, frame = 0
 339              		@ frame_needed = 1, uses_anonymous_args = 0
 340 0000 80B5     		push	{r7, lr}
 341              	.LCFI6:
 342              		.cfi_def_cfa_offset 8
 343 0002 00AF     		add	r7, sp, #0
 344              		.cfi_offset 14, -4
 345              		.cfi_offset 7, -8
 346              	.LCFI7:
 347              		.cfi_def_cfa_register 7
 368:.\Generated_Source\PSoC5/ADC_DelSig_1.c ****     /* Stop conversions */
 369:.\Generated_Source\PSoC5/ADC_DelSig_1.c ****     ADC_DelSig_1_DEC_CR_REG &= ~ADC_DelSig_1_DEC_START_CONV;
 348              		.loc 1 369 0
 349 0004 44F60063 		movw	r3, #:lower16:1073761792
 350 0008 C4F20003 		movt	r3, #:upper16:1073761792
 351 000c 44F60062 		movw	r2, #:lower16:1073761792
 352 0010 C4F20002 		movt	r2, #:upper16:1073761792
 353 0014 1278     		ldrb	r2, [r2, #0]
 354 0016 D2B2     		uxtb	r2, r2
 355 0018 02F0FE02 		and	r2, r2, #254
 356 001c 1A70     		strb	r2, [r3, #0]
 370:.\Generated_Source\PSoC5/ADC_DelSig_1.c ****     ADC_DelSig_1_DEC_SR_REG |=  ADC_DelSig_1_DEC_INTR_CLEAR;
 357              		.loc 1 370 0
 358 001e 44F60163 		movw	r3, #:lower16:1073761793
 359 0022 C4F20003 		movt	r3, #:upper16:1073761793
 360 0026 44F60162 		movw	r2, #:lower16:1073761793
 361 002a C4F20002 		movt	r2, #:upper16:1073761793
 362 002e 1278     		ldrb	r2, [r2, #0]
 363 0030 D2B2     		uxtb	r2, r2
 364 0032 42F00402 		orr	r2, r2, #4
 365 0036 D2B2     		uxtb	r2, r2
 366 0038 1A70     		strb	r2, [r3, #0]
 371:.\Generated_Source\PSoC5/ADC_DelSig_1.c ****     
ARM GAS  C:\Users\karunmj\AppData\Local\Temp\ccZ3DH5A.s 			page 14


 372:.\Generated_Source\PSoC5/ADC_DelSig_1.c ****     /* Disable PRES, Disable power to VCMBUF0, REFBUF0 and REFBUF1, 
 373:.\Generated_Source\PSoC5/ADC_DelSig_1.c ****        enable PRES */
 374:.\Generated_Source\PSoC5/ADC_DelSig_1.c ****     #if (CY_PSOC3 || CY_PSOC5LP)
 375:.\Generated_Source\PSoC5/ADC_DelSig_1.c ****         ADC_DelSig_1_RESET_CR4_REG |= ADC_DelSig_1_IGNORE_PRESA1;
 367              		.loc 1 375 0
 368 003a 44F2F863 		movw	r3, #:lower16:1073759992
 369 003e C4F20003 		movt	r3, #:upper16:1073759992
 370 0042 44F2F862 		movw	r2, #:lower16:1073759992
 371 0046 C4F20002 		movt	r2, #:upper16:1073759992
 372 004a 1278     		ldrb	r2, [r2, #0]
 373 004c D2B2     		uxtb	r2, r2
 374 004e 42F00202 		orr	r2, r2, #2
 375 0052 D2B2     		uxtb	r2, r2
 376 0054 1A70     		strb	r2, [r3, #0]
 376:.\Generated_Source\PSoC5/ADC_DelSig_1.c ****         ADC_DelSig_1_RESET_CR5_REG |= ADC_DelSig_1_IGNORE_PRESA2;
 377              		.loc 1 376 0
 378 0056 44F2F963 		movw	r3, #:lower16:1073759993
 379 005a C4F20003 		movt	r3, #:upper16:1073759993
 380 005e 44F2F962 		movw	r2, #:lower16:1073759993
 381 0062 C4F20002 		movt	r2, #:upper16:1073759993
 382 0066 1278     		ldrb	r2, [r2, #0]
 383 0068 D2B2     		uxtb	r2, r2
 384 006a 42F00202 		orr	r2, r2, #2
 385 006e D2B2     		uxtb	r2, r2
 386 0070 1A70     		strb	r2, [r3, #0]
 377:.\Generated_Source\PSoC5/ADC_DelSig_1.c ****     #elif (CY_PSOC5A)
 378:.\Generated_Source\PSoC5/ADC_DelSig_1.c ****         ADC_DelSig_1_RESET_CR1_REG |= ADC_DelSig_1_DIS_PRES1;
 379:.\Generated_Source\PSoC5/ADC_DelSig_1.c ****         ADC_DelSig_1_RESET_CR3_REG |= ADC_DelSig_1_DIS_PRES2;
 380:.\Generated_Source\PSoC5/ADC_DelSig_1.c ****     #endif /* CY_PSOC5A */
 381:.\Generated_Source\PSoC5/ADC_DelSig_1.c ****     
 382:.\Generated_Source\PSoC5/ADC_DelSig_1.c ****     ADC_DelSig_1_DSM_CR17_REG &= ~(ADC_DelSig_1_DSM_EN_BUF_VREF | ADC_DelSig_1_DSM_EN_BUF_VCM);
 387              		.loc 1 382 0
 388 0072 45F69103 		movw	r3, #:lower16:1073764497
 389 0076 C4F20003 		movt	r3, #:upper16:1073764497
 390 007a 45F69102 		movw	r2, #:lower16:1073764497
 391 007e C4F20002 		movt	r2, #:upper16:1073764497
 392 0082 1278     		ldrb	r2, [r2, #0]
 393 0084 D2B2     		uxtb	r2, r2
 394 0086 02F0FC02 		and	r2, r2, #252
 395 008a 1A70     		strb	r2, [r3, #0]
 383:.\Generated_Source\PSoC5/ADC_DelSig_1.c ****     ADC_DelSig_1_DSM_REF0_REG &= ~ADC_DelSig_1_DSM_EN_BUF_VREF_INN;
 396              		.loc 1 383 0
 397 008c 45F69203 		movw	r3, #:lower16:1073764498
 398 0090 C4F20003 		movt	r3, #:upper16:1073764498
 399 0094 45F69202 		movw	r2, #:lower16:1073764498
 400 0098 C4F20002 		movt	r2, #:upper16:1073764498
 401 009c 1278     		ldrb	r2, [r2, #0]
 402 009e D2B2     		uxtb	r2, r2
 403 00a0 02F0F702 		and	r2, r2, #247
 404 00a4 1A70     		strb	r2, [r3, #0]
 384:.\Generated_Source\PSoC5/ADC_DelSig_1.c ****     
 385:.\Generated_Source\PSoC5/ADC_DelSig_1.c ****     /* Wait for 3 microseconds. */
 386:.\Generated_Source\PSoC5/ADC_DelSig_1.c ****     CyDelayUs(3);
 405              		.loc 1 386 0
 406 00a6 4FF00300 		mov	r0, #3
 407 00aa FFF7FEFF 		bl	CyDelayUs
 387:.\Generated_Source\PSoC5/ADC_DelSig_1.c ****     
ARM GAS  C:\Users\karunmj\AppData\Local\Temp\ccZ3DH5A.s 			page 15


 388:.\Generated_Source\PSoC5/ADC_DelSig_1.c **** 	/* Enable the press circuit */
 389:.\Generated_Source\PSoC5/ADC_DelSig_1.c ****     #if (CY_PSOC3 || CY_PSOC5LP)
 390:.\Generated_Source\PSoC5/ADC_DelSig_1.c ****         ADC_DelSig_1_RESET_CR4_REG &= ~ADC_DelSig_1_IGNORE_PRESA1;
 408              		.loc 1 390 0
 409 00ae 44F2F863 		movw	r3, #:lower16:1073759992
 410 00b2 C4F20003 		movt	r3, #:upper16:1073759992
 411 00b6 44F2F862 		movw	r2, #:lower16:1073759992
 412 00ba C4F20002 		movt	r2, #:upper16:1073759992
 413 00be 1278     		ldrb	r2, [r2, #0]
 414 00c0 D2B2     		uxtb	r2, r2
 415 00c2 02F0FD02 		and	r2, r2, #253
 416 00c6 1A70     		strb	r2, [r3, #0]
 391:.\Generated_Source\PSoC5/ADC_DelSig_1.c ****         ADC_DelSig_1_RESET_CR5_REG &= ~ADC_DelSig_1_IGNORE_PRESA2;
 417              		.loc 1 391 0
 418 00c8 44F2F963 		movw	r3, #:lower16:1073759993
 419 00cc C4F20003 		movt	r3, #:upper16:1073759993
 420 00d0 44F2F962 		movw	r2, #:lower16:1073759993
 421 00d4 C4F20002 		movt	r2, #:upper16:1073759993
 422 00d8 1278     		ldrb	r2, [r2, #0]
 423 00da D2B2     		uxtb	r2, r2
 424 00dc 02F0FD02 		and	r2, r2, #253
 425 00e0 1A70     		strb	r2, [r3, #0]
 392:.\Generated_Source\PSoC5/ADC_DelSig_1.c ****     #elif (CY_PSOC5A)
 393:.\Generated_Source\PSoC5/ADC_DelSig_1.c ****         ADC_DelSig_1_RESET_CR1_REG &= ~ADC_DelSig_1_DIS_PRES1;
 394:.\Generated_Source\PSoC5/ADC_DelSig_1.c ****         ADC_DelSig_1_RESET_CR3_REG &= ~ADC_DelSig_1_DIS_PRES2;
 395:.\Generated_Source\PSoC5/ADC_DelSig_1.c ****     #endif /* CY_PSOC5A */
 396:.\Generated_Source\PSoC5/ADC_DelSig_1.c ****     
 397:.\Generated_Source\PSoC5/ADC_DelSig_1.c ****     /* If PSoC5A then don't disable the power instead put the block to  
 398:.\Generated_Source\PSoC5/ADC_DelSig_1.c ****        low power mode. Also, save current state of all the power configuration 
 399:.\Generated_Source\PSoC5/ADC_DelSig_1.c ****        registers before putting block to low power mode */
 400:.\Generated_Source\PSoC5/ADC_DelSig_1.c ****     #if (CY_PSOC5A)
 401:.\Generated_Source\PSoC5/ADC_DelSig_1.c ****         
 402:.\Generated_Source\PSoC5/ADC_DelSig_1.c ****         /* set the flag */
 403:.\Generated_Source\PSoC5/ADC_DelSig_1.c ****         ADC_DelSig_1_restoreReg = 1u;
 404:.\Generated_Source\PSoC5/ADC_DelSig_1.c ****         
 405:.\Generated_Source\PSoC5/ADC_DelSig_1.c ****         ADC_DelSig_1_SavePowerRegisters();
 406:.\Generated_Source\PSoC5/ADC_DelSig_1.c ****         ADC_DelSig_1_SetLowPower();
 407:.\Generated_Source\PSoC5/ADC_DelSig_1.c ****     #else    
 408:.\Generated_Source\PSoC5/ADC_DelSig_1.c ****         /* Disable power to the ADC */
 409:.\Generated_Source\PSoC5/ADC_DelSig_1.c ****         ADC_DelSig_1_PWRMGR_DSM_REG &= ~ADC_DelSig_1_ACT_PWR_DSM_EN;
 426              		.loc 1 409 0
 427 00e2 44F2AA33 		movw	r3, #:lower16:1073759146
 428 00e6 C4F20003 		movt	r3, #:upper16:1073759146
 429 00ea 44F2AA32 		movw	r2, #:lower16:1073759146
 430 00ee C4F20002 		movt	r2, #:upper16:1073759146
 431 00f2 1278     		ldrb	r2, [r2, #0]
 432 00f4 D2B2     		uxtb	r2, r2
 433 00f6 02F0EF02 		and	r2, r2, #239
 434 00fa 1A70     		strb	r2, [r3, #0]
 410:.\Generated_Source\PSoC5/ADC_DelSig_1.c ****     #endif /* CY_PSOC5A */
 411:.\Generated_Source\PSoC5/ADC_DelSig_1.c ****     
 412:.\Generated_Source\PSoC5/ADC_DelSig_1.c ****     /* Disable power to Decimator block */
 413:.\Generated_Source\PSoC5/ADC_DelSig_1.c ****     ADC_DelSig_1_PWRMGR_DEC_REG &= ~ADC_DelSig_1_ACT_PWR_DEC_EN;
 435              		.loc 1 413 0
 436 00fc 44F2AA33 		movw	r3, #:lower16:1073759146
 437 0100 C4F20003 		movt	r3, #:upper16:1073759146
 438 0104 44F2AA32 		movw	r2, #:lower16:1073759146
ARM GAS  C:\Users\karunmj\AppData\Local\Temp\ccZ3DH5A.s 			page 16


 439 0108 C4F20002 		movt	r2, #:upper16:1073759146
 440 010c 1278     		ldrb	r2, [r2, #0]
 441 010e D2B2     		uxtb	r2, r2
 442 0110 02F0FE02 		and	r2, r2, #254
 443 0114 1A70     		strb	r2, [r3, #0]
 414:.\Generated_Source\PSoC5/ADC_DelSig_1.c ****     
 415:.\Generated_Source\PSoC5/ADC_DelSig_1.c ****     /* Disable alternative active power to the ADC */
 416:.\Generated_Source\PSoC5/ADC_DelSig_1.c ****     ADC_DelSig_1_STBY_PWRMGR_DEC_REG &= ~ADC_DelSig_1_STBY_PWR_DEC_EN;
 444              		.loc 1 416 0
 445 0116 44F2BA33 		movw	r3, #:lower16:1073759162
 446 011a C4F20003 		movt	r3, #:upper16:1073759162
 447 011e 44F2BA32 		movw	r2, #:lower16:1073759162
 448 0122 C4F20002 		movt	r2, #:upper16:1073759162
 449 0126 1278     		ldrb	r2, [r2, #0]
 450 0128 D2B2     		uxtb	r2, r2
 451 012a 02F0FE02 		and	r2, r2, #254
 452 012e 1A70     		strb	r2, [r3, #0]
 417:.\Generated_Source\PSoC5/ADC_DelSig_1.c ****     #if (CY_PSOC3 || CY_PSOC5LP)
 418:.\Generated_Source\PSoC5/ADC_DelSig_1.c ****     ADC_DelSig_1_STBY_PWRMGR_DSM_REG &= ~ADC_DelSig_1_STBY_PWR_DSM_EN;
 453              		.loc 1 418 0
 454 0130 44F2BA33 		movw	r3, #:lower16:1073759162
 455 0134 C4F20003 		movt	r3, #:upper16:1073759162
 456 0138 44F2BA32 		movw	r2, #:lower16:1073759162
 457 013c C4F20002 		movt	r2, #:upper16:1073759162
 458 0140 1278     		ldrb	r2, [r2, #0]
 459 0142 D2B2     		uxtb	r2, r2
 460 0144 02F0EF02 		and	r2, r2, #239
 461 0148 1A70     		strb	r2, [r3, #0]
 419:.\Generated_Source\PSoC5/ADC_DelSig_1.c ****     #endif /* CY_PSOC3 || CY_PSOC5LP */
 420:.\Generated_Source\PSoC5/ADC_DelSig_1.c **** 
 421:.\Generated_Source\PSoC5/ADC_DelSig_1.c ****    /* Disable negative pumps for DSM  */
 422:.\Generated_Source\PSoC5/ADC_DelSig_1.c ****     ADC_DelSig_1_PUMP_CR1_REG &= ~(ADC_DelSig_1_PUMP_CR1_CLKSEL | ADC_DelSig_1_PUMP_CR1_FORCE );
 462              		.loc 1 422 0
 463 014a 45F67703 		movw	r3, #:lower16:1073764471
 464 014e C4F20003 		movt	r3, #:upper16:1073764471
 465 0152 45F67702 		movw	r2, #:lower16:1073764471
 466 0156 C4F20002 		movt	r2, #:upper16:1073764471
 467 015a 1278     		ldrb	r2, [r2, #0]
 468 015c D2B2     		uxtb	r2, r2
 469 015e 02F0F902 		and	r2, r2, #249
 470 0162 1A70     		strb	r2, [r3, #0]
 423:.\Generated_Source\PSoC5/ADC_DelSig_1.c ****     
 424:.\Generated_Source\PSoC5/ADC_DelSig_1.c ****     /* This is only valid if there is an internal clock */
 425:.\Generated_Source\PSoC5/ADC_DelSig_1.c ****     #if(ADC_DelSig_1_DEFAULT_INTERNAL_CLK)
 426:.\Generated_Source\PSoC5/ADC_DelSig_1.c ****         ADC_DelSig_1_PWRMGR_CLK_REG &= ~ADC_DelSig_1_ACT_PWR_CLK_EN;
 471              		.loc 1 426 0
 472 0164 44F2A133 		movw	r3, #:lower16:1073759137
 473 0168 C4F20003 		movt	r3, #:upper16:1073759137
 474 016c 44F2A132 		movw	r2, #:lower16:1073759137
 475 0170 C4F20002 		movt	r2, #:upper16:1073759137
 476 0174 1278     		ldrb	r2, [r2, #0]
 477 0176 D2B2     		uxtb	r2, r2
 478 0178 02F0FE02 		and	r2, r2, #254
 479 017c 1A70     		strb	r2, [r3, #0]
 427:.\Generated_Source\PSoC5/ADC_DelSig_1.c ****         ADC_DelSig_1_STBY_PWRMGR_CLK_REG &= ~ADC_DelSig_1_STBY_PWR_CLK_EN;
 480              		.loc 1 427 0
 481 017e 44F2B133 		movw	r3, #:lower16:1073759153
ARM GAS  C:\Users\karunmj\AppData\Local\Temp\ccZ3DH5A.s 			page 17


 482 0182 C4F20003 		movt	r3, #:upper16:1073759153
 483 0186 44F2B132 		movw	r2, #:lower16:1073759153
 484 018a C4F20002 		movt	r2, #:upper16:1073759153
 485 018e 1278     		ldrb	r2, [r2, #0]
 486 0190 D2B2     		uxtb	r2, r2
 487 0192 02F0FE02 		and	r2, r2, #254
 488 0196 1A70     		strb	r2, [r3, #0]
 428:.\Generated_Source\PSoC5/ADC_DelSig_1.c ****     #endif /* ADC_DelSig_1_DEFAULT_INTERNAL_CLK */
 429:.\Generated_Source\PSoC5/ADC_DelSig_1.c ****     
 430:.\Generated_Source\PSoC5/ADC_DelSig_1.c ****     /* Disable power to charge pump clock */
 431:.\Generated_Source\PSoC5/ADC_DelSig_1.c ****     ADC_DelSig_1_PWRMGR_CHARGE_PUMP_CLK_REG &= ~ADC_DelSig_1_ACT_PWR_CHARGE_PUMP_CLK_EN;
 489              		.loc 1 431 0
 490 0198 44F2A233 		movw	r3, #:lower16:1073759138
 491 019c C4F20003 		movt	r3, #:upper16:1073759138
 492 01a0 44F2A232 		movw	r2, #:lower16:1073759138
 493 01a4 C4F20002 		movt	r2, #:upper16:1073759138
 494 01a8 1278     		ldrb	r2, [r2, #0]
 495 01aa D2B2     		uxtb	r2, r2
 496 01ac 02F0FE02 		and	r2, r2, #254
 497 01b0 1A70     		strb	r2, [r3, #0]
 432:.\Generated_Source\PSoC5/ADC_DelSig_1.c ****     ADC_DelSig_1_STBY_PWRMGR_CHARGE_PUMP_CLK_REG &= ~ADC_DelSig_1_STBY_PWR_CHARGE_PUMP_CLK_EN;
 498              		.loc 1 432 0
 499 01b2 44F2B233 		movw	r3, #:lower16:1073759154
 500 01b6 C4F20003 		movt	r3, #:upper16:1073759154
 501 01ba 44F2B232 		movw	r2, #:lower16:1073759154
 502 01be C4F20002 		movt	r2, #:upper16:1073759154
 503 01c2 1278     		ldrb	r2, [r2, #0]
 504 01c4 D2B2     		uxtb	r2, r2
 505 01c6 02F0FE02 		and	r2, r2, #254
 506 01ca 1A70     		strb	r2, [r3, #0]
 433:.\Generated_Source\PSoC5/ADC_DelSig_1.c **** }
 507              		.loc 1 433 0
 508 01cc 80BD     		pop	{r7, pc}
 509              		.cfi_endproc
 510              	.LFE3:
 511              		.size	ADC_DelSig_1_Stop, .-ADC_DelSig_1_Stop
 512 01ce 00BF     		.section	.text.ADC_DelSig_1_SetBufferGain,"ax",%progbits
 513              		.align	2
 514              		.global	ADC_DelSig_1_SetBufferGain
 515              		.thumb
 516              		.thumb_func
 517              		.type	ADC_DelSig_1_SetBufferGain, %function
 518              	ADC_DelSig_1_SetBufferGain:
 519              	.LFB4:
 434:.\Generated_Source\PSoC5/ADC_DelSig_1.c **** 
 435:.\Generated_Source\PSoC5/ADC_DelSig_1.c **** 
 436:.\Generated_Source\PSoC5/ADC_DelSig_1.c **** /*******************************************************************************
 437:.\Generated_Source\PSoC5/ADC_DelSig_1.c **** * Function Name: ADC_DelSig_1_SetBufferGain
 438:.\Generated_Source\PSoC5/ADC_DelSig_1.c **** ********************************************************************************
 439:.\Generated_Source\PSoC5/ADC_DelSig_1.c **** *
 440:.\Generated_Source\PSoC5/ADC_DelSig_1.c **** * Summary:
 441:.\Generated_Source\PSoC5/ADC_DelSig_1.c **** *  Set input buffer range.
 442:.\Generated_Source\PSoC5/ADC_DelSig_1.c **** *
 443:.\Generated_Source\PSoC5/ADC_DelSig_1.c **** * Parameters:  
 444:.\Generated_Source\PSoC5/ADC_DelSig_1.c **** *  gain:  Two bit value to select a gain of 1, 2, 4, or 8.
 445:.\Generated_Source\PSoC5/ADC_DelSig_1.c **** *
 446:.\Generated_Source\PSoC5/ADC_DelSig_1.c **** * Return: 
ARM GAS  C:\Users\karunmj\AppData\Local\Temp\ccZ3DH5A.s 			page 18


 447:.\Generated_Source\PSoC5/ADC_DelSig_1.c **** *  void
 448:.\Generated_Source\PSoC5/ADC_DelSig_1.c **** *
 449:.\Generated_Source\PSoC5/ADC_DelSig_1.c **** *******************************************************************************/
 450:.\Generated_Source\PSoC5/ADC_DelSig_1.c **** void ADC_DelSig_1_SetBufferGain(uint8 gain) 
 451:.\Generated_Source\PSoC5/ADC_DelSig_1.c **** {
 520              		.loc 1 451 0
 521              		.cfi_startproc
 522              		@ args = 0, pretend = 0, frame = 16
 523              		@ frame_needed = 1, uses_anonymous_args = 0
 524              		@ link register save eliminated.
 525 0000 80B4     		push	{r7}
 526              	.LCFI8:
 527              		.cfi_def_cfa_offset 4
 528 0002 85B0     		sub	sp, sp, #20
 529              	.LCFI9:
 530              		.cfi_def_cfa_offset 24
 531 0004 00AF     		add	r7, sp, #0
 532              		.cfi_offset 7, -4
 533              	.LCFI10:
 534              		.cfi_def_cfa_register 7
 535 0006 0346     		mov	r3, r0
 536 0008 FB71     		strb	r3, [r7, #7]
 452:.\Generated_Source\PSoC5/ADC_DelSig_1.c ****     uint8 tmpReg;
 453:.\Generated_Source\PSoC5/ADC_DelSig_1.c ****     tmpReg = ADC_DelSig_1_DSM_BUF1_REG & ~ADC_DelSig_1_DSM_GAIN_MASK;
 537              		.loc 1 453 0
 538 000a 45F69B03 		movw	r3, #:lower16:1073764507
 539 000e C4F20003 		movt	r3, #:upper16:1073764507
 540 0012 1B78     		ldrb	r3, [r3, #0]
 541 0014 DBB2     		uxtb	r3, r3
 542 0016 23F00C03 		bic	r3, r3, #12
 543 001a FB73     		strb	r3, [r7, #15]
 454:.\Generated_Source\PSoC5/ADC_DelSig_1.c ****     tmpReg |= (gain << 2);
 544              		.loc 1 454 0
 545 001c FB79     		ldrb	r3, [r7, #7]	@ zero_extendqisi2
 546 001e 4FEA8303 		lsl	r3, r3, #2
 547 0022 DAB2     		uxtb	r2, r3
 548 0024 FB7B     		ldrb	r3, [r7, #15]	@ zero_extendqisi2
 549 0026 42EA0303 		orr	r3, r2, r3
 550 002a DBB2     		uxtb	r3, r3
 551 002c FB73     		strb	r3, [r7, #15]
 455:.\Generated_Source\PSoC5/ADC_DelSig_1.c ****     ADC_DelSig_1_DSM_BUF1_REG = tmpReg;
 552              		.loc 1 455 0
 553 002e 45F69B03 		movw	r3, #:lower16:1073764507
 554 0032 C4F20003 		movt	r3, #:upper16:1073764507
 555 0036 FA7B     		ldrb	r2, [r7, #15]
 556 0038 1A70     		strb	r2, [r3, #0]
 456:.\Generated_Source\PSoC5/ADC_DelSig_1.c **** }
 557              		.loc 1 456 0
 558 003a 07F11407 		add	r7, r7, #20
 559 003e BD46     		mov	sp, r7
 560 0040 80BC     		pop	{r7}
 561 0042 7047     		bx	lr
 562              		.cfi_endproc
 563              	.LFE4:
 564              		.size	ADC_DelSig_1_SetBufferGain, .-ADC_DelSig_1_SetBufferGain
 565              		.section	.text.ADC_DelSig_1_SetCoherency,"ax",%progbits
 566              		.align	2
ARM GAS  C:\Users\karunmj\AppData\Local\Temp\ccZ3DH5A.s 			page 19


 567              		.global	ADC_DelSig_1_SetCoherency
 568              		.thumb
 569              		.thumb_func
 570              		.type	ADC_DelSig_1_SetCoherency, %function
 571              	ADC_DelSig_1_SetCoherency:
 572              	.LFB5:
 457:.\Generated_Source\PSoC5/ADC_DelSig_1.c **** 
 458:.\Generated_Source\PSoC5/ADC_DelSig_1.c **** 
 459:.\Generated_Source\PSoC5/ADC_DelSig_1.c **** /*******************************************************************************
 460:.\Generated_Source\PSoC5/ADC_DelSig_1.c **** * Function Name: ADC_DelSig_1_SetCoherency
 461:.\Generated_Source\PSoC5/ADC_DelSig_1.c **** ********************************************************************************
 462:.\Generated_Source\PSoC5/ADC_DelSig_1.c **** *
 463:.\Generated_Source\PSoC5/ADC_DelSig_1.c **** * Summary:
 464:.\Generated_Source\PSoC5/ADC_DelSig_1.c **** *  Sets the ADC output register coherency bit.
 465:.\Generated_Source\PSoC5/ADC_DelSig_1.c **** *
 466:.\Generated_Source\PSoC5/ADC_DelSig_1.c **** * Parameters:  
 467:.\Generated_Source\PSoC5/ADC_DelSig_1.c **** *  gain:  Two bit value to set the coherency bit.
 468:.\Generated_Source\PSoC5/ADC_DelSig_1.c ****           00-Coherency checking off
 469:.\Generated_Source\PSoC5/ADC_DelSig_1.c ****           01-low byte is key byte
 470:.\Generated_Source\PSoC5/ADC_DelSig_1.c ****           02-middle byte is the key byte
 471:.\Generated_Source\PSoC5/ADC_DelSig_1.c ****           03-high byte is the key byte
 472:.\Generated_Source\PSoC5/ADC_DelSig_1.c **** *
 473:.\Generated_Source\PSoC5/ADC_DelSig_1.c **** * Return: 
 474:.\Generated_Source\PSoC5/ADC_DelSig_1.c **** *  void
 475:.\Generated_Source\PSoC5/ADC_DelSig_1.c **** *
 476:.\Generated_Source\PSoC5/ADC_DelSig_1.c **** * Side Effects:  If the coherency is changed, for any reason, it should be 
 477:.\Generated_Source\PSoC5/ADC_DelSig_1.c **** *                changed back to the LSB when the provided "GetResult" API 
 478:.\Generated_Source\PSoC5/ADC_DelSig_1.c **** *                is used.
 479:.\Generated_Source\PSoC5/ADC_DelSig_1.c **** *
 480:.\Generated_Source\PSoC5/ADC_DelSig_1.c **** *******************************************************************************/
 481:.\Generated_Source\PSoC5/ADC_DelSig_1.c **** void ADC_DelSig_1_SetCoherency(uint8 coherency) 
 482:.\Generated_Source\PSoC5/ADC_DelSig_1.c **** {
 573              		.loc 1 482 0
 574              		.cfi_startproc
 575              		@ args = 0, pretend = 0, frame = 16
 576              		@ frame_needed = 1, uses_anonymous_args = 0
 577              		@ link register save eliminated.
 578 0000 80B4     		push	{r7}
 579              	.LCFI11:
 580              		.cfi_def_cfa_offset 4
 581 0002 85B0     		sub	sp, sp, #20
 582              	.LCFI12:
 583              		.cfi_def_cfa_offset 24
 584 0004 00AF     		add	r7, sp, #0
 585              		.cfi_offset 7, -4
 586              	.LCFI13:
 587              		.cfi_def_cfa_register 7
 588 0006 0346     		mov	r3, r0
 589 0008 FB71     		strb	r3, [r7, #7]
 483:.\Generated_Source\PSoC5/ADC_DelSig_1.c ****     uint8 tmpReg;    
 484:.\Generated_Source\PSoC5/ADC_DelSig_1.c ****     tmpReg = ADC_DelSig_1_DEC_COHER_REG & ~ADC_DelSig_1_DEC_SAMP_KEY_MASK;
 590              		.loc 1 484 0
 591 000a 44F61463 		movw	r3, #:lower16:1073761812
 592 000e C4F20003 		movt	r3, #:upper16:1073761812
 593 0012 1B78     		ldrb	r3, [r3, #0]
 594 0014 DBB2     		uxtb	r3, r3
 595 0016 23F00303 		bic	r3, r3, #3
ARM GAS  C:\Users\karunmj\AppData\Local\Temp\ccZ3DH5A.s 			page 20


 596 001a FB73     		strb	r3, [r7, #15]
 485:.\Generated_Source\PSoC5/ADC_DelSig_1.c ****     tmpReg |= coherency;
 597              		.loc 1 485 0
 598 001c FA7B     		ldrb	r2, [r7, #15]
 599 001e FB79     		ldrb	r3, [r7, #7]
 600 0020 42EA0303 		orr	r3, r2, r3
 601 0024 FB73     		strb	r3, [r7, #15]
 486:.\Generated_Source\PSoC5/ADC_DelSig_1.c ****     ADC_DelSig_1_DEC_COHER_REG = tmpReg;
 602              		.loc 1 486 0
 603 0026 44F61463 		movw	r3, #:lower16:1073761812
 604 002a C4F20003 		movt	r3, #:upper16:1073761812
 605 002e FA7B     		ldrb	r2, [r7, #15]
 606 0030 1A70     		strb	r2, [r3, #0]
 487:.\Generated_Source\PSoC5/ADC_DelSig_1.c **** }
 607              		.loc 1 487 0
 608 0032 07F11407 		add	r7, r7, #20
 609 0036 BD46     		mov	sp, r7
 610 0038 80BC     		pop	{r7}
 611 003a 7047     		bx	lr
 612              		.cfi_endproc
 613              	.LFE5:
 614              		.size	ADC_DelSig_1_SetCoherency, .-ADC_DelSig_1_SetCoherency
 615              		.global	__aeabi_ui2f
 616              		.global	__aeabi_fdiv
 617              		.global	__aeabi_fmul
 618              		.global	__aeabi_f2d
 619              		.global	__aeabi_dcmpgt
 620              		.global	__aeabi_f2uiz
 621              		.section	.text.ADC_DelSig_1_SetGCOR,"ax",%progbits
 622              		.align	2
 623              		.global	ADC_DelSig_1_SetGCOR
 624              		.thumb
 625              		.thumb_func
 626              		.type	ADC_DelSig_1_SetGCOR, %function
 627              	ADC_DelSig_1_SetGCOR:
 628              	.LFB6:
 488:.\Generated_Source\PSoC5/ADC_DelSig_1.c **** 
 489:.\Generated_Source\PSoC5/ADC_DelSig_1.c **** 
 490:.\Generated_Source\PSoC5/ADC_DelSig_1.c **** /*******************************************************************************
 491:.\Generated_Source\PSoC5/ADC_DelSig_1.c **** * Function Name: ADC_DelSig_1_SetGCOR
 492:.\Generated_Source\PSoC5/ADC_DelSig_1.c **** ********************************************************************************
 493:.\Generated_Source\PSoC5/ADC_DelSig_1.c **** *
 494:.\Generated_Source\PSoC5/ADC_DelSig_1.c **** * Summary:
 495:.\Generated_Source\PSoC5/ADC_DelSig_1.c **** *  Calculates a new GCOR value and writes it into the GCOR register.
 496:.\Generated_Source\PSoC5/ADC_DelSig_1.c **** *
 497:.\Generated_Source\PSoC5/ADC_DelSig_1.c **** * Parameters:  
 498:.\Generated_Source\PSoC5/ADC_DelSig_1.c **** *  gainAdjust:  floating point value to set GCOR registers.
 499:.\Generated_Source\PSoC5/ADC_DelSig_1.c **** *
 500:.\Generated_Source\PSoC5/ADC_DelSig_1.c **** * Return: 
 501:.\Generated_Source\PSoC5/ADC_DelSig_1.c **** *  uint8:  0-if GCOR value is within the expected range.
 502:.\Generated_Source\PSoC5/ADC_DelSig_1.c ****            1- if GCOR is outside the expected range.
 503:.\Generated_Source\PSoC5/ADC_DelSig_1.c **** *
 504:.\Generated_Source\PSoC5/ADC_DelSig_1.c **** * Side Effects:  The GVAL register is set to the amount of valid bits in the
 505:.\Generated_Source\PSoC5/ADC_DelSig_1.c **** *                GCOR  register minus one. If GVAL is 15 (0x0F), all 16 bits
 506:.\Generated_Source\PSoC5/ADC_DelSig_1.c **** *                of the GCOR registers will be valid. If for example GVAL is 
 507:.\Generated_Source\PSoC5/ADC_DelSig_1.c **** *                11 (0x0B) only 12 bits will be valid. The least 4 bits will
 508:.\Generated_Source\PSoC5/ADC_DelSig_1.c **** *                be lost when the GCOR value is shifted 4 places to the right.
ARM GAS  C:\Users\karunmj\AppData\Local\Temp\ccZ3DH5A.s 			page 21


 509:.\Generated_Source\PSoC5/ADC_DelSig_1.c **** *
 510:.\Generated_Source\PSoC5/ADC_DelSig_1.c **** ******************************************************************************/
 511:.\Generated_Source\PSoC5/ADC_DelSig_1.c **** uint8 ADC_DelSig_1_SetGCOR(float gainAdjust) 
 512:.\Generated_Source\PSoC5/ADC_DelSig_1.c **** {
 629              		.loc 1 512 0
 630              		.cfi_startproc
 631              		@ args = 0, pretend = 0, frame = 16
 632              		@ frame_needed = 1, uses_anonymous_args = 0
 633 0000 90B5     		push	{r4, r7, lr}
 634              	.LCFI14:
 635              		.cfi_def_cfa_offset 12
 636 0002 85B0     		sub	sp, sp, #20
 637              	.LCFI15:
 638              		.cfi_def_cfa_offset 32
 639 0004 00AF     		add	r7, sp, #0
 640              		.cfi_offset 14, -4
 641              		.cfi_offset 7, -8
 642              		.cfi_offset 4, -12
 643              	.LCFI16:
 644              		.cfi_def_cfa_register 7
 645 0006 7860     		str	r0, [r7, #4]	@ float
 513:.\Generated_Source\PSoC5/ADC_DelSig_1.c ****     uint16 tmpReg;
 514:.\Generated_Source\PSoC5/ADC_DelSig_1.c ****     uint8 status;
 515:.\Generated_Source\PSoC5/ADC_DelSig_1.c ****     float tmpValue;
 516:.\Generated_Source\PSoC5/ADC_DelSig_1.c ****     
 517:.\Generated_Source\PSoC5/ADC_DelSig_1.c ****     tmpReg = ADC_DelSig_1_DEC_GCORH_REG;
 646              		.loc 1 517 0
 647 0008 44F60D63 		movw	r3, #:lower16:1073761805
 648 000c C4F20003 		movt	r3, #:upper16:1073761805
 649 0010 1B78     		ldrb	r3, [r3, #0]
 650 0012 DBB2     		uxtb	r3, r3
 651 0014 3B81     		strh	r3, [r7, #8]	@ movhi
 518:.\Generated_Source\PSoC5/ADC_DelSig_1.c ****     tmpReg = (tmpReg << 8) | ADC_DelSig_1_DEC_GCOR_REG;
 652              		.loc 1 518 0
 653 0016 3B89     		ldrh	r3, [r7, #8]
 654 0018 4FEA0323 		lsl	r3, r3, #8
 655 001c 9AB2     		uxth	r2, r3
 656 001e 44F60C63 		movw	r3, #:lower16:1073761804
 657 0022 C4F20003 		movt	r3, #:upper16:1073761804
 658 0026 1B78     		ldrb	r3, [r3, #0]
 659 0028 DBB2     		uxtb	r3, r3
 660 002a 42EA0303 		orr	r3, r2, r3
 661 002e 9BB2     		uxth	r3, r3
 662 0030 3B81     		strh	r3, [r7, #8]	@ movhi
 519:.\Generated_Source\PSoC5/ADC_DelSig_1.c ****     tmpValue = ((float)tmpReg / ADC_DelSig_1_IDEAL_GAIN_CONST);
 663              		.loc 1 519 0
 664 0032 3B89     		ldrh	r3, [r7, #8]
 665 0034 1846     		mov	r0, r3
 666 0036 FFF7FEFF 		bl	__aeabi_ui2f
 667 003a 0346     		mov	r3, r0
 668 003c 1846     		mov	r0, r3
 669 003e 2849     		ldr	r1, .L22+8	@ float
 670 0040 FFF7FEFF 		bl	__aeabi_fdiv
 671 0044 0346     		mov	r3, r0
 672 0046 FB60     		str	r3, [r7, #12]	@ float
 520:.\Generated_Source\PSoC5/ADC_DelSig_1.c ****     tmpValue = tmpValue * gainAdjust;
 673              		.loc 1 520 0
ARM GAS  C:\Users\karunmj\AppData\Local\Temp\ccZ3DH5A.s 			page 22


 674 0048 F868     		ldr	r0, [r7, #12]	@ float
 675 004a 7968     		ldr	r1, [r7, #4]	@ float
 676 004c FFF7FEFF 		bl	__aeabi_fmul
 677 0050 0346     		mov	r3, r0
 678 0052 FB60     		str	r3, [r7, #12]	@ float
 521:.\Generated_Source\PSoC5/ADC_DelSig_1.c ****     
 522:.\Generated_Source\PSoC5/ADC_DelSig_1.c ****     if (tmpValue > 1.9999)
 679              		.loc 1 522 0
 680 0054 F868     		ldr	r0, [r7, #12]	@ float
 681 0056 FFF7FEFF 		bl	__aeabi_f2d
 682 005a 0246     		mov	r2, r0
 683 005c 0B46     		mov	r3, r1
 684 005e 4FF00001 		mov	r1, #0
 685 0062 0C46     		mov	r4, r1
 686 0064 1046     		mov	r0, r2
 687 0066 1946     		mov	r1, r3
 688 0068 1BA3     		adr	r3, .L22
 689 006a D3E90023 		ldrd	r2, [r3]
 690 006e FFF7FEFF 		bl	__aeabi_dcmpgt
 691 0072 0346     		mov	r3, r0
 692 0074 002B     		cmp	r3, #0
 693 0076 02D0     		beq	.L17
 694              	.L18:
 695 0078 4FF00103 		mov	r3, #1
 696 007c 1C46     		mov	r4, r3
 697              	.L17:
 698 007e E3B2     		uxtb	r3, r4
 699 0080 002B     		cmp	r3, #0
 700 0082 03D0     		beq	.L19
 523:.\Generated_Source\PSoC5/ADC_DelSig_1.c ****     {
 524:.\Generated_Source\PSoC5/ADC_DelSig_1.c ****         status = 1;
 701              		.loc 1 524 0
 702 0084 4FF00103 		mov	r3, #1
 703 0088 FB72     		strb	r3, [r7, #11]
 704 008a 1DE0     		b	.L20
 705              	.L19:
 525:.\Generated_Source\PSoC5/ADC_DelSig_1.c ****     }
 526:.\Generated_Source\PSoC5/ADC_DelSig_1.c ****     else
 527:.\Generated_Source\PSoC5/ADC_DelSig_1.c ****     {
 528:.\Generated_Source\PSoC5/ADC_DelSig_1.c ****         tmpReg = (uint16)(tmpValue * ADC_DelSig_1_IDEAL_GAIN_CONST);
 706              		.loc 1 528 0
 707 008c F868     		ldr	r0, [r7, #12]	@ float
 708 008e 1449     		ldr	r1, .L22+8	@ float
 709 0090 FFF7FEFF 		bl	__aeabi_fmul
 710 0094 0346     		mov	r3, r0
 711 0096 1846     		mov	r0, r3
 712 0098 FFF7FEFF 		bl	__aeabi_f2uiz
 713 009c 0346     		mov	r3, r0
 714 009e 3B81     		strh	r3, [r7, #8]	@ movhi
 529:.\Generated_Source\PSoC5/ADC_DelSig_1.c ****         ADC_DelSig_1_DEC_GCOR_REG = (uint8)tmpReg;
 715              		.loc 1 529 0
 716 00a0 44F60C63 		movw	r3, #:lower16:1073761804
 717 00a4 C4F20003 		movt	r3, #:upper16:1073761804
 718 00a8 3A89     		ldrh	r2, [r7, #8]	@ movhi
 719 00aa D2B2     		uxtb	r2, r2
 720 00ac 1A70     		strb	r2, [r3, #0]
 530:.\Generated_Source\PSoC5/ADC_DelSig_1.c ****         ADC_DelSig_1_DEC_GCORH_REG = (uint8) (tmpReg >> 8);
ARM GAS  C:\Users\karunmj\AppData\Local\Temp\ccZ3DH5A.s 			page 23


 721              		.loc 1 530 0
 722 00ae 44F60D63 		movw	r3, #:lower16:1073761805
 723 00b2 C4F20003 		movt	r3, #:upper16:1073761805
 724 00b6 3A89     		ldrh	r2, [r7, #8]
 725 00b8 4FEA1222 		lsr	r2, r2, #8
 726 00bc 92B2     		uxth	r2, r2
 727 00be D2B2     		uxtb	r2, r2
 728 00c0 1A70     		strb	r2, [r3, #0]
 531:.\Generated_Source\PSoC5/ADC_DelSig_1.c ****         status = 0;
 729              		.loc 1 531 0
 730 00c2 4FF00003 		mov	r3, #0
 731 00c6 FB72     		strb	r3, [r7, #11]
 732              	.L20:
 532:.\Generated_Source\PSoC5/ADC_DelSig_1.c ****     }
 533:.\Generated_Source\PSoC5/ADC_DelSig_1.c ****     
 534:.\Generated_Source\PSoC5/ADC_DelSig_1.c ****     return status;
 733              		.loc 1 534 0
 734 00c8 FB7A     		ldrb	r3, [r7, #11]	@ zero_extendqisi2
 535:.\Generated_Source\PSoC5/ADC_DelSig_1.c **** }
 735              		.loc 1 535 0
 736 00ca 1846     		mov	r0, r3
 737 00cc 07F11407 		add	r7, r7, #20
 738 00d0 BD46     		mov	sp, r7
 739 00d2 90BD     		pop	{r4, r7, pc}
 740              	.L23:
 741 00d4 AFF30080 		.align	3
 742              	.L22:
 743 00d8 8F537424 		.word	611603343
 744 00dc 97FFFF3F 		.word	1073741719
 745 00e0 00000047 		.word	1191182336
 746              		.cfi_endproc
 747              	.LFE6:
 748              		.size	ADC_DelSig_1_SetGCOR, .-ADC_DelSig_1_SetGCOR
 749 00e4 AFF30080 		.section	.text.ADC_DelSig_1_ReadGCOR,"ax",%progbits
 750              		.align	2
 751              		.global	ADC_DelSig_1_ReadGCOR
 752              		.thumb
 753              		.thumb_func
 754              		.type	ADC_DelSig_1_ReadGCOR, %function
 755              	ADC_DelSig_1_ReadGCOR:
 756              	.LFB7:
 536:.\Generated_Source\PSoC5/ADC_DelSig_1.c **** 
 537:.\Generated_Source\PSoC5/ADC_DelSig_1.c **** 
 538:.\Generated_Source\PSoC5/ADC_DelSig_1.c **** /******************************************************************************
 539:.\Generated_Source\PSoC5/ADC_DelSig_1.c **** * Function Name: ADC_DelSig_1_ReadGCOR
 540:.\Generated_Source\PSoC5/ADC_DelSig_1.c **** *******************************************************************************
 541:.\Generated_Source\PSoC5/ADC_DelSig_1.c **** *
 542:.\Generated_Source\PSoC5/ADC_DelSig_1.c **** * Summary:
 543:.\Generated_Source\PSoC5/ADC_DelSig_1.c **** *  This API returns the current GCOR register value, normalized based on the 
 544:.\Generated_Source\PSoC5/ADC_DelSig_1.c **** *  GVAL register settings.
 545:.\Generated_Source\PSoC5/ADC_DelSig_1.c **** *
 546:.\Generated_Source\PSoC5/ADC_DelSig_1.c **** * Parameters:  
 547:.\Generated_Source\PSoC5/ADC_DelSig_1.c **** *  void
 548:.\Generated_Source\PSoC5/ADC_DelSig_1.c **** *
 549:.\Generated_Source\PSoC5/ADC_DelSig_1.c **** * Return: 
 550:.\Generated_Source\PSoC5/ADC_DelSig_1.c **** *  uint16:  Normalized GCOR value.
 551:.\Generated_Source\PSoC5/ADC_DelSig_1.c **** *
ARM GAS  C:\Users\karunmj\AppData\Local\Temp\ccZ3DH5A.s 			page 24


 552:.\Generated_Source\PSoC5/ADC_DelSig_1.c **** * Side Effects:  If the GVAL register is set to a value greater than 0x0F, then
 553:.\Generated_Source\PSoC5/ADC_DelSig_1.c ****                  it gives unexpected value.
 554:.\Generated_Source\PSoC5/ADC_DelSig_1.c **** *
 555:.\Generated_Source\PSoC5/ADC_DelSig_1.c **** *******************************************************************************/
 556:.\Generated_Source\PSoC5/ADC_DelSig_1.c **** uint16 ADC_DelSig_1_ReadGCOR(void) 
 557:.\Generated_Source\PSoC5/ADC_DelSig_1.c **** {
 757              		.loc 1 557 0
 758              		.cfi_startproc
 759              		@ args = 0, pretend = 0, frame = 8
 760              		@ frame_needed = 1, uses_anonymous_args = 0
 761              		@ link register save eliminated.
 762 0000 80B4     		push	{r7}
 763              	.LCFI17:
 764              		.cfi_def_cfa_offset 4
 765 0002 83B0     		sub	sp, sp, #12
 766              	.LCFI18:
 767              		.cfi_def_cfa_offset 16
 768 0004 00AF     		add	r7, sp, #0
 769              		.cfi_offset 7, -4
 770              	.LCFI19:
 771              		.cfi_def_cfa_register 7
 558:.\Generated_Source\PSoC5/ADC_DelSig_1.c ****     uint8 gValue;
 559:.\Generated_Source\PSoC5/ADC_DelSig_1.c ****     uint16 gcorValue, gcorRegValue;
 560:.\Generated_Source\PSoC5/ADC_DelSig_1.c ****     
 561:.\Generated_Source\PSoC5/ADC_DelSig_1.c ****     gValue = ADC_DelSig_1_DEC_GVAL_REG;
 772              		.loc 1 561 0
 773 0006 44F60E63 		movw	r3, #:lower16:1073761806
 774 000a C4F20003 		movt	r3, #:upper16:1073761806
 775 000e 1B78     		ldrb	r3, [r3, #0]
 776 0010 FB70     		strb	r3, [r7, #3]
 562:.\Generated_Source\PSoC5/ADC_DelSig_1.c ****     gcorRegValue = CY_GET_REG16(ADC_DelSig_1_DEC_GCOR_PTR);
 777              		.loc 1 562 0
 778 0012 44F60C63 		movw	r3, #:lower16:1073761804
 779 0016 C4F20003 		movt	r3, #:upper16:1073761804
 780 001a 1B88     		ldrh	r3, [r3, #0]	@ movhi
 781 001c FB80     		strh	r3, [r7, #6]	@ movhi
 563:.\Generated_Source\PSoC5/ADC_DelSig_1.c ****     
 564:.\Generated_Source\PSoC5/ADC_DelSig_1.c ****     switch (gValue)
 782              		.loc 1 564 0
 783 001e FB78     		ldrb	r3, [r7, #3]	@ zero_extendqisi2
 784 0020 A3F10903 		sub	r3, r3, #9
 785 0024 052B     		cmp	r3, #5
 786 0026 3FD8     		bhi	.L25
 787 0028 01A2     		adr	r2, .L32
 788 002a 52F823F0 		ldr	pc, [r2, r3, lsl #2]
 789 002e 00BF     		.align	2
 790              	.L32:
 791 0030 49000000 		.word	.L26+1
 792 0034 59000000 		.word	.L27+1
 793 0038 69000000 		.word	.L28+1
 794 003c 79000000 		.word	.L29+1
 795 0040 89000000 		.word	.L30+1
 796 0044 99000000 		.word	.L31+1
 797              	.L26:
 565:.\Generated_Source\PSoC5/ADC_DelSig_1.c ****     {
 566:.\Generated_Source\PSoC5/ADC_DelSig_1.c ****         case ADC_DelSig_1_GVAL_RESOLUTIN_8:
 567:.\Generated_Source\PSoC5/ADC_DelSig_1.c ****             gcorValue = gcorRegValue << (ADC_DelSig_1_MAX_GVAL - gValue);
ARM GAS  C:\Users\karunmj\AppData\Local\Temp\ccZ3DH5A.s 			page 25


 798              		.loc 1 567 0
 799 0048 FA88     		ldrh	r2, [r7, #6]
 800 004a FB78     		ldrb	r3, [r7, #3]	@ zero_extendqisi2
 801 004c C3F10F03 		rsb	r3, r3, #15
 802 0050 02FA03F3 		lsl	r3, r2, r3
 803 0054 BB80     		strh	r3, [r7, #4]	@ movhi
 568:.\Generated_Source\PSoC5/ADC_DelSig_1.c ****             break;
 804              		.loc 1 568 0
 805 0056 29E0     		b	.L33
 806              	.L27:
 569:.\Generated_Source\PSoC5/ADC_DelSig_1.c ****         
 570:.\Generated_Source\PSoC5/ADC_DelSig_1.c ****         case ADC_DelSig_1_GVAL_RESOLUTIN_9:
 571:.\Generated_Source\PSoC5/ADC_DelSig_1.c ****             gcorValue = gcorRegValue << (ADC_DelSig_1_MAX_GVAL - gValue);
 807              		.loc 1 571 0
 808 0058 FA88     		ldrh	r2, [r7, #6]
 809 005a FB78     		ldrb	r3, [r7, #3]	@ zero_extendqisi2
 810 005c C3F10F03 		rsb	r3, r3, #15
 811 0060 02FA03F3 		lsl	r3, r2, r3
 812 0064 BB80     		strh	r3, [r7, #4]	@ movhi
 572:.\Generated_Source\PSoC5/ADC_DelSig_1.c ****             break;
 813              		.loc 1 572 0
 814 0066 21E0     		b	.L33
 815              	.L28:
 573:.\Generated_Source\PSoC5/ADC_DelSig_1.c ****             
 574:.\Generated_Source\PSoC5/ADC_DelSig_1.c ****         case ADC_DelSig_1_GVAL_RESOLUTIN_10:
 575:.\Generated_Source\PSoC5/ADC_DelSig_1.c ****             gcorValue = gcorRegValue << (ADC_DelSig_1_MAX_GVAL - gValue);
 816              		.loc 1 575 0
 817 0068 FA88     		ldrh	r2, [r7, #6]
 818 006a FB78     		ldrb	r3, [r7, #3]	@ zero_extendqisi2
 819 006c C3F10F03 		rsb	r3, r3, #15
 820 0070 02FA03F3 		lsl	r3, r2, r3
 821 0074 BB80     		strh	r3, [r7, #4]	@ movhi
 576:.\Generated_Source\PSoC5/ADC_DelSig_1.c ****             break;
 822              		.loc 1 576 0
 823 0076 19E0     		b	.L33
 824              	.L29:
 577:.\Generated_Source\PSoC5/ADC_DelSig_1.c ****             
 578:.\Generated_Source\PSoC5/ADC_DelSig_1.c ****         case ADC_DelSig_1_GVAL_RESOLUTIN_11:
 579:.\Generated_Source\PSoC5/ADC_DelSig_1.c ****             gcorValue = gcorRegValue << (ADC_DelSig_1_MAX_GVAL - gValue);
 825              		.loc 1 579 0
 826 0078 FA88     		ldrh	r2, [r7, #6]
 827 007a FB78     		ldrb	r3, [r7, #3]	@ zero_extendqisi2
 828 007c C3F10F03 		rsb	r3, r3, #15
 829 0080 02FA03F3 		lsl	r3, r2, r3
 830 0084 BB80     		strh	r3, [r7, #4]	@ movhi
 580:.\Generated_Source\PSoC5/ADC_DelSig_1.c ****             break;
 831              		.loc 1 580 0
 832 0086 11E0     		b	.L33
 833              	.L30:
 581:.\Generated_Source\PSoC5/ADC_DelSig_1.c ****             
 582:.\Generated_Source\PSoC5/ADC_DelSig_1.c ****         case ADC_DelSig_1_GVAL_RESOLUTIN_12:
 583:.\Generated_Source\PSoC5/ADC_DelSig_1.c ****             gcorValue = gcorRegValue << (ADC_DelSig_1_MAX_GVAL - gValue);
 834              		.loc 1 583 0
 835 0088 FA88     		ldrh	r2, [r7, #6]
 836 008a FB78     		ldrb	r3, [r7, #3]	@ zero_extendqisi2
 837 008c C3F10F03 		rsb	r3, r3, #15
 838 0090 02FA03F3 		lsl	r3, r2, r3
ARM GAS  C:\Users\karunmj\AppData\Local\Temp\ccZ3DH5A.s 			page 26


 839 0094 BB80     		strh	r3, [r7, #4]	@ movhi
 584:.\Generated_Source\PSoC5/ADC_DelSig_1.c ****             break;
 840              		.loc 1 584 0
 841 0096 09E0     		b	.L33
 842              	.L31:
 585:.\Generated_Source\PSoC5/ADC_DelSig_1.c ****             
 586:.\Generated_Source\PSoC5/ADC_DelSig_1.c ****         case ADC_DelSig_1_GVAL_RESOLUTIN_13:
 587:.\Generated_Source\PSoC5/ADC_DelSig_1.c ****             gcorValue = gcorRegValue << (ADC_DelSig_1_MAX_GVAL - gValue);
 843              		.loc 1 587 0
 844 0098 FA88     		ldrh	r2, [r7, #6]
 845 009a FB78     		ldrb	r3, [r7, #3]	@ zero_extendqisi2
 846 009c C3F10F03 		rsb	r3, r3, #15
 847 00a0 02FA03F3 		lsl	r3, r2, r3
 848 00a4 BB80     		strh	r3, [r7, #4]	@ movhi
 588:.\Generated_Source\PSoC5/ADC_DelSig_1.c ****             break;
 849              		.loc 1 588 0
 850 00a6 01E0     		b	.L33
 851              	.L25:
 589:.\Generated_Source\PSoC5/ADC_DelSig_1.c ****             
 590:.\Generated_Source\PSoC5/ADC_DelSig_1.c ****         default:
 591:.\Generated_Source\PSoC5/ADC_DelSig_1.c ****             gcorValue = gcorRegValue;
 852              		.loc 1 591 0
 853 00a8 FB88     		ldrh	r3, [r7, #6]	@ movhi
 854 00aa BB80     		strh	r3, [r7, #4]	@ movhi
 855              	.L33:
 592:.\Generated_Source\PSoC5/ADC_DelSig_1.c ****             break;
 593:.\Generated_Source\PSoC5/ADC_DelSig_1.c ****     }
 594:.\Generated_Source\PSoC5/ADC_DelSig_1.c ****         
 595:.\Generated_Source\PSoC5/ADC_DelSig_1.c ****     return gcorValue;
 856              		.loc 1 595 0
 857 00ac BB88     		ldrh	r3, [r7, #4]
 596:.\Generated_Source\PSoC5/ADC_DelSig_1.c **** }
 858              		.loc 1 596 0
 859 00ae 1846     		mov	r0, r3
 860 00b0 07F10C07 		add	r7, r7, #12
 861 00b4 BD46     		mov	sp, r7
 862 00b6 80BC     		pop	{r7}
 863 00b8 7047     		bx	lr
 864              		.cfi_endproc
 865              	.LFE7:
 866              		.size	ADC_DelSig_1_ReadGCOR, .-ADC_DelSig_1_ReadGCOR
 867 00ba 00BF     		.section	.text.ADC_DelSig_1_SetBufferChop,"ax",%progbits
 868              		.align	2
 869              		.global	ADC_DelSig_1_SetBufferChop
 870              		.thumb
 871              		.thumb_func
 872              		.type	ADC_DelSig_1_SetBufferChop, %function
 873              	ADC_DelSig_1_SetBufferChop:
 874              	.LFB8:
 597:.\Generated_Source\PSoC5/ADC_DelSig_1.c **** 
 598:.\Generated_Source\PSoC5/ADC_DelSig_1.c **** 
 599:.\Generated_Source\PSoC5/ADC_DelSig_1.c **** /*******************************************************************************
 600:.\Generated_Source\PSoC5/ADC_DelSig_1.c **** * Function Name: ADC_DelSig_1_SetBufferChop
 601:.\Generated_Source\PSoC5/ADC_DelSig_1.c **** ********************************************************************************
 602:.\Generated_Source\PSoC5/ADC_DelSig_1.c **** *
 603:.\Generated_Source\PSoC5/ADC_DelSig_1.c **** * Summary:
 604:.\Generated_Source\PSoC5/ADC_DelSig_1.c **** *  Sets the Delta Sigma Modulator Buffer chopper mode.
ARM GAS  C:\Users\karunmj\AppData\Local\Temp\ccZ3DH5A.s 			page 27


 605:.\Generated_Source\PSoC5/ADC_DelSig_1.c **** *
 606:.\Generated_Source\PSoC5/ADC_DelSig_1.c **** * Parameters:  
 607:.\Generated_Source\PSoC5/ADC_DelSig_1.c **** *  chopen:  If non-zero set the chopper mode.
 608:.\Generated_Source\PSoC5/ADC_DelSig_1.c **** *  chopFreq:  Chop frequency value.
 609:.\Generated_Source\PSoC5/ADC_DelSig_1.c **** *
 610:.\Generated_Source\PSoC5/ADC_DelSig_1.c **** * Return: 
 611:.\Generated_Source\PSoC5/ADC_DelSig_1.c **** *  void
 612:.\Generated_Source\PSoC5/ADC_DelSig_1.c **** *
 613:.\Generated_Source\PSoC5/ADC_DelSig_1.c **** *******************************************************************************/
 614:.\Generated_Source\PSoC5/ADC_DelSig_1.c **** void ADC_DelSig_1_SetBufferChop(uint8 chopen, uint8 chopFreq) 
 615:.\Generated_Source\PSoC5/ADC_DelSig_1.c **** {
 875              		.loc 1 615 0
 876              		.cfi_startproc
 877              		@ args = 0, pretend = 0, frame = 8
 878              		@ frame_needed = 1, uses_anonymous_args = 0
 879              		@ link register save eliminated.
 880 0000 80B4     		push	{r7}
 881              	.LCFI20:
 882              		.cfi_def_cfa_offset 4
 883 0002 83B0     		sub	sp, sp, #12
 884              	.LCFI21:
 885              		.cfi_def_cfa_offset 16
 886 0004 00AF     		add	r7, sp, #0
 887              		.cfi_offset 7, -4
 888              	.LCFI22:
 889              		.cfi_def_cfa_register 7
 890 0006 0246     		mov	r2, r0
 891 0008 0B46     		mov	r3, r1
 892 000a FA71     		strb	r2, [r7, #7]
 893 000c BB71     		strb	r3, [r7, #6]
 616:.\Generated_Source\PSoC5/ADC_DelSig_1.c ****     if(chopen != 0u)
 894              		.loc 1 616 0
 895 000e FB79     		ldrb	r3, [r7, #7]	@ zero_extendqisi2
 896 0010 002B     		cmp	r3, #0
 897 0012 0BD0     		beq	.L36
 617:.\Generated_Source\PSoC5/ADC_DelSig_1.c ****     {
 618:.\Generated_Source\PSoC5/ADC_DelSig_1.c ****         ADC_DelSig_1_DSM_BUF2_REG = (ADC_DelSig_1_DSM_BUF_FCHOP_MASK & chopFreq) | \
 898              		.loc 1 618 0
 899 0014 45F69C03 		movw	r3, #:lower16:1073764508
 900 0018 C4F20003 		movt	r3, #:upper16:1073764508
 901 001c BA79     		ldrb	r2, [r7, #6]	@ zero_extendqisi2
 902 001e 02F00702 		and	r2, r2, #7
 903 0022 42F00802 		orr	r2, r2, #8
 904 0026 D2B2     		uxtb	r2, r2
 905 0028 1A70     		strb	r2, [r3, #0]
 906 002a 06E0     		b	.L38
 907              	.L36:
 619:.\Generated_Source\PSoC5/ADC_DelSig_1.c ****                                          ADC_DelSig_1_DSM_BUF_CHOP_EN;
 620:.\Generated_Source\PSoC5/ADC_DelSig_1.c ****     }
 621:.\Generated_Source\PSoC5/ADC_DelSig_1.c ****     else
 622:.\Generated_Source\PSoC5/ADC_DelSig_1.c ****     {
 623:.\Generated_Source\PSoC5/ADC_DelSig_1.c ****         ADC_DelSig_1_DSM_BUF2_REG = 0x00u;
 908              		.loc 1 623 0
 909 002c 45F69C03 		movw	r3, #:lower16:1073764508
 910 0030 C4F20003 		movt	r3, #:upper16:1073764508
 911 0034 4FF00002 		mov	r2, #0
 912 0038 1A70     		strb	r2, [r3, #0]
ARM GAS  C:\Users\karunmj\AppData\Local\Temp\ccZ3DH5A.s 			page 28


 913              	.L38:
 624:.\Generated_Source\PSoC5/ADC_DelSig_1.c ****     }
 625:.\Generated_Source\PSoC5/ADC_DelSig_1.c **** }
 914              		.loc 1 625 0
 915 003a 07F10C07 		add	r7, r7, #12
 916 003e BD46     		mov	sp, r7
 917 0040 80BC     		pop	{r7}
 918 0042 7047     		bx	lr
 919              		.cfi_endproc
 920              	.LFE8:
 921              		.size	ADC_DelSig_1_SetBufferChop, .-ADC_DelSig_1_SetBufferChop
 922              		.section	.text.ADC_DelSig_1_StartConvert,"ax",%progbits
 923              		.align	2
 924              		.global	ADC_DelSig_1_StartConvert
 925              		.thumb
 926              		.thumb_func
 927              		.type	ADC_DelSig_1_StartConvert, %function
 928              	ADC_DelSig_1_StartConvert:
 929              	.LFB9:
 626:.\Generated_Source\PSoC5/ADC_DelSig_1.c **** 
 627:.\Generated_Source\PSoC5/ADC_DelSig_1.c **** 
 628:.\Generated_Source\PSoC5/ADC_DelSig_1.c **** /*******************************************************************************
 629:.\Generated_Source\PSoC5/ADC_DelSig_1.c **** * Function Name: ADC_DelSig_1_StartConvert
 630:.\Generated_Source\PSoC5/ADC_DelSig_1.c **** ********************************************************************************
 631:.\Generated_Source\PSoC5/ADC_DelSig_1.c **** *
 632:.\Generated_Source\PSoC5/ADC_DelSig_1.c **** * Summary:
 633:.\Generated_Source\PSoC5/ADC_DelSig_1.c **** *  Starts ADC conversion using the given mode.
 634:.\Generated_Source\PSoC5/ADC_DelSig_1.c **** *
 635:.\Generated_Source\PSoC5/ADC_DelSig_1.c **** * Parameters:  
 636:.\Generated_Source\PSoC5/ADC_DelSig_1.c **** *  void
 637:.\Generated_Source\PSoC5/ADC_DelSig_1.c **** *
 638:.\Generated_Source\PSoC5/ADC_DelSig_1.c **** * Return: 
 639:.\Generated_Source\PSoC5/ADC_DelSig_1.c **** *  void 
 640:.\Generated_Source\PSoC5/ADC_DelSig_1.c **** *
 641:.\Generated_Source\PSoC5/ADC_DelSig_1.c **** *******************************************************************************/
 642:.\Generated_Source\PSoC5/ADC_DelSig_1.c **** void ADC_DelSig_1_StartConvert(void) 
 643:.\Generated_Source\PSoC5/ADC_DelSig_1.c **** {
 930              		.loc 1 643 0
 931              		.cfi_startproc
 932              		@ args = 0, pretend = 0, frame = 0
 933              		@ frame_needed = 1, uses_anonymous_args = 0
 934              		@ link register save eliminated.
 935 0000 80B4     		push	{r7}
 936              	.LCFI23:
 937              		.cfi_def_cfa_offset 4
 938 0002 00AF     		add	r7, sp, #0
 939              		.cfi_offset 7, -4
 940              	.LCFI24:
 941              		.cfi_def_cfa_register 7
 644:.\Generated_Source\PSoC5/ADC_DelSig_1.c ****     /* Start the conversion */
 645:.\Generated_Source\PSoC5/ADC_DelSig_1.c ****     ADC_DelSig_1_DEC_CR_REG |= ADC_DelSig_1_DEC_START_CONV;  
 942              		.loc 1 645 0
 943 0004 44F60063 		movw	r3, #:lower16:1073761792
 944 0008 C4F20003 		movt	r3, #:upper16:1073761792
 945 000c 44F60062 		movw	r2, #:lower16:1073761792
 946 0010 C4F20002 		movt	r2, #:upper16:1073761792
 947 0014 1278     		ldrb	r2, [r2, #0]
ARM GAS  C:\Users\karunmj\AppData\Local\Temp\ccZ3DH5A.s 			page 29


 948 0016 D2B2     		uxtb	r2, r2
 949 0018 42F00102 		orr	r2, r2, #1
 950 001c D2B2     		uxtb	r2, r2
 951 001e 1A70     		strb	r2, [r3, #0]
 646:.\Generated_Source\PSoC5/ADC_DelSig_1.c **** }
 952              		.loc 1 646 0
 953 0020 BD46     		mov	sp, r7
 954 0022 80BC     		pop	{r7}
 955 0024 7047     		bx	lr
 956              		.cfi_endproc
 957              	.LFE9:
 958              		.size	ADC_DelSig_1_StartConvert, .-ADC_DelSig_1_StartConvert
 959 0026 00BF     		.section	.text.ADC_DelSig_1_StopConvert,"ax",%progbits
 960              		.align	2
 961              		.global	ADC_DelSig_1_StopConvert
 962              		.thumb
 963              		.thumb_func
 964              		.type	ADC_DelSig_1_StopConvert, %function
 965              	ADC_DelSig_1_StopConvert:
 966              	.LFB10:
 647:.\Generated_Source\PSoC5/ADC_DelSig_1.c **** 
 648:.\Generated_Source\PSoC5/ADC_DelSig_1.c **** 
 649:.\Generated_Source\PSoC5/ADC_DelSig_1.c **** /*******************************************************************************
 650:.\Generated_Source\PSoC5/ADC_DelSig_1.c **** * Function Name: ADC_DelSig_1_StopConvert
 651:.\Generated_Source\PSoC5/ADC_DelSig_1.c **** ********************************************************************************
 652:.\Generated_Source\PSoC5/ADC_DelSig_1.c **** *
 653:.\Generated_Source\PSoC5/ADC_DelSig_1.c **** * Summary:
 654:.\Generated_Source\PSoC5/ADC_DelSig_1.c **** *  Starts ADC conversion using the given mode.
 655:.\Generated_Source\PSoC5/ADC_DelSig_1.c **** *
 656:.\Generated_Source\PSoC5/ADC_DelSig_1.c **** * Parameters:  
 657:.\Generated_Source\PSoC5/ADC_DelSig_1.c **** *  void
 658:.\Generated_Source\PSoC5/ADC_DelSig_1.c **** *
 659:.\Generated_Source\PSoC5/ADC_DelSig_1.c **** * Return: 
 660:.\Generated_Source\PSoC5/ADC_DelSig_1.c **** *  void
 661:.\Generated_Source\PSoC5/ADC_DelSig_1.c **** *
 662:.\Generated_Source\PSoC5/ADC_DelSig_1.c **** * Global variables:
 663:.\Generated_Source\PSoC5/ADC_DelSig_1.c **** *  ADC_DelSig_1_convDone:  Modified when conversion is complete for single
 664:.\Generated_Source\PSoC5/ADC_DelSig_1.c **** *   sample mode with resolution is above 16.
 665:.\Generated_Source\PSoC5/ADC_DelSig_1.c **** *
 666:.\Generated_Source\PSoC5/ADC_DelSig_1.c **** *******************************************************************************/
 667:.\Generated_Source\PSoC5/ADC_DelSig_1.c **** void ADC_DelSig_1_StopConvert(void) 
 668:.\Generated_Source\PSoC5/ADC_DelSig_1.c **** {
 967              		.loc 1 668 0
 968              		.cfi_startproc
 969              		@ args = 0, pretend = 0, frame = 0
 970              		@ frame_needed = 1, uses_anonymous_args = 0
 971              		@ link register save eliminated.
 972 0000 80B4     		push	{r7}
 973              	.LCFI25:
 974              		.cfi_def_cfa_offset 4
 975 0002 00AF     		add	r7, sp, #0
 976              		.cfi_offset 7, -4
 977              	.LCFI26:
 978              		.cfi_def_cfa_register 7
 669:.\Generated_Source\PSoC5/ADC_DelSig_1.c ****     /* Stop all conversions */
 670:.\Generated_Source\PSoC5/ADC_DelSig_1.c ****     ADC_DelSig_1_DEC_CR_REG &= ~ADC_DelSig_1_DEC_START_CONV; 
 979              		.loc 1 670 0
ARM GAS  C:\Users\karunmj\AppData\Local\Temp\ccZ3DH5A.s 			page 30


 980 0004 44F60063 		movw	r3, #:lower16:1073761792
 981 0008 C4F20003 		movt	r3, #:upper16:1073761792
 982 000c 44F60062 		movw	r2, #:lower16:1073761792
 983 0010 C4F20002 		movt	r2, #:upper16:1073761792
 984 0014 1278     		ldrb	r2, [r2, #0]
 985 0016 D2B2     		uxtb	r2, r2
 986 0018 02F0FE02 		and	r2, r2, #254
 987 001c 1A70     		strb	r2, [r3, #0]
 671:.\Generated_Source\PSoC5/ADC_DelSig_1.c ****     
 672:.\Generated_Source\PSoC5/ADC_DelSig_1.c ****     /* Software flag for checking conversion complete or not. Will be used when
 673:.\Generated_Source\PSoC5/ADC_DelSig_1.c ****        resolution is above 16 bits and conversion mode is single sample */
 674:.\Generated_Source\PSoC5/ADC_DelSig_1.c ****     ADC_DelSig_1_convDone = 1u;
 988              		.loc 1 674 0
 989 001e 40F20003 		movw	r3, #:lower16:ADC_DelSig_1_convDone
 990 0022 C0F20003 		movt	r3, #:upper16:ADC_DelSig_1_convDone
 991 0026 4FF00102 		mov	r2, #1
 992 002a 1A70     		strb	r2, [r3, #0]
 675:.\Generated_Source\PSoC5/ADC_DelSig_1.c **** }
 993              		.loc 1 675 0
 994 002c BD46     		mov	sp, r7
 995 002e 80BC     		pop	{r7}
 996 0030 7047     		bx	lr
 997              		.cfi_endproc
 998              	.LFE10:
 999              		.size	ADC_DelSig_1_StopConvert, .-ADC_DelSig_1_StopConvert
 1000 0032 00BF     		.section	.text.ADC_DelSig_1_IsEndConversion,"ax",%progbits
 1001              		.align	2
 1002              		.global	ADC_DelSig_1_IsEndConversion
 1003              		.thumb
 1004              		.thumb_func
 1005              		.type	ADC_DelSig_1_IsEndConversion, %function
 1006              	ADC_DelSig_1_IsEndConversion:
 1007              	.LFB11:
 676:.\Generated_Source\PSoC5/ADC_DelSig_1.c **** 
 677:.\Generated_Source\PSoC5/ADC_DelSig_1.c **** 
 678:.\Generated_Source\PSoC5/ADC_DelSig_1.c **** /*******************************************************************************
 679:.\Generated_Source\PSoC5/ADC_DelSig_1.c **** * Function Name: ADC_DelSig_1_IsEndConversion
 680:.\Generated_Source\PSoC5/ADC_DelSig_1.c **** ********************************************************************************
 681:.\Generated_Source\PSoC5/ADC_DelSig_1.c **** *
 682:.\Generated_Source\PSoC5/ADC_DelSig_1.c **** * Summary:
 683:.\Generated_Source\PSoC5/ADC_DelSig_1.c **** *  Queries the ADC to see if conversion is complete
 684:.\Generated_Source\PSoC5/ADC_DelSig_1.c **** *
 685:.\Generated_Source\PSoC5/ADC_DelSig_1.c **** * Parameters:  
 686:.\Generated_Source\PSoC5/ADC_DelSig_1.c **** *  wMode:  Wait mode, 0 if return with answer immediately.
 687:.\Generated_Source\PSoC5/ADC_DelSig_1.c **** *                     1 if wait until conversion is complete, then return.
 688:.\Generated_Source\PSoC5/ADC_DelSig_1.c **** *
 689:.\Generated_Source\PSoC5/ADC_DelSig_1.c **** * Return: 
 690:.\Generated_Source\PSoC5/ADC_DelSig_1.c **** *  uint8 status:  0 =>  Conversion not complete.
 691:.\Generated_Source\PSoC5/ADC_DelSig_1.c **** *                 1 =>  Conversion complete.
 692:.\Generated_Source\PSoC5/ADC_DelSig_1.c **** *
 693:.\Generated_Source\PSoC5/ADC_DelSig_1.c **** * Global variables:
 694:.\Generated_Source\PSoC5/ADC_DelSig_1.c **** *  ADC_DelSig_1_convDone:  Used to check whether conversion is complete
 695:.\Generated_Source\PSoC5/ADC_DelSig_1.c **** *  or not for single sample mode with resolution is above 16
 696:.\Generated_Source\PSoC5/ADC_DelSig_1.c **** *
 697:.\Generated_Source\PSoC5/ADC_DelSig_1.c **** *******************************************************************************/
 698:.\Generated_Source\PSoC5/ADC_DelSig_1.c **** uint8 ADC_DelSig_1_IsEndConversion(uint8 wMode) 
 699:.\Generated_Source\PSoC5/ADC_DelSig_1.c **** {
ARM GAS  C:\Users\karunmj\AppData\Local\Temp\ccZ3DH5A.s 			page 31


 1008              		.loc 1 699 0
 1009              		.cfi_startproc
 1010              		@ args = 0, pretend = 0, frame = 16
 1011              		@ frame_needed = 1, uses_anonymous_args = 0
 1012              		@ link register save eliminated.
 1013 0000 80B4     		push	{r7}
 1014              	.LCFI27:
 1015              		.cfi_def_cfa_offset 4
 1016 0002 85B0     		sub	sp, sp, #20
 1017              	.LCFI28:
 1018              		.cfi_def_cfa_offset 24
 1019 0004 00AF     		add	r7, sp, #0
 1020              		.cfi_offset 7, -4
 1021              	.LCFI29:
 1022              		.cfi_def_cfa_register 7
 1023 0006 0346     		mov	r3, r0
 1024 0008 FB71     		strb	r3, [r7, #7]
 700:.\Generated_Source\PSoC5/ADC_DelSig_1.c ****     uint8 status;
 701:.\Generated_Source\PSoC5/ADC_DelSig_1.c ****         
 702:.\Generated_Source\PSoC5/ADC_DelSig_1.c ****     /* Check for stop convert if conversion mode is Single Sample with 
 703:.\Generated_Source\PSoC5/ADC_DelSig_1.c ****        resolution above 16 bit */
 704:.\Generated_Source\PSoC5/ADC_DelSig_1.c ****     if(ADC_DelSig_1_stopConversion == 1u)
 1025              		.loc 1 704 0
 1026 000a 40F20003 		movw	r3, #:lower16:ADC_DelSig_1_stopConversion
 1027 000e C0F20003 		movt	r3, #:upper16:ADC_DelSig_1_stopConversion
 1028 0012 1B78     		ldrb	r3, [r3, #0]
 1029 0014 DBB2     		uxtb	r3, r3
 1030 0016 012B     		cmp	r3, #1
 1031 0018 0CD1     		bne	.L44
 1032              	.L46:
 705:.\Generated_Source\PSoC5/ADC_DelSig_1.c ****     {
 706:.\Generated_Source\PSoC5/ADC_DelSig_1.c ****         do
 707:.\Generated_Source\PSoC5/ADC_DelSig_1.c ****         {
 708:.\Generated_Source\PSoC5/ADC_DelSig_1.c ****             status = ADC_DelSig_1_convDone;
 1033              		.loc 1 708 0
 1034 001a 40F20003 		movw	r3, #:lower16:ADC_DelSig_1_convDone
 1035 001e C0F20003 		movt	r3, #:upper16:ADC_DelSig_1_convDone
 1036 0022 1B78     		ldrb	r3, [r3, #0]
 1037 0024 FB73     		strb	r3, [r7, #15]
 709:.\Generated_Source\PSoC5/ADC_DelSig_1.c ****         } while((status != ADC_DelSig_1_DEC_CONV_DONE) && (wMode == ADC_DelSig_1_WAIT_FOR_RESULT));
 1038              		.loc 1 709 0
 1039 0026 FB7B     		ldrb	r3, [r7, #15]	@ zero_extendqisi2
 1040 0028 012B     		cmp	r3, #1
 1041 002a 12D0     		beq	.L47
 1042 002c FB79     		ldrb	r3, [r7, #7]	@ zero_extendqisi2
 1043 002e 002B     		cmp	r3, #0
 1044 0030 F3D0     		beq	.L46
 1045 0032 0EE0     		b	.L47
 1046              	.L44:
 710:.\Generated_Source\PSoC5/ADC_DelSig_1.c ****     }
 711:.\Generated_Source\PSoC5/ADC_DelSig_1.c ****     else
 712:.\Generated_Source\PSoC5/ADC_DelSig_1.c ****     {
 713:.\Generated_Source\PSoC5/ADC_DelSig_1.c ****         do 
 714:.\Generated_Source\PSoC5/ADC_DelSig_1.c ****         {
 715:.\Generated_Source\PSoC5/ADC_DelSig_1.c ****             status = ADC_DelSig_1_DEC_SR_REG & ADC_DelSig_1_DEC_CONV_DONE;
 1047              		.loc 1 715 0
 1048 0034 44F60163 		movw	r3, #:lower16:1073761793
ARM GAS  C:\Users\karunmj\AppData\Local\Temp\ccZ3DH5A.s 			page 32


 1049 0038 C4F20003 		movt	r3, #:upper16:1073761793
 1050 003c 1B78     		ldrb	r3, [r3, #0]
 1051 003e DBB2     		uxtb	r3, r3
 1052 0040 03F00103 		and	r3, r3, #1
 1053 0044 FB73     		strb	r3, [r7, #15]
 716:.\Generated_Source\PSoC5/ADC_DelSig_1.c ****         } while((status != ADC_DelSig_1_DEC_CONV_DONE) && (wMode == ADC_DelSig_1_WAIT_FOR_RESULT));
 1054              		.loc 1 716 0
 1055 0046 FB7B     		ldrb	r3, [r7, #15]	@ zero_extendqisi2
 1056 0048 012B     		cmp	r3, #1
 1057 004a 02D0     		beq	.L47
 1058 004c FB79     		ldrb	r3, [r7, #7]	@ zero_extendqisi2
 1059 004e 002B     		cmp	r3, #0
 1060 0050 F0D0     		beq	.L44
 1061              	.L47:
 717:.\Generated_Source\PSoC5/ADC_DelSig_1.c ****     }
 718:.\Generated_Source\PSoC5/ADC_DelSig_1.c ****     return(status);
 1062              		.loc 1 718 0
 1063 0052 FB7B     		ldrb	r3, [r7, #15]	@ zero_extendqisi2
 719:.\Generated_Source\PSoC5/ADC_DelSig_1.c **** }
 1064              		.loc 1 719 0
 1065 0054 1846     		mov	r0, r3
 1066 0056 07F11407 		add	r7, r7, #20
 1067 005a BD46     		mov	sp, r7
 1068 005c 80BC     		pop	{r7}
 1069 005e 7047     		bx	lr
 1070              		.cfi_endproc
 1071              	.LFE11:
 1072              		.size	ADC_DelSig_1_IsEndConversion, .-ADC_DelSig_1_IsEndConversion
 1073              		.section	.text.ADC_DelSig_1_GetResult8,"ax",%progbits
 1074              		.align	2
 1075              		.global	ADC_DelSig_1_GetResult8
 1076              		.thumb
 1077              		.thumb_func
 1078              		.type	ADC_DelSig_1_GetResult8, %function
 1079              	ADC_DelSig_1_GetResult8:
 1080              	.LFB12:
 720:.\Generated_Source\PSoC5/ADC_DelSig_1.c **** 
 721:.\Generated_Source\PSoC5/ADC_DelSig_1.c **** 
 722:.\Generated_Source\PSoC5/ADC_DelSig_1.c **** /*******************************************************************************
 723:.\Generated_Source\PSoC5/ADC_DelSig_1.c **** * Function Name: ADC_DelSig_1_GetResult8
 724:.\Generated_Source\PSoC5/ADC_DelSig_1.c **** ********************************************************************************
 725:.\Generated_Source\PSoC5/ADC_DelSig_1.c **** *
 726:.\Generated_Source\PSoC5/ADC_DelSig_1.c **** * Summary:
 727:.\Generated_Source\PSoC5/ADC_DelSig_1.c **** *  Returns an 8-bit result or the LSB of the last conversion.
 728:.\Generated_Source\PSoC5/ADC_DelSig_1.c **** *
 729:.\Generated_Source\PSoC5/ADC_DelSig_1.c **** * Parameters:  
 730:.\Generated_Source\PSoC5/ADC_DelSig_1.c **** *  void
 731:.\Generated_Source\PSoC5/ADC_DelSig_1.c **** *
 732:.\Generated_Source\PSoC5/ADC_DelSig_1.c **** * Return: 
 733:.\Generated_Source\PSoC5/ADC_DelSig_1.c **** *  int8:  ADC result.
 734:.\Generated_Source\PSoC5/ADC_DelSig_1.c **** *
 735:.\Generated_Source\PSoC5/ADC_DelSig_1.c **** *******************************************************************************/
 736:.\Generated_Source\PSoC5/ADC_DelSig_1.c **** int8 ADC_DelSig_1_GetResult8( void ) 
 737:.\Generated_Source\PSoC5/ADC_DelSig_1.c **** {
 1081              		.loc 1 737 0
 1082              		.cfi_startproc
 1083              		@ args = 0, pretend = 0, frame = 0
ARM GAS  C:\Users\karunmj\AppData\Local\Temp\ccZ3DH5A.s 			page 33


 1084              		@ frame_needed = 1, uses_anonymous_args = 0
 1085              		@ link register save eliminated.
 1086 0000 80B4     		push	{r7}
 1087              	.LCFI30:
 1088              		.cfi_def_cfa_offset 4
 1089 0002 00AF     		add	r7, sp, #0
 1090              		.cfi_offset 7, -4
 1091              	.LCFI31:
 1092              		.cfi_def_cfa_register 7
 738:.\Generated_Source\PSoC5/ADC_DelSig_1.c ****      return( ADC_DelSig_1_DEC_SAMP_REG );
 1093              		.loc 1 738 0
 1094 0004 44F61063 		movw	r3, #:lower16:1073761808
 1095 0008 C4F20003 		movt	r3, #:upper16:1073761808
 1096 000c 1B78     		ldrb	r3, [r3, #0]
 1097 000e DBB2     		uxtb	r3, r3
 1098 0010 5BB2     		sxtb	r3, r3
 739:.\Generated_Source\PSoC5/ADC_DelSig_1.c **** }
 1099              		.loc 1 739 0
 1100 0012 1846     		mov	r0, r3
 1101 0014 BD46     		mov	sp, r7
 1102 0016 80BC     		pop	{r7}
 1103 0018 7047     		bx	lr
 1104              		.cfi_endproc
 1105              	.LFE12:
 1106              		.size	ADC_DelSig_1_GetResult8, .-ADC_DelSig_1_GetResult8
 1107 001a 00BF     		.section	.text.ADC_DelSig_1_GetResult16,"ax",%progbits
 1108              		.align	2
 1109              		.global	ADC_DelSig_1_GetResult16
 1110              		.thumb
 1111              		.thumb_func
 1112              		.type	ADC_DelSig_1_GetResult16, %function
 1113              	ADC_DelSig_1_GetResult16:
 1114              	.LFB13:
 740:.\Generated_Source\PSoC5/ADC_DelSig_1.c **** 
 741:.\Generated_Source\PSoC5/ADC_DelSig_1.c **** 
 742:.\Generated_Source\PSoC5/ADC_DelSig_1.c **** /*******************************************************************************
 743:.\Generated_Source\PSoC5/ADC_DelSig_1.c **** * Function Name: ADC_DelSig_1_GetResult16
 744:.\Generated_Source\PSoC5/ADC_DelSig_1.c **** ********************************************************************************
 745:.\Generated_Source\PSoC5/ADC_DelSig_1.c **** *
 746:.\Generated_Source\PSoC5/ADC_DelSig_1.c **** * Summary:
 747:.\Generated_Source\PSoC5/ADC_DelSig_1.c **** *  Returns a 16-bit result from the last ADC conversion.
 748:.\Generated_Source\PSoC5/ADC_DelSig_1.c **** *
 749:.\Generated_Source\PSoC5/ADC_DelSig_1.c **** * Parameters:  
 750:.\Generated_Source\PSoC5/ADC_DelSig_1.c **** *   void
 751:.\Generated_Source\PSoC5/ADC_DelSig_1.c **** *
 752:.\Generated_Source\PSoC5/ADC_DelSig_1.c **** * Return: 
 753:.\Generated_Source\PSoC5/ADC_DelSig_1.c **** *  int16:  ADC result.
 754:.\Generated_Source\PSoC5/ADC_DelSig_1.c **** *
 755:.\Generated_Source\PSoC5/ADC_DelSig_1.c **** *******************************************************************************/
 756:.\Generated_Source\PSoC5/ADC_DelSig_1.c **** int16 ADC_DelSig_1_GetResult16(void) 
 757:.\Generated_Source\PSoC5/ADC_DelSig_1.c **** {
 1115              		.loc 1 757 0
 1116              		.cfi_startproc
 1117              		@ args = 0, pretend = 0, frame = 8
 1118              		@ frame_needed = 1, uses_anonymous_args = 0
 1119              		@ link register save eliminated.
 1120 0000 80B4     		push	{r7}
ARM GAS  C:\Users\karunmj\AppData\Local\Temp\ccZ3DH5A.s 			page 34


 1121              	.LCFI32:
 1122              		.cfi_def_cfa_offset 4
 1123 0002 83B0     		sub	sp, sp, #12
 1124              	.LCFI33:
 1125              		.cfi_def_cfa_offset 16
 1126 0004 00AF     		add	r7, sp, #0
 1127              		.cfi_offset 7, -4
 1128              	.LCFI34:
 1129              		.cfi_def_cfa_register 7
 758:.\Generated_Source\PSoC5/ADC_DelSig_1.c ****     uint16 result;
 759:.\Generated_Source\PSoC5/ADC_DelSig_1.c ****     
 760:.\Generated_Source\PSoC5/ADC_DelSig_1.c ****     #if (CY_PSOC3)
 761:.\Generated_Source\PSoC5/ADC_DelSig_1.c ****         result = ADC_DelSig_1_DEC_SAMPM_REG ;
 762:.\Generated_Source\PSoC5/ADC_DelSig_1.c ****         result = (result << 8 ) | ADC_DelSig_1_DEC_SAMP_REG;
 763:.\Generated_Source\PSoC5/ADC_DelSig_1.c ****     #else
 764:.\Generated_Source\PSoC5/ADC_DelSig_1.c ****         result = (CY_GET_REG16(ADC_DelSig_1_DEC_SAMP_PTR));
 1130              		.loc 1 764 0
 1131 0006 44F61063 		movw	r3, #:lower16:1073761808
 1132 000a C4F20003 		movt	r3, #:upper16:1073761808
 1133 000e 1B88     		ldrh	r3, [r3, #0]	@ movhi
 1134 0010 FB80     		strh	r3, [r7, #6]	@ movhi
 765:.\Generated_Source\PSoC5/ADC_DelSig_1.c ****     #endif /* CY_PSOC3 */
 766:.\Generated_Source\PSoC5/ADC_DelSig_1.c ****     
 767:.\Generated_Source\PSoC5/ADC_DelSig_1.c ****     return result;
 1135              		.loc 1 767 0
 1136 0012 FB88     		ldrh	r3, [r7, #6]
 1137 0014 1BB2     		sxth	r3, r3
 768:.\Generated_Source\PSoC5/ADC_DelSig_1.c **** }
 1138              		.loc 1 768 0
 1139 0016 1846     		mov	r0, r3
 1140 0018 07F10C07 		add	r7, r7, #12
 1141 001c BD46     		mov	sp, r7
 1142 001e 80BC     		pop	{r7}
 1143 0020 7047     		bx	lr
 1144              		.cfi_endproc
 1145              	.LFE13:
 1146              		.size	ADC_DelSig_1_GetResult16, .-ADC_DelSig_1_GetResult16
 1147 0022 00BF     		.section	.text.ADC_DelSig_1_GetResult32,"ax",%progbits
 1148              		.align	2
 1149              		.global	ADC_DelSig_1_GetResult32
 1150              		.thumb
 1151              		.thumb_func
 1152              		.type	ADC_DelSig_1_GetResult32, %function
 1153              	ADC_DelSig_1_GetResult32:
 1154              	.LFB14:
 769:.\Generated_Source\PSoC5/ADC_DelSig_1.c **** 
 770:.\Generated_Source\PSoC5/ADC_DelSig_1.c **** 
 771:.\Generated_Source\PSoC5/ADC_DelSig_1.c **** /*******************************************************************************
 772:.\Generated_Source\PSoC5/ADC_DelSig_1.c **** * Function Name: ADC_DelSig_1_GetResult32
 773:.\Generated_Source\PSoC5/ADC_DelSig_1.c **** ********************************************************************************
 774:.\Generated_Source\PSoC5/ADC_DelSig_1.c **** *
 775:.\Generated_Source\PSoC5/ADC_DelSig_1.c **** * Summary:
 776:.\Generated_Source\PSoC5/ADC_DelSig_1.c **** *  Returns an 32-bit result from ADC
 777:.\Generated_Source\PSoC5/ADC_DelSig_1.c **** *
 778:.\Generated_Source\PSoC5/ADC_DelSig_1.c **** * Parameters:  
 779:.\Generated_Source\PSoC5/ADC_DelSig_1.c **** *  void
 780:.\Generated_Source\PSoC5/ADC_DelSig_1.c **** *
ARM GAS  C:\Users\karunmj\AppData\Local\Temp\ccZ3DH5A.s 			page 35


 781:.\Generated_Source\PSoC5/ADC_DelSig_1.c **** * Return: 
 782:.\Generated_Source\PSoC5/ADC_DelSig_1.c **** *  int32:  ADC result.
 783:.\Generated_Source\PSoC5/ADC_DelSig_1.c **** *
 784:.\Generated_Source\PSoC5/ADC_DelSig_1.c **** *******************************************************************************/
 785:.\Generated_Source\PSoC5/ADC_DelSig_1.c **** int32 ADC_DelSig_1_GetResult32(void) 
 786:.\Generated_Source\PSoC5/ADC_DelSig_1.c **** {
 1155              		.loc 1 786 0
 1156              		.cfi_startproc
 1157              		@ args = 0, pretend = 0, frame = 8
 1158              		@ frame_needed = 1, uses_anonymous_args = 0
 1159              		@ link register save eliminated.
 1160 0000 80B4     		push	{r7}
 1161              	.LCFI35:
 1162              		.cfi_def_cfa_offset 4
 1163 0002 83B0     		sub	sp, sp, #12
 1164              	.LCFI36:
 1165              		.cfi_def_cfa_offset 16
 1166 0004 00AF     		add	r7, sp, #0
 1167              		.cfi_offset 7, -4
 1168              	.LCFI37:
 1169              		.cfi_def_cfa_register 7
 787:.\Generated_Source\PSoC5/ADC_DelSig_1.c ****     uint32 result;
 788:.\Generated_Source\PSoC5/ADC_DelSig_1.c **** 
 789:.\Generated_Source\PSoC5/ADC_DelSig_1.c ****     #if (CY_PSOC3)
 790:.\Generated_Source\PSoC5/ADC_DelSig_1.c ****         /* to make upper bits fo result to 0 */
 791:.\Generated_Source\PSoC5/ADC_DelSig_1.c ****         result = (int8) (0xff & ADC_DelSig_1_DEC_SAMPH_REG); 
 792:.\Generated_Source\PSoC5/ADC_DelSig_1.c ****         result = (result << 8) | ADC_DelSig_1_DEC_SAMPM_REG;
 793:.\Generated_Source\PSoC5/ADC_DelSig_1.c ****         result = (result << 8) | ADC_DelSig_1_DEC_SAMP_REG;
 794:.\Generated_Source\PSoC5/ADC_DelSig_1.c ****     #else
 795:.\Generated_Source\PSoC5/ADC_DelSig_1.c ****         result = CY_GET_REG16(ADC_DelSig_1_DEC_SAMPH_PTR);
 1170              		.loc 1 795 0
 1171 0006 44F61263 		movw	r3, #:lower16:1073761810
 1172 000a C4F20003 		movt	r3, #:upper16:1073761810
 1173 000e 1B88     		ldrh	r3, [r3, #0]	@ movhi
 1174 0010 9BB2     		uxth	r3, r3
 1175 0012 7B60     		str	r3, [r7, #4]
 796:.\Generated_Source\PSoC5/ADC_DelSig_1.c ****         result = (result << 16) | (CY_GET_REG16(ADC_DelSig_1_DEC_SAMP_PTR));
 1176              		.loc 1 796 0
 1177 0014 7B68     		ldr	r3, [r7, #4]
 1178 0016 4FEA0342 		lsl	r2, r3, #16
 1179 001a 44F61063 		movw	r3, #:lower16:1073761808
 1180 001e C4F20003 		movt	r3, #:upper16:1073761808
 1181 0022 1B88     		ldrh	r3, [r3, #0]	@ movhi
 1182 0024 9BB2     		uxth	r3, r3
 1183 0026 42EA0303 		orr	r3, r2, r3
 1184 002a 7B60     		str	r3, [r7, #4]
 797:.\Generated_Source\PSoC5/ADC_DelSig_1.c ****     #endif /* CY_PSOC3 */
 798:.\Generated_Source\PSoC5/ADC_DelSig_1.c ****     
 799:.\Generated_Source\PSoC5/ADC_DelSig_1.c ****     return result;
 1185              		.loc 1 799 0
 1186 002c 7B68     		ldr	r3, [r7, #4]
 800:.\Generated_Source\PSoC5/ADC_DelSig_1.c **** }
 1187              		.loc 1 800 0
 1188 002e 1846     		mov	r0, r3
 1189 0030 07F10C07 		add	r7, r7, #12
 1190 0034 BD46     		mov	sp, r7
 1191 0036 80BC     		pop	{r7}
ARM GAS  C:\Users\karunmj\AppData\Local\Temp\ccZ3DH5A.s 			page 36


 1192 0038 7047     		bx	lr
 1193              		.cfi_endproc
 1194              	.LFE14:
 1195              		.size	ADC_DelSig_1_GetResult32, .-ADC_DelSig_1_GetResult32
 1196 003a 00BF     		.section	.text.ADC_DelSig_1_SetOffset,"ax",%progbits
 1197              		.align	2
 1198              		.global	ADC_DelSig_1_SetOffset
 1199              		.thumb
 1200              		.thumb_func
 1201              		.type	ADC_DelSig_1_SetOffset, %function
 1202              	ADC_DelSig_1_SetOffset:
 1203              	.LFB15:
 801:.\Generated_Source\PSoC5/ADC_DelSig_1.c **** 
 802:.\Generated_Source\PSoC5/ADC_DelSig_1.c **** 
 803:.\Generated_Source\PSoC5/ADC_DelSig_1.c **** /*******************************************************************************
 804:.\Generated_Source\PSoC5/ADC_DelSig_1.c **** * Function Name: ADC_DelSig_1_SetOffset
 805:.\Generated_Source\PSoC5/ADC_DelSig_1.c **** ********************************************************************************
 806:.\Generated_Source\PSoC5/ADC_DelSig_1.c **** *
 807:.\Generated_Source\PSoC5/ADC_DelSig_1.c **** * Summary:
 808:.\Generated_Source\PSoC5/ADC_DelSig_1.c **** *  This function sets the offset for voltage readings.
 809:.\Generated_Source\PSoC5/ADC_DelSig_1.c **** *
 810:.\Generated_Source\PSoC5/ADC_DelSig_1.c **** * Parameters:  
 811:.\Generated_Source\PSoC5/ADC_DelSig_1.c **** *  int32:  offset  Offset in counts
 812:.\Generated_Source\PSoC5/ADC_DelSig_1.c **** *
 813:.\Generated_Source\PSoC5/ADC_DelSig_1.c **** * Return: 
 814:.\Generated_Source\PSoC5/ADC_DelSig_1.c **** *  void
 815:.\Generated_Source\PSoC5/ADC_DelSig_1.c **** *
 816:.\Generated_Source\PSoC5/ADC_DelSig_1.c **** * Global variables:
 817:.\Generated_Source\PSoC5/ADC_DelSig_1.c **** *  ADC_DelSig_1_Offset:  Modified to set the user provided offset. This 
 818:.\Generated_Source\PSoC5/ADC_DelSig_1.c **** *  variable is used for offset calibration purpose.
 819:.\Generated_Source\PSoC5/ADC_DelSig_1.c **** *  Affects the ADC_DelSig_1_CountsTo_Volts, 
 820:.\Generated_Source\PSoC5/ADC_DelSig_1.c **** *  ADC_DelSig_1_CountsTo_mVolts, ADC_DelSig_1_CountsTo_uVolts functions 
 821:.\Generated_Source\PSoC5/ADC_DelSig_1.c **** *  by subtracting the given offset. 
 822:.\Generated_Source\PSoC5/ADC_DelSig_1.c **** *
 823:.\Generated_Source\PSoC5/ADC_DelSig_1.c **** *******************************************************************************/
 824:.\Generated_Source\PSoC5/ADC_DelSig_1.c **** void ADC_DelSig_1_SetOffset(int32 offset) 
 825:.\Generated_Source\PSoC5/ADC_DelSig_1.c **** {
 1204              		.loc 1 825 0
 1205              		.cfi_startproc
 1206              		@ args = 0, pretend = 0, frame = 8
 1207              		@ frame_needed = 1, uses_anonymous_args = 0
 1208              		@ link register save eliminated.
 1209 0000 80B4     		push	{r7}
 1210              	.LCFI38:
 1211              		.cfi_def_cfa_offset 4
 1212 0002 83B0     		sub	sp, sp, #12
 1213              	.LCFI39:
 1214              		.cfi_def_cfa_offset 16
 1215 0004 00AF     		add	r7, sp, #0
 1216              		.cfi_offset 7, -4
 1217              	.LCFI40:
 1218              		.cfi_def_cfa_register 7
 1219 0006 7860     		str	r0, [r7, #4]
 826:.\Generated_Source\PSoC5/ADC_DelSig_1.c ****  
 827:.\Generated_Source\PSoC5/ADC_DelSig_1.c ****     ADC_DelSig_1_Offset = offset;
 1220              		.loc 1 827 0
 1221 0008 40F20003 		movw	r3, #:lower16:ADC_DelSig_1_Offset
ARM GAS  C:\Users\karunmj\AppData\Local\Temp\ccZ3DH5A.s 			page 37


 1222 000c C0F20003 		movt	r3, #:upper16:ADC_DelSig_1_Offset
 1223 0010 7A68     		ldr	r2, [r7, #4]
 1224 0012 1A60     		str	r2, [r3, #0]
 828:.\Generated_Source\PSoC5/ADC_DelSig_1.c **** }
 1225              		.loc 1 828 0
 1226 0014 07F10C07 		add	r7, r7, #12
 1227 0018 BD46     		mov	sp, r7
 1228 001a 80BC     		pop	{r7}
 1229 001c 7047     		bx	lr
 1230              		.cfi_endproc
 1231              	.LFE15:
 1232              		.size	ADC_DelSig_1_SetOffset, .-ADC_DelSig_1_SetOffset
 1233 001e 00BF     		.section	.text.ADC_DelSig_1_SetGain,"ax",%progbits
 1234              		.align	2
 1235              		.global	ADC_DelSig_1_SetGain
 1236              		.thumb
 1237              		.thumb_func
 1238              		.type	ADC_DelSig_1_SetGain, %function
 1239              	ADC_DelSig_1_SetGain:
 1240              	.LFB16:
 829:.\Generated_Source\PSoC5/ADC_DelSig_1.c **** 
 830:.\Generated_Source\PSoC5/ADC_DelSig_1.c **** 
 831:.\Generated_Source\PSoC5/ADC_DelSig_1.c **** /*******************************************************************************
 832:.\Generated_Source\PSoC5/ADC_DelSig_1.c **** * Function Name: ADC_DelSig_1_SetGain
 833:.\Generated_Source\PSoC5/ADC_DelSig_1.c **** ********************************************************************************
 834:.\Generated_Source\PSoC5/ADC_DelSig_1.c **** *
 835:.\Generated_Source\PSoC5/ADC_DelSig_1.c **** * Summary:
 836:.\Generated_Source\PSoC5/ADC_DelSig_1.c **** *  This function sets the ADC gain in counts per volt.
 837:.\Generated_Source\PSoC5/ADC_DelSig_1.c **** *
 838:.\Generated_Source\PSoC5/ADC_DelSig_1.c **** * Parameters:  
 839:.\Generated_Source\PSoC5/ADC_DelSig_1.c **** *  int32:  offset  Offset in counts
 840:.\Generated_Source\PSoC5/ADC_DelSig_1.c **** *
 841:.\Generated_Source\PSoC5/ADC_DelSig_1.c **** * Return: 
 842:.\Generated_Source\PSoC5/ADC_DelSig_1.c **** *  void 
 843:.\Generated_Source\PSoC5/ADC_DelSig_1.c **** *
 844:.\Generated_Source\PSoC5/ADC_DelSig_1.c **** * Global variables:
 845:.\Generated_Source\PSoC5/ADC_DelSig_1.c **** *  ADC_DelSig_1_CountsPerVolt:  modified to set the ADC gain in counts 
 846:.\Generated_Source\PSoC5/ADC_DelSig_1.c **** *   per volt.
 847:.\Generated_Source\PSoC5/ADC_DelSig_1.c **** *
 848:.\Generated_Source\PSoC5/ADC_DelSig_1.c **** *******************************************************************************/
 849:.\Generated_Source\PSoC5/ADC_DelSig_1.c **** void ADC_DelSig_1_SetGain(int32 adcGain) 
 850:.\Generated_Source\PSoC5/ADC_DelSig_1.c **** {
 1241              		.loc 1 850 0
 1242              		.cfi_startproc
 1243              		@ args = 0, pretend = 0, frame = 8
 1244              		@ frame_needed = 1, uses_anonymous_args = 0
 1245              		@ link register save eliminated.
 1246 0000 80B4     		push	{r7}
 1247              	.LCFI41:
 1248              		.cfi_def_cfa_offset 4
 1249 0002 83B0     		sub	sp, sp, #12
 1250              	.LCFI42:
 1251              		.cfi_def_cfa_offset 16
 1252 0004 00AF     		add	r7, sp, #0
 1253              		.cfi_offset 7, -4
 1254              	.LCFI43:
 1255              		.cfi_def_cfa_register 7
ARM GAS  C:\Users\karunmj\AppData\Local\Temp\ccZ3DH5A.s 			page 38


 1256 0006 7860     		str	r0, [r7, #4]
 851:.\Generated_Source\PSoC5/ADC_DelSig_1.c ****  
 852:.\Generated_Source\PSoC5/ADC_DelSig_1.c ****     ADC_DelSig_1_CountsPerVolt = adcGain;
 1257              		.loc 1 852 0
 1258 0008 40F20003 		movw	r3, #:lower16:ADC_DelSig_1_CountsPerVolt
 1259 000c C0F20003 		movt	r3, #:upper16:ADC_DelSig_1_CountsPerVolt
 1260 0010 7A68     		ldr	r2, [r7, #4]
 1261 0012 1A60     		str	r2, [r3, #0]
 853:.\Generated_Source\PSoC5/ADC_DelSig_1.c **** }
 1262              		.loc 1 853 0
 1263 0014 07F10C07 		add	r7, r7, #12
 1264 0018 BD46     		mov	sp, r7
 1265 001a 80BC     		pop	{r7}
 1266 001c 7047     		bx	lr
 1267              		.cfi_endproc
 1268              	.LFE16:
 1269              		.size	ADC_DelSig_1_SetGain, .-ADC_DelSig_1_SetGain
 1270 001e 00BF     		.section	.text.ADC_DelSig_1_CountsTo_mVolts,"ax",%progbits
 1271              		.align	2
 1272              		.global	ADC_DelSig_1_CountsTo_mVolts
 1273              		.thumb
 1274              		.thumb_func
 1275              		.type	ADC_DelSig_1_CountsTo_mVolts, %function
 1276              	ADC_DelSig_1_CountsTo_mVolts:
 1277              	.LFB17:
 854:.\Generated_Source\PSoC5/ADC_DelSig_1.c **** 
 855:.\Generated_Source\PSoC5/ADC_DelSig_1.c **** 
 856:.\Generated_Source\PSoC5/ADC_DelSig_1.c **** /*******************************************************************************
 857:.\Generated_Source\PSoC5/ADC_DelSig_1.c **** * Function Name: ADC_DelSig_1_CountsTo_mVolts
 858:.\Generated_Source\PSoC5/ADC_DelSig_1.c **** ********************************************************************************
 859:.\Generated_Source\PSoC5/ADC_DelSig_1.c **** *
 860:.\Generated_Source\PSoC5/ADC_DelSig_1.c **** * Summary:
 861:.\Generated_Source\PSoC5/ADC_DelSig_1.c **** *  This function converts ADC counts to mVolts.
 862:.\Generated_Source\PSoC5/ADC_DelSig_1.c **** *
 863:.\Generated_Source\PSoC5/ADC_DelSig_1.c **** * Parameters:  
 864:.\Generated_Source\PSoC5/ADC_DelSig_1.c **** *  int32:  adcCounts   Reading from ADC.
 865:.\Generated_Source\PSoC5/ADC_DelSig_1.c **** *
 866:.\Generated_Source\PSoC5/ADC_DelSig_1.c **** * Return: 
 867:.\Generated_Source\PSoC5/ADC_DelSig_1.c **** *  int32:  Result in mVolts
 868:.\Generated_Source\PSoC5/ADC_DelSig_1.c **** *
 869:.\Generated_Source\PSoC5/ADC_DelSig_1.c **** * Global variables:
 870:.\Generated_Source\PSoC5/ADC_DelSig_1.c **** *  ADC_DelSig_1_CountsPerVolt:  used to convert ADC counts to mVolts.
 871:.\Generated_Source\PSoC5/ADC_DelSig_1.c **** *  ADC_DelSig_1_Offset:  Used as the offset while converting ADC counts 
 872:.\Generated_Source\PSoC5/ADC_DelSig_1.c **** *   to mVolts.
 873:.\Generated_Source\PSoC5/ADC_DelSig_1.c **** *
 874:.\Generated_Source\PSoC5/ADC_DelSig_1.c **** *******************************************************************************/
 875:.\Generated_Source\PSoC5/ADC_DelSig_1.c **** int16 ADC_DelSig_1_CountsTo_mVolts( int32 adcCounts) 
 876:.\Generated_Source\PSoC5/ADC_DelSig_1.c **** {
 1278              		.loc 1 876 0
 1279              		.cfi_startproc
 1280              		@ args = 0, pretend = 0, frame = 24
 1281              		@ frame_needed = 1, uses_anonymous_args = 0
 1282              		@ link register save eliminated.
 1283 0000 80B4     		push	{r7}
 1284              	.LCFI44:
 1285              		.cfi_def_cfa_offset 4
 1286 0002 87B0     		sub	sp, sp, #28
ARM GAS  C:\Users\karunmj\AppData\Local\Temp\ccZ3DH5A.s 			page 39


 1287              	.LCFI45:
 1288              		.cfi_def_cfa_offset 32
 1289 0004 00AF     		add	r7, sp, #0
 1290              		.cfi_offset 7, -4
 1291              	.LCFI46:
 1292              		.cfi_def_cfa_register 7
 1293 0006 7860     		str	r0, [r7, #4]
 877:.\Generated_Source\PSoC5/ADC_DelSig_1.c **** 
 878:.\Generated_Source\PSoC5/ADC_DelSig_1.c ****     int32 mVolts = 0;
 1294              		.loc 1 878 0
 1295 0008 4FF00003 		mov	r3, #0
 1296 000c BB60     		str	r3, [r7, #8]
 879:.\Generated_Source\PSoC5/ADC_DelSig_1.c ****     int32 A, B;
 880:.\Generated_Source\PSoC5/ADC_DelSig_1.c **** 	uint8 resolution = 16;
 1297              		.loc 1 880 0
 1298 000e 4FF01003 		mov	r3, #16
 1299 0012 FB75     		strb	r3, [r7, #23]
 881:.\Generated_Source\PSoC5/ADC_DelSig_1.c **** 
 882:.\Generated_Source\PSoC5/ADC_DelSig_1.c ****     /* Subtract ADC offset */
 883:.\Generated_Source\PSoC5/ADC_DelSig_1.c ****     adcCounts -= ADC_DelSig_1_Offset;
 1300              		.loc 1 883 0
 1301 0014 40F20003 		movw	r3, #:lower16:ADC_DelSig_1_Offset
 1302 0018 C0F20003 		movt	r3, #:upper16:ADC_DelSig_1_Offset
 1303 001c 1B68     		ldr	r3, [r3, #0]
 1304 001e 7A68     		ldr	r2, [r7, #4]
 1305 0020 C3EB0203 		rsb	r3, r3, r2
 1306 0024 7B60     		str	r3, [r7, #4]
 884:.\Generated_Source\PSoC5/ADC_DelSig_1.c **** 	
 885:.\Generated_Source\PSoC5/ADC_DelSig_1.c **** 	/* Set the resolution based on the configuration */
 886:.\Generated_Source\PSoC5/ADC_DelSig_1.c **** 	if (ADC_DelSig_1_Config == ADC_DelSig_1_CFG1)
 1307              		.loc 1 886 0
 1308 0026 40F20003 		movw	r3, #:lower16:ADC_DelSig_1_Config
 1309 002a C0F20003 		movt	r3, #:upper16:ADC_DelSig_1_Config
 1310 002e 1B78     		ldrb	r3, [r3, #0]
 1311 0030 DBB2     		uxtb	r3, r3
 1312 0032 012B     		cmp	r3, #1
 1313 0034 03D1     		bne	.L60
 887:.\Generated_Source\PSoC5/ADC_DelSig_1.c **** 	{
 888:.\Generated_Source\PSoC5/ADC_DelSig_1.c ****         resolution = ADC_DelSig_1_CFG1_RESOLUTION;
 1314              		.loc 1 888 0
 1315 0036 4FF01003 		mov	r3, #16
 1316 003a FB75     		strb	r3, [r7, #23]
 1317 003c 1AE0     		b	.L61
 1318              	.L60:
 889:.\Generated_Source\PSoC5/ADC_DelSig_1.c **** 	}	
 890:.\Generated_Source\PSoC5/ADC_DelSig_1.c **** 	else if (ADC_DelSig_1_Config == ADC_DelSig_1_CFG2)
 1319              		.loc 1 890 0
 1320 003e 40F20003 		movw	r3, #:lower16:ADC_DelSig_1_Config
 1321 0042 C0F20003 		movt	r3, #:upper16:ADC_DelSig_1_Config
 1322 0046 1B78     		ldrb	r3, [r3, #0]
 1323 0048 DBB2     		uxtb	r3, r3
 1324 004a 022B     		cmp	r3, #2
 1325 004c 03D1     		bne	.L62
 891:.\Generated_Source\PSoC5/ADC_DelSig_1.c **** 	{
 892:.\Generated_Source\PSoC5/ADC_DelSig_1.c **** 	    resolution = ADC_DelSig_1_CFG2_RESOLUTION;
 1326              		.loc 1 892 0
 1327 004e 4FF01003 		mov	r3, #16
ARM GAS  C:\Users\karunmj\AppData\Local\Temp\ccZ3DH5A.s 			page 40


 1328 0052 FB75     		strb	r3, [r7, #23]
 1329 0054 0EE0     		b	.L61
 1330              	.L62:
 893:.\Generated_Source\PSoC5/ADC_DelSig_1.c **** 	}
 894:.\Generated_Source\PSoC5/ADC_DelSig_1.c **** 	else if (ADC_DelSig_1_Config == ADC_DelSig_1_CFG3)
 1331              		.loc 1 894 0
 1332 0056 40F20003 		movw	r3, #:lower16:ADC_DelSig_1_Config
 1333 005a C0F20003 		movt	r3, #:upper16:ADC_DelSig_1_Config
 1334 005e 1B78     		ldrb	r3, [r3, #0]
 1335 0060 DBB2     		uxtb	r3, r3
 1336 0062 032B     		cmp	r3, #3
 1337 0064 03D1     		bne	.L63
 895:.\Generated_Source\PSoC5/ADC_DelSig_1.c **** 	{
 896:.\Generated_Source\PSoC5/ADC_DelSig_1.c **** 	    resolution = ADC_DelSig_1_CFG3_RESOLUTION;
 1338              		.loc 1 896 0
 1339 0066 4FF01003 		mov	r3, #16
 1340 006a FB75     		strb	r3, [r7, #23]
 1341 006c 02E0     		b	.L61
 1342              	.L63:
 897:.\Generated_Source\PSoC5/ADC_DelSig_1.c **** 	}
 898:.\Generated_Source\PSoC5/ADC_DelSig_1.c **** 	else
 899:.\Generated_Source\PSoC5/ADC_DelSig_1.c **** 	{
 900:.\Generated_Source\PSoC5/ADC_DelSig_1.c **** 	    resolution = ADC_DelSig_1_CFG4_RESOLUTION;
 1343              		.loc 1 900 0
 1344 006e 4FF01203 		mov	r3, #18
 1345 0072 FB75     		strb	r3, [r7, #23]
 1346              	.L61:
 901:.\Generated_Source\PSoC5/ADC_DelSig_1.c **** 	}
 902:.\Generated_Source\PSoC5/ADC_DelSig_1.c **** 	
 903:.\Generated_Source\PSoC5/ADC_DelSig_1.c ****     if(resolution < 17)
 1347              		.loc 1 903 0
 1348 0074 FB7D     		ldrb	r3, [r7, #23]	@ zero_extendqisi2
 1349 0076 102B     		cmp	r3, #16
 1350 0078 06D8     		bhi	.L64
 904:.\Generated_Source\PSoC5/ADC_DelSig_1.c ****     {
 905:.\Generated_Source\PSoC5/ADC_DelSig_1.c ****         A = 1000;
 1351              		.loc 1 905 0
 1352 007a 4FF47A73 		mov	r3, #1000
 1353 007e FB60     		str	r3, [r7, #12]
 906:.\Generated_Source\PSoC5/ADC_DelSig_1.c ****         B = 1;
 1354              		.loc 1 906 0
 1355 0080 4FF00103 		mov	r3, #1
 1356 0084 3B61     		str	r3, [r7, #16]
 1357 0086 05E0     		b	.L65
 1358              	.L64:
 907:.\Generated_Source\PSoC5/ADC_DelSig_1.c ****     }
 908:.\Generated_Source\PSoC5/ADC_DelSig_1.c ****     else
 909:.\Generated_Source\PSoC5/ADC_DelSig_1.c ****     {
 910:.\Generated_Source\PSoC5/ADC_DelSig_1.c ****         A = 100;
 1359              		.loc 1 910 0
 1360 0088 4FF06403 		mov	r3, #100
 1361 008c FB60     		str	r3, [r7, #12]
 911:.\Generated_Source\PSoC5/ADC_DelSig_1.c ****         B = 10;
 1362              		.loc 1 911 0
 1363 008e 4FF00A03 		mov	r3, #10
 1364 0092 3B61     		str	r3, [r7, #16]
 1365              	.L65:
ARM GAS  C:\Users\karunmj\AppData\Local\Temp\ccZ3DH5A.s 			page 41


 912:.\Generated_Source\PSoC5/ADC_DelSig_1.c ****     }
 913:.\Generated_Source\PSoC5/ADC_DelSig_1.c **** 
 914:.\Generated_Source\PSoC5/ADC_DelSig_1.c ****     mVolts = ((A * adcCounts) / ((int32)ADC_DelSig_1_CountsPerVolt/B)) ;   
 1366              		.loc 1 914 0
 1367 0094 FB68     		ldr	r3, [r7, #12]
 1368 0096 7A68     		ldr	r2, [r7, #4]
 1369 0098 02FB03F2 		mul	r2, r2, r3
 1370 009c 40F20003 		movw	r3, #:lower16:ADC_DelSig_1_CountsPerVolt
 1371 00a0 C0F20003 		movt	r3, #:upper16:ADC_DelSig_1_CountsPerVolt
 1372 00a4 1968     		ldr	r1, [r3, #0]
 1373 00a6 3B69     		ldr	r3, [r7, #16]
 1374 00a8 91FBF3F3 		sdiv	r3, r1, r3
 1375 00ac 92FBF3F3 		sdiv	r3, r2, r3
 1376 00b0 BB60     		str	r3, [r7, #8]
 915:.\Generated_Source\PSoC5/ADC_DelSig_1.c **** 
 916:.\Generated_Source\PSoC5/ADC_DelSig_1.c ****     return( (int16)mVolts );
 1377              		.loc 1 916 0
 1378 00b2 BB68     		ldr	r3, [r7, #8]
 1379 00b4 9BB2     		uxth	r3, r3
 1380 00b6 1BB2     		sxth	r3, r3
 917:.\Generated_Source\PSoC5/ADC_DelSig_1.c **** }
 1381              		.loc 1 917 0
 1382 00b8 1846     		mov	r0, r3
 1383 00ba 07F11C07 		add	r7, r7, #28
 1384 00be BD46     		mov	sp, r7
 1385 00c0 80BC     		pop	{r7}
 1386 00c2 7047     		bx	lr
 1387              		.cfi_endproc
 1388              	.LFE17:
 1389              		.size	ADC_DelSig_1_CountsTo_mVolts, .-ADC_DelSig_1_CountsTo_mVolts
 1390              		.global	__aeabi_i2f
 1391              		.section	.text.ADC_DelSig_1_CountsTo_Volts,"ax",%progbits
 1392              		.align	2
 1393              		.global	ADC_DelSig_1_CountsTo_Volts
 1394              		.thumb
 1395              		.thumb_func
 1396              		.type	ADC_DelSig_1_CountsTo_Volts, %function
 1397              	ADC_DelSig_1_CountsTo_Volts:
 1398              	.LFB18:
 918:.\Generated_Source\PSoC5/ADC_DelSig_1.c **** 
 919:.\Generated_Source\PSoC5/ADC_DelSig_1.c **** 
 920:.\Generated_Source\PSoC5/ADC_DelSig_1.c **** /*******************************************************************************
 921:.\Generated_Source\PSoC5/ADC_DelSig_1.c **** * Function Name: ADC_DelSig_1_CountsTo_Volts
 922:.\Generated_Source\PSoC5/ADC_DelSig_1.c **** ********************************************************************************
 923:.\Generated_Source\PSoC5/ADC_DelSig_1.c **** *
 924:.\Generated_Source\PSoC5/ADC_DelSig_1.c **** * Summary:
 925:.\Generated_Source\PSoC5/ADC_DelSig_1.c **** *  This function converts ADC counts to Volts
 926:.\Generated_Source\PSoC5/ADC_DelSig_1.c **** *
 927:.\Generated_Source\PSoC5/ADC_DelSig_1.c **** * Parameters:  
 928:.\Generated_Source\PSoC5/ADC_DelSig_1.c **** *  int32:  adcCounts   Reading from ADC.
 929:.\Generated_Source\PSoC5/ADC_DelSig_1.c **** *
 930:.\Generated_Source\PSoC5/ADC_DelSig_1.c **** * Return: 
 931:.\Generated_Source\PSoC5/ADC_DelSig_1.c **** *  float:  Result in Volts
 932:.\Generated_Source\PSoC5/ADC_DelSig_1.c **** *
 933:.\Generated_Source\PSoC5/ADC_DelSig_1.c **** * Global variables:
 934:.\Generated_Source\PSoC5/ADC_DelSig_1.c **** *  ADC_DelSig_1_CountsPerVolt:  used to convert to Volts.
 935:.\Generated_Source\PSoC5/ADC_DelSig_1.c **** *  ADC_DelSig_1_Offset:  Used as the offset while converting ADC counts 
ARM GAS  C:\Users\karunmj\AppData\Local\Temp\ccZ3DH5A.s 			page 42


 936:.\Generated_Source\PSoC5/ADC_DelSig_1.c **** *   to Volts.
 937:.\Generated_Source\PSoC5/ADC_DelSig_1.c **** *
 938:.\Generated_Source\PSoC5/ADC_DelSig_1.c **** *******************************************************************************/
 939:.\Generated_Source\PSoC5/ADC_DelSig_1.c **** float ADC_DelSig_1_CountsTo_Volts( int32 adcCounts) 
 940:.\Generated_Source\PSoC5/ADC_DelSig_1.c **** {
 1399              		.loc 1 940 0
 1400              		.cfi_startproc
 1401              		@ args = 0, pretend = 0, frame = 16
 1402              		@ frame_needed = 1, uses_anonymous_args = 0
 1403 0000 90B5     		push	{r4, r7, lr}
 1404              	.LCFI47:
 1405              		.cfi_def_cfa_offset 12
 1406 0002 85B0     		sub	sp, sp, #20
 1407              	.LCFI48:
 1408              		.cfi_def_cfa_offset 32
 1409 0004 00AF     		add	r7, sp, #0
 1410              		.cfi_offset 14, -4
 1411              		.cfi_offset 7, -8
 1412              		.cfi_offset 4, -12
 1413              	.LCFI49:
 1414              		.cfi_def_cfa_register 7
 1415 0006 7860     		str	r0, [r7, #4]
 941:.\Generated_Source\PSoC5/ADC_DelSig_1.c **** 
 942:.\Generated_Source\PSoC5/ADC_DelSig_1.c ****     float Volts = 0;
 1416              		.loc 1 942 0
 1417 0008 114B     		ldr	r3, .L69	@ float
 1418 000a FB60     		str	r3, [r7, #12]	@ float
 943:.\Generated_Source\PSoC5/ADC_DelSig_1.c **** 
 944:.\Generated_Source\PSoC5/ADC_DelSig_1.c ****     /* Subtract ADC offset */
 945:.\Generated_Source\PSoC5/ADC_DelSig_1.c ****     adcCounts -= ADC_DelSig_1_Offset;
 1419              		.loc 1 945 0
 1420 000c 40F20003 		movw	r3, #:lower16:ADC_DelSig_1_Offset
 1421 0010 C0F20003 		movt	r3, #:upper16:ADC_DelSig_1_Offset
 1422 0014 1B68     		ldr	r3, [r3, #0]
 1423 0016 7A68     		ldr	r2, [r7, #4]
 1424 0018 C3EB0203 		rsb	r3, r3, r2
 1425 001c 7B60     		str	r3, [r7, #4]
 946:.\Generated_Source\PSoC5/ADC_DelSig_1.c **** 
 947:.\Generated_Source\PSoC5/ADC_DelSig_1.c ****     Volts = (float)adcCounts / (float)ADC_DelSig_1_CountsPerVolt;   
 1426              		.loc 1 947 0
 1427 001e 7868     		ldr	r0, [r7, #4]
 1428 0020 FFF7FEFF 		bl	__aeabi_i2f
 1429 0024 0446     		mov	r4, r0
 1430 0026 40F20003 		movw	r3, #:lower16:ADC_DelSig_1_CountsPerVolt
 1431 002a C0F20003 		movt	r3, #:upper16:ADC_DelSig_1_CountsPerVolt
 1432 002e 1B68     		ldr	r3, [r3, #0]
 1433 0030 1846     		mov	r0, r3
 1434 0032 FFF7FEFF 		bl	__aeabi_i2f
 1435 0036 0346     		mov	r3, r0
 1436 0038 2046     		mov	r0, r4
 1437 003a 1946     		mov	r1, r3
 1438 003c FFF7FEFF 		bl	__aeabi_fdiv
 1439 0040 0346     		mov	r3, r0
 1440 0042 FB60     		str	r3, [r7, #12]	@ float
 948:.\Generated_Source\PSoC5/ADC_DelSig_1.c ****     
 949:.\Generated_Source\PSoC5/ADC_DelSig_1.c ****     return( Volts );
 1441              		.loc 1 949 0
ARM GAS  C:\Users\karunmj\AppData\Local\Temp\ccZ3DH5A.s 			page 43


 1442 0044 FB68     		ldr	r3, [r7, #12]	@ float
 950:.\Generated_Source\PSoC5/ADC_DelSig_1.c **** }
 1443              		.loc 1 950 0
 1444 0046 1846     		mov	r0, r3
 1445 0048 07F11407 		add	r7, r7, #20
 1446 004c BD46     		mov	sp, r7
 1447 004e 90BD     		pop	{r4, r7, pc}
 1448              	.L70:
 1449              		.align	2
 1450              	.L69:
 1451 0050 00000000 		.word	0
 1452              		.cfi_endproc
 1453              	.LFE18:
 1454              		.size	ADC_DelSig_1_CountsTo_Volts, .-ADC_DelSig_1_CountsTo_Volts
 1455              		.section	.text.ADC_DelSig_1_CountsTo_uVolts,"ax",%progbits
 1456              		.align	2
 1457              		.global	ADC_DelSig_1_CountsTo_uVolts
 1458              		.thumb
 1459              		.thumb_func
 1460              		.type	ADC_DelSig_1_CountsTo_uVolts, %function
 1461              	ADC_DelSig_1_CountsTo_uVolts:
 1462              	.LFB19:
 951:.\Generated_Source\PSoC5/ADC_DelSig_1.c **** 
 952:.\Generated_Source\PSoC5/ADC_DelSig_1.c **** 
 953:.\Generated_Source\PSoC5/ADC_DelSig_1.c **** /*******************************************************************************
 954:.\Generated_Source\PSoC5/ADC_DelSig_1.c **** * Function Name: ADC_DelSig_1_CountsTo_uVolts
 955:.\Generated_Source\PSoC5/ADC_DelSig_1.c **** ********************************************************************************
 956:.\Generated_Source\PSoC5/ADC_DelSig_1.c **** *
 957:.\Generated_Source\PSoC5/ADC_DelSig_1.c **** * Summary:
 958:.\Generated_Source\PSoC5/ADC_DelSig_1.c **** *  This function converts ADC counts to uVolts
 959:.\Generated_Source\PSoC5/ADC_DelSig_1.c **** *
 960:.\Generated_Source\PSoC5/ADC_DelSig_1.c **** * Parameters:  
 961:.\Generated_Source\PSoC5/ADC_DelSig_1.c **** *  int32:  adcCounts   Reading from ADC.
 962:.\Generated_Source\PSoC5/ADC_DelSig_1.c **** *
 963:.\Generated_Source\PSoC5/ADC_DelSig_1.c **** * Return: 
 964:.\Generated_Source\PSoC5/ADC_DelSig_1.c **** *  int32:  Result in uVolts
 965:.\Generated_Source\PSoC5/ADC_DelSig_1.c **** *
 966:.\Generated_Source\PSoC5/ADC_DelSig_1.c **** * Global variables:
 967:.\Generated_Source\PSoC5/ADC_DelSig_1.c **** *  ADC_DelSig_1_CountsPerVolt:  used to convert ADC counts to mVolts.
 968:.\Generated_Source\PSoC5/ADC_DelSig_1.c **** *  ADC_DelSig_1_Offset:  Used as the offset while converting ADC counts 
 969:.\Generated_Source\PSoC5/ADC_DelSig_1.c **** *   to mVolts.
 970:.\Generated_Source\PSoC5/ADC_DelSig_1.c **** *
 971:.\Generated_Source\PSoC5/ADC_DelSig_1.c **** * Theory: 
 972:.\Generated_Source\PSoC5/ADC_DelSig_1.c **** * Care must be taken to not exceed the maximum value for a 32 bit signed
 973:.\Generated_Source\PSoC5/ADC_DelSig_1.c **** * number in the conversion to uVolts and at the same time not loose 
 974:.\Generated_Source\PSoC5/ADC_DelSig_1.c **** * resolution.
 975:.\Generated_Source\PSoC5/ADC_DelSig_1.c **** *
 976:.\Generated_Source\PSoC5/ADC_DelSig_1.c **** * uVolts = ((A * adcCounts) / ((int32)ADC_DelSig_1_CountsPerVolt/B)) ;   
 977:.\Generated_Source\PSoC5/ADC_DelSig_1.c **** *
 978:.\Generated_Source\PSoC5/ADC_DelSig_1.c **** *  Resolution       A           B
 979:.\Generated_Source\PSoC5/ADC_DelSig_1.c **** *   8 - 11      1,000,000         1
 980:.\Generated_Source\PSoC5/ADC_DelSig_1.c **** *  12 - 14        100,000        10
 981:.\Generated_Source\PSoC5/ADC_DelSig_1.c **** *  15 - 17         10,000       100
 982:.\Generated_Source\PSoC5/ADC_DelSig_1.c **** *  18 - 20           1000      1000
 983:.\Generated_Source\PSoC5/ADC_DelSig_1.c **** *
 984:.\Generated_Source\PSoC5/ADC_DelSig_1.c **** *******************************************************************************/
 985:.\Generated_Source\PSoC5/ADC_DelSig_1.c **** int32 ADC_DelSig_1_CountsTo_uVolts( int32 adcCounts) 
ARM GAS  C:\Users\karunmj\AppData\Local\Temp\ccZ3DH5A.s 			page 44


 986:.\Generated_Source\PSoC5/ADC_DelSig_1.c **** {
 1463              		.loc 1 986 0
 1464              		.cfi_startproc
 1465              		@ args = 0, pretend = 0, frame = 24
 1466              		@ frame_needed = 1, uses_anonymous_args = 0
 1467              		@ link register save eliminated.
 1468 0000 80B4     		push	{r7}
 1469              	.LCFI50:
 1470              		.cfi_def_cfa_offset 4
 1471 0002 87B0     		sub	sp, sp, #28
 1472              	.LCFI51:
 1473              		.cfi_def_cfa_offset 32
 1474 0004 00AF     		add	r7, sp, #0
 1475              		.cfi_offset 7, -4
 1476              	.LCFI52:
 1477              		.cfi_def_cfa_register 7
 1478 0006 7860     		str	r0, [r7, #4]
 987:.\Generated_Source\PSoC5/ADC_DelSig_1.c **** 
 988:.\Generated_Source\PSoC5/ADC_DelSig_1.c ****     int32 uVolts = 0;
 1479              		.loc 1 988 0
 1480 0008 4FF00003 		mov	r3, #0
 1481 000c BB60     		str	r3, [r7, #8]
 989:.\Generated_Source\PSoC5/ADC_DelSig_1.c ****     int32 A, B;
 990:.\Generated_Source\PSoC5/ADC_DelSig_1.c **** 	uint8 resolution = 16;
 1482              		.loc 1 990 0
 1483 000e 4FF01003 		mov	r3, #16
 1484 0012 FB75     		strb	r3, [r7, #23]
 991:.\Generated_Source\PSoC5/ADC_DelSig_1.c **** 	
 992:.\Generated_Source\PSoC5/ADC_DelSig_1.c **** 	/* Set the resolution based on the configuration */
 993:.\Generated_Source\PSoC5/ADC_DelSig_1.c **** 	if (ADC_DelSig_1_Config == ADC_DelSig_1_CFG1)
 1485              		.loc 1 993 0
 1486 0014 40F20003 		movw	r3, #:lower16:ADC_DelSig_1_Config
 1487 0018 C0F20003 		movt	r3, #:upper16:ADC_DelSig_1_Config
 1488 001c 1B78     		ldrb	r3, [r3, #0]
 1489 001e DBB2     		uxtb	r3, r3
 1490 0020 012B     		cmp	r3, #1
 1491 0022 03D1     		bne	.L72
 994:.\Generated_Source\PSoC5/ADC_DelSig_1.c **** 	{
 995:.\Generated_Source\PSoC5/ADC_DelSig_1.c ****         resolution = ADC_DelSig_1_CFG1_RESOLUTION;
 1492              		.loc 1 995 0
 1493 0024 4FF01003 		mov	r3, #16
 1494 0028 FB75     		strb	r3, [r7, #23]
 1495 002a 1AE0     		b	.L73
 1496              	.L72:
 996:.\Generated_Source\PSoC5/ADC_DelSig_1.c **** 	}	
 997:.\Generated_Source\PSoC5/ADC_DelSig_1.c **** 	else if (ADC_DelSig_1_Config == ADC_DelSig_1_CFG2)
 1497              		.loc 1 997 0
 1498 002c 40F20003 		movw	r3, #:lower16:ADC_DelSig_1_Config
 1499 0030 C0F20003 		movt	r3, #:upper16:ADC_DelSig_1_Config
 1500 0034 1B78     		ldrb	r3, [r3, #0]
 1501 0036 DBB2     		uxtb	r3, r3
 1502 0038 022B     		cmp	r3, #2
 1503 003a 03D1     		bne	.L74
 998:.\Generated_Source\PSoC5/ADC_DelSig_1.c **** 	{
 999:.\Generated_Source\PSoC5/ADC_DelSig_1.c **** 	    resolution = ADC_DelSig_1_CFG2_RESOLUTION;
 1504              		.loc 1 999 0
 1505 003c 4FF01003 		mov	r3, #16
ARM GAS  C:\Users\karunmj\AppData\Local\Temp\ccZ3DH5A.s 			page 45


 1506 0040 FB75     		strb	r3, [r7, #23]
 1507 0042 0EE0     		b	.L73
 1508              	.L74:
1000:.\Generated_Source\PSoC5/ADC_DelSig_1.c **** 	}
1001:.\Generated_Source\PSoC5/ADC_DelSig_1.c **** 	else if (ADC_DelSig_1_Config == ADC_DelSig_1_CFG3)
 1509              		.loc 1 1001 0
 1510 0044 40F20003 		movw	r3, #:lower16:ADC_DelSig_1_Config
 1511 0048 C0F20003 		movt	r3, #:upper16:ADC_DelSig_1_Config
 1512 004c 1B78     		ldrb	r3, [r3, #0]
 1513 004e DBB2     		uxtb	r3, r3
 1514 0050 032B     		cmp	r3, #3
 1515 0052 03D1     		bne	.L75
1002:.\Generated_Source\PSoC5/ADC_DelSig_1.c **** 	{
1003:.\Generated_Source\PSoC5/ADC_DelSig_1.c **** 	    resolution = ADC_DelSig_1_CFG3_RESOLUTION;
 1516              		.loc 1 1003 0
 1517 0054 4FF01003 		mov	r3, #16
 1518 0058 FB75     		strb	r3, [r7, #23]
 1519 005a 02E0     		b	.L73
 1520              	.L75:
1004:.\Generated_Source\PSoC5/ADC_DelSig_1.c **** 	}
1005:.\Generated_Source\PSoC5/ADC_DelSig_1.c **** 	else
1006:.\Generated_Source\PSoC5/ADC_DelSig_1.c **** 	{
1007:.\Generated_Source\PSoC5/ADC_DelSig_1.c **** 	    resolution = ADC_DelSig_1_CFG4_RESOLUTION;
 1521              		.loc 1 1007 0
 1522 005c 4FF01203 		mov	r3, #18
 1523 0060 FB75     		strb	r3, [r7, #23]
 1524              	.L73:
1008:.\Generated_Source\PSoC5/ADC_DelSig_1.c **** 	}
1009:.\Generated_Source\PSoC5/ADC_DelSig_1.c ****     
1010:.\Generated_Source\PSoC5/ADC_DelSig_1.c ****     if(resolution < 12)
 1525              		.loc 1 1010 0
 1526 0062 FB7D     		ldrb	r3, [r7, #23]	@ zero_extendqisi2
 1527 0064 0B2B     		cmp	r3, #11
 1528 0066 08D8     		bhi	.L76
1011:.\Generated_Source\PSoC5/ADC_DelSig_1.c ****     {
1012:.\Generated_Source\PSoC5/ADC_DelSig_1.c ****         A = 1000000;
 1529              		.loc 1 1012 0
 1530 0068 44F24023 		movw	r3, #:lower16:1000000
 1531 006c C0F20F03 		movt	r3, #:upper16:1000000
 1532 0070 FB60     		str	r3, [r7, #12]
1013:.\Generated_Source\PSoC5/ADC_DelSig_1.c ****         B = 1;
 1533              		.loc 1 1013 0
 1534 0072 4FF00103 		mov	r3, #1
 1535 0076 3B61     		str	r3, [r7, #16]
 1536 0078 1BE0     		b	.L77
 1537              	.L76:
1014:.\Generated_Source\PSoC5/ADC_DelSig_1.c ****     }
1015:.\Generated_Source\PSoC5/ADC_DelSig_1.c ****     else if(resolution < 15)
 1538              		.loc 1 1015 0
 1539 007a FB7D     		ldrb	r3, [r7, #23]	@ zero_extendqisi2
 1540 007c 0E2B     		cmp	r3, #14
 1541 007e 08D8     		bhi	.L78
1016:.\Generated_Source\PSoC5/ADC_DelSig_1.c ****     {
1017:.\Generated_Source\PSoC5/ADC_DelSig_1.c ****         A = 100000;
 1542              		.loc 1 1017 0
 1543 0080 48F2A063 		movw	r3, #:lower16:100000
 1544 0084 C0F20103 		movt	r3, #:upper16:100000
ARM GAS  C:\Users\karunmj\AppData\Local\Temp\ccZ3DH5A.s 			page 46


 1545 0088 FB60     		str	r3, [r7, #12]
1018:.\Generated_Source\PSoC5/ADC_DelSig_1.c ****         B = 10;
 1546              		.loc 1 1018 0
 1547 008a 4FF00A03 		mov	r3, #10
 1548 008e 3B61     		str	r3, [r7, #16]
 1549 0090 0FE0     		b	.L77
 1550              	.L78:
1019:.\Generated_Source\PSoC5/ADC_DelSig_1.c ****     }
1020:.\Generated_Source\PSoC5/ADC_DelSig_1.c ****     else if(resolution < 18)
 1551              		.loc 1 1020 0
 1552 0092 FB7D     		ldrb	r3, [r7, #23]	@ zero_extendqisi2
 1553 0094 112B     		cmp	r3, #17
 1554 0096 06D8     		bhi	.L79
1021:.\Generated_Source\PSoC5/ADC_DelSig_1.c ****     {
1022:.\Generated_Source\PSoC5/ADC_DelSig_1.c ****         A = 10000;
 1555              		.loc 1 1022 0
 1556 0098 42F21073 		movw	r3, #10000
 1557 009c FB60     		str	r3, [r7, #12]
1023:.\Generated_Source\PSoC5/ADC_DelSig_1.c ****         B = 100;
 1558              		.loc 1 1023 0
 1559 009e 4FF06403 		mov	r3, #100
 1560 00a2 3B61     		str	r3, [r7, #16]
 1561 00a4 05E0     		b	.L77
 1562              	.L79:
1024:.\Generated_Source\PSoC5/ADC_DelSig_1.c ****     }
1025:.\Generated_Source\PSoC5/ADC_DelSig_1.c ****     else
1026:.\Generated_Source\PSoC5/ADC_DelSig_1.c ****     {
1027:.\Generated_Source\PSoC5/ADC_DelSig_1.c ****         A = 1000;
 1563              		.loc 1 1027 0
 1564 00a6 4FF47A73 		mov	r3, #1000
 1565 00aa FB60     		str	r3, [r7, #12]
1028:.\Generated_Source\PSoC5/ADC_DelSig_1.c ****         B = 1000;
 1566              		.loc 1 1028 0
 1567 00ac 4FF47A73 		mov	r3, #1000
 1568 00b0 3B61     		str	r3, [r7, #16]
 1569              	.L77:
1029:.\Generated_Source\PSoC5/ADC_DelSig_1.c ****     }
1030:.\Generated_Source\PSoC5/ADC_DelSig_1.c **** 
1031:.\Generated_Source\PSoC5/ADC_DelSig_1.c ****     /* Subtract ADC offset */
1032:.\Generated_Source\PSoC5/ADC_DelSig_1.c ****     adcCounts -= ADC_DelSig_1_Offset;
 1570              		.loc 1 1032 0
 1571 00b2 40F20003 		movw	r3, #:lower16:ADC_DelSig_1_Offset
 1572 00b6 C0F20003 		movt	r3, #:upper16:ADC_DelSig_1_Offset
 1573 00ba 1B68     		ldr	r3, [r3, #0]
 1574 00bc 7A68     		ldr	r2, [r7, #4]
 1575 00be C3EB0203 		rsb	r3, r3, r2
 1576 00c2 7B60     		str	r3, [r7, #4]
1033:.\Generated_Source\PSoC5/ADC_DelSig_1.c **** 
1034:.\Generated_Source\PSoC5/ADC_DelSig_1.c ****     uVolts = ((A * adcCounts) / ((int32)ADC_DelSig_1_CountsPerVolt/B)) ;   
 1577              		.loc 1 1034 0
 1578 00c4 FB68     		ldr	r3, [r7, #12]
 1579 00c6 7A68     		ldr	r2, [r7, #4]
 1580 00c8 02FB03F2 		mul	r2, r2, r3
 1581 00cc 40F20003 		movw	r3, #:lower16:ADC_DelSig_1_CountsPerVolt
 1582 00d0 C0F20003 		movt	r3, #:upper16:ADC_DelSig_1_CountsPerVolt
 1583 00d4 1968     		ldr	r1, [r3, #0]
 1584 00d6 3B69     		ldr	r3, [r7, #16]
ARM GAS  C:\Users\karunmj\AppData\Local\Temp\ccZ3DH5A.s 			page 47


 1585 00d8 91FBF3F3 		sdiv	r3, r1, r3
 1586 00dc 92FBF3F3 		sdiv	r3, r2, r3
 1587 00e0 BB60     		str	r3, [r7, #8]
1035:.\Generated_Source\PSoC5/ADC_DelSig_1.c ****   
1036:.\Generated_Source\PSoC5/ADC_DelSig_1.c ****     return( uVolts );
 1588              		.loc 1 1036 0
 1589 00e2 BB68     		ldr	r3, [r7, #8]
1037:.\Generated_Source\PSoC5/ADC_DelSig_1.c **** }
 1590              		.loc 1 1037 0
 1591 00e4 1846     		mov	r0, r3
 1592 00e6 07F11C07 		add	r7, r7, #28
 1593 00ea BD46     		mov	sp, r7
 1594 00ec 80BC     		pop	{r7}
 1595 00ee 7047     		bx	lr
 1596              		.cfi_endproc
 1597              	.LFE19:
 1598              		.size	ADC_DelSig_1_CountsTo_uVolts, .-ADC_DelSig_1_CountsTo_uVolts
 1599              		.section	.text.ADC_DelSig_1_IRQ_Start,"ax",%progbits
 1600              		.align	2
 1601              		.global	ADC_DelSig_1_IRQ_Start
 1602              		.thumb
 1603              		.thumb_func
 1604              		.type	ADC_DelSig_1_IRQ_Start, %function
 1605              	ADC_DelSig_1_IRQ_Start:
 1606              	.LFB20:
1038:.\Generated_Source\PSoC5/ADC_DelSig_1.c **** 
1039:.\Generated_Source\PSoC5/ADC_DelSig_1.c **** 
1040:.\Generated_Source\PSoC5/ADC_DelSig_1.c **** /*******************************************************************************
1041:.\Generated_Source\PSoC5/ADC_DelSig_1.c **** * Function Name: ADC_DelSig_1_IRQ_Start(void)
1042:.\Generated_Source\PSoC5/ADC_DelSig_1.c **** ********************************************************************************
1043:.\Generated_Source\PSoC5/ADC_DelSig_1.c **** *
1044:.\Generated_Source\PSoC5/ADC_DelSig_1.c **** * Summary:
1045:.\Generated_Source\PSoC5/ADC_DelSig_1.c **** *  Set up the interrupt and enable it. The IRQ_Start() API is included to 
1046:.\Generated_Source\PSoC5/ADC_DelSig_1.c **** *  support legacy code. The routine has been replaced by the library source 
1047:.\Generated_Source\PSoC5/ADC_DelSig_1.c **** *  code for interrupts. IRQ_Start() should not be used in new designs.
1048:.\Generated_Source\PSoC5/ADC_DelSig_1.c **** * 
1049:.\Generated_Source\PSoC5/ADC_DelSig_1.c **** * Parameters:  
1050:.\Generated_Source\PSoC5/ADC_DelSig_1.c **** *   void.
1051:.\Generated_Source\PSoC5/ADC_DelSig_1.c **** *
1052:.\Generated_Source\PSoC5/ADC_DelSig_1.c **** * Return:
1053:.\Generated_Source\PSoC5/ADC_DelSig_1.c **** *   void.
1054:.\Generated_Source\PSoC5/ADC_DelSig_1.c **** *
1055:.\Generated_Source\PSoC5/ADC_DelSig_1.c **** *******************************************************************************/
1056:.\Generated_Source\PSoC5/ADC_DelSig_1.c **** void ADC_DelSig_1_IRQ_Start(void) 
1057:.\Generated_Source\PSoC5/ADC_DelSig_1.c **** {
 1607              		.loc 1 1057 0
 1608              		.cfi_startproc
 1609              		@ args = 0, pretend = 0, frame = 0
 1610              		@ frame_needed = 1, uses_anonymous_args = 0
 1611 0000 80B5     		push	{r7, lr}
 1612              	.LCFI53:
 1613              		.cfi_def_cfa_offset 8
 1614 0002 00AF     		add	r7, sp, #0
 1615              		.cfi_offset 14, -4
 1616              		.cfi_offset 7, -8
 1617              	.LCFI54:
 1618              		.cfi_def_cfa_register 7
ARM GAS  C:\Users\karunmj\AppData\Local\Temp\ccZ3DH5A.s 			page 48


1058:.\Generated_Source\PSoC5/ADC_DelSig_1.c ****     /* For all we know the interrupt is active. */
1059:.\Generated_Source\PSoC5/ADC_DelSig_1.c ****     CyIntDisable(ADC_DelSig_1_IRQ__INTC_NUMBER );
 1619              		.loc 1 1059 0
 1620 0004 4EF28013 		movw	r3, #:lower16:-536813184
 1621 0008 CEF20003 		movt	r3, #:upper16:-536813184
 1622 000c 4FF00052 		mov	r2, #536870912
 1623 0010 1A60     		str	r2, [r3, #0]
1060:.\Generated_Source\PSoC5/ADC_DelSig_1.c **** 
1061:.\Generated_Source\PSoC5/ADC_DelSig_1.c ****     /* Set the ISR to point to the ADC_DelSig_1_IRQ Interrupt. */
1062:.\Generated_Source\PSoC5/ADC_DelSig_1.c ****     CyIntSetVector(ADC_DelSig_1_IRQ__INTC_NUMBER, ADC_DelSig_1_ISR1);
 1624              		.loc 1 1062 0
 1625 0012 4FF01D00 		mov	r0, #29
 1626 0016 40F20001 		movw	r1, #:lower16:ADC_DelSig_1_ISR1
 1627 001a C0F20001 		movt	r1, #:upper16:ADC_DelSig_1_ISR1
 1628 001e FFF7FEFF 		bl	CyIntSetVector
1063:.\Generated_Source\PSoC5/ADC_DelSig_1.c **** 
1064:.\Generated_Source\PSoC5/ADC_DelSig_1.c ****     /* Set the priority. */
1065:.\Generated_Source\PSoC5/ADC_DelSig_1.c ****     CyIntSetPriority(ADC_DelSig_1_IRQ__INTC_NUMBER, ADC_DelSig_1_IRQ_INTC_PRIOR_NUMBER);
 1629              		.loc 1 1065 0
 1630 0022 4FF01D00 		mov	r0, #29
 1631 0026 4FF00701 		mov	r1, #7
 1632 002a FFF7FEFF 		bl	CyIntSetPriority
1066:.\Generated_Source\PSoC5/ADC_DelSig_1.c **** 
1067:.\Generated_Source\PSoC5/ADC_DelSig_1.c ****     /* Enable interrupt. */
1068:.\Generated_Source\PSoC5/ADC_DelSig_1.c ****     CyIntEnable(ADC_DelSig_1_IRQ__INTC_NUMBER);
 1633              		.loc 1 1068 0
 1634 002e 4EF20013 		movw	r3, #:lower16:-536813312
 1635 0032 CEF20003 		movt	r3, #:upper16:-536813312
 1636 0036 4FF00052 		mov	r2, #536870912
 1637 003a 1A60     		str	r2, [r3, #0]
1069:.\Generated_Source\PSoC5/ADC_DelSig_1.c **** }
 1638              		.loc 1 1069 0
 1639 003c 80BD     		pop	{r7, pc}
 1640              		.cfi_endproc
 1641              	.LFE20:
 1642              		.size	ADC_DelSig_1_IRQ_Start, .-ADC_DelSig_1_IRQ_Start
 1643 003e 00BF     		.section	.text.ADC_DelSig_1_InitConfig,"ax",%progbits
 1644              		.align	2
 1645              		.global	ADC_DelSig_1_InitConfig
 1646              		.thumb
 1647              		.thumb_func
 1648              		.type	ADC_DelSig_1_InitConfig, %function
 1649              	ADC_DelSig_1_InitConfig:
 1650              	.LFB21:
1070:.\Generated_Source\PSoC5/ADC_DelSig_1.c **** 
1071:.\Generated_Source\PSoC5/ADC_DelSig_1.c **** 
1072:.\Generated_Source\PSoC5/ADC_DelSig_1.c **** /*******************************************************************************
1073:.\Generated_Source\PSoC5/ADC_DelSig_1.c **** * Function Name: ADC_DelSig_1_InitConfig(uint8 config)
1074:.\Generated_Source\PSoC5/ADC_DelSig_1.c **** ********************************************************************************
1075:.\Generated_Source\PSoC5/ADC_DelSig_1.c **** *
1076:.\Generated_Source\PSoC5/ADC_DelSig_1.c **** * Summary:
1077:.\Generated_Source\PSoC5/ADC_DelSig_1.c **** *  Initializes all registers based on customizer settings
1078:.\Generated_Source\PSoC5/ADC_DelSig_1.c **** *
1079:.\Generated_Source\PSoC5/ADC_DelSig_1.c **** * Parameters:  
1080:.\Generated_Source\PSoC5/ADC_DelSig_1.c **** *   void
1081:.\Generated_Source\PSoC5/ADC_DelSig_1.c **** *
1082:.\Generated_Source\PSoC5/ADC_DelSig_1.c **** * Return: 
ARM GAS  C:\Users\karunmj\AppData\Local\Temp\ccZ3DH5A.s 			page 49


1083:.\Generated_Source\PSoC5/ADC_DelSig_1.c **** *  void
1084:.\Generated_Source\PSoC5/ADC_DelSig_1.c **** *
1085:.\Generated_Source\PSoC5/ADC_DelSig_1.c **** * Global variables:
1086:.\Generated_Source\PSoC5/ADC_DelSig_1.c **** *  ADC_DelSig_1_initVar:  used to set the common registers in the beginning.
1087:.\Generated_Source\PSoC5/ADC_DelSig_1.c **** *  ADC_DelSig_1_CountsPerVolt:  Used to set the default counts per volt.
1088:.\Generated_Source\PSoC5/ADC_DelSig_1.c **** *
1089:.\Generated_Source\PSoC5/ADC_DelSig_1.c **** *******************************************************************************/
1090:.\Generated_Source\PSoC5/ADC_DelSig_1.c **** void ADC_DelSig_1_InitConfig(uint8 config) 
1091:.\Generated_Source\PSoC5/ADC_DelSig_1.c **** {
 1651              		.loc 1 1091 0
 1652              		.cfi_startproc
 1653              		@ args = 0, pretend = 0, frame = 8
 1654              		@ frame_needed = 1, uses_anonymous_args = 0
 1655 0000 80B5     		push	{r7, lr}
 1656              	.LCFI55:
 1657              		.cfi_def_cfa_offset 8
 1658 0002 82B0     		sub	sp, sp, #8
 1659              	.LCFI56:
 1660              		.cfi_def_cfa_offset 16
 1661 0004 00AF     		add	r7, sp, #0
 1662              		.cfi_offset 14, -4
 1663              		.cfi_offset 7, -8
 1664              	.LCFI57:
 1665              		.cfi_def_cfa_register 7
 1666 0006 0346     		mov	r3, r0
 1667 0008 FB71     		strb	r3, [r7, #7]
1092:.\Generated_Source\PSoC5/ADC_DelSig_1.c ****     ADC_DelSig_1_stopConversion = 0u;
 1668              		.loc 1 1092 0
 1669 000a 40F20003 		movw	r3, #:lower16:ADC_DelSig_1_stopConversion
 1670 000e C0F20003 		movt	r3, #:upper16:ADC_DelSig_1_stopConversion
 1671 0012 4FF00002 		mov	r2, #0
 1672 0016 1A70     		strb	r2, [r3, #0]
1093:.\Generated_Source\PSoC5/ADC_DelSig_1.c ****     
1094:.\Generated_Source\PSoC5/ADC_DelSig_1.c ****     if(ADC_DelSig_1_initVar == 0u)
 1673              		.loc 1 1094 0
 1674 0018 40F20003 		movw	r3, #:lower16:ADC_DelSig_1_initVar
 1675 001c C0F20003 		movt	r3, #:upper16:ADC_DelSig_1_initVar
 1676 0020 1B78     		ldrb	r3, [r3, #0]	@ zero_extendqisi2
 1677 0022 002B     		cmp	r3, #0
 1678 0024 68D1     		bne	.L84
1095:.\Generated_Source\PSoC5/ADC_DelSig_1.c ****         {
1096:.\Generated_Source\PSoC5/ADC_DelSig_1.c ****             ADC_DelSig_1_DSM_DEM0_REG    = ADC_DelSig_1_CFG1_DSM_DEM0;    
 1679              		.loc 1 1096 0
 1680 0026 45F69603 		movw	r3, #:lower16:1073764502
 1681 002a C4F20003 		movt	r3, #:upper16:1073764502
 1682 002e 4FF00702 		mov	r2, #7
 1683 0032 1A70     		strb	r2, [r3, #0]
1097:.\Generated_Source\PSoC5/ADC_DelSig_1.c ****             ADC_DelSig_1_DSM_DEM1_REG    = ADC_DelSig_1_CFG1_DSM_DEM1;    
 1684              		.loc 1 1097 0
 1685 0034 45F69703 		movw	r3, #:lower16:1073764503
 1686 0038 C4F20003 		movt	r3, #:upper16:1073764503
 1687 003c 4FF00002 		mov	r2, #0
 1688 0040 1A70     		strb	r2, [r3, #0]
1098:.\Generated_Source\PSoC5/ADC_DelSig_1.c ****             ADC_DelSig_1_DSM_MISC_REG    = ADC_DelSig_1_CFG1_DSM_MISC;    
 1689              		.loc 1 1098 0
 1690 0042 45F69E03 		movw	r3, #:lower16:1073764510
 1691 0046 C4F20003 		movt	r3, #:upper16:1073764510
ARM GAS  C:\Users\karunmj\AppData\Local\Temp\ccZ3DH5A.s 			page 50


 1692 004a 4FF00002 		mov	r2, #0
 1693 004e 1A70     		strb	r2, [r3, #0]
1099:.\Generated_Source\PSoC5/ADC_DelSig_1.c ****             ADC_DelSig_1_DSM_CLK_REG    |= ADC_DelSig_1_CFG1_DSM_CLK; 
 1694              		.loc 1 1099 0
 1695 0050 45F60733 		movw	r3, #:lower16:1073765127
 1696 0054 C4F20003 		movt	r3, #:upper16:1073765127
 1697 0058 45F60732 		movw	r2, #:lower16:1073765127
 1698 005c C4F20002 		movt	r2, #:upper16:1073765127
 1699 0060 1278     		ldrb	r2, [r2, #0]
 1700 0062 D2B2     		uxtb	r2, r2
 1701 0064 42F01802 		orr	r2, r2, #24
 1702 0068 D2B2     		uxtb	r2, r2
 1703 006a 1A70     		strb	r2, [r3, #0]
1100:.\Generated_Source\PSoC5/ADC_DelSig_1.c ****             ADC_DelSig_1_DSM_REF1_REG    = ADC_DelSig_1_CFG1_DSM_REF1;    
 1704              		.loc 1 1100 0
 1705 006c 45F69303 		movw	r3, #:lower16:1073764499
 1706 0070 C4F20003 		movt	r3, #:upper16:1073764499
 1707 0074 4FF00002 		mov	r2, #0
 1708 0078 1A70     		strb	r2, [r3, #0]
1101:.\Generated_Source\PSoC5/ADC_DelSig_1.c ****         
1102:.\Generated_Source\PSoC5/ADC_DelSig_1.c ****             ADC_DelSig_1_DSM_OUT0_REG    = ADC_DelSig_1_CFG1_DSM_OUT0;    
 1709              		.loc 1 1102 0
 1710 007a 45F68833 		movw	r3, #:lower16:1073765256
 1711 007e C4F20003 		movt	r3, #:upper16:1073765256
 1712 0082 4FF00002 		mov	r2, #0
 1713 0086 1A70     		strb	r2, [r3, #0]
1103:.\Generated_Source\PSoC5/ADC_DelSig_1.c ****             ADC_DelSig_1_DSM_OUT1_REG    = ADC_DelSig_1_CFG1_DSM_OUT1;   
 1714              		.loc 1 1103 0
 1715 0088 45F68933 		movw	r3, #:lower16:1073765257
 1716 008c C4F20003 		movt	r3, #:upper16:1073765257
 1717 0090 4FF00002 		mov	r2, #0
 1718 0094 1A70     		strb	r2, [r3, #0]
1104:.\Generated_Source\PSoC5/ADC_DelSig_1.c ****         
1105:.\Generated_Source\PSoC5/ADC_DelSig_1.c ****             ADC_DelSig_1_DSM_CR0_REG     = ADC_DelSig_1_CFG1_DSM_CR0;     
 1719              		.loc 1 1105 0
 1720 0096 45F68003 		movw	r3, #:lower16:1073764480
 1721 009a C4F20003 		movt	r3, #:upper16:1073764480
 1722 009e 4FF00A02 		mov	r2, #10
 1723 00a2 1A70     		strb	r2, [r3, #0]
1106:.\Generated_Source\PSoC5/ADC_DelSig_1.c ****             ADC_DelSig_1_DSM_CR1_REG     = ADC_DelSig_1_CFG1_DSM_CR1;     
 1724              		.loc 1 1106 0
 1725 00a4 45F68103 		movw	r3, #:lower16:1073764481
 1726 00a8 C4F20003 		movt	r3, #:upper16:1073764481
 1727 00ac 4FF00002 		mov	r2, #0
 1728 00b0 1A70     		strb	r2, [r3, #0]
1107:.\Generated_Source\PSoC5/ADC_DelSig_1.c ****             ADC_DelSig_1_DSM_CR2_REG     = ADC_DelSig_1_CFG1_DSM_CR2;     
 1729              		.loc 1 1107 0
 1730 00b2 45F68203 		movw	r3, #:lower16:1073764482
 1731 00b6 C4F20003 		movt	r3, #:upper16:1073764482
 1732 00ba 4FF07A02 		mov	r2, #122
 1733 00be 1A70     		strb	r2, [r3, #0]
1108:.\Generated_Source\PSoC5/ADC_DelSig_1.c ****             ADC_DelSig_1_DSM_CR3_REG     = ADC_DelSig_1_CFG1_DSM_CR3;     
 1734              		.loc 1 1108 0
 1735 00c0 45F68303 		movw	r3, #:lower16:1073764483
 1736 00c4 C4F20003 		movt	r3, #:upper16:1073764483
 1737 00c8 4FF00002 		mov	r2, #0
 1738 00cc 1A70     		strb	r2, [r3, #0]
ARM GAS  C:\Users\karunmj\AppData\Local\Temp\ccZ3DH5A.s 			page 51


1109:.\Generated_Source\PSoC5/ADC_DelSig_1.c ****             ADC_DelSig_1_DSM_CR13_REG    = ADC_DelSig_1_CFG1_DSM_CR13;     
 1739              		.loc 1 1109 0
 1740 00ce 45F68D03 		movw	r3, #:lower16:1073764493
 1741 00d2 C4F20003 		movt	r3, #:upper16:1073764493
 1742 00d6 4FF00002 		mov	r2, #0
 1743 00da 1A70     		strb	r2, [r3, #0]
1110:.\Generated_Source\PSoC5/ADC_DelSig_1.c ****             
1111:.\Generated_Source\PSoC5/ADC_DelSig_1.c ****             ADC_DelSig_1_DEC_SR_REG      = ADC_DelSig_1_CFG1_DEC_SR;      
 1744              		.loc 1 1111 0
 1745 00dc 44F60163 		movw	r3, #:lower16:1073761793
 1746 00e0 C4F20003 		movt	r3, #:upper16:1073761793
 1747 00e4 4FF01402 		mov	r2, #20
 1748 00e8 1A70     		strb	r2, [r3, #0]
1112:.\Generated_Source\PSoC5/ADC_DelSig_1.c ****             ADC_DelSig_1_DEC_COHER_REG   = ADC_DelSig_1_CFG1_DEC_COHER;   
 1749              		.loc 1 1112 0
 1750 00ea 44F61463 		movw	r3, #:lower16:1073761812
 1751 00ee C4F20003 		movt	r3, #:upper16:1073761812
 1752 00f2 4FF00102 		mov	r2, #1
 1753 00f6 1A70     		strb	r2, [r3, #0]
 1754              	.L84:
1113:.\Generated_Source\PSoC5/ADC_DelSig_1.c ****         }
1114:.\Generated_Source\PSoC5/ADC_DelSig_1.c **** 
1115:.\Generated_Source\PSoC5/ADC_DelSig_1.c ****     if (config == 1u)
 1755              		.loc 1 1115 0
 1756 00f8 FB79     		ldrb	r3, [r7, #7]	@ zero_extendqisi2
 1757 00fa 012B     		cmp	r3, #1
 1758 00fc 40F0E480 		bne	.L85
1116:.\Generated_Source\PSoC5/ADC_DelSig_1.c ****     {
1117:.\Generated_Source\PSoC5/ADC_DelSig_1.c ****         /* Default Config */   
1118:.\Generated_Source\PSoC5/ADC_DelSig_1.c ****         ADC_DelSig_1_DEC_CR_REG      = ADC_DelSig_1_CFG1_DEC_CR;      
 1759              		.loc 1 1118 0
 1760 0100 44F60063 		movw	r3, #:lower16:1073761792
 1761 0104 C4F20003 		movt	r3, #:upper16:1073761792
 1762 0108 4FF03402 		mov	r2, #52
 1763 010c 1A70     		strb	r2, [r3, #0]
1119:.\Generated_Source\PSoC5/ADC_DelSig_1.c ****         ADC_DelSig_1_DEC_SHIFT1_REG  = ADC_DelSig_1_CFG1_DEC_SHIFT1;  
 1764              		.loc 1 1119 0
 1765 010e 44F60263 		movw	r3, #:lower16:1073761794
 1766 0112 C4F20003 		movt	r3, #:upper16:1073761794
 1767 0116 4FF00402 		mov	r2, #4
 1768 011a 1A70     		strb	r2, [r3, #0]
1120:.\Generated_Source\PSoC5/ADC_DelSig_1.c ****         ADC_DelSig_1_DEC_SHIFT2_REG  = ADC_DelSig_1_CFG1_DEC_SHIFT2;  
 1769              		.loc 1 1120 0
 1770 011c 44F60363 		movw	r3, #:lower16:1073761795
 1771 0120 C4F20003 		movt	r3, #:upper16:1073761795
 1772 0124 4FF00702 		mov	r2, #7
 1773 0128 1A70     		strb	r2, [r3, #0]
1121:.\Generated_Source\PSoC5/ADC_DelSig_1.c ****         ADC_DelSig_1_DEC_DR2_REG     = ADC_DelSig_1_CFG1_DEC_DR2;     
 1774              		.loc 1 1121 0
 1775 012a 44F60463 		movw	r3, #:lower16:1073761796
 1776 012e C4F20003 		movt	r3, #:upper16:1073761796
 1777 0132 4FF00002 		mov	r2, #0
 1778 0136 1A70     		strb	r2, [r3, #0]
1122:.\Generated_Source\PSoC5/ADC_DelSig_1.c ****         ADC_DelSig_1_DEC_DR2H_REG    = ADC_DelSig_1_CFG1_DEC_DR2H;    
 1779              		.loc 1 1122 0
 1780 0138 44F60563 		movw	r3, #:lower16:1073761797
 1781 013c C4F20003 		movt	r3, #:upper16:1073761797
ARM GAS  C:\Users\karunmj\AppData\Local\Temp\ccZ3DH5A.s 			page 52


 1782 0140 4FF00002 		mov	r2, #0
 1783 0144 1A70     		strb	r2, [r3, #0]
1123:.\Generated_Source\PSoC5/ADC_DelSig_1.c ****         ADC_DelSig_1_DEC_DR1_REG     = ADC_DelSig_1_CFG1_DEC_DR1;     
 1784              		.loc 1 1123 0
 1785 0146 44F60663 		movw	r3, #:lower16:1073761798
 1786 014a C4F20003 		movt	r3, #:upper16:1073761798
 1787 014e 4FF03F02 		mov	r2, #63
 1788 0152 1A70     		strb	r2, [r3, #0]
1124:.\Generated_Source\PSoC5/ADC_DelSig_1.c ****         ADC_DelSig_1_DEC_OCOR_REG    = ADC_DelSig_1_CFG1_DEC_OCOR;    
 1789              		.loc 1 1124 0
 1790 0154 44F60863 		movw	r3, #:lower16:1073761800
 1791 0158 C4F20003 		movt	r3, #:upper16:1073761800
 1792 015c 4FF00002 		mov	r2, #0
 1793 0160 1A70     		strb	r2, [r3, #0]
1125:.\Generated_Source\PSoC5/ADC_DelSig_1.c ****         ADC_DelSig_1_DEC_OCORM_REG   = ADC_DelSig_1_CFG1_DEC_OCORM;   
 1794              		.loc 1 1125 0
 1795 0162 44F60963 		movw	r3, #:lower16:1073761801
 1796 0166 C4F20003 		movt	r3, #:upper16:1073761801
 1797 016a 4FF00002 		mov	r2, #0
 1798 016e 1A70     		strb	r2, [r3, #0]
1126:.\Generated_Source\PSoC5/ADC_DelSig_1.c ****         ADC_DelSig_1_DEC_OCORH_REG   = ADC_DelSig_1_CFG1_DEC_OCORH;   
 1799              		.loc 1 1126 0
 1800 0170 44F60A63 		movw	r3, #:lower16:1073761802
 1801 0174 C4F20003 		movt	r3, #:upper16:1073761802
 1802 0178 4FF00002 		mov	r2, #0
 1803 017c 1A70     		strb	r2, [r3, #0]
1127:.\Generated_Source\PSoC5/ADC_DelSig_1.c ****         
1128:.\Generated_Source\PSoC5/ADC_DelSig_1.c ****         ADC_DelSig_1_DSM_CR4_REG     = ADC_DelSig_1_CFG1_DSM_CR4;     
 1804              		.loc 1 1128 0
 1805 017e 45F68403 		movw	r3, #:lower16:1073764484
 1806 0182 C4F20003 		movt	r3, #:upper16:1073764484
 1807 0186 4FF05002 		mov	r2, #80
 1808 018a 1A70     		strb	r2, [r3, #0]
1129:.\Generated_Source\PSoC5/ADC_DelSig_1.c ****         ADC_DelSig_1_DSM_CR5_REG     = ADC_DelSig_1_CFG1_DSM_CR5;     
 1809              		.loc 1 1129 0
 1810 018c 45F68503 		movw	r3, #:lower16:1073764485
 1811 0190 C4F20003 		movt	r3, #:upper16:1073764485
 1812 0194 4FF00A02 		mov	r2, #10
 1813 0198 1A70     		strb	r2, [r3, #0]
1130:.\Generated_Source\PSoC5/ADC_DelSig_1.c ****         ADC_DelSig_1_DSM_CR6_REG     = ADC_DelSig_1_CFG1_DSM_CR6;     
 1814              		.loc 1 1130 0
 1815 019a 45F68603 		movw	r3, #:lower16:1073764486
 1816 019e C4F20003 		movt	r3, #:upper16:1073764486
 1817 01a2 4FF03C02 		mov	r2, #60
 1818 01a6 1A70     		strb	r2, [r3, #0]
1131:.\Generated_Source\PSoC5/ADC_DelSig_1.c ****         ADC_DelSig_1_DSM_CR7_REG     = ADC_DelSig_1_CFG1_DSM_CR7;     
 1819              		.loc 1 1131 0
 1820 01a8 45F68703 		movw	r3, #:lower16:1073764487
 1821 01ac C4F20003 		movt	r3, #:upper16:1073764487
 1822 01b0 4FF00002 		mov	r2, #0
 1823 01b4 1A70     		strb	r2, [r3, #0]
1132:.\Generated_Source\PSoC5/ADC_DelSig_1.c ****         ADC_DelSig_1_DSM_CR8_REG     = ADC_DelSig_1_CFG1_DSM_CR8;     
 1824              		.loc 1 1132 0
 1825 01b6 45F68803 		movw	r3, #:lower16:1073764488
 1826 01ba C4F20003 		movt	r3, #:upper16:1073764488
 1827 01be 4FF01202 		mov	r2, #18
 1828 01c2 1A70     		strb	r2, [r3, #0]
ARM GAS  C:\Users\karunmj\AppData\Local\Temp\ccZ3DH5A.s 			page 53


1133:.\Generated_Source\PSoC5/ADC_DelSig_1.c ****         ADC_DelSig_1_DSM_CR9_REG     = ADC_DelSig_1_CFG1_DSM_CR9;     
 1829              		.loc 1 1133 0
 1830 01c4 45F68903 		movw	r3, #:lower16:1073764489
 1831 01c8 C4F20003 		movt	r3, #:upper16:1073764489
 1832 01cc 4FF01302 		mov	r2, #19
 1833 01d0 1A70     		strb	r2, [r3, #0]
1134:.\Generated_Source\PSoC5/ADC_DelSig_1.c ****         ADC_DelSig_1_DSM_CR10_REG    = ADC_DelSig_1_CFG1_DSM_CR10;    
 1834              		.loc 1 1134 0
 1835 01d2 45F68A03 		movw	r3, #:lower16:1073764490
 1836 01d6 C4F20003 		movt	r3, #:upper16:1073764490
 1837 01da 4FF04402 		mov	r2, #68
 1838 01de 1A70     		strb	r2, [r3, #0]
1135:.\Generated_Source\PSoC5/ADC_DelSig_1.c ****         ADC_DelSig_1_DSM_CR11_REG    = ADC_DelSig_1_CFG1_DSM_CR11;    
 1839              		.loc 1 1135 0
 1840 01e0 45F68B03 		movw	r3, #:lower16:1073764491
 1841 01e4 C4F20003 		movt	r3, #:upper16:1073764491
 1842 01e8 4FF04802 		mov	r2, #72
 1843 01ec 1A70     		strb	r2, [r3, #0]
1136:.\Generated_Source\PSoC5/ADC_DelSig_1.c ****         ADC_DelSig_1_DSM_CR12_REG    = ADC_DelSig_1_CFG1_DSM_CR12;    
 1844              		.loc 1 1136 0
 1845 01ee 45F68C03 		movw	r3, #:lower16:1073764492
 1846 01f2 C4F20003 		movt	r3, #:upper16:1073764492
 1847 01f6 4FF00102 		mov	r2, #1
 1848 01fa 1A70     		strb	r2, [r3, #0]
1137:.\Generated_Source\PSoC5/ADC_DelSig_1.c ****         ADC_DelSig_1_DSM_CR14_REG    = ADC_DelSig_1_CFG1_DSM_CR14;    
 1849              		.loc 1 1137 0
 1850 01fc 45F68E03 		movw	r3, #:lower16:1073764494
 1851 0200 C4F20003 		movt	r3, #:upper16:1073764494
 1852 0204 4FF00202 		mov	r2, #2
 1853 0208 1A70     		strb	r2, [r3, #0]
1138:.\Generated_Source\PSoC5/ADC_DelSig_1.c ****         ADC_DelSig_1_DSM_CR15_REG    = ADC_DelSig_1_CFG1_DSM_CR15;    
 1854              		.loc 1 1138 0
 1855 020a 45F68F03 		movw	r3, #:lower16:1073764495
 1856 020e C4F20003 		movt	r3, #:upper16:1073764495
 1857 0212 4FF01202 		mov	r2, #18
 1858 0216 1A70     		strb	r2, [r3, #0]
1139:.\Generated_Source\PSoC5/ADC_DelSig_1.c ****         ADC_DelSig_1_DSM_CR16_REG    = ADC_DelSig_1_CFG1_DSM_CR16;    
 1859              		.loc 1 1139 0
 1860 0218 45F69003 		movw	r3, #:lower16:1073764496
 1861 021c C4F20003 		movt	r3, #:upper16:1073764496
 1862 0220 4FF02802 		mov	r2, #40
 1863 0224 1A70     		strb	r2, [r3, #0]
1140:.\Generated_Source\PSoC5/ADC_DelSig_1.c ****         ADC_DelSig_1_DSM_CR17_REG    = ADC_DelSig_1_CFG1_DSM_CR17;
 1864              		.loc 1 1140 0
 1865 0226 45F69103 		movw	r3, #:lower16:1073764497
 1866 022a C4F20003 		movt	r3, #:upper16:1073764497
 1867 022e 6FF01402 		mvn	r2, #20
 1868 0232 1A70     		strb	r2, [r3, #0]
1141:.\Generated_Source\PSoC5/ADC_DelSig_1.c **** 		/* Set DSM_REF0_REG by disabling and enabling the PRESS cirucit */
1142:.\Generated_Source\PSoC5/ADC_DelSig_1.c **** 		ADC_DelSig_1_SetDSMRef0Reg(ADC_DelSig_1_CFG1_DSM_REF0);
 1869              		.loc 1 1142 0
 1870 0234 4FF04400 		mov	r0, #68
 1871 0238 FFF7FEFF 		bl	ADC_DelSig_1_SetDSMRef0Reg
1143:.\Generated_Source\PSoC5/ADC_DelSig_1.c ****         ADC_DelSig_1_DSM_REF2_REG    = ADC_DelSig_1_CFG1_DSM_REF2;    
 1872              		.loc 1 1143 0
 1873 023c 45F69403 		movw	r3, #:lower16:1073764500
 1874 0240 C4F20003 		movt	r3, #:upper16:1073764500
ARM GAS  C:\Users\karunmj\AppData\Local\Temp\ccZ3DH5A.s 			page 54


 1875 0244 4FF05802 		mov	r2, #88
 1876 0248 1A70     		strb	r2, [r3, #0]
1144:.\Generated_Source\PSoC5/ADC_DelSig_1.c ****         ADC_DelSig_1_DSM_REF3_REG    = ADC_DelSig_1_CFG1_DSM_REF3;    
 1877              		.loc 1 1144 0
 1878 024a 45F69503 		movw	r3, #:lower16:1073764501
 1879 024e C4F20003 		movt	r3, #:upper16:1073764501
 1880 0252 4FF00002 		mov	r2, #0
 1881 0256 1A70     		strb	r2, [r3, #0]
1145:.\Generated_Source\PSoC5/ADC_DelSig_1.c ****         
1146:.\Generated_Source\PSoC5/ADC_DelSig_1.c ****         ADC_DelSig_1_DSM_BUF0_REG    = ADC_DelSig_1_CFG1_DSM_BUF0;    
 1882              		.loc 1 1146 0
 1883 0258 45F69A03 		movw	r3, #:lower16:1073764506
 1884 025c C4F20003 		movt	r3, #:upper16:1073764506
 1885 0260 4FF00502 		mov	r2, #5
 1886 0264 1A70     		strb	r2, [r3, #0]
1147:.\Generated_Source\PSoC5/ADC_DelSig_1.c ****         ADC_DelSig_1_DSM_BUF1_REG    = ADC_DelSig_1_CFG1_DSM_BUF1;    
 1887              		.loc 1 1147 0
 1888 0266 45F69B03 		movw	r3, #:lower16:1073764507
 1889 026a C4F20003 		movt	r3, #:upper16:1073764507
 1890 026e 4FF00102 		mov	r2, #1
 1891 0272 1A70     		strb	r2, [r3, #0]
1148:.\Generated_Source\PSoC5/ADC_DelSig_1.c ****         ADC_DelSig_1_DSM_BUF2_REG    = ADC_DelSig_1_CFG1_DSM_BUF2;   
 1892              		.loc 1 1148 0
 1893 0274 45F69C03 		movw	r3, #:lower16:1073764508
 1894 0278 C4F20003 		movt	r3, #:upper16:1073764508
 1895 027c 4FF00002 		mov	r2, #0
 1896 0280 1A70     		strb	r2, [r3, #0]
1149:.\Generated_Source\PSoC5/ADC_DelSig_1.c ****         ADC_DelSig_1_DSM_BUF3_REG    = ADC_DelSig_1_CFG1_DSM_BUF3;
 1897              		.loc 1 1149 0
 1898 0282 45F69D03 		movw	r3, #:lower16:1073764509
 1899 0286 C4F20003 		movt	r3, #:upper16:1073764509
 1900 028a 4FF00A02 		mov	r2, #10
 1901 028e 1A70     		strb	r2, [r3, #0]
1150:.\Generated_Source\PSoC5/ADC_DelSig_1.c ****         #if (CY_PSOC5A)
1151:.\Generated_Source\PSoC5/ADC_DelSig_1.c ****             ADC_DelSig_1_DSM_CLK_REG    |= ADC_DelSig_1_CFG1_DSM_CLK; 
1152:.\Generated_Source\PSoC5/ADC_DelSig_1.c ****         #endif /* CY_PSOC5A */
1153:.\Generated_Source\PSoC5/ADC_DelSig_1.c ****         
1154:.\Generated_Source\PSoC5/ADC_DelSig_1.c ****         /* To select either Vssa or Vref to -ve input of DSM depending on 
1155:.\Generated_Source\PSoC5/ADC_DelSig_1.c ****           the input  range selected.
1156:.\Generated_Source\PSoC5/ADC_DelSig_1.c ****         */
1157:.\Generated_Source\PSoC5/ADC_DelSig_1.c ****         
1158:.\Generated_Source\PSoC5/ADC_DelSig_1.c ****         #if(ADC_DelSig_1_DEFAULT_INPUT_MODE)
1159:.\Generated_Source\PSoC5/ADC_DelSig_1.c ****             #if (CY_PSOC3 || CY_PSOC5LP)
1160:.\Generated_Source\PSoC5/ADC_DelSig_1.c ****                 #if (ADC_DelSig_1_CFG1_RANGE == ADC_DelSig_1_IR_VSSA_TO_2VREF)
1161:.\Generated_Source\PSoC5/ADC_DelSig_1.c ****                     ADC_DelSig_1_AMux_Select(1);
1162:.\Generated_Source\PSoC5/ADC_DelSig_1.c ****                 #else
1163:.\Generated_Source\PSoC5/ADC_DelSig_1.c ****                     ADC_DelSig_1_AMux_Select(0);
1164:.\Generated_Source\PSoC5/ADC_DelSig_1.c ****                 #endif /* ADC_DelSig_1_IR_VSSA_TO_2VREF) */
1165:.\Generated_Source\PSoC5/ADC_DelSig_1.c ****             #elif (CY_PSOC5A)
1166:.\Generated_Source\PSoC5/ADC_DelSig_1.c ****                 ADC_DelSig_1_AMux_Select(0);
1167:.\Generated_Source\PSoC5/ADC_DelSig_1.c ****             #endif /* CY_PSOC3 || CY_PSOC5LP */
1168:.\Generated_Source\PSoC5/ADC_DelSig_1.c ****         #endif /* ADC_DelSig_1_DEFAULT_INPUT_MODE */
1169:.\Generated_Source\PSoC5/ADC_DelSig_1.c ****         
1170:.\Generated_Source\PSoC5/ADC_DelSig_1.c ****         /* Set the Conversion stop if resolution is above 16 bit and conversion 
1171:.\Generated_Source\PSoC5/ADC_DelSig_1.c ****            mode is Single sample */
1172:.\Generated_Source\PSoC5/ADC_DelSig_1.c ****         #if(ADC_DelSig_1_CFG1_RESOLUTION > 16 && \
1173:.\Generated_Source\PSoC5/ADC_DelSig_1.c ****             ADC_DelSig_1_CFG1_CONV_MODE == ADC_DelSig_1_MODE_SINGLE_SAMPLE) 
ARM GAS  C:\Users\karunmj\AppData\Local\Temp\ccZ3DH5A.s 			page 55


1174:.\Generated_Source\PSoC5/ADC_DelSig_1.c ****             ADC_DelSig_1_stopConversion = 1;
1175:.\Generated_Source\PSoC5/ADC_DelSig_1.c ****         #endif /* Single sample with resolution above 16 bits. */
1176:.\Generated_Source\PSoC5/ADC_DelSig_1.c ****         ADC_DelSig_1_CountsPerVolt = (uint32)ADC_DelSig_1_CFG1_COUNTS_PER_VOLT;
 1902              		.loc 1 1176 0
 1903 0290 40F20003 		movw	r3, #:lower16:ADC_DelSig_1_CountsPerVolt
 1904 0294 C0F20003 		movt	r3, #:upper16:ADC_DelSig_1_CountsPerVolt
 1905 0298 41F2D542 		movw	r2, #5333
 1906 029c 1A60     		str	r2, [r3, #0]
1177:.\Generated_Source\PSoC5/ADC_DelSig_1.c ****         
1178:.\Generated_Source\PSoC5/ADC_DelSig_1.c ****         /* Start and set interrupt vector */
1179:.\Generated_Source\PSoC5/ADC_DelSig_1.c ****         CyIntSetPriority(ADC_DelSig_1_IRQ__INTC_NUMBER, ADC_DelSig_1_IRQ_INTC_PRIOR_NUMBER);
 1907              		.loc 1 1179 0
 1908 029e 4FF01D00 		mov	r0, #29
 1909 02a2 4FF00701 		mov	r1, #7
 1910 02a6 FFF7FEFF 		bl	CyIntSetPriority
1180:.\Generated_Source\PSoC5/ADC_DelSig_1.c ****         CyIntSetVector(ADC_DelSig_1_IRQ__INTC_NUMBER, ADC_DelSig_1_ISR1 );
 1911              		.loc 1 1180 0
 1912 02aa 4FF01D00 		mov	r0, #29
 1913 02ae 40F20001 		movw	r1, #:lower16:ADC_DelSig_1_ISR1
 1914 02b2 C0F20001 		movt	r1, #:upper16:ADC_DelSig_1_ISR1
 1915 02b6 FFF7FEFF 		bl	CyIntSetVector
1181:.\Generated_Source\PSoC5/ADC_DelSig_1.c ****         CyIntEnable(ADC_DelSig_1_IRQ__INTC_NUMBER);
 1916              		.loc 1 1181 0
 1917 02ba 4EF20013 		movw	r3, #:lower16:-536813312
 1918 02be CEF20003 		movt	r3, #:upper16:-536813312
 1919 02c2 4FF00052 		mov	r2, #536870912
 1920 02c6 1A60     		str	r2, [r3, #0]
 1921              	.L85:
1182:.\Generated_Source\PSoC5/ADC_DelSig_1.c ****     }
1183:.\Generated_Source\PSoC5/ADC_DelSig_1.c ****     
1184:.\Generated_Source\PSoC5/ADC_DelSig_1.c ****     #if(ADC_DelSig_1_DEFAULT_NUM_CONFIGS > 1)
1185:.\Generated_Source\PSoC5/ADC_DelSig_1.c ****         if(config == 2u)
 1922              		.loc 1 1185 0
 1923 02c8 FB79     		ldrb	r3, [r7, #7]	@ zero_extendqisi2
 1924 02ca 022B     		cmp	r3, #2
 1925 02cc 40F0E480 		bne	.L86
1186:.\Generated_Source\PSoC5/ADC_DelSig_1.c ****         {
1187:.\Generated_Source\PSoC5/ADC_DelSig_1.c ****             /* Second Config */
1188:.\Generated_Source\PSoC5/ADC_DelSig_1.c ****             ADC_DelSig_1_DEC_CR_REG      = ADC_DelSig_1_CFG2_DEC_CR;      
 1926              		.loc 1 1188 0
 1927 02d0 44F60063 		movw	r3, #:lower16:1073761792
 1928 02d4 C4F20003 		movt	r3, #:upper16:1073761792
 1929 02d8 4FF03402 		mov	r2, #52
 1930 02dc 1A70     		strb	r2, [r3, #0]
1189:.\Generated_Source\PSoC5/ADC_DelSig_1.c ****             ADC_DelSig_1_DEC_SHIFT1_REG  = ADC_DelSig_1_CFG2_DEC_SHIFT1;  
 1931              		.loc 1 1189 0
 1932 02de 44F60263 		movw	r3, #:lower16:1073761794
 1933 02e2 C4F20003 		movt	r3, #:upper16:1073761794
 1934 02e6 4FF00402 		mov	r2, #4
 1935 02ea 1A70     		strb	r2, [r3, #0]
1190:.\Generated_Source\PSoC5/ADC_DelSig_1.c ****             ADC_DelSig_1_DEC_SHIFT2_REG  = ADC_DelSig_1_CFG2_DEC_SHIFT2;  
 1936              		.loc 1 1190 0
 1937 02ec 44F60363 		movw	r3, #:lower16:1073761795
 1938 02f0 C4F20003 		movt	r3, #:upper16:1073761795
 1939 02f4 4FF00702 		mov	r2, #7
 1940 02f8 1A70     		strb	r2, [r3, #0]
1191:.\Generated_Source\PSoC5/ADC_DelSig_1.c ****             ADC_DelSig_1_DEC_DR2_REG     = ADC_DelSig_1_CFG2_DEC_DR2;     
ARM GAS  C:\Users\karunmj\AppData\Local\Temp\ccZ3DH5A.s 			page 56


 1941              		.loc 1 1191 0
 1942 02fa 44F60463 		movw	r3, #:lower16:1073761796
 1943 02fe C4F20003 		movt	r3, #:upper16:1073761796
 1944 0302 4FF00002 		mov	r2, #0
 1945 0306 1A70     		strb	r2, [r3, #0]
1192:.\Generated_Source\PSoC5/ADC_DelSig_1.c ****             ADC_DelSig_1_DEC_DR2H_REG    = ADC_DelSig_1_CFG2_DEC_DR2H;    
 1946              		.loc 1 1192 0
 1947 0308 44F60563 		movw	r3, #:lower16:1073761797
 1948 030c C4F20003 		movt	r3, #:upper16:1073761797
 1949 0310 4FF00002 		mov	r2, #0
 1950 0314 1A70     		strb	r2, [r3, #0]
1193:.\Generated_Source\PSoC5/ADC_DelSig_1.c ****             ADC_DelSig_1_DEC_DR1_REG     = ADC_DelSig_1_CFG2_DEC_DR1;     
 1951              		.loc 1 1193 0
 1952 0316 44F60663 		movw	r3, #:lower16:1073761798
 1953 031a C4F20003 		movt	r3, #:upper16:1073761798
 1954 031e 4FF03F02 		mov	r2, #63
 1955 0322 1A70     		strb	r2, [r3, #0]
1194:.\Generated_Source\PSoC5/ADC_DelSig_1.c ****             ADC_DelSig_1_DEC_OCOR_REG    = ADC_DelSig_1_CFG2_DEC_OCOR;    
 1956              		.loc 1 1194 0
 1957 0324 44F60863 		movw	r3, #:lower16:1073761800
 1958 0328 C4F20003 		movt	r3, #:upper16:1073761800
 1959 032c 4FF00002 		mov	r2, #0
 1960 0330 1A70     		strb	r2, [r3, #0]
1195:.\Generated_Source\PSoC5/ADC_DelSig_1.c ****             ADC_DelSig_1_DEC_OCORM_REG   = ADC_DelSig_1_CFG2_DEC_OCORM;   
 1961              		.loc 1 1195 0
 1962 0332 44F60963 		movw	r3, #:lower16:1073761801
 1963 0336 C4F20003 		movt	r3, #:upper16:1073761801
 1964 033a 4FF00002 		mov	r2, #0
 1965 033e 1A70     		strb	r2, [r3, #0]
1196:.\Generated_Source\PSoC5/ADC_DelSig_1.c ****             ADC_DelSig_1_DEC_OCORH_REG   = ADC_DelSig_1_CFG2_DEC_OCORH;   
 1966              		.loc 1 1196 0
 1967 0340 44F60A63 		movw	r3, #:lower16:1073761802
 1968 0344 C4F20003 		movt	r3, #:upper16:1073761802
 1969 0348 4FF00002 		mov	r2, #0
 1970 034c 1A70     		strb	r2, [r3, #0]
1197:.\Generated_Source\PSoC5/ADC_DelSig_1.c ****         
1198:.\Generated_Source\PSoC5/ADC_DelSig_1.c ****             ADC_DelSig_1_DSM_CR4_REG     = ADC_DelSig_1_CFG2_DSM_CR4;     
 1971              		.loc 1 1198 0
 1972 034e 45F68403 		movw	r3, #:lower16:1073764484
 1973 0352 C4F20003 		movt	r3, #:upper16:1073764484
 1974 0356 4FF05002 		mov	r2, #80
 1975 035a 1A70     		strb	r2, [r3, #0]
1199:.\Generated_Source\PSoC5/ADC_DelSig_1.c ****             ADC_DelSig_1_DSM_CR5_REG     = ADC_DelSig_1_CFG2_DSM_CR5;     
 1976              		.loc 1 1199 0
 1977 035c 45F68503 		movw	r3, #:lower16:1073764485
 1978 0360 C4F20003 		movt	r3, #:upper16:1073764485
 1979 0364 4FF07C02 		mov	r2, #124
 1980 0368 1A70     		strb	r2, [r3, #0]
1200:.\Generated_Source\PSoC5/ADC_DelSig_1.c ****             ADC_DelSig_1_DSM_CR6_REG     = ADC_DelSig_1_CFG2_DSM_CR6;     
 1981              		.loc 1 1200 0
 1982 036a 45F68603 		movw	r3, #:lower16:1073764486
 1983 036e C4F20003 		movt	r3, #:upper16:1073764486
 1984 0372 4FF00C02 		mov	r2, #12
 1985 0376 1A70     		strb	r2, [r3, #0]
1201:.\Generated_Source\PSoC5/ADC_DelSig_1.c ****             ADC_DelSig_1_DSM_CR7_REG     = ADC_DelSig_1_CFG2_DSM_CR7;     
 1986              		.loc 1 1201 0
 1987 0378 45F68703 		movw	r3, #:lower16:1073764487
ARM GAS  C:\Users\karunmj\AppData\Local\Temp\ccZ3DH5A.s 			page 57


 1988 037c C4F20003 		movt	r3, #:upper16:1073764487
 1989 0380 4FF02002 		mov	r2, #32
 1990 0384 1A70     		strb	r2, [r3, #0]
1202:.\Generated_Source\PSoC5/ADC_DelSig_1.c ****             ADC_DelSig_1_DSM_CR8_REG     = ADC_DelSig_1_CFG2_DSM_CR8;     
 1991              		.loc 1 1202 0
 1992 0386 45F68803 		movw	r3, #:lower16:1073764488
 1993 038a C4F20003 		movt	r3, #:upper16:1073764488
 1994 038e 4FF01202 		mov	r2, #18
 1995 0392 1A70     		strb	r2, [r3, #0]
1203:.\Generated_Source\PSoC5/ADC_DelSig_1.c ****             ADC_DelSig_1_DSM_CR9_REG     = ADC_DelSig_1_CFG2_DSM_CR9;     
 1996              		.loc 1 1203 0
 1997 0394 45F68903 		movw	r3, #:lower16:1073764489
 1998 0398 C4F20003 		movt	r3, #:upper16:1073764489
 1999 039c 4FF01302 		mov	r2, #19
 2000 03a0 1A70     		strb	r2, [r3, #0]
1204:.\Generated_Source\PSoC5/ADC_DelSig_1.c ****             ADC_DelSig_1_DSM_CR10_REG    = ADC_DelSig_1_CFG2_DSM_CR10;    
 2001              		.loc 1 1204 0
 2002 03a2 45F68A03 		movw	r3, #:lower16:1073764490
 2003 03a6 C4F20003 		movt	r3, #:upper16:1073764490
 2004 03aa 4FF04402 		mov	r2, #68
 2005 03ae 1A70     		strb	r2, [r3, #0]
1205:.\Generated_Source\PSoC5/ADC_DelSig_1.c ****             ADC_DelSig_1_DSM_CR11_REG    = ADC_DelSig_1_CFG2_DSM_CR11;    
 2006              		.loc 1 1205 0
 2007 03b0 45F68B03 		movw	r3, #:lower16:1073764491
 2008 03b4 C4F20003 		movt	r3, #:upper16:1073764491
 2009 03b8 4FF04202 		mov	r2, #66
 2010 03bc 1A70     		strb	r2, [r3, #0]
1206:.\Generated_Source\PSoC5/ADC_DelSig_1.c ****             ADC_DelSig_1_DSM_CR12_REG    = ADC_DelSig_1_CFG2_DSM_CR12;    
 2011              		.loc 1 1206 0
 2012 03be 45F68C03 		movw	r3, #:lower16:1073764492
 2013 03c2 C4F20003 		movt	r3, #:upper16:1073764492
 2014 03c6 4FF01002 		mov	r2, #16
 2015 03ca 1A70     		strb	r2, [r3, #0]
1207:.\Generated_Source\PSoC5/ADC_DelSig_1.c ****             ADC_DelSig_1_DSM_CR14_REG    = ADC_DelSig_1_CFG2_DSM_CR14;    
 2016              		.loc 1 1207 0
 2017 03cc 45F68E03 		movw	r3, #:lower16:1073764494
 2018 03d0 C4F20003 		movt	r3, #:upper16:1073764494
 2019 03d4 4FF00202 		mov	r2, #2
 2020 03d8 1A70     		strb	r2, [r3, #0]
1208:.\Generated_Source\PSoC5/ADC_DelSig_1.c ****             ADC_DelSig_1_DSM_CR15_REG    = ADC_DelSig_1_CFG2_DSM_CR15;    
 2021              		.loc 1 1208 0
 2022 03da 45F68F03 		movw	r3, #:lower16:1073764495
 2023 03de C4F20003 		movt	r3, #:upper16:1073764495
 2024 03e2 4FF01202 		mov	r2, #18
 2025 03e6 1A70     		strb	r2, [r3, #0]
1209:.\Generated_Source\PSoC5/ADC_DelSig_1.c ****             ADC_DelSig_1_DSM_CR16_REG    = ADC_DelSig_1_CFG2_DSM_CR16;    
 2026              		.loc 1 1209 0
 2027 03e8 45F69003 		movw	r3, #:lower16:1073764496
 2028 03ec C4F20003 		movt	r3, #:upper16:1073764496
 2029 03f0 4FF02802 		mov	r2, #40
 2030 03f4 1A70     		strb	r2, [r3, #0]
1210:.\Generated_Source\PSoC5/ADC_DelSig_1.c ****             ADC_DelSig_1_DSM_CR17_REG    = ADC_DelSig_1_CFG2_DSM_CR17;    
 2031              		.loc 1 1210 0
 2032 03f6 45F69103 		movw	r3, #:lower16:1073764497
 2033 03fa C4F20003 		movt	r3, #:upper16:1073764497
 2034 03fe 6FF01402 		mvn	r2, #20
 2035 0402 1A70     		strb	r2, [r3, #0]
ARM GAS  C:\Users\karunmj\AppData\Local\Temp\ccZ3DH5A.s 			page 58


1211:.\Generated_Source\PSoC5/ADC_DelSig_1.c **** 			/* Set DSM_REF0_REG by disabling and enabling the PRESS cirucit */
1212:.\Generated_Source\PSoC5/ADC_DelSig_1.c **** 			ADC_DelSig_1_SetDSMRef0Reg(ADC_DelSig_1_CFG2_DSM_REF0);
 2036              		.loc 1 1212 0
 2037 0404 4FF04400 		mov	r0, #68
 2038 0408 FFF7FEFF 		bl	ADC_DelSig_1_SetDSMRef0Reg
1213:.\Generated_Source\PSoC5/ADC_DelSig_1.c ****             ADC_DelSig_1_DSM_REF2_REG    = ADC_DelSig_1_CFG2_DSM_REF2;    
 2039              		.loc 1 1213 0
 2040 040c 45F69403 		movw	r3, #:lower16:1073764500
 2041 0410 C4F20003 		movt	r3, #:upper16:1073764500
 2042 0414 4FF05802 		mov	r2, #88
 2043 0418 1A70     		strb	r2, [r3, #0]
1214:.\Generated_Source\PSoC5/ADC_DelSig_1.c ****             ADC_DelSig_1_DSM_REF3_REG    = ADC_DelSig_1_CFG2_DSM_REF3;    
 2044              		.loc 1 1214 0
 2045 041a 45F69503 		movw	r3, #:lower16:1073764501
 2046 041e C4F20003 		movt	r3, #:upper16:1073764501
 2047 0422 4FF00002 		mov	r2, #0
 2048 0426 1A70     		strb	r2, [r3, #0]
1215:.\Generated_Source\PSoC5/ADC_DelSig_1.c ****         
1216:.\Generated_Source\PSoC5/ADC_DelSig_1.c ****             ADC_DelSig_1_DSM_BUF0_REG    = ADC_DelSig_1_CFG2_DSM_BUF0;    
 2049              		.loc 1 1216 0
 2050 0428 45F69A03 		movw	r3, #:lower16:1073764506
 2051 042c C4F20003 		movt	r3, #:upper16:1073764506
 2052 0430 4FF00502 		mov	r2, #5
 2053 0434 1A70     		strb	r2, [r3, #0]
1217:.\Generated_Source\PSoC5/ADC_DelSig_1.c ****             ADC_DelSig_1_DSM_BUF1_REG    = ADC_DelSig_1_CFG2_DSM_BUF1;    
 2054              		.loc 1 1217 0
 2055 0436 45F69B03 		movw	r3, #:lower16:1073764507
 2056 043a C4F20003 		movt	r3, #:upper16:1073764507
 2057 043e 4FF00102 		mov	r2, #1
 2058 0442 1A70     		strb	r2, [r3, #0]
1218:.\Generated_Source\PSoC5/ADC_DelSig_1.c ****             ADC_DelSig_1_DSM_BUF2_REG    = ADC_DelSig_1_CFG2_DSM_BUF2;    
 2059              		.loc 1 1218 0
 2060 0444 45F69C03 		movw	r3, #:lower16:1073764508
 2061 0448 C4F20003 		movt	r3, #:upper16:1073764508
 2062 044c 4FF00002 		mov	r2, #0
 2063 0450 1A70     		strb	r2, [r3, #0]
1219:.\Generated_Source\PSoC5/ADC_DelSig_1.c ****             ADC_DelSig_1_DSM_BUF3_REG    = ADC_DelSig_1_CFG2_DSM_BUF3; 
 2064              		.loc 1 1219 0
 2065 0452 45F69D03 		movw	r3, #:lower16:1073764509
 2066 0456 C4F20003 		movt	r3, #:upper16:1073764509
 2067 045a 4FF00A02 		mov	r2, #10
 2068 045e 1A70     		strb	r2, [r3, #0]
1220:.\Generated_Source\PSoC5/ADC_DelSig_1.c ****             #if (CY_PSOC5A)
1221:.\Generated_Source\PSoC5/ADC_DelSig_1.c ****                 ADC_DelSig_1_DSM_CLK_REG    |= ADC_DelSig_1_CFG1_DSM_CLK; 
1222:.\Generated_Source\PSoC5/ADC_DelSig_1.c ****             #endif /* CY_PSOC5A */
1223:.\Generated_Source\PSoC5/ADC_DelSig_1.c ****             
1224:.\Generated_Source\PSoC5/ADC_DelSig_1.c ****             /* To select either Vssa or Vref to -ve input of DSM depending on 
1225:.\Generated_Source\PSoC5/ADC_DelSig_1.c ****                the input range selected.
1226:.\Generated_Source\PSoC5/ADC_DelSig_1.c ****             */
1227:.\Generated_Source\PSoC5/ADC_DelSig_1.c ****             
1228:.\Generated_Source\PSoC5/ADC_DelSig_1.c ****             #if(ADC_DelSig_1_DEFAULT_INPUT_MODE)
1229:.\Generated_Source\PSoC5/ADC_DelSig_1.c ****                 #if (CY_PSOC3 || CY_PSOC5LP)
1230:.\Generated_Source\PSoC5/ADC_DelSig_1.c ****                     #if (ADC_DelSig_1_CFG2_INPUT_RANGE == ADC_DelSig_1_IR_VSSA_TO_2VREF)
1231:.\Generated_Source\PSoC5/ADC_DelSig_1.c ****                         ADC_DelSig_1_AMux_Select(1);
1232:.\Generated_Source\PSoC5/ADC_DelSig_1.c ****                     #else
1233:.\Generated_Source\PSoC5/ADC_DelSig_1.c ****                         ADC_DelSig_1_AMux_Select(0);
1234:.\Generated_Source\PSoC5/ADC_DelSig_1.c ****                     #endif /* ADC_DelSig_1_IR_VSSA_TO_2VREF) */
ARM GAS  C:\Users\karunmj\AppData\Local\Temp\ccZ3DH5A.s 			page 59


1235:.\Generated_Source\PSoC5/ADC_DelSig_1.c ****                 #elif (CY_PSOC5A)
1236:.\Generated_Source\PSoC5/ADC_DelSig_1.c ****                     ADC_DelSig_1_AMux_Select(0);
1237:.\Generated_Source\PSoC5/ADC_DelSig_1.c ****                 #endif /* CY_PSOC3 || CY_PSOC5LP */
1238:.\Generated_Source\PSoC5/ADC_DelSig_1.c ****             #endif /* ADC_DelSig_1_DEFAULT_INPUT_MODE */
1239:.\Generated_Source\PSoC5/ADC_DelSig_1.c ****             
1240:.\Generated_Source\PSoC5/ADC_DelSig_1.c ****             /* Set the Conversion stop if resolution is above 16 bit and 
1241:.\Generated_Source\PSoC5/ADC_DelSig_1.c ****                conversion mode is Single sample */
1242:.\Generated_Source\PSoC5/ADC_DelSig_1.c ****             #if(ADC_DelSig_1_CFG2_RESOLUTION > 16 && \
1243:.\Generated_Source\PSoC5/ADC_DelSig_1.c ****                 ADC_DelSig_1_CFG2_CONVMODE == ADC_DelSig_1_MODE_SINGLE_SAMPLE) 
1244:.\Generated_Source\PSoC5/ADC_DelSig_1.c ****                 ADC_DelSig_1_stopConversion = 1;
1245:.\Generated_Source\PSoC5/ADC_DelSig_1.c ****             #endif /* Single sample with resolution above 16 bits. */
1246:.\Generated_Source\PSoC5/ADC_DelSig_1.c ****             
1247:.\Generated_Source\PSoC5/ADC_DelSig_1.c ****             ADC_DelSig_1_CountsPerVolt = (uint32)ADC_DelSig_1_CFG2_COUNTS_PER_VOLT;
 2069              		.loc 1 1247 0
 2070 0460 40F20003 		movw	r3, #:lower16:ADC_DelSig_1_CountsPerVolt
 2071 0464 C0F20003 		movt	r3, #:upper16:ADC_DelSig_1_CountsPerVolt
 2072 0468 4FF4FA22 		mov	r2, #512000
 2073 046c 1A60     		str	r2, [r3, #0]
1248:.\Generated_Source\PSoC5/ADC_DelSig_1.c ****             
1249:.\Generated_Source\PSoC5/ADC_DelSig_1.c ****             /* Start and set interrupt vector */
1250:.\Generated_Source\PSoC5/ADC_DelSig_1.c ****             CyIntSetPriority(ADC_DelSig_1_IRQ__INTC_NUMBER, ADC_DelSig_1_IRQ_INTC_PRIOR_NUMBER);
 2074              		.loc 1 1250 0
 2075 046e 4FF01D00 		mov	r0, #29
 2076 0472 4FF00701 		mov	r1, #7
 2077 0476 FFF7FEFF 		bl	CyIntSetPriority
1251:.\Generated_Source\PSoC5/ADC_DelSig_1.c ****             CyIntSetVector(ADC_DelSig_1_IRQ__INTC_NUMBER, ADC_DelSig_1_ISR2 );
 2078              		.loc 1 1251 0
 2079 047a 4FF01D00 		mov	r0, #29
 2080 047e 40F20001 		movw	r1, #:lower16:ADC_DelSig_1_ISR2
 2081 0482 C0F20001 		movt	r1, #:upper16:ADC_DelSig_1_ISR2
 2082 0486 FFF7FEFF 		bl	CyIntSetVector
1252:.\Generated_Source\PSoC5/ADC_DelSig_1.c ****             CyIntEnable(ADC_DelSig_1_IRQ__INTC_NUMBER);
 2083              		.loc 1 1252 0
 2084 048a 4EF20013 		movw	r3, #:lower16:-536813312
 2085 048e CEF20003 		movt	r3, #:upper16:-536813312
 2086 0492 4FF00052 		mov	r2, #536870912
 2087 0496 1A60     		str	r2, [r3, #0]
 2088              	.L86:
1253:.\Generated_Source\PSoC5/ADC_DelSig_1.c ****         }
1254:.\Generated_Source\PSoC5/ADC_DelSig_1.c ****     #endif /* ADC_DelSig_1_DEFAULT_NUM_CONFIGS > 1 */
1255:.\Generated_Source\PSoC5/ADC_DelSig_1.c **** 
1256:.\Generated_Source\PSoC5/ADC_DelSig_1.c ****     #if(ADC_DelSig_1_DEFAULT_NUM_CONFIGS > 2)
1257:.\Generated_Source\PSoC5/ADC_DelSig_1.c ****         if(config == 3u)
 2089              		.loc 1 1257 0
 2090 0498 FB79     		ldrb	r3, [r7, #7]	@ zero_extendqisi2
 2091 049a 032B     		cmp	r3, #3
 2092 049c 40F0E480 		bne	.L87
1258:.\Generated_Source\PSoC5/ADC_DelSig_1.c ****         {
1259:.\Generated_Source\PSoC5/ADC_DelSig_1.c ****             /* Third Config */
1260:.\Generated_Source\PSoC5/ADC_DelSig_1.c ****             ADC_DelSig_1_DEC_CR_REG      = ADC_DelSig_1_CFG3_DEC_CR;      
 2093              		.loc 1 1260 0
 2094 04a0 44F60063 		movw	r3, #:lower16:1073761792
 2095 04a4 C4F20003 		movt	r3, #:upper16:1073761792
 2096 04a8 4FF03802 		mov	r2, #56
 2097 04ac 1A70     		strb	r2, [r3, #0]
1261:.\Generated_Source\PSoC5/ADC_DelSig_1.c ****             ADC_DelSig_1_DEC_SHIFT1_REG  = ADC_DelSig_1_CFG3_DEC_SHIFT1;  
 2098              		.loc 1 1261 0
ARM GAS  C:\Users\karunmj\AppData\Local\Temp\ccZ3DH5A.s 			page 60


 2099 04ae 44F60263 		movw	r3, #:lower16:1073761794
 2100 04b2 C4F20003 		movt	r3, #:upper16:1073761794
 2101 04b6 4FF00402 		mov	r2, #4
 2102 04ba 1A70     		strb	r2, [r3, #0]
1262:.\Generated_Source\PSoC5/ADC_DelSig_1.c ****             ADC_DelSig_1_DEC_SHIFT2_REG  = ADC_DelSig_1_CFG3_DEC_SHIFT2;  
 2103              		.loc 1 1262 0
 2104 04bc 44F60363 		movw	r3, #:lower16:1073761795
 2105 04c0 C4F20003 		movt	r3, #:upper16:1073761795
 2106 04c4 4FF00702 		mov	r2, #7
 2107 04c8 1A70     		strb	r2, [r3, #0]
1263:.\Generated_Source\PSoC5/ADC_DelSig_1.c ****             ADC_DelSig_1_DEC_DR2_REG     = ADC_DelSig_1_CFG3_DEC_DR2;     
 2108              		.loc 1 1263 0
 2109 04ca 44F60463 		movw	r3, #:lower16:1073761796
 2110 04ce C4F20003 		movt	r3, #:upper16:1073761796
 2111 04d2 4FF00002 		mov	r2, #0
 2112 04d6 1A70     		strb	r2, [r3, #0]
1264:.\Generated_Source\PSoC5/ADC_DelSig_1.c ****             ADC_DelSig_1_DEC_DR2H_REG    = ADC_DelSig_1_CFG3_DEC_DR2H;    
 2113              		.loc 1 1264 0
 2114 04d8 44F60563 		movw	r3, #:lower16:1073761797
 2115 04dc C4F20003 		movt	r3, #:upper16:1073761797
 2116 04e0 4FF00002 		mov	r2, #0
 2117 04e4 1A70     		strb	r2, [r3, #0]
1265:.\Generated_Source\PSoC5/ADC_DelSig_1.c ****             ADC_DelSig_1_DEC_DR1_REG     = ADC_DelSig_1_CFG3_DEC_DR1;     
 2118              		.loc 1 1265 0
 2119 04e6 44F60663 		movw	r3, #:lower16:1073761798
 2120 04ea C4F20003 		movt	r3, #:upper16:1073761798
 2121 04ee 4FF03F02 		mov	r2, #63
 2122 04f2 1A70     		strb	r2, [r3, #0]
1266:.\Generated_Source\PSoC5/ADC_DelSig_1.c ****             ADC_DelSig_1_DEC_OCOR_REG    = ADC_DelSig_1_CFG3_DEC_OCOR;    
 2123              		.loc 1 1266 0
 2124 04f4 44F60863 		movw	r3, #:lower16:1073761800
 2125 04f8 C4F20003 		movt	r3, #:upper16:1073761800
 2126 04fc 4FF00002 		mov	r2, #0
 2127 0500 1A70     		strb	r2, [r3, #0]
1267:.\Generated_Source\PSoC5/ADC_DelSig_1.c ****             ADC_DelSig_1_DEC_OCORM_REG   = ADC_DelSig_1_CFG3_DEC_OCORM;   
 2128              		.loc 1 1267 0
 2129 0502 44F60963 		movw	r3, #:lower16:1073761801
 2130 0506 C4F20003 		movt	r3, #:upper16:1073761801
 2131 050a 4FF00002 		mov	r2, #0
 2132 050e 1A70     		strb	r2, [r3, #0]
1268:.\Generated_Source\PSoC5/ADC_DelSig_1.c ****             ADC_DelSig_1_DEC_OCORH_REG   = ADC_DelSig_1_CFG3_DEC_OCORH;   
 2133              		.loc 1 1268 0
 2134 0510 44F60A63 		movw	r3, #:lower16:1073761802
 2135 0514 C4F20003 		movt	r3, #:upper16:1073761802
 2136 0518 4FF00002 		mov	r2, #0
 2137 051c 1A70     		strb	r2, [r3, #0]
1269:.\Generated_Source\PSoC5/ADC_DelSig_1.c ****          
1270:.\Generated_Source\PSoC5/ADC_DelSig_1.c ****             ADC_DelSig_1_DSM_CR4_REG     = ADC_DelSig_1_CFG3_DSM_CR4;     
 2138              		.loc 1 1270 0
 2139 051e 45F68403 		movw	r3, #:lower16:1073764484
 2140 0522 C4F20003 		movt	r3, #:upper16:1073764484
 2141 0526 4FF05002 		mov	r2, #80
 2142 052a 1A70     		strb	r2, [r3, #0]
1271:.\Generated_Source\PSoC5/ADC_DelSig_1.c ****             ADC_DelSig_1_DSM_CR5_REG     = ADC_DelSig_1_CFG3_DSM_CR5;     
 2143              		.loc 1 1271 0
 2144 052c 45F68503 		movw	r3, #:lower16:1073764485
 2145 0530 C4F20003 		movt	r3, #:upper16:1073764485
ARM GAS  C:\Users\karunmj\AppData\Local\Temp\ccZ3DH5A.s 			page 61


 2146 0534 4FF02702 		mov	r2, #39
 2147 0538 1A70     		strb	r2, [r3, #0]
1272:.\Generated_Source\PSoC5/ADC_DelSig_1.c ****             ADC_DelSig_1_DSM_CR6_REG     = ADC_DelSig_1_CFG3_DSM_CR6;     
 2148              		.loc 1 1272 0
 2149 053a 45F68603 		movw	r3, #:lower16:1073764486
 2150 053e C4F20003 		movt	r3, #:upper16:1073764486
 2151 0542 4FF02C02 		mov	r2, #44
 2152 0546 1A70     		strb	r2, [r3, #0]
1273:.\Generated_Source\PSoC5/ADC_DelSig_1.c ****             ADC_DelSig_1_DSM_CR7_REG     = ADC_DelSig_1_CFG3_DSM_CR7;     
 2153              		.loc 1 1273 0
 2154 0548 45F68703 		movw	r3, #:lower16:1073764487
 2155 054c C4F20003 		movt	r3, #:upper16:1073764487
 2156 0550 4FF00002 		mov	r2, #0
 2157 0554 1A70     		strb	r2, [r3, #0]
1274:.\Generated_Source\PSoC5/ADC_DelSig_1.c ****             ADC_DelSig_1_DSM_CR8_REG     = ADC_DelSig_1_CFG3_DSM_CR8;     
 2158              		.loc 1 1274 0
 2159 0556 45F68803 		movw	r3, #:lower16:1073764488
 2160 055a C4F20003 		movt	r3, #:upper16:1073764488
 2161 055e 4FF01202 		mov	r2, #18
 2162 0562 1A70     		strb	r2, [r3, #0]
1275:.\Generated_Source\PSoC5/ADC_DelSig_1.c ****             ADC_DelSig_1_DSM_CR9_REG     = ADC_DelSig_1_CFG3_DSM_CR9;     
 2163              		.loc 1 1275 0
 2164 0564 45F68903 		movw	r3, #:lower16:1073764489
 2165 0568 C4F20003 		movt	r3, #:upper16:1073764489
 2166 056c 4FF01302 		mov	r2, #19
 2167 0570 1A70     		strb	r2, [r3, #0]
1276:.\Generated_Source\PSoC5/ADC_DelSig_1.c ****             ADC_DelSig_1_DSM_CR10_REG    = ADC_DelSig_1_CFG3_DSM_CR10;    
 2168              		.loc 1 1276 0
 2169 0572 45F68A03 		movw	r3, #:lower16:1073764490
 2170 0576 C4F20003 		movt	r3, #:upper16:1073764490
 2171 057a 4FF05502 		mov	r2, #85
 2172 057e 1A70     		strb	r2, [r3, #0]
1277:.\Generated_Source\PSoC5/ADC_DelSig_1.c ****             ADC_DelSig_1_DSM_CR11_REG    = ADC_DelSig_1_CFG3_DSM_CR11;    
 2173              		.loc 1 1277 0
 2174 0580 45F68B03 		movw	r3, #:lower16:1073764491
 2175 0584 C4F20003 		movt	r3, #:upper16:1073764491
 2176 0588 4FF05A02 		mov	r2, #90
 2177 058c 1A70     		strb	r2, [r3, #0]
1278:.\Generated_Source\PSoC5/ADC_DelSig_1.c ****             ADC_DelSig_1_DSM_CR12_REG    = ADC_DelSig_1_CFG3_DSM_CR12;    
 2178              		.loc 1 1278 0
 2179 058e 45F68C03 		movw	r3, #:lower16:1073764492
 2180 0592 C4F20003 		movt	r3, #:upper16:1073764492
 2181 0596 4FF00502 		mov	r2, #5
 2182 059a 1A70     		strb	r2, [r3, #0]
1279:.\Generated_Source\PSoC5/ADC_DelSig_1.c ****             ADC_DelSig_1_DSM_CR14_REG    = ADC_DelSig_1_CFG3_DSM_CR14;    
 2183              		.loc 1 1279 0
 2184 059c 45F68E03 		movw	r3, #:lower16:1073764494
 2185 05a0 C4F20003 		movt	r3, #:upper16:1073764494
 2186 05a4 4FF00102 		mov	r2, #1
 2187 05a8 1A70     		strb	r2, [r3, #0]
1280:.\Generated_Source\PSoC5/ADC_DelSig_1.c ****             ADC_DelSig_1_DSM_CR15_REG    = ADC_DelSig_1_CFG3_DSM_CR15;    
 2188              		.loc 1 1280 0
 2189 05aa 45F68F03 		movw	r3, #:lower16:1073764495
 2190 05ae C4F20003 		movt	r3, #:upper16:1073764495
 2191 05b2 4FF01102 		mov	r2, #17
 2192 05b6 1A70     		strb	r2, [r3, #0]
1281:.\Generated_Source\PSoC5/ADC_DelSig_1.c ****             ADC_DelSig_1_DSM_CR16_REG    = ADC_DelSig_1_CFG3_DSM_CR16;    
ARM GAS  C:\Users\karunmj\AppData\Local\Temp\ccZ3DH5A.s 			page 62


 2193              		.loc 1 1281 0
 2194 05b8 45F69003 		movw	r3, #:lower16:1073764496
 2195 05bc C4F20003 		movt	r3, #:upper16:1073764496
 2196 05c0 4FF01902 		mov	r2, #25
 2197 05c4 1A70     		strb	r2, [r3, #0]
1282:.\Generated_Source\PSoC5/ADC_DelSig_1.c ****             ADC_DelSig_1_DSM_CR17_REG    = ADC_DelSig_1_CFG3_DSM_CR17;    
 2198              		.loc 1 1282 0
 2199 05c6 45F69103 		movw	r3, #:lower16:1073764497
 2200 05ca C4F20003 		movt	r3, #:upper16:1073764497
 2201 05ce 6FF06802 		mvn	r2, #104
 2202 05d2 1A70     		strb	r2, [r3, #0]
1283:.\Generated_Source\PSoC5/ADC_DelSig_1.c **** 			/* Set DSM_REF0_REG by disabling and enabling the PRESS cirucit */
1284:.\Generated_Source\PSoC5/ADC_DelSig_1.c **** 			ADC_DelSig_1_SetDSMRef0Reg(ADC_DelSig_1_CFG3_DSM_REF0);
 2203              		.loc 1 1284 0
 2204 05d4 4FF04400 		mov	r0, #68
 2205 05d8 FFF7FEFF 		bl	ADC_DelSig_1_SetDSMRef0Reg
1285:.\Generated_Source\PSoC5/ADC_DelSig_1.c ****             ADC_DelSig_1_DSM_REF2_REG    = ADC_DelSig_1_CFG3_DSM_REF2;    
 2206              		.loc 1 1285 0
 2207 05dc 45F69403 		movw	r3, #:lower16:1073764500
 2208 05e0 C4F20003 		movt	r3, #:upper16:1073764500
 2209 05e4 4FF05802 		mov	r2, #88
 2210 05e8 1A70     		strb	r2, [r3, #0]
1286:.\Generated_Source\PSoC5/ADC_DelSig_1.c ****             ADC_DelSig_1_DSM_REF3_REG    = ADC_DelSig_1_CFG3_DSM_REF3;    
 2211              		.loc 1 1286 0
 2212 05ea 45F69503 		movw	r3, #:lower16:1073764501
 2213 05ee C4F20003 		movt	r3, #:upper16:1073764501
 2214 05f2 4FF00002 		mov	r2, #0
 2215 05f6 1A70     		strb	r2, [r3, #0]
1287:.\Generated_Source\PSoC5/ADC_DelSig_1.c ****         
1288:.\Generated_Source\PSoC5/ADC_DelSig_1.c ****             ADC_DelSig_1_DSM_BUF0_REG    = ADC_DelSig_1_CFG3_DSM_BUF0;    
 2216              		.loc 1 1288 0
 2217 05f8 45F69A03 		movw	r3, #:lower16:1073764506
 2218 05fc C4F20003 		movt	r3, #:upper16:1073764506
 2219 0600 4FF00502 		mov	r2, #5
 2220 0604 1A70     		strb	r2, [r3, #0]
1289:.\Generated_Source\PSoC5/ADC_DelSig_1.c ****             ADC_DelSig_1_DSM_BUF1_REG    = ADC_DelSig_1_CFG3_DSM_BUF1;    
 2221              		.loc 1 1289 0
 2222 0606 45F69B03 		movw	r3, #:lower16:1073764507
 2223 060a C4F20003 		movt	r3, #:upper16:1073764507
 2224 060e 4FF00102 		mov	r2, #1
 2225 0612 1A70     		strb	r2, [r3, #0]
1290:.\Generated_Source\PSoC5/ADC_DelSig_1.c ****             ADC_DelSig_1_DSM_BUF2_REG    = ADC_DelSig_1_CFG3_DSM_BUF2;
 2226              		.loc 1 1290 0
 2227 0614 45F69C03 		movw	r3, #:lower16:1073764508
 2228 0618 C4F20003 		movt	r3, #:upper16:1073764508
 2229 061c 4FF00102 		mov	r2, #1
 2230 0620 1A70     		strb	r2, [r3, #0]
1291:.\Generated_Source\PSoC5/ADC_DelSig_1.c ****             ADC_DelSig_1_DSM_BUF3_REG    = ADC_DelSig_1_CFG3_DSM_BUF3;
 2231              		.loc 1 1291 0
 2232 0622 45F69D03 		movw	r3, #:lower16:1073764509
 2233 0626 C4F20003 		movt	r3, #:upper16:1073764509
 2234 062a 4FF00A02 		mov	r2, #10
 2235 062e 1A70     		strb	r2, [r3, #0]
1292:.\Generated_Source\PSoC5/ADC_DelSig_1.c ****             #if (CY_PSOC5A)
1293:.\Generated_Source\PSoC5/ADC_DelSig_1.c ****                 ADC_DelSig_1_DSM_CLK_REG    |= ADC_DelSig_1_CFG1_DSM_CLK; 
1294:.\Generated_Source\PSoC5/ADC_DelSig_1.c ****             #endif /* CY_PSOC5A */
1295:.\Generated_Source\PSoC5/ADC_DelSig_1.c ****             
ARM GAS  C:\Users\karunmj\AppData\Local\Temp\ccZ3DH5A.s 			page 63


1296:.\Generated_Source\PSoC5/ADC_DelSig_1.c ****             /* To select either Vssa or Vref to -ve input of DSM depending on 
1297:.\Generated_Source\PSoC5/ADC_DelSig_1.c ****                the input range selected.
1298:.\Generated_Source\PSoC5/ADC_DelSig_1.c ****             */
1299:.\Generated_Source\PSoC5/ADC_DelSig_1.c ****             
1300:.\Generated_Source\PSoC5/ADC_DelSig_1.c ****             #if(ADC_DelSig_1_DEFAULT_INPUT_MODE)
1301:.\Generated_Source\PSoC5/ADC_DelSig_1.c ****                 #if (CY_PSOC3 || CY_PSOC5LP)
1302:.\Generated_Source\PSoC5/ADC_DelSig_1.c ****                     #if (ADC_DelSig_1_CFG3_INPUT_RANGE == ADC_DelSig_1_IR_VSSA_TO_2VREF)
1303:.\Generated_Source\PSoC5/ADC_DelSig_1.c ****                         ADC_DelSig_1_AMux_Select(1);
1304:.\Generated_Source\PSoC5/ADC_DelSig_1.c ****                     #else
1305:.\Generated_Source\PSoC5/ADC_DelSig_1.c ****                         ADC_DelSig_1_AMux_Select(0);
1306:.\Generated_Source\PSoC5/ADC_DelSig_1.c ****                     #endif /* ADC_DelSig_1_IR_VSSA_TO_2VREF) */
1307:.\Generated_Source\PSoC5/ADC_DelSig_1.c ****                 #elif (CY_PSOC5A)
1308:.\Generated_Source\PSoC5/ADC_DelSig_1.c ****                     ADC_DelSig_1_AMux_Select(0);
1309:.\Generated_Source\PSoC5/ADC_DelSig_1.c ****                 #endif /* CY_PSOC3 || CY_PSOC5LP */
1310:.\Generated_Source\PSoC5/ADC_DelSig_1.c ****             #endif /* ADC_DelSig_1_DEFAULT_INPUT_MODE */
1311:.\Generated_Source\PSoC5/ADC_DelSig_1.c ****                        
1312:.\Generated_Source\PSoC5/ADC_DelSig_1.c ****             /* Set the Conversion stop if resolution is above 16 bit and 
1313:.\Generated_Source\PSoC5/ADC_DelSig_1.c ****                conversion  mode is Single sample */
1314:.\Generated_Source\PSoC5/ADC_DelSig_1.c ****             #if(ADC_DelSig_1_CFG3_RESOLUTION > 16 && \
1315:.\Generated_Source\PSoC5/ADC_DelSig_1.c ****                 ADC_DelSig_1_CFG3_CONVMODE == ADC_DelSig_1_MODE_SINGLE_SAMPLE) 
1316:.\Generated_Source\PSoC5/ADC_DelSig_1.c ****                 ADC_DelSig_1_stopConversion = 1;
1317:.\Generated_Source\PSoC5/ADC_DelSig_1.c ****             #endif /* Single sample with resolution above 16 bits */
1318:.\Generated_Source\PSoC5/ADC_DelSig_1.c ****             
1319:.\Generated_Source\PSoC5/ADC_DelSig_1.c ****             ADC_DelSig_1_CountsPerVolt = (uint32)ADC_DelSig_1_CFG3_COUNTS_PER_VOLT;
 2236              		.loc 1 1319 0
 2237 0630 40F20003 		movw	r3, #:lower16:ADC_DelSig_1_CountsPerVolt
 2238 0634 C0F20003 		movt	r3, #:upper16:ADC_DelSig_1_CountsPerVolt
 2239 0638 4FF4FA42 		mov	r2, #32000
 2240 063c 1A60     		str	r2, [r3, #0]
1320:.\Generated_Source\PSoC5/ADC_DelSig_1.c ****             
1321:.\Generated_Source\PSoC5/ADC_DelSig_1.c ****             /* Start and set interrupt vector */
1322:.\Generated_Source\PSoC5/ADC_DelSig_1.c ****             CyIntSetPriority(ADC_DelSig_1_IRQ__INTC_NUMBER, ADC_DelSig_1_IRQ_INTC_PRIOR_NUMBER);
 2241              		.loc 1 1322 0
 2242 063e 4FF01D00 		mov	r0, #29
 2243 0642 4FF00701 		mov	r1, #7
 2244 0646 FFF7FEFF 		bl	CyIntSetPriority
1323:.\Generated_Source\PSoC5/ADC_DelSig_1.c ****             CyIntSetVector(ADC_DelSig_1_IRQ__INTC_NUMBER, ADC_DelSig_1_ISR3 );
 2245              		.loc 1 1323 0
 2246 064a 4FF01D00 		mov	r0, #29
 2247 064e 40F20001 		movw	r1, #:lower16:ADC_DelSig_1_ISR3
 2248 0652 C0F20001 		movt	r1, #:upper16:ADC_DelSig_1_ISR3
 2249 0656 FFF7FEFF 		bl	CyIntSetVector
1324:.\Generated_Source\PSoC5/ADC_DelSig_1.c ****             CyIntEnable(ADC_DelSig_1_IRQ__INTC_NUMBER);
 2250              		.loc 1 1324 0
 2251 065a 4EF20013 		movw	r3, #:lower16:-536813312
 2252 065e CEF20003 		movt	r3, #:upper16:-536813312
 2253 0662 4FF00052 		mov	r2, #536870912
 2254 0666 1A60     		str	r2, [r3, #0]
 2255              	.L87:
1325:.\Generated_Source\PSoC5/ADC_DelSig_1.c ****         }
1326:.\Generated_Source\PSoC5/ADC_DelSig_1.c ****     #endif /* ADC_DelSig_1_DEFAULT_NUM_CONFIGS > 3 */
1327:.\Generated_Source\PSoC5/ADC_DelSig_1.c **** 
1328:.\Generated_Source\PSoC5/ADC_DelSig_1.c ****     #if(ADC_DelSig_1_DEFAULT_NUM_CONFIGS == 4)
1329:.\Generated_Source\PSoC5/ADC_DelSig_1.c ****         if (config == 4u)
 2256              		.loc 1 1329 0
 2257 0668 FB79     		ldrb	r3, [r7, #7]	@ zero_extendqisi2
 2258 066a 042B     		cmp	r3, #4
ARM GAS  C:\Users\karunmj\AppData\Local\Temp\ccZ3DH5A.s 			page 64


 2259 066c 40F0E480 		bne	.L89
1330:.\Generated_Source\PSoC5/ADC_DelSig_1.c ****         {
1331:.\Generated_Source\PSoC5/ADC_DelSig_1.c ****             /* Fourth Config */
1332:.\Generated_Source\PSoC5/ADC_DelSig_1.c ****             ADC_DelSig_1_DEC_CR_REG      = ADC_DelSig_1_CFG4_DEC_CR;      
 2260              		.loc 1 1332 0
 2261 0670 44F60063 		movw	r3, #:lower16:1073761792
 2262 0674 C4F20003 		movt	r3, #:upper16:1073761792
 2263 0678 4FF07C02 		mov	r2, #124
 2264 067c 1A70     		strb	r2, [r3, #0]
1333:.\Generated_Source\PSoC5/ADC_DelSig_1.c ****             ADC_DelSig_1_DEC_SHIFT1_REG  = ADC_DelSig_1_CFG4_DEC_SHIFT1;  
 2265              		.loc 1 1333 0
 2266 067e 44F60263 		movw	r3, #:lower16:1073761794
 2267 0682 C4F20003 		movt	r3, #:upper16:1073761794
 2268 0686 4FF00402 		mov	r2, #4
 2269 068a 1A70     		strb	r2, [r3, #0]
1334:.\Generated_Source\PSoC5/ADC_DelSig_1.c ****             ADC_DelSig_1_DEC_SHIFT2_REG  = ADC_DelSig_1_CFG4_DEC_SHIFT2;  
 2270              		.loc 1 1334 0
 2271 068c 44F60363 		movw	r3, #:lower16:1073761795
 2272 0690 C4F20003 		movt	r3, #:upper16:1073761795
 2273 0694 4FF00902 		mov	r2, #9
 2274 0698 1A70     		strb	r2, [r3, #0]
1335:.\Generated_Source\PSoC5/ADC_DelSig_1.c ****             ADC_DelSig_1_DEC_DR2_REG     = ADC_DelSig_1_CFG4_DEC_DR2;     
 2275              		.loc 1 1335 0
 2276 069a 44F60463 		movw	r3, #:lower16:1073761796
 2277 069e C4F20003 		movt	r3, #:upper16:1073761796
 2278 06a2 4FF00F02 		mov	r2, #15
 2279 06a6 1A70     		strb	r2, [r3, #0]
1336:.\Generated_Source\PSoC5/ADC_DelSig_1.c ****             ADC_DelSig_1_DEC_DR2H_REG    = ADC_DelSig_1_CFG4_DEC_DR2H;    
 2280              		.loc 1 1336 0
 2281 06a8 44F60563 		movw	r3, #:lower16:1073761797
 2282 06ac C4F20003 		movt	r3, #:upper16:1073761797
 2283 06b0 4FF00002 		mov	r2, #0
 2284 06b4 1A70     		strb	r2, [r3, #0]
1337:.\Generated_Source\PSoC5/ADC_DelSig_1.c ****             ADC_DelSig_1_DEC_DR1_REG     = ADC_DelSig_1_CFG4_DEC_DR1;     
 2285              		.loc 1 1337 0
 2286 06b6 44F60663 		movw	r3, #:lower16:1073761798
 2287 06ba C4F20003 		movt	r3, #:upper16:1073761798
 2288 06be 4FF03F02 		mov	r2, #63
 2289 06c2 1A70     		strb	r2, [r3, #0]
1338:.\Generated_Source\PSoC5/ADC_DelSig_1.c ****             ADC_DelSig_1_DEC_OCOR_REG    = ADC_DelSig_1_CFG4_DEC_OCOR;    
 2290              		.loc 1 1338 0
 2291 06c4 44F60863 		movw	r3, #:lower16:1073761800
 2292 06c8 C4F20003 		movt	r3, #:upper16:1073761800
 2293 06cc 4FF00002 		mov	r2, #0
 2294 06d0 1A70     		strb	r2, [r3, #0]
1339:.\Generated_Source\PSoC5/ADC_DelSig_1.c ****             ADC_DelSig_1_DEC_OCORM_REG   = ADC_DelSig_1_CFG4_DEC_OCORM;   
 2295              		.loc 1 1339 0
 2296 06d2 44F60963 		movw	r3, #:lower16:1073761801
 2297 06d6 C4F20003 		movt	r3, #:upper16:1073761801
 2298 06da 4FF00002 		mov	r2, #0
 2299 06de 1A70     		strb	r2, [r3, #0]
1340:.\Generated_Source\PSoC5/ADC_DelSig_1.c ****             ADC_DelSig_1_DEC_OCORH_REG   = ADC_DelSig_1_CFG4_DEC_OCORH;   
 2300              		.loc 1 1340 0
 2301 06e0 44F60A63 		movw	r3, #:lower16:1073761802
 2302 06e4 C4F20003 		movt	r3, #:upper16:1073761802
 2303 06e8 4FF00002 		mov	r2, #0
 2304 06ec 1A70     		strb	r2, [r3, #0]
ARM GAS  C:\Users\karunmj\AppData\Local\Temp\ccZ3DH5A.s 			page 65


1341:.\Generated_Source\PSoC5/ADC_DelSig_1.c **** 
1342:.\Generated_Source\PSoC5/ADC_DelSig_1.c ****             ADC_DelSig_1_DSM_CR4_REG     = ADC_DelSig_1_CFG4_DSM_CR4;     
 2305              		.loc 1 1342 0
 2306 06ee 45F68403 		movw	r3, #:lower16:1073764484
 2307 06f2 C4F20003 		movt	r3, #:upper16:1073764484
 2308 06f6 4FF05002 		mov	r2, #80
 2309 06fa 1A70     		strb	r2, [r3, #0]
1343:.\Generated_Source\PSoC5/ADC_DelSig_1.c ****             ADC_DelSig_1_DSM_CR5_REG     = ADC_DelSig_1_CFG4_DSM_CR5;     
 2310              		.loc 1 1343 0
 2311 06fc 45F68503 		movw	r3, #:lower16:1073764485
 2312 0700 C4F20003 		movt	r3, #:upper16:1073764485
 2313 0704 4FF00A02 		mov	r2, #10
 2314 0708 1A70     		strb	r2, [r3, #0]
1344:.\Generated_Source\PSoC5/ADC_DelSig_1.c ****             ADC_DelSig_1_DSM_CR6_REG     = ADC_DelSig_1_CFG4_DSM_CR6;     
 2315              		.loc 1 1344 0
 2316 070a 45F68603 		movw	r3, #:lower16:1073764486
 2317 070e C4F20003 		movt	r3, #:upper16:1073764486
 2318 0712 4FF03C02 		mov	r2, #60
 2319 0716 1A70     		strb	r2, [r3, #0]
1345:.\Generated_Source\PSoC5/ADC_DelSig_1.c ****             ADC_DelSig_1_DSM_CR7_REG     = ADC_DelSig_1_CFG4_DSM_CR7;     
 2320              		.loc 1 1345 0
 2321 0718 45F68703 		movw	r3, #:lower16:1073764487
 2322 071c C4F20003 		movt	r3, #:upper16:1073764487
 2323 0720 4FF00002 		mov	r2, #0
 2324 0724 1A70     		strb	r2, [r3, #0]
1346:.\Generated_Source\PSoC5/ADC_DelSig_1.c ****             ADC_DelSig_1_DSM_CR8_REG     = ADC_DelSig_1_CFG4_DSM_CR8;     
 2325              		.loc 1 1346 0
 2326 0726 45F68803 		movw	r3, #:lower16:1073764488
 2327 072a C4F20003 		movt	r3, #:upper16:1073764488
 2328 072e 4FF01202 		mov	r2, #18
 2329 0732 1A70     		strb	r2, [r3, #0]
1347:.\Generated_Source\PSoC5/ADC_DelSig_1.c ****             ADC_DelSig_1_DSM_CR9_REG     = ADC_DelSig_1_CFG4_DSM_CR9;     
 2330              		.loc 1 1347 0
 2331 0734 45F68903 		movw	r3, #:lower16:1073764489
 2332 0738 C4F20003 		movt	r3, #:upper16:1073764489
 2333 073c 4FF01302 		mov	r2, #19
 2334 0740 1A70     		strb	r2, [r3, #0]
1348:.\Generated_Source\PSoC5/ADC_DelSig_1.c ****             ADC_DelSig_1_DSM_CR10_REG    = ADC_DelSig_1_CFG4_DSM_CR10;    
 2335              		.loc 1 1348 0
 2336 0742 45F68A03 		movw	r3, #:lower16:1073764490
 2337 0746 C4F20003 		movt	r3, #:upper16:1073764490
 2338 074a 4FF04402 		mov	r2, #68
 2339 074e 1A70     		strb	r2, [r3, #0]
1349:.\Generated_Source\PSoC5/ADC_DelSig_1.c ****             ADC_DelSig_1_DSM_CR11_REG    = ADC_DelSig_1_CFG4_DSM_CR11;    
 2340              		.loc 1 1349 0
 2341 0750 45F68B03 		movw	r3, #:lower16:1073764491
 2342 0754 C4F20003 		movt	r3, #:upper16:1073764491
 2343 0758 4FF04802 		mov	r2, #72
 2344 075c 1A70     		strb	r2, [r3, #0]
1350:.\Generated_Source\PSoC5/ADC_DelSig_1.c ****             ADC_DelSig_1_DSM_CR12_REG    = ADC_DelSig_1_CFG4_DSM_CR12;    
 2345              		.loc 1 1350 0
 2346 075e 45F68C03 		movw	r3, #:lower16:1073764492
 2347 0762 C4F20003 		movt	r3, #:upper16:1073764492
 2348 0766 4FF00102 		mov	r2, #1
 2349 076a 1A70     		strb	r2, [r3, #0]
1351:.\Generated_Source\PSoC5/ADC_DelSig_1.c ****             ADC_DelSig_1_DSM_CR14_REG    = ADC_DelSig_1_CFG4_DSM_CR14;    
 2350              		.loc 1 1351 0
ARM GAS  C:\Users\karunmj\AppData\Local\Temp\ccZ3DH5A.s 			page 66


 2351 076c 45F68E03 		movw	r3, #:lower16:1073764494
 2352 0770 C4F20003 		movt	r3, #:upper16:1073764494
 2353 0774 4FF00202 		mov	r2, #2
 2354 0778 1A70     		strb	r2, [r3, #0]
1352:.\Generated_Source\PSoC5/ADC_DelSig_1.c ****             ADC_DelSig_1_DSM_CR15_REG    = ADC_DelSig_1_CFG4_DSM_CR15;    
 2355              		.loc 1 1352 0
 2356 077a 45F68F03 		movw	r3, #:lower16:1073764495
 2357 077e C4F20003 		movt	r3, #:upper16:1073764495
 2358 0782 4FF01202 		mov	r2, #18
 2359 0786 1A70     		strb	r2, [r3, #0]
1353:.\Generated_Source\PSoC5/ADC_DelSig_1.c ****             ADC_DelSig_1_DSM_CR16_REG    = ADC_DelSig_1_CFG4_DSM_CR16;    
 2360              		.loc 1 1353 0
 2361 0788 45F69003 		movw	r3, #:lower16:1073764496
 2362 078c C4F20003 		movt	r3, #:upper16:1073764496
 2363 0790 4FF02802 		mov	r2, #40
 2364 0794 1A70     		strb	r2, [r3, #0]
1354:.\Generated_Source\PSoC5/ADC_DelSig_1.c ****             ADC_DelSig_1_DSM_CR17_REG    = ADC_DelSig_1_CFG4_DSM_CR17;
 2365              		.loc 1 1354 0
 2366 0796 45F69103 		movw	r3, #:lower16:1073764497
 2367 079a C4F20003 		movt	r3, #:upper16:1073764497
 2368 079e 6FF01402 		mvn	r2, #20
 2369 07a2 1A70     		strb	r2, [r3, #0]
1355:.\Generated_Source\PSoC5/ADC_DelSig_1.c **** 			/* Set DSM_REF0_REG by disabling and enabling the PRESS cirucit */
1356:.\Generated_Source\PSoC5/ADC_DelSig_1.c **** 			ADC_DelSig_1_SetDSMRef0Reg(ADC_DelSig_1_CFG4_DSM_REF0);
 2370              		.loc 1 1356 0
 2371 07a4 4FF04400 		mov	r0, #68
 2372 07a8 FFF7FEFF 		bl	ADC_DelSig_1_SetDSMRef0Reg
1357:.\Generated_Source\PSoC5/ADC_DelSig_1.c ****             ADC_DelSig_1_DSM_REF2_REG    = ADC_DelSig_1_CFG4_DSM_REF2;    
 2373              		.loc 1 1357 0
 2374 07ac 45F69403 		movw	r3, #:lower16:1073764500
 2375 07b0 C4F20003 		movt	r3, #:upper16:1073764500
 2376 07b4 4FF05802 		mov	r2, #88
 2377 07b8 1A70     		strb	r2, [r3, #0]
1358:.\Generated_Source\PSoC5/ADC_DelSig_1.c ****             ADC_DelSig_1_DSM_REF3_REG    = ADC_DelSig_1_CFG4_DSM_REF3;    
 2378              		.loc 1 1358 0
 2379 07ba 45F69503 		movw	r3, #:lower16:1073764501
 2380 07be C4F20003 		movt	r3, #:upper16:1073764501
 2381 07c2 4FF00002 		mov	r2, #0
 2382 07c6 1A70     		strb	r2, [r3, #0]
1359:.\Generated_Source\PSoC5/ADC_DelSig_1.c ****         
1360:.\Generated_Source\PSoC5/ADC_DelSig_1.c ****             ADC_DelSig_1_DSM_BUF0_REG    = ADC_DelSig_1_CFG4_DSM_BUF0;    
 2383              		.loc 1 1360 0
 2384 07c8 45F69A03 		movw	r3, #:lower16:1073764506
 2385 07cc C4F20003 		movt	r3, #:upper16:1073764506
 2386 07d0 4FF00502 		mov	r2, #5
 2387 07d4 1A70     		strb	r2, [r3, #0]
1361:.\Generated_Source\PSoC5/ADC_DelSig_1.c ****             ADC_DelSig_1_DSM_BUF1_REG    = ADC_DelSig_1_CFG4_DSM_BUF1;    
 2388              		.loc 1 1361 0
 2389 07d6 45F69B03 		movw	r3, #:lower16:1073764507
 2390 07da C4F20003 		movt	r3, #:upper16:1073764507
 2391 07de 4FF00102 		mov	r2, #1
 2392 07e2 1A70     		strb	r2, [r3, #0]
1362:.\Generated_Source\PSoC5/ADC_DelSig_1.c ****             ADC_DelSig_1_DSM_BUF2_REG    = ADC_DelSig_1_CFG4_DSM_BUF2;
 2393              		.loc 1 1362 0
 2394 07e4 45F69C03 		movw	r3, #:lower16:1073764508
 2395 07e8 C4F20003 		movt	r3, #:upper16:1073764508
 2396 07ec 4FF00002 		mov	r2, #0
ARM GAS  C:\Users\karunmj\AppData\Local\Temp\ccZ3DH5A.s 			page 67


 2397 07f0 1A70     		strb	r2, [r3, #0]
1363:.\Generated_Source\PSoC5/ADC_DelSig_1.c ****             ADC_DelSig_1_DSM_BUF3_REG    = ADC_DelSig_1_CFG4_DSM_BUF3;
 2398              		.loc 1 1363 0
 2399 07f2 45F69D03 		movw	r3, #:lower16:1073764509
 2400 07f6 C4F20003 		movt	r3, #:upper16:1073764509
 2401 07fa 4FF00A02 		mov	r2, #10
 2402 07fe 1A70     		strb	r2, [r3, #0]
1364:.\Generated_Source\PSoC5/ADC_DelSig_1.c ****             #if (CY_PSOC5A)
1365:.\Generated_Source\PSoC5/ADC_DelSig_1.c ****                 ADC_DelSig_1_DSM_CLK_REG    |= ADC_DelSig_1_CFG1_DSM_CLK; 
1366:.\Generated_Source\PSoC5/ADC_DelSig_1.c ****             #endif /* CY_PSOC5A */
1367:.\Generated_Source\PSoC5/ADC_DelSig_1.c ****             
1368:.\Generated_Source\PSoC5/ADC_DelSig_1.c ****             /* To select either Vssa or Vref to -ve input of DSM depending on 
1369:.\Generated_Source\PSoC5/ADC_DelSig_1.c ****                the input range selected.
1370:.\Generated_Source\PSoC5/ADC_DelSig_1.c ****             */
1371:.\Generated_Source\PSoC5/ADC_DelSig_1.c ****             
1372:.\Generated_Source\PSoC5/ADC_DelSig_1.c ****             #if(ADC_DelSig_1_DEFAULT_INPUT_MODE)
1373:.\Generated_Source\PSoC5/ADC_DelSig_1.c ****                 #if (CY_PSOC3 || CY_PSOC5LP)
1374:.\Generated_Source\PSoC5/ADC_DelSig_1.c ****                     #if (ADC_DelSig_1_CFG4_INPUT_RANGE == ADC_DelSig_1_IR_VSSA_TO_2VREF)
1375:.\Generated_Source\PSoC5/ADC_DelSig_1.c ****                         ADC_DelSig_1_AMux_Select(1);
1376:.\Generated_Source\PSoC5/ADC_DelSig_1.c ****                     #else
1377:.\Generated_Source\PSoC5/ADC_DelSig_1.c ****                         ADC_DelSig_1_AMux_Select(0);
1378:.\Generated_Source\PSoC5/ADC_DelSig_1.c ****                     #endif /* ADC_DelSig_1_IR_VSSA_TO_2VREF) */
1379:.\Generated_Source\PSoC5/ADC_DelSig_1.c ****                 #elif (CY_PSOC5A)
1380:.\Generated_Source\PSoC5/ADC_DelSig_1.c ****                     ADC_DelSig_1_AMux_Select(0);
1381:.\Generated_Source\PSoC5/ADC_DelSig_1.c ****                 #endif /* CY_PSOC3 || CY_PSOC5LP */
1382:.\Generated_Source\PSoC5/ADC_DelSig_1.c ****             #endif /* ADC_DelSig_1_DEFAULT_INPUT_MODE */
1383:.\Generated_Source\PSoC5/ADC_DelSig_1.c ****                        
1384:.\Generated_Source\PSoC5/ADC_DelSig_1.c ****             /* Set the Conversion stop if resolution is above 16 bit and 
1385:.\Generated_Source\PSoC5/ADC_DelSig_1.c ****                conversion mode is Single sample */
1386:.\Generated_Source\PSoC5/ADC_DelSig_1.c ****             #if(ADC_DelSig_1_CFG4_RESOLUTION > 16 && \
1387:.\Generated_Source\PSoC5/ADC_DelSig_1.c ****                 ADC_DelSig_1_CFG4_CONVMODE == ADC_DelSig_1_MODE_SINGLE_SAMPLE) 
1388:.\Generated_Source\PSoC5/ADC_DelSig_1.c ****                 ADC_DelSig_1_stopConversion = 1;
1389:.\Generated_Source\PSoC5/ADC_DelSig_1.c ****             #endif /* Single sample with resolution above 16 bits */
1390:.\Generated_Source\PSoC5/ADC_DelSig_1.c ****             
1391:.\Generated_Source\PSoC5/ADC_DelSig_1.c ****             ADC_DelSig_1_CountsPerVolt = (uint32)ADC_DelSig_1_CFG4_COUNTS_PER_VOLT;
 2403              		.loc 1 1391 0
 2404 0800 40F20003 		movw	r3, #:lower16:ADC_DelSig_1_CountsPerVolt
 2405 0804 C0F20003 		movt	r3, #:upper16:ADC_DelSig_1_CountsPerVolt
 2406 0808 45F25532 		movw	r2, #21333
 2407 080c 1A60     		str	r2, [r3, #0]
1392:.\Generated_Source\PSoC5/ADC_DelSig_1.c **** 
1393:.\Generated_Source\PSoC5/ADC_DelSig_1.c ****             /* Start and set interrupt vector */
1394:.\Generated_Source\PSoC5/ADC_DelSig_1.c ****             CyIntSetPriority(ADC_DelSig_1_IRQ__INTC_NUMBER, ADC_DelSig_1_IRQ_INTC_PRIOR_NUMBER);
 2408              		.loc 1 1394 0
 2409 080e 4FF01D00 		mov	r0, #29
 2410 0812 4FF00701 		mov	r1, #7
 2411 0816 FFF7FEFF 		bl	CyIntSetPriority
1395:.\Generated_Source\PSoC5/ADC_DelSig_1.c ****             CyIntSetVector(ADC_DelSig_1_IRQ__INTC_NUMBER, ADC_DelSig_1_ISR4 );
 2412              		.loc 1 1395 0
 2413 081a 4FF01D00 		mov	r0, #29
 2414 081e 40F20001 		movw	r1, #:lower16:ADC_DelSig_1_ISR4
 2415 0822 C0F20001 		movt	r1, #:upper16:ADC_DelSig_1_ISR4
 2416 0826 FFF7FEFF 		bl	CyIntSetVector
1396:.\Generated_Source\PSoC5/ADC_DelSig_1.c ****             CyIntEnable(ADC_DelSig_1_IRQ__INTC_NUMBER);
 2417              		.loc 1 1396 0
 2418 082a 4EF20013 		movw	r3, #:lower16:-536813312
 2419 082e CEF20003 		movt	r3, #:upper16:-536813312
ARM GAS  C:\Users\karunmj\AppData\Local\Temp\ccZ3DH5A.s 			page 68


 2420 0832 4FF00052 		mov	r2, #536870912
 2421 0836 1A60     		str	r2, [r3, #0]
 2422              	.L89:
1397:.\Generated_Source\PSoC5/ADC_DelSig_1.c ****         }
1398:.\Generated_Source\PSoC5/ADC_DelSig_1.c ****     #endif /* ADC_DelSig_1_DEFAULT_NUM_CONFIGS > 4 */
1399:.\Generated_Source\PSoC5/ADC_DelSig_1.c **** }
 2423              		.loc 1 1399 0
 2424 0838 07F10807 		add	r7, r7, #8
 2425 083c BD46     		mov	sp, r7
 2426 083e 80BD     		pop	{r7, pc}
 2427              		.cfi_endproc
 2428              	.LFE21:
 2429              		.size	ADC_DelSig_1_InitConfig, .-ADC_DelSig_1_InitConfig
 2430              		.section	.text.ADC_DelSig_1_RoundValue,"ax",%progbits
 2431              		.align	2
 2432              		.global	ADC_DelSig_1_RoundValue
 2433              		.thumb
 2434              		.thumb_func
 2435              		.type	ADC_DelSig_1_RoundValue, %function
 2436              	ADC_DelSig_1_RoundValue:
 2437              	.LFB22:
1400:.\Generated_Source\PSoC5/ADC_DelSig_1.c **** 
1401:.\Generated_Source\PSoC5/ADC_DelSig_1.c **** 
1402:.\Generated_Source\PSoC5/ADC_DelSig_1.c **** /*******************************************************************************
1403:.\Generated_Source\PSoC5/ADC_DelSig_1.c **** * Function Name: ADC_DelSig_1_RoundValue(uint32 busClockFreq, 
1404:.\Generated_Source\PSoC5/ADC_DelSig_1.c **** *                                            uint32 clockFreq)
1405:.\Generated_Source\PSoC5/ADC_DelSig_1.c **** ********************************************************************************
1406:.\Generated_Source\PSoC5/ADC_DelSig_1.c **** *
1407:.\Generated_Source\PSoC5/ADC_DelSig_1.c **** * Summary:
1408:.\Generated_Source\PSoC5/ADC_DelSig_1.c **** *  Function to round an integer value.
1409:.\Generated_Source\PSoC5/ADC_DelSig_1.c **** *
1410:.\Generated_Source\PSoC5/ADC_DelSig_1.c **** * Parameters:  
1411:.\Generated_Source\PSoC5/ADC_DelSig_1.c **** *  busClockFreq:  Frequency of the bus clock.
1412:.\Generated_Source\PSoC5/ADC_DelSig_1.c **** *  clockFreq:  Frequency of the component clock.
1413:.\Generated_Source\PSoC5/ADC_DelSig_1.c **** *
1414:.\Generated_Source\PSoC5/ADC_DelSig_1.c **** * Return: 
1415:.\Generated_Source\PSoC5/ADC_DelSig_1.c **** *  uint16: rounded integer value.
1416:.\Generated_Source\PSoC5/ADC_DelSig_1.c **** *
1417:.\Generated_Source\PSoC5/ADC_DelSig_1.c **** *******************************************************************************/
1418:.\Generated_Source\PSoC5/ADC_DelSig_1.c **** uint16 ADC_DelSig_1_RoundValue(uint32 busClockFreq, uint32 clockFreq) \
1419:.\Generated_Source\PSoC5/ADC_DelSig_1.c ****                                   
1420:.\Generated_Source\PSoC5/ADC_DelSig_1.c **** {
 2438              		.loc 1 1420 0
 2439              		.cfi_startproc
 2440              		@ args = 0, pretend = 0, frame = 16
 2441              		@ frame_needed = 1, uses_anonymous_args = 0
 2442              		@ link register save eliminated.
 2443 0000 80B4     		push	{r7}
 2444              	.LCFI58:
 2445              		.cfi_def_cfa_offset 4
 2446 0002 85B0     		sub	sp, sp, #20
 2447              	.LCFI59:
 2448              		.cfi_def_cfa_offset 24
 2449 0004 00AF     		add	r7, sp, #0
 2450              		.cfi_offset 7, -4
 2451              	.LCFI60:
 2452              		.cfi_def_cfa_register 7
ARM GAS  C:\Users\karunmj\AppData\Local\Temp\ccZ3DH5A.s 			page 69


 2453 0006 7860     		str	r0, [r7, #4]
 2454 0008 3960     		str	r1, [r7, #0]
1421:.\Generated_Source\PSoC5/ADC_DelSig_1.c ****     uint16 divider1, divider2;
1422:.\Generated_Source\PSoC5/ADC_DelSig_1.c ****     
1423:.\Generated_Source\PSoC5/ADC_DelSig_1.c ****     divider1 = ((busClockFreq * 10) / clockFreq);
 2455              		.loc 1 1423 0
 2456 000a 7A68     		ldr	r2, [r7, #4]
 2457 000c 1346     		mov	r3, r2
 2458 000e 4FEA8303 		lsl	r3, r3, #2
 2459 0012 1344     		add	r3, r3, r2
 2460 0014 4FEA4303 		lsl	r3, r3, #1
 2461 0018 1A46     		mov	r2, r3
 2462 001a 3B68     		ldr	r3, [r7, #0]
 2463 001c B2FBF3F3 		udiv	r3, r2, r3
 2464 0020 BB81     		strh	r3, [r7, #12]	@ movhi
1424:.\Generated_Source\PSoC5/ADC_DelSig_1.c ****     divider2 = (busClockFreq / clockFreq);
 2465              		.loc 1 1424 0
 2466 0022 7A68     		ldr	r2, [r7, #4]
 2467 0024 3B68     		ldr	r3, [r7, #0]
 2468 0026 B2FBF3F3 		udiv	r3, r2, r3
 2469 002a FB81     		strh	r3, [r7, #14]	@ movhi
1425:.\Generated_Source\PSoC5/ADC_DelSig_1.c ****     if ( divider1 - (divider2 * 10) >= 5)
 2470              		.loc 1 1425 0
 2471 002c BA89     		ldrh	r2, [r7, #12]
 2472 002e FB89     		ldrh	r3, [r7, #14]
 2473 0030 6FF00901 		mvn	r1, #9
 2474 0034 01FB03F3 		mul	r3, r1, r3
 2475 0038 1344     		add	r3, r2, r3
 2476 003a 042B     		cmp	r3, #4
 2477 003c 03DD     		ble	.L91
1426:.\Generated_Source\PSoC5/ADC_DelSig_1.c ****     {
1427:.\Generated_Source\PSoC5/ADC_DelSig_1.c ****         divider2 += 1;
 2478              		.loc 1 1427 0
 2479 003e FB89     		ldrh	r3, [r7, #14]	@ movhi
 2480 0040 03F10103 		add	r3, r3, #1
 2481 0044 FB81     		strh	r3, [r7, #14]	@ movhi
 2482              	.L91:
1428:.\Generated_Source\PSoC5/ADC_DelSig_1.c ****     }
1429:.\Generated_Source\PSoC5/ADC_DelSig_1.c ****     return divider2;
 2483              		.loc 1 1429 0
 2484 0046 FB89     		ldrh	r3, [r7, #14]
1430:.\Generated_Source\PSoC5/ADC_DelSig_1.c **** }
 2485              		.loc 1 1430 0
 2486 0048 1846     		mov	r0, r3
 2487 004a 07F11407 		add	r7, r7, #20
 2488 004e BD46     		mov	sp, r7
 2489 0050 80BC     		pop	{r7}
 2490 0052 7047     		bx	lr
 2491              		.cfi_endproc
 2492              	.LFE22:
 2493              		.size	ADC_DelSig_1_RoundValue, .-ADC_DelSig_1_RoundValue
 2494              		.section	.text.ADC_DelSig_1_SelectConfiguration,"ax",%progbits
 2495              		.align	2
 2496              		.global	ADC_DelSig_1_SelectConfiguration
 2497              		.thumb
 2498              		.thumb_func
 2499              		.type	ADC_DelSig_1_SelectConfiguration, %function
ARM GAS  C:\Users\karunmj\AppData\Local\Temp\ccZ3DH5A.s 			page 70


 2500              	ADC_DelSig_1_SelectConfiguration:
 2501              	.LFB23:
1431:.\Generated_Source\PSoC5/ADC_DelSig_1.c ****          
1432:.\Generated_Source\PSoC5/ADC_DelSig_1.c **** 
1433:.\Generated_Source\PSoC5/ADC_DelSig_1.c **** /*******************************************************************************
1434:.\Generated_Source\PSoC5/ADC_DelSig_1.c **** * Function Name: ADC_DelSig_1_SelectCofiguration(uint8 config, 
1435:.\Generated_Source\PSoC5/ADC_DelSig_1.c **** *                                                    uint8 restart)
1436:.\Generated_Source\PSoC5/ADC_DelSig_1.c **** ********************************************************************************
1437:.\Generated_Source\PSoC5/ADC_DelSig_1.c **** *
1438:.\Generated_Source\PSoC5/ADC_DelSig_1.c **** * Summary:
1439:.\Generated_Source\PSoC5/ADC_DelSig_1.c **** *  Selects the user defined configuration. This API first stops the current ADC
1440:.\Generated_Source\PSoC5/ADC_DelSig_1.c **** *  and then initializes the registers with the default values for that config. 
1441:.\Generated_Source\PSoC5/ADC_DelSig_1.c **** *  This also performs calibration by writing GCOR registers with trim values 
1442:.\Generated_Source\PSoC5/ADC_DelSig_1.c **** *  stored in the flash.
1443:.\Generated_Source\PSoC5/ADC_DelSig_1.c **** *
1444:.\Generated_Source\PSoC5/ADC_DelSig_1.c **** * Parameters:  
1445:.\Generated_Source\PSoC5/ADC_DelSig_1.c **** *  config:  configuration user wants to select.
1446:.\Generated_Source\PSoC5/ADC_DelSig_1.c **** *
1447:.\Generated_Source\PSoC5/ADC_DelSig_1.c **** * Return: 
1448:.\Generated_Source\PSoC5/ADC_DelSig_1.c **** *  void
1449:.\Generated_Source\PSoC5/ADC_DelSig_1.c **** *
1450:.\Generated_Source\PSoC5/ADC_DelSig_1.c **** *******************************************************************************/
1451:.\Generated_Source\PSoC5/ADC_DelSig_1.c **** void ADC_DelSig_1_SelectConfiguration(uint8 config, uint8 restart) \
1452:.\Generated_Source\PSoC5/ADC_DelSig_1.c ****                                               
1453:.\Generated_Source\PSoC5/ADC_DelSig_1.c **** {
 2502              		.loc 1 1453 0
 2503              		.cfi_startproc
 2504              		@ args = 0, pretend = 0, frame = 24
 2505              		@ frame_needed = 1, uses_anonymous_args = 0
 2506 0000 80B5     		push	{r7, lr}
 2507              	.LCFI61:
 2508              		.cfi_def_cfa_offset 8
 2509 0002 86B0     		sub	sp, sp, #24
 2510              	.LCFI62:
 2511              		.cfi_def_cfa_offset 32
 2512 0004 00AF     		add	r7, sp, #0
 2513              		.cfi_offset 14, -4
 2514              		.cfi_offset 7, -8
 2515              	.LCFI63:
 2516              		.cfi_def_cfa_register 7
 2517 0006 0246     		mov	r2, r0
 2518 0008 0B46     		mov	r3, r1
 2519 000a FA71     		strb	r2, [r7, #7]
 2520 000c BB71     		strb	r3, [r7, #6]
1454:.\Generated_Source\PSoC5/ADC_DelSig_1.c ****     uint8 inputRange = 0, resolution = 16;
 2521              		.loc 1 1454 0
 2522 000e 4FF00003 		mov	r3, #0
 2523 0012 BB73     		strb	r3, [r7, #14]
 2524 0014 4FF01003 		mov	r3, #16
 2525 0018 FB73     		strb	r3, [r7, #15]
1455:.\Generated_Source\PSoC5/ADC_DelSig_1.c ****     uint16 idealGain = 0, adcClockDivider = 1;    
 2526              		.loc 1 1455 0
 2527 001a 4FF00003 		mov	r3, #0
 2528 001e 3B82     		strh	r3, [r7, #16]	@ movhi
 2529 0020 4FF00103 		mov	r3, #1
 2530 0024 7B82     		strh	r3, [r7, #18]	@ movhi
1456:.\Generated_Source\PSoC5/ADC_DelSig_1.c ****     uint16 cpClockDivider = 1;
ARM GAS  C:\Users\karunmj\AppData\Local\Temp\ccZ3DH5A.s 			page 71


 2531              		.loc 1 1456 0
 2532 0026 4FF00103 		mov	r3, #1
 2533 002a BB82     		strh	r3, [r7, #20]	@ movhi
1457:.\Generated_Source\PSoC5/ADC_DelSig_1.c ****     uint16 idealOddGain = 0;
 2534              		.loc 1 1457 0
 2535 002c 4FF00003 		mov	r3, #0
 2536 0030 FB82     		strh	r3, [r7, #22]	@ movhi
1458:.\Generated_Source\PSoC5/ADC_DelSig_1.c ****     
1459:.\Generated_Source\PSoC5/ADC_DelSig_1.c ****     /* Check whether the config is valid or not */
1460:.\Generated_Source\PSoC5/ADC_DelSig_1.c ****     if( config <= ADC_DelSig_1_DEFAULT_NUM_CONFIGS)
 2537              		.loc 1 1460 0
 2538 0032 FB79     		ldrb	r3, [r7, #7]	@ zero_extendqisi2
 2539 0034 042B     		cmp	r3, #4
 2540 0036 00F2D780 		bhi	.L100
1461:.\Generated_Source\PSoC5/ADC_DelSig_1.c ****     {   
1462:.\Generated_Source\PSoC5/ADC_DelSig_1.c ****        /* Set the flag to ensure start() API dont override the config
1463:.\Generated_Source\PSoC5/ADC_DelSig_1.c ****            selected if ADC is not already started */
1464:.\Generated_Source\PSoC5/ADC_DelSig_1.c ****         if(ADC_DelSig_1_initVar == 0u)
 2541              		.loc 1 1464 0
 2542 003a 40F20003 		movw	r3, #:lower16:ADC_DelSig_1_initVar
 2543 003e C0F20003 		movt	r3, #:upper16:ADC_DelSig_1_initVar
 2544 0042 1B78     		ldrb	r3, [r3, #0]	@ zero_extendqisi2
 2545 0044 002B     		cmp	r3, #0
 2546 0046 06D1     		bne	.L95
1465:.\Generated_Source\PSoC5/ADC_DelSig_1.c ****         {
1466:.\Generated_Source\PSoC5/ADC_DelSig_1.c ****             ADC_DelSig_1_started = 1u;
 2547              		.loc 1 1466 0
 2548 0048 40F20003 		movw	r3, #:lower16:ADC_DelSig_1_started
 2549 004c C0F20003 		movt	r3, #:upper16:ADC_DelSig_1_started
 2550 0050 4FF00102 		mov	r2, #1
 2551 0054 1A70     		strb	r2, [r3, #0]
 2552              	.L95:
1467:.\Generated_Source\PSoC5/ADC_DelSig_1.c ****         }
1468:.\Generated_Source\PSoC5/ADC_DelSig_1.c **** 		
1469:.\Generated_Source\PSoC5/ADC_DelSig_1.c **** 		/* Update the config flag */
1470:.\Generated_Source\PSoC5/ADC_DelSig_1.c **** 		ADC_DelSig_1_Config = config;
 2553              		.loc 1 1470 0
 2554 0056 40F20003 		movw	r3, #:lower16:ADC_DelSig_1_Config
 2555 005a C0F20003 		movt	r3, #:upper16:ADC_DelSig_1_Config
 2556 005e FA79     		ldrb	r2, [r7, #7]
 2557 0060 1A70     		strb	r2, [r3, #0]
1471:.\Generated_Source\PSoC5/ADC_DelSig_1.c ****        
1472:.\Generated_Source\PSoC5/ADC_DelSig_1.c ****         /* Stop the ADC  */
1473:.\Generated_Source\PSoC5/ADC_DelSig_1.c ****         ADC_DelSig_1_Stop();
 2558              		.loc 1 1473 0
 2559 0062 FFF7FEFF 		bl	ADC_DelSig_1_Stop
1474:.\Generated_Source\PSoC5/ADC_DelSig_1.c ****         
1475:.\Generated_Source\PSoC5/ADC_DelSig_1.c ****         #if (CY_PSOC5A)
1476:.\Generated_Source\PSoC5/ADC_DelSig_1.c ****             /* Set the structure field which checks whether or not to
1477:.\Generated_Source\PSoC5/ADC_DelSig_1.c ****                restore the power registers */
1478:.\Generated_Source\PSoC5/ADC_DelSig_1.c ****             ADC_DelSig_1_powerModeBackup.bypassRestore = ADC_DelSig_1_BYPASS_ENABLED;
1479:.\Generated_Source\PSoC5/ADC_DelSig_1.c ****         #endif /* CY_PSOC5A */
1480:.\Generated_Source\PSoC5/ADC_DelSig_1.c ****         
1481:.\Generated_Source\PSoC5/ADC_DelSig_1.c ****         /* Set the  ADC registers based on the configuration */
1482:.\Generated_Source\PSoC5/ADC_DelSig_1.c ****         ADC_DelSig_1_InitConfig(config);
 2560              		.loc 1 1482 0
 2561 0066 FB79     		ldrb	r3, [r7, #7]	@ zero_extendqisi2
ARM GAS  C:\Users\karunmj\AppData\Local\Temp\ccZ3DH5A.s 			page 72


 2562 0068 1846     		mov	r0, r3
 2563 006a FFF7FEFF 		bl	ADC_DelSig_1_InitConfig
1483:.\Generated_Source\PSoC5/ADC_DelSig_1.c ****         
1484:.\Generated_Source\PSoC5/ADC_DelSig_1.c ****         /* Trim value calculation */
1485:.\Generated_Source\PSoC5/ADC_DelSig_1.c ****         if(config == 1u)
 2564              		.loc 1 1485 0
 2565 006e FB79     		ldrb	r3, [r7, #7]	@ zero_extendqisi2
 2566 0070 012B     		cmp	r3, #1
 2567 0072 23D1     		bne	.L96
1486:.\Generated_Source\PSoC5/ADC_DelSig_1.c ****         {
1487:.\Generated_Source\PSoC5/ADC_DelSig_1.c ****             inputRange = ADC_DelSig_1_CFG1_RANGE;
 2568              		.loc 1 1487 0
 2569 0074 4FF00603 		mov	r3, #6
 2570 0078 BB73     		strb	r3, [r7, #14]
1488:.\Generated_Source\PSoC5/ADC_DelSig_1.c ****             resolution = ADC_DelSig_1_CFG1_RESOLUTION;
 2571              		.loc 1 1488 0
 2572 007a 4FF01003 		mov	r3, #16
 2573 007e FB73     		strb	r3, [r7, #15]
1489:.\Generated_Source\PSoC5/ADC_DelSig_1.c ****             idealGain = ADC_DelSig_1_CFG1_IDEAL_DEC_GAIN;
 2574              		.loc 1 1489 0
 2575 0080 48F24A13 		movw	r3, #33098
 2576 0084 3B82     		strh	r3, [r7, #16]	@ movhi
1490:.\Generated_Source\PSoC5/ADC_DelSig_1.c ****             idealOddGain = ADC_DelSig_1_CFG1_IDEAL_ODDDEC_GAIN;
 2577              		.loc 1 1490 0
 2578 0086 4FF40043 		mov	r3, #32768
 2579 008a FB82     		strh	r3, [r7, #22]	@ movhi
1491:.\Generated_Source\PSoC5/ADC_DelSig_1.c ****             adcClockDivider = ADC_DelSig_1_RoundValue((uint32)BCLK__BUS_CLK__HZ,
 2580              		.loc 1 1491 0
 2581 008c 43F20060 		movw	r0, #:lower16:24000000
 2582 0090 C0F26E10 		movt	r0, #:upper16:24000000
 2583 0094 4DF6FF71 		movw	r1, #:lower16:3071999
 2584 0098 C0F22E01 		movt	r1, #:upper16:3071999
 2585 009c FFF7FEFF 		bl	ADC_DelSig_1_RoundValue
 2586 00a0 0346     		mov	r3, r0
 2587 00a2 7B82     		strh	r3, [r7, #18]	@ movhi
1492:.\Generated_Source\PSoC5/ADC_DelSig_1.c ****                                                        (uint32)ADC_DelSig_1_CFG1_CLOCK_FREQ);
1493:.\Generated_Source\PSoC5/ADC_DelSig_1.c ****             cpClockDivider = ADC_DelSig_1_RoundValue((uint32)BCLK__BUS_CLK__HZ,
 2588              		.loc 1 1493 0
 2589 00a4 43F20060 		movw	r0, #:lower16:24000000
 2590 00a8 C0F26E10 		movt	r0, #:upper16:24000000
 2591 00ac 41F60031 		movw	r1, #:lower16:12000000
 2592 00b0 C0F2B701 		movt	r1, #:upper16:12000000
 2593 00b4 FFF7FEFF 		bl	ADC_DelSig_1_RoundValue
 2594 00b8 0346     		mov	r3, r0
 2595 00ba BB82     		strh	r3, [r7, #20]	@ movhi
 2596              	.L96:
1494:.\Generated_Source\PSoC5/ADC_DelSig_1.c ****                                                        (uint32)ADC_DelSig_1_CFG1_CP_CLOCK_FREQ);
1495:.\Generated_Source\PSoC5/ADC_DelSig_1.c ****         }
1496:.\Generated_Source\PSoC5/ADC_DelSig_1.c **** 
1497:.\Generated_Source\PSoC5/ADC_DelSig_1.c ****         #if (ADC_DelSig_1_DEFAULT_NUM_CONFIGS > 1)
1498:.\Generated_Source\PSoC5/ADC_DelSig_1.c ****             if(config == 2u)
 2597              		.loc 1 1498 0
 2598 00bc FB79     		ldrb	r3, [r7, #7]	@ zero_extendqisi2
 2599 00be 022B     		cmp	r3, #2
 2600 00c0 23D1     		bne	.L97
1499:.\Generated_Source\PSoC5/ADC_DelSig_1.c ****             {
1500:.\Generated_Source\PSoC5/ADC_DelSig_1.c ****                 inputRange = ADC_DelSig_1_CFG2_INPUT_RANGE;
ARM GAS  C:\Users\karunmj\AppData\Local\Temp\ccZ3DH5A.s 			page 73


 2601              		.loc 1 1500 0
 2602 00c2 4FF00A03 		mov	r3, #10
 2603 00c6 BB73     		strb	r3, [r7, #14]
1501:.\Generated_Source\PSoC5/ADC_DelSig_1.c ****                 resolution = ADC_DelSig_1_CFG2_RESOLUTION;
 2604              		.loc 1 1501 0
 2605 00c8 4FF01003 		mov	r3, #16
 2606 00cc FB73     		strb	r3, [r7, #15]
1502:.\Generated_Source\PSoC5/ADC_DelSig_1.c ****                 idealGain = ADC_DelSig_1_CFG2_IDEAL_DEC_GAIN;
 2607              		.loc 1 1502 0
 2608 00ce 48F6E263 		movw	r3, #36578
 2609 00d2 3B82     		strh	r3, [r7, #16]	@ movhi
1503:.\Generated_Source\PSoC5/ADC_DelSig_1.c ****                 idealOddGain = ADC_DelSig_1_CFG2_IDEAL_ODDDEC_GAIN;
 2610              		.loc 1 1503 0
 2611 00d4 4FF40043 		mov	r3, #32768
 2612 00d8 FB82     		strh	r3, [r7, #22]	@ movhi
1504:.\Generated_Source\PSoC5/ADC_DelSig_1.c ****                 adcClockDivider = ADC_DelSig_1_RoundValue((uint32)BCLK__BUS_CLK__HZ,
 2613              		.loc 1 1504 0
 2614 00da 43F20060 		movw	r0, #:lower16:24000000
 2615 00de C0F26E10 		movt	r0, #:upper16:24000000
 2616 00e2 44F23F21 		movw	r1, #:lower16:999999
 2617 00e6 C0F20F01 		movt	r1, #:upper16:999999
 2618 00ea FFF7FEFF 		bl	ADC_DelSig_1_RoundValue
 2619 00ee 0346     		mov	r3, r0
 2620 00f0 7B82     		strh	r3, [r7, #18]	@ movhi
1505:.\Generated_Source\PSoC5/ADC_DelSig_1.c ****                                                             (uint32)ADC_DelSig_1_CFG2_CLOCK_FREQ);
1506:.\Generated_Source\PSoC5/ADC_DelSig_1.c ****                 cpClockDivider = ADC_DelSig_1_RoundValue((uint32)BCLK__BUS_CLK__HZ,
 2621              		.loc 1 1506 0
 2622 00f2 43F20060 		movw	r0, #:lower16:24000000
 2623 00f6 C0F26E10 		movt	r0, #:upper16:24000000
 2624 00fa 40F6FC01 		movw	r1, #:lower16:3999996
 2625 00fe C0F23D01 		movt	r1, #:upper16:3999996
 2626 0102 FFF7FEFF 		bl	ADC_DelSig_1_RoundValue
 2627 0106 0346     		mov	r3, r0
 2628 0108 BB82     		strh	r3, [r7, #20]	@ movhi
 2629              	.L97:
1507:.\Generated_Source\PSoC5/ADC_DelSig_1.c ****                                                        (uint32)ADC_DelSig_1_CFG2_CP_CLOCK_FREQ);
1508:.\Generated_Source\PSoC5/ADC_DelSig_1.c ****             }
1509:.\Generated_Source\PSoC5/ADC_DelSig_1.c ****         #endif /* ADC_DelSig_1_DEFAULT_NUM_CONFIGS > 1 */
1510:.\Generated_Source\PSoC5/ADC_DelSig_1.c **** 
1511:.\Generated_Source\PSoC5/ADC_DelSig_1.c ****         #if(ADC_DelSig_1_DEFAULT_NUM_CONFIGS > 2)
1512:.\Generated_Source\PSoC5/ADC_DelSig_1.c ****             if(config == 3u)
 2630              		.loc 1 1512 0
 2631 010a FB79     		ldrb	r3, [r7, #7]	@ zero_extendqisi2
 2632 010c 032B     		cmp	r3, #3
 2633 010e 23D1     		bne	.L98
1513:.\Generated_Source\PSoC5/ADC_DelSig_1.c ****             {
1514:.\Generated_Source\PSoC5/ADC_DelSig_1.c ****                 inputRange = ADC_DelSig_1_CFG3_INPUT_RANGE;
 2634              		.loc 1 1514 0
 2635 0110 4FF00403 		mov	r3, #4
 2636 0114 BB73     		strb	r3, [r7, #14]
1515:.\Generated_Source\PSoC5/ADC_DelSig_1.c ****                 resolution = ADC_DelSig_1_CFG3_RESOLUTION;
 2637              		.loc 1 1515 0
 2638 0116 4FF01003 		mov	r3, #16
 2639 011a FB73     		strb	r3, [r7, #15]
1516:.\Generated_Source\PSoC5/ADC_DelSig_1.c ****                 idealGain = ADC_DelSig_1_CFG3_IDEAL_DEC_GAIN;
 2640              		.loc 1 1516 0
 2641 011c 49F2DB03 		movw	r3, #37083
ARM GAS  C:\Users\karunmj\AppData\Local\Temp\ccZ3DH5A.s 			page 74


 2642 0120 3B82     		strh	r3, [r7, #16]	@ movhi
1517:.\Generated_Source\PSoC5/ADC_DelSig_1.c ****                 idealOddGain = ADC_DelSig_1_CFG3_IDEAL_ODDDEC_GAIN;
 2643              		.loc 1 1517 0
 2644 0122 4FF40043 		mov	r3, #32768
 2645 0126 FB82     		strh	r3, [r7, #22]	@ movhi
1518:.\Generated_Source\PSoC5/ADC_DelSig_1.c ****                 adcClockDivider = ADC_DelSig_1_RoundValue((uint32)BCLK__BUS_CLK__HZ,
 2646              		.loc 1 1518 0
 2647 0128 43F20060 		movw	r0, #:lower16:24000000
 2648 012c C0F26E10 		movt	r0, #:upper16:24000000
 2649 0130 4CF20041 		movw	r1, #:lower16:640000
 2650 0134 C0F20901 		movt	r1, #:upper16:640000
 2651 0138 FFF7FEFF 		bl	ADC_DelSig_1_RoundValue
 2652 013c 0346     		mov	r3, r0
 2653 013e 7B82     		strh	r3, [r7, #18]	@ movhi
1519:.\Generated_Source\PSoC5/ADC_DelSig_1.c ****                                                             (uint32)ADC_DelSig_1_CFG3_CLOCK_FREQ);
1520:.\Generated_Source\PSoC5/ADC_DelSig_1.c ****                 cpClockDivider = ADC_DelSig_1_RoundValue((uint32)BCLK__BUS_CLK__HZ,
 2654              		.loc 1 1520 0
 2655 0140 43F20060 		movw	r0, #:lower16:24000000
 2656 0144 C0F26E10 		movt	r0, #:upper16:24000000
 2657 0148 41F20001 		movw	r1, #:lower16:2560000
 2658 014c C0F22701 		movt	r1, #:upper16:2560000
 2659 0150 FFF7FEFF 		bl	ADC_DelSig_1_RoundValue
 2660 0154 0346     		mov	r3, r0
 2661 0156 BB82     		strh	r3, [r7, #20]	@ movhi
 2662              	.L98:
1521:.\Generated_Source\PSoC5/ADC_DelSig_1.c ****                                                        (uint32)ADC_DelSig_1_CFG3_CP_CLOCK_FREQ);
1522:.\Generated_Source\PSoC5/ADC_DelSig_1.c ****             }
1523:.\Generated_Source\PSoC5/ADC_DelSig_1.c ****         #endif /* ADC_DelSig_1_DEFAULT_NUM_CONFIGS > 2 */
1524:.\Generated_Source\PSoC5/ADC_DelSig_1.c **** 
1525:.\Generated_Source\PSoC5/ADC_DelSig_1.c ****         #if (ADC_DelSig_1_DEFAULT_NUM_CONFIGS > 3)
1526:.\Generated_Source\PSoC5/ADC_DelSig_1.c ****             if(config == 4u)
 2663              		.loc 1 1526 0
 2664 0158 FB79     		ldrb	r3, [r7, #7]	@ zero_extendqisi2
 2665 015a 042B     		cmp	r3, #4
 2666 015c 23D1     		bne	.L99
1527:.\Generated_Source\PSoC5/ADC_DelSig_1.c ****             {
1528:.\Generated_Source\PSoC5/ADC_DelSig_1.c ****                 inputRange = ADC_DelSig_1_CFG4_INPUT_RANGE;
 2667              		.loc 1 1528 0
 2668 015e 4FF00603 		mov	r3, #6
 2669 0162 BB73     		strb	r3, [r7, #14]
1529:.\Generated_Source\PSoC5/ADC_DelSig_1.c ****                 resolution = ADC_DelSig_1_CFG4_RESOLUTION;
 2670              		.loc 1 1529 0
 2671 0164 4FF01203 		mov	r3, #18
 2672 0168 FB73     		strb	r3, [r7, #15]
1530:.\Generated_Source\PSoC5/ADC_DelSig_1.c ****                 idealGain = ADC_DelSig_1_CFG4_IDEAL_DEC_GAIN;
 2673              		.loc 1 1530 0
 2674 016a 48F24A13 		movw	r3, #33098
 2675 016e 3B82     		strh	r3, [r7, #16]	@ movhi
1531:.\Generated_Source\PSoC5/ADC_DelSig_1.c ****                 idealOddGain = ADC_DelSig_1_CFG4_IDEAL_ODDDEC_GAIN;
 2676              		.loc 1 1531 0
 2677 0170 4FF40043 		mov	r3, #32768
 2678 0174 FB82     		strh	r3, [r7, #22]	@ movhi
1532:.\Generated_Source\PSoC5/ADC_DelSig_1.c ****                 adcClockDivider = ADC_DelSig_1_RoundValue((uint32)BCLK__BUS_CLK__HZ,  
 2679              		.loc 1 1532 0
 2680 0176 43F20060 		movw	r0, #:lower16:24000000
 2681 017a C0F26E10 		movt	r0, #:upper16:24000000
 2682 017e 4DF6A631 		movw	r1, #:lower16:3070886
ARM GAS  C:\Users\karunmj\AppData\Local\Temp\ccZ3DH5A.s 			page 75


 2683 0182 C0F22E01 		movt	r1, #:upper16:3070886
 2684 0186 FFF7FEFF 		bl	ADC_DelSig_1_RoundValue
 2685 018a 0346     		mov	r3, r0
 2686 018c 7B82     		strh	r3, [r7, #18]	@ movhi
1533:.\Generated_Source\PSoC5/ADC_DelSig_1.c ****                                                             (uint32)ADC_DelSig_1_CFG4_CLOCK_FREQ);
1534:.\Generated_Source\PSoC5/ADC_DelSig_1.c ****                 cpClockDivider = ADC_DelSig_1_RoundValue((uint32)BCLK__BUS_CLK__HZ,
 2687              		.loc 1 1534 0
 2688 018e 43F20060 		movw	r0, #:lower16:24000000
 2689 0192 C0F26E10 		movt	r0, #:upper16:24000000
 2690 0196 41F60031 		movw	r1, #:lower16:12000000
 2691 019a C0F2B701 		movt	r1, #:upper16:12000000
 2692 019e FFF7FEFF 		bl	ADC_DelSig_1_RoundValue
 2693 01a2 0346     		mov	r3, r0
 2694 01a4 BB82     		strh	r3, [r7, #20]	@ movhi
 2695              	.L99:
1535:.\Generated_Source\PSoC5/ADC_DelSig_1.c ****                                                        (uint32)ADC_DelSig_1_CFG4_CP_CLOCK_FREQ);
1536:.\Generated_Source\PSoC5/ADC_DelSig_1.c ****             }
1537:.\Generated_Source\PSoC5/ADC_DelSig_1.c ****         #endif /* ADC_DelSig_1_DEFAULT_NUM_CONFIGS > 3 */
1538:.\Generated_Source\PSoC5/ADC_DelSig_1.c ****         
1539:.\Generated_Source\PSoC5/ADC_DelSig_1.c ****         adcClockDivider = adcClockDivider - 1;
 2696              		.loc 1 1539 0
 2697 01a6 7B8A     		ldrh	r3, [r7, #18]	@ movhi
 2698 01a8 03F1FF33 		add	r3, r3, #-1
 2699 01ac 7B82     		strh	r3, [r7, #18]	@ movhi
1540:.\Generated_Source\PSoC5/ADC_DelSig_1.c ****         /* Set the proper divider for the internal clock */
1541:.\Generated_Source\PSoC5/ADC_DelSig_1.c ****         #if(ADC_DelSig_1_DEFAULT_INTERNAL_CLK)
1542:.\Generated_Source\PSoC5/ADC_DelSig_1.c ****             ADC_DelSig_1_theACLK_SetDividerRegister(adcClockDivider, 1);
 2700              		.loc 1 1542 0
 2701 01ae 7B8A     		ldrh	r3, [r7, #18]
 2702 01b0 1846     		mov	r0, r3
 2703 01b2 4FF00101 		mov	r1, #1
 2704 01b6 FFF7FEFF 		bl	ADC_DelSig_1_theACLK_SetDividerRegister
1543:.\Generated_Source\PSoC5/ADC_DelSig_1.c ****         #endif /* ADC_DelSig_1_DEFAULT_INTERNAL_CLK */
1544:.\Generated_Source\PSoC5/ADC_DelSig_1.c ****         
1545:.\Generated_Source\PSoC5/ADC_DelSig_1.c ****         cpClockDivider = cpClockDivider - 1;
 2705              		.loc 1 1545 0
 2706 01ba BB8A     		ldrh	r3, [r7, #20]	@ movhi
 2707 01bc 03F1FF33 		add	r3, r3, #-1
 2708 01c0 BB82     		strh	r3, [r7, #20]	@ movhi
1546:.\Generated_Source\PSoC5/ADC_DelSig_1.c ****         /* Set the proper divider for the Charge pump clock */
1547:.\Generated_Source\PSoC5/ADC_DelSig_1.c ****         ADC_DelSig_1_Ext_CP_Clk_SetDividerRegister(cpClockDivider, 1);
 2709              		.loc 1 1547 0
 2710 01c2 BB8A     		ldrh	r3, [r7, #20]
 2711 01c4 1846     		mov	r0, r3
 2712 01c6 4FF00101 		mov	r1, #1
 2713 01ca FFF7FEFF 		bl	ADC_DelSig_1_Ext_CP_Clk_SetDividerRegister
1548:.\Generated_Source\PSoC5/ADC_DelSig_1.c ****         
1549:.\Generated_Source\PSoC5/ADC_DelSig_1.c ****         /* Compensate the gain */
1550:.\Generated_Source\PSoC5/ADC_DelSig_1.c ****         ADC_DelSig_1_GainCompensation(inputRange, idealGain, idealOddGain, resolution);
 2714              		.loc 1 1550 0
 2715 01ce B87B     		ldrb	r0, [r7, #14]	@ zero_extendqisi2
 2716 01d0 398A     		ldrh	r1, [r7, #16]
 2717 01d2 FA8A     		ldrh	r2, [r7, #22]
 2718 01d4 FB7B     		ldrb	r3, [r7, #15]	@ zero_extendqisi2
 2719 01d6 FFF7FEFF 		bl	ADC_DelSig_1_GainCompensation
1551:.\Generated_Source\PSoC5/ADC_DelSig_1.c ****         
1552:.\Generated_Source\PSoC5/ADC_DelSig_1.c ****         if(restart == 1u)
ARM GAS  C:\Users\karunmj\AppData\Local\Temp\ccZ3DH5A.s 			page 76


 2720              		.loc 1 1552 0
 2721 01da BB79     		ldrb	r3, [r7, #6]	@ zero_extendqisi2
 2722 01dc 012B     		cmp	r3, #1
 2723 01de 03D1     		bne	.L100
1553:.\Generated_Source\PSoC5/ADC_DelSig_1.c ****         {        
1554:.\Generated_Source\PSoC5/ADC_DelSig_1.c ****             /* Restart the ADC */
1555:.\Generated_Source\PSoC5/ADC_DelSig_1.c ****             ADC_DelSig_1_Start();
 2724              		.loc 1 1555 0
 2725 01e0 FFF7FEFF 		bl	ADC_DelSig_1_Start
1556:.\Generated_Source\PSoC5/ADC_DelSig_1.c ****             
1557:.\Generated_Source\PSoC5/ADC_DelSig_1.c ****             /* Code to disable the REFBUF0 if reference chosen is External ref */
1558:.\Generated_Source\PSoC5/ADC_DelSig_1.c ****             #if (((ADC_DelSig_1_CFG2_REFERENCE == ADC_DelSig_1_EXT_REF_ON_P03) || \
1559:.\Generated_Source\PSoC5/ADC_DelSig_1.c ****                  (ADC_DelSig_1_CFG2_REFERENCE == ADC_DelSig_1_EXT_REF_ON_P32)) || \
1560:.\Generated_Source\PSoC5/ADC_DelSig_1.c ****                  ((ADC_DelSig_1_CFG3_REFERENCE == ADC_DelSig_1_EXT_REF_ON_P03) || \
1561:.\Generated_Source\PSoC5/ADC_DelSig_1.c ****                  (ADC_DelSig_1_CFG3_REFERENCE == ADC_DelSig_1_EXT_REF_ON_P32)) || \
1562:.\Generated_Source\PSoC5/ADC_DelSig_1.c ****                  ((ADC_DelSig_1_CFG4_REFERENCE == ADC_DelSig_1_EXT_REF_ON_P03) || \
1563:.\Generated_Source\PSoC5/ADC_DelSig_1.c ****                  (ADC_DelSig_1_CFG4_REFERENCE == ADC_DelSig_1_EXT_REF_ON_P32)))
1564:.\Generated_Source\PSoC5/ADC_DelSig_1.c ****                 if (((config == 2) && 
1565:.\Generated_Source\PSoC5/ADC_DelSig_1.c ****                     ((ADC_DelSig_1_CFG2_REFERENCE == ADC_DelSig_1_EXT_REF_ON_P03) ||
1566:.\Generated_Source\PSoC5/ADC_DelSig_1.c ****                     (ADC_DelSig_1_CFG2_REFERENCE == ADC_DelSig_1_EXT_REF_ON_P32))) ||
1567:.\Generated_Source\PSoC5/ADC_DelSig_1.c ****                     ((config == 3) && 
1568:.\Generated_Source\PSoC5/ADC_DelSig_1.c ****                     ((ADC_DelSig_1_CFG3_REFERENCE == ADC_DelSig_1_EXT_REF_ON_P03) ||
1569:.\Generated_Source\PSoC5/ADC_DelSig_1.c ****                     (ADC_DelSig_1_CFG3_REFERENCE == ADC_DelSig_1_EXT_REF_ON_P32))) ||
1570:.\Generated_Source\PSoC5/ADC_DelSig_1.c ****                     ((config == 4) && 
1571:.\Generated_Source\PSoC5/ADC_DelSig_1.c ****                     ((ADC_DelSig_1_CFG4_REFERENCE == ADC_DelSig_1_EXT_REF_ON_P03) ||
1572:.\Generated_Source\PSoC5/ADC_DelSig_1.c ****                     (ADC_DelSig_1_CFG4_REFERENCE == ADC_DelSig_1_EXT_REF_ON_P32))))
1573:.\Generated_Source\PSoC5/ADC_DelSig_1.c ****                 {
1574:.\Generated_Source\PSoC5/ADC_DelSig_1.c ****                     /* Disable PRES, Enable power to VCMBUF0, REFBUF0 and 
1575:.\Generated_Source\PSoC5/ADC_DelSig_1.c ****                        REFBUF1, enable PRES */
1576:.\Generated_Source\PSoC5/ADC_DelSig_1.c ****                     #if (CY_PSOC3 || CY_PSOC5LP)
1577:.\Generated_Source\PSoC5/ADC_DelSig_1.c ****                         ADC_DelSig_1_RESET_CR4_REG |= ADC_DelSig_1_IGNORE_PRESA1;
1578:.\Generated_Source\PSoC5/ADC_DelSig_1.c ****                         ADC_DelSig_1_RESET_CR5_REG |= ADC_DelSig_1_IGNORE_PRESA2;
1579:.\Generated_Source\PSoC5/ADC_DelSig_1.c ****                     #elif (CY_PSOC5A)
1580:.\Generated_Source\PSoC5/ADC_DelSig_1.c ****                         ADC_DelSig_1_RESET_CR1_REG |= ADC_DelSig_1_DIS_PRES1;
1581:.\Generated_Source\PSoC5/ADC_DelSig_1.c ****                         ADC_DelSig_1_RESET_CR3_REG |= ADC_DelSig_1_DIS_PRES2;
1582:.\Generated_Source\PSoC5/ADC_DelSig_1.c ****                     #endif /* CY_PSOC5A */
1583:.\Generated_Source\PSoC5/ADC_DelSig_1.c ****         
1584:.\Generated_Source\PSoC5/ADC_DelSig_1.c ****                     /* Disable the REFBUF0 */
1585:.\Generated_Source\PSoC5/ADC_DelSig_1.c ****                     ADC_DelSig_1_DSM_CR17_REG &= ~ADC_DelSig_1_DSM_EN_BUF_VREF;
1586:.\Generated_Source\PSoC5/ADC_DelSig_1.c ****                     
1587:.\Generated_Source\PSoC5/ADC_DelSig_1.c ****                     /* Wait for 3 microseconds */
1588:.\Generated_Source\PSoC5/ADC_DelSig_1.c ****                     CyDelayUs(3);
1589:.\Generated_Source\PSoC5/ADC_DelSig_1.c ****                     /* Enable the press circuit */
1590:.\Generated_Source\PSoC5/ADC_DelSig_1.c ****                     #if (CY_PSOC3 || CY_PSOC5LP)
1591:.\Generated_Source\PSoC5/ADC_DelSig_1.c ****                         ADC_DelSig_1_RESET_CR4_REG &= ~ADC_DelSig_1_IGNORE_PRESA1;
1592:.\Generated_Source\PSoC5/ADC_DelSig_1.c ****                         ADC_DelSig_1_RESET_CR5_REG &= ~ADC_DelSig_1_IGNORE_PRESA2;
1593:.\Generated_Source\PSoC5/ADC_DelSig_1.c ****                     #elif (CY_PSOC5A)
1594:.\Generated_Source\PSoC5/ADC_DelSig_1.c ****                         ADC_DelSig_1_RESET_CR1_REG &= ~ADC_DelSig_1_DIS_PRES1;
1595:.\Generated_Source\PSoC5/ADC_DelSig_1.c ****                         ADC_DelSig_1_RESET_CR3_REG &= ~ADC_DelSig_1_DIS_PRES2;
1596:.\Generated_Source\PSoC5/ADC_DelSig_1.c ****                     #endif /* CY_PSOC5A */
1597:.\Generated_Source\PSoC5/ADC_DelSig_1.c ****                 }
1598:.\Generated_Source\PSoC5/ADC_DelSig_1.c ****             #endif /* */
1599:.\Generated_Source\PSoC5/ADC_DelSig_1.c ****             
1600:.\Generated_Source\PSoC5/ADC_DelSig_1.c ****             #if ((CY_PSOC3 || CY_PSOC5LP) && \
1601:.\Generated_Source\PSoC5/ADC_DelSig_1.c ****                  ((ADC_DelSig_1_CFG2_INPUT_RANGE == ADC_DelSig_1_IR_VSSA_TO_2VREF) || \
1602:.\Generated_Source\PSoC5/ADC_DelSig_1.c ****                   (ADC_DelSig_1_CFG3_INPUT_RANGE == ADC_DelSig_1_IR_VSSA_TO_2VREF) || \
1603:.\Generated_Source\PSoC5/ADC_DelSig_1.c ****                   (ADC_DelSig_1_CFG4_INPUT_RANGE == ADC_DelSig_1_IR_VSSA_TO_2VREF)))
ARM GAS  C:\Users\karunmj\AppData\Local\Temp\ccZ3DH5A.s 			page 77


1604:.\Generated_Source\PSoC5/ADC_DelSig_1.c ****                 if(((config == 2) && 
1605:.\Generated_Source\PSoC5/ADC_DelSig_1.c ****                     (ADC_DelSig_1_CFG2_INPUT_RANGE == ADC_DelSig_1_IR_VSSA_TO_2VREF) && 
1606:.\Generated_Source\PSoC5/ADC_DelSig_1.c ****                     ((ADC_DelSig_1_CFG2_REFERENCE != ADC_DelSig_1_EXT_REF_ON_P03) && 
1607:.\Generated_Source\PSoC5/ADC_DelSig_1.c ****                      (ADC_DelSig_1_CFG2_REFERENCE != ADC_DelSig_1_EXT_REF_ON_P32))) ||
1608:.\Generated_Source\PSoC5/ADC_DelSig_1.c ****                      ((config == 3) && 
1609:.\Generated_Source\PSoC5/ADC_DelSig_1.c ****                       (ADC_DelSig_1_CFG3_INPUT_RANGE == ADC_DelSig_1_IR_VSSA_TO_2VREF) && 
1610:.\Generated_Source\PSoC5/ADC_DelSig_1.c ****                      ((ADC_DelSig_1_CFG3_REFERENCE != ADC_DelSig_1_EXT_REF_ON_P03) && 
1611:.\Generated_Source\PSoC5/ADC_DelSig_1.c ****                      (ADC_DelSig_1_CFG3_REFERENCE != ADC_DelSig_1_EXT_REF_ON_P32))) ||
1612:.\Generated_Source\PSoC5/ADC_DelSig_1.c ****                      ((config == 4) && 
1613:.\Generated_Source\PSoC5/ADC_DelSig_1.c ****                       (ADC_DelSig_1_CFG4_INPUT_RANGE == ADC_DelSig_1_IR_VSSA_TO_2VREF) && 
1614:.\Generated_Source\PSoC5/ADC_DelSig_1.c ****                      ((ADC_DelSig_1_CFG4_REFERENCE != ADC_DelSig_1_EXT_REF_ON_P03) && 
1615:.\Generated_Source\PSoC5/ADC_DelSig_1.c ****                      (ADC_DelSig_1_CFG4_REFERENCE != ADC_DelSig_1_EXT_REF_ON_P32))))
1616:.\Generated_Source\PSoC5/ADC_DelSig_1.c ****                 {
1617:.\Generated_Source\PSoC5/ADC_DelSig_1.c ****                     /* Disable PRES, Enable power to VCMBUF0, REFBUF0 and 
1618:.\Generated_Source\PSoC5/ADC_DelSig_1.c ****                        REFBUF1, enable PRES */
1619:.\Generated_Source\PSoC5/ADC_DelSig_1.c ****                     #if (CY_PSOC3 || CY_PSOC5LP)
1620:.\Generated_Source\PSoC5/ADC_DelSig_1.c ****                         ADC_DelSig_1_RESET_CR4_REG |= ADC_DelSig_1_IGNORE_PRESA1;
1621:.\Generated_Source\PSoC5/ADC_DelSig_1.c ****                         ADC_DelSig_1_RESET_CR5_REG |= ADC_DelSig_1_IGNORE_PRESA2;
1622:.\Generated_Source\PSoC5/ADC_DelSig_1.c ****                     #elif (CY_PSOC5A)
1623:.\Generated_Source\PSoC5/ADC_DelSig_1.c ****                         ADC_DelSig_1_RESET_CR1_REG |= ADC_DelSig_1_DIS_PRES1;
1624:.\Generated_Source\PSoC5/ADC_DelSig_1.c ****                         ADC_DelSig_1_RESET_CR3_REG |= ADC_DelSig_1_DIS_PRES2;
1625:.\Generated_Source\PSoC5/ADC_DelSig_1.c ****                     #endif /* CY_PSOC5A */
1626:.\Generated_Source\PSoC5/ADC_DelSig_1.c ****         
1627:.\Generated_Source\PSoC5/ADC_DelSig_1.c ****                     /* Enable the REFBUF1 */
1628:.\Generated_Source\PSoC5/ADC_DelSig_1.c ****                     ADC_DelSig_1_DSM_REF0_REG |= ADC_DelSig_1_DSM_EN_BUF_VREF_INN;
1629:.\Generated_Source\PSoC5/ADC_DelSig_1.c ****                     
1630:.\Generated_Source\PSoC5/ADC_DelSig_1.c ****                     /* Wait for 3 microseconds */
1631:.\Generated_Source\PSoC5/ADC_DelSig_1.c ****                     CyDelayUs(3);
1632:.\Generated_Source\PSoC5/ADC_DelSig_1.c ****                     /* Enable the press circuit */
1633:.\Generated_Source\PSoC5/ADC_DelSig_1.c ****                     #if (CY_PSOC3 || CY_PSOC5LP)
1634:.\Generated_Source\PSoC5/ADC_DelSig_1.c ****                         ADC_DelSig_1_RESET_CR4_REG &= ~ADC_DelSig_1_IGNORE_PRESA1;
1635:.\Generated_Source\PSoC5/ADC_DelSig_1.c ****                         ADC_DelSig_1_RESET_CR5_REG &= ~ADC_DelSig_1_IGNORE_PRESA2;
1636:.\Generated_Source\PSoC5/ADC_DelSig_1.c ****                     #elif (CY_PSOC5A)
1637:.\Generated_Source\PSoC5/ADC_DelSig_1.c ****                         ADC_DelSig_1_RESET_CR1_REG &= ~ADC_DelSig_1_DIS_PRES1;
1638:.\Generated_Source\PSoC5/ADC_DelSig_1.c ****                         ADC_DelSig_1_RESET_CR3_REG &= ~ADC_DelSig_1_DIS_PRES2;
1639:.\Generated_Source\PSoC5/ADC_DelSig_1.c ****                     #endif /* CY_PSOC5A */
1640:.\Generated_Source\PSoC5/ADC_DelSig_1.c ****                 }
1641:.\Generated_Source\PSoC5/ADC_DelSig_1.c ****             #endif /* (CY_PSOC3 || CY_PSOC5LP) */
1642:.\Generated_Source\PSoC5/ADC_DelSig_1.c ****         
1643:.\Generated_Source\PSoC5/ADC_DelSig_1.c ****             /* Restart the ADC conversion */
1644:.\Generated_Source\PSoC5/ADC_DelSig_1.c ****             ADC_DelSig_1_StartConvert();
 2726              		.loc 1 1644 0
 2727 01e4 FFF7FEFF 		bl	ADC_DelSig_1_StartConvert
 2728              	.L100:
1645:.\Generated_Source\PSoC5/ADC_DelSig_1.c ****         }
1646:.\Generated_Source\PSoC5/ADC_DelSig_1.c ****     }
1647:.\Generated_Source\PSoC5/ADC_DelSig_1.c **** }     
 2729              		.loc 1 1647 0
 2730 01e8 07F11807 		add	r7, r7, #24
 2731 01ec BD46     		mov	sp, r7
 2732 01ee 80BD     		pop	{r7, pc}
 2733              		.cfi_endproc
 2734              	.LFE23:
 2735              		.size	ADC_DelSig_1_SelectConfiguration, .-ADC_DelSig_1_SelectConfiguration
 2736              		.section	.text.ADC_DelSig_1_GainCompensation,"ax",%progbits
 2737              		.align	2
 2738              		.global	ADC_DelSig_1_GainCompensation
ARM GAS  C:\Users\karunmj\AppData\Local\Temp\ccZ3DH5A.s 			page 78


 2739              		.thumb
 2740              		.thumb_func
 2741              		.type	ADC_DelSig_1_GainCompensation, %function
 2742              	ADC_DelSig_1_GainCompensation:
 2743              	.LFB24:
1648:.\Generated_Source\PSoC5/ADC_DelSig_1.c **** 
1649:.\Generated_Source\PSoC5/ADC_DelSig_1.c **** 
1650:.\Generated_Source\PSoC5/ADC_DelSig_1.c **** /*******************************************************************************
1651:.\Generated_Source\PSoC5/ADC_DelSig_1.c **** * Function Name: ADC_DelSig_1_GainCompensation(uint8, uint16, uint16, uint8)
1652:.\Generated_Source\PSoC5/ADC_DelSig_1.c **** ********************************************************************************
1653:.\Generated_Source\PSoC5/ADC_DelSig_1.c **** *
1654:.\Generated_Source\PSoC5/ADC_DelSig_1.c **** * Summary:
1655:.\Generated_Source\PSoC5/ADC_DelSig_1.c **** *  This API calculates the trim value and then loads this to GCOR register.
1656:.\Generated_Source\PSoC5/ADC_DelSig_1.c **** *
1657:.\Generated_Source\PSoC5/ADC_DelSig_1.c **** * Parameters:  
1658:.\Generated_Source\PSoC5/ADC_DelSig_1.c **** *  inputRange:  input range for which trim value is to be calculated.
1659:.\Generated_Source\PSoC5/ADC_DelSig_1.c **** *  IdealDecGain:  Ideal Decimator gain for the selected resolution and 
1660:.\Generated_Source\PSoC5/ADC_DelSig_1.c **** *                 conversion  mode.
1661:.\Generated_Source\PSoC5/ADC_DelSig_1.c **** *  IdealOddDecGain:  Ideal odd decimation gain for the selected resolution and 
1662:.\Generated_Source\PSoC5/ADC_DelSig_1.c ****                      conversion mode.
1663:.\Generated_Source\PSoC5/ADC_DelSig_1.c **** *  resolution:  Resolution to select the proper flash location for trim value.
1664:.\Generated_Source\PSoC5/ADC_DelSig_1.c **** *
1665:.\Generated_Source\PSoC5/ADC_DelSig_1.c **** * Return: 
1666:.\Generated_Source\PSoC5/ADC_DelSig_1.c **** *  void
1667:.\Generated_Source\PSoC5/ADC_DelSig_1.c **** *
1668:.\Generated_Source\PSoC5/ADC_DelSig_1.c **** *******************************************************************************/
1669:.\Generated_Source\PSoC5/ADC_DelSig_1.c **** void ADC_DelSig_1_GainCompensation(uint8 inputRange, uint16 IdealDecGain, uint16 IdealOddDecGain,  
1670:.\Generated_Source\PSoC5/ADC_DelSig_1.c ****                                        uint8 resolution) 
1671:.\Generated_Source\PSoC5/ADC_DelSig_1.c **** {
 2744              		.loc 1 1671 0
 2745              		.cfi_startproc
 2746              		@ args = 0, pretend = 0, frame = 24
 2747              		@ frame_needed = 1, uses_anonymous_args = 0
 2748              		@ link register save eliminated.
 2749 0000 80B4     		push	{r7}
 2750              	.LCFI64:
 2751              		.cfi_def_cfa_offset 4
 2752 0002 87B0     		sub	sp, sp, #28
 2753              	.LCFI65:
 2754              		.cfi_def_cfa_offset 32
 2755 0004 00AF     		add	r7, sp, #0
 2756              		.cfi_offset 7, -4
 2757              	.LCFI66:
 2758              		.cfi_def_cfa_register 7
 2759 0006 F871     		strb	r0, [r7, #7]
 2760 0008 B980     		strh	r1, [r7, #4]	@ movhi
 2761 000a 7A80     		strh	r2, [r7, #2]	@ movhi
 2762 000c 7B70     		strb	r3, [r7, #1]
1672:.\Generated_Source\PSoC5/ADC_DelSig_1.c ****     int8 flash;
1673:.\Generated_Source\PSoC5/ADC_DelSig_1.c ****     int16 Normalised;
1674:.\Generated_Source\PSoC5/ADC_DelSig_1.c ****     uint16 GcorValue;
1675:.\Generated_Source\PSoC5/ADC_DelSig_1.c ****     uint32 GcorTmp;
1676:.\Generated_Source\PSoC5/ADC_DelSig_1.c ****     
1677:.\Generated_Source\PSoC5/ADC_DelSig_1.c ****     switch(inputRange)
 2763              		.loc 1 1677 0
 2764 000e FB79     		ldrb	r3, [r7, #7]	@ zero_extendqisi2
 2765 0010 A3F10403 		sub	r3, r3, #4
ARM GAS  C:\Users\karunmj\AppData\Local\Temp\ccZ3DH5A.s 			page 79


 2766 0014 062B     		cmp	r3, #6
 2767 0016 5DD8     		bhi	.L102
 2768 0018 01A2     		adr	r2, .L107
 2769 001a 52F823F0 		ldr	pc, [r2, r3, lsl #2]
 2770 001e 00BF     		.align	2
 2771              	.L107:
 2772 0020 3D000000 		.word	.L103+1
 2773 0024 D5000000 		.word	.L102+1
 2774 0028 D5000000 		.word	.L102+1
 2775 002c 63000000 		.word	.L104+1
 2776 0030 89000000 		.word	.L105+1
 2777 0034 D5000000 		.word	.L102+1
 2778 0038 AF000000 		.word	.L106+1
 2779              	.L103:
1678:.\Generated_Source\PSoC5/ADC_DelSig_1.c ****     {         
1679:.\Generated_Source\PSoC5/ADC_DelSig_1.c ****         case ADC_DelSig_1_IR_VNEG_VREF_DIFF:
1680:.\Generated_Source\PSoC5/ADC_DelSig_1.c ****         
1681:.\Generated_Source\PSoC5/ADC_DelSig_1.c ****         /* Normalize the flash Value */
1682:.\Generated_Source\PSoC5/ADC_DelSig_1.c ****         if(resolution > 15)
 2780              		.loc 1 1682 0
 2781 003c 7B78     		ldrb	r3, [r7, #1]	@ zero_extendqisi2
 2782 003e 0F2B     		cmp	r3, #15
 2783 0040 07D9     		bls	.L108
1683:.\Generated_Source\PSoC5/ADC_DelSig_1.c ****         {
1684:.\Generated_Source\PSoC5/ADC_DelSig_1.c ****             flash = ADC_DelSig_1_DEC_TRIM_VREF_DIFF_16_20; 
 2784              		.loc 1 1684 0
 2785 0042 40F21813 		movw	r3, #:lower16:1224737048
 2786 0046 C4F60013 		movt	r3, #:upper16:1224737048
 2787 004a 1B78     		ldrb	r3, [r3, #0]
 2788 004c DBB2     		uxtb	r3, r3
 2789 004e FB73     		strb	r3, [r7, #15]
1685:.\Generated_Source\PSoC5/ADC_DelSig_1.c ****         }    
1686:.\Generated_Source\PSoC5/ADC_DelSig_1.c ****         else
1687:.\Generated_Source\PSoC5/ADC_DelSig_1.c ****         {
1688:.\Generated_Source\PSoC5/ADC_DelSig_1.c ****             flash = ADC_DelSig_1_DEC_TRIM_VREF_DIFF_8_15;
1689:.\Generated_Source\PSoC5/ADC_DelSig_1.c ****         }        
1690:.\Generated_Source\PSoC5/ADC_DelSig_1.c ****         break;
 2790              		.loc 1 1690 0
 2791 0050 43E0     		b	.L110
 2792              	.L108:
 2793              		.loc 1 1688 0
 2794 0052 40F21C13 		movw	r3, #:lower16:1224737052
 2795 0056 C4F60013 		movt	r3, #:upper16:1224737052
 2796 005a 1B78     		ldrb	r3, [r3, #0]
 2797 005c DBB2     		uxtb	r3, r3
 2798 005e FB73     		strb	r3, [r7, #15]
 2799              		.loc 1 1690 0
 2800 0060 3BE0     		b	.L110
 2801              	.L104:
1691:.\Generated_Source\PSoC5/ADC_DelSig_1.c ****         
1692:.\Generated_Source\PSoC5/ADC_DelSig_1.c ****         case ADC_DelSig_1_IR_VNEG_VREF_2_DIFF:
1693:.\Generated_Source\PSoC5/ADC_DelSig_1.c ****         
1694:.\Generated_Source\PSoC5/ADC_DelSig_1.c ****         /* Normalize the flash Value */
1695:.\Generated_Source\PSoC5/ADC_DelSig_1.c ****         if(resolution > 15)
 2802              		.loc 1 1695 0
 2803 0062 7B78     		ldrb	r3, [r7, #1]	@ zero_extendqisi2
 2804 0064 0F2B     		cmp	r3, #15
ARM GAS  C:\Users\karunmj\AppData\Local\Temp\ccZ3DH5A.s 			page 80


 2805 0066 07D9     		bls	.L111
1696:.\Generated_Source\PSoC5/ADC_DelSig_1.c ****         {
1697:.\Generated_Source\PSoC5/ADC_DelSig_1.c ****             flash = ADC_DelSig_1_DEC_TRIM_VREF_2_DIFF_16_20;
 2806              		.loc 1 1697 0
 2807 0068 40F21913 		movw	r3, #:lower16:1224737049
 2808 006c C4F60013 		movt	r3, #:upper16:1224737049
 2809 0070 1B78     		ldrb	r3, [r3, #0]
 2810 0072 DBB2     		uxtb	r3, r3
 2811 0074 FB73     		strb	r3, [r7, #15]
1698:.\Generated_Source\PSoC5/ADC_DelSig_1.c ****         }    
1699:.\Generated_Source\PSoC5/ADC_DelSig_1.c ****         else
1700:.\Generated_Source\PSoC5/ADC_DelSig_1.c ****         {
1701:.\Generated_Source\PSoC5/ADC_DelSig_1.c ****             flash = ADC_DelSig_1_DEC_TRIM_VREF_2_DIFF_8_15;
1702:.\Generated_Source\PSoC5/ADC_DelSig_1.c ****         }    
1703:.\Generated_Source\PSoC5/ADC_DelSig_1.c ****         break;
 2812              		.loc 1 1703 0
 2813 0076 30E0     		b	.L110
 2814              	.L111:
 2815              		.loc 1 1701 0
 2816 0078 40F21D13 		movw	r3, #:lower16:1224737053
 2817 007c C4F60013 		movt	r3, #:upper16:1224737053
 2818 0080 1B78     		ldrb	r3, [r3, #0]
 2819 0082 DBB2     		uxtb	r3, r3
 2820 0084 FB73     		strb	r3, [r7, #15]
 2821              		.loc 1 1703 0
 2822 0086 28E0     		b	.L110
 2823              	.L105:
1704:.\Generated_Source\PSoC5/ADC_DelSig_1.c ****         
1705:.\Generated_Source\PSoC5/ADC_DelSig_1.c ****         case ADC_DelSig_1_IR_VNEG_VREF_4_DIFF:
1706:.\Generated_Source\PSoC5/ADC_DelSig_1.c ****         
1707:.\Generated_Source\PSoC5/ADC_DelSig_1.c ****         /* Normalize the flash Value */
1708:.\Generated_Source\PSoC5/ADC_DelSig_1.c ****         if(resolution > 15)
 2824              		.loc 1 1708 0
 2825 0088 7B78     		ldrb	r3, [r7, #1]	@ zero_extendqisi2
 2826 008a 0F2B     		cmp	r3, #15
 2827 008c 07D9     		bls	.L113
1709:.\Generated_Source\PSoC5/ADC_DelSig_1.c ****         {
1710:.\Generated_Source\PSoC5/ADC_DelSig_1.c ****             flash = ADC_DelSig_1_DEC_TRIM_VREF_4_DIFF_16_20;
 2828              		.loc 1 1710 0
 2829 008e 40F21A13 		movw	r3, #:lower16:1224737050
 2830 0092 C4F60013 		movt	r3, #:upper16:1224737050
 2831 0096 1B78     		ldrb	r3, [r3, #0]
 2832 0098 DBB2     		uxtb	r3, r3
 2833 009a FB73     		strb	r3, [r7, #15]
1711:.\Generated_Source\PSoC5/ADC_DelSig_1.c ****         }    
1712:.\Generated_Source\PSoC5/ADC_DelSig_1.c ****         else
1713:.\Generated_Source\PSoC5/ADC_DelSig_1.c ****         {
1714:.\Generated_Source\PSoC5/ADC_DelSig_1.c ****             flash = ADC_DelSig_1_DEC_TRIM_VREF_4_DIFF_8_15;
1715:.\Generated_Source\PSoC5/ADC_DelSig_1.c ****         }    
1716:.\Generated_Source\PSoC5/ADC_DelSig_1.c ****         break;
 2834              		.loc 1 1716 0
 2835 009c 1DE0     		b	.L110
 2836              	.L113:
 2837              		.loc 1 1714 0
 2838 009e 40F21E13 		movw	r3, #:lower16:1224737054
 2839 00a2 C4F60013 		movt	r3, #:upper16:1224737054
 2840 00a6 1B78     		ldrb	r3, [r3, #0]
ARM GAS  C:\Users\karunmj\AppData\Local\Temp\ccZ3DH5A.s 			page 81


 2841 00a8 DBB2     		uxtb	r3, r3
 2842 00aa FB73     		strb	r3, [r7, #15]
 2843              		.loc 1 1716 0
 2844 00ac 15E0     		b	.L110
 2845              	.L106:
1717:.\Generated_Source\PSoC5/ADC_DelSig_1.c ****         
1718:.\Generated_Source\PSoC5/ADC_DelSig_1.c ****         case ADC_DelSig_1_IR_VNEG_VREF_16_DIFF:
1719:.\Generated_Source\PSoC5/ADC_DelSig_1.c ****         
1720:.\Generated_Source\PSoC5/ADC_DelSig_1.c ****         /* Normalize the flash Value */
1721:.\Generated_Source\PSoC5/ADC_DelSig_1.c ****         if(resolution > 15)
 2846              		.loc 1 1721 0
 2847 00ae 7B78     		ldrb	r3, [r7, #1]	@ zero_extendqisi2
 2848 00b0 0F2B     		cmp	r3, #15
 2849 00b2 07D9     		bls	.L115
1722:.\Generated_Source\PSoC5/ADC_DelSig_1.c ****         {
1723:.\Generated_Source\PSoC5/ADC_DelSig_1.c ****             flash = ADC_DelSig_1_DEC_TRIM_VREF_16_DIFF_16_20;
 2850              		.loc 1 1723 0
 2851 00b4 40F21B13 		movw	r3, #:lower16:1224737051
 2852 00b8 C4F60013 		movt	r3, #:upper16:1224737051
 2853 00bc 1B78     		ldrb	r3, [r3, #0]
 2854 00be DBB2     		uxtb	r3, r3
 2855 00c0 FB73     		strb	r3, [r7, #15]
1724:.\Generated_Source\PSoC5/ADC_DelSig_1.c ****         }    
1725:.\Generated_Source\PSoC5/ADC_DelSig_1.c ****         else
1726:.\Generated_Source\PSoC5/ADC_DelSig_1.c ****         {
1727:.\Generated_Source\PSoC5/ADC_DelSig_1.c ****             flash = ADC_DelSig_1_DEC_TRIM_VREF_16_DIFF_8_15;
1728:.\Generated_Source\PSoC5/ADC_DelSig_1.c ****         }    
1729:.\Generated_Source\PSoC5/ADC_DelSig_1.c ****         break;
 2856              		.loc 1 1729 0
 2857 00c2 0AE0     		b	.L110
 2858              	.L115:
 2859              		.loc 1 1727 0
 2860 00c4 40F21F13 		movw	r3, #:lower16:1224737055
 2861 00c8 C4F60013 		movt	r3, #:upper16:1224737055
 2862 00cc 1B78     		ldrb	r3, [r3, #0]
 2863 00ce DBB2     		uxtb	r3, r3
 2864 00d0 FB73     		strb	r3, [r7, #15]
 2865              		.loc 1 1729 0
 2866 00d2 02E0     		b	.L110
 2867              	.L102:
1730:.\Generated_Source\PSoC5/ADC_DelSig_1.c ****         
1731:.\Generated_Source\PSoC5/ADC_DelSig_1.c ****         default:
1732:.\Generated_Source\PSoC5/ADC_DelSig_1.c ****             flash = 0;
 2868              		.loc 1 1732 0
 2869 00d4 4FF00003 		mov	r3, #0
 2870 00d8 FB73     		strb	r3, [r7, #15]
 2871              	.L110:
1733:.\Generated_Source\PSoC5/ADC_DelSig_1.c ****         break;
1734:.\Generated_Source\PSoC5/ADC_DelSig_1.c ****     }    
1735:.\Generated_Source\PSoC5/ADC_DelSig_1.c ****     if(inputRange == ADC_DelSig_1_IR_VSSA_TO_VREF || inputRange == ADC_DelSig_1_IR_VSSA_TO_2VREF ||
 2872              		.loc 1 1735 0
 2873 00da FB79     		ldrb	r3, [r7, #7]	@ zero_extendqisi2
 2874 00dc 002B     		cmp	r3, #0
 2875 00de 11D0     		beq	.L117
 2876 00e0 FB79     		ldrb	r3, [r7, #7]	@ zero_extendqisi2
 2877 00e2 012B     		cmp	r3, #1
 2878 00e4 0ED0     		beq	.L117
ARM GAS  C:\Users\karunmj\AppData\Local\Temp\ccZ3DH5A.s 			page 82


 2879 00e6 FB79     		ldrb	r3, [r7, #7]	@ zero_extendqisi2
 2880 00e8 022B     		cmp	r3, #2
 2881 00ea 0BD0     		beq	.L117
 2882 00ec FB79     		ldrb	r3, [r7, #7]	@ zero_extendqisi2
 2883 00ee 032B     		cmp	r3, #3
 2884 00f0 08D0     		beq	.L117
 2885 00f2 FB79     		ldrb	r3, [r7, #7]	@ zero_extendqisi2
 2886 00f4 052B     		cmp	r3, #5
 2887 00f6 05D0     		beq	.L117
 2888 00f8 FB79     		ldrb	r3, [r7, #7]	@ zero_extendqisi2
 2889 00fa 062B     		cmp	r3, #6
 2890 00fc 02D0     		beq	.L117
 2891 00fe FB79     		ldrb	r3, [r7, #7]	@ zero_extendqisi2
 2892 0100 092B     		cmp	r3, #9
 2893 0102 03D1     		bne	.L118
 2894              	.L117:
1736:.\Generated_Source\PSoC5/ADC_DelSig_1.c ****        inputRange == ADC_DelSig_1_IR_VSSA_TO_VDDA || inputRange == ADC_DelSig_1_IR_VSSA_TO_6VREF ||
1737:.\Generated_Source\PSoC5/ADC_DelSig_1.c ****        inputRange == ADC_DelSig_1_IR_VNEG_2VREF_DIFF || inputRange == ADC_DelSig_1_IR_VNEG_6VREF_DI
1738:.\Generated_Source\PSoC5/ADC_DelSig_1.c ****        inputRange == ADC_DelSig_1_IR_VNEG_VREF_8_DIFF)
1739:.\Generated_Source\PSoC5/ADC_DelSig_1.c ****     {
1740:.\Generated_Source\PSoC5/ADC_DelSig_1.c ****         Normalised  = 0;
 2895              		.loc 1 1740 0
 2896 0104 4FF00003 		mov	r3, #0
 2897 0108 3B82     		strh	r3, [r7, #16]	@ movhi
 2898              		.loc 1 1735 0
 2899 010a 06E0     		b	.L119
 2900              	.L118:
1741:.\Generated_Source\PSoC5/ADC_DelSig_1.c ****     }
1742:.\Generated_Source\PSoC5/ADC_DelSig_1.c ****     else
1743:.\Generated_Source\PSoC5/ADC_DelSig_1.c ****     {
1744:.\Generated_Source\PSoC5/ADC_DelSig_1.c ****         Normalised  = ((int16)flash) * 32;
 2901              		.loc 1 1744 0
 2902 010c 97F90F30 		ldrsb	r3, [r7, #15]
 2903 0110 9BB2     		uxth	r3, r3
 2904 0112 4FEA4313 		lsl	r3, r3, #5
 2905 0116 9BB2     		uxth	r3, r3
 2906 0118 3B82     		strh	r3, [r7, #16]	@ movhi
 2907              	.L119:
1745:.\Generated_Source\PSoC5/ADC_DelSig_1.c ****     }
1746:.\Generated_Source\PSoC5/ADC_DelSig_1.c ****                     
1747:.\Generated_Source\PSoC5/ADC_DelSig_1.c ****     /* Add two values */
1748:.\Generated_Source\PSoC5/ADC_DelSig_1.c ****     GcorValue = IdealDecGain + Normalised;  
 2908              		.loc 1 1748 0
 2909 011a 3A8A     		ldrh	r2, [r7, #16]
 2910 011c BB88     		ldrh	r3, [r7, #4]	@ movhi
 2911 011e 1344     		add	r3, r2, r3
 2912 0120 7B82     		strh	r3, [r7, #18]	@ movhi
1749:.\Generated_Source\PSoC5/ADC_DelSig_1.c ****     GcorTmp = (uint32)GcorValue * (uint32)IdealOddDecGain;
 2913              		.loc 1 1749 0
 2914 0122 7B8A     		ldrh	r3, [r7, #18]
 2915 0124 7A88     		ldrh	r2, [r7, #2]
 2916 0126 02FB03F3 		mul	r3, r2, r3
 2917 012a 7B61     		str	r3, [r7, #20]
1750:.\Generated_Source\PSoC5/ADC_DelSig_1.c ****     GcorValue = (uint16)(GcorTmp / ADC_DelSig_1_IDEAL_GAIN_CONST);
 2918              		.loc 1 1750 0
 2919 012c 7B69     		ldr	r3, [r7, #20]
 2920 012e 4FEAD333 		lsr	r3, r3, #15
ARM GAS  C:\Users\karunmj\AppData\Local\Temp\ccZ3DH5A.s 			page 83


 2921 0132 7B82     		strh	r3, [r7, #18]	@ movhi
1751:.\Generated_Source\PSoC5/ADC_DelSig_1.c ****         
1752:.\Generated_Source\PSoC5/ADC_DelSig_1.c ****     if (resolution < 14)
 2922              		.loc 1 1752 0
 2923 0134 7B78     		ldrb	r3, [r7, #1]	@ zero_extendqisi2
 2924 0136 0D2B     		cmp	r3, #13
 2925 0138 12D8     		bhi	.L120
1753:.\Generated_Source\PSoC5/ADC_DelSig_1.c ****     {
1754:.\Generated_Source\PSoC5/ADC_DelSig_1.c ****         GcorValue = (GcorValue >> (15 - (resolution + 1)));
 2926              		.loc 1 1754 0
 2927 013a 7A8A     		ldrh	r2, [r7, #18]
 2928 013c 7B78     		ldrb	r3, [r7, #1]	@ zero_extendqisi2
 2929 013e 6FEA0303 		mvn	r3, r3
 2930 0142 03F10F03 		add	r3, r3, #15
 2931 0146 42FA03F3 		asr	r3, r2, r3
 2932 014a 7B82     		strh	r3, [r7, #18]	@ movhi
1755:.\Generated_Source\PSoC5/ADC_DelSig_1.c ****         ADC_DelSig_1_DEC_GVAL_REG = (resolution + 1);
 2933              		.loc 1 1755 0
 2934 014c 44F60E63 		movw	r3, #:lower16:1073761806
 2935 0150 C4F20003 		movt	r3, #:upper16:1073761806
 2936 0154 7A78     		ldrb	r2, [r7, #1]
 2937 0156 02F10102 		add	r2, r2, #1
 2938 015a D2B2     		uxtb	r2, r2
 2939 015c 1A70     		strb	r2, [r3, #0]
 2940 015e 06E0     		b	.L121
 2941              	.L120:
1756:.\Generated_Source\PSoC5/ADC_DelSig_1.c ****     }
1757:.\Generated_Source\PSoC5/ADC_DelSig_1.c ****     else
1758:.\Generated_Source\PSoC5/ADC_DelSig_1.c ****     {
1759:.\Generated_Source\PSoC5/ADC_DelSig_1.c ****         /* Use all 16 bits */
1760:.\Generated_Source\PSoC5/ADC_DelSig_1.c ****         ADC_DelSig_1_DEC_GVAL_REG = 15u;  
 2942              		.loc 1 1760 0
 2943 0160 44F60E63 		movw	r3, #:lower16:1073761806
 2944 0164 C4F20003 		movt	r3, #:upper16:1073761806
 2945 0168 4FF00F02 		mov	r2, #15
 2946 016c 1A70     		strb	r2, [r3, #0]
 2947              	.L121:
1761:.\Generated_Source\PSoC5/ADC_DelSig_1.c ****     }
1762:.\Generated_Source\PSoC5/ADC_DelSig_1.c ****       
1763:.\Generated_Source\PSoC5/ADC_DelSig_1.c ****     /* Load the gain correction register */    
1764:.\Generated_Source\PSoC5/ADC_DelSig_1.c ****     ADC_DelSig_1_DEC_GCOR_REG  = (uint8)GcorValue;
 2948              		.loc 1 1764 0
 2949 016e 44F60C63 		movw	r3, #:lower16:1073761804
 2950 0172 C4F20003 		movt	r3, #:upper16:1073761804
 2951 0176 7A8A     		ldrh	r2, [r7, #18]	@ movhi
 2952 0178 D2B2     		uxtb	r2, r2
 2953 017a 1A70     		strb	r2, [r3, #0]
1765:.\Generated_Source\PSoC5/ADC_DelSig_1.c ****     ADC_DelSig_1_DEC_GCORH_REG = (uint8)(GcorValue >> 8);    
 2954              		.loc 1 1765 0
 2955 017c 44F60D63 		movw	r3, #:lower16:1073761805
 2956 0180 C4F20003 		movt	r3, #:upper16:1073761805
 2957 0184 7A8A     		ldrh	r2, [r7, #18]
 2958 0186 4FEA1222 		lsr	r2, r2, #8
 2959 018a 92B2     		uxth	r2, r2
 2960 018c D2B2     		uxtb	r2, r2
 2961 018e 1A70     		strb	r2, [r3, #0]
1766:.\Generated_Source\PSoC5/ADC_DelSig_1.c ****     
ARM GAS  C:\Users\karunmj\AppData\Local\Temp\ccZ3DH5A.s 			page 84


1767:.\Generated_Source\PSoC5/ADC_DelSig_1.c ****     /* Workaround for 0 to 2*Vref mode with PSoC5A siliocn */
1768:.\Generated_Source\PSoC5/ADC_DelSig_1.c ****     #if( CY_PSOC5A) 
1769:.\Generated_Source\PSoC5/ADC_DelSig_1.c ****         if( inputRange == ADC_DelSig_1_IR_VSSA_TO_2VREF)
1770:.\Generated_Source\PSoC5/ADC_DelSig_1.c ****         {
1771:.\Generated_Source\PSoC5/ADC_DelSig_1.c ****             ADC_DelSig_1_DEC_GCOR_REG = 0x00u;
1772:.\Generated_Source\PSoC5/ADC_DelSig_1.c ****             ADC_DelSig_1_DEC_GCORH_REG = 0x00u;
1773:.\Generated_Source\PSoC5/ADC_DelSig_1.c ****             ADC_DelSig_1_DEC_GVAL_REG = 0x00u;
1774:.\Generated_Source\PSoC5/ADC_DelSig_1.c ****         }
1775:.\Generated_Source\PSoC5/ADC_DelSig_1.c ****     #endif /* CY_PSOC5A */
1776:.\Generated_Source\PSoC5/ADC_DelSig_1.c **** }
 2962              		.loc 1 1776 0
 2963 0190 07F11C07 		add	r7, r7, #28
 2964 0194 BD46     		mov	sp, r7
 2965 0196 80BC     		pop	{r7}
 2966 0198 7047     		bx	lr
 2967              		.cfi_endproc
 2968              	.LFE24:
 2969              		.size	ADC_DelSig_1_GainCompensation, .-ADC_DelSig_1_GainCompensation
 2970              		.section	.text.ADC_DelSig_1_SetDSMRef0Reg,"ax",%progbits
 2971              		.align	2
 2972              		.global	ADC_DelSig_1_SetDSMRef0Reg
 2973              		.thumb
 2974              		.thumb_func
 2975              		.type	ADC_DelSig_1_SetDSMRef0Reg, %function
 2976              	ADC_DelSig_1_SetDSMRef0Reg:
 2977              	.LFB25:
1777:.\Generated_Source\PSoC5/ADC_DelSig_1.c **** 
1778:.\Generated_Source\PSoC5/ADC_DelSig_1.c **** 
1779:.\Generated_Source\PSoC5/ADC_DelSig_1.c **** /******************************************************************************
1780:.\Generated_Source\PSoC5/ADC_DelSig_1.c **** * Function Name: ADC_DelSig_1_SetDSMRef0Reg(uint8)
1781:.\Generated_Source\PSoC5/ADC_DelSig_1.c **** ******************************************************************************
1782:.\Generated_Source\PSoC5/ADC_DelSig_1.c **** *
1783:.\Generated_Source\PSoC5/ADC_DelSig_1.c **** * Summary:
1784:.\Generated_Source\PSoC5/ADC_DelSig_1.c **** *  This API sets the DSM_REF0 register. This is written for internal use.
1785:.\Generated_Source\PSoC5/ADC_DelSig_1.c **** *
1786:.\Generated_Source\PSoC5/ADC_DelSig_1.c **** * Parameters:  
1787:.\Generated_Source\PSoC5/ADC_DelSig_1.c **** *  value:  Value to be written to DSM_REF0 register.
1788:.\Generated_Source\PSoC5/ADC_DelSig_1.c **** *
1789:.\Generated_Source\PSoC5/ADC_DelSig_1.c **** * Return: 
1790:.\Generated_Source\PSoC5/ADC_DelSig_1.c **** *  void
1791:.\Generated_Source\PSoC5/ADC_DelSig_1.c **** *
1792:.\Generated_Source\PSoC5/ADC_DelSig_1.c **** ******************************************************************************/
1793:.\Generated_Source\PSoC5/ADC_DelSig_1.c **** void ADC_DelSig_1_SetDSMRef0Reg(uint8 value) 
1794:.\Generated_Source\PSoC5/ADC_DelSig_1.c **** {
 2978              		.loc 1 1794 0
 2979              		.cfi_startproc
 2980              		@ args = 0, pretend = 0, frame = 8
 2981              		@ frame_needed = 1, uses_anonymous_args = 0
 2982 0000 80B5     		push	{r7, lr}
 2983              	.LCFI67:
 2984              		.cfi_def_cfa_offset 8
 2985 0002 82B0     		sub	sp, sp, #8
 2986              	.LCFI68:
 2987              		.cfi_def_cfa_offset 16
 2988 0004 00AF     		add	r7, sp, #0
 2989              		.cfi_offset 14, -4
 2990              		.cfi_offset 7, -8
ARM GAS  C:\Users\karunmj\AppData\Local\Temp\ccZ3DH5A.s 			page 85


 2991              	.LCFI69:
 2992              		.cfi_def_cfa_register 7
 2993 0006 0346     		mov	r3, r0
 2994 0008 FB71     		strb	r3, [r7, #7]
1795:.\Generated_Source\PSoC5/ADC_DelSig_1.c ****     /* Disable PRES, Enable power to VCMBUF0, REFBUF0 and REFBUF1, enable 
1796:.\Generated_Source\PSoC5/ADC_DelSig_1.c ****        PRES */
1797:.\Generated_Source\PSoC5/ADC_DelSig_1.c ****     #if (CY_PSOC3 || CY_PSOC5LP)
1798:.\Generated_Source\PSoC5/ADC_DelSig_1.c ****         ADC_DelSig_1_RESET_CR4_REG |= (ADC_DelSig_1_IGNORE_PRESA1 | ADC_DelSig_1_IGNORE_PRESD1);
 2995              		.loc 1 1798 0
 2996 000a 44F2F863 		movw	r3, #:lower16:1073759992
 2997 000e C4F20003 		movt	r3, #:upper16:1073759992
 2998 0012 44F2F862 		movw	r2, #:lower16:1073759992
 2999 0016 C4F20002 		movt	r2, #:upper16:1073759992
 3000 001a 1278     		ldrb	r2, [r2, #0]
 3001 001c D2B2     		uxtb	r2, r2
 3002 001e 42F00302 		orr	r2, r2, #3
 3003 0022 D2B2     		uxtb	r2, r2
 3004 0024 1A70     		strb	r2, [r3, #0]
1799:.\Generated_Source\PSoC5/ADC_DelSig_1.c ****         ADC_DelSig_1_RESET_CR5_REG |= (ADC_DelSig_1_IGNORE_PRESA2 | ADC_DelSig_1_IGNORE_PRESD2);
 3005              		.loc 1 1799 0
 3006 0026 44F2F963 		movw	r3, #:lower16:1073759993
 3007 002a C4F20003 		movt	r3, #:upper16:1073759993
 3008 002e 44F2F962 		movw	r2, #:lower16:1073759993
 3009 0032 C4F20002 		movt	r2, #:upper16:1073759993
 3010 0036 1278     		ldrb	r2, [r2, #0]
 3011 0038 D2B2     		uxtb	r2, r2
 3012 003a 42F00302 		orr	r2, r2, #3
 3013 003e D2B2     		uxtb	r2, r2
 3014 0040 1A70     		strb	r2, [r3, #0]
1800:.\Generated_Source\PSoC5/ADC_DelSig_1.c ****     #elif (CY_PSOC5A)
1801:.\Generated_Source\PSoC5/ADC_DelSig_1.c ****         ADC_DelSig_1_RESET_CR1_REG |= ADC_DelSig_1_DIS_PRES1;
1802:.\Generated_Source\PSoC5/ADC_DelSig_1.c ****         ADC_DelSig_1_RESET_CR3_REG |= ADC_DelSig_1_DIS_PRES2;
1803:.\Generated_Source\PSoC5/ADC_DelSig_1.c ****     #endif /* CY_PSOC5A */
1804:.\Generated_Source\PSoC5/ADC_DelSig_1.c ****         ADC_DelSig_1_DSM_REF0_REG = value;   
 3015              		.loc 1 1804 0
 3016 0042 45F69203 		movw	r3, #:lower16:1073764498
 3017 0046 C4F20003 		movt	r3, #:upper16:1073764498
 3018 004a FA79     		ldrb	r2, [r7, #7]
 3019 004c 1A70     		strb	r2, [r3, #0]
1805:.\Generated_Source\PSoC5/ADC_DelSig_1.c **** 		
1806:.\Generated_Source\PSoC5/ADC_DelSig_1.c **** 	/* Wait for 3 microseconds */
1807:.\Generated_Source\PSoC5/ADC_DelSig_1.c ****     CyDelayUs(3);
 3020              		.loc 1 1807 0
 3021 004e 4FF00300 		mov	r0, #3
 3022 0052 FFF7FEFF 		bl	CyDelayUs
1808:.\Generated_Source\PSoC5/ADC_DelSig_1.c ****     /* Enable the press circuit */
1809:.\Generated_Source\PSoC5/ADC_DelSig_1.c ****     #if (CY_PSOC3 || CY_PSOC5LP)
1810:.\Generated_Source\PSoC5/ADC_DelSig_1.c ****         ADC_DelSig_1_RESET_CR4_REG &= ~(ADC_DelSig_1_IGNORE_PRESA1 | ADC_DelSig_1_IGNORE_PRESD1);
 3023              		.loc 1 1810 0
 3024 0056 44F2F863 		movw	r3, #:lower16:1073759992
 3025 005a C4F20003 		movt	r3, #:upper16:1073759992
 3026 005e 44F2F862 		movw	r2, #:lower16:1073759992
 3027 0062 C4F20002 		movt	r2, #:upper16:1073759992
 3028 0066 1278     		ldrb	r2, [r2, #0]
 3029 0068 D2B2     		uxtb	r2, r2
 3030 006a 02F0FC02 		and	r2, r2, #252
 3031 006e 1A70     		strb	r2, [r3, #0]
ARM GAS  C:\Users\karunmj\AppData\Local\Temp\ccZ3DH5A.s 			page 86


1811:.\Generated_Source\PSoC5/ADC_DelSig_1.c ****         ADC_DelSig_1_RESET_CR5_REG &= ~(ADC_DelSig_1_IGNORE_PRESA2 | ADC_DelSig_1_IGNORE_PRESD2);
 3032              		.loc 1 1811 0
 3033 0070 44F2F963 		movw	r3, #:lower16:1073759993
 3034 0074 C4F20003 		movt	r3, #:upper16:1073759993
 3035 0078 44F2F962 		movw	r2, #:lower16:1073759993
 3036 007c C4F20002 		movt	r2, #:upper16:1073759993
 3037 0080 1278     		ldrb	r2, [r2, #0]
 3038 0082 D2B2     		uxtb	r2, r2
 3039 0084 02F0FC02 		and	r2, r2, #252
 3040 0088 1A70     		strb	r2, [r3, #0]
1812:.\Generated_Source\PSoC5/ADC_DelSig_1.c ****     #elif (CY_PSOC5A)
1813:.\Generated_Source\PSoC5/ADC_DelSig_1.c ****         ADC_DelSig_1_RESET_CR1_REG &= ~ADC_DelSig_1_DIS_PRES1;
1814:.\Generated_Source\PSoC5/ADC_DelSig_1.c ****         ADC_DelSig_1_RESET_CR3_REG &= ~ADC_DelSig_1_DIS_PRES2;
1815:.\Generated_Source\PSoC5/ADC_DelSig_1.c ****     #endif /* CY_PSOC5A */
1816:.\Generated_Source\PSoC5/ADC_DelSig_1.c **** }
 3041              		.loc 1 1816 0
 3042 008a 07F10807 		add	r7, r7, #8
 3043 008e BD46     		mov	sp, r7
 3044 0090 80BD     		pop	{r7, pc}
 3045              		.cfi_endproc
 3046              	.LFE25:
 3047              		.size	ADC_DelSig_1_SetDSMRef0Reg, .-ADC_DelSig_1_SetDSMRef0Reg
 3048 0092 00BF     		.text
 3049              	.Letext0:
 3050              		.section	.debug_loc,"",%progbits
 3051              	.Ldebug_loc0:
 3052              	.LLST0:
 3053 0000 00000000 		.4byte	.LFB0
 3054 0004 02000000 		.4byte	.LCFI0
 3055 0008 0100     		.2byte	0x1
 3056 000a 5D       		.byte	0x5d
 3057 000b 02000000 		.4byte	.LCFI0
 3058 000f 04000000 		.4byte	.LCFI1
 3059 0013 0200     		.2byte	0x2
 3060 0015 7D       		.byte	0x7d
 3061 0016 08       		.sleb128 8
 3062 0017 04000000 		.4byte	.LCFI1
 3063 001b 32000000 		.4byte	.LFE0
 3064 001f 0200     		.2byte	0x2
 3065 0021 77       		.byte	0x77
 3066 0022 08       		.sleb128 8
 3067 0023 00000000 		.4byte	0x0
 3068 0027 00000000 		.4byte	0x0
 3069              	.LLST1:
 3070 002b 00000000 		.4byte	.LFB1
 3071 002f 02000000 		.4byte	.LCFI2
 3072 0033 0100     		.2byte	0x1
 3073 0035 5D       		.byte	0x5d
 3074 0036 02000000 		.4byte	.LCFI2
 3075 003a 04000000 		.4byte	.LCFI3
 3076 003e 0200     		.2byte	0x2
 3077 0040 7D       		.byte	0x7d
 3078 0041 08       		.sleb128 8
 3079 0042 04000000 		.4byte	.LCFI3
 3080 0046 A2010000 		.4byte	.LFE1
 3081 004a 0200     		.2byte	0x2
 3082 004c 77       		.byte	0x77
ARM GAS  C:\Users\karunmj\AppData\Local\Temp\ccZ3DH5A.s 			page 87


 3083 004d 08       		.sleb128 8
 3084 004e 00000000 		.4byte	0x0
 3085 0052 00000000 		.4byte	0x0
 3086              	.LLST2:
 3087 0056 00000000 		.4byte	.LFB2
 3088 005a 02000000 		.4byte	.LCFI4
 3089 005e 0100     		.2byte	0x1
 3090 0060 5D       		.byte	0x5d
 3091 0061 02000000 		.4byte	.LCFI4
 3092 0065 04000000 		.4byte	.LCFI5
 3093 0069 0200     		.2byte	0x2
 3094 006b 7D       		.byte	0x7d
 3095 006c 08       		.sleb128 8
 3096 006d 04000000 		.4byte	.LCFI5
 3097 0071 3A000000 		.4byte	.LFE2
 3098 0075 0200     		.2byte	0x2
 3099 0077 77       		.byte	0x77
 3100 0078 08       		.sleb128 8
 3101 0079 00000000 		.4byte	0x0
 3102 007d 00000000 		.4byte	0x0
 3103              	.LLST3:
 3104 0081 00000000 		.4byte	.LFB3
 3105 0085 02000000 		.4byte	.LCFI6
 3106 0089 0100     		.2byte	0x1
 3107 008b 5D       		.byte	0x5d
 3108 008c 02000000 		.4byte	.LCFI6
 3109 0090 04000000 		.4byte	.LCFI7
 3110 0094 0200     		.2byte	0x2
 3111 0096 7D       		.byte	0x7d
 3112 0097 08       		.sleb128 8
 3113 0098 04000000 		.4byte	.LCFI7
 3114 009c CE010000 		.4byte	.LFE3
 3115 00a0 0200     		.2byte	0x2
 3116 00a2 77       		.byte	0x77
 3117 00a3 08       		.sleb128 8
 3118 00a4 00000000 		.4byte	0x0
 3119 00a8 00000000 		.4byte	0x0
 3120              	.LLST4:
 3121 00ac 00000000 		.4byte	.LFB4
 3122 00b0 02000000 		.4byte	.LCFI8
 3123 00b4 0100     		.2byte	0x1
 3124 00b6 5D       		.byte	0x5d
 3125 00b7 02000000 		.4byte	.LCFI8
 3126 00bb 04000000 		.4byte	.LCFI9
 3127 00bf 0200     		.2byte	0x2
 3128 00c1 7D       		.byte	0x7d
 3129 00c2 04       		.sleb128 4
 3130 00c3 04000000 		.4byte	.LCFI9
 3131 00c7 06000000 		.4byte	.LCFI10
 3132 00cb 0200     		.2byte	0x2
 3133 00cd 7D       		.byte	0x7d
 3134 00ce 18       		.sleb128 24
 3135 00cf 06000000 		.4byte	.LCFI10
 3136 00d3 44000000 		.4byte	.LFE4
 3137 00d7 0200     		.2byte	0x2
 3138 00d9 77       		.byte	0x77
 3139 00da 18       		.sleb128 24
ARM GAS  C:\Users\karunmj\AppData\Local\Temp\ccZ3DH5A.s 			page 88


 3140 00db 00000000 		.4byte	0x0
 3141 00df 00000000 		.4byte	0x0
 3142              	.LLST5:
 3143 00e3 00000000 		.4byte	.LFB5
 3144 00e7 02000000 		.4byte	.LCFI11
 3145 00eb 0100     		.2byte	0x1
 3146 00ed 5D       		.byte	0x5d
 3147 00ee 02000000 		.4byte	.LCFI11
 3148 00f2 04000000 		.4byte	.LCFI12
 3149 00f6 0200     		.2byte	0x2
 3150 00f8 7D       		.byte	0x7d
 3151 00f9 04       		.sleb128 4
 3152 00fa 04000000 		.4byte	.LCFI12
 3153 00fe 06000000 		.4byte	.LCFI13
 3154 0102 0200     		.2byte	0x2
 3155 0104 7D       		.byte	0x7d
 3156 0105 18       		.sleb128 24
 3157 0106 06000000 		.4byte	.LCFI13
 3158 010a 3C000000 		.4byte	.LFE5
 3159 010e 0200     		.2byte	0x2
 3160 0110 77       		.byte	0x77
 3161 0111 18       		.sleb128 24
 3162 0112 00000000 		.4byte	0x0
 3163 0116 00000000 		.4byte	0x0
 3164              	.LLST6:
 3165 011a 00000000 		.4byte	.LFB6
 3166 011e 02000000 		.4byte	.LCFI14
 3167 0122 0100     		.2byte	0x1
 3168 0124 5D       		.byte	0x5d
 3169 0125 02000000 		.4byte	.LCFI14
 3170 0129 04000000 		.4byte	.LCFI15
 3171 012d 0200     		.2byte	0x2
 3172 012f 7D       		.byte	0x7d
 3173 0130 0C       		.sleb128 12
 3174 0131 04000000 		.4byte	.LCFI15
 3175 0135 06000000 		.4byte	.LCFI16
 3176 0139 0200     		.2byte	0x2
 3177 013b 7D       		.byte	0x7d
 3178 013c 20       		.sleb128 32
 3179 013d 06000000 		.4byte	.LCFI16
 3180 0141 E4000000 		.4byte	.LFE6
 3181 0145 0200     		.2byte	0x2
 3182 0147 77       		.byte	0x77
 3183 0148 20       		.sleb128 32
 3184 0149 00000000 		.4byte	0x0
 3185 014d 00000000 		.4byte	0x0
 3186              	.LLST7:
 3187 0151 00000000 		.4byte	.LFB7
 3188 0155 02000000 		.4byte	.LCFI17
 3189 0159 0100     		.2byte	0x1
 3190 015b 5D       		.byte	0x5d
 3191 015c 02000000 		.4byte	.LCFI17
 3192 0160 04000000 		.4byte	.LCFI18
 3193 0164 0200     		.2byte	0x2
 3194 0166 7D       		.byte	0x7d
 3195 0167 04       		.sleb128 4
 3196 0168 04000000 		.4byte	.LCFI18
ARM GAS  C:\Users\karunmj\AppData\Local\Temp\ccZ3DH5A.s 			page 89


 3197 016c 06000000 		.4byte	.LCFI19
 3198 0170 0200     		.2byte	0x2
 3199 0172 7D       		.byte	0x7d
 3200 0173 10       		.sleb128 16
 3201 0174 06000000 		.4byte	.LCFI19
 3202 0178 BA000000 		.4byte	.LFE7
 3203 017c 0200     		.2byte	0x2
 3204 017e 77       		.byte	0x77
 3205 017f 10       		.sleb128 16
 3206 0180 00000000 		.4byte	0x0
 3207 0184 00000000 		.4byte	0x0
 3208              	.LLST8:
 3209 0188 00000000 		.4byte	.LFB8
 3210 018c 02000000 		.4byte	.LCFI20
 3211 0190 0100     		.2byte	0x1
 3212 0192 5D       		.byte	0x5d
 3213 0193 02000000 		.4byte	.LCFI20
 3214 0197 04000000 		.4byte	.LCFI21
 3215 019b 0200     		.2byte	0x2
 3216 019d 7D       		.byte	0x7d
 3217 019e 04       		.sleb128 4
 3218 019f 04000000 		.4byte	.LCFI21
 3219 01a3 06000000 		.4byte	.LCFI22
 3220 01a7 0200     		.2byte	0x2
 3221 01a9 7D       		.byte	0x7d
 3222 01aa 10       		.sleb128 16
 3223 01ab 06000000 		.4byte	.LCFI22
 3224 01af 44000000 		.4byte	.LFE8
 3225 01b3 0200     		.2byte	0x2
 3226 01b5 77       		.byte	0x77
 3227 01b6 10       		.sleb128 16
 3228 01b7 00000000 		.4byte	0x0
 3229 01bb 00000000 		.4byte	0x0
 3230              	.LLST9:
 3231 01bf 00000000 		.4byte	.LFB9
 3232 01c3 02000000 		.4byte	.LCFI23
 3233 01c7 0100     		.2byte	0x1
 3234 01c9 5D       		.byte	0x5d
 3235 01ca 02000000 		.4byte	.LCFI23
 3236 01ce 04000000 		.4byte	.LCFI24
 3237 01d2 0200     		.2byte	0x2
 3238 01d4 7D       		.byte	0x7d
 3239 01d5 04       		.sleb128 4
 3240 01d6 04000000 		.4byte	.LCFI24
 3241 01da 26000000 		.4byte	.LFE9
 3242 01de 0200     		.2byte	0x2
 3243 01e0 77       		.byte	0x77
 3244 01e1 04       		.sleb128 4
 3245 01e2 00000000 		.4byte	0x0
 3246 01e6 00000000 		.4byte	0x0
 3247              	.LLST10:
 3248 01ea 00000000 		.4byte	.LFB10
 3249 01ee 02000000 		.4byte	.LCFI25
 3250 01f2 0100     		.2byte	0x1
 3251 01f4 5D       		.byte	0x5d
 3252 01f5 02000000 		.4byte	.LCFI25
 3253 01f9 04000000 		.4byte	.LCFI26
ARM GAS  C:\Users\karunmj\AppData\Local\Temp\ccZ3DH5A.s 			page 90


 3254 01fd 0200     		.2byte	0x2
 3255 01ff 7D       		.byte	0x7d
 3256 0200 04       		.sleb128 4
 3257 0201 04000000 		.4byte	.LCFI26
 3258 0205 32000000 		.4byte	.LFE10
 3259 0209 0200     		.2byte	0x2
 3260 020b 77       		.byte	0x77
 3261 020c 04       		.sleb128 4
 3262 020d 00000000 		.4byte	0x0
 3263 0211 00000000 		.4byte	0x0
 3264              	.LLST11:
 3265 0215 00000000 		.4byte	.LFB11
 3266 0219 02000000 		.4byte	.LCFI27
 3267 021d 0100     		.2byte	0x1
 3268 021f 5D       		.byte	0x5d
 3269 0220 02000000 		.4byte	.LCFI27
 3270 0224 04000000 		.4byte	.LCFI28
 3271 0228 0200     		.2byte	0x2
 3272 022a 7D       		.byte	0x7d
 3273 022b 04       		.sleb128 4
 3274 022c 04000000 		.4byte	.LCFI28
 3275 0230 06000000 		.4byte	.LCFI29
 3276 0234 0200     		.2byte	0x2
 3277 0236 7D       		.byte	0x7d
 3278 0237 18       		.sleb128 24
 3279 0238 06000000 		.4byte	.LCFI29
 3280 023c 60000000 		.4byte	.LFE11
 3281 0240 0200     		.2byte	0x2
 3282 0242 77       		.byte	0x77
 3283 0243 18       		.sleb128 24
 3284 0244 00000000 		.4byte	0x0
 3285 0248 00000000 		.4byte	0x0
 3286              	.LLST12:
 3287 024c 00000000 		.4byte	.LFB12
 3288 0250 02000000 		.4byte	.LCFI30
 3289 0254 0100     		.2byte	0x1
 3290 0256 5D       		.byte	0x5d
 3291 0257 02000000 		.4byte	.LCFI30
 3292 025b 04000000 		.4byte	.LCFI31
 3293 025f 0200     		.2byte	0x2
 3294 0261 7D       		.byte	0x7d
 3295 0262 04       		.sleb128 4
 3296 0263 04000000 		.4byte	.LCFI31
 3297 0267 1A000000 		.4byte	.LFE12
 3298 026b 0200     		.2byte	0x2
 3299 026d 77       		.byte	0x77
 3300 026e 04       		.sleb128 4
 3301 026f 00000000 		.4byte	0x0
 3302 0273 00000000 		.4byte	0x0
 3303              	.LLST13:
 3304 0277 00000000 		.4byte	.LFB13
 3305 027b 02000000 		.4byte	.LCFI32
 3306 027f 0100     		.2byte	0x1
 3307 0281 5D       		.byte	0x5d
 3308 0282 02000000 		.4byte	.LCFI32
 3309 0286 04000000 		.4byte	.LCFI33
 3310 028a 0200     		.2byte	0x2
ARM GAS  C:\Users\karunmj\AppData\Local\Temp\ccZ3DH5A.s 			page 91


 3311 028c 7D       		.byte	0x7d
 3312 028d 04       		.sleb128 4
 3313 028e 04000000 		.4byte	.LCFI33
 3314 0292 06000000 		.4byte	.LCFI34
 3315 0296 0200     		.2byte	0x2
 3316 0298 7D       		.byte	0x7d
 3317 0299 10       		.sleb128 16
 3318 029a 06000000 		.4byte	.LCFI34
 3319 029e 22000000 		.4byte	.LFE13
 3320 02a2 0200     		.2byte	0x2
 3321 02a4 77       		.byte	0x77
 3322 02a5 10       		.sleb128 16
 3323 02a6 00000000 		.4byte	0x0
 3324 02aa 00000000 		.4byte	0x0
 3325              	.LLST14:
 3326 02ae 00000000 		.4byte	.LFB14
 3327 02b2 02000000 		.4byte	.LCFI35
 3328 02b6 0100     		.2byte	0x1
 3329 02b8 5D       		.byte	0x5d
 3330 02b9 02000000 		.4byte	.LCFI35
 3331 02bd 04000000 		.4byte	.LCFI36
 3332 02c1 0200     		.2byte	0x2
 3333 02c3 7D       		.byte	0x7d
 3334 02c4 04       		.sleb128 4
 3335 02c5 04000000 		.4byte	.LCFI36
 3336 02c9 06000000 		.4byte	.LCFI37
 3337 02cd 0200     		.2byte	0x2
 3338 02cf 7D       		.byte	0x7d
 3339 02d0 10       		.sleb128 16
 3340 02d1 06000000 		.4byte	.LCFI37
 3341 02d5 3A000000 		.4byte	.LFE14
 3342 02d9 0200     		.2byte	0x2
 3343 02db 77       		.byte	0x77
 3344 02dc 10       		.sleb128 16
 3345 02dd 00000000 		.4byte	0x0
 3346 02e1 00000000 		.4byte	0x0
 3347              	.LLST15:
 3348 02e5 00000000 		.4byte	.LFB15
 3349 02e9 02000000 		.4byte	.LCFI38
 3350 02ed 0100     		.2byte	0x1
 3351 02ef 5D       		.byte	0x5d
 3352 02f0 02000000 		.4byte	.LCFI38
 3353 02f4 04000000 		.4byte	.LCFI39
 3354 02f8 0200     		.2byte	0x2
 3355 02fa 7D       		.byte	0x7d
 3356 02fb 04       		.sleb128 4
 3357 02fc 04000000 		.4byte	.LCFI39
 3358 0300 06000000 		.4byte	.LCFI40
 3359 0304 0200     		.2byte	0x2
 3360 0306 7D       		.byte	0x7d
 3361 0307 10       		.sleb128 16
 3362 0308 06000000 		.4byte	.LCFI40
 3363 030c 1E000000 		.4byte	.LFE15
 3364 0310 0200     		.2byte	0x2
 3365 0312 77       		.byte	0x77
 3366 0313 10       		.sleb128 16
 3367 0314 00000000 		.4byte	0x0
ARM GAS  C:\Users\karunmj\AppData\Local\Temp\ccZ3DH5A.s 			page 92


 3368 0318 00000000 		.4byte	0x0
 3369              	.LLST16:
 3370 031c 00000000 		.4byte	.LFB16
 3371 0320 02000000 		.4byte	.LCFI41
 3372 0324 0100     		.2byte	0x1
 3373 0326 5D       		.byte	0x5d
 3374 0327 02000000 		.4byte	.LCFI41
 3375 032b 04000000 		.4byte	.LCFI42
 3376 032f 0200     		.2byte	0x2
 3377 0331 7D       		.byte	0x7d
 3378 0332 04       		.sleb128 4
 3379 0333 04000000 		.4byte	.LCFI42
 3380 0337 06000000 		.4byte	.LCFI43
 3381 033b 0200     		.2byte	0x2
 3382 033d 7D       		.byte	0x7d
 3383 033e 10       		.sleb128 16
 3384 033f 06000000 		.4byte	.LCFI43
 3385 0343 1E000000 		.4byte	.LFE16
 3386 0347 0200     		.2byte	0x2
 3387 0349 77       		.byte	0x77
 3388 034a 10       		.sleb128 16
 3389 034b 00000000 		.4byte	0x0
 3390 034f 00000000 		.4byte	0x0
 3391              	.LLST17:
 3392 0353 00000000 		.4byte	.LFB17
 3393 0357 02000000 		.4byte	.LCFI44
 3394 035b 0100     		.2byte	0x1
 3395 035d 5D       		.byte	0x5d
 3396 035e 02000000 		.4byte	.LCFI44
 3397 0362 04000000 		.4byte	.LCFI45
 3398 0366 0200     		.2byte	0x2
 3399 0368 7D       		.byte	0x7d
 3400 0369 04       		.sleb128 4
 3401 036a 04000000 		.4byte	.LCFI45
 3402 036e 06000000 		.4byte	.LCFI46
 3403 0372 0200     		.2byte	0x2
 3404 0374 7D       		.byte	0x7d
 3405 0375 20       		.sleb128 32
 3406 0376 06000000 		.4byte	.LCFI46
 3407 037a C4000000 		.4byte	.LFE17
 3408 037e 0200     		.2byte	0x2
 3409 0380 77       		.byte	0x77
 3410 0381 20       		.sleb128 32
 3411 0382 00000000 		.4byte	0x0
 3412 0386 00000000 		.4byte	0x0
 3413              	.LLST18:
 3414 038a 00000000 		.4byte	.LFB18
 3415 038e 02000000 		.4byte	.LCFI47
 3416 0392 0100     		.2byte	0x1
 3417 0394 5D       		.byte	0x5d
 3418 0395 02000000 		.4byte	.LCFI47
 3419 0399 04000000 		.4byte	.LCFI48
 3420 039d 0200     		.2byte	0x2
 3421 039f 7D       		.byte	0x7d
 3422 03a0 0C       		.sleb128 12
 3423 03a1 04000000 		.4byte	.LCFI48
 3424 03a5 06000000 		.4byte	.LCFI49
ARM GAS  C:\Users\karunmj\AppData\Local\Temp\ccZ3DH5A.s 			page 93


 3425 03a9 0200     		.2byte	0x2
 3426 03ab 7D       		.byte	0x7d
 3427 03ac 20       		.sleb128 32
 3428 03ad 06000000 		.4byte	.LCFI49
 3429 03b1 54000000 		.4byte	.LFE18
 3430 03b5 0200     		.2byte	0x2
 3431 03b7 77       		.byte	0x77
 3432 03b8 20       		.sleb128 32
 3433 03b9 00000000 		.4byte	0x0
 3434 03bd 00000000 		.4byte	0x0
 3435              	.LLST19:
 3436 03c1 00000000 		.4byte	.LFB19
 3437 03c5 02000000 		.4byte	.LCFI50
 3438 03c9 0100     		.2byte	0x1
 3439 03cb 5D       		.byte	0x5d
 3440 03cc 02000000 		.4byte	.LCFI50
 3441 03d0 04000000 		.4byte	.LCFI51
 3442 03d4 0200     		.2byte	0x2
 3443 03d6 7D       		.byte	0x7d
 3444 03d7 04       		.sleb128 4
 3445 03d8 04000000 		.4byte	.LCFI51
 3446 03dc 06000000 		.4byte	.LCFI52
 3447 03e0 0200     		.2byte	0x2
 3448 03e2 7D       		.byte	0x7d
 3449 03e3 20       		.sleb128 32
 3450 03e4 06000000 		.4byte	.LCFI52
 3451 03e8 F0000000 		.4byte	.LFE19
 3452 03ec 0200     		.2byte	0x2
 3453 03ee 77       		.byte	0x77
 3454 03ef 20       		.sleb128 32
 3455 03f0 00000000 		.4byte	0x0
 3456 03f4 00000000 		.4byte	0x0
 3457              	.LLST20:
 3458 03f8 00000000 		.4byte	.LFB20
 3459 03fc 02000000 		.4byte	.LCFI53
 3460 0400 0100     		.2byte	0x1
 3461 0402 5D       		.byte	0x5d
 3462 0403 02000000 		.4byte	.LCFI53
 3463 0407 04000000 		.4byte	.LCFI54
 3464 040b 0200     		.2byte	0x2
 3465 040d 7D       		.byte	0x7d
 3466 040e 08       		.sleb128 8
 3467 040f 04000000 		.4byte	.LCFI54
 3468 0413 3E000000 		.4byte	.LFE20
 3469 0417 0200     		.2byte	0x2
 3470 0419 77       		.byte	0x77
 3471 041a 08       		.sleb128 8
 3472 041b 00000000 		.4byte	0x0
 3473 041f 00000000 		.4byte	0x0
 3474              	.LLST21:
 3475 0423 00000000 		.4byte	.LFB21
 3476 0427 02000000 		.4byte	.LCFI55
 3477 042b 0100     		.2byte	0x1
 3478 042d 5D       		.byte	0x5d
 3479 042e 02000000 		.4byte	.LCFI55
 3480 0432 04000000 		.4byte	.LCFI56
 3481 0436 0200     		.2byte	0x2
ARM GAS  C:\Users\karunmj\AppData\Local\Temp\ccZ3DH5A.s 			page 94


 3482 0438 7D       		.byte	0x7d
 3483 0439 08       		.sleb128 8
 3484 043a 04000000 		.4byte	.LCFI56
 3485 043e 06000000 		.4byte	.LCFI57
 3486 0442 0200     		.2byte	0x2
 3487 0444 7D       		.byte	0x7d
 3488 0445 10       		.sleb128 16
 3489 0446 06000000 		.4byte	.LCFI57
 3490 044a 40080000 		.4byte	.LFE21
 3491 044e 0200     		.2byte	0x2
 3492 0450 77       		.byte	0x77
 3493 0451 10       		.sleb128 16
 3494 0452 00000000 		.4byte	0x0
 3495 0456 00000000 		.4byte	0x0
 3496              	.LLST22:
 3497 045a 00000000 		.4byte	.LFB22
 3498 045e 02000000 		.4byte	.LCFI58
 3499 0462 0100     		.2byte	0x1
 3500 0464 5D       		.byte	0x5d
 3501 0465 02000000 		.4byte	.LCFI58
 3502 0469 04000000 		.4byte	.LCFI59
 3503 046d 0200     		.2byte	0x2
 3504 046f 7D       		.byte	0x7d
 3505 0470 04       		.sleb128 4
 3506 0471 04000000 		.4byte	.LCFI59
 3507 0475 06000000 		.4byte	.LCFI60
 3508 0479 0200     		.2byte	0x2
 3509 047b 7D       		.byte	0x7d
 3510 047c 18       		.sleb128 24
 3511 047d 06000000 		.4byte	.LCFI60
 3512 0481 54000000 		.4byte	.LFE22
 3513 0485 0200     		.2byte	0x2
 3514 0487 77       		.byte	0x77
 3515 0488 18       		.sleb128 24
 3516 0489 00000000 		.4byte	0x0
 3517 048d 00000000 		.4byte	0x0
 3518              	.LLST23:
 3519 0491 00000000 		.4byte	.LFB23
 3520 0495 02000000 		.4byte	.LCFI61
 3521 0499 0100     		.2byte	0x1
 3522 049b 5D       		.byte	0x5d
 3523 049c 02000000 		.4byte	.LCFI61
 3524 04a0 04000000 		.4byte	.LCFI62
 3525 04a4 0200     		.2byte	0x2
 3526 04a6 7D       		.byte	0x7d
 3527 04a7 08       		.sleb128 8
 3528 04a8 04000000 		.4byte	.LCFI62
 3529 04ac 06000000 		.4byte	.LCFI63
 3530 04b0 0200     		.2byte	0x2
 3531 04b2 7D       		.byte	0x7d
 3532 04b3 20       		.sleb128 32
 3533 04b4 06000000 		.4byte	.LCFI63
 3534 04b8 F0010000 		.4byte	.LFE23
 3535 04bc 0200     		.2byte	0x2
 3536 04be 77       		.byte	0x77
 3537 04bf 20       		.sleb128 32
 3538 04c0 00000000 		.4byte	0x0
ARM GAS  C:\Users\karunmj\AppData\Local\Temp\ccZ3DH5A.s 			page 95


 3539 04c4 00000000 		.4byte	0x0
 3540              	.LLST24:
 3541 04c8 00000000 		.4byte	.LFB24
 3542 04cc 02000000 		.4byte	.LCFI64
 3543 04d0 0100     		.2byte	0x1
 3544 04d2 5D       		.byte	0x5d
 3545 04d3 02000000 		.4byte	.LCFI64
 3546 04d7 04000000 		.4byte	.LCFI65
 3547 04db 0200     		.2byte	0x2
 3548 04dd 7D       		.byte	0x7d
 3549 04de 04       		.sleb128 4
 3550 04df 04000000 		.4byte	.LCFI65
 3551 04e3 06000000 		.4byte	.LCFI66
 3552 04e7 0200     		.2byte	0x2
 3553 04e9 7D       		.byte	0x7d
 3554 04ea 20       		.sleb128 32
 3555 04eb 06000000 		.4byte	.LCFI66
 3556 04ef 9A010000 		.4byte	.LFE24
 3557 04f3 0200     		.2byte	0x2
 3558 04f5 77       		.byte	0x77
 3559 04f6 20       		.sleb128 32
 3560 04f7 00000000 		.4byte	0x0
 3561 04fb 00000000 		.4byte	0x0
 3562              	.LLST25:
 3563 04ff 00000000 		.4byte	.LFB25
 3564 0503 02000000 		.4byte	.LCFI67
 3565 0507 0100     		.2byte	0x1
 3566 0509 5D       		.byte	0x5d
 3567 050a 02000000 		.4byte	.LCFI67
 3568 050e 04000000 		.4byte	.LCFI68
 3569 0512 0200     		.2byte	0x2
 3570 0514 7D       		.byte	0x7d
 3571 0515 08       		.sleb128 8
 3572 0516 04000000 		.4byte	.LCFI68
 3573 051a 06000000 		.4byte	.LCFI69
 3574 051e 0200     		.2byte	0x2
 3575 0520 7D       		.byte	0x7d
 3576 0521 10       		.sleb128 16
 3577 0522 06000000 		.4byte	.LCFI69
 3578 0526 92000000 		.4byte	.LFE25
 3579 052a 0200     		.2byte	0x2
 3580 052c 77       		.byte	0x77
 3581 052d 10       		.sleb128 16
 3582 052e 00000000 		.4byte	0x0
 3583 0532 00000000 		.4byte	0x0
 3584              		.file 2 ".\\Generated_Source\\PSoC5\\/cytypes.h"
 3585              		.section	.debug_info
 3586 0000 1D070000 		.4byte	0x71d
 3587 0004 0200     		.2byte	0x2
 3588 0006 00000000 		.4byte	.Ldebug_abbrev0
 3589 000a 04       		.byte	0x4
 3590 000b 01       		.uleb128 0x1
 3591 000c 70000000 		.4byte	.LASF88
 3592 0010 01       		.byte	0x1
 3593 0011 47010000 		.4byte	.LASF89
 3594 0015 4D030000 		.4byte	.LASF90
 3595 0019 00000000 		.4byte	0x0
ARM GAS  C:\Users\karunmj\AppData\Local\Temp\ccZ3DH5A.s 			page 96


 3596 001d 00000000 		.4byte	0x0
 3597 0021 00000000 		.4byte	.Ldebug_ranges0+0x0
 3598 0025 00000000 		.4byte	.Ldebug_line0
 3599 0029 02       		.uleb128 0x2
 3600 002a 01       		.byte	0x1
 3601 002b 06       		.byte	0x6
 3602 002c E4000000 		.4byte	.LASF0
 3603 0030 02       		.uleb128 0x2
 3604 0031 01       		.byte	0x1
 3605 0032 08       		.byte	0x8
 3606 0033 E8020000 		.4byte	.LASF1
 3607 0037 02       		.uleb128 0x2
 3608 0038 02       		.byte	0x2
 3609 0039 05       		.byte	0x5
 3610 003a 17030000 		.4byte	.LASF2
 3611 003e 02       		.uleb128 0x2
 3612 003f 02       		.byte	0x2
 3613 0040 07       		.byte	0x7
 3614 0041 BD010000 		.4byte	.LASF3
 3615 0045 02       		.uleb128 0x2
 3616 0046 04       		.byte	0x4
 3617 0047 05       		.byte	0x5
 3618 0048 0E010000 		.4byte	.LASF4
 3619 004c 02       		.uleb128 0x2
 3620 004d 04       		.byte	0x4
 3621 004e 07       		.byte	0x7
 3622 004f 83010000 		.4byte	.LASF5
 3623 0053 02       		.uleb128 0x2
 3624 0054 08       		.byte	0x8
 3625 0055 05       		.byte	0x5
 3626 0056 D6000000 		.4byte	.LASF6
 3627 005a 02       		.uleb128 0x2
 3628 005b 08       		.byte	0x8
 3629 005c 07       		.byte	0x7
 3630 005d 59000000 		.4byte	.LASF7
 3631 0061 03       		.uleb128 0x3
 3632 0062 04       		.byte	0x4
 3633 0063 05       		.byte	0x5
 3634 0064 696E7400 		.ascii	"int\000"
 3635 0068 02       		.uleb128 0x2
 3636 0069 04       		.byte	0x4
 3637 006a 07       		.byte	0x7
 3638 006b 6F010000 		.4byte	.LASF8
 3639 006f 04       		.uleb128 0x4
 3640 0070 17010000 		.4byte	.LASF9
 3641 0074 02       		.byte	0x2
 3642 0075 4C       		.byte	0x4c
 3643 0076 30000000 		.4byte	0x30
 3644 007a 04       		.uleb128 0x4
 3645 007b 00000000 		.4byte	.LASF10
 3646 007f 02       		.byte	0x2
 3647 0080 4D       		.byte	0x4d
 3648 0081 3E000000 		.4byte	0x3e
 3649 0085 04       		.uleb128 0x4
 3650 0086 2A010000 		.4byte	.LASF11
 3651 008a 02       		.byte	0x2
 3652 008b 4E       		.byte	0x4e
ARM GAS  C:\Users\karunmj\AppData\Local\Temp\ccZ3DH5A.s 			page 97


 3653 008c 4C000000 		.4byte	0x4c
 3654 0090 04       		.uleb128 0x4
 3655 0091 D0010000 		.4byte	.LASF12
 3656 0095 02       		.byte	0x2
 3657 0096 4F       		.byte	0x4f
 3658 0097 29000000 		.4byte	0x29
 3659 009b 04       		.uleb128 0x4
 3660 009c EA040000 		.4byte	.LASF13
 3661 00a0 02       		.byte	0x2
 3662 00a1 50       		.byte	0x50
 3663 00a2 37000000 		.4byte	0x37
 3664 00a6 04       		.uleb128 0x4
 3665 00a7 08010000 		.4byte	.LASF14
 3666 00ab 02       		.byte	0x2
 3667 00ac 51       		.byte	0x51
 3668 00ad 45000000 		.4byte	0x45
 3669 00b1 02       		.uleb128 0x2
 3670 00b2 04       		.byte	0x4
 3671 00b3 04       		.byte	0x4
 3672 00b4 9D020000 		.4byte	.LASF15
 3673 00b8 02       		.uleb128 0x2
 3674 00b9 08       		.byte	0x8
 3675 00ba 04       		.byte	0x4
 3676 00bb 1D010000 		.4byte	.LASF16
 3677 00bf 02       		.uleb128 0x2
 3678 00c0 01       		.byte	0x1
 3679 00c1 08       		.byte	0x8
 3680 00c2 CA030000 		.4byte	.LASF17
 3681 00c6 05       		.uleb128 0x5
 3682 00c7 6F000000 		.4byte	0x6f
 3683 00cb 06       		.uleb128 0x6
 3684 00cc 04       		.byte	0x4
 3685 00cd 07       		.byte	0x7
 3686 00ce 07       		.uleb128 0x7
 3687 00cf 01       		.byte	0x1
 3688 00d0 50020000 		.4byte	.LASF18
 3689 00d4 01       		.byte	0x1
 3690 00d5 5D       		.byte	0x5d
 3691 00d6 01       		.byte	0x1
 3692 00d7 00000000 		.4byte	.LFB0
 3693 00db 32000000 		.4byte	.LFE0
 3694 00df 00000000 		.4byte	.LLST0
 3695 00e3 07       		.uleb128 0x7
 3696 00e4 01       		.byte	0x1
 3697 00e5 0F000000 		.4byte	.LASF19
 3698 00e9 01       		.byte	0x1
 3699 00ea 81       		.byte	0x81
 3700 00eb 01       		.byte	0x1
 3701 00ec 00000000 		.4byte	.LFB1
 3702 00f0 A2010000 		.4byte	.LFE1
 3703 00f4 2B000000 		.4byte	.LLST1
 3704 00f8 08       		.uleb128 0x8
 3705 00f9 01       		.byte	0x1
 3706 00fa D7040000 		.4byte	.LASF20
 3707 00fe 01       		.byte	0x1
 3708 00ff 5001     		.2byte	0x150
 3709 0101 01       		.byte	0x1
ARM GAS  C:\Users\karunmj\AppData\Local\Temp\ccZ3DH5A.s 			page 98


 3710 0102 00000000 		.4byte	.LFB2
 3711 0106 3A000000 		.4byte	.LFE2
 3712 010a 56000000 		.4byte	.LLST2
 3713 010e 08       		.uleb128 0x8
 3714 010f 01       		.byte	0x1
 3715 0110 87000000 		.4byte	.LASF21
 3716 0114 01       		.byte	0x1
 3717 0115 6E01     		.2byte	0x16e
 3718 0117 01       		.byte	0x1
 3719 0118 00000000 		.4byte	.LFB3
 3720 011c CE010000 		.4byte	.LFE3
 3721 0120 81000000 		.4byte	.LLST3
 3722 0124 09       		.uleb128 0x9
 3723 0125 01       		.byte	0x1
 3724 0126 5D050000 		.4byte	.LASF22
 3725 012a 01       		.byte	0x1
 3726 012b C201     		.2byte	0x1c2
 3727 012d 01       		.byte	0x1
 3728 012e 00000000 		.4byte	.LFB4
 3729 0132 44000000 		.4byte	.LFE4
 3730 0136 AC000000 		.4byte	.LLST4
 3731 013a 5D010000 		.4byte	0x15d
 3732 013e 0A       		.uleb128 0xa
 3733 013f CE020000 		.4byte	.LASF24
 3734 0143 01       		.byte	0x1
 3735 0144 C201     		.2byte	0x1c2
 3736 0146 6F000000 		.4byte	0x6f
 3737 014a 02       		.byte	0x2
 3738 014b 91       		.byte	0x91
 3739 014c 6F       		.sleb128 -17
 3740 014d 0B       		.uleb128 0xb
 3741 014e 78050000 		.4byte	.LASF26
 3742 0152 01       		.byte	0x1
 3743 0153 C401     		.2byte	0x1c4
 3744 0155 6F000000 		.4byte	0x6f
 3745 0159 02       		.byte	0x2
 3746 015a 91       		.byte	0x91
 3747 015b 77       		.sleb128 -9
 3748 015c 00       		.byte	0x0
 3749 015d 09       		.uleb128 0x9
 3750 015e 01       		.byte	0x1
 3751 015f CF030000 		.4byte	.LASF23
 3752 0163 01       		.byte	0x1
 3753 0164 E101     		.2byte	0x1e1
 3754 0166 01       		.byte	0x1
 3755 0167 00000000 		.4byte	.LFB5
 3756 016b 3C000000 		.4byte	.LFE5
 3757 016f E3000000 		.4byte	.LLST5
 3758 0173 96010000 		.4byte	0x196
 3759 0177 0A       		.uleb128 0xa
 3760 0178 93020000 		.4byte	.LASF25
 3761 017c 01       		.byte	0x1
 3762 017d E101     		.2byte	0x1e1
 3763 017f 6F000000 		.4byte	0x6f
 3764 0183 02       		.byte	0x2
 3765 0184 91       		.byte	0x91
 3766 0185 6F       		.sleb128 -17
ARM GAS  C:\Users\karunmj\AppData\Local\Temp\ccZ3DH5A.s 			page 99


 3767 0186 0B       		.uleb128 0xb
 3768 0187 78050000 		.4byte	.LASF26
 3769 018b 01       		.byte	0x1
 3770 018c E301     		.2byte	0x1e3
 3771 018e 6F000000 		.4byte	0x6f
 3772 0192 02       		.byte	0x2
 3773 0193 91       		.byte	0x91
 3774 0194 77       		.sleb128 -9
 3775 0195 00       		.byte	0x0
 3776 0196 0C       		.uleb128 0xc
 3777 0197 01       		.byte	0x1
 3778 0198 A9040000 		.4byte	.LASF30
 3779 019c 01       		.byte	0x1
 3780 019d FF01     		.2byte	0x1ff
 3781 019f 01       		.byte	0x1
 3782 01a0 6F000000 		.4byte	0x6f
 3783 01a4 00000000 		.4byte	.LFB6
 3784 01a8 E4000000 		.4byte	.LFE6
 3785 01ac 1A010000 		.4byte	.LLST6
 3786 01b0 F1010000 		.4byte	0x1f1
 3787 01b4 0A       		.uleb128 0xa
 3788 01b5 CC040000 		.4byte	.LASF27
 3789 01b9 01       		.byte	0x1
 3790 01ba FF01     		.2byte	0x1ff
 3791 01bc B1000000 		.4byte	0xb1
 3792 01c0 02       		.byte	0x2
 3793 01c1 91       		.byte	0x91
 3794 01c2 64       		.sleb128 -28
 3795 01c3 0B       		.uleb128 0xb
 3796 01c4 78050000 		.4byte	.LASF26
 3797 01c8 01       		.byte	0x1
 3798 01c9 0102     		.2byte	0x201
 3799 01cb 7A000000 		.4byte	0x7a
 3800 01cf 02       		.byte	0x2
 3801 01d0 91       		.byte	0x91
 3802 01d1 68       		.sleb128 -24
 3803 01d2 0B       		.uleb128 0xb
 3804 01d3 C5040000 		.4byte	.LASF28
 3805 01d7 01       		.byte	0x1
 3806 01d8 0202     		.2byte	0x202
 3807 01da 6F000000 		.4byte	0x6f
 3808 01de 02       		.byte	0x2
 3809 01df 91       		.byte	0x91
 3810 01e0 6B       		.sleb128 -21
 3811 01e1 0B       		.uleb128 0xb
 3812 01e2 2C040000 		.4byte	.LASF29
 3813 01e6 01       		.byte	0x1
 3814 01e7 0302     		.2byte	0x203
 3815 01e9 B1000000 		.4byte	0xb1
 3816 01ed 02       		.byte	0x2
 3817 01ee 91       		.byte	0x91
 3818 01ef 6C       		.sleb128 -20
 3819 01f0 00       		.byte	0x0
 3820 01f1 0C       		.uleb128 0xc
 3821 01f2 01       		.byte	0x1
 3822 01f3 AF050000 		.4byte	.LASF31
 3823 01f7 01       		.byte	0x1
ARM GAS  C:\Users\karunmj\AppData\Local\Temp\ccZ3DH5A.s 			page 100


 3824 01f8 2C02     		.2byte	0x22c
 3825 01fa 01       		.byte	0x1
 3826 01fb 7A000000 		.4byte	0x7a
 3827 01ff 00000000 		.4byte	.LFB7
 3828 0203 BA000000 		.4byte	.LFE7
 3829 0207 51010000 		.4byte	.LLST7
 3830 020b 3D020000 		.4byte	0x23d
 3831 020f 0B       		.uleb128 0xb
 3832 0210 BE040000 		.4byte	.LASF32
 3833 0214 01       		.byte	0x1
 3834 0215 2E02     		.2byte	0x22e
 3835 0217 6F000000 		.4byte	0x6f
 3836 021b 02       		.byte	0x2
 3837 021c 91       		.byte	0x91
 3838 021d 73       		.sleb128 -13
 3839 021e 0B       		.uleb128 0xb
 3840 021f D5010000 		.4byte	.LASF33
 3841 0223 01       		.byte	0x1
 3842 0224 2F02     		.2byte	0x22f
 3843 0226 7A000000 		.4byte	0x7a
 3844 022a 02       		.byte	0x2
 3845 022b 91       		.byte	0x91
 3846 022c 74       		.sleb128 -12
 3847 022d 0B       		.uleb128 0xb
 3848 022e 9B010000 		.4byte	.LASF34
 3849 0232 01       		.byte	0x1
 3850 0233 2F02     		.2byte	0x22f
 3851 0235 7A000000 		.4byte	0x7a
 3852 0239 02       		.byte	0x2
 3853 023a 91       		.byte	0x91
 3854 023b 76       		.sleb128 -10
 3855 023c 00       		.byte	0x0
 3856 023d 09       		.uleb128 0x9
 3857 023e 01       		.byte	0x1
 3858 023f 1E050000 		.4byte	.LASF35
 3859 0243 01       		.byte	0x1
 3860 0244 6602     		.2byte	0x266
 3861 0246 01       		.byte	0x1
 3862 0247 00000000 		.4byte	.LFB8
 3863 024b 44000000 		.4byte	.LFE8
 3864 024f 88010000 		.4byte	.LLST8
 3865 0253 76020000 		.4byte	0x276
 3866 0257 0A       		.uleb128 0xa
 3867 0258 39050000 		.4byte	.LASF36
 3868 025c 01       		.byte	0x1
 3869 025d 6602     		.2byte	0x266
 3870 025f 6F000000 		.4byte	0x6f
 3871 0263 02       		.byte	0x2
 3872 0264 91       		.byte	0x91
 3873 0265 77       		.sleb128 -9
 3874 0266 0A       		.uleb128 0xa
 3875 0267 1B040000 		.4byte	.LASF37
 3876 026b 01       		.byte	0x1
 3877 026c 6602     		.2byte	0x266
 3878 026e 6F000000 		.4byte	0x6f
 3879 0272 02       		.byte	0x2
 3880 0273 91       		.byte	0x91
ARM GAS  C:\Users\karunmj\AppData\Local\Temp\ccZ3DH5A.s 			page 101


 3881 0274 76       		.sleb128 -10
 3882 0275 00       		.byte	0x0
 3883 0276 08       		.uleb128 0x8
 3884 0277 01       		.byte	0x1
 3885 0278 33030000 		.4byte	.LASF38
 3886 027c 01       		.byte	0x1
 3887 027d 8202     		.2byte	0x282
 3888 027f 01       		.byte	0x1
 3889 0280 00000000 		.4byte	.LFB9
 3890 0284 26000000 		.4byte	.LFE9
 3891 0288 BF010000 		.4byte	.LLST9
 3892 028c 08       		.uleb128 0x8
 3893 028d 01       		.byte	0x1
 3894 028e F0040000 		.4byte	.LASF39
 3895 0292 01       		.byte	0x1
 3896 0293 9B02     		.2byte	0x29b
 3897 0295 01       		.byte	0x1
 3898 0296 00000000 		.4byte	.LFB10
 3899 029a 32000000 		.4byte	.LFE10
 3900 029e EA010000 		.4byte	.LLST10
 3901 02a2 0C       		.uleb128 0xc
 3902 02a3 01       		.byte	0x1
 3903 02a4 8C040000 		.4byte	.LASF40
 3904 02a8 01       		.byte	0x1
 3905 02a9 BA02     		.2byte	0x2ba
 3906 02ab 01       		.byte	0x1
 3907 02ac 6F000000 		.4byte	0x6f
 3908 02b0 00000000 		.4byte	.LFB11
 3909 02b4 60000000 		.4byte	.LFE11
 3910 02b8 15020000 		.4byte	.LLST11
 3911 02bc DF020000 		.4byte	0x2df
 3912 02c0 0A       		.uleb128 0xa
 3913 02c1 95010000 		.4byte	.LASF41
 3914 02c5 01       		.byte	0x1
 3915 02c6 BA02     		.2byte	0x2ba
 3916 02c8 6F000000 		.4byte	0x6f
 3917 02cc 02       		.byte	0x2
 3918 02cd 91       		.byte	0x91
 3919 02ce 6F       		.sleb128 -17
 3920 02cf 0B       		.uleb128 0xb
 3921 02d0 C5040000 		.4byte	.LASF28
 3922 02d4 01       		.byte	0x1
 3923 02d5 BC02     		.2byte	0x2bc
 3924 02d7 6F000000 		.4byte	0x6f
 3925 02db 02       		.byte	0x2
 3926 02dc 91       		.byte	0x91
 3927 02dd 77       		.sleb128 -9
 3928 02de 00       		.byte	0x0
 3929 02df 0D       		.uleb128 0xd
 3930 02e0 01       		.byte	0x1
 3931 02e1 BE000000 		.4byte	.LASF91
 3932 02e5 01       		.byte	0x1
 3933 02e6 E002     		.2byte	0x2e0
 3934 02e8 01       		.byte	0x1
 3935 02e9 90000000 		.4byte	0x90
 3936 02ed 00000000 		.4byte	.LFB12
 3937 02f1 1A000000 		.4byte	.LFE12
ARM GAS  C:\Users\karunmj\AppData\Local\Temp\ccZ3DH5A.s 			page 102


 3938 02f5 4C020000 		.4byte	.LLST12
 3939 02f9 0C       		.uleb128 0xc
 3940 02fa 01       		.byte	0x1
 3941 02fb 17020000 		.4byte	.LASF42
 3942 02ff 01       		.byte	0x1
 3943 0300 F402     		.2byte	0x2f4
 3944 0302 01       		.byte	0x1
 3945 0303 9B000000 		.4byte	0x9b
 3946 0307 00000000 		.4byte	.LFB13
 3947 030b 22000000 		.4byte	.LFE13
 3948 030f 77020000 		.4byte	.LLST13
 3949 0313 27030000 		.4byte	0x327
 3950 0317 0B       		.uleb128 0xb
 3951 0318 7F050000 		.4byte	.LASF43
 3952 031c 01       		.byte	0x1
 3953 031d F602     		.2byte	0x2f6
 3954 031f 7A000000 		.4byte	0x7a
 3955 0323 02       		.byte	0x2
 3956 0324 91       		.byte	0x91
 3957 0325 76       		.sleb128 -10
 3958 0326 00       		.byte	0x0
 3959 0327 0C       		.uleb128 0xc
 3960 0328 01       		.byte	0x1
 3961 0329 B1030000 		.4byte	.LASF44
 3962 032d 01       		.byte	0x1
 3963 032e 1103     		.2byte	0x311
 3964 0330 01       		.byte	0x1
 3965 0331 A6000000 		.4byte	0xa6
 3966 0335 00000000 		.4byte	.LFB14
 3967 0339 3A000000 		.4byte	.LFE14
 3968 033d AE020000 		.4byte	.LLST14
 3969 0341 55030000 		.4byte	0x355
 3970 0345 0B       		.uleb128 0xb
 3971 0346 7F050000 		.4byte	.LASF43
 3972 034a 01       		.byte	0x1
 3973 034b 1303     		.2byte	0x313
 3974 034d 85000000 		.4byte	0x85
 3975 0351 02       		.byte	0x2
 3976 0352 91       		.byte	0x91
 3977 0353 74       		.sleb128 -12
 3978 0354 00       		.byte	0x0
 3979 0355 09       		.uleb128 0x9
 3980 0356 01       		.byte	0x1
 3981 0357 F6020000 		.4byte	.LASF45
 3982 035b 01       		.byte	0x1
 3983 035c 3803     		.2byte	0x338
 3984 035e 01       		.byte	0x1
 3985 035f 00000000 		.4byte	.LFB15
 3986 0363 1E000000 		.4byte	.LFE15
 3987 0367 E5020000 		.4byte	.LLST15
 3988 036b 7F030000 		.4byte	0x37f
 3989 036f 0A       		.uleb128 0xa
 3990 0370 5D040000 		.4byte	.LASF46
 3991 0374 01       		.byte	0x1
 3992 0375 3803     		.2byte	0x338
 3993 0377 A6000000 		.4byte	0xa6
 3994 037b 02       		.byte	0x2
ARM GAS  C:\Users\karunmj\AppData\Local\Temp\ccZ3DH5A.s 			page 103


 3995 037c 91       		.byte	0x91
 3996 037d 74       		.sleb128 -12
 3997 037e 00       		.byte	0x0
 3998 037f 09       		.uleb128 0x9
 3999 0380 01       		.byte	0x1
 4000 0381 09050000 		.4byte	.LASF47
 4001 0385 01       		.byte	0x1
 4002 0386 5103     		.2byte	0x351
 4003 0388 01       		.byte	0x1
 4004 0389 00000000 		.4byte	.LFB16
 4005 038d 1E000000 		.4byte	.LFE16
 4006 0391 1C030000 		.4byte	.LLST16
 4007 0395 A9030000 		.4byte	0x3a9
 4008 0399 0A       		.uleb128 0xa
 4009 039a 07000000 		.4byte	.LASF48
 4010 039e 01       		.byte	0x1
 4011 039f 5103     		.2byte	0x351
 4012 03a1 A6000000 		.4byte	0xa6
 4013 03a5 02       		.byte	0x2
 4014 03a6 91       		.byte	0x91
 4015 03a7 74       		.sleb128 -12
 4016 03a8 00       		.byte	0x0
 4017 03a9 0C       		.uleb128 0xc
 4018 03aa 01       		.byte	0x1
 4019 03ab 40050000 		.4byte	.LASF49
 4020 03af 01       		.byte	0x1
 4021 03b0 6B03     		.2byte	0x36b
 4022 03b2 01       		.byte	0x1
 4023 03b3 9B000000 		.4byte	0x9b
 4024 03b7 00000000 		.4byte	.LFB17
 4025 03bb C4000000 		.4byte	.LFE17
 4026 03bf 53030000 		.4byte	.LLST17
 4027 03c3 0F040000 		.4byte	0x40f
 4028 03c7 0A       		.uleb128 0xa
 4029 03c8 64040000 		.4byte	.LASF50
 4030 03cc 01       		.byte	0x1
 4031 03cd 6B03     		.2byte	0x36b
 4032 03cf A6000000 		.4byte	0xa6
 4033 03d3 02       		.byte	0x2
 4034 03d4 91       		.byte	0x91
 4035 03d5 64       		.sleb128 -28
 4036 03d6 0B       		.uleb128 0xb
 4037 03d7 EE010000 		.4byte	.LASF51
 4038 03db 01       		.byte	0x1
 4039 03dc 6E03     		.2byte	0x36e
 4040 03de A6000000 		.4byte	0xa6
 4041 03e2 02       		.byte	0x2
 4042 03e3 91       		.byte	0x91
 4043 03e4 68       		.sleb128 -24
 4044 03e5 0E       		.uleb128 0xe
 4045 03e6 4100     		.ascii	"A\000"
 4046 03e8 01       		.byte	0x1
 4047 03e9 6F03     		.2byte	0x36f
 4048 03eb A6000000 		.4byte	0xa6
 4049 03ef 02       		.byte	0x2
 4050 03f0 91       		.byte	0x91
 4051 03f1 6C       		.sleb128 -20
ARM GAS  C:\Users\karunmj\AppData\Local\Temp\ccZ3DH5A.s 			page 104


 4052 03f2 0E       		.uleb128 0xe
 4053 03f3 4200     		.ascii	"B\000"
 4054 03f5 01       		.byte	0x1
 4055 03f6 6F03     		.2byte	0x36f
 4056 03f8 A6000000 		.4byte	0xa6
 4057 03fc 02       		.byte	0x2
 4058 03fd 91       		.byte	0x91
 4059 03fe 70       		.sleb128 -16
 4060 03ff 0B       		.uleb128 0xb
 4061 0400 9E030000 		.4byte	.LASF52
 4062 0404 01       		.byte	0x1
 4063 0405 7003     		.2byte	0x370
 4064 0407 6F000000 		.4byte	0x6f
 4065 040b 02       		.byte	0x2
 4066 040c 91       		.byte	0x91
 4067 040d 77       		.sleb128 -9
 4068 040e 00       		.byte	0x0
 4069 040f 0C       		.uleb128 0xc
 4070 0410 01       		.byte	0x1
 4071 0411 FB010000 		.4byte	.LASF53
 4072 0415 01       		.byte	0x1
 4073 0416 AB03     		.2byte	0x3ab
 4074 0418 01       		.byte	0x1
 4075 0419 B1000000 		.4byte	0xb1
 4076 041d 00000000 		.4byte	.LFB18
 4077 0421 54000000 		.4byte	.LFE18
 4078 0425 8A030000 		.4byte	.LLST18
 4079 0429 4C040000 		.4byte	0x44c
 4080 042d 0A       		.uleb128 0xa
 4081 042e 64040000 		.4byte	.LASF50
 4082 0432 01       		.byte	0x1
 4083 0433 AB03     		.2byte	0x3ab
 4084 0435 A6000000 		.4byte	0xa6
 4085 0439 02       		.byte	0x2
 4086 043a 91       		.byte	0x91
 4087 043b 64       		.sleb128 -28
 4088 043c 0B       		.uleb128 0xb
 4089 043d 24010000 		.4byte	.LASF54
 4090 0441 01       		.byte	0x1
 4091 0442 AE03     		.2byte	0x3ae
 4092 0444 B1000000 		.4byte	0xb1
 4093 0448 02       		.byte	0x2
 4094 0449 91       		.byte	0x91
 4095 044a 6C       		.sleb128 -20
 4096 044b 00       		.byte	0x0
 4097 044c 0C       		.uleb128 0xc
 4098 044d 01       		.byte	0x1
 4099 044e 62020000 		.4byte	.LASF55
 4100 0452 01       		.byte	0x1
 4101 0453 D903     		.2byte	0x3d9
 4102 0455 01       		.byte	0x1
 4103 0456 A6000000 		.4byte	0xa6
 4104 045a 00000000 		.4byte	.LFB19
 4105 045e F0000000 		.4byte	.LFE19
 4106 0462 C1030000 		.4byte	.LLST19
 4107 0466 B2040000 		.4byte	0x4b2
 4108 046a 0A       		.uleb128 0xa
ARM GAS  C:\Users\karunmj\AppData\Local\Temp\ccZ3DH5A.s 			page 105


 4109 046b 64040000 		.4byte	.LASF50
 4110 046f 01       		.byte	0x1
 4111 0470 D903     		.2byte	0x3d9
 4112 0472 A6000000 		.4byte	0xa6
 4113 0476 02       		.byte	0x2
 4114 0477 91       		.byte	0x91
 4115 0478 64       		.sleb128 -28
 4116 0479 0B       		.uleb128 0xb
 4117 047a 7C010000 		.4byte	.LASF56
 4118 047e 01       		.byte	0x1
 4119 047f DC03     		.2byte	0x3dc
 4120 0481 A6000000 		.4byte	0xa6
 4121 0485 02       		.byte	0x2
 4122 0486 91       		.byte	0x91
 4123 0487 68       		.sleb128 -24
 4124 0488 0E       		.uleb128 0xe
 4125 0489 4100     		.ascii	"A\000"
 4126 048b 01       		.byte	0x1
 4127 048c DD03     		.2byte	0x3dd
 4128 048e A6000000 		.4byte	0xa6
 4129 0492 02       		.byte	0x2
 4130 0493 91       		.byte	0x91
 4131 0494 6C       		.sleb128 -20
 4132 0495 0E       		.uleb128 0xe
 4133 0496 4200     		.ascii	"B\000"
 4134 0498 01       		.byte	0x1
 4135 0499 DD03     		.2byte	0x3dd
 4136 049b A6000000 		.4byte	0xa6
 4137 049f 02       		.byte	0x2
 4138 04a0 91       		.byte	0x91
 4139 04a1 70       		.sleb128 -16
 4140 04a2 0B       		.uleb128 0xb
 4141 04a3 9E030000 		.4byte	.LASF52
 4142 04a7 01       		.byte	0x1
 4143 04a8 DE03     		.2byte	0x3de
 4144 04aa 6F000000 		.4byte	0x6f
 4145 04ae 02       		.byte	0x2
 4146 04af 91       		.byte	0x91
 4147 04b0 77       		.sleb128 -9
 4148 04b1 00       		.byte	0x0
 4149 04b2 08       		.uleb128 0x8
 4150 04b3 01       		.byte	0x1
 4151 04b4 B7020000 		.4byte	.LASF57
 4152 04b8 01       		.byte	0x1
 4153 04b9 2004     		.2byte	0x420
 4154 04bb 01       		.byte	0x1
 4155 04bc 00000000 		.4byte	.LFB20
 4156 04c0 3E000000 		.4byte	.LFE20
 4157 04c4 F8030000 		.4byte	.LLST20
 4158 04c8 09       		.uleb128 0x9
 4159 04c9 01       		.byte	0x1
 4160 04ca A6000000 		.4byte	.LASF58
 4161 04ce 01       		.byte	0x1
 4162 04cf 4204     		.2byte	0x442
 4163 04d1 01       		.byte	0x1
 4164 04d2 00000000 		.4byte	.LFB21
 4165 04d6 40080000 		.4byte	.LFE21
ARM GAS  C:\Users\karunmj\AppData\Local\Temp\ccZ3DH5A.s 			page 106


 4166 04da 23040000 		.4byte	.LLST21
 4167 04de F2040000 		.4byte	0x4f2
 4168 04e2 0A       		.uleb128 0xa
 4169 04e3 04040000 		.4byte	.LASF59
 4170 04e7 01       		.byte	0x1
 4171 04e8 4204     		.2byte	0x442
 4172 04ea 6F000000 		.4byte	0x6f
 4173 04ee 02       		.byte	0x2
 4174 04ef 91       		.byte	0x91
 4175 04f0 77       		.sleb128 -9
 4176 04f1 00       		.byte	0x0
 4177 04f2 0C       		.uleb128 0xc
 4178 04f3 01       		.byte	0x1
 4179 04f4 F0000000 		.4byte	.LASF60
 4180 04f8 01       		.byte	0x1
 4181 04f9 8A05     		.2byte	0x58a
 4182 04fb 01       		.byte	0x1
 4183 04fc 7A000000 		.4byte	0x7a
 4184 0500 00000000 		.4byte	.LFB22
 4185 0504 54000000 		.4byte	.LFE22
 4186 0508 5A040000 		.4byte	.LLST22
 4187 050c 4D050000 		.4byte	0x54d
 4188 0510 0A       		.uleb128 0xa
 4189 0511 99000000 		.4byte	.LASF61
 4190 0515 01       		.byte	0x1
 4191 0516 8A05     		.2byte	0x58a
 4192 0518 85000000 		.4byte	0x85
 4193 051c 02       		.byte	0x2
 4194 051d 91       		.byte	0x91
 4195 051e 6C       		.sleb128 -20
 4196 051f 0A       		.uleb128 0xa
 4197 0520 4F000000 		.4byte	.LASF62
 4198 0524 01       		.byte	0x1
 4199 0525 8A05     		.2byte	0x58a
 4200 0527 85000000 		.4byte	0x85
 4201 052b 02       		.byte	0x2
 4202 052c 91       		.byte	0x91
 4203 052d 68       		.sleb128 -24
 4204 052e 0B       		.uleb128 0xb
 4205 052f 21030000 		.4byte	.LASF63
 4206 0533 01       		.byte	0x1
 4207 0534 8D05     		.2byte	0x58d
 4208 0536 7A000000 		.4byte	0x7a
 4209 053a 02       		.byte	0x2
 4210 053b 91       		.byte	0x91
 4211 053c 74       		.sleb128 -12
 4212 053d 0B       		.uleb128 0xb
 4213 053e 2A030000 		.4byte	.LASF64
 4214 0542 01       		.byte	0x1
 4215 0543 8D05     		.2byte	0x58d
 4216 0545 7A000000 		.4byte	0x7a
 4217 0549 02       		.byte	0x2
 4218 054a 91       		.byte	0x91
 4219 054b 76       		.sleb128 -10
 4220 054c 00       		.byte	0x0
 4221 054d 09       		.uleb128 0x9
 4222 054e 01       		.byte	0x1
ARM GAS  C:\Users\karunmj\AppData\Local\Temp\ccZ3DH5A.s 			page 107


 4223 054f 2E000000 		.4byte	.LASF65
 4224 0553 01       		.byte	0x1
 4225 0554 AB05     		.2byte	0x5ab
 4226 0556 01       		.byte	0x1
 4227 0557 00000000 		.4byte	.LFB23
 4228 055b F0010000 		.4byte	.LFE23
 4229 055f 91040000 		.4byte	.LLST23
 4230 0563 E0050000 		.4byte	0x5e0
 4231 0567 0A       		.uleb128 0xa
 4232 0568 04040000 		.4byte	.LASF59
 4233 056c 01       		.byte	0x1
 4234 056d AB05     		.2byte	0x5ab
 4235 056f 6F000000 		.4byte	0x6f
 4236 0573 02       		.byte	0x2
 4237 0574 91       		.byte	0x91
 4238 0575 67       		.sleb128 -25
 4239 0576 0A       		.uleb128 0xa
 4240 0577 24040000 		.4byte	.LASF66
 4241 057b 01       		.byte	0x1
 4242 057c AB05     		.2byte	0x5ab
 4243 057e 6F000000 		.4byte	0x6f
 4244 0582 02       		.byte	0x2
 4245 0583 91       		.byte	0x91
 4246 0584 66       		.sleb128 -26
 4247 0585 0B       		.uleb128 0xb
 4248 0586 23000000 		.4byte	.LASF67
 4249 058a 01       		.byte	0x1
 4250 058b AE05     		.2byte	0x5ae
 4251 058d 6F000000 		.4byte	0x6f
 4252 0591 02       		.byte	0x2
 4253 0592 91       		.byte	0x91
 4254 0593 6E       		.sleb128 -18
 4255 0594 0B       		.uleb128 0xb
 4256 0595 9E030000 		.4byte	.LASF52
 4257 0599 01       		.byte	0x1
 4258 059a AE05     		.2byte	0x5ae
 4259 059c 6F000000 		.4byte	0x6f
 4260 05a0 02       		.byte	0x2
 4261 05a1 91       		.byte	0x91
 4262 05a2 6F       		.sleb128 -17
 4263 05a3 0B       		.uleb128 0xb
 4264 05a4 30020000 		.4byte	.LASF68
 4265 05a8 01       		.byte	0x1
 4266 05a9 AF05     		.2byte	0x5af
 4267 05ab 7A000000 		.4byte	0x7a
 4268 05af 02       		.byte	0x2
 4269 05b0 91       		.byte	0x91
 4270 05b1 70       		.sleb128 -16
 4271 05b2 0B       		.uleb128 0xb
 4272 05b3 0B040000 		.4byte	.LASF69
 4273 05b7 01       		.byte	0x1
 4274 05b8 AF05     		.2byte	0x5af
 4275 05ba 7A000000 		.4byte	0x7a
 4276 05be 02       		.byte	0x2
 4277 05bf 91       		.byte	0x91
 4278 05c0 72       		.sleb128 -14
 4279 05c1 0B       		.uleb128 0xb
ARM GAS  C:\Users\karunmj\AppData\Local\Temp\ccZ3DH5A.s 			page 108


 4280 05c2 DF010000 		.4byte	.LASF70
 4281 05c6 01       		.byte	0x1
 4282 05c7 B005     		.2byte	0x5b0
 4283 05c9 7A000000 		.4byte	0x7a
 4284 05cd 02       		.byte	0x2
 4285 05ce 91       		.byte	0x91
 4286 05cf 74       		.sleb128 -12
 4287 05d0 0B       		.uleb128 0xb
 4288 05d1 35040000 		.4byte	.LASF71
 4289 05d5 01       		.byte	0x1
 4290 05d6 B105     		.2byte	0x5b1
 4291 05d8 7A000000 		.4byte	0x7a
 4292 05dc 02       		.byte	0x2
 4293 05dd 91       		.byte	0x91
 4294 05de 76       		.sleb128 -10
 4295 05df 00       		.byte	0x0
 4296 05e0 09       		.uleb128 0x9
 4297 05e1 01       		.byte	0x1
 4298 05e2 6E040000 		.4byte	.LASF72
 4299 05e6 01       		.byte	0x1
 4300 05e7 8506     		.2byte	0x685
 4301 05e9 01       		.byte	0x1
 4302 05ea 00000000 		.4byte	.LFB24
 4303 05ee 9A010000 		.4byte	.LFE24
 4304 05f2 C8040000 		.4byte	.LLST24
 4305 05f6 73060000 		.4byte	0x673
 4306 05fa 0A       		.uleb128 0xa
 4307 05fb 23000000 		.4byte	.LASF67
 4308 05ff 01       		.byte	0x1
 4309 0600 8506     		.2byte	0x685
 4310 0602 6F000000 		.4byte	0x6f
 4311 0606 02       		.byte	0x2
 4312 0607 91       		.byte	0x91
 4313 0608 67       		.sleb128 -25
 4314 0609 0A       		.uleb128 0xa
 4315 060a 86050000 		.4byte	.LASF73
 4316 060e 01       		.byte	0x1
 4317 060f 8506     		.2byte	0x685
 4318 0611 7A000000 		.4byte	0x7a
 4319 0615 02       		.byte	0x2
 4320 0616 91       		.byte	0x91
 4321 0617 64       		.sleb128 -28
 4322 0618 0A       		.uleb128 0xa
 4323 0619 31010000 		.4byte	.LASF74
 4324 061d 01       		.byte	0x1
 4325 061e 8506     		.2byte	0x685
 4326 0620 7A000000 		.4byte	0x7a
 4327 0624 02       		.byte	0x2
 4328 0625 91       		.byte	0x91
 4329 0626 62       		.sleb128 -30
 4330 0627 0A       		.uleb128 0xa
 4331 0628 9E030000 		.4byte	.LASF52
 4332 062c 01       		.byte	0x1
 4333 062d 8606     		.2byte	0x686
 4334 062f 6F000000 		.4byte	0x6f
 4335 0633 02       		.byte	0x2
 4336 0634 91       		.byte	0x91
ARM GAS  C:\Users\karunmj\AppData\Local\Temp\ccZ3DH5A.s 			page 109


 4337 0635 61       		.sleb128 -31
 4338 0636 0B       		.uleb128 0xb
 4339 0637 F5010000 		.4byte	.LASF75
 4340 063b 01       		.byte	0x1
 4341 063c 8806     		.2byte	0x688
 4342 063e 90000000 		.4byte	0x90
 4343 0642 02       		.byte	0x2
 4344 0643 91       		.byte	0x91
 4345 0644 6F       		.sleb128 -17
 4346 0645 0B       		.uleb128 0xb
 4347 0646 7C000000 		.4byte	.LASF76
 4348 064a 01       		.byte	0x1
 4349 064b 8906     		.2byte	0x689
 4350 064d 9B000000 		.4byte	0x9b
 4351 0651 02       		.byte	0x2
 4352 0652 91       		.byte	0x91
 4353 0653 70       		.sleb128 -16
 4354 0654 0B       		.uleb128 0xb
 4355 0655 0D030000 		.4byte	.LASF77
 4356 0659 01       		.byte	0x1
 4357 065a 8A06     		.2byte	0x68a
 4358 065c 7A000000 		.4byte	0x7a
 4359 0660 02       		.byte	0x2
 4360 0661 91       		.byte	0x91
 4361 0662 72       		.sleb128 -14
 4362 0663 0B       		.uleb128 0xb
 4363 0664 A9030000 		.4byte	.LASF78
 4364 0668 01       		.byte	0x1
 4365 0669 8B06     		.2byte	0x68b
 4366 066b 85000000 		.4byte	0x85
 4367 066f 02       		.byte	0x2
 4368 0670 91       		.byte	0x91
 4369 0671 74       		.sleb128 -12
 4370 0672 00       		.byte	0x0
 4371 0673 09       		.uleb128 0x9
 4372 0674 01       		.byte	0x1
 4373 0675 42040000 		.4byte	.LASF79
 4374 0679 01       		.byte	0x1
 4375 067a 0107     		.2byte	0x701
 4376 067c 01       		.byte	0x1
 4377 067d 00000000 		.4byte	.LFB25
 4378 0681 92000000 		.4byte	.LFE25
 4379 0685 FF040000 		.4byte	.LLST25
 4380 0689 9D060000 		.4byte	0x69d
 4381 068d 0A       		.uleb128 0xa
 4382 068e 41010000 		.4byte	.LASF80
 4383 0692 01       		.byte	0x1
 4384 0693 0107     		.2byte	0x701
 4385 0695 6F000000 		.4byte	0x6f
 4386 0699 02       		.byte	0x2
 4387 069a 91       		.byte	0x91
 4388 069b 77       		.sleb128 -9
 4389 069c 00       		.byte	0x0
 4390 069d 0F       		.uleb128 0xf
 4391 069e 3A020000 		.4byte	.LASF81
 4392 06a2 01       		.byte	0x1
 4393 06a3 1F       		.byte	0x1f
ARM GAS  C:\Users\karunmj\AppData\Local\Temp\ccZ3DH5A.s 			page 110


 4394 06a4 C6000000 		.4byte	0xc6
 4395 06a8 01       		.byte	0x1
 4396 06a9 05       		.byte	0x5
 4397 06aa 03       		.byte	0x3
 4398 06ab 00000000 		.4byte	ADC_DelSig_1_convDone
 4399 06af 0F       		.uleb128 0xf
 4400 06b0 93050000 		.4byte	.LASF82
 4401 06b4 01       		.byte	0x1
 4402 06b5 23       		.byte	0x23
 4403 06b6 C6000000 		.4byte	0xc6
 4404 06ba 01       		.byte	0x1
 4405 06bb 05       		.byte	0x5
 4406 06bc 03       		.byte	0x3
 4407 06bd 00000000 		.4byte	ADC_DelSig_1_stopConversion
 4408 06c1 0F       		.uleb128 0xf
 4409 06c2 D3020000 		.4byte	.LASF83
 4410 06c6 01       		.byte	0x1
 4411 06c7 26       		.byte	0x26
 4412 06c8 6F000000 		.4byte	0x6f
 4413 06cc 01       		.byte	0x1
 4414 06cd 05       		.byte	0x5
 4415 06ce 03       		.byte	0x3
 4416 06cf 00000000 		.4byte	ADC_DelSig_1_initVar
 4417 06d3 0F       		.uleb128 0xf
 4418 06d4 A8010000 		.4byte	.LASF84
 4419 06d8 01       		.byte	0x1
 4420 06d9 29       		.byte	0x29
 4421 06da C6000000 		.4byte	0xc6
 4422 06de 01       		.byte	0x1
 4423 06df 05       		.byte	0x5
 4424 06e0 03       		.byte	0x3
 4425 06e1 00000000 		.4byte	ADC_DelSig_1_started
 4426 06e5 0F       		.uleb128 0xf
 4427 06e6 7F020000 		.4byte	.LASF85
 4428 06ea 01       		.byte	0x1
 4429 06eb 2C       		.byte	0x2c
 4430 06ec C6000000 		.4byte	0xc6
 4431 06f0 01       		.byte	0x1
 4432 06f1 05       		.byte	0x5
 4433 06f2 03       		.byte	0x3
 4434 06f3 00000000 		.4byte	ADC_DelSig_1_Config
 4435 06f7 0F       		.uleb128 0xf
 4436 06f8 A3020000 		.4byte	.LASF86
 4437 06fc 01       		.byte	0x1
 4438 06fd 2E       		.byte	0x2e
 4439 06fe 09070000 		.4byte	0x709
 4440 0702 01       		.byte	0x1
 4441 0703 05       		.byte	0x5
 4442 0704 03       		.byte	0x3
 4443 0705 00000000 		.4byte	ADC_DelSig_1_Offset
 4444 0709 05       		.uleb128 0x5
 4445 070a A6000000 		.4byte	0xa6
 4446 070e 0F       		.uleb128 0xf
 4447 070f E9030000 		.4byte	.LASF87
 4448 0713 01       		.byte	0x1
 4449 0714 2F       		.byte	0x2f
 4450 0715 09070000 		.4byte	0x709
ARM GAS  C:\Users\karunmj\AppData\Local\Temp\ccZ3DH5A.s 			page 111


 4451 0719 01       		.byte	0x1
 4452 071a 05       		.byte	0x5
 4453 071b 03       		.byte	0x3
 4454 071c 00000000 		.4byte	ADC_DelSig_1_CountsPerVolt
 4455 0720 00       		.byte	0x0
 4456              		.section	.debug_abbrev
 4457 0000 01       		.uleb128 0x1
 4458 0001 11       		.uleb128 0x11
 4459 0002 01       		.byte	0x1
 4460 0003 25       		.uleb128 0x25
 4461 0004 0E       		.uleb128 0xe
 4462 0005 13       		.uleb128 0x13
 4463 0006 0B       		.uleb128 0xb
 4464 0007 03       		.uleb128 0x3
 4465 0008 0E       		.uleb128 0xe
 4466 0009 1B       		.uleb128 0x1b
 4467 000a 0E       		.uleb128 0xe
 4468 000b 11       		.uleb128 0x11
 4469 000c 01       		.uleb128 0x1
 4470 000d 52       		.uleb128 0x52
 4471 000e 01       		.uleb128 0x1
 4472 000f 55       		.uleb128 0x55
 4473 0010 06       		.uleb128 0x6
 4474 0011 10       		.uleb128 0x10
 4475 0012 06       		.uleb128 0x6
 4476 0013 00       		.byte	0x0
 4477 0014 00       		.byte	0x0
 4478 0015 02       		.uleb128 0x2
 4479 0016 24       		.uleb128 0x24
 4480 0017 00       		.byte	0x0
 4481 0018 0B       		.uleb128 0xb
 4482 0019 0B       		.uleb128 0xb
 4483 001a 3E       		.uleb128 0x3e
 4484 001b 0B       		.uleb128 0xb
 4485 001c 03       		.uleb128 0x3
 4486 001d 0E       		.uleb128 0xe
 4487 001e 00       		.byte	0x0
 4488 001f 00       		.byte	0x0
 4489 0020 03       		.uleb128 0x3
 4490 0021 24       		.uleb128 0x24
 4491 0022 00       		.byte	0x0
 4492 0023 0B       		.uleb128 0xb
 4493 0024 0B       		.uleb128 0xb
 4494 0025 3E       		.uleb128 0x3e
 4495 0026 0B       		.uleb128 0xb
 4496 0027 03       		.uleb128 0x3
 4497 0028 08       		.uleb128 0x8
 4498 0029 00       		.byte	0x0
 4499 002a 00       		.byte	0x0
 4500 002b 04       		.uleb128 0x4
 4501 002c 16       		.uleb128 0x16
 4502 002d 00       		.byte	0x0
 4503 002e 03       		.uleb128 0x3
 4504 002f 0E       		.uleb128 0xe
 4505 0030 3A       		.uleb128 0x3a
 4506 0031 0B       		.uleb128 0xb
 4507 0032 3B       		.uleb128 0x3b
ARM GAS  C:\Users\karunmj\AppData\Local\Temp\ccZ3DH5A.s 			page 112


 4508 0033 0B       		.uleb128 0xb
 4509 0034 49       		.uleb128 0x49
 4510 0035 13       		.uleb128 0x13
 4511 0036 00       		.byte	0x0
 4512 0037 00       		.byte	0x0
 4513 0038 05       		.uleb128 0x5
 4514 0039 35       		.uleb128 0x35
 4515 003a 00       		.byte	0x0
 4516 003b 49       		.uleb128 0x49
 4517 003c 13       		.uleb128 0x13
 4518 003d 00       		.byte	0x0
 4519 003e 00       		.byte	0x0
 4520 003f 06       		.uleb128 0x6
 4521 0040 24       		.uleb128 0x24
 4522 0041 00       		.byte	0x0
 4523 0042 0B       		.uleb128 0xb
 4524 0043 0B       		.uleb128 0xb
 4525 0044 3E       		.uleb128 0x3e
 4526 0045 0B       		.uleb128 0xb
 4527 0046 00       		.byte	0x0
 4528 0047 00       		.byte	0x0
 4529 0048 07       		.uleb128 0x7
 4530 0049 2E       		.uleb128 0x2e
 4531 004a 00       		.byte	0x0
 4532 004b 3F       		.uleb128 0x3f
 4533 004c 0C       		.uleb128 0xc
 4534 004d 03       		.uleb128 0x3
 4535 004e 0E       		.uleb128 0xe
 4536 004f 3A       		.uleb128 0x3a
 4537 0050 0B       		.uleb128 0xb
 4538 0051 3B       		.uleb128 0x3b
 4539 0052 0B       		.uleb128 0xb
 4540 0053 27       		.uleb128 0x27
 4541 0054 0C       		.uleb128 0xc
 4542 0055 11       		.uleb128 0x11
 4543 0056 01       		.uleb128 0x1
 4544 0057 12       		.uleb128 0x12
 4545 0058 01       		.uleb128 0x1
 4546 0059 40       		.uleb128 0x40
 4547 005a 06       		.uleb128 0x6
 4548 005b 00       		.byte	0x0
 4549 005c 00       		.byte	0x0
 4550 005d 08       		.uleb128 0x8
 4551 005e 2E       		.uleb128 0x2e
 4552 005f 00       		.byte	0x0
 4553 0060 3F       		.uleb128 0x3f
 4554 0061 0C       		.uleb128 0xc
 4555 0062 03       		.uleb128 0x3
 4556 0063 0E       		.uleb128 0xe
 4557 0064 3A       		.uleb128 0x3a
 4558 0065 0B       		.uleb128 0xb
 4559 0066 3B       		.uleb128 0x3b
 4560 0067 05       		.uleb128 0x5
 4561 0068 27       		.uleb128 0x27
 4562 0069 0C       		.uleb128 0xc
 4563 006a 11       		.uleb128 0x11
 4564 006b 01       		.uleb128 0x1
ARM GAS  C:\Users\karunmj\AppData\Local\Temp\ccZ3DH5A.s 			page 113


 4565 006c 12       		.uleb128 0x12
 4566 006d 01       		.uleb128 0x1
 4567 006e 40       		.uleb128 0x40
 4568 006f 06       		.uleb128 0x6
 4569 0070 00       		.byte	0x0
 4570 0071 00       		.byte	0x0
 4571 0072 09       		.uleb128 0x9
 4572 0073 2E       		.uleb128 0x2e
 4573 0074 01       		.byte	0x1
 4574 0075 3F       		.uleb128 0x3f
 4575 0076 0C       		.uleb128 0xc
 4576 0077 03       		.uleb128 0x3
 4577 0078 0E       		.uleb128 0xe
 4578 0079 3A       		.uleb128 0x3a
 4579 007a 0B       		.uleb128 0xb
 4580 007b 3B       		.uleb128 0x3b
 4581 007c 05       		.uleb128 0x5
 4582 007d 27       		.uleb128 0x27
 4583 007e 0C       		.uleb128 0xc
 4584 007f 11       		.uleb128 0x11
 4585 0080 01       		.uleb128 0x1
 4586 0081 12       		.uleb128 0x12
 4587 0082 01       		.uleb128 0x1
 4588 0083 40       		.uleb128 0x40
 4589 0084 06       		.uleb128 0x6
 4590 0085 01       		.uleb128 0x1
 4591 0086 13       		.uleb128 0x13
 4592 0087 00       		.byte	0x0
 4593 0088 00       		.byte	0x0
 4594 0089 0A       		.uleb128 0xa
 4595 008a 05       		.uleb128 0x5
 4596 008b 00       		.byte	0x0
 4597 008c 03       		.uleb128 0x3
 4598 008d 0E       		.uleb128 0xe
 4599 008e 3A       		.uleb128 0x3a
 4600 008f 0B       		.uleb128 0xb
 4601 0090 3B       		.uleb128 0x3b
 4602 0091 05       		.uleb128 0x5
 4603 0092 49       		.uleb128 0x49
 4604 0093 13       		.uleb128 0x13
 4605 0094 02       		.uleb128 0x2
 4606 0095 0A       		.uleb128 0xa
 4607 0096 00       		.byte	0x0
 4608 0097 00       		.byte	0x0
 4609 0098 0B       		.uleb128 0xb
 4610 0099 34       		.uleb128 0x34
 4611 009a 00       		.byte	0x0
 4612 009b 03       		.uleb128 0x3
 4613 009c 0E       		.uleb128 0xe
 4614 009d 3A       		.uleb128 0x3a
 4615 009e 0B       		.uleb128 0xb
 4616 009f 3B       		.uleb128 0x3b
 4617 00a0 05       		.uleb128 0x5
 4618 00a1 49       		.uleb128 0x49
 4619 00a2 13       		.uleb128 0x13
 4620 00a3 02       		.uleb128 0x2
 4621 00a4 0A       		.uleb128 0xa
ARM GAS  C:\Users\karunmj\AppData\Local\Temp\ccZ3DH5A.s 			page 114


 4622 00a5 00       		.byte	0x0
 4623 00a6 00       		.byte	0x0
 4624 00a7 0C       		.uleb128 0xc
 4625 00a8 2E       		.uleb128 0x2e
 4626 00a9 01       		.byte	0x1
 4627 00aa 3F       		.uleb128 0x3f
 4628 00ab 0C       		.uleb128 0xc
 4629 00ac 03       		.uleb128 0x3
 4630 00ad 0E       		.uleb128 0xe
 4631 00ae 3A       		.uleb128 0x3a
 4632 00af 0B       		.uleb128 0xb
 4633 00b0 3B       		.uleb128 0x3b
 4634 00b1 05       		.uleb128 0x5
 4635 00b2 27       		.uleb128 0x27
 4636 00b3 0C       		.uleb128 0xc
 4637 00b4 49       		.uleb128 0x49
 4638 00b5 13       		.uleb128 0x13
 4639 00b6 11       		.uleb128 0x11
 4640 00b7 01       		.uleb128 0x1
 4641 00b8 12       		.uleb128 0x12
 4642 00b9 01       		.uleb128 0x1
 4643 00ba 40       		.uleb128 0x40
 4644 00bb 06       		.uleb128 0x6
 4645 00bc 01       		.uleb128 0x1
 4646 00bd 13       		.uleb128 0x13
 4647 00be 00       		.byte	0x0
 4648 00bf 00       		.byte	0x0
 4649 00c0 0D       		.uleb128 0xd
 4650 00c1 2E       		.uleb128 0x2e
 4651 00c2 00       		.byte	0x0
 4652 00c3 3F       		.uleb128 0x3f
 4653 00c4 0C       		.uleb128 0xc
 4654 00c5 03       		.uleb128 0x3
 4655 00c6 0E       		.uleb128 0xe
 4656 00c7 3A       		.uleb128 0x3a
 4657 00c8 0B       		.uleb128 0xb
 4658 00c9 3B       		.uleb128 0x3b
 4659 00ca 05       		.uleb128 0x5
 4660 00cb 27       		.uleb128 0x27
 4661 00cc 0C       		.uleb128 0xc
 4662 00cd 49       		.uleb128 0x49
 4663 00ce 13       		.uleb128 0x13
 4664 00cf 11       		.uleb128 0x11
 4665 00d0 01       		.uleb128 0x1
 4666 00d1 12       		.uleb128 0x12
 4667 00d2 01       		.uleb128 0x1
 4668 00d3 40       		.uleb128 0x40
 4669 00d4 06       		.uleb128 0x6
 4670 00d5 00       		.byte	0x0
 4671 00d6 00       		.byte	0x0
 4672 00d7 0E       		.uleb128 0xe
 4673 00d8 34       		.uleb128 0x34
 4674 00d9 00       		.byte	0x0
 4675 00da 03       		.uleb128 0x3
 4676 00db 08       		.uleb128 0x8
 4677 00dc 3A       		.uleb128 0x3a
 4678 00dd 0B       		.uleb128 0xb
ARM GAS  C:\Users\karunmj\AppData\Local\Temp\ccZ3DH5A.s 			page 115


 4679 00de 3B       		.uleb128 0x3b
 4680 00df 05       		.uleb128 0x5
 4681 00e0 49       		.uleb128 0x49
 4682 00e1 13       		.uleb128 0x13
 4683 00e2 02       		.uleb128 0x2
 4684 00e3 0A       		.uleb128 0xa
 4685 00e4 00       		.byte	0x0
 4686 00e5 00       		.byte	0x0
 4687 00e6 0F       		.uleb128 0xf
 4688 00e7 34       		.uleb128 0x34
 4689 00e8 00       		.byte	0x0
 4690 00e9 03       		.uleb128 0x3
 4691 00ea 0E       		.uleb128 0xe
 4692 00eb 3A       		.uleb128 0x3a
 4693 00ec 0B       		.uleb128 0xb
 4694 00ed 3B       		.uleb128 0x3b
 4695 00ee 0B       		.uleb128 0xb
 4696 00ef 49       		.uleb128 0x49
 4697 00f0 13       		.uleb128 0x13
 4698 00f1 3F       		.uleb128 0x3f
 4699 00f2 0C       		.uleb128 0xc
 4700 00f3 02       		.uleb128 0x2
 4701 00f4 0A       		.uleb128 0xa
 4702 00f5 00       		.byte	0x0
 4703 00f6 00       		.byte	0x0
 4704 00f7 00       		.byte	0x0
 4705              		.section	.debug_pubnames,"",%progbits
 4706 0000 B4030000 		.4byte	0x3b4
 4707 0004 0200     		.2byte	0x2
 4708 0006 00000000 		.4byte	.Ldebug_info0
 4709 000a 21070000 		.4byte	0x721
 4710 000e CE000000 		.4byte	0xce
 4711 0012 4144435F 		.ascii	"ADC_DelSig_1_Init\000"
 4711      44656C53 
 4711      69675F31 
 4711      5F496E69 
 4711      7400
 4712 0024 E3000000 		.4byte	0xe3
 4713 0028 4144435F 		.ascii	"ADC_DelSig_1_Enable\000"
 4713      44656C53 
 4713      69675F31 
 4713      5F456E61 
 4713      626C6500 
 4714 003c F8000000 		.4byte	0xf8
 4715 0040 4144435F 		.ascii	"ADC_DelSig_1_Start\000"
 4715      44656C53 
 4715      69675F31 
 4715      5F537461 
 4715      727400
 4716 0053 0E010000 		.4byte	0x10e
 4717 0057 4144435F 		.ascii	"ADC_DelSig_1_Stop\000"
 4717      44656C53 
 4717      69675F31 
 4717      5F53746F 
 4717      7000
 4718 0069 24010000 		.4byte	0x124
 4719 006d 4144435F 		.ascii	"ADC_DelSig_1_SetBufferGain\000"
ARM GAS  C:\Users\karunmj\AppData\Local\Temp\ccZ3DH5A.s 			page 116


 4719      44656C53 
 4719      69675F31 
 4719      5F536574 
 4719      42756666 
 4720 0088 5D010000 		.4byte	0x15d
 4721 008c 4144435F 		.ascii	"ADC_DelSig_1_SetCoherency\000"
 4721      44656C53 
 4721      69675F31 
 4721      5F536574 
 4721      436F6865 
 4722 00a6 96010000 		.4byte	0x196
 4723 00aa 4144435F 		.ascii	"ADC_DelSig_1_SetGCOR\000"
 4723      44656C53 
 4723      69675F31 
 4723      5F536574 
 4723      47434F52 
 4724 00bf F1010000 		.4byte	0x1f1
 4725 00c3 4144435F 		.ascii	"ADC_DelSig_1_ReadGCOR\000"
 4725      44656C53 
 4725      69675F31 
 4725      5F526561 
 4725      6447434F 
 4726 00d9 3D020000 		.4byte	0x23d
 4727 00dd 4144435F 		.ascii	"ADC_DelSig_1_SetBufferChop\000"
 4727      44656C53 
 4727      69675F31 
 4727      5F536574 
 4727      42756666 
 4728 00f8 76020000 		.4byte	0x276
 4729 00fc 4144435F 		.ascii	"ADC_DelSig_1_StartConvert\000"
 4729      44656C53 
 4729      69675F31 
 4729      5F537461 
 4729      7274436F 
 4730 0116 8C020000 		.4byte	0x28c
 4731 011a 4144435F 		.ascii	"ADC_DelSig_1_StopConvert\000"
 4731      44656C53 
 4731      69675F31 
 4731      5F53746F 
 4731      70436F6E 
 4732 0133 A2020000 		.4byte	0x2a2
 4733 0137 4144435F 		.ascii	"ADC_DelSig_1_IsEndConversion\000"
 4733      44656C53 
 4733      69675F31 
 4733      5F497345 
 4733      6E64436F 
 4734 0154 DF020000 		.4byte	0x2df
 4735 0158 4144435F 		.ascii	"ADC_DelSig_1_GetResult8\000"
 4735      44656C53 
 4735      69675F31 
 4735      5F476574 
 4735      52657375 
 4736 0170 F9020000 		.4byte	0x2f9
 4737 0174 4144435F 		.ascii	"ADC_DelSig_1_GetResult16\000"
 4737      44656C53 
 4737      69675F31 
 4737      5F476574 
ARM GAS  C:\Users\karunmj\AppData\Local\Temp\ccZ3DH5A.s 			page 117


 4737      52657375 
 4738 018d 27030000 		.4byte	0x327
 4739 0191 4144435F 		.ascii	"ADC_DelSig_1_GetResult32\000"
 4739      44656C53 
 4739      69675F31 
 4739      5F476574 
 4739      52657375 
 4740 01aa 55030000 		.4byte	0x355
 4741 01ae 4144435F 		.ascii	"ADC_DelSig_1_SetOffset\000"
 4741      44656C53 
 4741      69675F31 
 4741      5F536574 
 4741      4F666673 
 4742 01c5 7F030000 		.4byte	0x37f
 4743 01c9 4144435F 		.ascii	"ADC_DelSig_1_SetGain\000"
 4743      44656C53 
 4743      69675F31 
 4743      5F536574 
 4743      4761696E 
 4744 01de A9030000 		.4byte	0x3a9
 4745 01e2 4144435F 		.ascii	"ADC_DelSig_1_CountsTo_mVolts\000"
 4745      44656C53 
 4745      69675F31 
 4745      5F436F75 
 4745      6E747354 
 4746 01ff 0F040000 		.4byte	0x40f
 4747 0203 4144435F 		.ascii	"ADC_DelSig_1_CountsTo_Volts\000"
 4747      44656C53 
 4747      69675F31 
 4747      5F436F75 
 4747      6E747354 
 4748 021f 4C040000 		.4byte	0x44c
 4749 0223 4144435F 		.ascii	"ADC_DelSig_1_CountsTo_uVolts\000"
 4749      44656C53 
 4749      69675F31 
 4749      5F436F75 
 4749      6E747354 
 4750 0240 B2040000 		.4byte	0x4b2
 4751 0244 4144435F 		.ascii	"ADC_DelSig_1_IRQ_Start\000"
 4751      44656C53 
 4751      69675F31 
 4751      5F495251 
 4751      5F537461 
 4752 025b C8040000 		.4byte	0x4c8
 4753 025f 4144435F 		.ascii	"ADC_DelSig_1_InitConfig\000"
 4753      44656C53 
 4753      69675F31 
 4753      5F496E69 
 4753      74436F6E 
 4754 0277 F2040000 		.4byte	0x4f2
 4755 027b 4144435F 		.ascii	"ADC_DelSig_1_RoundValue\000"
 4755      44656C53 
 4755      69675F31 
 4755      5F526F75 
 4755      6E645661 
 4756 0293 4D050000 		.4byte	0x54d
 4757 0297 4144435F 		.ascii	"ADC_DelSig_1_SelectConfiguration\000"
ARM GAS  C:\Users\karunmj\AppData\Local\Temp\ccZ3DH5A.s 			page 118


 4757      44656C53 
 4757      69675F31 
 4757      5F53656C 
 4757      65637443 
 4758 02b8 E0050000 		.4byte	0x5e0
 4759 02bc 4144435F 		.ascii	"ADC_DelSig_1_GainCompensation\000"
 4759      44656C53 
 4759      69675F31 
 4759      5F476169 
 4759      6E436F6D 
 4760 02da 73060000 		.4byte	0x673
 4761 02de 4144435F 		.ascii	"ADC_DelSig_1_SetDSMRef0Reg\000"
 4761      44656C53 
 4761      69675F31 
 4761      5F536574 
 4761      44534D52 
 4762 02f9 9D060000 		.4byte	0x69d
 4763 02fd 4144435F 		.ascii	"ADC_DelSig_1_convDone\000"
 4763      44656C53 
 4763      69675F31 
 4763      5F636F6E 
 4763      76446F6E 
 4764 0313 AF060000 		.4byte	0x6af
 4765 0317 4144435F 		.ascii	"ADC_DelSig_1_stopConversion\000"
 4765      44656C53 
 4765      69675F31 
 4765      5F73746F 
 4765      70436F6E 
 4766 0333 C1060000 		.4byte	0x6c1
 4767 0337 4144435F 		.ascii	"ADC_DelSig_1_initVar\000"
 4767      44656C53 
 4767      69675F31 
 4767      5F696E69 
 4767      74566172 
 4768 034c D3060000 		.4byte	0x6d3
 4769 0350 4144435F 		.ascii	"ADC_DelSig_1_started\000"
 4769      44656C53 
 4769      69675F31 
 4769      5F737461 
 4769      72746564 
 4770 0365 E5060000 		.4byte	0x6e5
 4771 0369 4144435F 		.ascii	"ADC_DelSig_1_Config\000"
 4771      44656C53 
 4771      69675F31 
 4771      5F436F6E 
 4771      66696700 
 4772 037d F7060000 		.4byte	0x6f7
 4773 0381 4144435F 		.ascii	"ADC_DelSig_1_Offset\000"
 4773      44656C53 
 4773      69675F31 
 4773      5F4F6666 
 4773      73657400 
 4774 0395 0E070000 		.4byte	0x70e
 4775 0399 4144435F 		.ascii	"ADC_DelSig_1_CountsPerVolt\000"
 4775      44656C53 
 4775      69675F31 
 4775      5F436F75 
ARM GAS  C:\Users\karunmj\AppData\Local\Temp\ccZ3DH5A.s 			page 119


 4775      6E747350 
 4776 03b4 00000000 		.4byte	0x0
 4777              		.section	.debug_aranges,"",%progbits
 4778 0000 E4000000 		.4byte	0xe4
 4779 0004 0200     		.2byte	0x2
 4780 0006 00000000 		.4byte	.Ldebug_info0
 4781 000a 04       		.byte	0x4
 4782 000b 00       		.byte	0x0
 4783 000c 0000     		.2byte	0x0
 4784 000e 0000     		.2byte	0x0
 4785 0010 00000000 		.4byte	.LFB0
 4786 0014 32000000 		.4byte	.LFE0-.LFB0
 4787 0018 00000000 		.4byte	.LFB1
 4788 001c A2010000 		.4byte	.LFE1-.LFB1
 4789 0020 00000000 		.4byte	.LFB2
 4790 0024 3A000000 		.4byte	.LFE2-.LFB2
 4791 0028 00000000 		.4byte	.LFB3
 4792 002c CE010000 		.4byte	.LFE3-.LFB3
 4793 0030 00000000 		.4byte	.LFB4
 4794 0034 44000000 		.4byte	.LFE4-.LFB4
 4795 0038 00000000 		.4byte	.LFB5
 4796 003c 3C000000 		.4byte	.LFE5-.LFB5
 4797 0040 00000000 		.4byte	.LFB6
 4798 0044 E4000000 		.4byte	.LFE6-.LFB6
 4799 0048 00000000 		.4byte	.LFB7
 4800 004c BA000000 		.4byte	.LFE7-.LFB7
 4801 0050 00000000 		.4byte	.LFB8
 4802 0054 44000000 		.4byte	.LFE8-.LFB8
 4803 0058 00000000 		.4byte	.LFB9
 4804 005c 26000000 		.4byte	.LFE9-.LFB9
 4805 0060 00000000 		.4byte	.LFB10
 4806 0064 32000000 		.4byte	.LFE10-.LFB10
 4807 0068 00000000 		.4byte	.LFB11
 4808 006c 60000000 		.4byte	.LFE11-.LFB11
 4809 0070 00000000 		.4byte	.LFB12
 4810 0074 1A000000 		.4byte	.LFE12-.LFB12
 4811 0078 00000000 		.4byte	.LFB13
 4812 007c 22000000 		.4byte	.LFE13-.LFB13
 4813 0080 00000000 		.4byte	.LFB14
 4814 0084 3A000000 		.4byte	.LFE14-.LFB14
 4815 0088 00000000 		.4byte	.LFB15
 4816 008c 1E000000 		.4byte	.LFE15-.LFB15
 4817 0090 00000000 		.4byte	.LFB16
 4818 0094 1E000000 		.4byte	.LFE16-.LFB16
 4819 0098 00000000 		.4byte	.LFB17
 4820 009c C4000000 		.4byte	.LFE17-.LFB17
 4821 00a0 00000000 		.4byte	.LFB18
 4822 00a4 54000000 		.4byte	.LFE18-.LFB18
 4823 00a8 00000000 		.4byte	.LFB19
 4824 00ac F0000000 		.4byte	.LFE19-.LFB19
 4825 00b0 00000000 		.4byte	.LFB20
 4826 00b4 3E000000 		.4byte	.LFE20-.LFB20
 4827 00b8 00000000 		.4byte	.LFB21
 4828 00bc 40080000 		.4byte	.LFE21-.LFB21
 4829 00c0 00000000 		.4byte	.LFB22
 4830 00c4 54000000 		.4byte	.LFE22-.LFB22
 4831 00c8 00000000 		.4byte	.LFB23
ARM GAS  C:\Users\karunmj\AppData\Local\Temp\ccZ3DH5A.s 			page 120


 4832 00cc F0010000 		.4byte	.LFE23-.LFB23
 4833 00d0 00000000 		.4byte	.LFB24
 4834 00d4 9A010000 		.4byte	.LFE24-.LFB24
 4835 00d8 00000000 		.4byte	.LFB25
 4836 00dc 92000000 		.4byte	.LFE25-.LFB25
 4837 00e0 00000000 		.4byte	0x0
 4838 00e4 00000000 		.4byte	0x0
 4839              		.section	.debug_ranges,"",%progbits
 4840              	.Ldebug_ranges0:
 4841 0000 00000000 		.4byte	.Ltext0
 4842 0004 00000000 		.4byte	.Letext0
 4843 0008 00000000 		.4byte	.LFB0
 4844 000c 32000000 		.4byte	.LFE0
 4845 0010 00000000 		.4byte	.LFB1
 4846 0014 A2010000 		.4byte	.LFE1
 4847 0018 00000000 		.4byte	.LFB2
 4848 001c 3A000000 		.4byte	.LFE2
 4849 0020 00000000 		.4byte	.LFB3
 4850 0024 CE010000 		.4byte	.LFE3
 4851 0028 00000000 		.4byte	.LFB4
 4852 002c 44000000 		.4byte	.LFE4
 4853 0030 00000000 		.4byte	.LFB5
 4854 0034 3C000000 		.4byte	.LFE5
 4855 0038 00000000 		.4byte	.LFB6
 4856 003c E4000000 		.4byte	.LFE6
 4857 0040 00000000 		.4byte	.LFB7
 4858 0044 BA000000 		.4byte	.LFE7
 4859 0048 00000000 		.4byte	.LFB8
 4860 004c 44000000 		.4byte	.LFE8
 4861 0050 00000000 		.4byte	.LFB9
 4862 0054 26000000 		.4byte	.LFE9
 4863 0058 00000000 		.4byte	.LFB10
 4864 005c 32000000 		.4byte	.LFE10
 4865 0060 00000000 		.4byte	.LFB11
 4866 0064 60000000 		.4byte	.LFE11
 4867 0068 00000000 		.4byte	.LFB12
 4868 006c 1A000000 		.4byte	.LFE12
 4869 0070 00000000 		.4byte	.LFB13
 4870 0074 22000000 		.4byte	.LFE13
 4871 0078 00000000 		.4byte	.LFB14
 4872 007c 3A000000 		.4byte	.LFE14
 4873 0080 00000000 		.4byte	.LFB15
 4874 0084 1E000000 		.4byte	.LFE15
 4875 0088 00000000 		.4byte	.LFB16
 4876 008c 1E000000 		.4byte	.LFE16
 4877 0090 00000000 		.4byte	.LFB17
 4878 0094 C4000000 		.4byte	.LFE17
 4879 0098 00000000 		.4byte	.LFB18
 4880 009c 54000000 		.4byte	.LFE18
 4881 00a0 00000000 		.4byte	.LFB19
 4882 00a4 F0000000 		.4byte	.LFE19
 4883 00a8 00000000 		.4byte	.LFB20
 4884 00ac 3E000000 		.4byte	.LFE20
 4885 00b0 00000000 		.4byte	.LFB21
 4886 00b4 40080000 		.4byte	.LFE21
 4887 00b8 00000000 		.4byte	.LFB22
 4888 00bc 54000000 		.4byte	.LFE22
ARM GAS  C:\Users\karunmj\AppData\Local\Temp\ccZ3DH5A.s 			page 121


 4889 00c0 00000000 		.4byte	.LFB23
 4890 00c4 F0010000 		.4byte	.LFE23
 4891 00c8 00000000 		.4byte	.LFB24
 4892 00cc 9A010000 		.4byte	.LFE24
 4893 00d0 00000000 		.4byte	.LFB25
 4894 00d4 92000000 		.4byte	.LFE25
 4895 00d8 00000000 		.4byte	0x0
 4896 00dc 00000000 		.4byte	0x0
 4897              		.section	.debug_str,"MS",%progbits,1
 4898              	.LASF10:
 4899 0000 75696E74 		.ascii	"uint16\000"
 4899      313600
 4900              	.LASF48:
 4901 0007 61646347 		.ascii	"adcGain\000"
 4901      61696E00 
 4902              	.LASF19:
 4903 000f 4144435F 		.ascii	"ADC_DelSig_1_Enable\000"
 4903      44656C53 
 4903      69675F31 
 4903      5F456E61 
 4903      626C6500 
 4904              	.LASF67:
 4905 0023 696E7075 		.ascii	"inputRange\000"
 4905      7452616E 
 4905      676500
 4906              	.LASF65:
 4907 002e 4144435F 		.ascii	"ADC_DelSig_1_SelectConfiguration\000"
 4907      44656C53 
 4907      69675F31 
 4907      5F53656C 
 4907      65637443 
 4908              	.LASF62:
 4909 004f 636C6F63 		.ascii	"clockFreq\000"
 4909      6B467265 
 4909      7100
 4910              	.LASF7:
 4911 0059 6C6F6E67 		.ascii	"long long unsigned int\000"
 4911      206C6F6E 
 4911      6720756E 
 4911      7369676E 
 4911      65642069 
 4912              	.LASF88:
 4913 0070 474E5520 		.ascii	"GNU C 4.4.1\000"
 4913      4320342E 
 4913      342E3100 
 4914              	.LASF76:
 4915 007c 4E6F726D 		.ascii	"Normalised\000"
 4915      616C6973 
 4915      656400
 4916              	.LASF21:
 4917 0087 4144435F 		.ascii	"ADC_DelSig_1_Stop\000"
 4917      44656C53 
 4917      69675F31 
 4917      5F53746F 
 4917      7000
 4918              	.LASF61:
 4919 0099 62757343 		.ascii	"busClockFreq\000"
ARM GAS  C:\Users\karunmj\AppData\Local\Temp\ccZ3DH5A.s 			page 122


 4919      6C6F636B 
 4919      46726571 
 4919      00
 4920              	.LASF58:
 4921 00a6 4144435F 		.ascii	"ADC_DelSig_1_InitConfig\000"
 4921      44656C53 
 4921      69675F31 
 4921      5F496E69 
 4921      74436F6E 
 4922              	.LASF91:
 4923 00be 4144435F 		.ascii	"ADC_DelSig_1_GetResult8\000"
 4923      44656C53 
 4923      69675F31 
 4923      5F476574 
 4923      52657375 
 4924              	.LASF6:
 4925 00d6 6C6F6E67 		.ascii	"long long int\000"
 4925      206C6F6E 
 4925      6720696E 
 4925      7400
 4926              	.LASF0:
 4927 00e4 7369676E 		.ascii	"signed char\000"
 4927      65642063 
 4927      68617200 
 4928              	.LASF60:
 4929 00f0 4144435F 		.ascii	"ADC_DelSig_1_RoundValue\000"
 4929      44656C53 
 4929      69675F31 
 4929      5F526F75 
 4929      6E645661 
 4930              	.LASF14:
 4931 0108 696E7433 		.ascii	"int32\000"
 4931      3200
 4932              	.LASF4:
 4933 010e 6C6F6E67 		.ascii	"long int\000"
 4933      20696E74 
 4933      00
 4934              	.LASF9:
 4935 0117 75696E74 		.ascii	"uint8\000"
 4935      3800
 4936              	.LASF16:
 4937 011d 646F7562 		.ascii	"double\000"
 4937      6C6500
 4938              	.LASF54:
 4939 0124 566F6C74 		.ascii	"Volts\000"
 4939      7300
 4940              	.LASF11:
 4941 012a 75696E74 		.ascii	"uint32\000"
 4941      333200
 4942              	.LASF74:
 4943 0131 49646561 		.ascii	"IdealOddDecGain\000"
 4943      6C4F6464 
 4943      44656347 
 4943      61696E00 
 4944              	.LASF80:
 4945 0141 76616C75 		.ascii	"value\000"
 4945      6500
ARM GAS  C:\Users\karunmj\AppData\Local\Temp\ccZ3DH5A.s 			page 123


 4946              	.LASF89:
 4947 0147 2E5C4765 		.ascii	".\\Generated_Source\\PSoC5\\ADC_DelSig_1.c\000"
 4947      6E657261 
 4947      7465645F 
 4947      536F7572 
 4947      63655C50 
 4948              	.LASF8:
 4949 016f 756E7369 		.ascii	"unsigned int\000"
 4949      676E6564 
 4949      20696E74 
 4949      00
 4950              	.LASF56:
 4951 017c 75566F6C 		.ascii	"uVolts\000"
 4951      747300
 4952              	.LASF5:
 4953 0183 6C6F6E67 		.ascii	"long unsigned int\000"
 4953      20756E73 
 4953      69676E65 
 4953      6420696E 
 4953      7400
 4954              	.LASF41:
 4955 0195 774D6F64 		.ascii	"wMode\000"
 4955      6500
 4956              	.LASF34:
 4957 019b 67636F72 		.ascii	"gcorRegValue\000"
 4957      52656756 
 4957      616C7565 
 4957      00
 4958              	.LASF84:
 4959 01a8 4144435F 		.ascii	"ADC_DelSig_1_started\000"
 4959      44656C53 
 4959      69675F31 
 4959      5F737461 
 4959      72746564 
 4960              	.LASF3:
 4961 01bd 73686F72 		.ascii	"short unsigned int\000"
 4961      7420756E 
 4961      7369676E 
 4961      65642069 
 4961      6E7400
 4962              	.LASF12:
 4963 01d0 696E7438 		.ascii	"int8\000"
 4963      00
 4964              	.LASF33:
 4965 01d5 67636F72 		.ascii	"gcorValue\000"
 4965      56616C75 
 4965      6500
 4966              	.LASF70:
 4967 01df 6370436C 		.ascii	"cpClockDivider\000"
 4967      6F636B44 
 4967      69766964 
 4967      657200
 4968              	.LASF51:
 4969 01ee 6D566F6C 		.ascii	"mVolts\000"
 4969      747300
 4970              	.LASF75:
 4971 01f5 666C6173 		.ascii	"flash\000"
ARM GAS  C:\Users\karunmj\AppData\Local\Temp\ccZ3DH5A.s 			page 124


 4971      6800
 4972              	.LASF53:
 4973 01fb 4144435F 		.ascii	"ADC_DelSig_1_CountsTo_Volts\000"
 4973      44656C53 
 4973      69675F31 
 4973      5F436F75 
 4973      6E747354 
 4974              	.LASF42:
 4975 0217 4144435F 		.ascii	"ADC_DelSig_1_GetResult16\000"
 4975      44656C53 
 4975      69675F31 
 4975      5F476574 
 4975      52657375 
 4976              	.LASF68:
 4977 0230 69646561 		.ascii	"idealGain\000"
 4977      6C476169 
 4977      6E00
 4978              	.LASF81:
 4979 023a 4144435F 		.ascii	"ADC_DelSig_1_convDone\000"
 4979      44656C53 
 4979      69675F31 
 4979      5F636F6E 
 4979      76446F6E 
 4980              	.LASF18:
 4981 0250 4144435F 		.ascii	"ADC_DelSig_1_Init\000"
 4981      44656C53 
 4981      69675F31 
 4981      5F496E69 
 4981      7400
 4982              	.LASF55:
 4983 0262 4144435F 		.ascii	"ADC_DelSig_1_CountsTo_uVolts\000"
 4983      44656C53 
 4983      69675F31 
 4983      5F436F75 
 4983      6E747354 
 4984              	.LASF85:
 4985 027f 4144435F 		.ascii	"ADC_DelSig_1_Config\000"
 4985      44656C53 
 4985      69675F31 
 4985      5F436F6E 
 4985      66696700 
 4986              	.LASF25:
 4987 0293 636F6865 		.ascii	"coherency\000"
 4987      72656E63 
 4987      7900
 4988              	.LASF15:
 4989 029d 666C6F61 		.ascii	"float\000"
 4989      7400
 4990              	.LASF86:
 4991 02a3 4144435F 		.ascii	"ADC_DelSig_1_Offset\000"
 4991      44656C53 
 4991      69675F31 
 4991      5F4F6666 
 4991      73657400 
 4992              	.LASF57:
 4993 02b7 4144435F 		.ascii	"ADC_DelSig_1_IRQ_Start\000"
 4993      44656C53 
ARM GAS  C:\Users\karunmj\AppData\Local\Temp\ccZ3DH5A.s 			page 125


 4993      69675F31 
 4993      5F495251 
 4993      5F537461 
 4994              	.LASF24:
 4995 02ce 6761696E 		.ascii	"gain\000"
 4995      00
 4996              	.LASF83:
 4997 02d3 4144435F 		.ascii	"ADC_DelSig_1_initVar\000"
 4997      44656C53 
 4997      69675F31 
 4997      5F696E69 
 4997      74566172 
 4998              	.LASF1:
 4999 02e8 756E7369 		.ascii	"unsigned char\000"
 4999      676E6564 
 4999      20636861 
 4999      7200
 5000              	.LASF45:
 5001 02f6 4144435F 		.ascii	"ADC_DelSig_1_SetOffset\000"
 5001      44656C53 
 5001      69675F31 
 5001      5F536574 
 5001      4F666673 
 5002              	.LASF77:
 5003 030d 47636F72 		.ascii	"GcorValue\000"
 5003      56616C75 
 5003      6500
 5004              	.LASF2:
 5005 0317 73686F72 		.ascii	"short int\000"
 5005      7420696E 
 5005      7400
 5006              	.LASF63:
 5007 0321 64697669 		.ascii	"divider1\000"
 5007      64657231 
 5007      00
 5008              	.LASF64:
 5009 032a 64697669 		.ascii	"divider2\000"
 5009      64657232 
 5009      00
 5010              	.LASF38:
 5011 0333 4144435F 		.ascii	"ADC_DelSig_1_StartConvert\000"
 5011      44656C53 
 5011      69675F31 
 5011      5F537461 
 5011      7274436F 
 5012              	.LASF90:
 5013 034d 433A5C55 		.ascii	"C:\\Users\\karunmj\\Documents\\GitHub\\m2m\\hardwar"
 5013      73657273 
 5013      5C6B6172 
 5013      756E6D6A 
 5013      5C446F63 
 5014 037a 655C7073 		.ascii	"e\\psoc5\\Campbell_Conductivity.cydsn\000"
 5014      6F63355C 
 5014      43616D70 
 5014      62656C6C 
 5014      5F436F6E 
 5015              	.LASF52:
ARM GAS  C:\Users\karunmj\AppData\Local\Temp\ccZ3DH5A.s 			page 126


 5016 039e 7265736F 		.ascii	"resolution\000"
 5016      6C757469 
 5016      6F6E00
 5017              	.LASF78:
 5018 03a9 47636F72 		.ascii	"GcorTmp\000"
 5018      546D7000 
 5019              	.LASF44:
 5020 03b1 4144435F 		.ascii	"ADC_DelSig_1_GetResult32\000"
 5020      44656C53 
 5020      69675F31 
 5020      5F476574 
 5020      52657375 
 5021              	.LASF17:
 5022 03ca 63686172 		.ascii	"char\000"
 5022      00
 5023              	.LASF23:
 5024 03cf 4144435F 		.ascii	"ADC_DelSig_1_SetCoherency\000"
 5024      44656C53 
 5024      69675F31 
 5024      5F536574 
 5024      436F6865 
 5025              	.LASF87:
 5026 03e9 4144435F 		.ascii	"ADC_DelSig_1_CountsPerVolt\000"
 5026      44656C53 
 5026      69675F31 
 5026      5F436F75 
 5026      6E747350 
 5027              	.LASF59:
 5028 0404 636F6E66 		.ascii	"config\000"
 5028      696700
 5029              	.LASF69:
 5030 040b 61646343 		.ascii	"adcClockDivider\000"
 5030      6C6F636B 
 5030      44697669 
 5030      64657200 
 5031              	.LASF37:
 5032 041b 63686F70 		.ascii	"chopFreq\000"
 5032      46726571 
 5032      00
 5033              	.LASF66:
 5034 0424 72657374 		.ascii	"restart\000"
 5034      61727400 
 5035              	.LASF29:
 5036 042c 746D7056 		.ascii	"tmpValue\000"
 5036      616C7565 
 5036      00
 5037              	.LASF71:
 5038 0435 69646561 		.ascii	"idealOddGain\000"
 5038      6C4F6464 
 5038      4761696E 
 5038      00
 5039              	.LASF79:
 5040 0442 4144435F 		.ascii	"ADC_DelSig_1_SetDSMRef0Reg\000"
 5040      44656C53 
 5040      69675F31 
 5040      5F536574 
 5040      44534D52 
ARM GAS  C:\Users\karunmj\AppData\Local\Temp\ccZ3DH5A.s 			page 127


 5041              	.LASF46:
 5042 045d 6F666673 		.ascii	"offset\000"
 5042      657400
 5043              	.LASF50:
 5044 0464 61646343 		.ascii	"adcCounts\000"
 5044      6F756E74 
 5044      7300
 5045              	.LASF72:
 5046 046e 4144435F 		.ascii	"ADC_DelSig_1_GainCompensation\000"
 5046      44656C53 
 5046      69675F31 
 5046      5F476169 
 5046      6E436F6D 
 5047              	.LASF40:
 5048 048c 4144435F 		.ascii	"ADC_DelSig_1_IsEndConversion\000"
 5048      44656C53 
 5048      69675F31 
 5048      5F497345 
 5048      6E64436F 
 5049              	.LASF30:
 5050 04a9 4144435F 		.ascii	"ADC_DelSig_1_SetGCOR\000"
 5050      44656C53 
 5050      69675F31 
 5050      5F536574 
 5050      47434F52 
 5051              	.LASF32:
 5052 04be 6756616C 		.ascii	"gValue\000"
 5052      756500
 5053              	.LASF28:
 5054 04c5 73746174 		.ascii	"status\000"
 5054      757300
 5055              	.LASF27:
 5056 04cc 6761696E 		.ascii	"gainAdjust\000"
 5056      41646A75 
 5056      737400
 5057              	.LASF20:
 5058 04d7 4144435F 		.ascii	"ADC_DelSig_1_Start\000"
 5058      44656C53 
 5058      69675F31 
 5058      5F537461 
 5058      727400
 5059              	.LASF13:
 5060 04ea 696E7431 		.ascii	"int16\000"
 5060      3600
 5061              	.LASF39:
 5062 04f0 4144435F 		.ascii	"ADC_DelSig_1_StopConvert\000"
 5062      44656C53 
 5062      69675F31 
 5062      5F53746F 
 5062      70436F6E 
 5063              	.LASF47:
 5064 0509 4144435F 		.ascii	"ADC_DelSig_1_SetGain\000"
 5064      44656C53 
 5064      69675F31 
 5064      5F536574 
 5064      4761696E 
 5065              	.LASF35:
ARM GAS  C:\Users\karunmj\AppData\Local\Temp\ccZ3DH5A.s 			page 128


 5066 051e 4144435F 		.ascii	"ADC_DelSig_1_SetBufferChop\000"
 5066      44656C53 
 5066      69675F31 
 5066      5F536574 
 5066      42756666 
 5067              	.LASF36:
 5068 0539 63686F70 		.ascii	"chopen\000"
 5068      656E00
 5069              	.LASF49:
 5070 0540 4144435F 		.ascii	"ADC_DelSig_1_CountsTo_mVolts\000"
 5070      44656C53 
 5070      69675F31 
 5070      5F436F75 
 5070      6E747354 
 5071              	.LASF22:
 5072 055d 4144435F 		.ascii	"ADC_DelSig_1_SetBufferGain\000"
 5072      44656C53 
 5072      69675F31 
 5072      5F536574 
 5072      42756666 
 5073              	.LASF26:
 5074 0578 746D7052 		.ascii	"tmpReg\000"
 5074      656700
 5075              	.LASF43:
 5076 057f 72657375 		.ascii	"result\000"
 5076      6C7400
 5077              	.LASF73:
 5078 0586 49646561 		.ascii	"IdealDecGain\000"
 5078      6C446563 
 5078      4761696E 
 5078      00
 5079              	.LASF82:
 5080 0593 4144435F 		.ascii	"ADC_DelSig_1_stopConversion\000"
 5080      44656C53 
 5080      69675F31 
 5080      5F73746F 
 5080      70436F6E 
 5081              	.LASF31:
 5082 05af 4144435F 		.ascii	"ADC_DelSig_1_ReadGCOR\000"
 5082      44656C53 
 5082      69675F31 
 5082      5F526561 
 5082      6447434F 
 5083              		.ident	"GCC: (Sourcery G++ Lite 2010q1-188) 4.4.1"
