ARM GAS  C:\Users\karunmj\AppData\Local\Temp\ccPyO0UW.s 			page 1


   1              		.syntax unified
   2              		.cpu cortex-m3
   3              		.fpu softvfp
   4              		.eabi_attribute 20, 1
   5              		.eabi_attribute 21, 1
   6              		.eabi_attribute 23, 3
   7              		.eabi_attribute 24, 1
   8              		.eabi_attribute 25, 1
   9              		.eabi_attribute 26, 1
  10              		.eabi_attribute 30, 6
  11              		.eabi_attribute 18, 4
  12              		.thumb
  13              		.file	"AMuxSeq_1.c"
  20 0000 AF000000 		.text
  20      02006200 
  20      00000201 
  20      FB0E0D00 
  20      01010101 
  21              	.Ltext0:
  22              		.cfi_sections	.debug_frame
  23              		.global	AMuxSeq_1_initVar
  24              		.bss
  25              		.type	AMuxSeq_1_initVar, %object
  26              		.size	AMuxSeq_1_initVar, 1
  27              	AMuxSeq_1_initVar:
  28 0000 00       		.space	1
  29              		.section	.text.AMuxSeq_1_Start,"ax",%progbits
  30              		.align	2
  31              		.global	AMuxSeq_1_Start
  32              		.thumb
  33              		.thumb_func
  34              		.type	AMuxSeq_1_Start, %function
  35              	AMuxSeq_1_Start:
  36              	.LFB0:
  37              		.file 1 ".\\Generated_Source\\PSoC5\\AMuxSeq_1.c"
   1:.\Generated_Source\PSoC5/AMuxSeq_1.c **** /*******************************************************************************
   2:.\Generated_Source\PSoC5/AMuxSeq_1.c **** * File Name: AMuxSeq_1.c
   3:.\Generated_Source\PSoC5/AMuxSeq_1.c **** * Version 1.70
   4:.\Generated_Source\PSoC5/AMuxSeq_1.c **** *
   5:.\Generated_Source\PSoC5/AMuxSeq_1.c **** *  Description:
   6:.\Generated_Source\PSoC5/AMuxSeq_1.c **** *    This file contains functions for the AMuxSeq.
   7:.\Generated_Source\PSoC5/AMuxSeq_1.c **** *
   8:.\Generated_Source\PSoC5/AMuxSeq_1.c **** *   Note:
   9:.\Generated_Source\PSoC5/AMuxSeq_1.c **** *
  10:.\Generated_Source\PSoC5/AMuxSeq_1.c **** *******************************************************************************
  11:.\Generated_Source\PSoC5/AMuxSeq_1.c **** * Copyright 2008-2010, Cypress Semiconductor Corporation.  All rights reserved.
  12:.\Generated_Source\PSoC5/AMuxSeq_1.c **** * You may use this file only in accordance with the license, terms, conditions, 
  13:.\Generated_Source\PSoC5/AMuxSeq_1.c **** * disclaimers, and limitations in the end user license agreement accompanying 
  14:.\Generated_Source\PSoC5/AMuxSeq_1.c **** * the software package with which this file was provided.
  15:.\Generated_Source\PSoC5/AMuxSeq_1.c **** ********************************************************************************/
  16:.\Generated_Source\PSoC5/AMuxSeq_1.c **** 
ARM GAS  C:\Users\karunmj\AppData\Local\Temp\ccPyO0UW.s 			page 2


  17:.\Generated_Source\PSoC5/AMuxSeq_1.c **** #include "AMuxSeq_1.h"
  18:.\Generated_Source\PSoC5/AMuxSeq_1.c **** 
  19:.\Generated_Source\PSoC5/AMuxSeq_1.c **** uint8 AMuxSeq_1_initVar = 0u;
  20:.\Generated_Source\PSoC5/AMuxSeq_1.c **** 
  21:.\Generated_Source\PSoC5/AMuxSeq_1.c **** 
  22:.\Generated_Source\PSoC5/AMuxSeq_1.c **** /*******************************************************************************
  23:.\Generated_Source\PSoC5/AMuxSeq_1.c **** * Function Name: AMuxSeq_1_Start
  24:.\Generated_Source\PSoC5/AMuxSeq_1.c **** ********************************************************************************
  25:.\Generated_Source\PSoC5/AMuxSeq_1.c **** * Summary:
  26:.\Generated_Source\PSoC5/AMuxSeq_1.c **** *  Disconnect all channels. The next time Next is called, channel 0 will be
  27:.\Generated_Source\PSoC5/AMuxSeq_1.c **** *  connected.
  28:.\Generated_Source\PSoC5/AMuxSeq_1.c **** *
  29:.\Generated_Source\PSoC5/AMuxSeq_1.c **** * Parameters:
  30:.\Generated_Source\PSoC5/AMuxSeq_1.c **** *  void
  31:.\Generated_Source\PSoC5/AMuxSeq_1.c **** *
  32:.\Generated_Source\PSoC5/AMuxSeq_1.c **** * Return:
  33:.\Generated_Source\PSoC5/AMuxSeq_1.c **** *  void
  34:.\Generated_Source\PSoC5/AMuxSeq_1.c **** *
  35:.\Generated_Source\PSoC5/AMuxSeq_1.c **** *******************************************************************************/
  36:.\Generated_Source\PSoC5/AMuxSeq_1.c **** void AMuxSeq_1_Start(void)
  37:.\Generated_Source\PSoC5/AMuxSeq_1.c **** {
  38              		.loc 1 37 0
  39              		.cfi_startproc
  40              		@ args = 0, pretend = 0, frame = 0
  41              		@ frame_needed = 1, uses_anonymous_args = 0
  42 0000 80B5     		push	{r7, lr}
  43              	.LCFI0:
  44              		.cfi_def_cfa_offset 8
  45 0002 00AF     		add	r7, sp, #0
  46              		.cfi_offset 14, -4
  47              		.cfi_offset 7, -8
  48              	.LCFI1:
  49              		.cfi_def_cfa_register 7
  38:.\Generated_Source\PSoC5/AMuxSeq_1.c ****     AMuxSeq_1_DisconnectAll();
  50              		.loc 1 38 0
  51 0004 FFF7FEFF 		bl	AMuxSeq_1_DisconnectAll
  39:.\Generated_Source\PSoC5/AMuxSeq_1.c ****     AMuxSeq_1_initVar = 1u;
  52              		.loc 1 39 0
  53 0008 40F20003 		movw	r3, #:lower16:AMuxSeq_1_initVar
  54 000c C0F20003 		movt	r3, #:upper16:AMuxSeq_1_initVar
  55 0010 4FF00102 		mov	r2, #1
  56 0014 1A70     		strb	r2, [r3, #0]
  40:.\Generated_Source\PSoC5/AMuxSeq_1.c **** }
  57              		.loc 1 40 0
  58 0016 80BD     		pop	{r7, pc}
  59              		.cfi_endproc
  60              	.LFE0:
  61              		.size	AMuxSeq_1_Start, .-AMuxSeq_1_Start
  62              		.section	.text.AMuxSeq_1_Init,"ax",%progbits
  63              		.align	2
  64              		.global	AMuxSeq_1_Init
  65              		.thumb
  66              		.thumb_func
  67              		.type	AMuxSeq_1_Init, %function
  68              	AMuxSeq_1_Init:
  69              	.LFB1:
  41:.\Generated_Source\PSoC5/AMuxSeq_1.c **** 
ARM GAS  C:\Users\karunmj\AppData\Local\Temp\ccPyO0UW.s 			page 3


  42:.\Generated_Source\PSoC5/AMuxSeq_1.c **** 
  43:.\Generated_Source\PSoC5/AMuxSeq_1.c **** /*******************************************************************************
  44:.\Generated_Source\PSoC5/AMuxSeq_1.c **** * Function Name: AMuxSeq_1_Init
  45:.\Generated_Source\PSoC5/AMuxSeq_1.c **** ********************************************************************************
  46:.\Generated_Source\PSoC5/AMuxSeq_1.c **** * Summary:
  47:.\Generated_Source\PSoC5/AMuxSeq_1.c **** *  Disconnect all channels. The next time Next is called, channel 0 will be
  48:.\Generated_Source\PSoC5/AMuxSeq_1.c **** *  connected.
  49:.\Generated_Source\PSoC5/AMuxSeq_1.c **** *
  50:.\Generated_Source\PSoC5/AMuxSeq_1.c **** * Parameters:
  51:.\Generated_Source\PSoC5/AMuxSeq_1.c **** *  void
  52:.\Generated_Source\PSoC5/AMuxSeq_1.c **** *
  53:.\Generated_Source\PSoC5/AMuxSeq_1.c **** * Return:
  54:.\Generated_Source\PSoC5/AMuxSeq_1.c **** *  void
  55:.\Generated_Source\PSoC5/AMuxSeq_1.c **** *
  56:.\Generated_Source\PSoC5/AMuxSeq_1.c **** *******************************************************************************/
  57:.\Generated_Source\PSoC5/AMuxSeq_1.c **** void AMuxSeq_1_Init(void)
  58:.\Generated_Source\PSoC5/AMuxSeq_1.c **** {
  70              		.loc 1 58 0
  71              		.cfi_startproc
  72              		@ args = 0, pretend = 0, frame = 0
  73              		@ frame_needed = 1, uses_anonymous_args = 0
  74 0000 80B5     		push	{r7, lr}
  75              	.LCFI2:
  76              		.cfi_def_cfa_offset 8
  77 0002 00AF     		add	r7, sp, #0
  78              		.cfi_offset 14, -4
  79              		.cfi_offset 7, -8
  80              	.LCFI3:
  81              		.cfi_def_cfa_register 7
  59:.\Generated_Source\PSoC5/AMuxSeq_1.c ****     AMuxSeq_1_DisconnectAll();
  82              		.loc 1 59 0
  83 0004 FFF7FEFF 		bl	AMuxSeq_1_DisconnectAll
  60:.\Generated_Source\PSoC5/AMuxSeq_1.c **** }
  84              		.loc 1 60 0
  85 0008 80BD     		pop	{r7, pc}
  86              		.cfi_endproc
  87              	.LFE1:
  88              		.size	AMuxSeq_1_Init, .-AMuxSeq_1_Init
  89 000a 00BF     		.section	.text.AMuxSeq_1_Stop,"ax",%progbits
  90              		.align	2
  91              		.global	AMuxSeq_1_Stop
  92              		.thumb
  93              		.thumb_func
  94              		.type	AMuxSeq_1_Stop, %function
  95              	AMuxSeq_1_Stop:
  96              	.LFB2:
  61:.\Generated_Source\PSoC5/AMuxSeq_1.c **** 
  62:.\Generated_Source\PSoC5/AMuxSeq_1.c **** 
  63:.\Generated_Source\PSoC5/AMuxSeq_1.c **** /*******************************************************************************
  64:.\Generated_Source\PSoC5/AMuxSeq_1.c **** * Function Name: AMuxSeq_1_Stop
  65:.\Generated_Source\PSoC5/AMuxSeq_1.c **** ********************************************************************************
  66:.\Generated_Source\PSoC5/AMuxSeq_1.c **** * Summary:
  67:.\Generated_Source\PSoC5/AMuxSeq_1.c **** *  Disconnect all channels. The next time Next is called, channel 0 will be
  68:.\Generated_Source\PSoC5/AMuxSeq_1.c **** *  connected.
  69:.\Generated_Source\PSoC5/AMuxSeq_1.c **** *
  70:.\Generated_Source\PSoC5/AMuxSeq_1.c **** * Parameters:
  71:.\Generated_Source\PSoC5/AMuxSeq_1.c **** *  void
ARM GAS  C:\Users\karunmj\AppData\Local\Temp\ccPyO0UW.s 			page 4


  72:.\Generated_Source\PSoC5/AMuxSeq_1.c **** *
  73:.\Generated_Source\PSoC5/AMuxSeq_1.c **** * Return:
  74:.\Generated_Source\PSoC5/AMuxSeq_1.c **** *  void
  75:.\Generated_Source\PSoC5/AMuxSeq_1.c **** *
  76:.\Generated_Source\PSoC5/AMuxSeq_1.c **** *******************************************************************************/
  77:.\Generated_Source\PSoC5/AMuxSeq_1.c **** void AMuxSeq_1_Stop(void)
  78:.\Generated_Source\PSoC5/AMuxSeq_1.c **** {
  97              		.loc 1 78 0
  98              		.cfi_startproc
  99              		@ args = 0, pretend = 0, frame = 0
 100              		@ frame_needed = 1, uses_anonymous_args = 0
 101 0000 80B5     		push	{r7, lr}
 102              	.LCFI4:
 103              		.cfi_def_cfa_offset 8
 104 0002 00AF     		add	r7, sp, #0
 105              		.cfi_offset 14, -4
 106              		.cfi_offset 7, -8
 107              	.LCFI5:
 108              		.cfi_def_cfa_register 7
  79:.\Generated_Source\PSoC5/AMuxSeq_1.c ****     AMuxSeq_1_DisconnectAll();
 109              		.loc 1 79 0
 110 0004 FFF7FEFF 		bl	AMuxSeq_1_DisconnectAll
  80:.\Generated_Source\PSoC5/AMuxSeq_1.c **** }
 111              		.loc 1 80 0
 112 0008 80BD     		pop	{r7, pc}
 113              		.cfi_endproc
 114              	.LFE2:
 115              		.size	AMuxSeq_1_Stop, .-AMuxSeq_1_Stop
 116 000a 00BF     		.section	.text.AMuxSeq_1_GetChannel,"ax",%progbits
 117              		.align	2
 118              		.global	AMuxSeq_1_GetChannel
 119              		.thumb
 120              		.thumb_func
 121              		.type	AMuxSeq_1_GetChannel, %function
 122              	AMuxSeq_1_GetChannel:
 123              	.LFB3:
  81:.\Generated_Source\PSoC5/AMuxSeq_1.c **** 
  82:.\Generated_Source\PSoC5/AMuxSeq_1.c **** #if(AMuxSeq_1_MUXTYPE == AMuxSeq_1_MUX_DIFF)
  83:.\Generated_Source\PSoC5/AMuxSeq_1.c **** 
  84:.\Generated_Source\PSoC5/AMuxSeq_1.c **** extern int8 AMuxSeq_1_CYAMUXSIDE_A_curChannel;
  85:.\Generated_Source\PSoC5/AMuxSeq_1.c **** 
  86:.\Generated_Source\PSoC5/AMuxSeq_1.c **** 
  87:.\Generated_Source\PSoC5/AMuxSeq_1.c **** /*******************************************************************************
  88:.\Generated_Source\PSoC5/AMuxSeq_1.c **** * Function Name: AMuxSeq_1_Next
  89:.\Generated_Source\PSoC5/AMuxSeq_1.c **** ********************************************************************************
  90:.\Generated_Source\PSoC5/AMuxSeq_1.c **** * Summary:
  91:.\Generated_Source\PSoC5/AMuxSeq_1.c **** *  Disconnects the previous channel and connects the next one in the sequence.
  92:.\Generated_Source\PSoC5/AMuxSeq_1.c **** *  When Next is called for the first time after Init, Start, Enable, Stop, or
  93:.\Generated_Source\PSoC5/AMuxSeq_1.c **** *  DisconnectAll, it connects channel 0.
  94:.\Generated_Source\PSoC5/AMuxSeq_1.c **** *
  95:.\Generated_Source\PSoC5/AMuxSeq_1.c **** * Parameters:
  96:.\Generated_Source\PSoC5/AMuxSeq_1.c **** *  void
  97:.\Generated_Source\PSoC5/AMuxSeq_1.c **** *
  98:.\Generated_Source\PSoC5/AMuxSeq_1.c **** * Return:
  99:.\Generated_Source\PSoC5/AMuxSeq_1.c **** *  void
 100:.\Generated_Source\PSoC5/AMuxSeq_1.c **** *
 101:.\Generated_Source\PSoC5/AMuxSeq_1.c **** *******************************************************************************/
ARM GAS  C:\Users\karunmj\AppData\Local\Temp\ccPyO0UW.s 			page 5


 102:.\Generated_Source\PSoC5/AMuxSeq_1.c **** void AMuxSeq_1_Next(void)
 103:.\Generated_Source\PSoC5/AMuxSeq_1.c **** {
 104:.\Generated_Source\PSoC5/AMuxSeq_1.c ****     AMuxSeq_1_CYAMUXSIDE_A_Next();
 105:.\Generated_Source\PSoC5/AMuxSeq_1.c ****     AMuxSeq_1_CYAMUXSIDE_B_Next();
 106:.\Generated_Source\PSoC5/AMuxSeq_1.c **** }
 107:.\Generated_Source\PSoC5/AMuxSeq_1.c **** 
 108:.\Generated_Source\PSoC5/AMuxSeq_1.c **** 
 109:.\Generated_Source\PSoC5/AMuxSeq_1.c **** /*******************************************************************************
 110:.\Generated_Source\PSoC5/AMuxSeq_1.c **** * Function Name: AMuxSeq_1_DisconnectAll
 111:.\Generated_Source\PSoC5/AMuxSeq_1.c **** ********************************************************************************
 112:.\Generated_Source\PSoC5/AMuxSeq_1.c **** * Summary:
 113:.\Generated_Source\PSoC5/AMuxSeq_1.c **** *  This function disconnects all channels. The next time Next is called, channel
 114:.\Generated_Source\PSoC5/AMuxSeq_1.c **** *  0 will be connected.
 115:.\Generated_Source\PSoC5/AMuxSeq_1.c **** *
 116:.\Generated_Source\PSoC5/AMuxSeq_1.c **** * Parameters:
 117:.\Generated_Source\PSoC5/AMuxSeq_1.c **** *  void
 118:.\Generated_Source\PSoC5/AMuxSeq_1.c **** *
 119:.\Generated_Source\PSoC5/AMuxSeq_1.c **** * Return:
 120:.\Generated_Source\PSoC5/AMuxSeq_1.c **** *  void
 121:.\Generated_Source\PSoC5/AMuxSeq_1.c **** *
 122:.\Generated_Source\PSoC5/AMuxSeq_1.c **** *******************************************************************************/
 123:.\Generated_Source\PSoC5/AMuxSeq_1.c **** void AMuxSeq_1_DisconnectAll(void)
 124:.\Generated_Source\PSoC5/AMuxSeq_1.c **** {
 125:.\Generated_Source\PSoC5/AMuxSeq_1.c ****     AMuxSeq_1_CYAMUXSIDE_A_DisconnectAll();
 126:.\Generated_Source\PSoC5/AMuxSeq_1.c ****     AMuxSeq_1_CYAMUXSIDE_B_DisconnectAll();
 127:.\Generated_Source\PSoC5/AMuxSeq_1.c **** }
 128:.\Generated_Source\PSoC5/AMuxSeq_1.c **** 
 129:.\Generated_Source\PSoC5/AMuxSeq_1.c **** 
 130:.\Generated_Source\PSoC5/AMuxSeq_1.c **** /*******************************************************************************
 131:.\Generated_Source\PSoC5/AMuxSeq_1.c **** * Function Name: AMuxSeq_1_GetChannel
 132:.\Generated_Source\PSoC5/AMuxSeq_1.c **** ********************************************************************************
 133:.\Generated_Source\PSoC5/AMuxSeq_1.c **** * Summary:
 134:.\Generated_Source\PSoC5/AMuxSeq_1.c **** *  The currently connected channel is retuned. If no channel is connected
 135:.\Generated_Source\PSoC5/AMuxSeq_1.c **** *  returns -1.
 136:.\Generated_Source\PSoC5/AMuxSeq_1.c **** *
 137:.\Generated_Source\PSoC5/AMuxSeq_1.c **** * Parameters:
 138:.\Generated_Source\PSoC5/AMuxSeq_1.c **** *  void
 139:.\Generated_Source\PSoC5/AMuxSeq_1.c **** *
 140:.\Generated_Source\PSoC5/AMuxSeq_1.c **** * Return:
 141:.\Generated_Source\PSoC5/AMuxSeq_1.c **** *  The current channel or -1.
 142:.\Generated_Source\PSoC5/AMuxSeq_1.c **** *
 143:.\Generated_Source\PSoC5/AMuxSeq_1.c **** *******************************************************************************/
 144:.\Generated_Source\PSoC5/AMuxSeq_1.c **** int8 AMuxSeq_1_GetChannel(void)
 145:.\Generated_Source\PSoC5/AMuxSeq_1.c **** {
 146:.\Generated_Source\PSoC5/AMuxSeq_1.c ****     return AMuxSeq_1_CYAMUXSIDE_A_curChannel;
 147:.\Generated_Source\PSoC5/AMuxSeq_1.c **** }
 148:.\Generated_Source\PSoC5/AMuxSeq_1.c **** 
 149:.\Generated_Source\PSoC5/AMuxSeq_1.c **** #else
 150:.\Generated_Source\PSoC5/AMuxSeq_1.c **** 
 151:.\Generated_Source\PSoC5/AMuxSeq_1.c **** extern int8 AMuxSeq_1_curChannel;
 152:.\Generated_Source\PSoC5/AMuxSeq_1.c **** 
 153:.\Generated_Source\PSoC5/AMuxSeq_1.c **** 
 154:.\Generated_Source\PSoC5/AMuxSeq_1.c **** /*******************************************************************************
 155:.\Generated_Source\PSoC5/AMuxSeq_1.c **** * Function Name: AMuxSeq_1_GetChannel
 156:.\Generated_Source\PSoC5/AMuxSeq_1.c **** ********************************************************************************
 157:.\Generated_Source\PSoC5/AMuxSeq_1.c **** * Summary:
 158:.\Generated_Source\PSoC5/AMuxSeq_1.c **** *  The currently connected channel is retuned. If no channel is connected
ARM GAS  C:\Users\karunmj\AppData\Local\Temp\ccPyO0UW.s 			page 6


 159:.\Generated_Source\PSoC5/AMuxSeq_1.c **** *  returns -1.
 160:.\Generated_Source\PSoC5/AMuxSeq_1.c **** *
 161:.\Generated_Source\PSoC5/AMuxSeq_1.c **** * Parameters:
 162:.\Generated_Source\PSoC5/AMuxSeq_1.c **** *  void
 163:.\Generated_Source\PSoC5/AMuxSeq_1.c **** *
 164:.\Generated_Source\PSoC5/AMuxSeq_1.c **** * Return:
 165:.\Generated_Source\PSoC5/AMuxSeq_1.c **** *  The current channel or -1.
 166:.\Generated_Source\PSoC5/AMuxSeq_1.c **** *
 167:.\Generated_Source\PSoC5/AMuxSeq_1.c **** *******************************************************************************/
 168:.\Generated_Source\PSoC5/AMuxSeq_1.c **** int8 AMuxSeq_1_GetChannel(void)
 169:.\Generated_Source\PSoC5/AMuxSeq_1.c **** {
 124              		.loc 1 169 0
 125              		.cfi_startproc
 126              		@ args = 0, pretend = 0, frame = 0
 127              		@ frame_needed = 1, uses_anonymous_args = 0
 128              		@ link register save eliminated.
 129 0000 80B4     		push	{r7}
 130              	.LCFI6:
 131              		.cfi_def_cfa_offset 4
 132 0002 00AF     		add	r7, sp, #0
 133              		.cfi_offset 7, -4
 134              	.LCFI7:
 135              		.cfi_def_cfa_register 7
 170:.\Generated_Source\PSoC5/AMuxSeq_1.c ****     return AMuxSeq_1_curChannel;
 136              		.loc 1 170 0
 137 0004 40F20003 		movw	r3, #:lower16:AMuxSeq_1_curChannel
 138 0008 C0F20003 		movt	r3, #:upper16:AMuxSeq_1_curChannel
 139 000c 1B78     		ldrb	r3, [r3, #0]	@ zero_extendqisi2
 140 000e 5BB2     		sxtb	r3, r3
 171:.\Generated_Source\PSoC5/AMuxSeq_1.c **** }
 141              		.loc 1 171 0
 142 0010 1846     		mov	r0, r3
 143 0012 BD46     		mov	sp, r7
 144 0014 80BC     		pop	{r7}
 145 0016 7047     		bx	lr
 146              		.cfi_endproc
 147              	.LFE3:
 148              		.size	AMuxSeq_1_GetChannel, .-AMuxSeq_1_GetChannel
 149              		.text
 150              	.Letext0: