ARM GAS  C:\Users\karunmj\AppData\Local\Temp\ccFv03GS.s 			page 1


   1              		.syntax unified
   2              		.cpu cortex-m3
   3              		.fpu softvfp
   4              		.eabi_attribute 20, 1
   5              		.eabi_attribute 21, 1
   6              		.eabi_attribute 23, 3
   7              		.eabi_attribute 24, 1
   8              		.eabi_attribute 25, 1
   9              		.eabi_attribute 26, 1
  10              		.eabi_attribute 30, 6
  11              		.eabi_attribute 18, 4
  12              		.thumb
  13              		.file	"campbell.c"
  20 0000 DD010000 		.text
  20      02005700 
  20      00000201 
  20      FB0E0D00 
  20      01010101 
  21              	.Ltext0:
  22              		.cfi_sections	.debug_frame
  23              		.global	Timeout
  24              		.data
  25              		.type	Timeout, %object
  26              		.size	Timeout, 1
  27              	Timeout:
  28 0000 05       		.byte	5
  29              		.global	R_Campbell
  30 0001 00       		.align	1
  31              		.type	R_Campbell, %object
  32              		.size	R_Campbell, 2
  33              	R_Campbell:
  34 0002 E803     		.short	1000
  35              		.global	R_Cable
  36              		.align	2
  37              		.type	R_Cable, %object
  38              		.size	R_Cable, 4
  39              	R_Cable:
  40 0004 0000C841 		.word	1103626240
  41              		.global	Kc
  42              		.align	2
  43              		.type	Kc, %object
  44              		.size	Kc, 4
  45              	Kc:
  46 0008 F0A7B63F 		.word	1068935152
  47              		.global	TempCoef
  48              		.align	2
  49              		.type	TempCoef, %object
  50              		.size	TempCoef, 4
  51              	TempCoef:
  52 000c 00000040 		.word	1073741824
  53              		.global	C0
ARM GAS  C:\Users\karunmj\AppData\Local\Temp\ccFv03GS.s 			page 2


  54              		.align	2
  55              		.type	C0, %object
  56              		.size	C0, 4
  57              	C0:
  58 0010 24D755C2 		.word	-1034561756
  59              		.global	C1
  60              		.align	2
  61              		.type	C1, %object
  62              		.size	C1, 4
  63              	C1:
  64 0014 6D4A1141 		.word	1091652205
  65              		.global	C2
  66              		.align	2
  67              		.type	C2, %object
  68              		.size	C2, 4
  69              	C2:
  70 0018 3E2355BF 		.word	-1084939458
  71              		.global	C3
  72              		.align	2
  73              		.type	C3, %object
  74              		.size	C3, 4
  75              	C3:
  76 001c 9826563D 		.word	1029056152
  77              		.global	C4
  78              		.align	2
  79              		.type	C4, %object
  80              		.size	C4, 4
  81              	C4:
  82 0020 6B32DBBA 		.word	-1160039829
  83              		.global	C5
  84              		.align	2
  85              		.type	C5, %object
  86              		.size	C5, 4
  87              	C5:
  88 0024 6F78B937 		.word	934901871
  89              		.comm	vpp1,4,4
  90              		.comm	vpp2,4,4
  91              		.comm	dvpp,4,4
  92              		.comm	Vs,4,4
  93              		.comm	Vx,4,4
  94              		.global	result1
  95              		.bss
  96              		.align	1
  97              		.type	result1, %object
  98              		.size	result1, 2
  99              	result1:
 100 0000 0000     		.space	2
 101              		.global	flag
 102              		.align	1
 103              		.type	flag, %object
 104              		.size	flag, 2
 105              	flag:
 106 0002 0000     		.space	2
 107              		.global	result2
 108              		.align	1
 109              		.type	result2, %object
 110              		.size	result2, 2
ARM GAS  C:\Users\karunmj\AppData\Local\Temp\ccFv03GS.s 			page 3


 111              	result2:
 112 0004 0000     		.space	2
 113              		.global	res1
 114              		.align	1
 115              		.type	res1, %object
 116              		.size	res1, 2
 117              	res1:
 118 0006 0000     		.space	2
 119              		.global	res2
 120              		.align	1
 121              		.type	res2, %object
 122              		.size	res2, 2
 123              	res2:
 124 0008 0000     		.space	2
 125              		.section	.text.campbell_temp_start,"ax",%progbits
 126              		.align	2
 127              		.global	campbell_temp_start
 128              		.thumb
 129              		.thumb_func
 130              		.type	campbell_temp_start, %function
 131              	campbell_temp_start:
 132              	.LFB29:
 133              		.file 1 ".\\campbell.c"
   1:.\campbell.c  **** /* ========================================
   2:.\campbell.c  ****  *
   3:.\campbell.c  ****  * Copyright YOUR COMPANY, THE YEAR
   4:.\campbell.c  ****  * All Rights Reserved
   5:.\campbell.c  ****  * UNPUBLISHED, LICENSED SOFTWARE.
   6:.\campbell.c  ****  *
   7:.\campbell.c  ****  * CONFIDENTIAL AND PROPRIETARY INFORMATION
   8:.\campbell.c  ****  * WHICH IS THE PROPERTY OF your company.
   9:.\campbell.c  ****  *
  10:.\campbell.c  ****  * ========================================
  11:.\campbell.c  **** */
  12:.\campbell.c  **** 
  13:.\campbell.c  **** #include <device.h>
  14:.\campbell.c  **** #include "campbell.h"
  15:.\campbell.c  **** 
  16:.\campbell.c  **** uint8 Timeout       = 5u;       // Number of iterations to read valid voltage differentials
  17:.\campbell.c  **** uint16 R_Campbell   = 1000;     // Ohms, Resistance that V_differential is measured across
  18:.\campbell.c  **** float R_Cable       = 25.0;     // Footage of cable of Campbell A547 sensor
  19:.\campbell.c  **** float Kc            = 1.427;    // Capacitance Constant
  20:.\campbell.c  **** float TempCoef      = 2.0;       // Temperature Compensation Coefficient (typ. between 0 and 5) 
  21:.\campbell.c  **** float C0            = -53.4601; // Thermistor Constants
  22:.\campbell.c  **** float C1            =  9.08067;
  23:.\campbell.c  **** float C2            = -0.832569;
  24:.\campbell.c  **** float C3            =  0.0522829;
  25:.\campbell.c  **** float C4            = -0.00167234;
  26:.\campbell.c  **** float C5            =  0.0000221098;
  27:.\campbell.c  **** 
  28:.\campbell.c  **** /* Declaration of all required variables */
  29:.\campbell.c  **** float vpp1, vpp2, dvpp, Vs, Vx;
  30:.\campbell.c  **** uint16 result1 = 0u, flag = 0u, result2 = 0u;
  31:.\campbell.c  **** uint16 res1 = 0u, res2 = 0u;
  32:.\campbell.c  **** 
  33:.\campbell.c  **** uint8 campbell_temp_start(){
 134              		.loc 1 33 0
ARM GAS  C:\Users\karunmj\AppData\Local\Temp\ccFv03GS.s 			page 4


 135              		.cfi_startproc
 136              		@ args = 0, pretend = 0, frame = 0
 137              		@ frame_needed = 1, uses_anonymous_args = 0
 138 0000 80B5     		push	{r7, lr}
 139              	.LCFI0:
 140              		.cfi_def_cfa_offset 8
 141 0002 00AF     		add	r7, sp, #0
 142              		.cfi_offset 14, -4
 143              		.cfi_offset 7, -8
 144              	.LCFI1:
 145              		.cfi_def_cfa_register 7
  34:.\campbell.c  ****     /* Start of all components */
  35:.\campbell.c  ****     AMux_1_Start();
 146              		.loc 1 35 0
 147 0004 FFF7FEFF 		bl	AMux_1_Start
  36:.\campbell.c  ****     ADC_DelSig_1_Start();
 148              		.loc 1 36 0
 149 0008 FFF7FEFF 		bl	ADC_DelSig_1_Start
  37:.\campbell.c  ****     Temp_Vout_Write(0u);
 150              		.loc 1 37 0
 151 000c 4FF00000 		mov	r0, #0
 152 0010 FFF7FEFF 		bl	Temp_Vout_Write
  38:.\campbell.c  ****     
  39:.\campbell.c  ****     ADC_DelSig_1_SelectConfiguration(1u, 1u);
 153              		.loc 1 39 0
 154 0014 4FF00100 		mov	r0, #1
 155 0018 4FF00101 		mov	r1, #1
 156 001c FFF7FEFF 		bl	ADC_DelSig_1_SelectConfiguration
  40:.\campbell.c  ****     
  41:.\campbell.c  ****     return 1u;
 157              		.loc 1 41 0
 158 0020 4FF00103 		mov	r3, #1
  42:.\campbell.c  **** }
 159              		.loc 1 42 0
 160 0024 1846     		mov	r0, r3
 161 0026 80BD     		pop	{r7, pc}
 162              		.cfi_endproc
 163              	.LFE29:
 164              		.size	campbell_temp_start, .-campbell_temp_start
 165              		.section	.text.campbell_cond_start,"ax",%progbits
 166              		.align	2
 167              		.global	campbell_cond_start
 168              		.thumb
 169              		.thumb_func
 170              		.type	campbell_cond_start, %function
 171              	campbell_cond_start:
 172              	.LFB30:
  43:.\campbell.c  **** 
  44:.\campbell.c  **** 
  45:.\campbell.c  **** uint8 campbell_cond_start(){
 173              		.loc 1 45 0
 174              		.cfi_startproc
 175              		@ args = 0, pretend = 0, frame = 0
 176              		@ frame_needed = 1, uses_anonymous_args = 0
 177 0000 80B5     		push	{r7, lr}
 178              	.LCFI2:
 179              		.cfi_def_cfa_offset 8
ARM GAS  C:\Users\karunmj\AppData\Local\Temp\ccFv03GS.s 			page 5


 180 0002 00AF     		add	r7, sp, #0
 181              		.cfi_offset 14, -4
 182              		.cfi_offset 7, -8
 183              	.LCFI3:
 184              		.cfi_def_cfa_register 7
  46:.\campbell.c  ****     /* Start of all components */
  47:.\campbell.c  ****     ADC_DelSig_1_Start();
 185              		.loc 1 47 0
 186 0004 FFF7FEFF 		bl	ADC_DelSig_1_Start
  48:.\campbell.c  ****     
  49:.\campbell.c  ****     ADC_DelSig_1_SelectConfiguration(1u, 1u);
 187              		.loc 1 49 0
 188 0008 4FF00100 		mov	r0, #1
 189 000c 4FF00101 		mov	r1, #1
 190 0010 FFF7FEFF 		bl	ADC_DelSig_1_SelectConfiguration
  50:.\campbell.c  ****    
  51:.\campbell.c  ****     Comp_1_Start();
 191              		.loc 1 51 0
 192 0014 FFF7FEFF 		bl	Comp_1_Start
  52:.\campbell.c  ****     Comp_2_Start();
 193              		.loc 1 52 0
 194 0018 FFF7FEFF 		bl	Comp_2_Start
  53:.\campbell.c  ****     Comp_3_Start();
 195              		.loc 1 53 0
 196 001c FFF7FEFF 		bl	Comp_3_Start
  54:.\campbell.c  ****     //Comp_4_Start();
  55:.\campbell.c  ****     
  56:.\campbell.c  ****     AMux_1_Start();   
 197              		.loc 1 56 0
 198 0020 FFF7FEFF 		bl	AMux_1_Start
  57:.\campbell.c  ****     //AMuxSeq_1_Next();  // Connect Mux to first 
  58:.\campbell.c  ****     
  59:.\campbell.c  ****     Sample_Hold_1_Start();
 199              		.loc 1 59 0
 200 0024 FFF7FEFF 		bl	Sample_Hold_1_Start
  60:.\campbell.c  ****     Sample_Hold_2_Start();
 201              		.loc 1 60 0
 202 0028 FFF7FEFF 		bl	Sample_Hold_2_Start
  61:.\campbell.c  ****     Sample_Hold_3_Start();
 203              		.loc 1 61 0
 204 002c FFF7FEFF 		bl	Sample_Hold_3_Start
  62:.\campbell.c  ****     //Sample_Hold_4_Start();
  63:.\campbell.c  ****     
  64:.\campbell.c  ****     PWM_1_Start();
 205              		.loc 1 64 0
 206 0030 FFF7FEFF 		bl	PWM_1_Start
  65:.\campbell.c  ****     PWM_2_Start();
 207              		.loc 1 65 0
 208 0034 FFF7FEFF 		bl	PWM_2_Start
  66:.\campbell.c  ****     
  67:.\campbell.c  ****     Cond_Vout_Write(0u);
 209              		.loc 1 67 0
 210 0038 4FF00000 		mov	r0, #0
 211 003c FFF7FEFF 		bl	Cond_Vout_Write
  68:.\campbell.c  ****     
  69:.\campbell.c  ****     return 1u;
 212              		.loc 1 69 0
ARM GAS  C:\Users\karunmj\AppData\Local\Temp\ccFv03GS.s 			page 6


 213 0040 4FF00103 		mov	r3, #1
  70:.\campbell.c  **** }
 214              		.loc 1 70 0
 215 0044 1846     		mov	r0, r3
 216 0046 80BD     		pop	{r7, pc}
 217              		.cfi_endproc
 218              	.LFE30:
 219              		.size	campbell_cond_start, .-campbell_cond_start
 220              		.section	.text.campbell_start,"ax",%progbits
 221              		.align	2
 222              		.global	campbell_start
 223              		.thumb
 224              		.thumb_func
 225              		.type	campbell_start, %function
 226              	campbell_start:
 227              	.LFB31:
  71:.\campbell.c  **** 
  72:.\campbell.c  **** uint8 campbell_start(){
 228              		.loc 1 72 0
 229              		.cfi_startproc
 230              		@ args = 0, pretend = 0, frame = 0
 231              		@ frame_needed = 1, uses_anonymous_args = 0
 232 0000 80B5     		push	{r7, lr}
 233              	.LCFI4:
 234              		.cfi_def_cfa_offset 8
 235 0002 00AF     		add	r7, sp, #0
 236              		.cfi_offset 14, -4
 237              		.cfi_offset 7, -8
 238              	.LCFI5:
 239              		.cfi_def_cfa_register 7
  73:.\campbell.c  ****     /* Start of all components */
  74:.\campbell.c  ****     if(! campbell_temp_start()) {
 240              		.loc 1 74 0
 241 0004 FFF7FEFF 		bl	campbell_temp_start
 242 0008 0346     		mov	r3, r0
 243 000a 002B     		cmp	r3, #0
 244 000c 02D1     		bne	.L6
  75:.\campbell.c  ****         return 0u;
 245              		.loc 1 75 0
 246 000e 4FF00003 		mov	r3, #0
 247 0012 09E0     		b	.L7
 248              	.L6:
  76:.\campbell.c  ****     }
  77:.\campbell.c  ****     if(! campbell_cond_start()) {
 249              		.loc 1 77 0
 250 0014 FFF7FEFF 		bl	campbell_cond_start
 251 0018 0346     		mov	r3, r0
 252 001a 002B     		cmp	r3, #0
 253 001c 02D1     		bne	.L8
  78:.\campbell.c  ****         return 0u;
 254              		.loc 1 78 0
 255 001e 4FF00003 		mov	r3, #0
 256 0022 01E0     		b	.L7
 257              	.L8:
  79:.\campbell.c  ****     }
  80:.\campbell.c  ****     
  81:.\campbell.c  ****     return 1u;
ARM GAS  C:\Users\karunmj\AppData\Local\Temp\ccFv03GS.s 			page 7


 258              		.loc 1 81 0
 259 0024 4FF00103 		mov	r3, #1
 260              	.L7:
  82:.\campbell.c  **** }
 261              		.loc 1 82 0
 262 0028 1846     		mov	r0, r3
 263 002a 80BD     		pop	{r7, pc}
 264              		.cfi_endproc
 265              	.LFE31:
 266              		.size	campbell_start, .-campbell_start
 267              		.section	.text.campbell_temp_stop,"ax",%progbits
 268              		.align	2
 269              		.global	campbell_temp_stop
 270              		.thumb
 271              		.thumb_func
 272              		.type	campbell_temp_stop, %function
 273              	campbell_temp_stop:
 274              	.LFB32:
  83:.\campbell.c  **** 
  84:.\campbell.c  **** uint8 campbell_temp_stop() {
 275              		.loc 1 84 0
 276              		.cfi_startproc
 277              		@ args = 0, pretend = 0, frame = 0
 278              		@ frame_needed = 1, uses_anonymous_args = 0
 279 0000 80B5     		push	{r7, lr}
 280              	.LCFI6:
 281              		.cfi_def_cfa_offset 8
 282 0002 00AF     		add	r7, sp, #0
 283              		.cfi_offset 14, -4
 284              		.cfi_offset 7, -8
 285              	.LCFI7:
 286              		.cfi_def_cfa_register 7
  85:.\campbell.c  **** 
  86:.\campbell.c  ****     Temp_Vout_Write(1u);
 287              		.loc 1 86 0
 288 0004 4FF00100 		mov	r0, #1
 289 0008 FFF7FEFF 		bl	Temp_Vout_Write
  87:.\campbell.c  ****     ADC_DelSig_1_Stop();
 290              		.loc 1 87 0
 291 000c FFF7FEFF 		bl	ADC_DelSig_1_Stop
  88:.\campbell.c  ****     AMux_1_Stop();    
 292              		.loc 1 88 0
 293 0010 FFF7FEFF 		bl	AMux_1_DisconnectAll
  89:.\campbell.c  ****     
  90:.\campbell.c  ****     return 1u;
 294              		.loc 1 90 0
 295 0014 4FF00103 		mov	r3, #1
  91:.\campbell.c  **** }
 296              		.loc 1 91 0
 297 0018 1846     		mov	r0, r3
 298 001a 80BD     		pop	{r7, pc}
 299              		.cfi_endproc
 300              	.LFE32:
 301              		.size	campbell_temp_stop, .-campbell_temp_stop
 302              		.section	.text.campbell_cond_stop,"ax",%progbits
 303              		.align	2
 304              		.global	campbell_cond_stop
ARM GAS  C:\Users\karunmj\AppData\Local\Temp\ccFv03GS.s 			page 8


 305              		.thumb
 306              		.thumb_func
 307              		.type	campbell_cond_stop, %function
 308              	campbell_cond_stop:
 309              	.LFB33:
  92:.\campbell.c  **** 
  93:.\campbell.c  **** uint8 campbell_cond_stop() {
 310              		.loc 1 93 0
 311              		.cfi_startproc
 312              		@ args = 0, pretend = 0, frame = 0
 313              		@ frame_needed = 1, uses_anonymous_args = 0
 314 0000 80B5     		push	{r7, lr}
 315              	.LCFI8:
 316              		.cfi_def_cfa_offset 8
 317 0002 00AF     		add	r7, sp, #0
 318              		.cfi_offset 14, -4
 319              		.cfi_offset 7, -8
 320              	.LCFI9:
 321              		.cfi_def_cfa_register 7
  94:.\campbell.c  ****     /* Stop of all components */
  95:.\campbell.c  ****     ADC_DelSig_1_Stop();
 322              		.loc 1 95 0
 323 0004 FFF7FEFF 		bl	ADC_DelSig_1_Stop
  96:.\campbell.c  ****    
  97:.\campbell.c  ****     Comp_1_Stop();
 324              		.loc 1 97 0
 325 0008 FFF7FEFF 		bl	Comp_1_Stop
  98:.\campbell.c  ****     Comp_2_Stop();
 326              		.loc 1 98 0
 327 000c FFF7FEFF 		bl	Comp_2_Stop
  99:.\campbell.c  ****     Comp_3_Stop();
 328              		.loc 1 99 0
 329 0010 FFF7FEFF 		bl	Comp_3_Stop
 100:.\campbell.c  ****     //Comp_4_Stop();
 101:.\campbell.c  ****     
 102:.\campbell.c  ****     AMux_1_Stop();  
 330              		.loc 1 102 0
 331 0014 FFF7FEFF 		bl	AMux_1_DisconnectAll
 103:.\campbell.c  ****     
 104:.\campbell.c  ****     Sample_Hold_1_Stop();
 332              		.loc 1 104 0
 333 0018 FFF7FEFF 		bl	Sample_Hold_1_Stop
 105:.\campbell.c  ****     Sample_Hold_2_Stop();
 334              		.loc 1 105 0
 335 001c FFF7FEFF 		bl	Sample_Hold_2_Stop
 106:.\campbell.c  ****     Sample_Hold_3_Stop();
 336              		.loc 1 106 0
 337 0020 FFF7FEFF 		bl	Sample_Hold_3_Stop
 107:.\campbell.c  ****     //Sample_Hold_4_Stop();
 108:.\campbell.c  ****     
 109:.\campbell.c  ****     PWM_1_Stop();
 338              		.loc 1 109 0
 339 0024 FFF7FEFF 		bl	PWM_1_Stop
 110:.\campbell.c  ****     PWM_2_Stop();
 340              		.loc 1 110 0
 341 0028 FFF7FEFF 		bl	PWM_2_Stop
 111:.\campbell.c  ****     
ARM GAS  C:\Users\karunmj\AppData\Local\Temp\ccFv03GS.s 			page 9


 112:.\campbell.c  ****     Cond_Vout_Write(1u);
 342              		.loc 1 112 0
 343 002c 4FF00100 		mov	r0, #1
 344 0030 FFF7FEFF 		bl	Cond_Vout_Write
 113:.\campbell.c  ****     
 114:.\campbell.c  ****     return 1u;
 345              		.loc 1 114 0
 346 0034 4FF00103 		mov	r3, #1
 115:.\campbell.c  **** }
 347              		.loc 1 115 0
 348 0038 1846     		mov	r0, r3
 349 003a 80BD     		pop	{r7, pc}
 350              		.cfi_endproc
 351              	.LFE33:
 352              		.size	campbell_cond_stop, .-campbell_cond_stop
 353              		.section	.text.campbell_stop,"ax",%progbits
 354              		.align	2
 355              		.global	campbell_stop
 356              		.thumb
 357              		.thumb_func
 358              		.type	campbell_stop, %function
 359              	campbell_stop:
 360              	.LFB34:
 116:.\campbell.c  **** 
 117:.\campbell.c  **** uint8 campbell_stop(){
 361              		.loc 1 117 0
 362              		.cfi_startproc
 363              		@ args = 0, pretend = 0, frame = 0
 364              		@ frame_needed = 1, uses_anonymous_args = 0
 365 0000 80B5     		push	{r7, lr}
 366              	.LCFI10:
 367              		.cfi_def_cfa_offset 8
 368 0002 00AF     		add	r7, sp, #0
 369              		.cfi_offset 14, -4
 370              		.cfi_offset 7, -8
 371              	.LCFI11:
 372              		.cfi_def_cfa_register 7
 118:.\campbell.c  ****     /* Start of all components */
 119:.\campbell.c  ****     if(! campbell_temp_stop()) {
 373              		.loc 1 119 0
 374 0004 FFF7FEFF 		bl	campbell_temp_stop
 375 0008 0346     		mov	r3, r0
 376 000a 002B     		cmp	r3, #0
 377 000c 02D1     		bne	.L15
 120:.\campbell.c  ****         return 0u;
 378              		.loc 1 120 0
 379 000e 4FF00003 		mov	r3, #0
 380 0012 09E0     		b	.L16
 381              	.L15:
 121:.\campbell.c  ****     }
 122:.\campbell.c  ****     if(! campbell_cond_stop()) {
 382              		.loc 1 122 0
 383 0014 FFF7FEFF 		bl	campbell_cond_stop
 384 0018 0346     		mov	r3, r0
 385 001a 002B     		cmp	r3, #0
 386 001c 02D1     		bne	.L17
 123:.\campbell.c  ****         return 0u;
ARM GAS  C:\Users\karunmj\AppData\Local\Temp\ccFv03GS.s 			page 10


 387              		.loc 1 123 0
 388 001e 4FF00003 		mov	r3, #0
 389 0022 01E0     		b	.L16
 390              	.L17:
 124:.\campbell.c  ****     }
 125:.\campbell.c  ****     
 126:.\campbell.c  ****     return 1u;
 391              		.loc 1 126 0
 392 0024 4FF00103 		mov	r3, #1
 393              	.L16:
 127:.\campbell.c  **** }
 394              		.loc 1 127 0
 395 0028 1846     		mov	r0, r3
 396 002a 80BD     		pop	{r7, pc}
 397              		.cfi_endproc
 398              	.LFE34:
 399              		.size	campbell_stop, .-campbell_stop
 400              		.global	__aeabi_fdiv
 401              		.global	__aeabi_fmul
 402              		.global	__aeabi_fadd
 403              		.global	__aeabi_fcmpgt
 404              		.global	__aeabi_fcmplt
 405              		.section	.text.campbell_temp_br_read,"ax",%progbits
 406              		.align	2
 407              		.global	campbell_temp_br_read
 408              		.thumb
 409              		.thumb_func
 410              		.type	campbell_temp_br_read, %function
 411              	campbell_temp_br_read:
 412              	.LFB35:
 128:.\campbell.c  **** 
 129:.\campbell.c  **** uint8 campbell_temp_br_read(float* VsVx){
 413              		.loc 1 129 0
 414              		.cfi_startproc
 415              		@ args = 0, pretend = 0, frame = 24
 416              		@ frame_needed = 1, uses_anonymous_args = 0
 417 0000 90B5     		push	{r4, r7, lr}
 418              	.LCFI12:
 419              		.cfi_def_cfa_offset 12
 420 0002 87B0     		sub	sp, sp, #28
 421              	.LCFI13:
 422              		.cfi_def_cfa_offset 40
 423 0004 00AF     		add	r7, sp, #0
 424              		.cfi_offset 14, -4
 425              		.cfi_offset 7, -8
 426              		.cfi_offset 4, -12
 427              	.LCFI14:
 428              		.cfi_def_cfa_register 7
 429 0006 7860     		str	r0, [r7, #4]
 130:.\campbell.c  ****     
 131:.\campbell.c  ****     uint8 i, chan = 2u;
 430              		.loc 1 131 0
 431 0008 4FF00203 		mov	r3, #2
 432 000c FB72     		strb	r3, [r7, #11]
 132:.\campbell.c  ****     float mult = 1.0, ratio = 0.0, R = 0.0;
 433              		.loc 1 132 0
 434 000e 764B     		ldr	r3, .L34	@ float
ARM GAS  C:\Users\karunmj\AppData\Local\Temp\ccFv03GS.s 			page 11


 435 0010 FB60     		str	r3, [r7, #12]	@ float
 436 0012 764B     		ldr	r3, .L34+4	@ float
 437 0014 3B61     		str	r3, [r7, #16]	@ float
 438 0016 754B     		ldr	r3, .L34+4	@ float
 439 0018 7B61     		str	r3, [r7, #20]	@ float
 133:.\campbell.c  ****     
 134:.\campbell.c  ****     if (! campbell_temp_start()) {
 440              		.loc 1 134 0
 441 001a FFF7FEFF 		bl	campbell_temp_start
 442 001e 0346     		mov	r3, r0
 443 0020 002B     		cmp	r3, #0
 444 0022 02D1     		bne	.L20
 135:.\campbell.c  ****         return 0u;
 445              		.loc 1 135 0
 446 0024 4FF00003 		mov	r3, #0
 447 0028 D9E0     		b	.L21
 448              	.L20:
 136:.\campbell.c  ****     }
 137:.\campbell.c  ****     
 138:.\campbell.c  ****     AMux_1_Select(chan);
 449              		.loc 1 138 0
 450 002a FB7A     		ldrb	r3, [r7, #11]	@ zero_extendqisi2
 451 002c 1846     		mov	r0, r3
 452 002e FFF7FEFF 		bl	AMux_1_FastSelect
 139:.\campbell.c  ****     ADC_DelSig_1_StartConvert();    
 453              		.loc 1 139 0
 454 0032 FFF7FEFF 		bl	ADC_DelSig_1_StartConvert
 140:.\campbell.c  ****     CyDelay(100u);     
 455              		.loc 1 140 0
 456 0036 4FF06400 		mov	r0, #100
 457 003a FFF7FEFF 		bl	CyDelay
 141:.\campbell.c  ****     
 142:.\campbell.c  ****     for (i = 0u; i < 100; i++) {
 458              		.loc 1 142 0
 459 003e 4FF00003 		mov	r3, #0
 460 0042 BB72     		strb	r3, [r7, #10]
 461 0044 65E0     		b	.L22
 462              	.L26:
 143:.\campbell.c  ****         
 144:.\campbell.c  ****         if(ADC_DelSig_1_IsEndConversion(ADC_DelSig_1_RETURN_STATUS)){
 463              		.loc 1 144 0
 464 0046 4FF00100 		mov	r0, #1
 465 004a FFF7FEFF 		bl	ADC_DelSig_1_IsEndConversion
 466 004e 0346     		mov	r3, r0
 467 0050 002B     		cmp	r3, #0
 468 0052 56D0     		beq	.L23
 145:.\campbell.c  ****             
 146:.\campbell.c  ****             if (chan == 2)
 469              		.loc 1 146 0
 470 0054 FB7A     		ldrb	r3, [r7, #11]	@ zero_extendqisi2
 471 0056 022B     		cmp	r3, #2
 472 0058 36D1     		bne	.L24
 147:.\campbell.c  ****             {                
 148:.\campbell.c  ****             
 149:.\campbell.c  ****                 ADC_DelSig_1_StopConvert(); // Stop the conversion so signals don't 
 473              		.loc 1 149 0
 474 005a FFF7FEFF 		bl	ADC_DelSig_1_StopConvert
ARM GAS  C:\Users\karunmj\AppData\Local\Temp\ccFv03GS.s 			page 12


 150:.\campbell.c  ****                                         // get mixed when switching the mux
 151:.\campbell.c  ****                 
 152:.\campbell.c  ****                 
 153:.\campbell.c  ****                 res1 = ADC_DelSig_1_GetResult16();
 475              		.loc 1 153 0
 476 005e FFF7FEFF 		bl	ADC_DelSig_1_GetResult16
 477 0062 0346     		mov	r3, r0
 478 0064 9BB2     		uxth	r3, r3
 479 0066 9AB2     		uxth	r2, r3
 480 0068 40F20003 		movw	r3, #:lower16:res1
 481 006c C0F20003 		movt	r3, #:upper16:res1
 482 0070 1A80     		strh	r2, [r3, #0]	@ movhi
 154:.\campbell.c  ****     			Vx = ADC_DelSig_1_CountsTo_Volts(res1) ;
 483              		.loc 1 154 0
 484 0072 40F20003 		movw	r3, #:lower16:res1
 485 0076 C0F20003 		movt	r3, #:upper16:res1
 486 007a 1B88     		ldrh	r3, [r3, #0]
 487 007c 1846     		mov	r0, r3
 488 007e FFF7FEFF 		bl	ADC_DelSig_1_CountsTo_Volts
 489 0082 0246     		mov	r2, r0
 490 0084 40F20003 		movw	r3, #:lower16:Vx
 491 0088 C0F20003 		movt	r3, #:upper16:Vx
 492 008c 1A60     		str	r2, [r3, #0]	@ float
 155:.\campbell.c  ****                 mult = 8/Vx;                // See Sec 12 http://s.campbellsci.com/documents/au/man
 493              		.loc 1 155 0
 494 008e 40F20003 		movw	r3, #:lower16:Vx
 495 0092 C0F20003 		movt	r3, #:upper16:Vx
 496 0096 1B68     		ldr	r3, [r3, #0]	@ float
 497 0098 5548     		ldr	r0, .L34+8	@ float
 498 009a 1946     		mov	r1, r3
 499 009c FFF7FEFF 		bl	__aeabi_fdiv
 500 00a0 0346     		mov	r3, r0
 501 00a2 FB60     		str	r3, [r7, #12]	@ float
 156:.\campbell.c  ****                                             // Multiplier scales Vx to 8000 mV
 157:.\campbell.c  ****                 chan = 3u;
 502              		.loc 1 157 0
 503 00a4 4FF00303 		mov	r3, #3
 504 00a8 FB72     		strb	r3, [r7, #11]
 158:.\campbell.c  ****                 AMux_1_Select(chan);  
 505              		.loc 1 158 0
 506 00aa FB7A     		ldrb	r3, [r7, #11]	@ zero_extendqisi2
 507 00ac 1846     		mov	r0, r3
 508 00ae FFF7FEFF 		bl	AMux_1_FastSelect
 159:.\campbell.c  ****                 //ADC_DelSig_1_SelectConfiguration(2u, 1u);
 160:.\campbell.c  ****                 CyDelay(1u);
 509              		.loc 1 160 0
 510 00b2 4FF00100 		mov	r0, #1
 511 00b6 FFF7FEFF 		bl	CyDelay
 161:.\campbell.c  ****                 ADC_DelSig_1_StartConvert(); 
 512              		.loc 1 161 0
 513 00ba FFF7FEFF 		bl	ADC_DelSig_1_StartConvert
 162:.\campbell.c  ****                 CyDelay(99u);                 
 514              		.loc 1 162 0
 515 00be 4FF06300 		mov	r0, #99
 516 00c2 FFF7FEFF 		bl	CyDelay
 517 00c6 1CE0     		b	.L23
 518              	.L24:
ARM GAS  C:\Users\karunmj\AppData\Local\Temp\ccFv03GS.s 			page 13


 163:.\campbell.c  ****             }
 164:.\campbell.c  ****             else {            
 165:.\campbell.c  ****                 ADC_DelSig_1_StopConvert(); // Stop the conversion so signals don't 
 519              		.loc 1 165 0
 520 00c8 FFF7FEFF 		bl	ADC_DelSig_1_StopConvert
 166:.\campbell.c  ****                                         // get mixed when switching the mux
 167:.\campbell.c  ****                 AMux_1_DisconnectAll();
 521              		.loc 1 167 0
 522 00cc FFF7FEFF 		bl	AMux_1_DisconnectAll
 168:.\campbell.c  ****                 
 169:.\campbell.c  ****                 res2 = ADC_DelSig_1_GetResult16();
 523              		.loc 1 169 0
 524 00d0 FFF7FEFF 		bl	ADC_DelSig_1_GetResult16
 525 00d4 0346     		mov	r3, r0
 526 00d6 9BB2     		uxth	r3, r3
 527 00d8 9AB2     		uxth	r2, r3
 528 00da 40F20003 		movw	r3, #:lower16:res2
 529 00de C0F20003 		movt	r3, #:upper16:res2
 530 00e2 1A80     		strh	r2, [r3, #0]	@ movhi
 170:.\campbell.c  ****         		Vs = ADC_DelSig_1_CountsTo_Volts(res2) ;                
 531              		.loc 1 170 0
 532 00e4 40F20003 		movw	r3, #:lower16:res2
 533 00e8 C0F20003 		movt	r3, #:upper16:res2
 534 00ec 1B88     		ldrh	r3, [r3, #0]
 535 00ee 1846     		mov	r0, r3
 536 00f0 FFF7FEFF 		bl	ADC_DelSig_1_CountsTo_Volts
 537 00f4 0246     		mov	r2, r0
 538 00f6 40F20003 		movw	r3, #:lower16:Vs
 539 00fa C0F20003 		movt	r3, #:upper16:Vs
 540 00fe 1A60     		str	r2, [r3, #0]	@ float
 171:.\campbell.c  ****                 break;
 541              		.loc 1 171 0
 542 0100 0AE0     		b	.L25
 543              	.L23:
 172:.\campbell.c  ****             }                    
 173:.\campbell.c  ****         }
 174:.\campbell.c  ****         CyDelay(1u); 
 544              		.loc 1 174 0
 545 0102 4FF00100 		mov	r0, #1
 546 0106 FFF7FEFF 		bl	CyDelay
 547              		.loc 1 142 0
 548 010a BB7A     		ldrb	r3, [r7, #10]
 549 010c 03F10103 		add	r3, r3, #1
 550 0110 BB72     		strb	r3, [r7, #10]
 551              	.L22:
 552 0112 BB7A     		ldrb	r3, [r7, #10]	@ zero_extendqisi2
 553 0114 632B     		cmp	r3, #99
 554 0116 96D9     		bls	.L26
 555              	.L25:
 175:.\campbell.c  ****     }
 176:.\campbell.c  ****         
 177:.\campbell.c  ****     if (! campbell_temp_stop()) {
 556              		.loc 1 177 0
 557 0118 FFF7FEFF 		bl	campbell_temp_stop
 558 011c 0346     		mov	r3, r0
 559 011e 002B     		cmp	r3, #0
 560 0120 02D1     		bne	.L27
ARM GAS  C:\Users\karunmj\AppData\Local\Temp\ccFv03GS.s 			page 14


 178:.\campbell.c  ****         return 0u;
 561              		.loc 1 178 0
 562 0122 4FF00003 		mov	r3, #0
 563 0126 5AE0     		b	.L21
 564              	.L27:
 179:.\campbell.c  ****     }     
 180:.\campbell.c  ****     
 181:.\campbell.c  ****     //*VsVx = mult * VsVx * 8000;   
 182:.\campbell.c  ****     
 183:.\campbell.c  ****     ratio = Vs/Vx;                          // Added to adjust for using 100 kOhm instead of 1 kOhm
 565              		.loc 1 183 0
 566 0128 40F20003 		movw	r3, #:lower16:Vs
 567 012c C0F20003 		movt	r3, #:upper16:Vs
 568 0130 1A68     		ldr	r2, [r3, #0]	@ float
 569 0132 40F20003 		movw	r3, #:lower16:Vx
 570 0136 C0F20003 		movt	r3, #:upper16:Vx
 571 013a 1B68     		ldr	r3, [r3, #0]	@ float
 572 013c 1046     		mov	r0, r2
 573 013e 1946     		mov	r1, r3
 574 0140 FFF7FEFF 		bl	__aeabi_fdiv
 575 0144 0346     		mov	r3, r0
 576 0146 3B61     		str	r3, [r7, #16]	@ float
 184:.\campbell.c  ****     R = (100000 - (ratio*349000)) / ratio;  // Added to adjust for using 100 kOhm instead of 1 kOhm
 577              		.loc 1 184 0
 578 0148 3869     		ldr	r0, [r7, #16]	@ float
 579 014a 2A49     		ldr	r1, .L34+12	@ float
 580 014c FFF7FEFF 		bl	__aeabi_fmul
 581 0150 0346     		mov	r3, r0
 582 0152 1846     		mov	r0, r3
 583 0154 2849     		ldr	r1, .L34+16	@ float
 584 0156 FFF7FEFF 		bl	__aeabi_fadd
 585 015a 0346     		mov	r3, r0
 586 015c 1846     		mov	r0, r3
 587 015e 3969     		ldr	r1, [r7, #16]	@ float
 588 0160 FFF7FEFF 		bl	__aeabi_fdiv
 589 0164 0346     		mov	r3, r0
 590 0166 7B61     		str	r3, [r7, #20]	@ float
 185:.\campbell.c  ****     *VsVx = 1000 / (R + 250000) * 8000;     // Now that Rs is known, use original equation
 591              		.loc 1 185 0
 592 0168 7869     		ldr	r0, [r7, #20]	@ float
 593 016a 2449     		ldr	r1, .L34+20	@ float
 594 016c FFF7FEFF 		bl	__aeabi_fadd
 595 0170 0346     		mov	r3, r0
 596 0172 2348     		ldr	r0, .L34+24	@ float
 597 0174 1946     		mov	r1, r3
 598 0176 FFF7FEFF 		bl	__aeabi_fdiv
 599 017a 0346     		mov	r3, r0
 600 017c 1846     		mov	r0, r3
 601 017e 2149     		ldr	r1, .L34+28	@ float
 602 0180 FFF7FEFF 		bl	__aeabi_fmul
 603 0184 0346     		mov	r3, r0
 604 0186 1A46     		mov	r2, r3
 605 0188 7B68     		ldr	r3, [r7, #4]
 606 018a 1A60     		str	r2, [r3, #0]	@ float
 186:.\campbell.c  ****                                             // note: Datasheet says 800, but 8000 yields correct re
 187:.\campbell.c  **** 
 188:.\campbell.c  ****         // According to Therm107 Datasheet, http://s.campbellsci.com/documents/au/manuals/107.pdf
ARM GAS  C:\Users\karunmj\AppData\Local\Temp\ccFv03GS.s 			page 15


 189:.\campbell.c  ****     // VsVx*8000 should range between 0 and 30
 190:.\campbell.c  ****     if (*VsVx > 0 && *VsVx < 30) {                                            
 607              		.loc 1 190 0
 608 018c 7B68     		ldr	r3, [r7, #4]
 609 018e 1B68     		ldr	r3, [r3, #0]	@ float
 610 0190 4FF00002 		mov	r2, #0
 611 0194 1446     		mov	r4, r2
 612 0196 1846     		mov	r0, r3
 613 0198 1449     		ldr	r1, .L34+4	@ float
 614 019a FFF7FEFF 		bl	__aeabi_fcmpgt
 615 019e 0346     		mov	r3, r0
 616 01a0 002B     		cmp	r3, #0
 617 01a2 02D0     		beq	.L28
 618              	.L29:
 619 01a4 4FF00103 		mov	r3, #1
 620 01a8 1C46     		mov	r4, r3
 621              	.L28:
 622 01aa E3B2     		uxtb	r3, r4
 623 01ac 002B     		cmp	r3, #0
 624 01ae 14D0     		beq	.L30
 625 01b0 7B68     		ldr	r3, [r7, #4]
 626 01b2 1B68     		ldr	r3, [r3, #0]	@ float
 627 01b4 4FF00002 		mov	r2, #0
 628 01b8 1446     		mov	r4, r2
 629 01ba 1846     		mov	r0, r3
 630 01bc 1249     		ldr	r1, .L34+32	@ float
 631 01be FFF7FEFF 		bl	__aeabi_fcmplt
 632 01c2 0346     		mov	r3, r0
 633 01c4 002B     		cmp	r3, #0
 634 01c6 02D0     		beq	.L31
 635              	.L32:
 636 01c8 4FF00103 		mov	r3, #1
 637 01cc 1C46     		mov	r4, r3
 638              	.L31:
 639 01ce E3B2     		uxtb	r3, r4
 640 01d0 002B     		cmp	r3, #0
 641 01d2 02D0     		beq	.L30
 191:.\campbell.c  ****         return 1u;      // Result is valid
 642              		.loc 1 191 0
 643 01d4 4FF00103 		mov	r3, #1
 644 01d8 01E0     		b	.L21
 645              	.L30:
 192:.\campbell.c  ****     } else {
 193:.\campbell.c  ****         return 0u;
 646              		.loc 1 193 0
 647 01da 4FF00003 		mov	r3, #0
 648              	.L21:
 194:.\campbell.c  ****     }
 195:.\campbell.c  **** }
 649              		.loc 1 195 0
 650 01de 1846     		mov	r0, r3
 651 01e0 07F11C07 		add	r7, r7, #28
 652 01e4 BD46     		mov	sp, r7
 653 01e6 90BD     		pop	{r4, r7, pc}
 654              	.L35:
 655              		.align	2
 656              	.L34:
ARM GAS  C:\Users\karunmj\AppData\Local\Temp\ccFv03GS.s 			page 16


 657 01e8 0000803F 		.word	1065353216
 658 01ec 00000000 		.word	0
 659 01f0 00000041 		.word	1090519040
 660 01f4 0069AAC8 		.word	-928356096
 661 01f8 0050C347 		.word	1203982336
 662 01fc 00247448 		.word	1215570944
 663 0200 00007A44 		.word	1148846080
 664 0204 0000FA45 		.word	1174011904
 665 0208 0000F041 		.word	1106247680
 666              		.cfi_endproc
 667              	.LFE35:
 668              		.size	campbell_temp_br_read, .-campbell_temp_br_read
 669              		.global	__aeabi_fsub
 670              		.global	__aeabi_f2d
 671              		.global	__aeabi_dcmpgt
 672              		.section	.text.campbell_cond_br_read,"ax",%progbits
 673              		.align	2
 674              		.global	campbell_cond_br_read
 675              		.thumb
 676              		.thumb_func
 677              		.type	campbell_cond_br_read, %function
 678              	campbell_cond_br_read:
 679              	.LFB36:
 196:.\campbell.c  **** 
 197:.\campbell.c  **** uint8 campbell_cond_br_read(float* Rs){
 680              		.loc 1 197 0
 681              		.cfi_startproc
 682              		@ args = 0, pretend = 0, frame = 16
 683              		@ frame_needed = 1, uses_anonymous_args = 0
 684 0000 90B5     		push	{r4, r7, lr}
 685              	.LCFI15:
 686              		.cfi_def_cfa_offset 12
 687 0002 85B0     		sub	sp, sp, #20
 688              	.LCFI16:
 689              		.cfi_def_cfa_offset 32
 690 0004 00AF     		add	r7, sp, #0
 691              		.cfi_offset 14, -4
 692              		.cfi_offset 7, -8
 693              		.cfi_offset 4, -12
 694              	.LCFI17:
 695              		.cfi_def_cfa_register 7
 696 0006 7860     		str	r0, [r7, #4]
 198:.\campbell.c  ****     
 199:.\campbell.c  ****     uint8 i, chan = 0u;
 697              		.loc 1 199 0
 698 0008 4FF00003 		mov	r3, #0
 699 000c FB73     		strb	r3, [r7, #15]
 200:.\campbell.c  ****     
 201:.\campbell.c  ****     AMux_1_Select(chan);
 700              		.loc 1 201 0
 701 000e FB7B     		ldrb	r3, [r7, #15]	@ zero_extendqisi2
 702 0010 1846     		mov	r0, r3
 703 0012 FFF7FEFF 		bl	AMux_1_FastSelect
 202:.\campbell.c  ****     // if i == 5, Mux could not be reset to 0
 203:.\campbell.c  **** 
 204:.\campbell.c  ****     ADC_DelSig_1_StartConvert();    
 704              		.loc 1 204 0
ARM GAS  C:\Users\karunmj\AppData\Local\Temp\ccFv03GS.s 			page 17


 705 0016 FFF7FEFF 		bl	ADC_DelSig_1_StartConvert
 205:.\campbell.c  ****     CyDelay(1u);     
 706              		.loc 1 205 0
 707 001a 4FF00100 		mov	r0, #1
 708 001e FFF7FEFF 		bl	CyDelay
 206:.\campbell.c  ****     
 207:.\campbell.c  ****     for (i = 0u; i < 100; i++) {
 709              		.loc 1 207 0
 710 0022 4FF00003 		mov	r3, #0
 711 0026 BB73     		strb	r3, [r7, #14]
 712 0028 75E0     		b	.L37
 713              	.L41:
 208:.\campbell.c  ****         
 209:.\campbell.c  ****         if(ADC_DelSig_1_IsEndConversion(ADC_DelSig_1_RETURN_STATUS)){
 714              		.loc 1 209 0
 715 002a 4FF00100 		mov	r0, #1
 716 002e FFF7FEFF 		bl	ADC_DelSig_1_IsEndConversion
 717 0032 0346     		mov	r3, r0
 718 0034 002B     		cmp	r3, #0
 719 0036 66D0     		beq	.L38
 210:.\campbell.c  ****             
 211:.\campbell.c  ****             if (chan == 0)
 720              		.loc 1 211 0
 721 0038 FB7B     		ldrb	r3, [r7, #15]	@ zero_extendqisi2
 722 003a 002B     		cmp	r3, #0
 723 003c 2BD1     		bne	.L39
 212:.\campbell.c  ****             {                
 213:.\campbell.c  ****             
 214:.\campbell.c  ****                 ADC_DelSig_1_StopConvert(); // Stop the conversion so signals don't 
 724              		.loc 1 214 0
 725 003e FFF7FEFF 		bl	ADC_DelSig_1_StopConvert
 215:.\campbell.c  ****                                         // get mixed when switching the mux
 216:.\campbell.c  ****                 chan = 1u;
 726              		.loc 1 216 0
 727 0042 4FF00103 		mov	r3, #1
 728 0046 FB73     		strb	r3, [r7, #15]
 217:.\campbell.c  ****                 AMux_1_Select(chan);
 729              		.loc 1 217 0
 730 0048 FB7B     		ldrb	r3, [r7, #15]	@ zero_extendqisi2
 731 004a 1846     		mov	r0, r3
 732 004c FFF7FEFF 		bl	AMux_1_FastSelect
 218:.\campbell.c  ****                 res1 = ADC_DelSig_1_GetResult16();
 733              		.loc 1 218 0
 734 0050 FFF7FEFF 		bl	ADC_DelSig_1_GetResult16
 735 0054 0346     		mov	r3, r0
 736 0056 9BB2     		uxth	r3, r3
 737 0058 9AB2     		uxth	r2, r3
 738 005a 40F20003 		movw	r3, #:lower16:res1
 739 005e C0F20003 		movt	r3, #:upper16:res1
 740 0062 1A80     		strh	r2, [r3, #0]	@ movhi
 219:.\campbell.c  ****     			dvpp = ADC_DelSig_1_CountsTo_Volts(res1) ;
 741              		.loc 1 219 0
 742 0064 40F20003 		movw	r3, #:lower16:res1
 743 0068 C0F20003 		movt	r3, #:upper16:res1
 744 006c 1B88     		ldrh	r3, [r3, #0]
 745 006e 1846     		mov	r0, r3
 746 0070 FFF7FEFF 		bl	ADC_DelSig_1_CountsTo_Volts
ARM GAS  C:\Users\karunmj\AppData\Local\Temp\ccFv03GS.s 			page 18


 747 0074 0246     		mov	r2, r0
 748 0076 40F20003 		movw	r3, #:lower16:dvpp
 749 007a C0F20003 		movt	r3, #:upper16:dvpp
 750 007e 1A60     		str	r2, [r3, #0]	@ float
 220:.\campbell.c  **** 
 221:.\campbell.c  ****                 CyDelay(1u);
 751              		.loc 1 221 0
 752 0080 4FF00100 		mov	r0, #1
 753 0084 FFF7FEFF 		bl	CyDelay
 222:.\campbell.c  ****                 ADC_DelSig_1_StartConvert();  
 754              		.loc 1 222 0
 755 0088 FFF7FEFF 		bl	ADC_DelSig_1_StartConvert
 223:.\campbell.c  ****                 CyDelay(49u);
 756              		.loc 1 223 0
 757 008c 4FF03100 		mov	r0, #49
 758 0090 FFF7FEFF 		bl	CyDelay
 759 0094 37E0     		b	.L38
 760              	.L39:
 224:.\campbell.c  ****             }
 225:.\campbell.c  ****             else {            
 226:.\campbell.c  ****                 ADC_DelSig_1_StopConvert(); // Stop the conversion so signals don't 
 761              		.loc 1 226 0
 762 0096 FFF7FEFF 		bl	ADC_DelSig_1_StopConvert
 227:.\campbell.c  ****                                         // get mixed when switching the mux
 228:.\campbell.c  ****                 AMux_1_DisconnectAll();
 763              		.loc 1 228 0
 764 009a FFF7FEFF 		bl	AMux_1_DisconnectAll
 229:.\campbell.c  ****                 
 230:.\campbell.c  ****                 res2 = ADC_DelSig_1_GetResult16();
 765              		.loc 1 230 0
 766 009e FFF7FEFF 		bl	ADC_DelSig_1_GetResult16
 767 00a2 0346     		mov	r3, r0
 768 00a4 9BB2     		uxth	r3, r3
 769 00a6 9AB2     		uxth	r2, r3
 770 00a8 40F20003 		movw	r3, #:lower16:res2
 771 00ac C0F20003 		movt	r3, #:upper16:res2
 772 00b0 1A80     		strh	r2, [r3, #0]	@ movhi
 231:.\campbell.c  ****         		vpp1 = (ADC_DelSig_1_CountsTo_Volts(res2)/2);
 773              		.loc 1 231 0
 774 00b2 40F20003 		movw	r3, #:lower16:res2
 775 00b6 C0F20003 		movt	r3, #:upper16:res2
 776 00ba 1B88     		ldrh	r3, [r3, #0]
 777 00bc 1846     		mov	r0, r3
 778 00be FFF7FEFF 		bl	ADC_DelSig_1_CountsTo_Volts
 779 00c2 0346     		mov	r3, r0
 780 00c4 1846     		mov	r0, r3
 781 00c6 6A49     		ldr	r1, .L59+16	@ float
 782 00c8 FFF7FEFF 		bl	__aeabi_fdiv
 783 00cc 0346     		mov	r3, r0
 784 00ce 1A46     		mov	r2, r3
 785 00d0 40F20003 		movw	r3, #:lower16:vpp1
 786 00d4 C0F20003 		movt	r3, #:upper16:vpp1
 787 00d8 1A60     		str	r2, [r3, #0]	@ float
 232:.\campbell.c  ****                 vpp2 = vpp1 - dvpp;
 788              		.loc 1 232 0
 789 00da 40F20003 		movw	r3, #:lower16:vpp1
 790 00de C0F20003 		movt	r3, #:upper16:vpp1
ARM GAS  C:\Users\karunmj\AppData\Local\Temp\ccFv03GS.s 			page 19


 791 00e2 1A68     		ldr	r2, [r3, #0]	@ float
 792 00e4 40F20003 		movw	r3, #:lower16:dvpp
 793 00e8 C0F20003 		movt	r3, #:upper16:dvpp
 794 00ec 1B68     		ldr	r3, [r3, #0]	@ float
 795 00ee 1046     		mov	r0, r2
 796 00f0 1946     		mov	r1, r3
 797 00f2 FFF7FEFF 		bl	__aeabi_fsub
 798 00f6 0346     		mov	r3, r0
 799 00f8 1A46     		mov	r2, r3
 800 00fa 40F20003 		movw	r3, #:lower16:vpp2
 801 00fe C0F20003 		movt	r3, #:upper16:vpp2
 802 0102 1A60     		str	r2, [r3, #0]	@ float
 233:.\campbell.c  ****                 
 234:.\campbell.c  ****                 break;
 803              		.loc 1 234 0
 804 0104 0AE0     		b	.L40
 805              	.L38:
 235:.\campbell.c  ****             }                                                       
 236:.\campbell.c  ****         }
 237:.\campbell.c  ****         CyDelay(1u); 
 806              		.loc 1 237 0
 807 0106 4FF00100 		mov	r0, #1
 808 010a FFF7FEFF 		bl	CyDelay
 809              		.loc 1 207 0
 810 010e BB7B     		ldrb	r3, [r7, #14]
 811 0110 03F10103 		add	r3, r3, #1
 812 0114 BB73     		strb	r3, [r7, #14]
 813              	.L37:
 814 0116 BB7B     		ldrb	r3, [r7, #14]	@ zero_extendqisi2
 815 0118 632B     		cmp	r3, #99
 816 011a 86D9     		bls	.L41
 817              	.L40:
 238:.\campbell.c  ****     }
 239:.\campbell.c  ****     
 240:.\campbell.c  ****     
 241:.\campbell.c  ****     //*Rs_half = 2*(vpp2-(vpp1)/2)/(vpp1);    // BR_HALF: Voltage divider between Cond LO and GND
 242:.\campbell.c  ****     //*Rs_full = 2*(vpp2-(vpp1)/2)/(vpp1);    // BR_FULL: Reversed Differential measurement bewteen
 243:.\campbell.c  ****     
 244:.\campbell.c  ****     //*Rs_half = vpp2/vpp1;    // BR_HALF: Voltage divider between Cond LO and GND
 245:.\campbell.c  ****     *Rs = vpp2/vpp1;    // BR_FULL: Reversed Differential measurement bewteen Cond HI and cond LO
 818              		.loc 1 245 0
 819 011c 40F20003 		movw	r3, #:lower16:vpp2
 820 0120 C0F20003 		movt	r3, #:upper16:vpp2
 821 0124 1A68     		ldr	r2, [r3, #0]	@ float
 822 0126 40F20003 		movw	r3, #:lower16:vpp1
 823 012a C0F20003 		movt	r3, #:upper16:vpp1
 824 012e 1B68     		ldr	r3, [r3, #0]	@ float
 825 0130 1046     		mov	r0, r2
 826 0132 1946     		mov	r1, r3
 827 0134 FFF7FEFF 		bl	__aeabi_fdiv
 828 0138 0346     		mov	r3, r0
 829 013a 1A46     		mov	r2, r3
 830 013c 7B68     		ldr	r3, [r7, #4]
 831 013e 1A60     		str	r2, [r3, #0]	@ float
 246:.\campbell.c  ****     
 247:.\campbell.c  ****     // ADC range is configured as min(v1) +/- 6.114
 248:.\campbell.c  ****     // Readings are expected to be between min(v1) to +6.114
ARM GAS  C:\Users\karunmj\AppData\Local\Temp\ccFv03GS.s 			page 20


 249:.\campbell.c  ****     // and misreading min(v1) as max(v1) results in overflow (eg values like 7.8 and 11)
 250:.\campbell.c  ****     if (vpp1 > 6.114 || vpp2 > 6.114) {                                            
 832              		.loc 1 250 0
 833 0140 40F20003 		movw	r3, #:lower16:vpp1
 834 0144 C0F20003 		movt	r3, #:upper16:vpp1
 835 0148 1B68     		ldr	r3, [r3, #0]	@ float
 836 014a 1846     		mov	r0, r3
 837 014c FFF7FEFF 		bl	__aeabi_f2d
 838 0150 0246     		mov	r2, r0
 839 0152 0B46     		mov	r3, r1
 840 0154 4FF00001 		mov	r1, #0
 841 0158 0C46     		mov	r4, r1
 842 015a 1046     		mov	r0, r2
 843 015c 1946     		mov	r1, r3
 844 015e 40A3     		adr	r3, .L59
 845 0160 D3E90023 		ldrd	r2, [r3]
 846 0164 FFF7FEFF 		bl	__aeabi_dcmpgt
 847 0168 0346     		mov	r3, r0
 848 016a 002B     		cmp	r3, #0
 849 016c 02D0     		beq	.L42
 850              	.L43:
 851 016e 4FF00103 		mov	r3, #1
 852 0172 1C46     		mov	r4, r3
 853              	.L42:
 854 0174 E3B2     		uxtb	r3, r4
 855 0176 002B     		cmp	r3, #0
 856 0178 1CD1     		bne	.L44
 857 017a 40F20003 		movw	r3, #:lower16:vpp2
 858 017e C0F20003 		movt	r3, #:upper16:vpp2
 859 0182 1B68     		ldr	r3, [r3, #0]	@ float
 860 0184 1846     		mov	r0, r3
 861 0186 FFF7FEFF 		bl	__aeabi_f2d
 862 018a 0246     		mov	r2, r0
 863 018c 0B46     		mov	r3, r1
 864 018e 4FF00001 		mov	r1, #0
 865 0192 0C46     		mov	r4, r1
 866 0194 1046     		mov	r0, r2
 867 0196 1946     		mov	r1, r3
 868 0198 31A3     		adr	r3, .L59
 869 019a D3E90023 		ldrd	r2, [r3]
 870 019e FFF7FEFF 		bl	__aeabi_dcmpgt
 871 01a2 0346     		mov	r3, r0
 872 01a4 002B     		cmp	r3, #0
 873 01a6 02D0     		beq	.L45
 874              	.L46:
 875 01a8 4FF00103 		mov	r3, #1
 876 01ac 1C46     		mov	r4, r3
 877              	.L45:
 878 01ae E3B2     		uxtb	r3, r4
 879 01b0 002B     		cmp	r3, #0
 880 01b2 02D0     		beq	.L47
 881              	.L44:
 251:.\campbell.c  ****         return 0u;
 882              		.loc 1 251 0
 883 01b4 4FF00003 		mov	r3, #0
 884 01b8 4BE0     		b	.L48
 885              	.L47:
ARM GAS  C:\Users\karunmj\AppData\Local\Temp\ccFv03GS.s 			page 21


 252:.\campbell.c  ****     // Range of excitation signal is 2-2.5 VAC        
 253:.\campbell.c  ****     } else if (vpp1 > 2.6) {
 886              		.loc 1 253 0
 887 01ba 40F20003 		movw	r3, #:lower16:vpp1
 888 01be C0F20003 		movt	r3, #:upper16:vpp1
 889 01c2 1B68     		ldr	r3, [r3, #0]	@ float
 890 01c4 1846     		mov	r0, r3
 891 01c6 FFF7FEFF 		bl	__aeabi_f2d
 892 01ca 0246     		mov	r2, r0
 893 01cc 0B46     		mov	r3, r1
 894 01ce 4FF00001 		mov	r1, #0
 895 01d2 0C46     		mov	r4, r1
 896 01d4 1046     		mov	r0, r2
 897 01d6 1946     		mov	r1, r3
 898 01d8 23A3     		adr	r3, .L59+8
 899 01da D3E90023 		ldrd	r2, [r3]
 900 01de FFF7FEFF 		bl	__aeabi_dcmpgt
 901 01e2 0346     		mov	r3, r0
 902 01e4 002B     		cmp	r3, #0
 903 01e6 02D0     		beq	.L49
 904              	.L50:
 905 01e8 4FF00103 		mov	r3, #1
 906 01ec 1C46     		mov	r4, r3
 907              	.L49:
 908 01ee E3B2     		uxtb	r3, r4
 909 01f0 002B     		cmp	r3, #0
 910 01f2 02D0     		beq	.L51
 254:.\campbell.c  ****         return 0u;
 911              		.loc 1 254 0
 912 01f4 4FF00003 		mov	r3, #0
 913 01f8 2BE0     		b	.L48
 914              	.L51:
 255:.\campbell.c  ****     // vpp2 should always be less than vpp1        
 256:.\campbell.c  ****     } else if (*Rs > 1) {
 915              		.loc 1 256 0
 916 01fa 7B68     		ldr	r3, [r7, #4]
 917 01fc 1B68     		ldr	r3, [r3, #0]	@ float
 918 01fe 4FF00002 		mov	r2, #0
 919 0202 1446     		mov	r4, r2
 920 0204 1846     		mov	r0, r3
 921 0206 1B49     		ldr	r1, .L59+20	@ float
 922 0208 FFF7FEFF 		bl	__aeabi_fcmpgt
 923 020c 0346     		mov	r3, r0
 924 020e 002B     		cmp	r3, #0
 925 0210 02D0     		beq	.L52
 926              	.L53:
 927 0212 4FF00103 		mov	r3, #1
 928 0216 1C46     		mov	r4, r3
 929              	.L52:
 930 0218 E3B2     		uxtb	r3, r4
 931 021a 002B     		cmp	r3, #0
 932 021c 02D0     		beq	.L54
 257:.\campbell.c  ****         return 0u;        
 933              		.loc 1 257 0
 934 021e 4FF00003 		mov	r3, #0
 935 0222 16E0     		b	.L48
 936              	.L54:
ARM GAS  C:\Users\karunmj\AppData\Local\Temp\ccFv03GS.s 			page 22


 258:.\campbell.c  ****     } else if (*Rs < 0) {
 937              		.loc 1 258 0
 938 0224 7B68     		ldr	r3, [r7, #4]
 939 0226 1B68     		ldr	r3, [r3, #0]	@ float
 940 0228 4FF00002 		mov	r2, #0
 941 022c 1446     		mov	r4, r2
 942 022e 1846     		mov	r0, r3
 943 0230 1149     		ldr	r1, .L59+24	@ float
 944 0232 FFF7FEFF 		bl	__aeabi_fcmplt
 945 0236 0346     		mov	r3, r0
 946 0238 002B     		cmp	r3, #0
 947 023a 02D0     		beq	.L55
 948              	.L56:
 949 023c 4FF00103 		mov	r3, #1
 950 0240 1C46     		mov	r4, r3
 951              	.L55:
 952 0242 E3B2     		uxtb	r3, r4
 953 0244 002B     		cmp	r3, #0
 954 0246 02D0     		beq	.L57
 259:.\campbell.c  ****         return 0u;
 955              		.loc 1 259 0
 956 0248 4FF00003 		mov	r3, #0
 957 024c 01E0     		b	.L48
 958              	.L57:
 260:.\campbell.c  ****     } else {
 261:.\campbell.c  ****         return 1u;
 959              		.loc 1 261 0
 960 024e 4FF00103 		mov	r3, #1
 961              	.L48:
 262:.\campbell.c  ****     }
 263:.\campbell.c  **** }
 962              		.loc 1 263 0
 963 0252 1846     		mov	r0, r3
 964 0254 07F11407 		add	r7, r7, #20
 965 0258 BD46     		mov	sp, r7
 966 025a 90BD     		pop	{r4, r7, pc}
 967              	.L60:
 968 025c AFF30080 		.align	3
 969              	.L59:
 970 0260 DBF97E6A 		.word	1786706395
 971 0264 BC741840 		.word	1075344572
 972 0268 CDCCCCCC 		.word	-858993459
 973 026c CCCC0440 		.word	1074056396
 974 0270 00000040 		.word	1073741824
 975 0274 0000803F 		.word	1065353216
 976 0278 00000000 		.word	0
 977              		.cfi_endproc
 978              	.LFE36:
 979              		.size	campbell_cond_br_read, .-campbell_cond_br_read
 980              		.global	__aeabi_dmul
 981              		.global	__aeabi_dadd
 982              		.global	__aeabi_d2f
 983 027c AFF30080 		.section	.text.campbell_get_Celsius,"ax",%progbits
 984              		.align	2
 985              		.global	campbell_get_Celsius
 986              		.thumb
 987              		.thumb_func
ARM GAS  C:\Users\karunmj\AppData\Local\Temp\ccFv03GS.s 			page 23


 988              		.type	campbell_get_Celsius, %function
 989              	campbell_get_Celsius:
 990              	.LFB37:
 264:.\campbell.c  **** 
 265:.\campbell.c  **** uint8 campbell_get_Celsius(float* T) {
 991              		.loc 1 265 0
 992              		.cfi_startproc
 993              		@ args = 0, pretend = 0, frame = 24
 994              		@ frame_needed = 1, uses_anonymous_args = 0
 995 0000 2DE9B043 		push	{r4, r5, r7, r8, r9, lr}
 996              	.LCFI18:
 997              		.cfi_def_cfa_offset 24
 998 0004 86B0     		sub	sp, sp, #24
 999              	.LCFI19:
 1000              		.cfi_def_cfa_offset 48
 1001 0006 00AF     		add	r7, sp, #0
 1002              		.cfi_offset 14, -4
 1003              		.cfi_offset 9, -8
 1004              		.cfi_offset 8, -12
 1005              		.cfi_offset 7, -16
 1006              		.cfi_offset 5, -20
 1007              		.cfi_offset 4, -24
 1008              	.LCFI20:
 1009              		.cfi_def_cfa_register 7
 1010 0008 7860     		str	r0, [r7, #4]
 266:.\campbell.c  ****     uint8 i;
 267:.\campbell.c  ****     float VsVx, temp;
 268:.\campbell.c  ****     
 269:.\campbell.c  ****     for(i = 0u; i < Timeout; i++)
 1011              		.loc 1 269 0
 1012 000a 4FF00003 		mov	r3, #0
 1013 000e FB74     		strb	r3, [r7, #19]
 1014 0010 D3E0     		b	.L62
 1015              	.L65:
 270:.\campbell.c  ****     {
 271:.\campbell.c  ****         if (campbell_temp_br_read(&VsVx)) {
 1016              		.loc 1 271 0
 1017 0012 07F10C03 		add	r3, r7, #12
 1018 0016 1846     		mov	r0, r3
 1019 0018 FFF7FEFF 		bl	campbell_temp_br_read
 1020 001c 0346     		mov	r3, r0
 1021 001e 002B     		cmp	r3, #0
 1022 0020 00F0C780 		beq	.L63
 272:.\campbell.c  ****             temp = C0 + C1*VsVx + C2*pow(VsVx,2) + C3*pow(VsVx,3) + C4*pow(VsVx,4) + C5*pow(VsVx,5)
 1023              		.loc 1 272 0
 1024 0024 40F20003 		movw	r3, #:lower16:C1
 1025 0028 C0F20003 		movt	r3, #:upper16:C1
 1026 002c 1A68     		ldr	r2, [r3, #0]	@ float
 1027 002e FB68     		ldr	r3, [r7, #12]	@ float
 1028 0030 1046     		mov	r0, r2
 1029 0032 1946     		mov	r1, r3
 1030 0034 FFF7FEFF 		bl	__aeabi_fmul
 1031 0038 0346     		mov	r3, r0
 1032 003a 1A46     		mov	r2, r3
 1033 003c 40F20003 		movw	r3, #:lower16:C0
 1034 0040 C0F20003 		movt	r3, #:upper16:C0
 1035 0044 1B68     		ldr	r3, [r3, #0]	@ float
ARM GAS  C:\Users\karunmj\AppData\Local\Temp\ccFv03GS.s 			page 24


 1036 0046 1046     		mov	r0, r2
 1037 0048 1946     		mov	r1, r3
 1038 004a FFF7FEFF 		bl	__aeabi_fadd
 1039 004e 0346     		mov	r3, r0
 1040 0050 1846     		mov	r0, r3
 1041 0052 FFF7FEFF 		bl	__aeabi_f2d
 1042 0056 0446     		mov	r4, r0
 1043 0058 0D46     		mov	r5, r1
 1044 005a 40F20003 		movw	r3, #:lower16:C2
 1045 005e C0F20003 		movt	r3, #:upper16:C2
 1046 0062 1B68     		ldr	r3, [r3, #0]	@ float
 1047 0064 1846     		mov	r0, r3
 1048 0066 FFF7FEFF 		bl	__aeabi_f2d
 1049 006a 8046     		mov	r8, r0
 1050 006c 8946     		mov	r9, r1
 1051 006e FB68     		ldr	r3, [r7, #12]	@ float
 1052 0070 1846     		mov	r0, r3
 1053 0072 FFF7FEFF 		bl	__aeabi_f2d
 1054 0076 0246     		mov	r2, r0
 1055 0078 0B46     		mov	r3, r1
 1056 007a 1046     		mov	r0, r2
 1057 007c 1946     		mov	r1, r3
 1058 007e FFF7FEFF 		bl	__aeabi_dmul
 1059 0082 0246     		mov	r2, r0
 1060 0084 0B46     		mov	r3, r1
 1061 0086 4046     		mov	r0, r8
 1062 0088 4946     		mov	r1, r9
 1063 008a FFF7FEFF 		bl	__aeabi_dmul
 1064 008e 0246     		mov	r2, r0
 1065 0090 0B46     		mov	r3, r1
 1066 0092 2046     		mov	r0, r4
 1067 0094 2946     		mov	r1, r5
 1068 0096 FFF7FEFF 		bl	__aeabi_dadd
 1069 009a 0246     		mov	r2, r0
 1070 009c 0B46     		mov	r3, r1
 1071 009e 1446     		mov	r4, r2
 1072 00a0 1D46     		mov	r5, r3
 1073 00a2 40F20003 		movw	r3, #:lower16:C3
 1074 00a6 C0F20003 		movt	r3, #:upper16:C3
 1075 00aa 1B68     		ldr	r3, [r3, #0]	@ float
 1076 00ac 1846     		mov	r0, r3
 1077 00ae FFF7FEFF 		bl	__aeabi_f2d
 1078 00b2 8046     		mov	r8, r0
 1079 00b4 8946     		mov	r9, r1
 1080 00b6 FB68     		ldr	r3, [r7, #12]	@ float
 1081 00b8 1846     		mov	r0, r3
 1082 00ba FFF7FEFF 		bl	__aeabi_f2d
 1083 00be 0246     		mov	r2, r0
 1084 00c0 0B46     		mov	r3, r1
 1085 00c2 1046     		mov	r0, r2
 1086 00c4 1946     		mov	r1, r3
 1087 00c6 4FF00002 		mov	r2, #0
 1088 00ca 4FF08043 		mov	r3, #1073741824
 1089 00ce 03F50023 		add	r3, r3, #524288
 1090 00d2 FFF7FEFF 		bl	pow
 1091 00d6 0246     		mov	r2, r0
 1092 00d8 0B46     		mov	r3, r1
ARM GAS  C:\Users\karunmj\AppData\Local\Temp\ccFv03GS.s 			page 25


 1093 00da 4046     		mov	r0, r8
 1094 00dc 4946     		mov	r1, r9
 1095 00de FFF7FEFF 		bl	__aeabi_dmul
 1096 00e2 0246     		mov	r2, r0
 1097 00e4 0B46     		mov	r3, r1
 1098 00e6 2046     		mov	r0, r4
 1099 00e8 2946     		mov	r1, r5
 1100 00ea FFF7FEFF 		bl	__aeabi_dadd
 1101 00ee 0246     		mov	r2, r0
 1102 00f0 0B46     		mov	r3, r1
 1103 00f2 1446     		mov	r4, r2
 1104 00f4 1D46     		mov	r5, r3
 1105 00f6 40F20003 		movw	r3, #:lower16:C4
 1106 00fa C0F20003 		movt	r3, #:upper16:C4
 1107 00fe 1B68     		ldr	r3, [r3, #0]	@ float
 1108 0100 1846     		mov	r0, r3
 1109 0102 FFF7FEFF 		bl	__aeabi_f2d
 1110 0106 8046     		mov	r8, r0
 1111 0108 8946     		mov	r9, r1
 1112 010a FB68     		ldr	r3, [r7, #12]	@ float
 1113 010c 1846     		mov	r0, r3
 1114 010e FFF7FEFF 		bl	__aeabi_f2d
 1115 0112 0246     		mov	r2, r0
 1116 0114 0B46     		mov	r3, r1
 1117 0116 1046     		mov	r0, r2
 1118 0118 1946     		mov	r1, r3
 1119 011a 4FF00002 		mov	r2, #0
 1120 011e 4FF08043 		mov	r3, #1073741824
 1121 0122 03F58013 		add	r3, r3, #1048576
 1122 0126 FFF7FEFF 		bl	pow
 1123 012a 0246     		mov	r2, r0
 1124 012c 0B46     		mov	r3, r1
 1125 012e 4046     		mov	r0, r8
 1126 0130 4946     		mov	r1, r9
 1127 0132 FFF7FEFF 		bl	__aeabi_dmul
 1128 0136 0246     		mov	r2, r0
 1129 0138 0B46     		mov	r3, r1
 1130 013a 2046     		mov	r0, r4
 1131 013c 2946     		mov	r1, r5
 1132 013e FFF7FEFF 		bl	__aeabi_dadd
 1133 0142 0246     		mov	r2, r0
 1134 0144 0B46     		mov	r3, r1
 1135 0146 1446     		mov	r4, r2
 1136 0148 1D46     		mov	r5, r3
 1137 014a 40F20003 		movw	r3, #:lower16:C5
 1138 014e C0F20003 		movt	r3, #:upper16:C5
 1139 0152 1B68     		ldr	r3, [r3, #0]	@ float
 1140 0154 1846     		mov	r0, r3
 1141 0156 FFF7FEFF 		bl	__aeabi_f2d
 1142 015a 8046     		mov	r8, r0
 1143 015c 8946     		mov	r9, r1
 1144 015e FB68     		ldr	r3, [r7, #12]	@ float
 1145 0160 1846     		mov	r0, r3
 1146 0162 FFF7FEFF 		bl	__aeabi_f2d
 1147 0166 0246     		mov	r2, r0
 1148 0168 0B46     		mov	r3, r1
 1149 016a 1046     		mov	r0, r2
ARM GAS  C:\Users\karunmj\AppData\Local\Temp\ccFv03GS.s 			page 26


 1150 016c 1946     		mov	r1, r3
 1151 016e 4FF00002 		mov	r2, #0
 1152 0172 4FF08043 		mov	r3, #1073741824
 1153 0176 03F5A013 		add	r3, r3, #1310720
 1154 017a FFF7FEFF 		bl	pow
 1155 017e 0246     		mov	r2, r0
 1156 0180 0B46     		mov	r3, r1
 1157 0182 4046     		mov	r0, r8
 1158 0184 4946     		mov	r1, r9
 1159 0186 FFF7FEFF 		bl	__aeabi_dmul
 1160 018a 0246     		mov	r2, r0
 1161 018c 0B46     		mov	r3, r1
 1162 018e 2046     		mov	r0, r4
 1163 0190 2946     		mov	r1, r5
 1164 0192 FFF7FEFF 		bl	__aeabi_dadd
 1165 0196 0246     		mov	r2, r0
 1166 0198 0B46     		mov	r3, r1
 1167 019a 1046     		mov	r0, r2
 1168 019c 1946     		mov	r1, r3
 1169 019e FFF7FEFF 		bl	__aeabi_d2f
 1170 01a2 0346     		mov	r3, r0
 1171 01a4 7B61     		str	r3, [r7, #20]	@ float
 273:.\campbell.c  ****             *T = temp; //*T = TempCoef*temp;
 1172              		.loc 1 273 0
 1173 01a6 7B68     		ldr	r3, [r7, #4]
 1174 01a8 7A69     		ldr	r2, [r7, #20]	@ float
 1175 01aa 1A60     		str	r2, [r3, #0]	@ float
 274:.\campbell.c  ****             return 1u;
 1176              		.loc 1 274 0
 1177 01ac 4FF00103 		mov	r3, #1
 1178 01b0 0EE0     		b	.L64
 1179              	.L63:
 1180              		.loc 1 269 0
 1181 01b2 FB7C     		ldrb	r3, [r7, #19]
 1182 01b4 03F10103 		add	r3, r3, #1
 1183 01b8 FB74     		strb	r3, [r7, #19]
 1184              	.L62:
 1185 01ba 40F20003 		movw	r3, #:lower16:Timeout
 1186 01be C0F20003 		movt	r3, #:upper16:Timeout
 1187 01c2 1B78     		ldrb	r3, [r3, #0]	@ zero_extendqisi2
 1188 01c4 FA7C     		ldrb	r2, [r7, #19]	@ zero_extendqisi2
 1189 01c6 9A42     		cmp	r2, r3
 1190 01c8 FFF423AF 		bcc	.L65
 275:.\campbell.c  ****         }
 276:.\campbell.c  ****     }
 277:.\campbell.c  ****     
 278:.\campbell.c  ****     return 0u;
 1191              		.loc 1 278 0
 1192 01cc 4FF00003 		mov	r3, #0
 1193              	.L64:
 279:.\campbell.c  **** }
 1194              		.loc 1 279 0
 1195 01d0 1846     		mov	r0, r3
 1196 01d2 07F11807 		add	r7, r7, #24
 1197 01d6 BD46     		mov	sp, r7
 1198 01d8 BDE8B083 		pop	{r4, r5, r7, r8, r9, pc}
 1199              		.cfi_endproc
ARM GAS  C:\Users\karunmj\AppData\Local\Temp\ccFv03GS.s 			page 27


 1200              	.LFE37:
 1201              		.size	campbell_get_Celsius, .-campbell_get_Celsius
 1202              		.global	__aeabi_dcmplt
 1203              		.global	__aeabi_dsub
 1204              		.global	__aeabi_fcmpge
 1205              		.section	.text.campbell_get_mSiemens,"ax",%progbits
 1206              		.align	2
 1207              		.global	campbell_get_mSiemens
 1208              		.thumb
 1209              		.thumb_func
 1210              		.type	campbell_get_mSiemens, %function
 1211              	campbell_get_mSiemens:
 1212              	.LFB38:
 280:.\campbell.c  **** 
 281:.\campbell.c  **** uint8 campbell_get_mSiemens(float* S){
 1213              		.loc 1 281 0
 1214              		.cfi_startproc
 1215              		@ args = 0, pretend = 0, frame = 32
 1216              		@ frame_needed = 1, uses_anonymous_args = 0
 1217 0000 2DE9B043 		push	{r4, r5, r7, r8, r9, lr}
 1218              	.LCFI21:
 1219              		.cfi_def_cfa_offset 24
 1220 0004 88B0     		sub	sp, sp, #32
 1221              	.LCFI22:
 1222              		.cfi_def_cfa_offset 56
 1223 0006 00AF     		add	r7, sp, #0
 1224              		.cfi_offset 14, -4
 1225              		.cfi_offset 9, -8
 1226              		.cfi_offset 8, -12
 1227              		.cfi_offset 7, -16
 1228              		.cfi_offset 5, -20
 1229              		.cfi_offset 4, -24
 1230              	.LCFI23:
 1231              		.cfi_def_cfa_register 7
 1232 0008 7860     		str	r0, [r7, #4]
 282:.\campbell.c  **** /*
 283:.\campbell.c  **** Returns the capacitance according to the formulation
 284:.\campbell.c  **** found in the Campbell Scientific manual for A547 (p6):
 285:.\campbell.c  **** http://s.campbellsci.com/documents/us/manuals/cs547a.pdf
 286:.\campbell.c  **** 
 287:.\campbell.c  **** Note: C currently does not take R_cable, R_capacitors 
 288:.\campbell.c  **** into account
 289:.\campbell.c  **** */
 290:.\campbell.c  ****     uint8 i;
 291:.\campbell.c  ****     float Rs, Rp, T, Ct, Ct_min = -1.0;
 1233              		.loc 1 291 0
 1234 000a D34B     		ldr	r3, .L95+64	@ float
 1235 000c FB61     		str	r3, [r7, #28]	@ float
 292:.\campbell.c  ****     
 293:.\campbell.c  ****     campbell_cond_start();
 1236              		.loc 1 293 0
 1237 000e FFF7FEFF 		bl	campbell_cond_start
 294:.\campbell.c  ****     CyDelay(100u);
 1238              		.loc 1 294 0
 1239 0012 4FF06400 		mov	r0, #100
 1240 0016 FFF7FEFF 		bl	CyDelay
 295:.\campbell.c  ****     
ARM GAS  C:\Users\karunmj\AppData\Local\Temp\ccFv03GS.s 			page 28


 296:.\campbell.c  ****     for(i = 0u; i < Timeout; i++)
 1241              		.loc 1 296 0
 1242 001a 4FF00003 		mov	r3, #0
 1243 001e FB74     		strb	r3, [r7, #19]
 1244 0020 25E1     		b	.L68
 1245              	.L86:
 297:.\campbell.c  ****     {   
 298:.\campbell.c  ****         if (campbell_cond_br_read(&Rs)) {
 1246              		.loc 1 298 0
 1247 0022 07F10C03 		add	r3, r7, #12
 1248 0026 1846     		mov	r0, r3
 1249 0028 FFF7FEFF 		bl	campbell_cond_br_read
 1250 002c 0346     		mov	r3, r0
 1251 002e 002B     		cmp	r3, #0
 1252 0030 00F00581 		beq	.L69
 299:.\campbell.c  ****         
 300:.\campbell.c  ****             Rs = (Rs/(1-Rs));
 1253              		.loc 1 300 0
 1254 0034 FC68     		ldr	r4, [r7, #12]	@ float
 1255 0036 FB68     		ldr	r3, [r7, #12]	@ float
 1256 0038 C848     		ldr	r0, .L95+68	@ float
 1257 003a 1946     		mov	r1, r3
 1258 003c FFF7FEFF 		bl	__aeabi_fsub
 1259 0040 0346     		mov	r3, r0
 1260 0042 2046     		mov	r0, r4
 1261 0044 1946     		mov	r1, r3
 1262 0046 FFF7FEFF 		bl	__aeabi_fdiv
 1263 004a 0346     		mov	r3, r0
 1264 004c FB60     		str	r3, [r7, #12]	@ float
 301:.\campbell.c  ****             
 302:.\campbell.c  ****             // Subtract resistance errors (Rp) caused by the blocking capacitors 
 303:.\campbell.c  ****             //(0.005Kohm and the cable length (0.000032Kohm/ft) 
 304:.\campbell.c  ****             Rp = (0.000032 * R_Cable) + 0.005;
 1265              		.loc 1 304 0
 1266 004e 40F20003 		movw	r3, #:lower16:R_Cable
 1267 0052 C0F20003 		movt	r3, #:upper16:R_Cable
 1268 0056 1B68     		ldr	r3, [r3, #0]	@ float
 1269 0058 1846     		mov	r0, r3
 1270 005a FFF7FEFF 		bl	__aeabi_f2d
 1271 005e 0246     		mov	r2, r0
 1272 0060 0B46     		mov	r3, r1
 1273 0062 1046     		mov	r0, r2
 1274 0064 1946     		mov	r1, r3
 1275 0066 ACA3     		adr	r3, .L95
 1276 0068 D3E90023 		ldrd	r2, [r3]
 1277 006c FFF7FEFF 		bl	__aeabi_dmul
 1278 0070 0246     		mov	r2, r0
 1279 0072 0B46     		mov	r3, r1
 1280 0074 1046     		mov	r0, r2
 1281 0076 1946     		mov	r1, r3
 1282 0078 A9A3     		adr	r3, .L95+8
 1283 007a D3E90023 		ldrd	r2, [r3]
 1284 007e FFF7FEFF 		bl	__aeabi_dadd
 1285 0082 0246     		mov	r2, r0
 1286 0084 0B46     		mov	r3, r1
 1287 0086 1046     		mov	r0, r2
 1288 0088 1946     		mov	r1, r3
ARM GAS  C:\Users\karunmj\AppData\Local\Temp\ccFv03GS.s 			page 29


 1289 008a FFF7FEFF 		bl	__aeabi_d2f
 1290 008e 0346     		mov	r3, r0
 1291 0090 7B61     		str	r3, [r7, #20]	@ float
 305:.\campbell.c  ****             
 306:.\campbell.c  ****             if (Rp < Rs) {
 1292              		.loc 1 306 0
 1293 0092 FB68     		ldr	r3, [r7, #12]	@ float
 1294 0094 4FF00002 		mov	r2, #0
 1295 0098 1446     		mov	r4, r2
 1296 009a 7869     		ldr	r0, [r7, #20]	@ float
 1297 009c 1946     		mov	r1, r3
 1298 009e FFF7FEFF 		bl	__aeabi_fcmplt
 1299 00a2 0346     		mov	r3, r0
 1300 00a4 002B     		cmp	r3, #0
 1301 00a6 02D0     		beq	.L70
 1302              	.L71:
 1303 00a8 4FF00103 		mov	r3, #1
 1304 00ac 1C46     		mov	r4, r3
 1305              	.L70:
 1306 00ae E3B2     		uxtb	r3, r4
 1307 00b0 002B     		cmp	r3, #0
 1308 00b2 06D0     		beq	.L72
 307:.\campbell.c  ****                 Rs = Rs - Rp;
 1309              		.loc 1 307 0
 1310 00b4 FB68     		ldr	r3, [r7, #12]	@ float
 1311 00b6 1846     		mov	r0, r3
 1312 00b8 7969     		ldr	r1, [r7, #20]	@ float
 1313 00ba FFF7FEFF 		bl	__aeabi_fsub
 1314 00be 0346     		mov	r3, r0
 1315 00c0 FB60     		str	r3, [r7, #12]	@ float
 1316              	.L72:
 308:.\campbell.c  ****             }    
 309:.\campbell.c  ****             
 310:.\campbell.c  ****             Ct = (1/Rs) * Kc;           // Siemens; C = 1/R
 1317              		.loc 1 310 0
 1318 00c2 FB68     		ldr	r3, [r7, #12]	@ float
 1319 00c4 A548     		ldr	r0, .L95+68	@ float
 1320 00c6 1946     		mov	r1, r3
 1321 00c8 FFF7FEFF 		bl	__aeabi_fdiv
 1322 00cc 0346     		mov	r3, r0
 1323 00ce 1A46     		mov	r2, r3
 1324 00d0 40F20003 		movw	r3, #:lower16:Kc
 1325 00d4 C0F20003 		movt	r3, #:upper16:Kc
 1326 00d8 1B68     		ldr	r3, [r3, #0]	@ float
 1327 00da 1046     		mov	r0, r2
 1328 00dc 1946     		mov	r1, r3
 1329 00de FFF7FEFF 		bl	__aeabi_fmul
 1330 00e2 0346     		mov	r3, r0
 1331 00e4 BB61     		str	r3, [r7, #24]	@ float
 311:.\campbell.c  ****                         
 312:.\campbell.c  ****             if (Ct < 0.474) {
 1332              		.loc 1 312 0
 1333 00e6 B869     		ldr	r0, [r7, #24]	@ float
 1334 00e8 FFF7FEFF 		bl	__aeabi_f2d
 1335 00ec 0246     		mov	r2, r0
 1336 00ee 0B46     		mov	r3, r1
 1337 00f0 4FF00001 		mov	r1, #0
ARM GAS  C:\Users\karunmj\AppData\Local\Temp\ccFv03GS.s 			page 30


 1338 00f4 0C46     		mov	r4, r1
 1339 00f6 1046     		mov	r0, r2
 1340 00f8 1946     		mov	r1, r3
 1341 00fa 8BA3     		adr	r3, .L95+16
 1342 00fc D3E90023 		ldrd	r2, [r3]
 1343 0100 FFF7FEFF 		bl	__aeabi_dcmplt
 1344 0104 0346     		mov	r3, r0
 1345 0106 002B     		cmp	r3, #0
 1346 0108 02D0     		beq	.L73
 1347              	.L74:
 1348 010a 4FF00103 		mov	r3, #1
 1349 010e 1C46     		mov	r4, r3
 1350              	.L73:
 1351 0110 E3B2     		uxtb	r3, r4
 1352 0112 002B     		cmp	r3, #0
 1353 0114 1DD0     		beq	.L75
 313:.\campbell.c  ****                 Ct = (Ct * 0.95031) - 0.00378;
 1354              		.loc 1 313 0
 1355 0116 B869     		ldr	r0, [r7, #24]	@ float
 1356 0118 FFF7FEFF 		bl	__aeabi_f2d
 1357 011c 0246     		mov	r2, r0
 1358 011e 0B46     		mov	r3, r1
 1359 0120 1046     		mov	r0, r2
 1360 0122 1946     		mov	r1, r3
 1361 0124 82A3     		adr	r3, .L95+24
 1362 0126 D3E90023 		ldrd	r2, [r3]
 1363 012a FFF7FEFF 		bl	__aeabi_dmul
 1364 012e 0246     		mov	r2, r0
 1365 0130 0B46     		mov	r3, r1
 1366 0132 1046     		mov	r0, r2
 1367 0134 1946     		mov	r1, r3
 1368 0136 80A3     		adr	r3, .L95+32
 1369 0138 D3E90023 		ldrd	r2, [r3]
 1370 013c FFF7FEFF 		bl	__aeabi_dsub
 1371 0140 0246     		mov	r2, r0
 1372 0142 0B46     		mov	r3, r1
 1373 0144 1046     		mov	r0, r2
 1374 0146 1946     		mov	r1, r3
 1375 0148 FFF7FEFF 		bl	__aeabi_d2f
 1376 014c 0346     		mov	r3, r0
 1377 014e BB61     		str	r3, [r7, #24]	@ float
 1378 0150 3FE0     		b	.L76
 1379              	.L75:
 314:.\campbell.c  ****             }
 315:.\campbell.c  ****             else {
 316:.\campbell.c  ****                 Ct = -0.02889 + 0.98614 * Ct + 0.02846 * Ct*Ct;
 1380              		.loc 1 316 0
 1381 0152 B869     		ldr	r0, [r7, #24]	@ float
 1382 0154 FFF7FEFF 		bl	__aeabi_f2d
 1383 0158 0246     		mov	r2, r0
 1384 015a 0B46     		mov	r3, r1
 1385 015c 1046     		mov	r0, r2
 1386 015e 1946     		mov	r1, r3
 1387 0160 77A3     		adr	r3, .L95+40
 1388 0162 D3E90023 		ldrd	r2, [r3]
 1389 0166 FFF7FEFF 		bl	__aeabi_dmul
 1390 016a 0246     		mov	r2, r0
ARM GAS  C:\Users\karunmj\AppData\Local\Temp\ccFv03GS.s 			page 31


 1391 016c 0B46     		mov	r3, r1
 1392 016e 1046     		mov	r0, r2
 1393 0170 1946     		mov	r1, r3
 1394 0172 75A3     		adr	r3, .L95+48
 1395 0174 D3E90023 		ldrd	r2, [r3]
 1396 0178 FFF7FEFF 		bl	__aeabi_dsub
 1397 017c 0246     		mov	r2, r0
 1398 017e 0B46     		mov	r3, r1
 1399 0180 1446     		mov	r4, r2
 1400 0182 1D46     		mov	r5, r3
 1401 0184 B869     		ldr	r0, [r7, #24]	@ float
 1402 0186 FFF7FEFF 		bl	__aeabi_f2d
 1403 018a 0246     		mov	r2, r0
 1404 018c 0B46     		mov	r3, r1
 1405 018e 1046     		mov	r0, r2
 1406 0190 1946     		mov	r1, r3
 1407 0192 6FA3     		adr	r3, .L95+56
 1408 0194 D3E90023 		ldrd	r2, [r3]
 1409 0198 FFF7FEFF 		bl	__aeabi_dmul
 1410 019c 0246     		mov	r2, r0
 1411 019e 0B46     		mov	r3, r1
 1412 01a0 9046     		mov	r8, r2
 1413 01a2 9946     		mov	r9, r3
 1414 01a4 B869     		ldr	r0, [r7, #24]	@ float
 1415 01a6 FFF7FEFF 		bl	__aeabi_f2d
 1416 01aa 0246     		mov	r2, r0
 1417 01ac 0B46     		mov	r3, r1
 1418 01ae 4046     		mov	r0, r8
 1419 01b0 4946     		mov	r1, r9
 1420 01b2 FFF7FEFF 		bl	__aeabi_dmul
 1421 01b6 0246     		mov	r2, r0
 1422 01b8 0B46     		mov	r3, r1
 1423 01ba 2046     		mov	r0, r4
 1424 01bc 2946     		mov	r1, r5
 1425 01be FFF7FEFF 		bl	__aeabi_dadd
 1426 01c2 0246     		mov	r2, r0
 1427 01c4 0B46     		mov	r3, r1
 1428 01c6 1046     		mov	r0, r2
 1429 01c8 1946     		mov	r1, r3
 1430 01ca FFF7FEFF 		bl	__aeabi_d2f
 1431 01ce 0346     		mov	r3, r0
 1432 01d0 BB61     		str	r3, [r7, #24]	@ float
 1433              	.L76:
 317:.\campbell.c  ****             }                   
 318:.\campbell.c  ****                         
 319:.\campbell.c  ****             // Check if result is a positive value (valid)
 320:.\campbell.c  ****             if (Ct >= 0) {
 1434              		.loc 1 320 0
 1435 01d2 4FF00003 		mov	r3, #0
 1436 01d6 1C46     		mov	r4, r3
 1437 01d8 B869     		ldr	r0, [r7, #24]	@ float
 1438 01da 6149     		ldr	r1, .L95+72	@ float
 1439 01dc FFF7FEFF 		bl	__aeabi_fcmpge
 1440 01e0 0346     		mov	r3, r0
 1441 01e2 002B     		cmp	r3, #0
 1442 01e4 02D0     		beq	.L77
 1443              	.L78:
ARM GAS  C:\Users\karunmj\AppData\Local\Temp\ccFv03GS.s 			page 32


 1444 01e6 4FF00103 		mov	r3, #1
 1445 01ea 1C46     		mov	r4, r3
 1446              	.L77:
 1447 01ec E3B2     		uxtb	r3, r4
 1448 01ee 002B     		cmp	r3, #0
 1449 01f0 32D0     		beq	.L93
 321:.\campbell.c  ****                 // Check if result is the lowest reading (to guard for improper sampling)
 322:.\campbell.c  ****                 if (Ct_min < 0) {  // First time Ct is successfully calculated, Ct_min should be -1
 1450              		.loc 1 322 0
 1451 01f2 4FF00003 		mov	r3, #0
 1452 01f6 1C46     		mov	r4, r3
 1453 01f8 F869     		ldr	r0, [r7, #28]	@ float
 1454 01fa 5949     		ldr	r1, .L95+72	@ float
 1455 01fc FFF7FEFF 		bl	__aeabi_fcmplt
 1456 0200 0346     		mov	r3, r0
 1457 0202 002B     		cmp	r3, #0
 1458 0204 02D0     		beq	.L80
 1459              	.L81:
 1460 0206 4FF00103 		mov	r3, #1
 1461 020a 1C46     		mov	r4, r3
 1462              	.L80:
 1463 020c E3B2     		uxtb	r3, r4
 1464 020e 002B     		cmp	r3, #0
 1465 0210 02D0     		beq	.L82
 323:.\campbell.c  ****                     Ct_min = Ct;
 1466              		.loc 1 323 0
 1467 0212 BB69     		ldr	r3, [r7, #24]	@ float
 1468 0214 FB61     		str	r3, [r7, #28]	@ float
 324:.\campbell.c  ****                 } else if (Ct < Ct_min) {
 325:.\campbell.c  ****                     Ct_min = Ct;
 1469              		.loc 1 325 0
 1470 0216 22E0     		b	.L85
 1471              	.L82:
 1472              		.loc 1 324 0
 1473 0218 4FF00003 		mov	r3, #0
 1474 021c 1C46     		mov	r4, r3
 1475 021e B869     		ldr	r0, [r7, #24]	@ float
 1476 0220 F969     		ldr	r1, [r7, #28]	@ float
 1477 0222 FFF7FEFF 		bl	__aeabi_fcmplt
 1478 0226 0346     		mov	r3, r0
 1479 0228 002B     		cmp	r3, #0
 1480 022a 02D0     		beq	.L83
 1481              	.L84:
 1482 022c 4FF00103 		mov	r3, #1
 1483 0230 1C46     		mov	r4, r3
 1484              	.L83:
 1485 0232 E3B2     		uxtb	r3, r4
 1486 0234 002B     		cmp	r3, #0
 1487 0236 11D0     		beq	.L94
 1488              		.loc 1 325 0
 1489 0238 BB69     		ldr	r3, [r7, #24]	@ float
 1490 023a FB61     		str	r3, [r7, #28]	@ float
 1491 023c 0FE0     		b	.L85
 1492              	.L69:
 326:.\campbell.c  ****                 }
 327:.\campbell.c  ****             }
 328:.\campbell.c  ****         } else {
ARM GAS  C:\Users\karunmj\AppData\Local\Temp\ccFv03GS.s 			page 33


 329:.\campbell.c  ****             // Error reading signal.  Restart PWM, comparators, ADC
 330:.\campbell.c  ****             campbell_cond_stop();
 1493              		.loc 1 330 0
 1494 023e FFF7FEFF 		bl	campbell_cond_stop
 331:.\campbell.c  ****             CyDelay(1u);
 1495              		.loc 1 331 0
 1496 0242 4FF00100 		mov	r0, #1
 1497 0246 FFF7FEFF 		bl	CyDelay
 332:.\campbell.c  ****             campbell_cond_start();
 1498              		.loc 1 332 0
 1499 024a FFF7FEFF 		bl	campbell_cond_start
 333:.\campbell.c  ****             CyDelay(100u);
 1500              		.loc 1 333 0
 1501 024e 4FF06400 		mov	r0, #100
 1502 0252 FFF7FEFF 		bl	CyDelay
 1503 0256 02E0     		b	.L85
 1504              	.L93:
 1505              		.loc 1 325 0
 1506 0258 00BF     		nop
 1507 025a 00E0     		b	.L85
 1508              	.L94:
 1509 025c 00BF     		nop
 1510              	.L85:
 334:.\campbell.c  ****         }
 335:.\campbell.c  ****         
 336:.\campbell.c  ****         
 337:.\campbell.c  ****         CyDelay(1u);  
 1511              		.loc 1 337 0
 1512 025e 4FF00100 		mov	r0, #1
 1513 0262 FFF7FEFF 		bl	CyDelay
 1514              		.loc 1 296 0
 1515 0266 FB7C     		ldrb	r3, [r7, #19]
 1516 0268 03F10103 		add	r3, r3, #1
 1517 026c FB74     		strb	r3, [r7, #19]
 1518              	.L68:
 1519 026e 40F20003 		movw	r3, #:lower16:Timeout
 1520 0272 C0F20003 		movt	r3, #:upper16:Timeout
 1521 0276 1B78     		ldrb	r3, [r3, #0]	@ zero_extendqisi2
 1522 0278 FA7C     		ldrb	r2, [r7, #19]	@ zero_extendqisi2
 1523 027a 9A42     		cmp	r2, r3
 1524 027c FFF4D1AE 		bcc	.L86
 338:.\campbell.c  ****         
 339:.\campbell.c  ****     }
 340:.\campbell.c  ****     campbell_cond_stop();
 1525              		.loc 1 340 0
 1526 0280 FFF7FEFF 		bl	campbell_cond_stop
 341:.\campbell.c  **** 
 342:.\campbell.c  ****     // Normalize to Conductivity at 25 degrees C
 343:.\campbell.c  ****     if (campbell_get_Celsius(&T)) {
 1527              		.loc 1 343 0
 1528 0284 07F10803 		add	r3, r7, #8
 1529 0288 1846     		mov	r0, r3
 1530 028a FFF7FEFF 		bl	campbell_get_Celsius
 1531 028e 0346     		mov	r3, r0
 1532 0290 002B     		cmp	r3, #0
 1533 0292 21D0     		beq	.L87
 344:.\campbell.c  ****         Ct_min = (Ct_min * 100)/(((T-25) * TempCoef) + 100);
ARM GAS  C:\Users\karunmj\AppData\Local\Temp\ccFv03GS.s 			page 34


 1534              		.loc 1 344 0
 1535 0294 F869     		ldr	r0, [r7, #28]	@ float
 1536 0296 3349     		ldr	r1, .L95+76	@ float
 1537 0298 FFF7FEFF 		bl	__aeabi_fmul
 1538 029c 0346     		mov	r3, r0
 1539 029e 1C46     		mov	r4, r3
 1540 02a0 BB68     		ldr	r3, [r7, #8]	@ float
 1541 02a2 1846     		mov	r0, r3
 1542 02a4 3049     		ldr	r1, .L95+80	@ float
 1543 02a6 FFF7FEFF 		bl	__aeabi_fsub
 1544 02aa 0346     		mov	r3, r0
 1545 02ac 1A46     		mov	r2, r3
 1546 02ae 40F20003 		movw	r3, #:lower16:TempCoef
 1547 02b2 C0F20003 		movt	r3, #:upper16:TempCoef
 1548 02b6 1B68     		ldr	r3, [r3, #0]	@ float
 1549 02b8 1046     		mov	r0, r2
 1550 02ba 1946     		mov	r1, r3
 1551 02bc FFF7FEFF 		bl	__aeabi_fmul
 1552 02c0 0346     		mov	r3, r0
 1553 02c2 1846     		mov	r0, r3
 1554 02c4 2749     		ldr	r1, .L95+76	@ float
 1555 02c6 FFF7FEFF 		bl	__aeabi_fadd
 1556 02ca 0346     		mov	r3, r0
 1557 02cc 2046     		mov	r0, r4
 1558 02ce 1946     		mov	r1, r3
 1559 02d0 FFF7FEFF 		bl	__aeabi_fdiv
 1560 02d4 0346     		mov	r3, r0
 1561 02d6 FB61     		str	r3, [r7, #28]	@ float
 1562              	.L87:
 345:.\campbell.c  ****     }    
 346:.\campbell.c  ****     
 347:.\campbell.c  ****     if (Ct_min >= 0) {
 1563              		.loc 1 347 0
 1564 02d8 4FF00003 		mov	r3, #0
 1565 02dc 1C46     		mov	r4, r3
 1566 02de F869     		ldr	r0, [r7, #28]	@ float
 1567 02e0 1F49     		ldr	r1, .L95+72	@ float
 1568 02e2 FFF7FEFF 		bl	__aeabi_fcmpge
 1569 02e6 0346     		mov	r3, r0
 1570 02e8 002B     		cmp	r3, #0
 1571 02ea 02D0     		beq	.L88
 1572              	.L89:
 1573 02ec 4FF00103 		mov	r3, #1
 1574 02f0 1C46     		mov	r4, r3
 1575              	.L88:
 1576 02f2 E3B2     		uxtb	r3, r4
 1577 02f4 002B     		cmp	r3, #0
 1578 02f6 05D0     		beq	.L90
 348:.\campbell.c  ****         *S = Ct_min;
 1579              		.loc 1 348 0
 1580 02f8 7B68     		ldr	r3, [r7, #4]
 1581 02fa FA69     		ldr	r2, [r7, #28]	@ float
 1582 02fc 1A60     		str	r2, [r3, #0]	@ float
 349:.\campbell.c  ****         return 1u;
 1583              		.loc 1 349 0
 1584 02fe 4FF00103 		mov	r3, #1
 1585 0302 01E0     		b	.L91
ARM GAS  C:\Users\karunmj\AppData\Local\Temp\ccFv03GS.s 			page 35


 1586              	.L90:
 350:.\campbell.c  ****     } else {
 351:.\campbell.c  ****         return 0u;
 1587              		.loc 1 351 0
 1588 0304 4FF00003 		mov	r3, #0
 1589              	.L91:
 352:.\campbell.c  ****     }
 353:.\campbell.c  **** }
 1590              		.loc 1 353 0
 1591 0308 1846     		mov	r0, r3
 1592 030a 07F12007 		add	r7, r7, #32
 1593 030e BD46     		mov	sp, r7
 1594 0310 BDE8B083 		pop	{r4, r5, r7, r8, r9, pc}
 1595              	.L96:
 1596 0314 AFF30080 		.align	3
 1597              	.L95:
 1598 0318 8DEDB5A0 		.word	-1598689907
 1599 031c F7C6003F 		.word	1057015543
 1600 0320 7B14AE47 		.word	1202590843
 1601 0324 E17A743F 		.word	1064598241
 1602 0328 BC749318 		.word	412316860
 1603 032c 0456DE3F 		.word	1071535620
 1604 0330 F0F96184 		.word	-2073953808
 1605 0334 F068EE3F 		.word	1072589040
 1606 0338 F3C81F0C 		.word	203409651
 1607 033c 3CF76E3F 		.word	1064236860
 1608 0340 CAE02879 		.word	2032722122
 1609 0344 758EEF3F 		.word	1072664181
 1610 0348 68CBB914 		.word	347720552
 1611 034c 57959D3F 		.word	1067291991
 1612 0350 1405FA44 		.word	1157235988
 1613 0354 9E249D3F 		.word	1067263134
 1614 0358 000080BF 		.word	-1082130432
 1615 035c 0000803F 		.word	1065353216
 1616 0360 00000000 		.word	0
 1617 0364 0000C842 		.word	1120403456
 1618 0368 0000C841 		.word	1103626240
 1619              		.cfi_endproc
 1620              	.LFE38:
 1621              		.size	campbell_get_mSiemens, .-campbell_get_mSiemens
 1622 036c AFF30080 		.section	.text.campbell_get_uSiemens,"ax",%progbits
 1623              		.align	2
 1624              		.global	campbell_get_uSiemens
 1625              		.thumb
 1626              		.thumb_func
 1627              		.type	campbell_get_uSiemens, %function
 1628              	campbell_get_uSiemens:
 1629              	.LFB39:
 354:.\campbell.c  **** 
 355:.\campbell.c  **** uint8 campbell_get_uSiemens(float* S){
 1630              		.loc 1 355 0
 1631              		.cfi_startproc
 1632              		@ args = 0, pretend = 0, frame = 16
 1633              		@ frame_needed = 1, uses_anonymous_args = 0
 1634 0000 80B5     		push	{r7, lr}
 1635              	.LCFI24:
 1636              		.cfi_def_cfa_offset 8
ARM GAS  C:\Users\karunmj\AppData\Local\Temp\ccFv03GS.s 			page 36


 1637 0002 84B0     		sub	sp, sp, #16
 1638              	.LCFI25:
 1639              		.cfi_def_cfa_offset 24
 1640 0004 00AF     		add	r7, sp, #0
 1641              		.cfi_offset 14, -4
 1642              		.cfi_offset 7, -8
 1643              	.LCFI26:
 1644              		.cfi_def_cfa_register 7
 1645 0006 7860     		str	r0, [r7, #4]
 356:.\campbell.c  ****     float Ct;
 357:.\campbell.c  ****     if (campbell_get_mSiemens(&Ct)) {
 1646              		.loc 1 357 0
 1647 0008 07F10C03 		add	r3, r7, #12
 1648 000c 1846     		mov	r0, r3
 1649 000e FFF7FEFF 		bl	campbell_get_mSiemens
 1650 0012 0346     		mov	r3, r0
 1651 0014 002B     		cmp	r3, #0
 1652 0016 0BD0     		beq	.L98
 358:.\campbell.c  ****         *S = Ct*1000;    // Siemens to milliSiemens
 1653              		.loc 1 358 0
 1654 0018 FB68     		ldr	r3, [r7, #12]	@ float
 1655 001a 1846     		mov	r0, r3
 1656 001c 0849     		ldr	r1, .L101	@ float
 1657 001e FFF7FEFF 		bl	__aeabi_fmul
 1658 0022 0346     		mov	r3, r0
 1659 0024 1A46     		mov	r2, r3
 1660 0026 7B68     		ldr	r3, [r7, #4]
 1661 0028 1A60     		str	r2, [r3, #0]	@ float
 359:.\campbell.c  ****         return 1u;
 1662              		.loc 1 359 0
 1663 002a 4FF00103 		mov	r3, #1
 1664 002e 01E0     		b	.L99
 1665              	.L98:
 360:.\campbell.c  ****     }
 361:.\campbell.c  ****     return 0u;
 1666              		.loc 1 361 0
 1667 0030 4FF00003 		mov	r3, #0
 1668              	.L99:
 362:.\campbell.c  **** }
 1669              		.loc 1 362 0
 1670 0034 1846     		mov	r0, r3
 1671 0036 07F11007 		add	r7, r7, #16
 1672 003a BD46     		mov	sp, r7
 1673 003c 80BD     		pop	{r7, pc}
 1674              	.L102:
 1675 003e 00BF     		.align	2
 1676              	.L101:
 1677 0040 00007A44 		.word	1148846080
 1678              		.cfi_endproc
 1679              	.LFE39:
 1680              		.size	campbell_get_uSiemens, .-campbell_get_uSiemens
 1681              		.text
 1682              	.Letext0: