ARM GAS  C:\Users\karunmj\AppData\Local\Temp\ccIdWtkq.s 			page 1


   1              		.syntax unified
   2              		.cpu cortex-m3
   3              		.fpu softvfp
   4              		.eabi_attribute 20, 1
   5              		.eabi_attribute 21, 1
   6              		.eabi_attribute 23, 3
   7              		.eabi_attribute 24, 1
   8              		.eabi_attribute 25, 1
   9              		.eabi_attribute 26, 1
  10              		.eabi_attribute 30, 6
  11              		.eabi_attribute 18, 4
  12              		.thumb
  13              		.file	"main.c"
  20 0000 76000000 		.text
  20      02005300 
  20      00000201 
  20      FB0E0D00 
  20      01010101 
  21              	.Ltext0:
  22              		.cfi_sections	.debug_frame
  23              		.section	.text.main,"ax",%progbits
  24              		.align	2
  25              		.global	main
  26              		.thumb
  27              		.thumb_func
  28              		.type	main, %function
  29              	main:
  30              	.LFB29:
  31              		.file 1 ".\\main.c"
   1:.\main.c      **** /* ========================================
   2:.\main.c      ****  *
   3:.\main.c      ****  * Copyright YOUR COMPANY, THE YEAR
   4:.\main.c      ****  * All Rights Reserved
   5:.\main.c      ****  * UNPUBLISHED, LICENSED SOFTWARE.
   6:.\main.c      ****  *
   7:.\main.c      ****  * CONFIDENTIAL AND PROPRIETARY INFORMATION
   8:.\main.c      ****  * WHICH IS THE PROPERTY OF your company.
   9:.\main.c      ****  *
  10:.\main.c      ****  * ========================================
  11:.\main.c      **** */
  12:.\main.c      **** #include <device.h>
  13:.\main.c      **** #include <stdio.h>
  14:.\main.c      **** #include <string.h>
  15:.\main.c      **** #include "campbell.h"
  16:.\main.c      **** 
  17:.\main.c      **** void main()
  18:.\main.c      **** {
  32              		.loc 1 18 0
  33              		.cfi_startproc
  34              		@ args = 0, pretend = 0, frame = 24
  35              		@ frame_needed = 1, uses_anonymous_args = 0
ARM GAS  C:\Users\karunmj\AppData\Local\Temp\ccIdWtkq.s 			page 2


  36 0000 80B5     		push	{r7, lr}
  37              	.LCFI0:
  38              		.cfi_def_cfa_offset 8
  39 0002 86B0     		sub	sp, sp, #24
  40              	.LCFI1:
  41              		.cfi_def_cfa_offset 32
  42 0004 00AF     		add	r7, sp, #0
  43              		.cfi_offset 14, -4
  44              		.cfi_offset 7, -8
  45              	.LCFI2:
  46              		.cfi_def_cfa_register 7
  47              	.L4:
  19:.\main.c      **** 
  20:.\main.c      ****     //CyGlobalIntEnable; /* Uncomment this line to enable global interrupts. */
  21:.\main.c      ****     float Ct, T, output1, output2;
  22:.\main.c      ****     uint16 res1, res2, iter;
  23:.\main.c      ****     
  24:.\main.c      ****     
  25:.\main.c      ****     for(;;)
  26:.\main.c      ****     {   
  27:.\main.c      ****         if(! campbell_get_uSiemens(&Ct) ){
  48              		.loc 1 27 0
  49 0006 07F10403 		add	r3, r7, #4
  50 000a 1846     		mov	r0, r3
  51 000c FFF7FEFF 		bl	campbell_get_uSiemens
  52 0010 0346     		mov	r3, r0
  53 0012 002B     		cmp	r3, #0
  54 0014 04D1     		bne	.L2
  28:.\main.c      ****             iter++;        
  55              		.loc 1 28 0
  56 0016 FB8A     		ldrh	r3, [r7, #22]	@ movhi
  57 0018 03F10103 		add	r3, r3, #1
  58 001c FB82     		strh	r3, [r7, #22]	@ movhi
  29:.\main.c      ****         } else {
  30:.\main.c      ****             campbell_get_Celsius(&T);
  31:.\main.c      ****                 iter = 0;
  32:.\main.c      ****         }
  33:.\main.c      **** 
  34:.\main.c      ****         /*
  35:.\main.c      ****         if(flag == 0u)
  36:.\main.c      ****         {
  37:.\main.c      ****             ADC_SAR_Seq_1_IsEndConversion(ADC_SAR_Seq_1_WAIT_FOR_RESULT);
  38:.\main.c      ****             result1 = ADC_SAR_Seq_1_GetResult16(0u);
  39:.\main.c      ****             
  40:.\main.c      ****             res1 = ADC_SAR_Seq_1_CountsTo_Volts(result1);
  41:.\main.c      ****             
  42:.\main.c      ****             CyDelay(2500u);
  43:.\main.c      ****             flag = 1u;
  44:.\main.c      ****         }    
  45:.\main.c      ****         
  46:.\main.c      ****         
  47:.\main.c      ****         result1 = ADC_SAR_Seq_1_finalArray[0u];
  48:.\main.c      ****         res1 = ADC_SAR_Seq_1_CountsTo_Volts(result1);
  49:.\main.c      ****         sprintf((char *)str,"%+1.2f",res1);
  50:.\main.c      ****         CyDelay(200u); 
  51:.\main.c      ****         
  52:.\main.c      ****         
ARM GAS  C:\Users\karunmj\AppData\Local\Temp\ccIdWtkq.s 			page 3


  53:.\main.c      ****         if(AMuxSeq_1_GetChannel() != 0){
  54:.\main.c      ****             AMuxSeq_1_Next();
  55:.\main.c      ****         }
  56:.\main.c      ****         
  57:.\main.c      ****         for (i = 0u; i<1000; i++){
  58:.\main.c      ****             ADC_DelSig_1_StartConvert();
  59:.\main.c      ****             CyDelay(100u);
  60:.\main.c      ****             if(ADC_DelSig_1_IsEndConversion(ADC_DelSig_1_RETURN_STATUS))
  61:.\main.c      ****             {
  62:.\main.c      ****                 if (AMuxSeq_1_GetChannel() == 0)
  63:.\main.c      ****                 {
  64:.\main.c      ****                     res1 = ADC_DelSig_1_GetResult16();
  65:.\main.c      ****         			output1 = ADC_DelSig_1_CountsTo_Volts(res1) ;
  66:.\main.c      ****                 }
  67:.\main.c      ****                 else {
  68:.\main.c      ****                     res2 = ADC_DelSig_1_GetResult16();
  69:.\main.c      ****             		output2 = ADC_DelSig_1_CountsTo_Volts(res2) ;
  70:.\main.c      ****                     break;
  71:.\main.c      ****                 }
  72:.\main.c      ****                 ADC_DelSig_1_StopConvert();
  73:.\main.c      ****                 AMuxSeq_1_Next();         
  74:.\main.c      ****                 CyDelay(100u);            
  75:.\main.c      ****             }
  76:.\main.c      ****         }
  77:.\main.c      ****         */
  78:.\main.c      ****     }
  59              		.loc 1 78 0
  60 001e F2E7     		b	.L4
  61              	.L2:
  62              		.loc 1 30 0
  63 0020 3B46     		mov	r3, r7
  64 0022 1846     		mov	r0, r3
  65 0024 FFF7FEFF 		bl	campbell_get_Celsius
  66              		.loc 1 31 0
  67 0028 4FF00003 		mov	r3, #0
  68 002c FB82     		strh	r3, [r7, #22]	@ movhi
  69              		.loc 1 78 0
  70 002e EAE7     		b	.L4
  71              		.cfi_endproc
  72              	.LFE29:
  73              		.size	main, .-main
  74              		.text
  75              	.Letext0: