ARM GAS  C:\Users\karunmj\AppData\Local\Temp\cc7G1F5f.s 			page 1


   1              		.syntax unified
   2              		.cpu cortex-m3
   3              		.fpu softvfp
   4              		.eabi_attribute 20, 1
   5              		.eabi_attribute 21, 1
   6              		.eabi_attribute 23, 3
   7              		.eabi_attribute 24, 1
   8              		.eabi_attribute 25, 1
   9              		.eabi_attribute 26, 1
  10              		.eabi_attribute 30, 6
  11              		.eabi_attribute 18, 4
  12              		.thumb
  13              		.file	"Mixer_1.c"
  20 0000 DA000000 		.text
  20      02006000 
  20      00000201 
  20      FB0E0D00 
  20      01010101 
  21              	.Ltext0:
  22              		.cfi_sections	.debug_frame
  23              		.global	Mixer_1_initVar
  24              		.bss
  25              		.type	Mixer_1_initVar, %object
  26              		.size	Mixer_1_initVar, 1
  27              	Mixer_1_initVar:
  28 0000 00       		.space	1
  29              		.global	__aeabi_fcmplt
  30              		.section	.text.Mixer_1_Init,"ax",%progbits
  31              		.align	2
  32              		.global	Mixer_1_Init
  33              		.thumb
  34              		.thumb_func
  35              		.type	Mixer_1_Init, %function
  36              	Mixer_1_Init:
  37              	.LFB0:
  38              		.file 1 ".\\Generated_Source\\PSoC5\\Mixer_1.c"
   1:.\Generated_Source\PSoC5/Mixer_1.c **** /*******************************************************************************
   2:.\Generated_Source\PSoC5/Mixer_1.c **** * File Name: Mixer_1.c  
   3:.\Generated_Source\PSoC5/Mixer_1.c **** * Version 2.0
   4:.\Generated_Source\PSoC5/Mixer_1.c **** *
   5:.\Generated_Source\PSoC5/Mixer_1.c **** * Description:
   6:.\Generated_Source\PSoC5/Mixer_1.c **** *  This file provides the source code to the API for the MIXER Component.
   7:.\Generated_Source\PSoC5/Mixer_1.c **** *
   8:.\Generated_Source\PSoC5/Mixer_1.c **** * Note:
   9:.\Generated_Source\PSoC5/Mixer_1.c **** *
  10:.\Generated_Source\PSoC5/Mixer_1.c **** *******************************************************************************
  11:.\Generated_Source\PSoC5/Mixer_1.c **** * Copyright 2008-2012, Cypress Semiconductor Corporation.  All rights reserved.
  12:.\Generated_Source\PSoC5/Mixer_1.c **** * You may use this file only in accordance with the license, terms, conditions, 
  13:.\Generated_Source\PSoC5/Mixer_1.c **** * disclaimers, and limitations in the end user license agreement accompanying 
  14:.\Generated_Source\PSoC5/Mixer_1.c **** * the software package with which this file was provided.
  15:.\Generated_Source\PSoC5/Mixer_1.c **** *******************************************************************************/
ARM GAS  C:\Users\karunmj\AppData\Local\Temp\cc7G1F5f.s 			page 2


  16:.\Generated_Source\PSoC5/Mixer_1.c **** 
  17:.\Generated_Source\PSoC5/Mixer_1.c **** #include "Mixer_1.h"
  18:.\Generated_Source\PSoC5/Mixer_1.c **** 
  19:.\Generated_Source\PSoC5/Mixer_1.c **** #if (!CY_PSOC5A)
  20:.\Generated_Source\PSoC5/Mixer_1.c ****     #if (CYDEV_VARIABLE_VDDA == 1u)
  21:.\Generated_Source\PSoC5/Mixer_1.c ****         #include "CyScBoostClk.h"
  22:.\Generated_Source\PSoC5/Mixer_1.c ****     #endif /* (CYDEV_VARIABLE_VDDA == 1u) */
  23:.\Generated_Source\PSoC5/Mixer_1.c **** #endif /* (!CY_PSOC5A) */
  24:.\Generated_Source\PSoC5/Mixer_1.c **** 
  25:.\Generated_Source\PSoC5/Mixer_1.c **** #if (Mixer_1_LO_SOURCE == Mixer_1_LO_SOURCE_INTERNAL)
  26:.\Generated_Source\PSoC5/Mixer_1.c ****     #include "Mixer_1_aclk.h"
  27:.\Generated_Source\PSoC5/Mixer_1.c **** #endif /* Mixer_1_LO_SOURCE */
  28:.\Generated_Source\PSoC5/Mixer_1.c **** 
  29:.\Generated_Source\PSoC5/Mixer_1.c **** /* Fixed configuration of SC Block only performed once */
  30:.\Generated_Source\PSoC5/Mixer_1.c **** uint8 Mixer_1_initVar = 0u;
  31:.\Generated_Source\PSoC5/Mixer_1.c **** 
  32:.\Generated_Source\PSoC5/Mixer_1.c **** /* Only for PSoC5A */
  33:.\Generated_Source\PSoC5/Mixer_1.c **** #if (CY_PSOC5A)
  34:.\Generated_Source\PSoC5/Mixer_1.c ****     static Mixer_1_backupStruct Mixer_1_P5backup;
  35:.\Generated_Source\PSoC5/Mixer_1.c **** #endif /* CY_PSOC5A */
  36:.\Generated_Source\PSoC5/Mixer_1.c **** 
  37:.\Generated_Source\PSoC5/Mixer_1.c **** 
  38:.\Generated_Source\PSoC5/Mixer_1.c **** /*******************************************************************************
  39:.\Generated_Source\PSoC5/Mixer_1.c **** * Function Name: Mixer_1_Init
  40:.\Generated_Source\PSoC5/Mixer_1.c **** ********************************************************************************
  41:.\Generated_Source\PSoC5/Mixer_1.c **** *
  42:.\Generated_Source\PSoC5/Mixer_1.c **** * Summary:
  43:.\Generated_Source\PSoC5/Mixer_1.c **** *  Initialize component's parameters to the parameters set by user in the 
  44:.\Generated_Source\PSoC5/Mixer_1.c **** *  customizer of the component placed onto schematic. Usually called in 
  45:.\Generated_Source\PSoC5/Mixer_1.c **** *  Mixer_1_Start().
  46:.\Generated_Source\PSoC5/Mixer_1.c **** *
  47:.\Generated_Source\PSoC5/Mixer_1.c **** * Parameters:  
  48:.\Generated_Source\PSoC5/Mixer_1.c **** *  void
  49:.\Generated_Source\PSoC5/Mixer_1.c **** *
  50:.\Generated_Source\PSoC5/Mixer_1.c **** * Return: 
  51:.\Generated_Source\PSoC5/Mixer_1.c **** *  void
  52:.\Generated_Source\PSoC5/Mixer_1.c **** *
  53:.\Generated_Source\PSoC5/Mixer_1.c **** *******************************************************************************/
  54:.\Generated_Source\PSoC5/Mixer_1.c **** void Mixer_1_Init(void) 
  55:.\Generated_Source\PSoC5/Mixer_1.c **** {
  39              		.loc 1 55 0
  40              		.cfi_startproc
  41              		@ args = 0, pretend = 0, frame = 8
  42              		@ frame_needed = 1, uses_anonymous_args = 0
  43 0000 90B5     		push	{r4, r7, lr}
  44              	.LCFI0:
  45              		.cfi_def_cfa_offset 12
  46 0002 83B0     		sub	sp, sp, #12
  47              	.LCFI1:
  48              		.cfi_def_cfa_offset 24
  49 0004 00AF     		add	r7, sp, #0
  50              		.cfi_offset 14, -4
  51              		.cfi_offset 7, -8
  52              		.cfi_offset 4, -12
  53              	.LCFI2:
  54              		.cfi_def_cfa_register 7
  56:.\Generated_Source\PSoC5/Mixer_1.c ****     float LOf = Mixer_1_LO_CLOCK_FREQ;
ARM GAS  C:\Users\karunmj\AppData\Local\Temp\cc7G1F5f.s 			page 3


  55              		.loc 1 56 0
  56 0006 224B     		ldr	r3, .L7	@ float
  57 0008 7B60     		str	r3, [r7, #4]	@ float
  57:.\Generated_Source\PSoC5/Mixer_1.c ****     
  58:.\Generated_Source\PSoC5/Mixer_1.c ****     /* Configure SC Block based on selected Mixer type */
  59:.\Generated_Source\PSoC5/Mixer_1.c ****     /* Continuous Time (up) mixer */
  60:.\Generated_Source\PSoC5/Mixer_1.c ****     #if (Mixer_1_MIXER_TYPE == Mixer_1_CTMIXER) 
  61:.\Generated_Source\PSoC5/Mixer_1.c ****         /* SC Block mode -  - SCxx_CR0[3:1] */
  62:.\Generated_Source\PSoC5/Mixer_1.c ****         Mixer_1_CR0_REG = Mixer_1_MODE_CTMIXER;   
  63:.\Generated_Source\PSoC5/Mixer_1.c **** 
  64:.\Generated_Source\PSoC5/Mixer_1.c ****         /* SC Block CR1 */ 
  65:.\Generated_Source\PSoC5/Mixer_1.c ****         Mixer_1_CR1_REG = (Mixer_1_COMP_4P35PF  |
  66:.\Generated_Source\PSoC5/Mixer_1.c ****                                 Mixer_1_DIV2_DISABLE |
  67:.\Generated_Source\PSoC5/Mixer_1.c ****                                 Mixer_1_GAIN_0DB);                                 
  68:.\Generated_Source\PSoC5/Mixer_1.c **** 
  69:.\Generated_Source\PSoC5/Mixer_1.c ****         /* 
  70:.\Generated_Source\PSoC5/Mixer_1.c ****             Set SC Block resistor values based on Local Oscillator being above 
  71:.\Generated_Source\PSoC5/Mixer_1.c ****             or below 100kHz - controled by r20_40 (Rmix) bit for CT mode mixer
  72:.\Generated_Source\PSoC5/Mixer_1.c ****             and SC Block
  73:.\Generated_Source\PSoC5/Mixer_1.c ****         */
  74:.\Generated_Source\PSoC5/Mixer_1.c **** 
  75:.\Generated_Source\PSoC5/Mixer_1.c ****         if (LOf < Mixer_1_LO_CLOCK_FREQ_100_KHz)
  76:.\Generated_Source\PSoC5/Mixer_1.c ****         {
  77:.\Generated_Source\PSoC5/Mixer_1.c ****             Mixer_1_CR2_REG = (Mixer_1_BIAS_LOW |
  78:.\Generated_Source\PSoC5/Mixer_1.c **** 										Mixer_1_REDC_01 |
  79:.\Generated_Source\PSoC5/Mixer_1.c **** 										Mixer_1_GNDVREF_DI |
  80:.\Generated_Source\PSoC5/Mixer_1.c **** 										Mixer_1_R20_40B_40K);
  81:.\Generated_Source\PSoC5/Mixer_1.c ****         }
  82:.\Generated_Source\PSoC5/Mixer_1.c ****         else
  83:.\Generated_Source\PSoC5/Mixer_1.c ****         {
  84:.\Generated_Source\PSoC5/Mixer_1.c ****             Mixer_1_CR2_REG = (Mixer_1_BIAS_LOW |
  85:.\Generated_Source\PSoC5/Mixer_1.c **** 										Mixer_1_REDC_01 |
  86:.\Generated_Source\PSoC5/Mixer_1.c **** 										Mixer_1_GNDVREF_DI |
  87:.\Generated_Source\PSoC5/Mixer_1.c **** 										Mixer_1_R20_40B_20K);
  88:.\Generated_Source\PSoC5/Mixer_1.c ****         }
  89:.\Generated_Source\PSoC5/Mixer_1.c ****     #else
  90:.\Generated_Source\PSoC5/Mixer_1.c ****         /* Discrete Time (down) mixer */
  91:.\Generated_Source\PSoC5/Mixer_1.c ****         /* SC Block mode -  - SCxx_CR0[3:1] */
  92:.\Generated_Source\PSoC5/Mixer_1.c ****         Mixer_1_CR0_REG = Mixer_1_MODE_DTMIXER;       
  58              		.loc 1 92 0
  59 000a 45F60003 		movw	r3, #:lower16:1073764352
  60 000e C4F20003 		movt	r3, #:upper16:1073764352
  61 0012 4FF00602 		mov	r2, #6
  62 0016 1A70     		strb	r2, [r3, #0]
  93:.\Generated_Source\PSoC5/Mixer_1.c **** 
  94:.\Generated_Source\PSoC5/Mixer_1.c ****         /* SC Block CR1 */ 
  95:.\Generated_Source\PSoC5/Mixer_1.c ****         Mixer_1_CR1_REG = (Mixer_1_COMP_4P35PF  |
  63              		.loc 1 95 0
  64 0018 45F60103 		movw	r3, #:lower16:1073764353
  65 001c C4F20003 		movt	r3, #:upper16:1073764353
  66 0020 4FF01802 		mov	r2, #24
  67 0024 1A70     		strb	r2, [r3, #0]
  96:.\Generated_Source\PSoC5/Mixer_1.c ****                                 Mixer_1_DIV2_ENABLE |
  97:.\Generated_Source\PSoC5/Mixer_1.c ****                                 Mixer_1_GAIN_0DB);
  98:.\Generated_Source\PSoC5/Mixer_1.c **** 
  99:.\Generated_Source\PSoC5/Mixer_1.c ****         /* 
 100:.\Generated_Source\PSoC5/Mixer_1.c ****             Set SC Block resistor values based on Local Oscillator beign above 
ARM GAS  C:\Users\karunmj\AppData\Local\Temp\cc7G1F5f.s 			page 4


 101:.\Generated_Source\PSoC5/Mixer_1.c ****             or below 100kHz - set r20_40 (input resitance) and rval (feedback) 
 102:.\Generated_Source\PSoC5/Mixer_1.c ****             resistor values seperately for DT mode and SC Block
 103:.\Generated_Source\PSoC5/Mixer_1.c ****         */
 104:.\Generated_Source\PSoC5/Mixer_1.c ****         if (LOf < Mixer_1_LO_CLOCK_FREQ_100_KHz)
  68              		.loc 1 104 0
  69 0026 4FF00003 		mov	r3, #0
  70 002a 1C46     		mov	r4, r3
  71 002c 7868     		ldr	r0, [r7, #4]	@ float
  72 002e 1949     		ldr	r1, .L7+4	@ float
  73 0030 FFF7FEFF 		bl	__aeabi_fcmplt
  74 0034 0346     		mov	r3, r0
  75 0036 002B     		cmp	r3, #0
  76 0038 02D0     		beq	.L2
  77              	.L3:
  78 003a 4FF00103 		mov	r3, #1
  79 003e 1C46     		mov	r4, r3
  80              	.L2:
  81 0040 E3B2     		uxtb	r3, r4
  82 0042 002B     		cmp	r3, #0
  83 0044 07D0     		beq	.L4
 105:.\Generated_Source\PSoC5/Mixer_1.c ****         {
 106:.\Generated_Source\PSoC5/Mixer_1.c ****             Mixer_1_CR2_REG = (Mixer_1_BIAS_LOW |
  84              		.loc 1 106 0
  85 0046 45F60203 		movw	r3, #:lower16:1073764354
  86 004a C4F20003 		movt	r3, #:upper16:1073764354
  87 004e 4FF02102 		mov	r2, #33
  88 0052 1A70     		strb	r2, [r3, #0]
  89 0054 06E0     		b	.L5
  90              	.L4:
 107:.\Generated_Source\PSoC5/Mixer_1.c **** 										Mixer_1_GNDVREF_DI |
 108:.\Generated_Source\PSoC5/Mixer_1.c **** 										Mixer_1_R20_40B_40K |
 109:.\Generated_Source\PSoC5/Mixer_1.c **** 										Mixer_1_RVAL_40K); 
 110:.\Generated_Source\PSoC5/Mixer_1.c ****         }
 111:.\Generated_Source\PSoC5/Mixer_1.c ****         else
 112:.\Generated_Source\PSoC5/Mixer_1.c ****         {
 113:.\Generated_Source\PSoC5/Mixer_1.c ****             Mixer_1_CR2_REG = (Mixer_1_BIAS_LOW |
  91              		.loc 1 113 0
  92 0056 45F60203 		movw	r3, #:lower16:1073764354
  93 005a C4F20003 		movt	r3, #:upper16:1073764354
  94 005e 4FF00302 		mov	r2, #3
  95 0062 1A70     		strb	r2, [r3, #0]
  96              	.L5:
 114:.\Generated_Source\PSoC5/Mixer_1.c **** 										Mixer_1_GNDVREF_DI |
 115:.\Generated_Source\PSoC5/Mixer_1.c **** 										Mixer_1_R20_40B_20K |
 116:.\Generated_Source\PSoC5/Mixer_1.c **** 										Mixer_1_RVAL_20K);
 117:.\Generated_Source\PSoC5/Mixer_1.c ****         }
 118:.\Generated_Source\PSoC5/Mixer_1.c ****     #endif /* end if - Mixer Type */
 119:.\Generated_Source\PSoC5/Mixer_1.c **** 
 120:.\Generated_Source\PSoC5/Mixer_1.c ****     /* Enable SC Block clocking */
 121:.\Generated_Source\PSoC5/Mixer_1.c ****     Mixer_1_CLK_REG |= Mixer_1_CLK_EN;
  97              		.loc 1 121 0
  98 0064 45F60B23 		movw	r3, #:lower16:1073764875
  99 0068 C4F20003 		movt	r3, #:upper16:1073764875
 100 006c 45F60B22 		movw	r2, #:lower16:1073764875
 101 0070 C4F20002 		movt	r2, #:upper16:1073764875
 102 0074 1278     		ldrb	r2, [r2, #0]
 103 0076 D2B2     		uxtb	r2, r2
ARM GAS  C:\Users\karunmj\AppData\Local\Temp\cc7G1F5f.s 			page 5


 104 0078 42F00802 		orr	r2, r2, #8
 105 007c D2B2     		uxtb	r2, r2
 106 007e 1A70     		strb	r2, [r3, #0]
 122:.\Generated_Source\PSoC5/Mixer_1.c **** 
 123:.\Generated_Source\PSoC5/Mixer_1.c ****     /* Set default power */
 124:.\Generated_Source\PSoC5/Mixer_1.c ****     Mixer_1_SetPower(Mixer_1_INIT_POWER);
 107              		.loc 1 124 0
 108 0080 4FF00200 		mov	r0, #2
 109 0084 FFF7FEFF 		bl	Mixer_1_SetPower
 125:.\Generated_Source\PSoC5/Mixer_1.c ****     
 126:.\Generated_Source\PSoC5/Mixer_1.c ****     /* Set 50 % Duty cycle for LO clock if LO source is internal */
 127:.\Generated_Source\PSoC5/Mixer_1.c ****     #if(Mixer_1_LO_SOURCE == Mixer_1_LO_SOURCE_INTERNAL)
 128:.\Generated_Source\PSoC5/Mixer_1.c ****         Mixer_1_aclk_SetMode(CYCLK_DUTY);
 129:.\Generated_Source\PSoC5/Mixer_1.c ****     #endif /* Mixer_1_LO_SOURCE == Mixer_1_LO_SOURCE_INTERNAL */
 130:.\Generated_Source\PSoC5/Mixer_1.c **** 
 131:.\Generated_Source\PSoC5/Mixer_1.c **** }
 110              		.loc 1 131 0
 111 0088 07F10C07 		add	r7, r7, #12
 112 008c BD46     		mov	sp, r7
 113 008e 90BD     		pop	{r4, r7, pc}
 114              	.L8:
 115              		.align	2
 116              	.L7:
 117 0090 00007A44 		.word	1148846080
 118 0094 0000C842 		.word	1120403456
 119              		.cfi_endproc
 120              	.LFE0:
 121              		.size	Mixer_1_Init, .-Mixer_1_Init
 122              		.section	.text.Mixer_1_Enable,"ax",%progbits
 123              		.align	2
 124              		.global	Mixer_1_Enable
 125              		.thumb
 126              		.thumb_func
 127              		.type	Mixer_1_Enable, %function
 128              	Mixer_1_Enable:
 129              	.LFB1:
 132:.\Generated_Source\PSoC5/Mixer_1.c **** 
 133:.\Generated_Source\PSoC5/Mixer_1.c **** 
 134:.\Generated_Source\PSoC5/Mixer_1.c **** /*******************************************************************************
 135:.\Generated_Source\PSoC5/Mixer_1.c **** * Function Name: Mixer_1_Enable
 136:.\Generated_Source\PSoC5/Mixer_1.c **** ********************************************************************************
 137:.\Generated_Source\PSoC5/Mixer_1.c **** *  
 138:.\Generated_Source\PSoC5/Mixer_1.c **** * Summary: 
 139:.\Generated_Source\PSoC5/Mixer_1.c **** *  Enables the Mixer block operation
 140:.\Generated_Source\PSoC5/Mixer_1.c **** *
 141:.\Generated_Source\PSoC5/Mixer_1.c **** * Parameters:  
 142:.\Generated_Source\PSoC5/Mixer_1.c **** *  void
 143:.\Generated_Source\PSoC5/Mixer_1.c **** *
 144:.\Generated_Source\PSoC5/Mixer_1.c **** * Return: 
 145:.\Generated_Source\PSoC5/Mixer_1.c **** *  void
 146:.\Generated_Source\PSoC5/Mixer_1.c **** *
 147:.\Generated_Source\PSoC5/Mixer_1.c **** *******************************************************************************/
 148:.\Generated_Source\PSoC5/Mixer_1.c **** void Mixer_1_Enable(void) 
 149:.\Generated_Source\PSoC5/Mixer_1.c **** {
 130              		.loc 1 149 0
 131              		.cfi_startproc
 132              		@ args = 0, pretend = 0, frame = 0
ARM GAS  C:\Users\karunmj\AppData\Local\Temp\cc7G1F5f.s 			page 6


 133              		@ frame_needed = 1, uses_anonymous_args = 0
 134              		@ link register save eliminated.
 135 0000 80B4     		push	{r7}
 136              	.LCFI3:
 137              		.cfi_def_cfa_offset 4
 138 0002 00AF     		add	r7, sp, #0
 139              		.cfi_offset 7, -4
 140              	.LCFI4:
 141              		.cfi_def_cfa_register 7
 150:.\Generated_Source\PSoC5/Mixer_1.c ****     /* This is to restore the value of register CR1 and CR2 which is saved 
 151:.\Generated_Source\PSoC5/Mixer_1.c ****       in prior to the modifications in stop() API */
 152:.\Generated_Source\PSoC5/Mixer_1.c ****     #if (CY_PSOC5A)
 153:.\Generated_Source\PSoC5/Mixer_1.c ****         if(Mixer_1_P5backup.enableState == 1u)
 154:.\Generated_Source\PSoC5/Mixer_1.c ****         {
 155:.\Generated_Source\PSoC5/Mixer_1.c ****             Mixer_1_CR1_REG = Mixer_1_P5backup.scCR1Reg;
 156:.\Generated_Source\PSoC5/Mixer_1.c ****             Mixer_1_CR2_REG = Mixer_1_P5backup.scCR2Reg;
 157:.\Generated_Source\PSoC5/Mixer_1.c ****             Mixer_1_P5backup.enableState = 0u;
 158:.\Generated_Source\PSoC5/Mixer_1.c ****         }
 159:.\Generated_Source\PSoC5/Mixer_1.c ****     #endif /* CY_PSOC5A */
 160:.\Generated_Source\PSoC5/Mixer_1.c ****     
 161:.\Generated_Source\PSoC5/Mixer_1.c ****     /* Enable power to SC block in active mode */
 162:.\Generated_Source\PSoC5/Mixer_1.c ****     Mixer_1_PM_ACT_CFG_REG |= Mixer_1_ACT_PWR_EN;
 142              		.loc 1 162 0
 143 0004 44F2A933 		movw	r3, #:lower16:1073759145
 144 0008 C4F20003 		movt	r3, #:upper16:1073759145
 145 000c 44F2A932 		movw	r2, #:lower16:1073759145
 146 0010 C4F20002 		movt	r2, #:upper16:1073759145
 147 0014 1278     		ldrb	r2, [r2, #0]
 148 0016 D2B2     		uxtb	r2, r2
 149 0018 42F00102 		orr	r2, r2, #1
 150 001c D2B2     		uxtb	r2, r2
 151 001e 1A70     		strb	r2, [r3, #0]
 163:.\Generated_Source\PSoC5/Mixer_1.c **** 
 164:.\Generated_Source\PSoC5/Mixer_1.c ****     /* Enable power to SC block in Alternative active mode */
 165:.\Generated_Source\PSoC5/Mixer_1.c ****     Mixer_1_PM_STBY_CFG_REG |= Mixer_1_STBY_PWR_EN;
 152              		.loc 1 165 0
 153 0020 44F2B933 		movw	r3, #:lower16:1073759161
 154 0024 C4F20003 		movt	r3, #:upper16:1073759161
 155 0028 44F2B932 		movw	r2, #:lower16:1073759161
 156 002c C4F20002 		movt	r2, #:upper16:1073759161
 157 0030 1278     		ldrb	r2, [r2, #0]
 158 0032 D2B2     		uxtb	r2, r2
 159 0034 42F00102 		orr	r2, r2, #1
 160 0038 D2B2     		uxtb	r2, r2
 161 003a 1A70     		strb	r2, [r3, #0]
 166:.\Generated_Source\PSoC5/Mixer_1.c ****     
 167:.\Generated_Source\PSoC5/Mixer_1.c ****     /* Enable LO_Internal clock if LO source is choosen as internal */
 168:.\Generated_Source\PSoC5/Mixer_1.c ****     #if(Mixer_1_LO_SOURCE == Mixer_1_LO_SOURCE_INTERNAL)
 169:.\Generated_Source\PSoC5/Mixer_1.c ****         /* Enable power to the LO clock */
 170:.\Generated_Source\PSoC5/Mixer_1.c ****         Mixer_1_PWRMGR_ACLK_REG |= Mixer_1_ACT_PWR_ACLK_EN;        
 171:.\Generated_Source\PSoC5/Mixer_1.c ****         Mixer_1_STBY_PWRMGR_ACLK_REG |= Mixer_1_STBY_PWR_ACLK_EN;
 172:.\Generated_Source\PSoC5/Mixer_1.c ****         /* Enable the clock */
 173:.\Generated_Source\PSoC5/Mixer_1.c ****         Mixer_1_aclk_Enable();        
 174:.\Generated_Source\PSoC5/Mixer_1.c ****     #endif /* Mixer_1_LO_SOURCE == Mixer_1_LO_SOURCE_INTERNAL */
 175:.\Generated_Source\PSoC5/Mixer_1.c **** 
 176:.\Generated_Source\PSoC5/Mixer_1.c ****     Mixer_1_PUMP_CR1_REG |= Mixer_1_PUMP_CR1_SC_CLKSEL;
 162              		.loc 1 176 0
ARM GAS  C:\Users\karunmj\AppData\Local\Temp\cc7G1F5f.s 			page 7


 163 003c 45F67703 		movw	r3, #:lower16:1073764471
 164 0040 C4F20003 		movt	r3, #:upper16:1073764471
 165 0044 45F67702 		movw	r2, #:lower16:1073764471
 166 0048 C4F20002 		movt	r2, #:upper16:1073764471
 167 004c 1278     		ldrb	r2, [r2, #0]
 168 004e D2B2     		uxtb	r2, r2
 169 0050 6FEA4262 		mvn	r2, r2, lsl #25
 170 0054 6FEA5262 		mvn	r2, r2, lsr #25
 171 0058 D2B2     		uxtb	r2, r2
 172 005a 1A70     		strb	r2, [r3, #0]
 177:.\Generated_Source\PSoC5/Mixer_1.c ****     
 178:.\Generated_Source\PSoC5/Mixer_1.c ****     #if (!CY_PSOC5A)
 179:.\Generated_Source\PSoC5/Mixer_1.c ****         #if (CYDEV_VARIABLE_VDDA == 1u)
 180:.\Generated_Source\PSoC5/Mixer_1.c ****             if(CyScPumpEnabled == 1u)
 181:.\Generated_Source\PSoC5/Mixer_1.c ****             {
 182:.\Generated_Source\PSoC5/Mixer_1.c ****                 Mixer_1_BSTCLK_REG &= (uint8)(~Mixer_1_BST_CLK_INDEX_MASK);
 183:.\Generated_Source\PSoC5/Mixer_1.c ****                 Mixer_1_BSTCLK_REG |= Mixer_1_BST_CLK_EN | CyScBoostClk__INDEX;
 184:.\Generated_Source\PSoC5/Mixer_1.c ****                 Mixer_1_SC_MISC_REG |= Mixer_1_PUMP_FORCE;
 185:.\Generated_Source\PSoC5/Mixer_1.c ****                 CyScBoostClk_Start();
 186:.\Generated_Source\PSoC5/Mixer_1.c ****             }
 187:.\Generated_Source\PSoC5/Mixer_1.c ****             else
 188:.\Generated_Source\PSoC5/Mixer_1.c ****             {
 189:.\Generated_Source\PSoC5/Mixer_1.c ****                 Mixer_1_BSTCLK_REG &= (uint8)(~Mixer_1_BST_CLK_EN);
 190:.\Generated_Source\PSoC5/Mixer_1.c ****                 Mixer_1_SC_MISC_REG &= (uint8)(~Mixer_1_PUMP_FORCE);
 191:.\Generated_Source\PSoC5/Mixer_1.c ****             }
 192:.\Generated_Source\PSoC5/Mixer_1.c ****         #endif /* (CYDEV_VARIABLE_VDDA == 1u) */
 193:.\Generated_Source\PSoC5/Mixer_1.c ****     #endif /* (!CY_PSOC5A) */
 194:.\Generated_Source\PSoC5/Mixer_1.c **** }
 173              		.loc 1 194 0
 174 005c BD46     		mov	sp, r7
 175 005e 80BC     		pop	{r7}
 176 0060 7047     		bx	lr
 177              		.cfi_endproc
 178              	.LFE1:
 179              		.size	Mixer_1_Enable, .-Mixer_1_Enable
 180 0062 00BF     		.section	.text.Mixer_1_Start,"ax",%progbits
 181              		.align	2
 182              		.global	Mixer_1_Start
 183              		.thumb
 184              		.thumb_func
 185              		.type	Mixer_1_Start, %function
 186              	Mixer_1_Start:
 187              	.LFB2:
 195:.\Generated_Source\PSoC5/Mixer_1.c **** 
 196:.\Generated_Source\PSoC5/Mixer_1.c **** 
 197:.\Generated_Source\PSoC5/Mixer_1.c **** /*******************************************************************************
 198:.\Generated_Source\PSoC5/Mixer_1.c **** * Function Name: Mixer_1_Start
 199:.\Generated_Source\PSoC5/Mixer_1.c **** ********************************************************************************
 200:.\Generated_Source\PSoC5/Mixer_1.c **** *
 201:.\Generated_Source\PSoC5/Mixer_1.c **** * Summary:
 202:.\Generated_Source\PSoC5/Mixer_1.c **** *  The start function initializes the SC block control registers based on the
 203:.\Generated_Source\PSoC5/Mixer_1.c **** *  Mixer type selected and and enables power to the SC block
 204:.\Generated_Source\PSoC5/Mixer_1.c **** *
 205:.\Generated_Source\PSoC5/Mixer_1.c **** * Parameters:  
 206:.\Generated_Source\PSoC5/Mixer_1.c **** *  void
 207:.\Generated_Source\PSoC5/Mixer_1.c **** *
 208:.\Generated_Source\PSoC5/Mixer_1.c **** * Return: 
ARM GAS  C:\Users\karunmj\AppData\Local\Temp\cc7G1F5f.s 			page 8


 209:.\Generated_Source\PSoC5/Mixer_1.c **** *  void 
 210:.\Generated_Source\PSoC5/Mixer_1.c **** *
 211:.\Generated_Source\PSoC5/Mixer_1.c **** * Global variables:
 212:.\Generated_Source\PSoC5/Mixer_1.c **** *  Mixer_1_initVar:  Used to check the initial configuration,
 213:.\Generated_Source\PSoC5/Mixer_1.c **** *  modified when this function is called for the first time.
 214:.\Generated_Source\PSoC5/Mixer_1.c **** *
 215:.\Generated_Source\PSoC5/Mixer_1.c **** * Theory: 
 216:.\Generated_Source\PSoC5/Mixer_1.c **** *  Full initialization of the SC Block configuration registers is only perfomed 
 217:.\Generated_Source\PSoC5/Mixer_1.c **** *  the first time the routine executes - global variable 
 218:.\Generated_Source\PSoC5/Mixer_1.c **** *  Mixer_1_initVar is used indicate that the static configuration has 
 219:.\Generated_Source\PSoC5/Mixer_1.c **** *  been completed.
 220:.\Generated_Source\PSoC5/Mixer_1.c **** *
 221:.\Generated_Source\PSoC5/Mixer_1.c **** *******************************************************************************/
 222:.\Generated_Source\PSoC5/Mixer_1.c **** void Mixer_1_Start(void) 
 223:.\Generated_Source\PSoC5/Mixer_1.c **** {
 188              		.loc 1 223 0
 189              		.cfi_startproc
 190              		@ args = 0, pretend = 0, frame = 0
 191              		@ frame_needed = 1, uses_anonymous_args = 0
 192 0000 80B5     		push	{r7, lr}
 193              	.LCFI5:
 194              		.cfi_def_cfa_offset 8
 195 0002 00AF     		add	r7, sp, #0
 196              		.cfi_offset 14, -4
 197              		.cfi_offset 7, -8
 198              	.LCFI6:
 199              		.cfi_def_cfa_register 7
 224:.\Generated_Source\PSoC5/Mixer_1.c ****     /* If not Initialized then initialize all required hardware and software */
 225:.\Generated_Source\PSoC5/Mixer_1.c ****     if(Mixer_1_initVar == 0u)
 200              		.loc 1 225 0
 201 0004 40F20003 		movw	r3, #:lower16:Mixer_1_initVar
 202 0008 C0F20003 		movt	r3, #:upper16:Mixer_1_initVar
 203 000c 1B78     		ldrb	r3, [r3, #0]	@ zero_extendqisi2
 204 000e 002B     		cmp	r3, #0
 205 0010 08D1     		bne	.L12
 226:.\Generated_Source\PSoC5/Mixer_1.c ****     {
 227:.\Generated_Source\PSoC5/Mixer_1.c ****         Mixer_1_Init();
 206              		.loc 1 227 0
 207 0012 FFF7FEFF 		bl	Mixer_1_Init
 228:.\Generated_Source\PSoC5/Mixer_1.c ****         Mixer_1_initVar = 1u;
 208              		.loc 1 228 0
 209 0016 40F20003 		movw	r3, #:lower16:Mixer_1_initVar
 210 001a C0F20003 		movt	r3, #:upper16:Mixer_1_initVar
 211 001e 4FF00102 		mov	r2, #1
 212 0022 1A70     		strb	r2, [r3, #0]
 213              	.L12:
 229:.\Generated_Source\PSoC5/Mixer_1.c ****     }
 230:.\Generated_Source\PSoC5/Mixer_1.c ****     /* Enable the power to the block */
 231:.\Generated_Source\PSoC5/Mixer_1.c ****     Mixer_1_Enable();
 214              		.loc 1 231 0
 215 0024 FFF7FEFF 		bl	Mixer_1_Enable
 232:.\Generated_Source\PSoC5/Mixer_1.c ****     
 233:.\Generated_Source\PSoC5/Mixer_1.c **** }
 216              		.loc 1 233 0
 217 0028 80BD     		pop	{r7, pc}
 218              		.cfi_endproc
 219              	.LFE2:
ARM GAS  C:\Users\karunmj\AppData\Local\Temp\cc7G1F5f.s 			page 9


 220              		.size	Mixer_1_Start, .-Mixer_1_Start
 221 002a 00BF     		.section	.text.Mixer_1_Stop,"ax",%progbits
 222              		.align	2
 223              		.global	Mixer_1_Stop
 224              		.thumb
 225              		.thumb_func
 226              		.type	Mixer_1_Stop, %function
 227              	Mixer_1_Stop:
 228              	.LFB3:
 234:.\Generated_Source\PSoC5/Mixer_1.c **** 
 235:.\Generated_Source\PSoC5/Mixer_1.c **** 
 236:.\Generated_Source\PSoC5/Mixer_1.c **** /*******************************************************************************
 237:.\Generated_Source\PSoC5/Mixer_1.c **** * Function Name: Mixer_1_Stop
 238:.\Generated_Source\PSoC5/Mixer_1.c **** ********************************************************************************
 239:.\Generated_Source\PSoC5/Mixer_1.c **** *
 240:.\Generated_Source\PSoC5/Mixer_1.c **** * Summary:
 241:.\Generated_Source\PSoC5/Mixer_1.c **** *  Disables power to SC block.
 242:.\Generated_Source\PSoC5/Mixer_1.c **** *
 243:.\Generated_Source\PSoC5/Mixer_1.c **** * Parameters:  
 244:.\Generated_Source\PSoC5/Mixer_1.c **** *  void 
 245:.\Generated_Source\PSoC5/Mixer_1.c **** *
 246:.\Generated_Source\PSoC5/Mixer_1.c **** * Return: 
 247:.\Generated_Source\PSoC5/Mixer_1.c **** *  void 
 248:.\Generated_Source\PSoC5/Mixer_1.c **** *
 249:.\Generated_Source\PSoC5/Mixer_1.c **** *******************************************************************************/
 250:.\Generated_Source\PSoC5/Mixer_1.c **** void Mixer_1_Stop(void) 
 251:.\Generated_Source\PSoC5/Mixer_1.c **** {       
 229              		.loc 1 251 0
 230              		.cfi_startproc
 231              		@ args = 0, pretend = 0, frame = 0
 232              		@ frame_needed = 1, uses_anonymous_args = 0
 233              		@ link register save eliminated.
 234 0000 80B4     		push	{r7}
 235              	.LCFI7:
 236              		.cfi_def_cfa_offset 4
 237 0002 00AF     		add	r7, sp, #0
 238              		.cfi_offset 7, -4
 239              	.LCFI8:
 240              		.cfi_def_cfa_register 7
 252:.\Generated_Source\PSoC5/Mixer_1.c ****     /* Disble power to the Amp in Active mode template */
 253:.\Generated_Source\PSoC5/Mixer_1.c ****     Mixer_1_PM_ACT_CFG_REG &= (uint8)(~Mixer_1_ACT_PWR_EN);
 241              		.loc 1 253 0
 242 0004 44F2A933 		movw	r3, #:lower16:1073759145
 243 0008 C4F20003 		movt	r3, #:upper16:1073759145
 244 000c 44F2A932 		movw	r2, #:lower16:1073759145
 245 0010 C4F20002 		movt	r2, #:upper16:1073759145
 246 0014 1278     		ldrb	r2, [r2, #0]
 247 0016 D2B2     		uxtb	r2, r2
 248 0018 02F0FE02 		and	r2, r2, #254
 249 001c 1A70     		strb	r2, [r3, #0]
 254:.\Generated_Source\PSoC5/Mixer_1.c **** 
 255:.\Generated_Source\PSoC5/Mixer_1.c ****     /* Disble power to the Amp in Alternative Active mode template */
 256:.\Generated_Source\PSoC5/Mixer_1.c ****     Mixer_1_PM_STBY_CFG_REG &= (uint8)(~Mixer_1_STBY_PWR_EN);
 250              		.loc 1 256 0
 251 001e 44F2B933 		movw	r3, #:lower16:1073759161
 252 0022 C4F20003 		movt	r3, #:upper16:1073759161
 253 0026 44F2B932 		movw	r2, #:lower16:1073759161
ARM GAS  C:\Users\karunmj\AppData\Local\Temp\cc7G1F5f.s 			page 10


 254 002a C4F20002 		movt	r2, #:upper16:1073759161
 255 002e 1278     		ldrb	r2, [r2, #0]
 256 0030 D2B2     		uxtb	r2, r2
 257 0032 02F0FE02 		and	r2, r2, #254
 258 0036 1A70     		strb	r2, [r3, #0]
 257:.\Generated_Source\PSoC5/Mixer_1.c ****     
 258:.\Generated_Source\PSoC5/Mixer_1.c ****     #if (!CY_PSOC5A)
 259:.\Generated_Source\PSoC5/Mixer_1.c ****         #if (CYDEV_VARIABLE_VDDA == 1u)
 260:.\Generated_Source\PSoC5/Mixer_1.c ****             Mixer_1_BSTCLK_REG &= (uint8)(~Mixer_1_BST_CLK_EN);
 261:.\Generated_Source\PSoC5/Mixer_1.c ****             /* Disable pumps only if there aren't any SC block in use */
 262:.\Generated_Source\PSoC5/Mixer_1.c ****             if ((Mixer_1_PM_ACT_CFG_REG & Mixer_1_PM_ACT_CFG_MASK) == 0u)
 263:.\Generated_Source\PSoC5/Mixer_1.c ****             {
 264:.\Generated_Source\PSoC5/Mixer_1.c ****                 Mixer_1_SC_MISC_REG &= (uint8)(~Mixer_1_PUMP_FORCE);
 265:.\Generated_Source\PSoC5/Mixer_1.c ****                 Mixer_1_PUMP_CR1_REG &= (uint8)(~Mixer_1_PUMP_CR1_SC_CLKSEL);
 266:.\Generated_Source\PSoC5/Mixer_1.c ****                 CyScBoostClk_Stop();
 267:.\Generated_Source\PSoC5/Mixer_1.c ****             }
 268:.\Generated_Source\PSoC5/Mixer_1.c ****         #endif /* CYDEV_VARIABLE_VDDA == 1u */
 269:.\Generated_Source\PSoC5/Mixer_1.c ****     #endif /* (CY_PSOC3 || CY_PSOC5LP) */
 270:.\Generated_Source\PSoC5/Mixer_1.c ****     
 271:.\Generated_Source\PSoC5/Mixer_1.c ****     /* This sets Sample and hold in zero current mode and output routes are valid */
 272:.\Generated_Source\PSoC5/Mixer_1.c ****     #if (CY_PSOC5A)
 273:.\Generated_Source\PSoC5/Mixer_1.c ****         Mixer_1_P5backup.scCR1Reg = Mixer_1_CR1_REG;
 274:.\Generated_Source\PSoC5/Mixer_1.c ****         Mixer_1_P5backup.scCR2Reg = Mixer_1_CR2_REG;
 275:.\Generated_Source\PSoC5/Mixer_1.c ****         Mixer_1_CR1_REG = 0x00u;
 276:.\Generated_Source\PSoC5/Mixer_1.c ****         Mixer_1_CR2_REG = 0x00u;
 277:.\Generated_Source\PSoC5/Mixer_1.c ****         Mixer_1_P5backup.enableState = 1u;
 278:.\Generated_Source\PSoC5/Mixer_1.c ****     #endif /* CY_PSOC5A */  
 279:.\Generated_Source\PSoC5/Mixer_1.c ****     
 280:.\Generated_Source\PSoC5/Mixer_1.c ****     /* Disable aclk */
 281:.\Generated_Source\PSoC5/Mixer_1.c ****     #if(Mixer_1_LO_SOURCE == Mixer_1_LO_SOURCE_INTERNAL)
 282:.\Generated_Source\PSoC5/Mixer_1.c ****         /* Disable power to clock */
 283:.\Generated_Source\PSoC5/Mixer_1.c ****         Mixer_1_PWRMGR_ACLK_REG &= (uint8)(~Mixer_1_ACT_PWR_ACLK_EN);
 284:.\Generated_Source\PSoC5/Mixer_1.c ****         Mixer_1_STBY_PWRMGR_ACLK_REG &= (uint8)(~Mixer_1_STBY_PWR_ACLK_EN);
 285:.\Generated_Source\PSoC5/Mixer_1.c ****         /* Disable the clock */
 286:.\Generated_Source\PSoC5/Mixer_1.c ****         Mixer_1_aclk_Disable();
 287:.\Generated_Source\PSoC5/Mixer_1.c ****     #endif /* Mixer_1_LO_SOURCE == Mixer_1_LO_SOURCE_INTERNAL */
 288:.\Generated_Source\PSoC5/Mixer_1.c **** }
 259              		.loc 1 288 0
 260 0038 BD46     		mov	sp, r7
 261 003a 80BC     		pop	{r7}
 262 003c 7047     		bx	lr
 263              		.cfi_endproc
 264              	.LFE3:
 265              		.size	Mixer_1_Stop, .-Mixer_1_Stop
 266 003e 00BF     		.section	.text.Mixer_1_SetPower,"ax",%progbits
 267              		.align	2
 268              		.global	Mixer_1_SetPower
 269              		.thumb
 270              		.thumb_func
 271              		.type	Mixer_1_SetPower, %function
 272              	Mixer_1_SetPower:
 273              	.LFB4:
 289:.\Generated_Source\PSoC5/Mixer_1.c **** 
 290:.\Generated_Source\PSoC5/Mixer_1.c **** 
 291:.\Generated_Source\PSoC5/Mixer_1.c **** /*******************************************************************************
 292:.\Generated_Source\PSoC5/Mixer_1.c **** * Function Name: Mixer_1_SetPower
 293:.\Generated_Source\PSoC5/Mixer_1.c **** ********************************************************************************
ARM GAS  C:\Users\karunmj\AppData\Local\Temp\cc7G1F5f.s 			page 11


 294:.\Generated_Source\PSoC5/Mixer_1.c **** *
 295:.\Generated_Source\PSoC5/Mixer_1.c **** * Summary:
 296:.\Generated_Source\PSoC5/Mixer_1.c **** *  Set the drive power of the MIXER
 297:.\Generated_Source\PSoC5/Mixer_1.c **** *
 298:.\Generated_Source\PSoC5/Mixer_1.c **** * Parameters:  
 299:.\Generated_Source\PSoC5/Mixer_1.c **** *  power:  Sets power level between (0) and (3) high power
 300:.\Generated_Source\PSoC5/Mixer_1.c **** *
 301:.\Generated_Source\PSoC5/Mixer_1.c **** * Return: 
 302:.\Generated_Source\PSoC5/Mixer_1.c **** *  void 
 303:.\Generated_Source\PSoC5/Mixer_1.c **** *
 304:.\Generated_Source\PSoC5/Mixer_1.c **** *******************************************************************************/
 305:.\Generated_Source\PSoC5/Mixer_1.c **** void Mixer_1_SetPower(uint8 power) 
 306:.\Generated_Source\PSoC5/Mixer_1.c **** {
 274              		.loc 1 306 0
 275              		.cfi_startproc
 276              		@ args = 0, pretend = 0, frame = 16
 277              		@ frame_needed = 1, uses_anonymous_args = 0
 278              		@ link register save eliminated.
 279 0000 80B4     		push	{r7}
 280              	.LCFI9:
 281              		.cfi_def_cfa_offset 4
 282 0002 85B0     		sub	sp, sp, #20
 283              	.LCFI10:
 284              		.cfi_def_cfa_offset 24
 285 0004 00AF     		add	r7, sp, #0
 286              		.cfi_offset 7, -4
 287              	.LCFI11:
 288              		.cfi_def_cfa_register 7
 289 0006 0346     		mov	r3, r0
 290 0008 FB71     		strb	r3, [r7, #7]
 307:.\Generated_Source\PSoC5/Mixer_1.c ****     uint8 tmpCR;
 308:.\Generated_Source\PSoC5/Mixer_1.c **** 
 309:.\Generated_Source\PSoC5/Mixer_1.c ****     /* Sets drive bits in SC Block Control Register 1:  SCxx_CR[1:0] */    
 310:.\Generated_Source\PSoC5/Mixer_1.c ****     tmpCR = Mixer_1_CR1_REG & (uint8)(~Mixer_1_DRIVE_MASK);
 291              		.loc 1 310 0
 292 000a 45F60103 		movw	r3, #:lower16:1073764353
 293 000e C4F20003 		movt	r3, #:upper16:1073764353
 294 0012 1B78     		ldrb	r3, [r3, #0]
 295 0014 DBB2     		uxtb	r3, r3
 296 0016 23F00303 		bic	r3, r3, #3
 297 001a FB73     		strb	r3, [r7, #15]
 311:.\Generated_Source\PSoC5/Mixer_1.c ****     tmpCR |= (power & Mixer_1_DRIVE_MASK);
 298              		.loc 1 311 0
 299 001c FB79     		ldrb	r3, [r7, #7]	@ zero_extendqisi2
 300 001e 03F00303 		and	r3, r3, #3
 301 0022 FA7B     		ldrb	r2, [r7, #15]
 302 0024 43EA0203 		orr	r3, r3, r2
 303 0028 FB73     		strb	r3, [r7, #15]
 312:.\Generated_Source\PSoC5/Mixer_1.c ****     Mixer_1_CR1_REG = tmpCR;  
 304              		.loc 1 312 0
 305 002a 45F60103 		movw	r3, #:lower16:1073764353
 306 002e C4F20003 		movt	r3, #:upper16:1073764353
 307 0032 FA7B     		ldrb	r2, [r7, #15]
 308 0034 1A70     		strb	r2, [r3, #0]
 313:.\Generated_Source\PSoC5/Mixer_1.c **** }
 309              		.loc 1 313 0
 310 0036 07F11407 		add	r7, r7, #20
ARM GAS  C:\Users\karunmj\AppData\Local\Temp\cc7G1F5f.s 			page 12


 311 003a BD46     		mov	sp, r7
 312 003c 80BC     		pop	{r7}
 313 003e 7047     		bx	lr
 314              		.cfi_endproc
 315              	.LFE4:
 316              		.size	Mixer_1_SetPower, .-Mixer_1_SetPower
 317              		.text
 318              	.Letext0: