ARM GAS  C:\Users\karunmj\AppData\Local\Temp\ccepvkiC.s 			page 1


   1              		.syntax unified
   2              		.cpu cortex-m3
   3              		.fpu softvfp
   4              		.eabi_attribute 20, 1
   5              		.eabi_attribute 21, 1
   6              		.eabi_attribute 23, 3
   7              		.eabi_attribute 24, 1
   8              		.eabi_attribute 25, 1
   9              		.eabi_attribute 26, 1
  10              		.eabi_attribute 30, 6
  11              		.eabi_attribute 18, 4
  12              		.thumb
  13              		.file	"PWM_2_PM.c"
  20 0000 C9000000 		.text
  20      02006C00 
  20      00000201 
  20      FB0E0D00 
  20      01010101 
  21              	.Ltext0:
  22              		.cfi_sections	.debug_frame
  23              		.bss
  24              		.align	2
  25              	PWM_2_backup:
  26 0000 000000   		.space	3
  27 0003 00       		.section	.text.PWM_2_SaveConfig,"ax",%progbits
  28              		.align	2
  29              		.global	PWM_2_SaveConfig
  30              		.thumb
  31              		.thumb_func
  32              		.type	PWM_2_SaveConfig, %function
  33              	PWM_2_SaveConfig:
  34              	.LFB0:
  35              		.file 1 ".\\Generated_Source\\PSoC5\\PWM_2_PM.c"
   1:.\Generated_Source\PSoC5/PWM_2_PM.c **** /*******************************************************************************
   2:.\Generated_Source\PSoC5/PWM_2_PM.c **** * File Name: PWM_2_PM.c
   3:.\Generated_Source\PSoC5/PWM_2_PM.c **** * Version 2.40
   4:.\Generated_Source\PSoC5/PWM_2_PM.c **** *
   5:.\Generated_Source\PSoC5/PWM_2_PM.c **** * Description:
   6:.\Generated_Source\PSoC5/PWM_2_PM.c **** *  This file provides the power management source code to API for the
   7:.\Generated_Source\PSoC5/PWM_2_PM.c **** *  PWM.
   8:.\Generated_Source\PSoC5/PWM_2_PM.c **** *
   9:.\Generated_Source\PSoC5/PWM_2_PM.c **** * Note:
  10:.\Generated_Source\PSoC5/PWM_2_PM.c **** *
  11:.\Generated_Source\PSoC5/PWM_2_PM.c **** ********************************************************************************
  12:.\Generated_Source\PSoC5/PWM_2_PM.c **** * Copyright 2008-2012, Cypress Semiconductor Corporation.  All rights reserved.
  13:.\Generated_Source\PSoC5/PWM_2_PM.c **** * You may use this file only in accordance with the license, terms, conditions,
  14:.\Generated_Source\PSoC5/PWM_2_PM.c **** * disclaimers, and limitations in the end user license agreement accompanying
  15:.\Generated_Source\PSoC5/PWM_2_PM.c **** * the software package with which this file was provided.
  16:.\Generated_Source\PSoC5/PWM_2_PM.c **** *******************************************************************************/
  17:.\Generated_Source\PSoC5/PWM_2_PM.c **** #include "cytypes.h"
  18:.\Generated_Source\PSoC5/PWM_2_PM.c **** #include "PWM_2.h"
ARM GAS  C:\Users\karunmj\AppData\Local\Temp\ccepvkiC.s 			page 2


  19:.\Generated_Source\PSoC5/PWM_2_PM.c **** 
  20:.\Generated_Source\PSoC5/PWM_2_PM.c **** static PWM_2_backupStruct PWM_2_backup;
  21:.\Generated_Source\PSoC5/PWM_2_PM.c **** 
  22:.\Generated_Source\PSoC5/PWM_2_PM.c **** 
  23:.\Generated_Source\PSoC5/PWM_2_PM.c **** /*******************************************************************************
  24:.\Generated_Source\PSoC5/PWM_2_PM.c **** * Function Name: PWM_2_SaveConfig
  25:.\Generated_Source\PSoC5/PWM_2_PM.c **** ********************************************************************************
  26:.\Generated_Source\PSoC5/PWM_2_PM.c **** *
  27:.\Generated_Source\PSoC5/PWM_2_PM.c **** * Summary:
  28:.\Generated_Source\PSoC5/PWM_2_PM.c **** *  Saves the current user configuration of the component.
  29:.\Generated_Source\PSoC5/PWM_2_PM.c **** *  
  30:.\Generated_Source\PSoC5/PWM_2_PM.c **** * Parameters:  
  31:.\Generated_Source\PSoC5/PWM_2_PM.c **** *  None
  32:.\Generated_Source\PSoC5/PWM_2_PM.c **** *
  33:.\Generated_Source\PSoC5/PWM_2_PM.c **** * Return: 
  34:.\Generated_Source\PSoC5/PWM_2_PM.c **** *  None
  35:.\Generated_Source\PSoC5/PWM_2_PM.c **** *
  36:.\Generated_Source\PSoC5/PWM_2_PM.c **** * Global variables:
  37:.\Generated_Source\PSoC5/PWM_2_PM.c **** *  PWM_2_backup:  Variables of this global structure are modified to 
  38:.\Generated_Source\PSoC5/PWM_2_PM.c **** *  store the values of non retention configuration registers when Sleep() API is 
  39:.\Generated_Source\PSoC5/PWM_2_PM.c **** *  called.
  40:.\Generated_Source\PSoC5/PWM_2_PM.c **** *
  41:.\Generated_Source\PSoC5/PWM_2_PM.c **** *******************************************************************************/
  42:.\Generated_Source\PSoC5/PWM_2_PM.c **** void PWM_2_SaveConfig(void) 
  43:.\Generated_Source\PSoC5/PWM_2_PM.c **** {
  36              		.loc 1 43 0
  37              		.cfi_startproc
  38              		@ args = 0, pretend = 0, frame = 0
  39              		@ frame_needed = 1, uses_anonymous_args = 0
  40 0000 80B5     		push	{r7, lr}
  41              	.LCFI0:
  42              		.cfi_def_cfa_offset 8
  43 0002 00AF     		add	r7, sp, #0
  44              		.cfi_offset 14, -4
  45              		.cfi_offset 7, -8
  46              	.LCFI1:
  47              		.cfi_def_cfa_register 7
  44:.\Generated_Source\PSoC5/PWM_2_PM.c ****     
  45:.\Generated_Source\PSoC5/PWM_2_PM.c ****     #if(!PWM_2_UsingFixedFunction)
  46:.\Generated_Source\PSoC5/PWM_2_PM.c ****         #if (CY_UDB_V0)
  47:.\Generated_Source\PSoC5/PWM_2_PM.c ****             PWM_2_backup.PWMUdb = PWM_2_ReadCounter();
  48:.\Generated_Source\PSoC5/PWM_2_PM.c ****             PWM_2_backup.PWMPeriod = PWM_2_ReadPeriod();
  49:.\Generated_Source\PSoC5/PWM_2_PM.c ****             #if (PWM_2_UseStatus)
  50:.\Generated_Source\PSoC5/PWM_2_PM.c ****                 PWM_2_backup.InterruptMaskValue = PWM_2_STATUS_MASK;
  51:.\Generated_Source\PSoC5/PWM_2_PM.c ****             #endif /* (PWM_2_UseStatus) */
  52:.\Generated_Source\PSoC5/PWM_2_PM.c ****             
  53:.\Generated_Source\PSoC5/PWM_2_PM.c ****             #if(PWM_2_UseOneCompareMode)
  54:.\Generated_Source\PSoC5/PWM_2_PM.c ****                 PWM_2_backup.PWMCompareValue = PWM_2_ReadCompare();
  55:.\Generated_Source\PSoC5/PWM_2_PM.c ****             #else
  56:.\Generated_Source\PSoC5/PWM_2_PM.c ****                 PWM_2_backup.PWMCompareValue1 = PWM_2_ReadCompare1();
  57:.\Generated_Source\PSoC5/PWM_2_PM.c ****                 PWM_2_backup.PWMCompareValue2 = PWM_2_ReadCompare2();
  58:.\Generated_Source\PSoC5/PWM_2_PM.c ****             #endif /* (PWM_2_UseOneCompareMode) */
  59:.\Generated_Source\PSoC5/PWM_2_PM.c ****             
  60:.\Generated_Source\PSoC5/PWM_2_PM.c ****            #if(PWM_2_DeadBandUsed)
  61:.\Generated_Source\PSoC5/PWM_2_PM.c ****                 PWM_2_backup.PWMdeadBandValue = PWM_2_ReadDeadTime();
  62:.\Generated_Source\PSoC5/PWM_2_PM.c ****             #endif /* (PWM_2_DeadBandUsed) */
  63:.\Generated_Source\PSoC5/PWM_2_PM.c ****           
ARM GAS  C:\Users\karunmj\AppData\Local\Temp\ccepvkiC.s 			page 3


  64:.\Generated_Source\PSoC5/PWM_2_PM.c ****             #if ( PWM_2_KillModeMinTime)
  65:.\Generated_Source\PSoC5/PWM_2_PM.c ****                 PWM_2_backup.PWMKillCounterPeriod = PWM_2_ReadKillTime();
  66:.\Generated_Source\PSoC5/PWM_2_PM.c ****             #endif /* ( PWM_2_KillModeMinTime) */
  67:.\Generated_Source\PSoC5/PWM_2_PM.c ****         #endif /* (CY_UDB_V0) */
  68:.\Generated_Source\PSoC5/PWM_2_PM.c ****         
  69:.\Generated_Source\PSoC5/PWM_2_PM.c ****         #if (CY_UDB_V1)
  70:.\Generated_Source\PSoC5/PWM_2_PM.c ****             #if(!PWM_2_PWMModeIsCenterAligned)
  71:.\Generated_Source\PSoC5/PWM_2_PM.c ****                 PWM_2_backup.PWMPeriod = PWM_2_ReadPeriod();
  72:.\Generated_Source\PSoC5/PWM_2_PM.c ****             #endif /* (!PWM_2_PWMModeIsCenterAligned) */
  73:.\Generated_Source\PSoC5/PWM_2_PM.c ****             PWM_2_backup.PWMUdb = PWM_2_ReadCounter();
  48              		.loc 1 73 0
  49 0004 FFF7FEFF 		bl	PWM_2_ReadCounter
  50 0008 0346     		mov	r3, r0
  51 000a 1A46     		mov	r2, r3
  52 000c 40F20003 		movw	r3, #:lower16:PWM_2_backup
  53 0010 C0F20003 		movt	r3, #:upper16:PWM_2_backup
  54 0014 5A70     		strb	r2, [r3, #1]
  74:.\Generated_Source\PSoC5/PWM_2_PM.c ****             #if (PWM_2_UseStatus)
  75:.\Generated_Source\PSoC5/PWM_2_PM.c ****                 PWM_2_backup.InterruptMaskValue = PWM_2_STATUS_MASK;
  76:.\Generated_Source\PSoC5/PWM_2_PM.c ****             #endif /* (PWM_2_UseStatus) */
  77:.\Generated_Source\PSoC5/PWM_2_PM.c ****             
  78:.\Generated_Source\PSoC5/PWM_2_PM.c ****             #if(PWM_2_DeadBandMode == PWM_2__B_PWM__DBM_256_CLOCKS || \
  79:.\Generated_Source\PSoC5/PWM_2_PM.c ****                 PWM_2_DeadBandMode == PWM_2__B_PWM__DBM_2_4_CLOCKS)
  80:.\Generated_Source\PSoC5/PWM_2_PM.c ****                 PWM_2_backup.PWMdeadBandValue = PWM_2_ReadDeadTime();
  81:.\Generated_Source\PSoC5/PWM_2_PM.c ****             #endif /*  deadband count is either 2-4 clocks or 256 clocks */
  82:.\Generated_Source\PSoC5/PWM_2_PM.c ****             
  83:.\Generated_Source\PSoC5/PWM_2_PM.c ****             #if(PWM_2_KillModeMinTime)
  84:.\Generated_Source\PSoC5/PWM_2_PM.c ****                  PWM_2_backup.PWMKillCounterPeriod = PWM_2_ReadKillTime();
  85:.\Generated_Source\PSoC5/PWM_2_PM.c ****             #endif /* (PWM_2_KillModeMinTime) */
  86:.\Generated_Source\PSoC5/PWM_2_PM.c ****         #endif /* (CY_UDB_V1) */
  87:.\Generated_Source\PSoC5/PWM_2_PM.c ****         
  88:.\Generated_Source\PSoC5/PWM_2_PM.c ****         #if(PWM_2_UseControl)
  89:.\Generated_Source\PSoC5/PWM_2_PM.c ****             PWM_2_backup.PWMControlRegister = PWM_2_ReadControlRegister();
  55              		.loc 1 89 0
  56 0016 FFF7FEFF 		bl	PWM_2_ReadControlRegister
  57 001a 0346     		mov	r3, r0
  58 001c 1A46     		mov	r2, r3
  59 001e 40F20003 		movw	r3, #:lower16:PWM_2_backup
  60 0022 C0F20003 		movt	r3, #:upper16:PWM_2_backup
  61 0026 9A70     		strb	r2, [r3, #2]
  90:.\Generated_Source\PSoC5/PWM_2_PM.c ****         #endif /* (PWM_2_UseControl) */
  91:.\Generated_Source\PSoC5/PWM_2_PM.c ****     #endif  /* (!PWM_2_UsingFixedFunction) */
  92:.\Generated_Source\PSoC5/PWM_2_PM.c **** }
  62              		.loc 1 92 0
  63 0028 80BD     		pop	{r7, pc}
  64              		.cfi_endproc
  65              	.LFE0:
  66              		.size	PWM_2_SaveConfig, .-PWM_2_SaveConfig
  67 002a 00BF     		.section	.text.PWM_2_RestoreConfig,"ax",%progbits
  68              		.align	2
  69              		.global	PWM_2_RestoreConfig
  70              		.thumb
  71              		.thumb_func
  72              		.type	PWM_2_RestoreConfig, %function
  73              	PWM_2_RestoreConfig:
  74              	.LFB1:
  93:.\Generated_Source\PSoC5/PWM_2_PM.c **** 
ARM GAS  C:\Users\karunmj\AppData\Local\Temp\ccepvkiC.s 			page 4


  94:.\Generated_Source\PSoC5/PWM_2_PM.c **** 
  95:.\Generated_Source\PSoC5/PWM_2_PM.c **** /*******************************************************************************
  96:.\Generated_Source\PSoC5/PWM_2_PM.c **** * Function Name: PWM_2_RestoreConfig
  97:.\Generated_Source\PSoC5/PWM_2_PM.c **** ********************************************************************************
  98:.\Generated_Source\PSoC5/PWM_2_PM.c **** * 
  99:.\Generated_Source\PSoC5/PWM_2_PM.c **** * Summary:
 100:.\Generated_Source\PSoC5/PWM_2_PM.c **** *  Restores the current user configuration of the component.
 101:.\Generated_Source\PSoC5/PWM_2_PM.c **** *
 102:.\Generated_Source\PSoC5/PWM_2_PM.c **** * Parameters:  
 103:.\Generated_Source\PSoC5/PWM_2_PM.c **** *  None
 104:.\Generated_Source\PSoC5/PWM_2_PM.c **** *
 105:.\Generated_Source\PSoC5/PWM_2_PM.c **** * Return: 
 106:.\Generated_Source\PSoC5/PWM_2_PM.c **** *  None
 107:.\Generated_Source\PSoC5/PWM_2_PM.c **** *
 108:.\Generated_Source\PSoC5/PWM_2_PM.c **** * Global variables:
 109:.\Generated_Source\PSoC5/PWM_2_PM.c **** *  PWM_2_backup:  Variables of this global structure are used to  
 110:.\Generated_Source\PSoC5/PWM_2_PM.c **** *  restore the values of non retention registers on wakeup from sleep mode.
 111:.\Generated_Source\PSoC5/PWM_2_PM.c **** *
 112:.\Generated_Source\PSoC5/PWM_2_PM.c **** *******************************************************************************/
 113:.\Generated_Source\PSoC5/PWM_2_PM.c **** void PWM_2_RestoreConfig(void) 
 114:.\Generated_Source\PSoC5/PWM_2_PM.c **** {
  75              		.loc 1 114 0
  76              		.cfi_startproc
  77              		@ args = 0, pretend = 0, frame = 0
  78              		@ frame_needed = 1, uses_anonymous_args = 0
  79 0000 80B5     		push	{r7, lr}
  80              	.LCFI2:
  81              		.cfi_def_cfa_offset 8
  82 0002 00AF     		add	r7, sp, #0
  83              		.cfi_offset 14, -4
  84              		.cfi_offset 7, -8
  85              	.LCFI3:
  86              		.cfi_def_cfa_register 7
 115:.\Generated_Source\PSoC5/PWM_2_PM.c ****         #if(!PWM_2_UsingFixedFunction)
 116:.\Generated_Source\PSoC5/PWM_2_PM.c ****             #if (CY_UDB_V0)
 117:.\Generated_Source\PSoC5/PWM_2_PM.c ****                 /* Interrupt State Backup for Critical Region*/
 118:.\Generated_Source\PSoC5/PWM_2_PM.c ****                 uint8 PWM_2_interruptState;
 119:.\Generated_Source\PSoC5/PWM_2_PM.c ****                 /* Enter Critical Region*/
 120:.\Generated_Source\PSoC5/PWM_2_PM.c ****                 PWM_2_interruptState = CyEnterCriticalSection();
 121:.\Generated_Source\PSoC5/PWM_2_PM.c ****                 #if (PWM_2_UseStatus)
 122:.\Generated_Source\PSoC5/PWM_2_PM.c ****                     /* Use the interrupt output of the status register for IRQ output */
 123:.\Generated_Source\PSoC5/PWM_2_PM.c ****                     PWM_2_STATUS_AUX_CTRL |= PWM_2_STATUS_ACTL_INT_EN_MASK;
 124:.\Generated_Source\PSoC5/PWM_2_PM.c ****                     
 125:.\Generated_Source\PSoC5/PWM_2_PM.c ****                     PWM_2_STATUS_MASK = PWM_2_backup.InterruptMaskValue;
 126:.\Generated_Source\PSoC5/PWM_2_PM.c ****                 #endif /* (PWM_2_UseStatus) */
 127:.\Generated_Source\PSoC5/PWM_2_PM.c ****                 
 128:.\Generated_Source\PSoC5/PWM_2_PM.c ****                 #if (PWM_2_Resolution == 8)
 129:.\Generated_Source\PSoC5/PWM_2_PM.c ****                     /* Set FIFO 0 to 1 byte register for period*/
 130:.\Generated_Source\PSoC5/PWM_2_PM.c ****                     PWM_2_AUX_CONTROLDP0 |= (PWM_2_AUX_CTRL_FIFO0_CLR);
 131:.\Generated_Source\PSoC5/PWM_2_PM.c ****                 #else /* (PWM_2_Resolution == 16)*/
 132:.\Generated_Source\PSoC5/PWM_2_PM.c ****                     /* Set FIFO 0 to 1 byte register for period */
 133:.\Generated_Source\PSoC5/PWM_2_PM.c ****                     PWM_2_AUX_CONTROLDP0 |= (PWM_2_AUX_CTRL_FIFO0_CLR);
 134:.\Generated_Source\PSoC5/PWM_2_PM.c ****                     PWM_2_AUX_CONTROLDP1 |= (PWM_2_AUX_CTRL_FIFO0_CLR);
 135:.\Generated_Source\PSoC5/PWM_2_PM.c ****                 #endif /* (PWM_2_Resolution == 8) */
 136:.\Generated_Source\PSoC5/PWM_2_PM.c ****                 /* Exit Critical Region*/
 137:.\Generated_Source\PSoC5/PWM_2_PM.c ****                 CyExitCriticalSection(PWM_2_interruptState);
 138:.\Generated_Source\PSoC5/PWM_2_PM.c ****                 
ARM GAS  C:\Users\karunmj\AppData\Local\Temp\ccepvkiC.s 			page 5


 139:.\Generated_Source\PSoC5/PWM_2_PM.c ****                 PWM_2_WriteCounter(PWM_2_backup.PWMUdb);
 140:.\Generated_Source\PSoC5/PWM_2_PM.c ****                 PWM_2_WritePeriod(PWM_2_backup.PWMPeriod);
 141:.\Generated_Source\PSoC5/PWM_2_PM.c ****                 
 142:.\Generated_Source\PSoC5/PWM_2_PM.c ****                 #if(PWM_2_UseOneCompareMode)
 143:.\Generated_Source\PSoC5/PWM_2_PM.c ****                     PWM_2_WriteCompare(PWM_2_backup.PWMCompareValue);
 144:.\Generated_Source\PSoC5/PWM_2_PM.c ****                 #else
 145:.\Generated_Source\PSoC5/PWM_2_PM.c ****                     PWM_2_WriteCompare1(PWM_2_backup.PWMCompareValue1);
 146:.\Generated_Source\PSoC5/PWM_2_PM.c ****                     PWM_2_WriteCompare2(PWM_2_backup.PWMCompareValue2);
 147:.\Generated_Source\PSoC5/PWM_2_PM.c ****                 #endif /* (PWM_2_UseOneCompareMode) */
 148:.\Generated_Source\PSoC5/PWM_2_PM.c ****                 
 149:.\Generated_Source\PSoC5/PWM_2_PM.c ****                #if(PWM_2_DeadBandMode == PWM_2__B_PWM__DBM_256_CLOCKS || \
 150:.\Generated_Source\PSoC5/PWM_2_PM.c ****                    PWM_2_DeadBandMode == PWM_2__B_PWM__DBM_2_4_CLOCKS)
 151:.\Generated_Source\PSoC5/PWM_2_PM.c ****                     PWM_2_WriteDeadTime(PWM_2_backup.PWMdeadBandValue);
 152:.\Generated_Source\PSoC5/PWM_2_PM.c ****                 #endif /* deadband count is either 2-4 clocks or 256 clocks */
 153:.\Generated_Source\PSoC5/PWM_2_PM.c ****             
 154:.\Generated_Source\PSoC5/PWM_2_PM.c ****                 #if ( PWM_2_KillModeMinTime)
 155:.\Generated_Source\PSoC5/PWM_2_PM.c ****                     PWM_2_WriteKillTime(PWM_2_backup.PWMKillCounterPeriod);
 156:.\Generated_Source\PSoC5/PWM_2_PM.c ****                 #endif /* ( PWM_2_KillModeMinTime) */
 157:.\Generated_Source\PSoC5/PWM_2_PM.c ****             #endif /* (CY_UDB_V0) */
 158:.\Generated_Source\PSoC5/PWM_2_PM.c ****             
 159:.\Generated_Source\PSoC5/PWM_2_PM.c ****             #if (CY_UDB_V1)
 160:.\Generated_Source\PSoC5/PWM_2_PM.c ****                 #if(!PWM_2_PWMModeIsCenterAligned)
 161:.\Generated_Source\PSoC5/PWM_2_PM.c ****                     PWM_2_WritePeriod(PWM_2_backup.PWMPeriod);
 162:.\Generated_Source\PSoC5/PWM_2_PM.c ****                 #endif /* (!PWM_2_PWMModeIsCenterAligned) */
 163:.\Generated_Source\PSoC5/PWM_2_PM.c ****                 PWM_2_WriteCounter(PWM_2_backup.PWMUdb);
  87              		.loc 1 163 0
  88 0004 40F20003 		movw	r3, #:lower16:PWM_2_backup
  89 0008 C0F20003 		movt	r3, #:upper16:PWM_2_backup
  90 000c 5B78     		ldrb	r3, [r3, #1]	@ zero_extendqisi2
  91 000e 1846     		mov	r0, r3
  92 0010 FFF7FEFF 		bl	PWM_2_WriteCounter
 164:.\Generated_Source\PSoC5/PWM_2_PM.c ****                 #if (PWM_2_UseStatus)
 165:.\Generated_Source\PSoC5/PWM_2_PM.c ****                     PWM_2_STATUS_MASK = PWM_2_backup.InterruptMaskValue;
 166:.\Generated_Source\PSoC5/PWM_2_PM.c ****                 #endif /* (PWM_2_UseStatus) */
 167:.\Generated_Source\PSoC5/PWM_2_PM.c ****                 
 168:.\Generated_Source\PSoC5/PWM_2_PM.c ****                 #if(PWM_2_DeadBandMode == PWM_2__B_PWM__DBM_256_CLOCKS || \
 169:.\Generated_Source\PSoC5/PWM_2_PM.c ****                     PWM_2_DeadBandMode == PWM_2__B_PWM__DBM_2_4_CLOCKS)
 170:.\Generated_Source\PSoC5/PWM_2_PM.c ****                     PWM_2_WriteDeadTime(PWM_2_backup.PWMdeadBandValue);
 171:.\Generated_Source\PSoC5/PWM_2_PM.c ****                 #endif /* deadband count is either 2-4 clocks or 256 clocks */
 172:.\Generated_Source\PSoC5/PWM_2_PM.c ****                 
 173:.\Generated_Source\PSoC5/PWM_2_PM.c ****                 #if(PWM_2_KillModeMinTime)
 174:.\Generated_Source\PSoC5/PWM_2_PM.c ****                     PWM_2_WriteKillTime(PWM_2_backup.PWMKillCounterPeriod);
 175:.\Generated_Source\PSoC5/PWM_2_PM.c ****                 #endif /* (PWM_2_KillModeMinTime) */
 176:.\Generated_Source\PSoC5/PWM_2_PM.c ****             #endif /* (CY_UDB_V1) */
 177:.\Generated_Source\PSoC5/PWM_2_PM.c ****             
 178:.\Generated_Source\PSoC5/PWM_2_PM.c ****             #if(PWM_2_UseControl)
 179:.\Generated_Source\PSoC5/PWM_2_PM.c ****                 PWM_2_WriteControlRegister(PWM_2_backup.PWMControlRegister); 
  93              		.loc 1 179 0
  94 0014 40F20003 		movw	r3, #:lower16:PWM_2_backup
  95 0018 C0F20003 		movt	r3, #:upper16:PWM_2_backup
  96 001c 9B78     		ldrb	r3, [r3, #2]	@ zero_extendqisi2
  97 001e 1846     		mov	r0, r3
  98 0020 FFF7FEFF 		bl	PWM_2_WriteControlRegister
 180:.\Generated_Source\PSoC5/PWM_2_PM.c ****             #endif /* (PWM_2_UseControl) */
 181:.\Generated_Source\PSoC5/PWM_2_PM.c ****         #endif  /* (!PWM_2_UsingFixedFunction) */
 182:.\Generated_Source\PSoC5/PWM_2_PM.c ****     }
  99              		.loc 1 182 0
ARM GAS  C:\Users\karunmj\AppData\Local\Temp\ccepvkiC.s 			page 6


 100 0024 80BD     		pop	{r7, pc}
 101              		.cfi_endproc
 102              	.LFE1:
 103              		.size	PWM_2_RestoreConfig, .-PWM_2_RestoreConfig
 104 0026 00BF     		.section	.text.PWM_2_Sleep,"ax",%progbits
 105              		.align	2
 106              		.global	PWM_2_Sleep
 107              		.thumb
 108              		.thumb_func
 109              		.type	PWM_2_Sleep, %function
 110              	PWM_2_Sleep:
 111              	.LFB2:
 183:.\Generated_Source\PSoC5/PWM_2_PM.c **** 
 184:.\Generated_Source\PSoC5/PWM_2_PM.c **** 
 185:.\Generated_Source\PSoC5/PWM_2_PM.c **** /*******************************************************************************
 186:.\Generated_Source\PSoC5/PWM_2_PM.c **** * Function Name: PWM_2_Sleep
 187:.\Generated_Source\PSoC5/PWM_2_PM.c **** ********************************************************************************
 188:.\Generated_Source\PSoC5/PWM_2_PM.c **** * 
 189:.\Generated_Source\PSoC5/PWM_2_PM.c **** * Summary:
 190:.\Generated_Source\PSoC5/PWM_2_PM.c **** *  Disables block's operation and saves the user configuration. Should be called 
 191:.\Generated_Source\PSoC5/PWM_2_PM.c **** *  just prior to entering sleep.
 192:.\Generated_Source\PSoC5/PWM_2_PM.c **** *  
 193:.\Generated_Source\PSoC5/PWM_2_PM.c **** * Parameters:  
 194:.\Generated_Source\PSoC5/PWM_2_PM.c **** *  None
 195:.\Generated_Source\PSoC5/PWM_2_PM.c **** *
 196:.\Generated_Source\PSoC5/PWM_2_PM.c **** * Return: 
 197:.\Generated_Source\PSoC5/PWM_2_PM.c **** *  None
 198:.\Generated_Source\PSoC5/PWM_2_PM.c **** *
 199:.\Generated_Source\PSoC5/PWM_2_PM.c **** * Global variables:
 200:.\Generated_Source\PSoC5/PWM_2_PM.c **** *  PWM_2_backup.PWMEnableState:  Is modified depending on the enable 
 201:.\Generated_Source\PSoC5/PWM_2_PM.c **** *  state of the block before entering sleep mode.
 202:.\Generated_Source\PSoC5/PWM_2_PM.c **** *
 203:.\Generated_Source\PSoC5/PWM_2_PM.c **** *******************************************************************************/
 204:.\Generated_Source\PSoC5/PWM_2_PM.c **** void PWM_2_Sleep(void) 
 205:.\Generated_Source\PSoC5/PWM_2_PM.c **** {
 112              		.loc 1 205 0
 113              		.cfi_startproc
 114              		@ args = 0, pretend = 0, frame = 0
 115              		@ frame_needed = 1, uses_anonymous_args = 0
 116 0000 80B5     		push	{r7, lr}
 117              	.LCFI4:
 118              		.cfi_def_cfa_offset 8
 119 0002 00AF     		add	r7, sp, #0
 120              		.cfi_offset 14, -4
 121              		.cfi_offset 7, -8
 122              	.LCFI5:
 123              		.cfi_def_cfa_register 7
 206:.\Generated_Source\PSoC5/PWM_2_PM.c ****     #if(PWM_2_UseControl)
 207:.\Generated_Source\PSoC5/PWM_2_PM.c ****         if(PWM_2_CTRL_ENABLE == (PWM_2_CONTROL & PWM_2_CTRL_ENABLE))
 124              		.loc 1 207 0
 125 0004 46F27243 		movw	r3, #:lower16:1073767538
 126 0008 C4F20003 		movt	r3, #:upper16:1073767538
 127 000c 1B78     		ldrb	r3, [r3, #0]
 128 000e DBB2     		uxtb	r3, r3
 129 0010 5BB2     		sxtb	r3, r3
 130 0012 002B     		cmp	r3, #0
 131 0014 07DA     		bge	.L6
ARM GAS  C:\Users\karunmj\AppData\Local\Temp\ccepvkiC.s 			page 7


 208:.\Generated_Source\PSoC5/PWM_2_PM.c ****         {
 209:.\Generated_Source\PSoC5/PWM_2_PM.c ****             /*Component is enabled */
 210:.\Generated_Source\PSoC5/PWM_2_PM.c ****             PWM_2_backup.PWMEnableState = 1u;
 132              		.loc 1 210 0
 133 0016 40F20003 		movw	r3, #:lower16:PWM_2_backup
 134 001a C0F20003 		movt	r3, #:upper16:PWM_2_backup
 135 001e 4FF00102 		mov	r2, #1
 136 0022 1A70     		strb	r2, [r3, #0]
 137 0024 06E0     		b	.L7
 138              	.L6:
 211:.\Generated_Source\PSoC5/PWM_2_PM.c ****         }
 212:.\Generated_Source\PSoC5/PWM_2_PM.c ****         else
 213:.\Generated_Source\PSoC5/PWM_2_PM.c ****         {
 214:.\Generated_Source\PSoC5/PWM_2_PM.c ****             /* Component is disabled */
 215:.\Generated_Source\PSoC5/PWM_2_PM.c ****             PWM_2_backup.PWMEnableState = 0u;
 139              		.loc 1 215 0
 140 0026 40F20003 		movw	r3, #:lower16:PWM_2_backup
 141 002a C0F20003 		movt	r3, #:upper16:PWM_2_backup
 142 002e 4FF00002 		mov	r2, #0
 143 0032 1A70     		strb	r2, [r3, #0]
 144              	.L7:
 216:.\Generated_Source\PSoC5/PWM_2_PM.c ****         }
 217:.\Generated_Source\PSoC5/PWM_2_PM.c ****     #endif /* (PWM_2_UseControl) */
 218:.\Generated_Source\PSoC5/PWM_2_PM.c **** 
 219:.\Generated_Source\PSoC5/PWM_2_PM.c ****     /* Stop component */
 220:.\Generated_Source\PSoC5/PWM_2_PM.c ****     PWM_2_Stop();
 145              		.loc 1 220 0
 146 0034 FFF7FEFF 		bl	PWM_2_Stop
 221:.\Generated_Source\PSoC5/PWM_2_PM.c ****     
 222:.\Generated_Source\PSoC5/PWM_2_PM.c ****     /* Save registers configuration */
 223:.\Generated_Source\PSoC5/PWM_2_PM.c ****     PWM_2_SaveConfig();
 147              		.loc 1 223 0
 148 0038 FFF7FEFF 		bl	PWM_2_SaveConfig
 224:.\Generated_Source\PSoC5/PWM_2_PM.c **** }
 149              		.loc 1 224 0
 150 003c 80BD     		pop	{r7, pc}
 151              		.cfi_endproc
 152              	.LFE2:
 153              		.size	PWM_2_Sleep, .-PWM_2_Sleep
 154 003e 00BF     		.section	.text.PWM_2_Wakeup,"ax",%progbits
 155              		.align	2
 156              		.global	PWM_2_Wakeup
 157              		.thumb
 158              		.thumb_func
 159              		.type	PWM_2_Wakeup, %function
 160              	PWM_2_Wakeup:
 161              	.LFB3:
 225:.\Generated_Source\PSoC5/PWM_2_PM.c **** 
 226:.\Generated_Source\PSoC5/PWM_2_PM.c **** 
 227:.\Generated_Source\PSoC5/PWM_2_PM.c **** /*******************************************************************************
 228:.\Generated_Source\PSoC5/PWM_2_PM.c **** * Function Name: PWM_2_Wakeup
 229:.\Generated_Source\PSoC5/PWM_2_PM.c **** ********************************************************************************
 230:.\Generated_Source\PSoC5/PWM_2_PM.c **** * 
 231:.\Generated_Source\PSoC5/PWM_2_PM.c **** * Summary:
 232:.\Generated_Source\PSoC5/PWM_2_PM.c **** *  Restores and enables the user configuration. Should be called just after 
 233:.\Generated_Source\PSoC5/PWM_2_PM.c **** *  awaking from sleep.
 234:.\Generated_Source\PSoC5/PWM_2_PM.c **** *  
ARM GAS  C:\Users\karunmj\AppData\Local\Temp\ccepvkiC.s 			page 8


 235:.\Generated_Source\PSoC5/PWM_2_PM.c **** * Parameters:  
 236:.\Generated_Source\PSoC5/PWM_2_PM.c **** *  None
 237:.\Generated_Source\PSoC5/PWM_2_PM.c **** *
 238:.\Generated_Source\PSoC5/PWM_2_PM.c **** * Return: 
 239:.\Generated_Source\PSoC5/PWM_2_PM.c **** *  None
 240:.\Generated_Source\PSoC5/PWM_2_PM.c **** *
 241:.\Generated_Source\PSoC5/PWM_2_PM.c **** * Global variables:
 242:.\Generated_Source\PSoC5/PWM_2_PM.c **** *  PWM_2_backup.pwmEnable:  Is used to restore the enable state of 
 243:.\Generated_Source\PSoC5/PWM_2_PM.c **** *  block on wakeup from sleep mode.
 244:.\Generated_Source\PSoC5/PWM_2_PM.c **** *
 245:.\Generated_Source\PSoC5/PWM_2_PM.c **** *******************************************************************************/
 246:.\Generated_Source\PSoC5/PWM_2_PM.c **** void PWM_2_Wakeup(void) 
 247:.\Generated_Source\PSoC5/PWM_2_PM.c **** {
 162              		.loc 1 247 0
 163              		.cfi_startproc
 164              		@ args = 0, pretend = 0, frame = 0
 165              		@ frame_needed = 1, uses_anonymous_args = 0
 166 0000 80B5     		push	{r7, lr}
 167              	.LCFI6:
 168              		.cfi_def_cfa_offset 8
 169 0002 00AF     		add	r7, sp, #0
 170              		.cfi_offset 14, -4
 171              		.cfi_offset 7, -8
 172              	.LCFI7:
 173              		.cfi_def_cfa_register 7
 248:.\Generated_Source\PSoC5/PWM_2_PM.c ****      /* Restore registers values */
 249:.\Generated_Source\PSoC5/PWM_2_PM.c ****     PWM_2_RestoreConfig();
 174              		.loc 1 249 0
 175 0004 FFF7FEFF 		bl	PWM_2_RestoreConfig
 250:.\Generated_Source\PSoC5/PWM_2_PM.c ****     
 251:.\Generated_Source\PSoC5/PWM_2_PM.c ****     if(PWM_2_backup.PWMEnableState != 0u)
 176              		.loc 1 251 0
 177 0008 40F20003 		movw	r3, #:lower16:PWM_2_backup
 178 000c C0F20003 		movt	r3, #:upper16:PWM_2_backup
 179 0010 1B78     		ldrb	r3, [r3, #0]	@ zero_extendqisi2
 180 0012 002B     		cmp	r3, #0
 181 0014 01D0     		beq	.L11
 252:.\Generated_Source\PSoC5/PWM_2_PM.c ****     {
 253:.\Generated_Source\PSoC5/PWM_2_PM.c ****         /* Enable component's operation */
 254:.\Generated_Source\PSoC5/PWM_2_PM.c ****         PWM_2_Enable();
 182              		.loc 1 254 0
 183 0016 FFF7FEFF 		bl	PWM_2_Enable
 184              	.L11:
 255:.\Generated_Source\PSoC5/PWM_2_PM.c ****     } /* Do nothing if component's block was disabled before */
 256:.\Generated_Source\PSoC5/PWM_2_PM.c ****     
 257:.\Generated_Source\PSoC5/PWM_2_PM.c **** }
 185              		.loc 1 257 0
 186 001a 80BD     		pop	{r7, pc}
 187              		.cfi_endproc
 188              	.LFE3:
 189              		.size	PWM_2_Wakeup, .-PWM_2_Wakeup
 190              		.text
 191              	.Letext0: