ARM GAS  C:\Users\karunmj\AppData\Local\Temp\cchRH7Af.s 			page 1


   1              		.syntax unified
   2              		.cpu cortex-m3
   3              		.fpu softvfp
   4              		.eabi_attribute 20, 1
   5              		.eabi_attribute 21, 1
   6              		.eabi_attribute 23, 3
   7              		.eabi_attribute 24, 1
   8              		.eabi_attribute 25, 1
   9              		.eabi_attribute 26, 1
  10              		.eabi_attribute 30, 6
  11              		.eabi_attribute 18, 4
  12              		.thumb
  13              		.file	"BatteryVoltage.c"
  20 0000 7D000000 		.text
  20      02005D00 
  20      00000201 
  20      FB0E0D00 
  20      01010101 
  21              	.Ltext0:
  22              		.cfi_sections	.debug_frame
  23              		.global	__aeabi_fmul
  24              		.section	.text.ReadBatteryVoltage,"ax",%progbits
  25              		.align	2
  26              		.global	ReadBatteryVoltage
  27              		.thumb
  28              		.thumb_func
  29              		.type	ReadBatteryVoltage, %function
  30              	ReadBatteryVoltage:
  31              	.LFB29:
  32              		.file 1 ".\\BatteryVoltage.c"
   1:.\BatteryVoltage.c **** /* ========================================
   2:.\BatteryVoltage.c ****  *
   3:.\BatteryVoltage.c ****  * Copyright YOUR COMPANY, THE YEAR
   4:.\BatteryVoltage.c ****  * All Rights Reserved
   5:.\BatteryVoltage.c ****  * UNPUBLISHED, LICENSED SOFTWARE.
   6:.\BatteryVoltage.c ****  *
   7:.\BatteryVoltage.c ****  * CONFIDENTIAL AND PROPRIETARY INFORMATION
   8:.\BatteryVoltage.c ****  * WHICH IS THE PROPERTY OF your company.
   9:.\BatteryVoltage.c ****  *
  10:.\BatteryVoltage.c ****  * ========================================
  11:.\BatteryVoltage.c **** */
  12:.\BatteryVoltage.c **** #include "ADC_SAR_1.h"
  13:.\BatteryVoltage.c **** #include "BatteryVoltage.h"
  14:.\BatteryVoltage.c **** 
  15:.\BatteryVoltage.c **** 
  16:.\BatteryVoltage.c **** uint8 ReadBatteryVoltage(float* voltage){
  33              		.loc 1 16 0
  34              		.cfi_startproc
  35              		@ args = 0, pretend = 0, frame = 16
  36              		@ frame_needed = 1, uses_anonymous_args = 0
  37 0000 80B5     		push	{r7, lr}
ARM GAS  C:\Users\karunmj\AppData\Local\Temp\cchRH7Af.s 			page 2


  38              	.LCFI0:
  39              		.cfi_def_cfa_offset 8
  40 0002 84B0     		sub	sp, sp, #16
  41              	.LCFI1:
  42              		.cfi_def_cfa_offset 24
  43 0004 00AF     		add	r7, sp, #0
  44              		.cfi_offset 14, -4
  45              		.cfi_offset 7, -8
  46              	.LCFI2:
  47              		.cfi_def_cfa_register 7
  48 0006 7860     		str	r0, [r7, #4]
  17:.\BatteryVoltage.c ****     float tmp = 0.0;
  49              		.loc 1 17 0
  50 0008 174B     		ldr	r3, .L3	@ float
  51 000a FB60     		str	r3, [r7, #12]	@ float
  18:.\BatteryVoltage.c ****     
  19:.\BatteryVoltage.c ****     //Enable battery volatge input
  20:.\BatteryVoltage.c ****     VBAT_EN_Write(1u);
  52              		.loc 1 20 0
  53 000c 4FF00100 		mov	r0, #1
  54 0010 FFF7FEFF 		bl	VBAT_EN_Write
  21:.\BatteryVoltage.c ****     //let it settle 50us
  22:.\BatteryVoltage.c ****     CyDelay(10u);
  55              		.loc 1 22 0
  56 0014 4FF00A00 		mov	r0, #10
  57 0018 FFF7FEFF 		bl	CyDelay
  23:.\BatteryVoltage.c ****     ADC_SAR_1_StartConvert();
  58              		.loc 1 23 0
  59 001c FFF7FEFF 		bl	ADC_SAR_1_StartConvert
  24:.\BatteryVoltage.c ****     CyDelay(10u);
  60              		.loc 1 24 0
  61 0020 4FF00A00 		mov	r0, #10
  62 0024 FFF7FEFF 		bl	CyDelay
  25:.\BatteryVoltage.c ****     //ADC_SAR_1_IsEndConversion(ADC_SAR_1_RETURN_STATUS);
  26:.\BatteryVoltage.c ****     tmp =  ADC_SAR_1_CountsTo_Volts(ADC_SAR_1_GetResult16());
  63              		.loc 1 26 0
  64 0028 FFF7FEFF 		bl	ADC_SAR_1_GetResult16
  65 002c 0346     		mov	r3, r0
  66 002e 9BB2     		uxth	r3, r3
  67 0030 1BB2     		sxth	r3, r3
  68 0032 1846     		mov	r0, r3
  69 0034 FFF7FEFF 		bl	ADC_SAR_1_CountsTo_Volts
  70 0038 0346     		mov	r3, r0
  71 003a FB60     		str	r3, [r7, #12]	@ float
  27:.\BatteryVoltage.c ****     ADC_SAR_1_StopConvert();
  72              		.loc 1 27 0
  73 003c FFF7FEFF 		bl	ADC_SAR_1_StopConvert
  28:.\BatteryVoltage.c ****     //Disable battery volatge input
  29:.\BatteryVoltage.c ****     VBAT_EN_Write(0u);
  74              		.loc 1 29 0
  75 0040 4FF00000 		mov	r0, #0
  76 0044 FFF7FEFF 		bl	VBAT_EN_Write
  30:.\BatteryVoltage.c ****     *voltage = tmp*(11);//convert based on voltage divider (1KOhm and 10 KOhm)
  77              		.loc 1 30 0
  78 0048 F868     		ldr	r0, [r7, #12]	@ float
  79 004a 0849     		ldr	r1, .L3+4	@ float
  80 004c FFF7FEFF 		bl	__aeabi_fmul
ARM GAS  C:\Users\karunmj\AppData\Local\Temp\cchRH7Af.s 			page 3


  81 0050 0346     		mov	r3, r0
  82 0052 1A46     		mov	r2, r3
  83 0054 7B68     		ldr	r3, [r7, #4]
  84 0056 1A60     		str	r2, [r3, #0]	@ float
  31:.\BatteryVoltage.c ****     return 1u;
  85              		.loc 1 31 0
  86 0058 4FF00103 		mov	r3, #1
  32:.\BatteryVoltage.c **** }...
  87              		.loc 1 32 0
  88 005c 1846     		mov	r0, r3
  89 005e 07F11007 		add	r7, r7, #16
  90 0062 BD46     		mov	sp, r7
  91 0064 80BD     		pop	{r7, pc}
  92              	.L4:
  93 0066 00BF     		.align	2
  94              	.L3:
  95 0068 00000000 		.word	0
  96 006c 00003041 		.word	1093664768
  97              		.cfi_endproc
  98              	.LFE29:
  99              		.size	ReadBatteryVoltage, .-ReadBatteryVoltage
 100              		.text
 101              	.Letext0: