ARM GAS  C:\Users\karunmj\AppData\Local\Temp\ccmNrU1x.s 			page 1


   1              		.syntax unified
   2              		.cpu cortex-m3
   3              		.fpu softvfp
   4              		.eabi_attribute 20, 1
   5              		.eabi_attribute 21, 1
   6              		.eabi_attribute 23, 3
   7              		.eabi_attribute 24, 1
   8              		.eabi_attribute 25, 1
   9              		.eabi_attribute 26, 1
  10              		.eabi_attribute 30, 6
  11              		.eabi_attribute 18, 4
  12              		.thumb
  13              		.file	"debug.c"
  20 0000 1F010000 		.text
  20      02009C00 
  20      00000201 
  20      FB0E0D00 
  20      01010101 
  21              	.Ltext0:
  22              		.cfi_sections	.debug_frame
  23              		.global	write_to_log
  24              		.data
  25              		.type	write_to_log, %object
  26              		.size	write_to_log, 1
  27              	write_to_log:
  28 0000 01       		.byte	1
  29              		.comm	debug_packet,256,4
  30              		.global	debug_file
  31              		.section	.rodata
  32              		.align	2
  33              	.LC0:
  34 0000 64656275 		.ascii	"debuglog.txt\000"
  34      676C6F67 
  34      2E747874 
  34      00
  35              		.data
  36 0001 000000   		.align	2
  37              		.type	debug_file, %object
  38              		.size	debug_file, 4
  39              	debug_file:
  40 0004 00000000 		.word	.LC0
  41              		.section	.text.debug_on,"ax",%progbits
  42              		.align	2
  43              		.global	debug_on
  44              		.thumb
  45              		.thumb_func
  46              		.type	debug_on, %function
  47              	debug_on:
  48              	.LFB29:
  49              		.file 1 ".\\debug.c"
   1:.\debug.c     **** /* ========================================
ARM GAS  C:\Users\karunmj\AppData\Local\Temp\ccmNrU1x.s 			page 2


   2:.\debug.c     ****  *
   3:.\debug.c     ****  * Copyright YOUR COMPANY, THE YEAR
   4:.\debug.c     ****  * All Rights Reserved
   5:.\debug.c     ****  * UNPUBLISHED, LICENSED SOFTWARE.
   6:.\debug.c     ****  *
   7:.\debug.c     ****  * CONFIDENTIAL AND PROPRIETARY INFORMATION
   8:.\debug.c     ****  * WHICH IS THE PROPERTY OF your company.
   9:.\debug.c     ****  *
  10:.\debug.c     ****  * ========================================
  11:.\debug.c     **** */
  12:.\debug.c     **** #include "debug.h"
  13:.\debug.c     **** #include "neomote.h"
  14:.\debug.c     **** 
  15:.\debug.c     **** uint8 write_to_log = 1u;
  16:.\debug.c     **** char debug_packet[MAX_DEBUG_LENGTH];
  17:.\debug.c     **** char* debug_file = "debuglog.txt";
  18:.\debug.c     **** 
  19:.\debug.c     **** uint8 debug_on() {
  50              		.loc 1 19 0
  51              		.cfi_startproc
  52              		@ args = 0, pretend = 0, frame = 0
  53              		@ frame_needed = 1, uses_anonymous_args = 0
  54              		@ link register save eliminated.
  55 0000 80B4     		push	{r7}
  56              	.LCFI0:
  57              		.cfi_def_cfa_offset 4
  58 0002 00AF     		add	r7, sp, #0
  59              		.cfi_offset 7, -4
  60              	.LCFI1:
  61              		.cfi_def_cfa_register 7
  20:.\debug.c     ****     //FS_Init() command needed?
  21:.\debug.c     ****     return write_to_log = 1u;    
  62              		.loc 1 21 0
  63 0004 40F20003 		movw	r3, #:lower16:write_to_log
  64 0008 C0F20003 		movt	r3, #:upper16:write_to_log
  65 000c 4FF00102 		mov	r2, #1
  66 0010 1A70     		strb	r2, [r3, #0]
  67 0012 40F20003 		movw	r3, #:lower16:write_to_log
  68 0016 C0F20003 		movt	r3, #:upper16:write_to_log
  69 001a 1B78     		ldrb	r3, [r3, #0]	@ zero_extendqisi2
  22:.\debug.c     **** }
  70              		.loc 1 22 0
  71 001c 1846     		mov	r0, r3
  72 001e BD46     		mov	sp, r7
  73 0020 80BC     		pop	{r7}
  74 0022 7047     		bx	lr
  75              		.cfi_endproc
  76              	.LFE29:
  77              		.size	debug_on, .-debug_on
  78              		.section	.text.debug_off,"ax",%progbits
  79              		.align	2
  80              		.global	debug_off
  81              		.thumb
  82              		.thumb_func
  83              		.type	debug_off, %function
  84              	debug_off:
  85              	.LFB30:
ARM GAS  C:\Users\karunmj\AppData\Local\Temp\ccmNrU1x.s 			page 3


  23:.\debug.c     **** 
  24:.\debug.c     **** uint8 debug_off() {
  86              		.loc 1 24 0
  87              		.cfi_startproc
  88              		@ args = 0, pretend = 0, frame = 0
  89              		@ frame_needed = 1, uses_anonymous_args = 0
  90              		@ link register save eliminated.
  91 0000 80B4     		push	{r7}
  92              	.LCFI2:
  93              		.cfi_def_cfa_offset 4
  94 0002 00AF     		add	r7, sp, #0
  95              		.cfi_offset 7, -4
  96              	.LCFI3:
  97              		.cfi_def_cfa_register 7
  25:.\debug.c     ****     return write_to_log = 0u;    
  98              		.loc 1 25 0
  99 0004 40F20003 		movw	r3, #:lower16:write_to_log
 100 0008 C0F20003 		movt	r3, #:upper16:write_to_log
 101 000c 4FF00002 		mov	r2, #0
 102 0010 1A70     		strb	r2, [r3, #0]
 103 0012 40F20003 		movw	r3, #:lower16:write_to_log
 104 0016 C0F20003 		movt	r3, #:upper16:write_to_log
 105 001a 1B78     		ldrb	r3, [r3, #0]	@ zero_extendqisi2
  26:.\debug.c     **** }
 106              		.loc 1 26 0
 107 001c 1846     		mov	r0, r3
 108 001e BD46     		mov	sp, r7
 109 0020 80BC     		pop	{r7}
 110 0022 7047     		bx	lr
 111              		.cfi_endproc
 112              	.LFE30:
 113              		.size	debug_off, .-debug_off
 114              		.section	.text.debug_is_on,"ax",%progbits
 115              		.align	2
 116              		.global	debug_is_on
 117              		.thumb
 118              		.thumb_func
 119              		.type	debug_is_on, %function
 120              	debug_is_on:
 121              	.LFB31:
  27:.\debug.c     **** 
  28:.\debug.c     **** uint8 debug_is_on() {
 122              		.loc 1 28 0
 123              		.cfi_startproc
 124              		@ args = 0, pretend = 0, frame = 0
 125              		@ frame_needed = 1, uses_anonymous_args = 0
 126              		@ link register save eliminated.
 127 0000 80B4     		push	{r7}
 128              	.LCFI4:
 129              		.cfi_def_cfa_offset 4
 130 0002 00AF     		add	r7, sp, #0
 131              		.cfi_offset 7, -4
 132              	.LCFI5:
 133              		.cfi_def_cfa_register 7
  29:.\debug.c     ****     return write_to_log;    
 134              		.loc 1 29 0
 135 0004 40F20003 		movw	r3, #:lower16:write_to_log
ARM GAS  C:\Users\karunmj\AppData\Local\Temp\ccmNrU1x.s 			page 4


 136 0008 C0F20003 		movt	r3, #:upper16:write_to_log
 137 000c 1B78     		ldrb	r3, [r3, #0]	@ zero_extendqisi2
  30:.\debug.c     **** }
 138              		.loc 1 30 0
 139 000e 1846     		mov	r0, r3
 140 0010 BD46     		mov	sp, r7
 141 0012 80BC     		pop	{r7}
 142 0014 7047     		bx	lr
 143              		.cfi_endproc
 144              	.LFE31:
 145              		.size	debug_is_on, .-debug_is_on
 146 0016 00BF     		.section	.rodata
 147 000d 000000   		.align	2
 148              	.LC1:
 149 0010 0D0A2564 		.ascii	"\015\012%d:%d:%d %d/%d/%d -- [ID %d] %s\000"
 149      3A25643A 
 149      25642025 
 149      642F2564 
 149      2F256420 
 150 0032 0000     		.align	2
 151              	.LC2:
 152 0034 6100     		.ascii	"a\000"
 153 0036 0000     		.section	.text.debug_write,"ax",%progbits
 154              		.align	2
 155              		.global	debug_write
 156              		.thumb
 157              		.thumb_func
 158              		.type	debug_write, %function
 159              	debug_write:
 160              	.LFB32:
  31:.\debug.c     **** 
  32:.\debug.c     **** void debug_write(const void *pData){
 161              		.loc 1 32 0
 162              		.cfi_startproc
 163              		@ args = 0, pretend = 0, frame = 16
 164              		@ frame_needed = 1, uses_anonymous_args = 0
 165 0000 B0B5     		push	{r4, r5, r7, lr}
 166              	.LCFI6:
 167              		.cfi_def_cfa_offset 16
 168 0002 8AB0     		sub	sp, sp, #40
 169              	.LCFI7:
 170              		.cfi_def_cfa_offset 56
 171 0004 06AF     		add	r7, sp, #24
 172              		.cfi_offset 14, -4
 173              		.cfi_offset 7, -8
 174              		.cfi_offset 5, -12
 175              		.cfi_offset 4, -16
 176              	.LCFI8:
 177              		.cfi_def_cfa 7, 32
 178 0006 7860     		str	r0, [r7, #4]
  33:.\debug.c     ****     if(write_to_log) {
 179              		.loc 1 33 0
 180 0008 40F20003 		movw	r3, #:lower16:write_to_log
 181 000c C0F20003 		movt	r3, #:upper16:write_to_log
 182 0010 1B78     		ldrb	r3, [r3, #0]	@ zero_extendqisi2
 183 0012 002B     		cmp	r3, #0
 184 0014 40D0     		beq	.L9
ARM GAS  C:\Users\karunmj\AppData\Local\Temp\ccmNrU1x.s 			page 5


 185              	.LBB2:
  34:.\debug.c     **** /*
  35:.\debug.c     ****         uint8 i;
  36:.\debug.c     ****         for(i = 0u; i < MAX_DEBUG_LENGTH; i++){
  37:.\debug.c     ****             debug_packet[i] = 0u;
  38:.\debug.c     ****         }
  39:.\debug.c     **** */
  40:.\debug.c     ****         NeoRtcTimeStruct tm_neo = NeoRTC_Read_Time();
 186              		.loc 1 40 0
 187 0016 07F10803 		add	r3, r7, #8
 188 001a 1846     		mov	r0, r3
 189 001c FFF7FEFF 		bl	NeoRTC_Read_Time
  41:.\debug.c     **** 
  42:.\debug.c     ****         sprintf((char*) &debug_packet[0], "\r\n%d:%d:%d %d/%d/%d -- [ID %d] %s", tm_neo.hour, tm_ne
 190              		.loc 1 42 0
 191 0020 BB7A     		ldrb	r3, [r7, #10]	@ zero_extendqisi2
 192 0022 1A46     		mov	r2, r3
 193 0024 7B7A     		ldrb	r3, [r7, #9]	@ zero_extendqisi2
 194 0026 9C46     		mov	ip, r3
  43:.\debug.c     ****                          tm_neo.second, tm_neo.day, tm_neo.month, tm_neo.year, 
 195              		.loc 1 43 0
 196 0028 3B7A     		ldrb	r3, [r7, #8]	@ zero_extendqisi2
 197              		.loc 1 42 0
 198 002a 1D46     		mov	r5, r3
 199              		.loc 1 43 0
 200 002c FB7A     		ldrb	r3, [r7, #11]	@ zero_extendqisi2
 201              		.loc 1 42 0
 202 002e 1C46     		mov	r4, r3
 203              		.loc 1 43 0
 204 0030 7B7B     		ldrb	r3, [r7, #13]	@ zero_extendqisi2
 205              		.loc 1 42 0
 206 0032 9E46     		mov	lr, r3
 207              		.loc 1 43 0
 208 0034 FB89     		ldrh	r3, [r7, #14]
 209              		.loc 1 42 0
 210 0036 1846     		mov	r0, r3
 211 0038 40F20003 		movw	r3, #:lower16:moteID
 212 003c C0F20003 		movt	r3, #:upper16:moteID
 213 0040 1B78     		ldrb	r3, [r3, #0]	@ zero_extendqisi2
 214 0042 1946     		mov	r1, r3
 215 0044 7B68     		ldr	r3, [r7, #4]
 216 0046 0095     		str	r5, [sp, #0]
 217 0048 0194     		str	r4, [sp, #4]
 218 004a CDF808E0 		str	lr, [sp, #8]
 219 004e 0390     		str	r0, [sp, #12]
 220 0050 0491     		str	r1, [sp, #16]
 221 0052 0593     		str	r3, [sp, #20]
 222 0054 40F20000 		movw	r0, #:lower16:debug_packet
 223 0058 C0F20000 		movt	r0, #:upper16:debug_packet
 224 005c 40F20001 		movw	r1, #:lower16:.LC1
 225 0060 C0F20001 		movt	r1, #:upper16:.LC1
 226 0064 6346     		mov	r3, ip
 227 0066 FFF7FEFF 		bl	sprintf
  44:.\debug.c     ****                          moteID, (const char*) pData);
  45:.\debug.c     ****                          
  46:.\debug.c     ****         Write_Debug_To_SD_Card((const char*) debug_file, "a",  debug_packet, strlen(debug_packet));
 228              		.loc 1 46 0
ARM GAS  C:\Users\karunmj\AppData\Local\Temp\ccmNrU1x.s 			page 6


 229 006a 40F20003 		movw	r3, #:lower16:debug_file
 230 006e C0F20003 		movt	r3, #:upper16:debug_file
 231 0072 1C68     		ldr	r4, [r3, #0]
 232 0074 40F20000 		movw	r0, #:lower16:debug_packet
 233 0078 C0F20000 		movt	r0, #:upper16:debug_packet
 234 007c FFF7FEFF 		bl	strlen
 235 0080 0346     		mov	r3, r0
 236 0082 2046     		mov	r0, r4
 237 0084 40F20001 		movw	r1, #:lower16:.LC2
 238 0088 C0F20001 		movt	r1, #:upper16:.LC2
 239 008c 40F20002 		movw	r2, #:lower16:debug_packet
 240 0090 C0F20002 		movt	r2, #:upper16:debug_packet
 241 0094 FFF7FEFF 		bl	Write_Debug_To_SD_Card
 242              	.L9:
 243              	.LBE2:
  47:.\debug.c     ****     }
  48:.\debug.c     **** }
 244              		.loc 1 48 0
 245 0098 07F11007 		add	r7, r7, #16
 246 009c BD46     		mov	sp, r7
 247 009e B0BD     		pop	{r4, r5, r7, pc}
 248              		.cfi_endproc
 249              	.LFE32:
 250              		.size	debug_write, .-debug_write
 251              		.section	.text.Write_Debug_To_SD_Card,"ax",%progbits
 252              		.align	2
 253              		.global	Write_Debug_To_SD_Card
 254              		.thumb
 255              		.thumb_func
 256              		.type	Write_Debug_To_SD_Card, %function
 257              	Write_Debug_To_SD_Card:
 258              	.LFB33:
  49:.\debug.c     **** 
  50:.\debug.c     **** void Write_Debug_To_SD_Card(const char* fileName, const char* pMode, const void* pData, U32 NumByte
 259              		.loc 1 50 0
 260              		.cfi_startproc
 261              		@ args = 0, pretend = 0, frame = 32
 262              		@ frame_needed = 1, uses_anonymous_args = 0
 263 0000 80B5     		push	{r7, lr}
 264              	.LCFI9:
 265              		.cfi_def_cfa_offset 8
 266 0002 88B0     		sub	sp, sp, #32
 267              	.LCFI10:
 268              		.cfi_def_cfa_offset 40
 269 0004 00AF     		add	r7, sp, #0
 270              		.cfi_offset 14, -4
 271              		.cfi_offset 7, -8
 272              	.LCFI11:
 273              		.cfi_def_cfa_register 7
 274 0006 F860     		str	r0, [r7, #12]
 275 0008 B960     		str	r1, [r7, #8]
 276 000a 7A60     		str	r2, [r7, #4]
 277 000c 3B60     		str	r3, [r7, #0]
  51:.\debug.c     **** // Remember to add line below to rtcCallBack Function
  52:.\debug.c     **** // Write_To_SD_Card("myData.txt","a",sendBuffer,strlen(sendBuffer));
  53:.\debug.c     **** 
  54:.\debug.c     ****     NEOMOTE_1_SD_Card_Power_Write(0u); // Power on the SD Card
ARM GAS  C:\Users\karunmj\AppData\Local\Temp\ccmNrU1x.s 			page 7


 278              		.loc 1 54 0
 279 000e 4FF00000 		mov	r0, #0
 280 0012 FFF7FEFF 		bl	NEOMOTE_1_SD_Card_Power_Write
  55:.\debug.c     ****     
  56:.\debug.c     ****     FS_FILE *  pFile;
  57:.\debug.c     ****     char sdVolName[10];  // Buffer that will hold SD card Volume name
  58:.\debug.c     ****     
  59:.\debug.c     ****     if (0 != FS_GetVolumeName(0, &sdVolName[0], 9)) {
 281              		.loc 1 59 0
 282 0016 07F11003 		add	r3, r7, #16
 283 001a 4FF00000 		mov	r0, #0
 284 001e 1946     		mov	r1, r3
 285 0020 4FF00902 		mov	r2, #9
 286 0024 FFF7FEFF 		bl	FS_GetVolumeName
 287 0028 0346     		mov	r3, r0
 288 002a 002B     		cmp	r3, #0
 289 002c 1AD0     		beq	.L11
  60:.\debug.c     ****         pFile = FS_FOpen(fileName, pMode);
 290              		.loc 1 60 0
 291 002e F868     		ldr	r0, [r7, #12]
 292 0030 B968     		ldr	r1, [r7, #8]
 293 0032 FFF7FEFF 		bl	FS_FOpen
 294 0036 0346     		mov	r3, r0
 295 0038 FB61     		str	r3, [r7, #28]
  61:.\debug.c     ****         if (pFile == 0){
 296              		.loc 1 61 0
 297 003a FB69     		ldr	r3, [r7, #28]
 298 003c 002B     		cmp	r3, #0
 299 003e 09D1     		bne	.L12
  62:.\debug.c     ****             FS_DeInit();
 300              		.loc 1 62 0
 301 0040 FFF7FEFF 		bl	FS_DeInit
  63:.\debug.c     ****             FS_Init(); //poipoi debug error
 302              		.loc 1 63 0
 303 0044 FFF7FEFF 		bl	FS_Init
  64:.\debug.c     ****             pFile = FS_FOpen(fileName, pMode);
 304              		.loc 1 64 0
 305 0048 F868     		ldr	r0, [r7, #12]
 306 004a B968     		ldr	r1, [r7, #8]
 307 004c FFF7FEFF 		bl	FS_FOpen
 308 0050 0346     		mov	r3, r0
 309 0052 FB61     		str	r3, [r7, #28]
 310              	.L12:
  65:.\debug.c     ****         }
  66:.\debug.c     ****         FS_Write(pFile, pData, NumBytes);
 311              		.loc 1 66 0
 312 0054 F869     		ldr	r0, [r7, #28]
 313 0056 7968     		ldr	r1, [r7, #4]
 314 0058 3A68     		ldr	r2, [r7, #0]
 315 005a FFF7FEFF 		bl	FS_Write
  67:.\debug.c     ****         FS_FClose(pFile);
 316              		.loc 1 67 0
 317 005e F869     		ldr	r0, [r7, #28]
 318 0060 FFF7FEFF 		bl	FS_FClose
 319              	.L11:
  68:.\debug.c     ****     }
  69:.\debug.c     ****     
ARM GAS  C:\Users\karunmj\AppData\Local\Temp\ccmNrU1x.s 			page 8


  70:.\debug.c     ****     NEOMOTE_1_SD_Card_Power_Write(1u); // Power off the SD Card
 320              		.loc 1 70 0
 321 0064 4FF00100 		mov	r0, #1
 322 0068 FFF7FEFF 		bl	NEOMOTE_1_SD_Card_Power_Write
  71:.\debug.c     **** 
  72:.\debug.c     **** }
 323              		.loc 1 72 0
 324 006c 07F12007 		add	r7, r7, #32
 325 0070 BD46     		mov	sp, r7
 326 0072 80BD     		pop	{r7, pc}
 327              		.cfi_endproc
 328              	.LFE33:
 329              		.size	Write_Debug_To_SD_Card, .-Write_Debug_To_SD_Card
 330              		.section	.text.clear_debug_packet,"ax",%progbits
 331              		.align	2
 332              		.global	clear_debug_packet
 333              		.thumb
 334              		.thumb_func
 335              		.type	clear_debug_packet, %function
 336              	clear_debug_packet:
 337              	.LFB34:
  73:.\debug.c     **** 
  74:.\debug.c     **** void clear_debug_packet() {
 338              		.loc 1 74 0
 339              		.cfi_startproc
 340              		@ args = 0, pretend = 0, frame = 0
 341              		@ frame_needed = 1, uses_anonymous_args = 0
 342 0000 80B5     		push	{r7, lr}
 343              	.LCFI12:
 344              		.cfi_def_cfa_offset 8
 345 0002 00AF     		add	r7, sp, #0
 346              		.cfi_offset 14, -4
 347              		.cfi_offset 7, -8
 348              	.LCFI13:
 349              		.cfi_def_cfa_register 7
  75:.\debug.c     **** /*
  76:.\debug.c     ****     uint8 i;
  77:.\debug.c     ****     for(i = 0u; i < MAX_DEBUG_LENGTH; i++){
  78:.\debug.c     ****         debug_packet[i] = 0u;
  79:.\debug.c     ****     }
  80:.\debug.c     **** */
  81:.\debug.c     ****     memset(&debug_packet[0],0,sizeof(debug_packet));
 350              		.loc 1 81 0
 351 0004 40F20000 		movw	r0, #:lower16:debug_packet
 352 0008 C0F20000 		movt	r0, #:upper16:debug_packet
 353 000c 4FF00001 		mov	r1, #0
 354 0010 4FF48072 		mov	r2, #256
 355 0014 FFF7FEFF 		bl	memset
  82:.\debug.c     **** }
 356              		.loc 1 82 0
 357 0018 80BD     		pop	{r7, pc}
 358              		.cfi_endproc
 359              	.LFE34:
 360              		.size	clear_debug_packet, .-clear_debug_packet
 361 001a 00BF     		.text
 362              	.Letext0: