ARM GAS  C:\Users\karunmj\AppData\Local\Temp\ccQSW7Rx.s 			page 1


   1              		.syntax unified
   2              		.cpu cortex-m3
   3              		.fpu softvfp
   4              		.eabi_attribute 20, 1
   5              		.eabi_attribute 21, 1
   6              		.eabi_attribute 23, 3
   7              		.eabi_attribute 24, 1
   8              		.eabi_attribute 25, 1
   9              		.eabi_attribute 26, 1
  10              		.eabi_attribute 30, 6
  11              		.eabi_attribute 18, 4
  12              		.thumb
  13              		.file	"Comp_4_PM.c"
  20 0000 BE000000 		.text
  20      02006E00 
  20      00000201 
  20      FB0E0D00 
  20      01010101 
  21              	.Ltext0:
  22              		.cfi_sections	.debug_frame
  23              		.bss
  24              		.align	2
  25              	Comp_4_backup:
  26 0000 00       		.space	1
  27 0001 000000   		.section	.text.Comp_4_SaveConfig,"ax",%progbits
  28              		.align	2
  29              		.global	Comp_4_SaveConfig
  30              		.thumb
  31              		.thumb_func
  32              		.type	Comp_4_SaveConfig, %function
  33              	Comp_4_SaveConfig:
  34              	.LFB0:
  35              		.file 1 ".\\Generated_Source\\PSoC5\\Comp_4_PM.c"
   1:.\Generated_Source\PSoC5/Comp_4_PM.c **** /*******************************************************************************
   2:.\Generated_Source\PSoC5/Comp_4_PM.c **** * File Name: Comp_4.c
   3:.\Generated_Source\PSoC5/Comp_4_PM.c **** * Version 2.0
   4:.\Generated_Source\PSoC5/Comp_4_PM.c **** *
   5:.\Generated_Source\PSoC5/Comp_4_PM.c **** * Description:
   6:.\Generated_Source\PSoC5/Comp_4_PM.c **** *  This file provides the power management source code APIs for the
   7:.\Generated_Source\PSoC5/Comp_4_PM.c **** *  Comparator.
   8:.\Generated_Source\PSoC5/Comp_4_PM.c **** *
   9:.\Generated_Source\PSoC5/Comp_4_PM.c **** * Note:
  10:.\Generated_Source\PSoC5/Comp_4_PM.c **** *  None
  11:.\Generated_Source\PSoC5/Comp_4_PM.c **** *
  12:.\Generated_Source\PSoC5/Comp_4_PM.c **** ********************************************************************************
  13:.\Generated_Source\PSoC5/Comp_4_PM.c **** * Copyright 2008-2012, Cypress Semiconductor Corporation.  All rights reserved.
  14:.\Generated_Source\PSoC5/Comp_4_PM.c **** * You may use this file only in accordance with the license, terms, conditions, 
  15:.\Generated_Source\PSoC5/Comp_4_PM.c **** * disclaimers, and limitations in the end user license agreement accompanying 
  16:.\Generated_Source\PSoC5/Comp_4_PM.c **** * the software package with which this file was provided.
  17:.\Generated_Source\PSoC5/Comp_4_PM.c **** *******************************************************************************/
  18:.\Generated_Source\PSoC5/Comp_4_PM.c **** 
ARM GAS  C:\Users\karunmj\AppData\Local\Temp\ccQSW7Rx.s 			page 2


  19:.\Generated_Source\PSoC5/Comp_4_PM.c **** #include "Comp_4.h"
  20:.\Generated_Source\PSoC5/Comp_4_PM.c **** 
  21:.\Generated_Source\PSoC5/Comp_4_PM.c **** static Comp_4_backupStruct Comp_4_backup;
  22:.\Generated_Source\PSoC5/Comp_4_PM.c **** 
  23:.\Generated_Source\PSoC5/Comp_4_PM.c **** 
  24:.\Generated_Source\PSoC5/Comp_4_PM.c **** /*******************************************************************************
  25:.\Generated_Source\PSoC5/Comp_4_PM.c **** * Function Name: Comp_4_SaveConfig
  26:.\Generated_Source\PSoC5/Comp_4_PM.c **** ********************************************************************************
  27:.\Generated_Source\PSoC5/Comp_4_PM.c **** *
  28:.\Generated_Source\PSoC5/Comp_4_PM.c **** * Summary:
  29:.\Generated_Source\PSoC5/Comp_4_PM.c **** *  Save the current user configuration
  30:.\Generated_Source\PSoC5/Comp_4_PM.c **** *
  31:.\Generated_Source\PSoC5/Comp_4_PM.c **** * Parameters:
  32:.\Generated_Source\PSoC5/Comp_4_PM.c **** *  void:
  33:.\Generated_Source\PSoC5/Comp_4_PM.c **** *
  34:.\Generated_Source\PSoC5/Comp_4_PM.c **** * Return:
  35:.\Generated_Source\PSoC5/Comp_4_PM.c **** *  void
  36:.\Generated_Source\PSoC5/Comp_4_PM.c **** *
  37:.\Generated_Source\PSoC5/Comp_4_PM.c **** *******************************************************************************/
  38:.\Generated_Source\PSoC5/Comp_4_PM.c **** void Comp_4_SaveConfig(void) 
  39:.\Generated_Source\PSoC5/Comp_4_PM.c **** {
  36              		.loc 1 39 0
  37              		.cfi_startproc
  38              		@ args = 0, pretend = 0, frame = 0
  39              		@ frame_needed = 1, uses_anonymous_args = 0
  40              		@ link register save eliminated.
  41 0000 80B4     		push	{r7}
  42              	.LCFI0:
  43              		.cfi_def_cfa_offset 4
  44 0002 00AF     		add	r7, sp, #0
  45              		.cfi_offset 7, -4
  46              	.LCFI1:
  47              		.cfi_def_cfa_register 7
  40:.\Generated_Source\PSoC5/Comp_4_PM.c ****     /* Empty since all are system reset for retention flops */
  41:.\Generated_Source\PSoC5/Comp_4_PM.c **** }
  48              		.loc 1 41 0
  49 0004 BD46     		mov	sp, r7
  50 0006 80BC     		pop	{r7}
  51 0008 7047     		bx	lr
  52              		.cfi_endproc
  53              	.LFE0:
  54              		.size	Comp_4_SaveConfig, .-Comp_4_SaveConfig
  55 000a 00BF     		.section	.text.Comp_4_RestoreConfig,"ax",%progbits
  56              		.align	2
  57              		.global	Comp_4_RestoreConfig
  58              		.thumb
  59              		.thumb_func
  60              		.type	Comp_4_RestoreConfig, %function
  61              	Comp_4_RestoreConfig:
  62              	.LFB1:
  42:.\Generated_Source\PSoC5/Comp_4_PM.c **** 
  43:.\Generated_Source\PSoC5/Comp_4_PM.c **** 
  44:.\Generated_Source\PSoC5/Comp_4_PM.c **** /*******************************************************************************
  45:.\Generated_Source\PSoC5/Comp_4_PM.c **** * Function Name: Comp_4_RestoreConfig
  46:.\Generated_Source\PSoC5/Comp_4_PM.c **** ********************************************************************************
  47:.\Generated_Source\PSoC5/Comp_4_PM.c **** *
  48:.\Generated_Source\PSoC5/Comp_4_PM.c **** * Summary:
ARM GAS  C:\Users\karunmj\AppData\Local\Temp\ccQSW7Rx.s 			page 3


  49:.\Generated_Source\PSoC5/Comp_4_PM.c **** *  Restores the current user configuration.
  50:.\Generated_Source\PSoC5/Comp_4_PM.c **** *
  51:.\Generated_Source\PSoC5/Comp_4_PM.c **** * Parameters:
  52:.\Generated_Source\PSoC5/Comp_4_PM.c **** *  void
  53:.\Generated_Source\PSoC5/Comp_4_PM.c **** *
  54:.\Generated_Source\PSoC5/Comp_4_PM.c **** * Return:
  55:.\Generated_Source\PSoC5/Comp_4_PM.c **** *  void
  56:.\Generated_Source\PSoC5/Comp_4_PM.c **** *
  57:.\Generated_Source\PSoC5/Comp_4_PM.c **** ********************************************************************************/
  58:.\Generated_Source\PSoC5/Comp_4_PM.c **** void Comp_4_RestoreConfig(void) 
  59:.\Generated_Source\PSoC5/Comp_4_PM.c **** {
  63              		.loc 1 59 0
  64              		.cfi_startproc
  65              		@ args = 0, pretend = 0, frame = 0
  66              		@ frame_needed = 1, uses_anonymous_args = 0
  67              		@ link register save eliminated.
  68 0000 80B4     		push	{r7}
  69              	.LCFI2:
  70              		.cfi_def_cfa_offset 4
  71 0002 00AF     		add	r7, sp, #0
  72              		.cfi_offset 7, -4
  73              	.LCFI3:
  74              		.cfi_def_cfa_register 7
  60:.\Generated_Source\PSoC5/Comp_4_PM.c ****     /* Empty since all are system reset for retention flops */    
  61:.\Generated_Source\PSoC5/Comp_4_PM.c **** }
  75              		.loc 1 61 0
  76 0004 BD46     		mov	sp, r7
  77 0006 80BC     		pop	{r7}
  78 0008 7047     		bx	lr
  79              		.cfi_endproc
  80              	.LFE1:
  81              		.size	Comp_4_RestoreConfig, .-Comp_4_RestoreConfig
  82 000a 00BF     		.section	.text.Comp_4_Sleep,"ax",%progbits
  83              		.align	2
  84              		.global	Comp_4_Sleep
  85              		.thumb
  86              		.thumb_func
  87              		.type	Comp_4_Sleep, %function
  88              	Comp_4_Sleep:
  89              	.LFB2:
  62:.\Generated_Source\PSoC5/Comp_4_PM.c **** 
  63:.\Generated_Source\PSoC5/Comp_4_PM.c **** 
  64:.\Generated_Source\PSoC5/Comp_4_PM.c **** /*******************************************************************************
  65:.\Generated_Source\PSoC5/Comp_4_PM.c **** * Function Name: Comp_4_Sleep
  66:.\Generated_Source\PSoC5/Comp_4_PM.c **** ********************************************************************************
  67:.\Generated_Source\PSoC5/Comp_4_PM.c **** *
  68:.\Generated_Source\PSoC5/Comp_4_PM.c **** * Summary:
  69:.\Generated_Source\PSoC5/Comp_4_PM.c **** *  Stop and Save the user configuration
  70:.\Generated_Source\PSoC5/Comp_4_PM.c **** *
  71:.\Generated_Source\PSoC5/Comp_4_PM.c **** * Parameters:
  72:.\Generated_Source\PSoC5/Comp_4_PM.c **** *  void:
  73:.\Generated_Source\PSoC5/Comp_4_PM.c **** *
  74:.\Generated_Source\PSoC5/Comp_4_PM.c **** * Return:
  75:.\Generated_Source\PSoC5/Comp_4_PM.c **** *  void
  76:.\Generated_Source\PSoC5/Comp_4_PM.c **** *
  77:.\Generated_Source\PSoC5/Comp_4_PM.c **** * Global variables:
  78:.\Generated_Source\PSoC5/Comp_4_PM.c **** *  Comp_4_backup.enableState:  Is modified depending on the enable 
ARM GAS  C:\Users\karunmj\AppData\Local\Temp\ccQSW7Rx.s 			page 4


  79:.\Generated_Source\PSoC5/Comp_4_PM.c **** *   state of the block before entering sleep mode.
  80:.\Generated_Source\PSoC5/Comp_4_PM.c **** *
  81:.\Generated_Source\PSoC5/Comp_4_PM.c **** *******************************************************************************/
  82:.\Generated_Source\PSoC5/Comp_4_PM.c **** void Comp_4_Sleep(void) 
  83:.\Generated_Source\PSoC5/Comp_4_PM.c **** {
  90              		.loc 1 83 0
  91              		.cfi_startproc
  92              		@ args = 0, pretend = 0, frame = 0
  93              		@ frame_needed = 1, uses_anonymous_args = 0
  94 0000 80B5     		push	{r7, lr}
  95              	.LCFI4:
  96              		.cfi_def_cfa_offset 8
  97 0002 00AF     		add	r7, sp, #0
  98              		.cfi_offset 14, -4
  99              		.cfi_offset 7, -8
 100              	.LCFI5:
 101              		.cfi_def_cfa_register 7
  84:.\Generated_Source\PSoC5/Comp_4_PM.c ****     /* Save Comp's enable state */    
  85:.\Generated_Source\PSoC5/Comp_4_PM.c ****     if(Comp_4_ACT_PWR_EN == (Comp_4_PWRMGR & Comp_4_ACT_PWR_EN))
 102              		.loc 1 85 0
 103 0004 44F2A733 		movw	r3, #:lower16:1073759143
 104 0008 C4F20003 		movt	r3, #:upper16:1073759143
 105 000c 1B78     		ldrb	r3, [r3, #0]
 106 000e DBB2     		uxtb	r3, r3
 107 0010 03F00103 		and	r3, r3, #1
 108 0014 DBB2     		uxtb	r3, r3
 109 0016 002B     		cmp	r3, #0
 110 0018 07D0     		beq	.L6
  86:.\Generated_Source\PSoC5/Comp_4_PM.c ****     {
  87:.\Generated_Source\PSoC5/Comp_4_PM.c ****         /* Comp is enabled */
  88:.\Generated_Source\PSoC5/Comp_4_PM.c ****         Comp_4_backup.enableState = 1u;
 111              		.loc 1 88 0
 112 001a 40F20003 		movw	r3, #:lower16:Comp_4_backup
 113 001e C0F20003 		movt	r3, #:upper16:Comp_4_backup
 114 0022 4FF00102 		mov	r2, #1
 115 0026 1A70     		strb	r2, [r3, #0]
 116 0028 06E0     		b	.L7
 117              	.L6:
  89:.\Generated_Source\PSoC5/Comp_4_PM.c ****     }
  90:.\Generated_Source\PSoC5/Comp_4_PM.c ****     else
  91:.\Generated_Source\PSoC5/Comp_4_PM.c ****     {
  92:.\Generated_Source\PSoC5/Comp_4_PM.c ****         /* Comp is disabled */
  93:.\Generated_Source\PSoC5/Comp_4_PM.c ****         Comp_4_backup.enableState = 0u;
 118              		.loc 1 93 0
 119 002a 40F20003 		movw	r3, #:lower16:Comp_4_backup
 120 002e C0F20003 		movt	r3, #:upper16:Comp_4_backup
 121 0032 4FF00002 		mov	r2, #0
 122 0036 1A70     		strb	r2, [r3, #0]
 123              	.L7:
  94:.\Generated_Source\PSoC5/Comp_4_PM.c ****     }    
  95:.\Generated_Source\PSoC5/Comp_4_PM.c ****     
  96:.\Generated_Source\PSoC5/Comp_4_PM.c ****     Comp_4_Stop();
 124              		.loc 1 96 0
 125 0038 FFF7FEFF 		bl	Comp_4_Stop
  97:.\Generated_Source\PSoC5/Comp_4_PM.c ****     Comp_4_SaveConfig();
 126              		.loc 1 97 0
 127 003c FFF7FEFF 		bl	Comp_4_SaveConfig
ARM GAS  C:\Users\karunmj\AppData\Local\Temp\ccQSW7Rx.s 			page 5


  98:.\Generated_Source\PSoC5/Comp_4_PM.c **** }
 128              		.loc 1 98 0
 129 0040 80BD     		pop	{r7, pc}
 130              		.cfi_endproc
 131              	.LFE2:
 132              		.size	Comp_4_Sleep, .-Comp_4_Sleep
 133 0042 00BF     		.section	.text.Comp_4_Wakeup,"ax",%progbits
 134              		.align	2
 135              		.global	Comp_4_Wakeup
 136              		.thumb
 137              		.thumb_func
 138              		.type	Comp_4_Wakeup, %function
 139              	Comp_4_Wakeup:
 140              	.LFB3:
  99:.\Generated_Source\PSoC5/Comp_4_PM.c **** 
 100:.\Generated_Source\PSoC5/Comp_4_PM.c **** 
 101:.\Generated_Source\PSoC5/Comp_4_PM.c **** /*******************************************************************************
 102:.\Generated_Source\PSoC5/Comp_4_PM.c **** * Function Name: Comp_4_Wakeup
 103:.\Generated_Source\PSoC5/Comp_4_PM.c **** ********************************************************************************
 104:.\Generated_Source\PSoC5/Comp_4_PM.c **** *
 105:.\Generated_Source\PSoC5/Comp_4_PM.c **** * Summary:
 106:.\Generated_Source\PSoC5/Comp_4_PM.c **** *  Restores and enables the user configuration
 107:.\Generated_Source\PSoC5/Comp_4_PM.c **** *  
 108:.\Generated_Source\PSoC5/Comp_4_PM.c **** * Parameters:
 109:.\Generated_Source\PSoC5/Comp_4_PM.c **** *  void
 110:.\Generated_Source\PSoC5/Comp_4_PM.c **** *
 111:.\Generated_Source\PSoC5/Comp_4_PM.c **** * Return:
 112:.\Generated_Source\PSoC5/Comp_4_PM.c **** *  void
 113:.\Generated_Source\PSoC5/Comp_4_PM.c **** *
 114:.\Generated_Source\PSoC5/Comp_4_PM.c **** * Global variables:
 115:.\Generated_Source\PSoC5/Comp_4_PM.c **** *  Comp_4_backup.enableState:  Is used to restore the enable state of 
 116:.\Generated_Source\PSoC5/Comp_4_PM.c **** *  block on wakeup from sleep mode.
 117:.\Generated_Source\PSoC5/Comp_4_PM.c **** *
 118:.\Generated_Source\PSoC5/Comp_4_PM.c **** *******************************************************************************/
 119:.\Generated_Source\PSoC5/Comp_4_PM.c **** void Comp_4_Wakeup(void) 
 120:.\Generated_Source\PSoC5/Comp_4_PM.c **** {
 141              		.loc 1 120 0
 142              		.cfi_startproc
 143              		@ args = 0, pretend = 0, frame = 0
 144              		@ frame_needed = 1, uses_anonymous_args = 0
 145 0000 80B5     		push	{r7, lr}
 146              	.LCFI6:
 147              		.cfi_def_cfa_offset 8
 148 0002 00AF     		add	r7, sp, #0
 149              		.cfi_offset 14, -4
 150              		.cfi_offset 7, -8
 151              	.LCFI7:
 152              		.cfi_def_cfa_register 7
 121:.\Generated_Source\PSoC5/Comp_4_PM.c ****     Comp_4_RestoreConfig();
 153              		.loc 1 121 0
 154 0004 FFF7FEFF 		bl	Comp_4_RestoreConfig
 122:.\Generated_Source\PSoC5/Comp_4_PM.c ****     
 123:.\Generated_Source\PSoC5/Comp_4_PM.c ****     if(Comp_4_backup.enableState == 1u)
 155              		.loc 1 123 0
 156 0008 40F20003 		movw	r3, #:lower16:Comp_4_backup
 157 000c C0F20003 		movt	r3, #:upper16:Comp_4_backup
 158 0010 1B78     		ldrb	r3, [r3, #0]	@ zero_extendqisi2
ARM GAS  C:\Users\karunmj\AppData\Local\Temp\ccQSW7Rx.s 			page 6


 159 0012 012B     		cmp	r3, #1
 160 0014 01D1     		bne	.L11
 124:.\Generated_Source\PSoC5/Comp_4_PM.c ****     {
 125:.\Generated_Source\PSoC5/Comp_4_PM.c ****         /* Enable Comp's operation */
 126:.\Generated_Source\PSoC5/Comp_4_PM.c ****         Comp_4_Enable();
 161              		.loc 1 126 0
 162 0016 FFF7FEFF 		bl	Comp_4_Enable
 163              	.L11:
 127:.\Generated_Source\PSoC5/Comp_4_PM.c **** 
 128:.\Generated_Source\PSoC5/Comp_4_PM.c ****     } /* Do nothing if Comp was disabled before */ 
 129:.\Generated_Source\PSoC5/Comp_4_PM.c **** }
 164              		.loc 1 129 0
 165 001a 80BD     		pop	{r7, pc}
 166              		.cfi_endproc
 167              	.LFE3:
 168              		.size	Comp_4_Wakeup, .-Comp_4_Wakeup
 169              		.text
 170              	.Letext0: