ARM GAS  C:\Users\karunmj\AppData\Local\Temp\ccMDmePc.s 			page 1


   1              		.syntax unified
   2              		.cpu cortex-m3
   3              		.fpu softvfp
   4              		.eabi_attribute 20, 1
   5              		.eabi_attribute 21, 1
   6              		.eabi_attribute 23, 3
   7              		.eabi_attribute 24, 1
   8              		.eabi_attribute 25, 1
   9              		.eabi_attribute 26, 1
  10              		.eabi_attribute 30, 6
  11              		.eabi_attribute 18, 4
  12              		.thumb
  13              		.file	"SCCT_Comp_1_PM.c"
  20 0000 A5000000 		.text
  20      02007800 
  20      00000201 
  20      FB0E0D00 
  20      01010101 
  21              	.Ltext0:
  22              		.cfi_sections	.debug_frame
  23              		.bss
  24              		.align	2
  25              	SCCT_Comp_1_backup:
  26 0000 00       		.space	1
  27 0001 000000   		.section	.text.SCCT_Comp_1_Sleep,"ax",%progbits
  28              		.align	2
  29              		.global	SCCT_Comp_1_Sleep
  30              		.thumb
  31              		.thumb_func
  32              		.type	SCCT_Comp_1_Sleep, %function
  33              	SCCT_Comp_1_Sleep:
  34              	.LFB0:
  35              		.file 1 ".\\Generated_Source\\PSoC5\\SCCT_Comp_1_PM.c"
   1:.\Generated_Source\PSoC5/SCCT_Comp_1_PM.c **** /*******************************************************************************
   2:.\Generated_Source\PSoC5/SCCT_Comp_1_PM.c **** * File Name: SCCT_Comp_1_PM.c
   3:.\Generated_Source\PSoC5/SCCT_Comp_1_PM.c **** * Version 1.0
   4:.\Generated_Source\PSoC5/SCCT_Comp_1_PM.c **** *
   5:.\Generated_Source\PSoC5/SCCT_Comp_1_PM.c **** * Description:
   6:.\Generated_Source\PSoC5/SCCT_Comp_1_PM.c **** *  This file provides the power manager source code to the API for SCCT
   7:.\Generated_Source\PSoC5/SCCT_Comp_1_PM.c **** *  Comparator Component.
   8:.\Generated_Source\PSoC5/SCCT_Comp_1_PM.c **** *
   9:.\Generated_Source\PSoC5/SCCT_Comp_1_PM.c **** * Note:
  10:.\Generated_Source\PSoC5/SCCT_Comp_1_PM.c **** *  None.
  11:.\Generated_Source\PSoC5/SCCT_Comp_1_PM.c **** *
  12:.\Generated_Source\PSoC5/SCCT_Comp_1_PM.c **** ********************************************************************************
  13:.\Generated_Source\PSoC5/SCCT_Comp_1_PM.c **** * Copyright 2013, Cypress Semiconductor Corporation. All rights reserved.
  14:.\Generated_Source\PSoC5/SCCT_Comp_1_PM.c **** * You may use this file only in accordance with the license, terms, conditions,
  15:.\Generated_Source\PSoC5/SCCT_Comp_1_PM.c **** * disclaimers, and limitations in the end user license agreement accompanying
  16:.\Generated_Source\PSoC5/SCCT_Comp_1_PM.c **** * the software package with which this file was provided.
  17:.\Generated_Source\PSoC5/SCCT_Comp_1_PM.c **** *******************************************************************************/
  18:.\Generated_Source\PSoC5/SCCT_Comp_1_PM.c **** 
ARM GAS  C:\Users\karunmj\AppData\Local\Temp\ccMDmePc.s 			page 2


  19:.\Generated_Source\PSoC5/SCCT_Comp_1_PM.c **** #include "SCCT_Comp_1.h"
  20:.\Generated_Source\PSoC5/SCCT_Comp_1_PM.c **** 
  21:.\Generated_Source\PSoC5/SCCT_Comp_1_PM.c **** static SCCT_Comp_1_BACKUP_STRUCT  SCCT_Comp_1_backup;
  22:.\Generated_Source\PSoC5/SCCT_Comp_1_PM.c **** 
  23:.\Generated_Source\PSoC5/SCCT_Comp_1_PM.c **** 
  24:.\Generated_Source\PSoC5/SCCT_Comp_1_PM.c **** /*******************************************************************************
  25:.\Generated_Source\PSoC5/SCCT_Comp_1_PM.c **** * Function Name: SCCT_Comp_1_Sleep
  26:.\Generated_Source\PSoC5/SCCT_Comp_1_PM.c **** ********************************************************************************
  27:.\Generated_Source\PSoC5/SCCT_Comp_1_PM.c **** *
  28:.\Generated_Source\PSoC5/SCCT_Comp_1_PM.c **** * Summary:
  29:.\Generated_Source\PSoC5/SCCT_Comp_1_PM.c **** *  This is the preferred API to prepare the SCCT_Comp_1 for low power mode
  30:.\Generated_Source\PSoC5/SCCT_Comp_1_PM.c **** *  operation (disable for this case). If the SCCT_Comp_1 is enabled, it
  31:.\Generated_Source\PSoC5/SCCT_Comp_1_PM.c **** *  configures the SCCT_Comp_1 for low power operation.
  32:.\Generated_Source\PSoC5/SCCT_Comp_1_PM.c **** *
  33:.\Generated_Source\PSoC5/SCCT_Comp_1_PM.c **** * Parameters:
  34:.\Generated_Source\PSoC5/SCCT_Comp_1_PM.c **** *  None
  35:.\Generated_Source\PSoC5/SCCT_Comp_1_PM.c **** *
  36:.\Generated_Source\PSoC5/SCCT_Comp_1_PM.c **** * Return:
  37:.\Generated_Source\PSoC5/SCCT_Comp_1_PM.c **** *  None
  38:.\Generated_Source\PSoC5/SCCT_Comp_1_PM.c **** *
  39:.\Generated_Source\PSoC5/SCCT_Comp_1_PM.c **** * Global variables:
  40:.\Generated_Source\PSoC5/SCCT_Comp_1_PM.c **** *  SCCT_Comp_1_backup: The structure field 'enableState' is modified
  41:.\Generated_Source\PSoC5/SCCT_Comp_1_PM.c **** *  depending on the enable state of the SCCT_Comp_1 before entering to
  42:.\Generated_Source\PSoC5/SCCT_Comp_1_PM.c **** *  sleep mode.
  43:.\Generated_Source\PSoC5/SCCT_Comp_1_PM.c **** *
  44:.\Generated_Source\PSoC5/SCCT_Comp_1_PM.c **** * Reentrant:
  45:.\Generated_Source\PSoC5/SCCT_Comp_1_PM.c **** *  No.
  46:.\Generated_Source\PSoC5/SCCT_Comp_1_PM.c **** *
  47:.\Generated_Source\PSoC5/SCCT_Comp_1_PM.c **** * Side Effect:
  48:.\Generated_Source\PSoC5/SCCT_Comp_1_PM.c **** *  In the inverting mode of SCCT_Comp_1, the output is implemented using
  49:.\Generated_Source\PSoC5/SCCT_Comp_1_PM.c **** *  UDB. Hence, the SCCT_Comp_1 output level is high when this sleep API is
  50:.\Generated_Source\PSoC5/SCCT_Comp_1_PM.c **** *  called and it does not go to sleep.
  51:.\Generated_Source\PSoC5/SCCT_Comp_1_PM.c **** *
  52:.\Generated_Source\PSoC5/SCCT_Comp_1_PM.c **** *******************************************************************************/
  53:.\Generated_Source\PSoC5/SCCT_Comp_1_PM.c **** void SCCT_Comp_1_Sleep(void) 
  54:.\Generated_Source\PSoC5/SCCT_Comp_1_PM.c **** {
  36              		.loc 1 54 0
  37              		.cfi_startproc
  38              		@ args = 0, pretend = 0, frame = 0
  39              		@ frame_needed = 1, uses_anonymous_args = 0
  40 0000 80B5     		push	{r7, lr}
  41              	.LCFI0:
  42              		.cfi_def_cfa_offset 8
  43 0002 00AF     		add	r7, sp, #0
  44              		.cfi_offset 14, -4
  45              		.cfi_offset 7, -8
  46              	.LCFI1:
  47              		.cfi_def_cfa_register 7
  55:.\Generated_Source\PSoC5/SCCT_Comp_1_PM.c ****     /* Save SCCT_Comp_1 enable state */
  56:.\Generated_Source\PSoC5/SCCT_Comp_1_PM.c ****     if (0u != (SCCT_Comp_1_PM_ACT_CFG_REG & SCCT_Comp_1_ACT_PWR_EN))
  48              		.loc 1 56 0
  49 0004 44F2A933 		movw	r3, #:lower16:1073759145
  50 0008 C4F20003 		movt	r3, #:upper16:1073759145
  51 000c 1B78     		ldrb	r3, [r3, #0]
  52 000e DBB2     		uxtb	r3, r3
  53 0010 03F00103 		and	r3, r3, #1
  54 0014 DBB2     		uxtb	r3, r3
ARM GAS  C:\Users\karunmj\AppData\Local\Temp\ccMDmePc.s 			page 3


  55 0016 002B     		cmp	r3, #0
  56 0018 09D0     		beq	.L2
  57:.\Generated_Source\PSoC5/SCCT_Comp_1_PM.c ****     {
  58:.\Generated_Source\PSoC5/SCCT_Comp_1_PM.c ****         /* SCCT_Comp_1 is enabled */
  59:.\Generated_Source\PSoC5/SCCT_Comp_1_PM.c ****         SCCT_Comp_1_backup.enableState = 1u;
  57              		.loc 1 59 0
  58 001a 40F20003 		movw	r3, #:lower16:SCCT_Comp_1_backup
  59 001e C0F20003 		movt	r3, #:upper16:SCCT_Comp_1_backup
  60 0022 4FF00102 		mov	r2, #1
  61 0026 1A70     		strb	r2, [r3, #0]
  60:.\Generated_Source\PSoC5/SCCT_Comp_1_PM.c **** 
  61:.\Generated_Source\PSoC5/SCCT_Comp_1_PM.c ****         /* Stop the configuration */
  62:.\Generated_Source\PSoC5/SCCT_Comp_1_PM.c ****         SCCT_Comp_1_Stop();
  62              		.loc 1 62 0
  63 0028 FFF7FEFF 		bl	SCCT_Comp_1_Stop
  64 002c 06E0     		b	.L4
  65              	.L2:
  63:.\Generated_Source\PSoC5/SCCT_Comp_1_PM.c ****     }
  64:.\Generated_Source\PSoC5/SCCT_Comp_1_PM.c ****     else
  65:.\Generated_Source\PSoC5/SCCT_Comp_1_PM.c ****     {
  66:.\Generated_Source\PSoC5/SCCT_Comp_1_PM.c ****         /* SCCT_Comp_1 is disabled */
  67:.\Generated_Source\PSoC5/SCCT_Comp_1_PM.c ****         SCCT_Comp_1_backup.enableState = 0u;
  66              		.loc 1 67 0
  67 002e 40F20003 		movw	r3, #:lower16:SCCT_Comp_1_backup
  68 0032 C0F20003 		movt	r3, #:upper16:SCCT_Comp_1_backup
  69 0036 4FF00002 		mov	r2, #0
  70 003a 1A70     		strb	r2, [r3, #0]
  71              	.L4:
  68:.\Generated_Source\PSoC5/SCCT_Comp_1_PM.c ****     }
  69:.\Generated_Source\PSoC5/SCCT_Comp_1_PM.c **** }
  72              		.loc 1 69 0
  73 003c 80BD     		pop	{r7, pc}
  74              		.cfi_endproc
  75              	.LFE0:
  76              		.size	SCCT_Comp_1_Sleep, .-SCCT_Comp_1_Sleep
  77 003e 00BF     		.section	.text.SCCT_Comp_1_Wakeup,"ax",%progbits
  78              		.align	2
  79              		.global	SCCT_Comp_1_Wakeup
  80              		.thumb
  81              		.thumb_func
  82              		.type	SCCT_Comp_1_Wakeup, %function
  83              	SCCT_Comp_1_Wakeup:
  84              	.LFB1:
  70:.\Generated_Source\PSoC5/SCCT_Comp_1_PM.c **** 
  71:.\Generated_Source\PSoC5/SCCT_Comp_1_PM.c **** 
  72:.\Generated_Source\PSoC5/SCCT_Comp_1_PM.c **** /*******************************************************************************
  73:.\Generated_Source\PSoC5/SCCT_Comp_1_PM.c **** * Function Name: SCCT_Comp_1_Wakeup
  74:.\Generated_Source\PSoC5/SCCT_Comp_1_PM.c **** ********************************************************************************
  75:.\Generated_Source\PSoC5/SCCT_Comp_1_PM.c **** *
  76:.\Generated_Source\PSoC5/SCCT_Comp_1_PM.c **** * Summary:
  77:.\Generated_Source\PSoC5/SCCT_Comp_1_PM.c **** *  This is the preferred API to restore the SCCT_Comp_1 to the state when
  78:.\Generated_Source\PSoC5/SCCT_Comp_1_PM.c **** *  SCCT_Comp_1_Sleep() was called.
  79:.\Generated_Source\PSoC5/SCCT_Comp_1_PM.c **** *
  80:.\Generated_Source\PSoC5/SCCT_Comp_1_PM.c **** * Parameters:
  81:.\Generated_Source\PSoC5/SCCT_Comp_1_PM.c **** *  None
  82:.\Generated_Source\PSoC5/SCCT_Comp_1_PM.c **** *
  83:.\Generated_Source\PSoC5/SCCT_Comp_1_PM.c **** * Return:
ARM GAS  C:\Users\karunmj\AppData\Local\Temp\ccMDmePc.s 			page 4


  84:.\Generated_Source\PSoC5/SCCT_Comp_1_PM.c **** *  void
  85:.\Generated_Source\PSoC5/SCCT_Comp_1_PM.c **** *
  86:.\Generated_Source\PSoC5/SCCT_Comp_1_PM.c **** * Global variables:
  87:.\Generated_Source\PSoC5/SCCT_Comp_1_PM.c **** *  SCCT_Comp_1_backup: The structure field 'enableState' is used to
  88:.\Generated_Source\PSoC5/SCCT_Comp_1_PM.c **** *  restore the enable state of SCCT_Comp_1 after wakeup from sleep mode.
  89:.\Generated_Source\PSoC5/SCCT_Comp_1_PM.c **** *
  90:.\Generated_Source\PSoC5/SCCT_Comp_1_PM.c **** * Side Effect:
  91:.\Generated_Source\PSoC5/SCCT_Comp_1_PM.c **** *  Calling the SCCT_Comp_1_Wakeup() function without first calling the
  92:.\Generated_Source\PSoC5/SCCT_Comp_1_PM.c **** *  SCCT_Comp_1_Sleep() function may produce unexpected behavior.
  93:.\Generated_Source\PSoC5/SCCT_Comp_1_PM.c **** *
  94:.\Generated_Source\PSoC5/SCCT_Comp_1_PM.c **** *******************************************************************************/
  95:.\Generated_Source\PSoC5/SCCT_Comp_1_PM.c **** void SCCT_Comp_1_Wakeup(void) 
  96:.\Generated_Source\PSoC5/SCCT_Comp_1_PM.c **** {
  85              		.loc 1 96 0
  86              		.cfi_startproc
  87              		@ args = 0, pretend = 0, frame = 0
  88              		@ frame_needed = 1, uses_anonymous_args = 0
  89 0000 80B5     		push	{r7, lr}
  90              	.LCFI2:
  91              		.cfi_def_cfa_offset 8
  92 0002 00AF     		add	r7, sp, #0
  93              		.cfi_offset 14, -4
  94              		.cfi_offset 7, -8
  95              	.LCFI3:
  96              		.cfi_def_cfa_register 7
  97:.\Generated_Source\PSoC5/SCCT_Comp_1_PM.c ****     /* Enables the SCCT_Comp_1 operation */
  98:.\Generated_Source\PSoC5/SCCT_Comp_1_PM.c ****     if (1u == SCCT_Comp_1_backup.enableState)
  97              		.loc 1 98 0
  98 0004 40F20003 		movw	r3, #:lower16:SCCT_Comp_1_backup
  99 0008 C0F20003 		movt	r3, #:upper16:SCCT_Comp_1_backup
 100 000c 1B78     		ldrb	r3, [r3, #0]	@ zero_extendqisi2
 101 000e 012B     		cmp	r3, #1
 102 0010 01D1     		bne	.L7
  99:.\Generated_Source\PSoC5/SCCT_Comp_1_PM.c ****     {
 100:.\Generated_Source\PSoC5/SCCT_Comp_1_PM.c ****         SCCT_Comp_1_Enable();
 103              		.loc 1 100 0
 104 0012 FFF7FEFF 		bl	SCCT_Comp_1_Enable
 105              	.L7:
 101:.\Generated_Source\PSoC5/SCCT_Comp_1_PM.c ****     } /* Do nothing if SCCT_Comp_1 was disable before */
 102:.\Generated_Source\PSoC5/SCCT_Comp_1_PM.c **** }
 106              		.loc 1 102 0
 107 0016 80BD     		pop	{r7, pc}
 108              		.cfi_endproc
 109              	.LFE1:
 110              		.size	SCCT_Comp_1_Wakeup, .-SCCT_Comp_1_Wakeup
 111              		.text
 112              	.Letext0: