ARM GAS  C:\Users\BRANKO~1\AppData\Local\Temp\ccH7eSNO.s 			page 1


   1              		.syntax unified
   2              		.cpu cortex-m3
   3              		.fpu softvfp
   4              		.eabi_attribute 20, 1
   5              		.eabi_attribute 21, 1
   6              		.eabi_attribute 23, 3
   7              		.eabi_attribute 24, 1
   8              		.eabi_attribute 25, 1
   9              		.eabi_attribute 26, 1
  10              		.eabi_attribute 30, 6
  11              		.eabi_attribute 18, 4
  12              		.thumb
  13              		.file	"main.c"
  20 0000 9B000000 		.text
  20      02005300 
  20      00000201 
  20      FB0E0D00 
  20      01010101 
  21              	.Ltext0:
  22              		.cfi_sections	.debug_frame
  23              		.comm	received_uart_string,256,4
  24              		.comm	hold_rx_data,1,1
  25              		.global	uart_string_index
  26              		.bss
  27              		.align	2
  28              		.type	uart_string_index, %object
  29              		.size	uart_string_index, 4
  30              	uart_string_index:
  31 0000 00000000 		.space	4
  32              		.global	powermon_confirm
  33              		.type	powermon_confirm, %object
  34              		.size	powermon_confirm, 1
  35              	powermon_confirm:
  36 0004 00       		.space	1
  37 0005 000000   		.section	.rodata
  38              		.align	2
  39              	.LC0:
  40 0000 41542B43 		.ascii	"AT+CREG=1\015\000"
  40      5245473D 
  40      310D00
  41 000b 00       		.align	2
  42              	.LC1:
  43 000c 41542353 		.ascii	"AT#SCFG=1,1,0,0,1200,0\015\000"
  43      4346473D 
  43      312C312C 
  43      302C302C 
  43      31323030 
  44              		.align	2
  45              	.LC2:
  46 0024 41542353 		.ascii	"AT#SGACT=1,1\015\000"
  46      47414354 
ARM GAS  C:\Users\BRANKO~1\AppData\Local\Temp\ccH7eSNO.s 			page 2


  46      3D312C31 
  46      0D00
  47 0032 0000     		.align	2
  48              	.LC3:
  49 0034 41542353 		.ascii	"AT#SD=1,0,50321,\"50.19.242.87\",0,0,1\015\000"
  49      443D312C 
  49      302C3530 
  49      3332312C 
  49      2235302E 
  50 005a 0000     		.align	2
  51              	.LC4:
  52 005c 41542353 		.ascii	"AT#SSEND=1\015\000"
  52      53454E44 
  52      3D310D00 
  53              		.align	2
  54              	.LC5:
  55 0068 54686973 		.ascii	"This is sent from PSoC\032\000"
  55      20697320 
  55      73656E74 
  55      2066726F 
  55      6D205053 
  56              		.section	.text.main,"ax",%progbits
  57              		.align	2
  58              		.global	main
  59              		.thumb
  60              		.thumb_func
  61              		.type	main, %function
  62              	main:
  63              	.LFB29:
  64              		.file 1 ".\\main.c"
   1:.\main.c      **** /* ========================================
   2:.\main.c      ****  *
   3:.\main.c      ****  * Copyright YOUR COMPANY, THE YEAR
   4:.\main.c      ****  * All Rights Reserved
   5:.\main.c      ****  * UNPUBLISHED, LICENSED SOFTWARE.
   6:.\main.c      ****  *
   7:.\main.c      ****  * CONFIDENTIAL AND PROPRIETARY INFORMATION
   8:.\main.c      ****  * WHICH IS THE PROPERTY OF your company.
   9:.\main.c      ****  *
  10:.\main.c      ****  * ========================================
  11:.\main.c      **** */
  12:.\main.c      **** #include <device.h>
  13:.\main.c      **** 
  14:.\main.c      **** uint8 received_uart_string[256];
  15:.\main.c      **** uint8 hold_rx_data;
  16:.\main.c      **** uint32 uart_string_index = 0; 
  17:.\main.c      **** uint8 powermon_confirm = 0;
  18:.\main.c      **** 
  19:.\main.c      **** // Declare interrupt function
  20:.\main.c      **** CY_ISR_PROTO(isr_byte_received);
  21:.\main.c      **** 
  22:.\main.c      **** void main()
  23:.\main.c      **** {
  65              		.loc 1 23 0
  66              		.cfi_startproc
  67              		@ args = 0, pretend = 0, frame = 0
  68              		@ frame_needed = 1, uses_anonymous_args = 0
ARM GAS  C:\Users\BRANKO~1\AppData\Local\Temp\ccH7eSNO.s 			page 3


  69 0000 80B5     		push	{r7, lr}
  70              	.LCFI0:
  71              		.cfi_def_cfa_offset 8
  72 0002 00AF     		add	r7, sp, #0
  73              		.cfi_offset 14, -4
  74              		.cfi_offset 7, -8
  75              	.LCFI1:
  76              		.cfi_def_cfa_register 7
  24:.\main.c      ****     CyGlobalIntEnable;
  77              		.loc 1 24 0
  78              	@ 24 ".\main.c" 1
  79 0004 62B6     		CPSIE   i
  80              	@ 0 "" 2
  25:.\main.c      ****     isr_byte_received_StartEx(isr_byte_received);
  81              		.loc 1 25 0
  82              		.thumb
  83 0006 40F20000 		movw	r0, #:lower16:isr_byte_received
  84 000a C0F20000 		movt	r0, #:upper16:isr_byte_received
  85 000e FFF7FEFF 		bl	isr_byte_received_StartEx
  26:.\main.c      ****     uart_Start();
  86              		.loc 1 26 0
  87 0012 FFF7FEFF 		bl	uart_Start
  27:.\main.c      ****     
  28:.\main.c      ****     powermon_confirm = powermon_pin_Read();
  88              		.loc 1 28 0
  89 0016 FFF7FEFF 		bl	powermon_pin_Read
  90 001a 0346     		mov	r3, r0
  91 001c 1A46     		mov	r2, r3
  92 001e 40F20003 		movw	r3, #:lower16:powermon_confirm
  93 0022 C0F20003 		movt	r3, #:upper16:powermon_confirm
  94 0026 1A70     		strb	r2, [r3, #0]
  29:.\main.c      ****     
  30:.\main.c      ****     // Turn on interface board
  31:.\main.c      ****     if(powermon_pin_Read() == 0){
  95              		.loc 1 31 0
  96 0028 FFF7FEFF 		bl	powermon_pin_Read
  97 002c 0346     		mov	r3, r0
  98 002e 002B     		cmp	r3, #0
  99 0030 0FD1     		bne	.L2
  32:.\main.c      ****         on_pin_Write(0u);
 100              		.loc 1 32 0
 101 0032 4FF00000 		mov	r0, #0
 102 0036 FFF7FEFF 		bl	on_pin_Write
  33:.\main.c      ****         CyDelay(1500u);
 103              		.loc 1 33 0
 104 003a 40F2DC50 		movw	r0, #1500
 105 003e FFF7FEFF 		bl	CyDelay
  34:.\main.c      ****         on_pin_Write(1u);
 106              		.loc 1 34 0
 107 0042 4FF00100 		mov	r0, #1
 108 0046 FFF7FEFF 		bl	on_pin_Write
  35:.\main.c      ****         CyDelay(8000u); // wait for module to turn on
 109              		.loc 1 35 0
 110 004a 4FF4FA50 		mov	r0, #8000
 111 004e FFF7FEFF 		bl	CyDelay
 112              	.L2:
  36:.\main.c      ****     }
ARM GAS  C:\Users\BRANKO~1\AppData\Local\Temp\ccH7eSNO.s 			page 4


  37:.\main.c      ****     
  38:.\main.c      ****     uart_PutString("AT+CREG=1\r");
 113              		.loc 1 38 0
 114 0052 40F20000 		movw	r0, #:lower16:.LC0
 115 0056 C0F20000 		movt	r0, #:upper16:.LC0
 116 005a FFF7FEFF 		bl	uart_PutString
  39:.\main.c      ****     CyDelay(8000u);
 117              		.loc 1 39 0
 118 005e 4FF4FA50 		mov	r0, #8000
 119 0062 FFF7FEFF 		bl	CyDelay
  40:.\main.c      ****     uart_string_index = 0;
 120              		.loc 1 40 0
 121 0066 40F20003 		movw	r3, #:lower16:uart_string_index
 122 006a C0F20003 		movt	r3, #:upper16:uart_string_index
 123 006e 4FF00002 		mov	r2, #0
 124 0072 1A60     		str	r2, [r3, #0]
  41:.\main.c      ****     uart_PutString("AT#SCFG=1,1,0,0,1200,0\r");
 125              		.loc 1 41 0
 126 0074 40F20000 		movw	r0, #:lower16:.LC1
 127 0078 C0F20000 		movt	r0, #:upper16:.LC1
 128 007c FFF7FEFF 		bl	uart_PutString
  42:.\main.c      ****     CyDelay(8000u);
 129              		.loc 1 42 0
 130 0080 4FF4FA50 		mov	r0, #8000
 131 0084 FFF7FEFF 		bl	CyDelay
  43:.\main.c      ****     uart_string_index = 0;
 132              		.loc 1 43 0
 133 0088 40F20003 		movw	r3, #:lower16:uart_string_index
 134 008c C0F20003 		movt	r3, #:upper16:uart_string_index
 135 0090 4FF00002 		mov	r2, #0
 136 0094 1A60     		str	r2, [r3, #0]
  44:.\main.c      ****     uart_PutString("AT#SGACT=1,1\r");
 137              		.loc 1 44 0
 138 0096 40F20000 		movw	r0, #:lower16:.LC2
 139 009a C0F20000 		movt	r0, #:upper16:.LC2
 140 009e FFF7FEFF 		bl	uart_PutString
  45:.\main.c      ****     CyDelay(15000u);
 141              		.loc 1 45 0
 142 00a2 43F69820 		movw	r0, #15000
 143 00a6 FFF7FEFF 		bl	CyDelay
  46:.\main.c      ****     uart_string_index = 0;
 144              		.loc 1 46 0
 145 00aa 40F20003 		movw	r3, #:lower16:uart_string_index
 146 00ae C0F20003 		movt	r3, #:upper16:uart_string_index
 147 00b2 4FF00002 		mov	r2, #0
 148 00b6 1A60     		str	r2, [r3, #0]
  47:.\main.c      ****     uart_PutString("AT#SD=1,0,50321,\"50.19.242.87\",0,0,1\r");
 149              		.loc 1 47 0
 150 00b8 40F20000 		movw	r0, #:lower16:.LC3
 151 00bc C0F20000 		movt	r0, #:upper16:.LC3
 152 00c0 FFF7FEFF 		bl	uart_PutString
  48:.\main.c      ****     CyDelay(8000u);
 153              		.loc 1 48 0
 154 00c4 4FF4FA50 		mov	r0, #8000
 155 00c8 FFF7FEFF 		bl	CyDelay
  49:.\main.c      ****     uart_string_index = 0;
 156              		.loc 1 49 0
ARM GAS  C:\Users\BRANKO~1\AppData\Local\Temp\ccH7eSNO.s 			page 5


 157 00cc 40F20003 		movw	r3, #:lower16:uart_string_index
 158 00d0 C0F20003 		movt	r3, #:upper16:uart_string_index
 159 00d4 4FF00002 		mov	r2, #0
 160 00d8 1A60     		str	r2, [r3, #0]
  50:.\main.c      ****     uart_PutString("AT#SSEND=1\r");
 161              		.loc 1 50 0
 162 00da 40F20000 		movw	r0, #:lower16:.LC4
 163 00de C0F20000 		movt	r0, #:upper16:.LC4
 164 00e2 FFF7FEFF 		bl	uart_PutString
  51:.\main.c      ****     CyDelay(7500u);
 165              		.loc 1 51 0
 166 00e6 41F64C50 		movw	r0, #7500
 167 00ea FFF7FEFF 		bl	CyDelay
  52:.\main.c      ****     uart_string_index = 0;
 168              		.loc 1 52 0
 169 00ee 40F20003 		movw	r3, #:lower16:uart_string_index
 170 00f2 C0F20003 		movt	r3, #:upper16:uart_string_index
 171 00f6 4FF00002 		mov	r2, #0
 172 00fa 1A60     		str	r2, [r3, #0]
  53:.\main.c      ****     uart_PutString("This is sent from PSoC\032");
 173              		.loc 1 53 0
 174 00fc 40F20000 		movw	r0, #:lower16:.LC5
 175 0100 C0F20000 		movt	r0, #:upper16:.LC5
 176 0104 FFF7FEFF 		bl	uart_PutString
  54:.\main.c      ****     CyDelay(7500u);
 177              		.loc 1 54 0
 178 0108 41F64C50 		movw	r0, #7500
 179 010c FFF7FEFF 		bl	CyDelay
 180              	.L3:
  55:.\main.c      ****     
  56:.\main.c      **** //    received_uart_string[256] = {0};
  57:.\main.c      **** //    uart_PutString("AT#SCFG=1,1,0,0,1200,0\r");
  58:.\main.c      **** //    CyDelay(7500u);
  59:.\main.c      **** //    uart_string_index = 0;
  60:.\main.c      **** //    uart_PutString("AT#SGACT=1,1\r");
  61:.\main.c      **** //    CyDelay(15000u);
  62:.\main.c      **** //    uart_string_index = 0;
  63:.\main.c      **** //    uart_PutString("AT#SD=1,0,54321,\"50.19.242.87\",0,0,1\r");
  64:.\main.c      **** //    CyDelay(10000u);
  65:.\main.c      **** //    uart_string_index = 0;
  66:.\main.c      **** //    uart_PutString("AT#SSEND=1\r");
  67:.\main.c      **** //    CyDelay(2000u);
  68:.\main.c      **** //    uart_string_index = 0;
  69:.\main.c      **** //    uart_PutString("This is send from PSoC\032");
  70:.\main.c      **** //    CyDelay(2000u);
  71:.\main.c      **** //    uart_string_index = 0;
  72:.\main.c      ****     
  73:.\main.c      ****     for(;;)
  74:.\main.c      ****     {
  75:.\main.c      **** 
  76:.\main.c      ****     }
 181              		.loc 1 76 0
 182 0110 FEE7     		b	.L3
 183              		.cfi_endproc
 184              	.LFE29:
 185              		.size	main, .-main
 186 0112 00BF     		.section	.text.isr_byte_received,"ax",%progbits
ARM GAS  C:\Users\BRANKO~1\AppData\Local\Temp\ccH7eSNO.s 			page 6


 187              		.align	2
 188              		.global	isr_byte_received
 189              		.thumb
 190              		.thumb_func
 191              		.type	isr_byte_received, %function
 192              	isr_byte_received:
 193              	.LFB30:
  77:.\main.c      **** }
  78:.\main.c      **** 
  79:.\main.c      **** CY_ISR(isr_byte_received){
 194              		.loc 1 79 0
 195              		.cfi_startproc
 196              		@ args = 0, pretend = 0, frame = 0
 197              		@ frame_needed = 1, uses_anonymous_args = 0
 198 0000 98B5     		push	{r3, r4, r7, lr}
 199              	.LCFI2:
 200              		.cfi_def_cfa_offset 16
 201 0002 00AF     		add	r7, sp, #0
 202              		.cfi_offset 14, -4
 203              		.cfi_offset 7, -8
 204              		.cfi_offset 4, -12
 205              		.cfi_offset 3, -16
 206              	.LCFI3:
 207              		.cfi_def_cfa_register 7
  80:.\main.c      ****     hold_rx_data = uart_ReadRxData();
 208              		.loc 1 80 0
 209 0004 FFF7FEFF 		bl	uart_ReadRxData
 210 0008 0346     		mov	r3, r0
 211 000a 1A46     		mov	r2, r3
 212 000c 40F20003 		movw	r3, #:lower16:hold_rx_data
 213 0010 C0F20003 		movt	r3, #:upper16:hold_rx_data
 214 0014 1A70     		strb	r2, [r3, #0]
  81:.\main.c      ****     received_uart_string[uart_string_index] = uart_GetByte();
 215              		.loc 1 81 0
 216 0016 40F20003 		movw	r3, #:lower16:uart_string_index
 217 001a C0F20003 		movt	r3, #:upper16:uart_string_index
 218 001e 1C68     		ldr	r4, [r3, #0]
 219 0020 FFF7FEFF 		bl	uart_GetByte
 220 0024 0346     		mov	r3, r0
 221 0026 DAB2     		uxtb	r2, r3
 222 0028 40F20003 		movw	r3, #:lower16:received_uart_string
 223 002c C0F20003 		movt	r3, #:upper16:received_uart_string
 224 0030 1A55     		strb	r2, [r3, r4]
  82:.\main.c      ****     received_uart_string[uart_string_index+20] = hold_rx_data;
 225              		.loc 1 82 0
 226 0032 40F20003 		movw	r3, #:lower16:uart_string_index
 227 0036 C0F20003 		movt	r3, #:upper16:uart_string_index
 228 003a 1B68     		ldr	r3, [r3, #0]
 229 003c 03F11402 		add	r2, r3, #20
 230 0040 40F20003 		movw	r3, #:lower16:hold_rx_data
 231 0044 C0F20003 		movt	r3, #:upper16:hold_rx_data
 232 0048 1978     		ldrb	r1, [r3, #0]	@ zero_extendqisi2
 233 004a 40F20003 		movw	r3, #:lower16:received_uart_string
 234 004e C0F20003 		movt	r3, #:upper16:received_uart_string
 235 0052 9954     		strb	r1, [r3, r2]
  83:.\main.c      ****     uart_string_index++;
 236              		.loc 1 83 0
ARM GAS  C:\Users\BRANKO~1\AppData\Local\Temp\ccH7eSNO.s 			page 7


 237 0054 40F20003 		movw	r3, #:lower16:uart_string_index
 238 0058 C0F20003 		movt	r3, #:upper16:uart_string_index
 239 005c 1B68     		ldr	r3, [r3, #0]
 240 005e 03F10102 		add	r2, r3, #1
 241 0062 40F20003 		movw	r3, #:lower16:uart_string_index
 242 0066 C0F20003 		movt	r3, #:upper16:uart_string_index
 243 006a 1A60     		str	r2, [r3, #0]
  84:.\main.c      **** }
 244              		.loc 1 84 0
 245 006c 98BD     		pop	{r3, r4, r7, pc}
 246              		.cfi_endproc
 247              	.LFE30:
 248              		.size	isr_byte_received, .-isr_byte_received
 249 006e 00BF     		.text
 250              	.Letext0: