ARM GAS  C:\Users\BRANKO~1\AppData\Local\Temp\ccRURHso.s 			page 1


   1              		.syntax unified
   2              		.cpu cortex-m3
   3              		.fpu softvfp
   4              		.eabi_attribute 20, 1
   5              		.eabi_attribute 21, 1
   6              		.eabi_attribute 23, 3
   7              		.eabi_attribute 24, 1
   8              		.eabi_attribute 25, 1
   9              		.eabi_attribute 26, 1
  10              		.eabi_attribute 30, 6
  11              		.eabi_attribute 34, 1
  12              		.eabi_attribute 18, 4
  13              		.thumb
  14              		.file	"ADC_SAR_1_IRQ.c"
  15              		.text
  16              	.Ltext0:
  17              		.cfi_sections	.debug_frame
  18              		.section	.text.ADC_SAR_1_IRQ_Start,"ax",%progbits
  19              		.align	2
  20              		.global	ADC_SAR_1_IRQ_Start
  21              		.thumb
  22              		.thumb_func
  23              		.type	ADC_SAR_1_IRQ_Start, %function
  24              	ADC_SAR_1_IRQ_Start:
  25              	.LFB0:
  26              		.file 1 ".\\Generated_Source\\PSoC5\\ADC_SAR_1_IRQ.c"
   1:.\Generated_Source\PSoC5/ADC_SAR_1_IRQ.c **** /*******************************************************************************
   2:.\Generated_Source\PSoC5/ADC_SAR_1_IRQ.c **** * File Name: ADC_SAR_1_IRQ.c  
   3:.\Generated_Source\PSoC5/ADC_SAR_1_IRQ.c **** * Version 1.70
   4:.\Generated_Source\PSoC5/ADC_SAR_1_IRQ.c **** *
   5:.\Generated_Source\PSoC5/ADC_SAR_1_IRQ.c **** *  Description:
   6:.\Generated_Source\PSoC5/ADC_SAR_1_IRQ.c **** *   API for controlling the state of an interrupt.
   7:.\Generated_Source\PSoC5/ADC_SAR_1_IRQ.c **** *
   8:.\Generated_Source\PSoC5/ADC_SAR_1_IRQ.c **** *
   9:.\Generated_Source\PSoC5/ADC_SAR_1_IRQ.c **** *  Note:
  10:.\Generated_Source\PSoC5/ADC_SAR_1_IRQ.c **** *
  11:.\Generated_Source\PSoC5/ADC_SAR_1_IRQ.c **** ********************************************************************************
  12:.\Generated_Source\PSoC5/ADC_SAR_1_IRQ.c **** * Copyright 2008-2012, Cypress Semiconductor Corporation.  All rights reserved.
  13:.\Generated_Source\PSoC5/ADC_SAR_1_IRQ.c **** * You may use this file only in accordance with the license, terms, conditions, 
  14:.\Generated_Source\PSoC5/ADC_SAR_1_IRQ.c **** * disclaimers, and limitations in the end user license agreement accompanying 
  15:.\Generated_Source\PSoC5/ADC_SAR_1_IRQ.c **** * the software package with which this file was provided.
  16:.\Generated_Source\PSoC5/ADC_SAR_1_IRQ.c **** *******************************************************************************/
  17:.\Generated_Source\PSoC5/ADC_SAR_1_IRQ.c **** 
  18:.\Generated_Source\PSoC5/ADC_SAR_1_IRQ.c **** 
  19:.\Generated_Source\PSoC5/ADC_SAR_1_IRQ.c **** #include <cydevice_trm.h>
  20:.\Generated_Source\PSoC5/ADC_SAR_1_IRQ.c **** #include <CyLib.h>
  21:.\Generated_Source\PSoC5/ADC_SAR_1_IRQ.c **** #include <ADC_SAR_1_IRQ.h>
  22:.\Generated_Source\PSoC5/ADC_SAR_1_IRQ.c **** 
  23:.\Generated_Source\PSoC5/ADC_SAR_1_IRQ.c **** #if !defined(ADC_SAR_1_IRQ__REMOVED) /* Check for removal by optimization */
  24:.\Generated_Source\PSoC5/ADC_SAR_1_IRQ.c **** 
  25:.\Generated_Source\PSoC5/ADC_SAR_1_IRQ.c **** /*******************************************************************************
  26:.\Generated_Source\PSoC5/ADC_SAR_1_IRQ.c **** *  Place your includes, defines and code here 
  27:.\Generated_Source\PSoC5/ADC_SAR_1_IRQ.c **** ********************************************************************************/
  28:.\Generated_Source\PSoC5/ADC_SAR_1_IRQ.c **** /* `#START ADC_SAR_1_IRQ_intc` */
  29:.\Generated_Source\PSoC5/ADC_SAR_1_IRQ.c **** 
  30:.\Generated_Source\PSoC5/ADC_SAR_1_IRQ.c **** /* `#END` */
  31:.\Generated_Source\PSoC5/ADC_SAR_1_IRQ.c **** 
ARM GAS  C:\Users\BRANKO~1\AppData\Local\Temp\ccRURHso.s 			page 2


  32:.\Generated_Source\PSoC5/ADC_SAR_1_IRQ.c **** #ifndef CYINT_IRQ_BASE
  33:.\Generated_Source\PSoC5/ADC_SAR_1_IRQ.c **** #define CYINT_IRQ_BASE      16
  34:.\Generated_Source\PSoC5/ADC_SAR_1_IRQ.c **** #endif /* CYINT_IRQ_BASE */
  35:.\Generated_Source\PSoC5/ADC_SAR_1_IRQ.c **** #ifndef CYINT_VECT_TABLE
  36:.\Generated_Source\PSoC5/ADC_SAR_1_IRQ.c **** #define CYINT_VECT_TABLE    ((cyisraddress **) CYREG_NVIC_VECT_OFFSET)
  37:.\Generated_Source\PSoC5/ADC_SAR_1_IRQ.c **** #endif /* CYINT_VECT_TABLE */
  38:.\Generated_Source\PSoC5/ADC_SAR_1_IRQ.c **** 
  39:.\Generated_Source\PSoC5/ADC_SAR_1_IRQ.c **** /* Declared in startup, used to set unused interrupts to. */
  40:.\Generated_Source\PSoC5/ADC_SAR_1_IRQ.c **** CY_ISR_PROTO(IntDefaultHandler);
  41:.\Generated_Source\PSoC5/ADC_SAR_1_IRQ.c **** 
  42:.\Generated_Source\PSoC5/ADC_SAR_1_IRQ.c **** 
  43:.\Generated_Source\PSoC5/ADC_SAR_1_IRQ.c **** /*******************************************************************************
  44:.\Generated_Source\PSoC5/ADC_SAR_1_IRQ.c **** * Function Name: ADC_SAR_1_IRQ_Start
  45:.\Generated_Source\PSoC5/ADC_SAR_1_IRQ.c **** ********************************************************************************
  46:.\Generated_Source\PSoC5/ADC_SAR_1_IRQ.c **** *
  47:.\Generated_Source\PSoC5/ADC_SAR_1_IRQ.c **** * Summary:
  48:.\Generated_Source\PSoC5/ADC_SAR_1_IRQ.c **** *  Set up the interrupt and enable it.
  49:.\Generated_Source\PSoC5/ADC_SAR_1_IRQ.c **** *
  50:.\Generated_Source\PSoC5/ADC_SAR_1_IRQ.c **** * Parameters:  
  51:.\Generated_Source\PSoC5/ADC_SAR_1_IRQ.c **** *   None
  52:.\Generated_Source\PSoC5/ADC_SAR_1_IRQ.c **** *
  53:.\Generated_Source\PSoC5/ADC_SAR_1_IRQ.c **** * Return:
  54:.\Generated_Source\PSoC5/ADC_SAR_1_IRQ.c **** *   None
  55:.\Generated_Source\PSoC5/ADC_SAR_1_IRQ.c **** *
  56:.\Generated_Source\PSoC5/ADC_SAR_1_IRQ.c **** *******************************************************************************/
  57:.\Generated_Source\PSoC5/ADC_SAR_1_IRQ.c **** void ADC_SAR_1_IRQ_Start(void)
  58:.\Generated_Source\PSoC5/ADC_SAR_1_IRQ.c **** {
  27              		.loc 1 58 0
  28              		.cfi_startproc
  29              		@ args = 0, pretend = 0, frame = 0
  30              		@ frame_needed = 1, uses_anonymous_args = 0
  31 0000 80B5     		push	{r7, lr}
  32              		.cfi_def_cfa_offset 8
  33              		.cfi_offset 7, -8
  34              		.cfi_offset 14, -4
  35 0002 00AF     		add	r7, sp, #0
  36              		.cfi_def_cfa_register 7
  59:.\Generated_Source\PSoC5/ADC_SAR_1_IRQ.c ****     /* For all we know the interrupt is active. */
  60:.\Generated_Source\PSoC5/ADC_SAR_1_IRQ.c ****     ADC_SAR_1_IRQ_Disable();
  37              		.loc 1 60 0
  38 0004 FFF7FEFF 		bl	ADC_SAR_1_IRQ_Disable
  61:.\Generated_Source\PSoC5/ADC_SAR_1_IRQ.c **** 
  62:.\Generated_Source\PSoC5/ADC_SAR_1_IRQ.c ****     /* Set the ISR to point to the ADC_SAR_1_IRQ Interrupt. */
  63:.\Generated_Source\PSoC5/ADC_SAR_1_IRQ.c ****     ADC_SAR_1_IRQ_SetVector(&ADC_SAR_1_IRQ_Interrupt);
  39              		.loc 1 63 0
  40 0008 0448     		ldr	r0, .L2
  41 000a FFF7FEFF 		bl	ADC_SAR_1_IRQ_SetVector
  64:.\Generated_Source\PSoC5/ADC_SAR_1_IRQ.c **** 
  65:.\Generated_Source\PSoC5/ADC_SAR_1_IRQ.c ****     /* Set the priority. */
  66:.\Generated_Source\PSoC5/ADC_SAR_1_IRQ.c ****     ADC_SAR_1_IRQ_SetPriority((uint8)ADC_SAR_1_IRQ_INTC_PRIOR_NUMBER);
  42              		.loc 1 66 0
  43 000e 0720     		movs	r0, #7
  44 0010 FFF7FEFF 		bl	ADC_SAR_1_IRQ_SetPriority
  67:.\Generated_Source\PSoC5/ADC_SAR_1_IRQ.c **** 
  68:.\Generated_Source\PSoC5/ADC_SAR_1_IRQ.c ****     /* Enable it. */
  69:.\Generated_Source\PSoC5/ADC_SAR_1_IRQ.c ****     ADC_SAR_1_IRQ_Enable();
  45              		.loc 1 69 0
ARM GAS  C:\Users\BRANKO~1\AppData\Local\Temp\ccRURHso.s 			page 3


  46 0014 FFF7FEFF 		bl	ADC_SAR_1_IRQ_Enable
  70:.\Generated_Source\PSoC5/ADC_SAR_1_IRQ.c **** }
  47              		.loc 1 70 0
  48 0018 80BD     		pop	{r7, pc}
  49              	.L3:
  50 001a 00BF     		.align	2
  51              	.L2:
  52 001c 00000000 		.word	ADC_SAR_1_IRQ_Interrupt
  53              		.cfi_endproc
  54              	.LFE0:
  55              		.size	ADC_SAR_1_IRQ_Start, .-ADC_SAR_1_IRQ_Start
  56              		.section	.text.ADC_SAR_1_IRQ_StartEx,"ax",%progbits
  57              		.align	2
  58              		.global	ADC_SAR_1_IRQ_StartEx
  59              		.thumb
  60              		.thumb_func
  61              		.type	ADC_SAR_1_IRQ_StartEx, %function
  62              	ADC_SAR_1_IRQ_StartEx:
  63              	.LFB1:
  71:.\Generated_Source\PSoC5/ADC_SAR_1_IRQ.c **** 
  72:.\Generated_Source\PSoC5/ADC_SAR_1_IRQ.c **** 
  73:.\Generated_Source\PSoC5/ADC_SAR_1_IRQ.c **** /*******************************************************************************
  74:.\Generated_Source\PSoC5/ADC_SAR_1_IRQ.c **** * Function Name: ADC_SAR_1_IRQ_StartEx
  75:.\Generated_Source\PSoC5/ADC_SAR_1_IRQ.c **** ********************************************************************************
  76:.\Generated_Source\PSoC5/ADC_SAR_1_IRQ.c **** *
  77:.\Generated_Source\PSoC5/ADC_SAR_1_IRQ.c **** * Summary:
  78:.\Generated_Source\PSoC5/ADC_SAR_1_IRQ.c **** *  Set up the interrupt and enable it.
  79:.\Generated_Source\PSoC5/ADC_SAR_1_IRQ.c **** *
  80:.\Generated_Source\PSoC5/ADC_SAR_1_IRQ.c **** * Parameters:  
  81:.\Generated_Source\PSoC5/ADC_SAR_1_IRQ.c **** *   address: Address of the ISR to set in the interrupt vector table.
  82:.\Generated_Source\PSoC5/ADC_SAR_1_IRQ.c **** *
  83:.\Generated_Source\PSoC5/ADC_SAR_1_IRQ.c **** * Return:
  84:.\Generated_Source\PSoC5/ADC_SAR_1_IRQ.c **** *   None
  85:.\Generated_Source\PSoC5/ADC_SAR_1_IRQ.c **** *
  86:.\Generated_Source\PSoC5/ADC_SAR_1_IRQ.c **** *******************************************************************************/
  87:.\Generated_Source\PSoC5/ADC_SAR_1_IRQ.c **** void ADC_SAR_1_IRQ_StartEx(cyisraddress address)
  88:.\Generated_Source\PSoC5/ADC_SAR_1_IRQ.c **** {
  64              		.loc 1 88 0
  65              		.cfi_startproc
  66              		@ args = 0, pretend = 0, frame = 8
  67              		@ frame_needed = 1, uses_anonymous_args = 0
  68 0000 80B5     		push	{r7, lr}
  69              		.cfi_def_cfa_offset 8
  70              		.cfi_offset 7, -8
  71              		.cfi_offset 14, -4
  72 0002 82B0     		sub	sp, sp, #8
  73              		.cfi_def_cfa_offset 16
  74 0004 00AF     		add	r7, sp, #0
  75              		.cfi_def_cfa_register 7
  76 0006 7860     		str	r0, [r7, #4]
  89:.\Generated_Source\PSoC5/ADC_SAR_1_IRQ.c ****     /* For all we know the interrupt is active. */
  90:.\Generated_Source\PSoC5/ADC_SAR_1_IRQ.c ****     ADC_SAR_1_IRQ_Disable();
  77              		.loc 1 90 0
  78 0008 FFF7FEFF 		bl	ADC_SAR_1_IRQ_Disable
  91:.\Generated_Source\PSoC5/ADC_SAR_1_IRQ.c **** 
  92:.\Generated_Source\PSoC5/ADC_SAR_1_IRQ.c ****     /* Set the ISR to point to the ADC_SAR_1_IRQ Interrupt. */
  93:.\Generated_Source\PSoC5/ADC_SAR_1_IRQ.c ****     ADC_SAR_1_IRQ_SetVector(address);
ARM GAS  C:\Users\BRANKO~1\AppData\Local\Temp\ccRURHso.s 			page 4


  79              		.loc 1 93 0
  80 000c 7868     		ldr	r0, [r7, #4]
  81 000e FFF7FEFF 		bl	ADC_SAR_1_IRQ_SetVector
  94:.\Generated_Source\PSoC5/ADC_SAR_1_IRQ.c **** 
  95:.\Generated_Source\PSoC5/ADC_SAR_1_IRQ.c ****     /* Set the priority. */
  96:.\Generated_Source\PSoC5/ADC_SAR_1_IRQ.c ****     ADC_SAR_1_IRQ_SetPriority((uint8)ADC_SAR_1_IRQ_INTC_PRIOR_NUMBER);
  82              		.loc 1 96 0
  83 0012 0720     		movs	r0, #7
  84 0014 FFF7FEFF 		bl	ADC_SAR_1_IRQ_SetPriority
  97:.\Generated_Source\PSoC5/ADC_SAR_1_IRQ.c **** 
  98:.\Generated_Source\PSoC5/ADC_SAR_1_IRQ.c ****     /* Enable it. */
  99:.\Generated_Source\PSoC5/ADC_SAR_1_IRQ.c ****     ADC_SAR_1_IRQ_Enable();
  85              		.loc 1 99 0
  86 0018 FFF7FEFF 		bl	ADC_SAR_1_IRQ_Enable
 100:.\Generated_Source\PSoC5/ADC_SAR_1_IRQ.c **** }
  87              		.loc 1 100 0
  88 001c 0837     		adds	r7, r7, #8
  89 001e BD46     		mov	sp, r7
  90              		@ sp needed
  91 0020 80BD     		pop	{r7, pc}
  92              		.cfi_endproc
  93              	.LFE1:
  94              		.size	ADC_SAR_1_IRQ_StartEx, .-ADC_SAR_1_IRQ_StartEx
  95 0022 00BF     		.section	.text.ADC_SAR_1_IRQ_Stop,"ax",%progbits
  96              		.align	2
  97              		.global	ADC_SAR_1_IRQ_Stop
  98              		.thumb
  99              		.thumb_func
 100              		.type	ADC_SAR_1_IRQ_Stop, %function
 101              	ADC_SAR_1_IRQ_Stop:
 102              	.LFB2:
 101:.\Generated_Source\PSoC5/ADC_SAR_1_IRQ.c **** 
 102:.\Generated_Source\PSoC5/ADC_SAR_1_IRQ.c **** 
 103:.\Generated_Source\PSoC5/ADC_SAR_1_IRQ.c **** /*******************************************************************************
 104:.\Generated_Source\PSoC5/ADC_SAR_1_IRQ.c **** * Function Name: ADC_SAR_1_IRQ_Stop
 105:.\Generated_Source\PSoC5/ADC_SAR_1_IRQ.c **** ********************************************************************************
 106:.\Generated_Source\PSoC5/ADC_SAR_1_IRQ.c **** *
 107:.\Generated_Source\PSoC5/ADC_SAR_1_IRQ.c **** * Summary:
 108:.\Generated_Source\PSoC5/ADC_SAR_1_IRQ.c **** *   Disables and removes the interrupt.
 109:.\Generated_Source\PSoC5/ADC_SAR_1_IRQ.c **** *
 110:.\Generated_Source\PSoC5/ADC_SAR_1_IRQ.c **** * Parameters:  
 111:.\Generated_Source\PSoC5/ADC_SAR_1_IRQ.c **** *
 112:.\Generated_Source\PSoC5/ADC_SAR_1_IRQ.c **** * Return:
 113:.\Generated_Source\PSoC5/ADC_SAR_1_IRQ.c **** *   None
 114:.\Generated_Source\PSoC5/ADC_SAR_1_IRQ.c **** *
 115:.\Generated_Source\PSoC5/ADC_SAR_1_IRQ.c **** *******************************************************************************/
 116:.\Generated_Source\PSoC5/ADC_SAR_1_IRQ.c **** void ADC_SAR_1_IRQ_Stop(void)
 117:.\Generated_Source\PSoC5/ADC_SAR_1_IRQ.c **** {
 103              		.loc 1 117 0
 104              		.cfi_startproc
 105              		@ args = 0, pretend = 0, frame = 0
 106              		@ frame_needed = 1, uses_anonymous_args = 0
 107 0000 80B5     		push	{r7, lr}
 108              		.cfi_def_cfa_offset 8
 109              		.cfi_offset 7, -8
 110              		.cfi_offset 14, -4
 111 0002 00AF     		add	r7, sp, #0
ARM GAS  C:\Users\BRANKO~1\AppData\Local\Temp\ccRURHso.s 			page 5


 112              		.cfi_def_cfa_register 7
 118:.\Generated_Source\PSoC5/ADC_SAR_1_IRQ.c ****     /* Disable this interrupt. */
 119:.\Generated_Source\PSoC5/ADC_SAR_1_IRQ.c ****     ADC_SAR_1_IRQ_Disable();
 113              		.loc 1 119 0
 114 0004 FFF7FEFF 		bl	ADC_SAR_1_IRQ_Disable
 120:.\Generated_Source\PSoC5/ADC_SAR_1_IRQ.c **** 
 121:.\Generated_Source\PSoC5/ADC_SAR_1_IRQ.c ****     /* Set the ISR to point to the passive one. */
 122:.\Generated_Source\PSoC5/ADC_SAR_1_IRQ.c ****     ADC_SAR_1_IRQ_SetVector(&IntDefaultHandler);
 115              		.loc 1 122 0
 116 0008 0148     		ldr	r0, .L6
 117 000a FFF7FEFF 		bl	ADC_SAR_1_IRQ_SetVector
 123:.\Generated_Source\PSoC5/ADC_SAR_1_IRQ.c **** }
 118              		.loc 1 123 0
 119 000e 80BD     		pop	{r7, pc}
 120              	.L7:
 121              		.align	2
 122              	.L6:
 123 0010 00000000 		.word	IntDefaultHandler
 124              		.cfi_endproc
 125              	.LFE2:
 126              		.size	ADC_SAR_1_IRQ_Stop, .-ADC_SAR_1_IRQ_Stop
 127              		.section	.text.ADC_SAR_1_IRQ_Interrupt,"ax",%progbits
 128              		.align	2
 129              		.global	ADC_SAR_1_IRQ_Interrupt
 130              		.thumb
 131              		.thumb_func
 132              		.type	ADC_SAR_1_IRQ_Interrupt, %function
 133              	ADC_SAR_1_IRQ_Interrupt:
 134              	.LFB3:
 124:.\Generated_Source\PSoC5/ADC_SAR_1_IRQ.c **** 
 125:.\Generated_Source\PSoC5/ADC_SAR_1_IRQ.c **** 
 126:.\Generated_Source\PSoC5/ADC_SAR_1_IRQ.c **** /*******************************************************************************
 127:.\Generated_Source\PSoC5/ADC_SAR_1_IRQ.c **** * Function Name: ADC_SAR_1_IRQ_Interrupt
 128:.\Generated_Source\PSoC5/ADC_SAR_1_IRQ.c **** ********************************************************************************
 129:.\Generated_Source\PSoC5/ADC_SAR_1_IRQ.c **** *
 130:.\Generated_Source\PSoC5/ADC_SAR_1_IRQ.c **** * Summary:
 131:.\Generated_Source\PSoC5/ADC_SAR_1_IRQ.c **** *   The default Interrupt Service Routine for ADC_SAR_1_IRQ.
 132:.\Generated_Source\PSoC5/ADC_SAR_1_IRQ.c **** *
 133:.\Generated_Source\PSoC5/ADC_SAR_1_IRQ.c **** *   Add custom code between the coments to keep the next version of this file
 134:.\Generated_Source\PSoC5/ADC_SAR_1_IRQ.c **** *   from over writting your code.
 135:.\Generated_Source\PSoC5/ADC_SAR_1_IRQ.c **** *
 136:.\Generated_Source\PSoC5/ADC_SAR_1_IRQ.c **** * Parameters:  
 137:.\Generated_Source\PSoC5/ADC_SAR_1_IRQ.c **** *
 138:.\Generated_Source\PSoC5/ADC_SAR_1_IRQ.c **** * Return:
 139:.\Generated_Source\PSoC5/ADC_SAR_1_IRQ.c **** *   None
 140:.\Generated_Source\PSoC5/ADC_SAR_1_IRQ.c **** *
 141:.\Generated_Source\PSoC5/ADC_SAR_1_IRQ.c **** *******************************************************************************/
 142:.\Generated_Source\PSoC5/ADC_SAR_1_IRQ.c **** CY_ISR(ADC_SAR_1_IRQ_Interrupt)
 143:.\Generated_Source\PSoC5/ADC_SAR_1_IRQ.c **** {
 135              		.loc 1 143 0
 136              		.cfi_startproc
 137              		@ args = 0, pretend = 0, frame = 0
 138              		@ frame_needed = 1, uses_anonymous_args = 0
 139              		@ link register save eliminated.
 140 0000 80B4     		push	{r7}
 141              		.cfi_def_cfa_offset 4
 142              		.cfi_offset 7, -4
ARM GAS  C:\Users\BRANKO~1\AppData\Local\Temp\ccRURHso.s 			page 6


 143 0002 00AF     		add	r7, sp, #0
 144              		.cfi_def_cfa_register 7
 144:.\Generated_Source\PSoC5/ADC_SAR_1_IRQ.c ****     /*  Place your Interrupt code here. */
 145:.\Generated_Source\PSoC5/ADC_SAR_1_IRQ.c ****     /* `#START ADC_SAR_1_IRQ_Interrupt` */
 146:.\Generated_Source\PSoC5/ADC_SAR_1_IRQ.c **** 
 147:.\Generated_Source\PSoC5/ADC_SAR_1_IRQ.c ****     /* `#END` */
 148:.\Generated_Source\PSoC5/ADC_SAR_1_IRQ.c **** }
 145              		.loc 1 148 0
 146 0004 BD46     		mov	sp, r7
 147              		@ sp needed
 148 0006 5DF8047B 		ldr	r7, [sp], #4
 149 000a 7047     		bx	lr
 150              		.cfi_endproc
 151              	.LFE3:
 152              		.size	ADC_SAR_1_IRQ_Interrupt, .-ADC_SAR_1_IRQ_Interrupt
 153              		.section	.text.ADC_SAR_1_IRQ_SetVector,"ax",%progbits
 154              		.align	2
 155              		.global	ADC_SAR_1_IRQ_SetVector
 156              		.thumb
 157              		.thumb_func
 158              		.type	ADC_SAR_1_IRQ_SetVector, %function
 159              	ADC_SAR_1_IRQ_SetVector:
 160              	.LFB4:
 149:.\Generated_Source\PSoC5/ADC_SAR_1_IRQ.c **** 
 150:.\Generated_Source\PSoC5/ADC_SAR_1_IRQ.c **** 
 151:.\Generated_Source\PSoC5/ADC_SAR_1_IRQ.c **** /*******************************************************************************
 152:.\Generated_Source\PSoC5/ADC_SAR_1_IRQ.c **** * Function Name: ADC_SAR_1_IRQ_SetVector
 153:.\Generated_Source\PSoC5/ADC_SAR_1_IRQ.c **** ********************************************************************************
 154:.\Generated_Source\PSoC5/ADC_SAR_1_IRQ.c **** *
 155:.\Generated_Source\PSoC5/ADC_SAR_1_IRQ.c **** * Summary:
 156:.\Generated_Source\PSoC5/ADC_SAR_1_IRQ.c **** *   Change the ISR vector for the Interrupt. Note calling ADC_SAR_1_IRQ_Start
 157:.\Generated_Source\PSoC5/ADC_SAR_1_IRQ.c **** *   will override any effect this method would have had. To set the vector 
 158:.\Generated_Source\PSoC5/ADC_SAR_1_IRQ.c **** *   before the component has been started use ADC_SAR_1_IRQ_StartEx instead.
 159:.\Generated_Source\PSoC5/ADC_SAR_1_IRQ.c **** *
 160:.\Generated_Source\PSoC5/ADC_SAR_1_IRQ.c **** * Parameters:
 161:.\Generated_Source\PSoC5/ADC_SAR_1_IRQ.c **** *   address: Address of the ISR to set in the interrupt vector table.
 162:.\Generated_Source\PSoC5/ADC_SAR_1_IRQ.c **** *
 163:.\Generated_Source\PSoC5/ADC_SAR_1_IRQ.c **** * Return:
 164:.\Generated_Source\PSoC5/ADC_SAR_1_IRQ.c **** *   None
 165:.\Generated_Source\PSoC5/ADC_SAR_1_IRQ.c **** *
 166:.\Generated_Source\PSoC5/ADC_SAR_1_IRQ.c **** *******************************************************************************/
 167:.\Generated_Source\PSoC5/ADC_SAR_1_IRQ.c **** void ADC_SAR_1_IRQ_SetVector(cyisraddress address)
 168:.\Generated_Source\PSoC5/ADC_SAR_1_IRQ.c **** {
 161              		.loc 1 168 0
 162              		.cfi_startproc
 163              		@ args = 0, pretend = 0, frame = 16
 164              		@ frame_needed = 1, uses_anonymous_args = 0
 165              		@ link register save eliminated.
 166 0000 80B4     		push	{r7}
 167              		.cfi_def_cfa_offset 4
 168              		.cfi_offset 7, -4
 169 0002 85B0     		sub	sp, sp, #20
 170              		.cfi_def_cfa_offset 24
 171 0004 00AF     		add	r7, sp, #0
 172              		.cfi_def_cfa_register 7
 173 0006 7860     		str	r0, [r7, #4]
 169:.\Generated_Source\PSoC5/ADC_SAR_1_IRQ.c ****     cyisraddress * ramVectorTable;
ARM GAS  C:\Users\BRANKO~1\AppData\Local\Temp\ccRURHso.s 			page 7


 170:.\Generated_Source\PSoC5/ADC_SAR_1_IRQ.c **** 
 171:.\Generated_Source\PSoC5/ADC_SAR_1_IRQ.c ****     ramVectorTable = (cyisraddress *) *CYINT_VECT_TABLE;
 174              		.loc 1 171 0
 175 0008 054B     		ldr	r3, .L10
 176 000a 1B68     		ldr	r3, [r3]
 177 000c FB60     		str	r3, [r7, #12]
 172:.\Generated_Source\PSoC5/ADC_SAR_1_IRQ.c **** 
 173:.\Generated_Source\PSoC5/ADC_SAR_1_IRQ.c ****     ramVectorTable[CYINT_IRQ_BASE + (uint32)ADC_SAR_1_IRQ__INTC_NUMBER] = address;
 178              		.loc 1 173 0
 179 000e FB68     		ldr	r3, [r7, #12]
 180 0010 4433     		adds	r3, r3, #68
 181 0012 7A68     		ldr	r2, [r7, #4]
 182 0014 1A60     		str	r2, [r3]
 174:.\Generated_Source\PSoC5/ADC_SAR_1_IRQ.c **** }
 183              		.loc 1 174 0
 184 0016 1437     		adds	r7, r7, #20
 185 0018 BD46     		mov	sp, r7
 186              		@ sp needed
 187 001a 5DF8047B 		ldr	r7, [sp], #4
 188 001e 7047     		bx	lr
 189              	.L11:
 190              		.align	2
 191              	.L10:
 192 0020 08ED00E0 		.word	-536810232
 193              		.cfi_endproc
 194              	.LFE4:
 195              		.size	ADC_SAR_1_IRQ_SetVector, .-ADC_SAR_1_IRQ_SetVector
 196              		.section	.text.ADC_SAR_1_IRQ_GetVector,"ax",%progbits
 197              		.align	2
 198              		.global	ADC_SAR_1_IRQ_GetVector
 199              		.thumb
 200              		.thumb_func
 201              		.type	ADC_SAR_1_IRQ_GetVector, %function
 202              	ADC_SAR_1_IRQ_GetVector:
 203              	.LFB5:
 175:.\Generated_Source\PSoC5/ADC_SAR_1_IRQ.c **** 
 176:.\Generated_Source\PSoC5/ADC_SAR_1_IRQ.c **** 
 177:.\Generated_Source\PSoC5/ADC_SAR_1_IRQ.c **** /*******************************************************************************
 178:.\Generated_Source\PSoC5/ADC_SAR_1_IRQ.c **** * Function Name: ADC_SAR_1_IRQ_GetVector
 179:.\Generated_Source\PSoC5/ADC_SAR_1_IRQ.c **** ********************************************************************************
 180:.\Generated_Source\PSoC5/ADC_SAR_1_IRQ.c **** *
 181:.\Generated_Source\PSoC5/ADC_SAR_1_IRQ.c **** * Summary:
 182:.\Generated_Source\PSoC5/ADC_SAR_1_IRQ.c **** *   Gets the "address" of the current ISR vector for the Interrupt.
 183:.\Generated_Source\PSoC5/ADC_SAR_1_IRQ.c **** *
 184:.\Generated_Source\PSoC5/ADC_SAR_1_IRQ.c **** * Parameters:
 185:.\Generated_Source\PSoC5/ADC_SAR_1_IRQ.c **** *   None
 186:.\Generated_Source\PSoC5/ADC_SAR_1_IRQ.c **** *
 187:.\Generated_Source\PSoC5/ADC_SAR_1_IRQ.c **** * Return:
 188:.\Generated_Source\PSoC5/ADC_SAR_1_IRQ.c **** *   Address of the ISR in the interrupt vector table.
 189:.\Generated_Source\PSoC5/ADC_SAR_1_IRQ.c **** *
 190:.\Generated_Source\PSoC5/ADC_SAR_1_IRQ.c **** *******************************************************************************/
 191:.\Generated_Source\PSoC5/ADC_SAR_1_IRQ.c **** cyisraddress ADC_SAR_1_IRQ_GetVector(void)
 192:.\Generated_Source\PSoC5/ADC_SAR_1_IRQ.c **** {
 204              		.loc 1 192 0
 205              		.cfi_startproc
 206              		@ args = 0, pretend = 0, frame = 8
 207              		@ frame_needed = 1, uses_anonymous_args = 0
ARM GAS  C:\Users\BRANKO~1\AppData\Local\Temp\ccRURHso.s 			page 8


 208              		@ link register save eliminated.
 209 0000 80B4     		push	{r7}
 210              		.cfi_def_cfa_offset 4
 211              		.cfi_offset 7, -4
 212 0002 83B0     		sub	sp, sp, #12
 213              		.cfi_def_cfa_offset 16
 214 0004 00AF     		add	r7, sp, #0
 215              		.cfi_def_cfa_register 7
 193:.\Generated_Source\PSoC5/ADC_SAR_1_IRQ.c ****     cyisraddress * ramVectorTable;
 194:.\Generated_Source\PSoC5/ADC_SAR_1_IRQ.c **** 
 195:.\Generated_Source\PSoC5/ADC_SAR_1_IRQ.c ****     ramVectorTable = (cyisraddress *) *CYINT_VECT_TABLE;
 216              		.loc 1 195 0
 217 0006 054B     		ldr	r3, .L14
 218 0008 1B68     		ldr	r3, [r3]
 219 000a 7B60     		str	r3, [r7, #4]
 196:.\Generated_Source\PSoC5/ADC_SAR_1_IRQ.c **** 
 197:.\Generated_Source\PSoC5/ADC_SAR_1_IRQ.c ****     return ramVectorTable[CYINT_IRQ_BASE + (uint32)ADC_SAR_1_IRQ__INTC_NUMBER];
 220              		.loc 1 197 0
 221 000c 7B68     		ldr	r3, [r7, #4]
 222 000e 5B6C     		ldr	r3, [r3, #68]
 198:.\Generated_Source\PSoC5/ADC_SAR_1_IRQ.c **** }
 223              		.loc 1 198 0
 224 0010 1846     		mov	r0, r3
 225 0012 0C37     		adds	r7, r7, #12
 226 0014 BD46     		mov	sp, r7
 227              		@ sp needed
 228 0016 5DF8047B 		ldr	r7, [sp], #4
 229 001a 7047     		bx	lr
 230              	.L15:
 231              		.align	2
 232              	.L14:
 233 001c 08ED00E0 		.word	-536810232
 234              		.cfi_endproc
 235              	.LFE5:
 236              		.size	ADC_SAR_1_IRQ_GetVector, .-ADC_SAR_1_IRQ_GetVector
 237              		.section	.text.ADC_SAR_1_IRQ_SetPriority,"ax",%progbits
 238              		.align	2
 239              		.global	ADC_SAR_1_IRQ_SetPriority
 240              		.thumb
 241              		.thumb_func
 242              		.type	ADC_SAR_1_IRQ_SetPriority, %function
 243              	ADC_SAR_1_IRQ_SetPriority:
 244              	.LFB6:
 199:.\Generated_Source\PSoC5/ADC_SAR_1_IRQ.c **** 
 200:.\Generated_Source\PSoC5/ADC_SAR_1_IRQ.c **** 
 201:.\Generated_Source\PSoC5/ADC_SAR_1_IRQ.c **** /*******************************************************************************
 202:.\Generated_Source\PSoC5/ADC_SAR_1_IRQ.c **** * Function Name: ADC_SAR_1_IRQ_SetPriority
 203:.\Generated_Source\PSoC5/ADC_SAR_1_IRQ.c **** ********************************************************************************
 204:.\Generated_Source\PSoC5/ADC_SAR_1_IRQ.c **** *
 205:.\Generated_Source\PSoC5/ADC_SAR_1_IRQ.c **** * Summary:
 206:.\Generated_Source\PSoC5/ADC_SAR_1_IRQ.c **** *   Sets the Priority of the Interrupt. Note calling ADC_SAR_1_IRQ_Start
 207:.\Generated_Source\PSoC5/ADC_SAR_1_IRQ.c **** *   or ADC_SAR_1_IRQ_StartEx will override any effect this method 
 208:.\Generated_Source\PSoC5/ADC_SAR_1_IRQ.c **** *   would have had. This method should only be called after 
 209:.\Generated_Source\PSoC5/ADC_SAR_1_IRQ.c **** *   ADC_SAR_1_IRQ_Start or ADC_SAR_1_IRQ_StartEx has been called. To set 
 210:.\Generated_Source\PSoC5/ADC_SAR_1_IRQ.c **** *   the initial priority for the component use the cydwr file in the tool.
 211:.\Generated_Source\PSoC5/ADC_SAR_1_IRQ.c **** *
 212:.\Generated_Source\PSoC5/ADC_SAR_1_IRQ.c **** * Parameters:
ARM GAS  C:\Users\BRANKO~1\AppData\Local\Temp\ccRURHso.s 			page 9


 213:.\Generated_Source\PSoC5/ADC_SAR_1_IRQ.c **** *   priority: Priority of the interrupt. 0 - 7, 0 being the highest.
 214:.\Generated_Source\PSoC5/ADC_SAR_1_IRQ.c **** *
 215:.\Generated_Source\PSoC5/ADC_SAR_1_IRQ.c **** * Return:
 216:.\Generated_Source\PSoC5/ADC_SAR_1_IRQ.c **** *   None
 217:.\Generated_Source\PSoC5/ADC_SAR_1_IRQ.c **** *
 218:.\Generated_Source\PSoC5/ADC_SAR_1_IRQ.c **** *******************************************************************************/
 219:.\Generated_Source\PSoC5/ADC_SAR_1_IRQ.c **** void ADC_SAR_1_IRQ_SetPriority(uint8 priority)
 220:.\Generated_Source\PSoC5/ADC_SAR_1_IRQ.c **** {
 245              		.loc 1 220 0
 246              		.cfi_startproc
 247              		@ args = 0, pretend = 0, frame = 8
 248              		@ frame_needed = 1, uses_anonymous_args = 0
 249              		@ link register save eliminated.
 250 0000 80B4     		push	{r7}
 251              		.cfi_def_cfa_offset 4
 252              		.cfi_offset 7, -4
 253 0002 83B0     		sub	sp, sp, #12
 254              		.cfi_def_cfa_offset 16
 255 0004 00AF     		add	r7, sp, #0
 256              		.cfi_def_cfa_register 7
 257 0006 0346     		mov	r3, r0
 258 0008 FB71     		strb	r3, [r7, #7]
 221:.\Generated_Source\PSoC5/ADC_SAR_1_IRQ.c ****     *ADC_SAR_1_IRQ_INTC_PRIOR = priority << 5;
 259              		.loc 1 221 0
 260 000a 054B     		ldr	r3, .L17
 261 000c FA79     		ldrb	r2, [r7, #7]
 262 000e 5201     		lsls	r2, r2, #5
 263 0010 D2B2     		uxtb	r2, r2
 264 0012 1A70     		strb	r2, [r3]
 222:.\Generated_Source\PSoC5/ADC_SAR_1_IRQ.c **** }
 265              		.loc 1 222 0
 266 0014 0C37     		adds	r7, r7, #12
 267 0016 BD46     		mov	sp, r7
 268              		@ sp needed
 269 0018 5DF8047B 		ldr	r7, [sp], #4
 270 001c 7047     		bx	lr
 271              	.L18:
 272 001e 00BF     		.align	2
 273              	.L17:
 274 0020 01E400E0 		.word	-536812543
 275              		.cfi_endproc
 276              	.LFE6:
 277              		.size	ADC_SAR_1_IRQ_SetPriority, .-ADC_SAR_1_IRQ_SetPriority
 278              		.section	.text.ADC_SAR_1_IRQ_GetPriority,"ax",%progbits
 279              		.align	2
 280              		.global	ADC_SAR_1_IRQ_GetPriority
 281              		.thumb
 282              		.thumb_func
 283              		.type	ADC_SAR_1_IRQ_GetPriority, %function
 284              	ADC_SAR_1_IRQ_GetPriority:
 285              	.LFB7:
 223:.\Generated_Source\PSoC5/ADC_SAR_1_IRQ.c **** 
 224:.\Generated_Source\PSoC5/ADC_SAR_1_IRQ.c **** 
 225:.\Generated_Source\PSoC5/ADC_SAR_1_IRQ.c **** /*******************************************************************************
 226:.\Generated_Source\PSoC5/ADC_SAR_1_IRQ.c **** * Function Name: ADC_SAR_1_IRQ_GetPriority
 227:.\Generated_Source\PSoC5/ADC_SAR_1_IRQ.c **** ********************************************************************************
 228:.\Generated_Source\PSoC5/ADC_SAR_1_IRQ.c **** *
ARM GAS  C:\Users\BRANKO~1\AppData\Local\Temp\ccRURHso.s 			page 10


 229:.\Generated_Source\PSoC5/ADC_SAR_1_IRQ.c **** * Summary:
 230:.\Generated_Source\PSoC5/ADC_SAR_1_IRQ.c **** *   Gets the Priority of the Interrupt.
 231:.\Generated_Source\PSoC5/ADC_SAR_1_IRQ.c **** *
 232:.\Generated_Source\PSoC5/ADC_SAR_1_IRQ.c **** * Parameters:
 233:.\Generated_Source\PSoC5/ADC_SAR_1_IRQ.c **** *   None
 234:.\Generated_Source\PSoC5/ADC_SAR_1_IRQ.c **** *
 235:.\Generated_Source\PSoC5/ADC_SAR_1_IRQ.c **** * Return:
 236:.\Generated_Source\PSoC5/ADC_SAR_1_IRQ.c **** *   Priority of the interrupt. 0 - 7, 0 being the highest.
 237:.\Generated_Source\PSoC5/ADC_SAR_1_IRQ.c **** *
 238:.\Generated_Source\PSoC5/ADC_SAR_1_IRQ.c **** *******************************************************************************/
 239:.\Generated_Source\PSoC5/ADC_SAR_1_IRQ.c **** uint8 ADC_SAR_1_IRQ_GetPriority(void)
 240:.\Generated_Source\PSoC5/ADC_SAR_1_IRQ.c **** {
 286              		.loc 1 240 0
 287              		.cfi_startproc
 288              		@ args = 0, pretend = 0, frame = 8
 289              		@ frame_needed = 1, uses_anonymous_args = 0
 290              		@ link register save eliminated.
 291 0000 80B4     		push	{r7}
 292              		.cfi_def_cfa_offset 4
 293              		.cfi_offset 7, -4
 294 0002 83B0     		sub	sp, sp, #12
 295              		.cfi_def_cfa_offset 16
 296 0004 00AF     		add	r7, sp, #0
 297              		.cfi_def_cfa_register 7
 241:.\Generated_Source\PSoC5/ADC_SAR_1_IRQ.c ****     uint8 priority;
 242:.\Generated_Source\PSoC5/ADC_SAR_1_IRQ.c **** 
 243:.\Generated_Source\PSoC5/ADC_SAR_1_IRQ.c **** 
 244:.\Generated_Source\PSoC5/ADC_SAR_1_IRQ.c ****     priority = *ADC_SAR_1_IRQ_INTC_PRIOR >> 5;
 298              		.loc 1 244 0
 299 0006 064B     		ldr	r3, .L21
 300 0008 1B78     		ldrb	r3, [r3]
 301 000a DBB2     		uxtb	r3, r3
 302 000c 5B09     		lsrs	r3, r3, #5
 303 000e FB71     		strb	r3, [r7, #7]
 245:.\Generated_Source\PSoC5/ADC_SAR_1_IRQ.c **** 
 246:.\Generated_Source\PSoC5/ADC_SAR_1_IRQ.c ****     return priority;
 304              		.loc 1 246 0
 305 0010 FB79     		ldrb	r3, [r7, #7]	@ zero_extendqisi2
 247:.\Generated_Source\PSoC5/ADC_SAR_1_IRQ.c **** }
 306              		.loc 1 247 0
 307 0012 1846     		mov	r0, r3
 308 0014 0C37     		adds	r7, r7, #12
 309 0016 BD46     		mov	sp, r7
 310              		@ sp needed
 311 0018 5DF8047B 		ldr	r7, [sp], #4
 312 001c 7047     		bx	lr
 313              	.L22:
 314 001e 00BF     		.align	2
 315              	.L21:
 316 0020 01E400E0 		.word	-536812543
 317              		.cfi_endproc
 318              	.LFE7:
 319              		.size	ADC_SAR_1_IRQ_GetPriority, .-ADC_SAR_1_IRQ_GetPriority
 320              		.section	.text.ADC_SAR_1_IRQ_Enable,"ax",%progbits
 321              		.align	2
 322              		.global	ADC_SAR_1_IRQ_Enable
 323              		.thumb
ARM GAS  C:\Users\BRANKO~1\AppData\Local\Temp\ccRURHso.s 			page 11


 324              		.thumb_func
 325              		.type	ADC_SAR_1_IRQ_Enable, %function
 326              	ADC_SAR_1_IRQ_Enable:
 327              	.LFB8:
 248:.\Generated_Source\PSoC5/ADC_SAR_1_IRQ.c **** 
 249:.\Generated_Source\PSoC5/ADC_SAR_1_IRQ.c **** 
 250:.\Generated_Source\PSoC5/ADC_SAR_1_IRQ.c **** /*******************************************************************************
 251:.\Generated_Source\PSoC5/ADC_SAR_1_IRQ.c **** * Function Name: ADC_SAR_1_IRQ_Enable
 252:.\Generated_Source\PSoC5/ADC_SAR_1_IRQ.c **** ********************************************************************************
 253:.\Generated_Source\PSoC5/ADC_SAR_1_IRQ.c **** *
 254:.\Generated_Source\PSoC5/ADC_SAR_1_IRQ.c **** * Summary:
 255:.\Generated_Source\PSoC5/ADC_SAR_1_IRQ.c **** *   Enables the interrupt.
 256:.\Generated_Source\PSoC5/ADC_SAR_1_IRQ.c **** *
 257:.\Generated_Source\PSoC5/ADC_SAR_1_IRQ.c **** * Parameters:
 258:.\Generated_Source\PSoC5/ADC_SAR_1_IRQ.c **** *   None
 259:.\Generated_Source\PSoC5/ADC_SAR_1_IRQ.c **** *
 260:.\Generated_Source\PSoC5/ADC_SAR_1_IRQ.c **** * Return:
 261:.\Generated_Source\PSoC5/ADC_SAR_1_IRQ.c **** *   None
 262:.\Generated_Source\PSoC5/ADC_SAR_1_IRQ.c **** *
 263:.\Generated_Source\PSoC5/ADC_SAR_1_IRQ.c **** *******************************************************************************/
 264:.\Generated_Source\PSoC5/ADC_SAR_1_IRQ.c **** void ADC_SAR_1_IRQ_Enable(void)
 265:.\Generated_Source\PSoC5/ADC_SAR_1_IRQ.c **** {
 328              		.loc 1 265 0
 329              		.cfi_startproc
 330              		@ args = 0, pretend = 0, frame = 0
 331              		@ frame_needed = 1, uses_anonymous_args = 0
 332              		@ link register save eliminated.
 333 0000 80B4     		push	{r7}
 334              		.cfi_def_cfa_offset 4
 335              		.cfi_offset 7, -4
 336 0002 00AF     		add	r7, sp, #0
 337              		.cfi_def_cfa_register 7
 266:.\Generated_Source\PSoC5/ADC_SAR_1_IRQ.c ****     /* Enable the general interrupt. */
 267:.\Generated_Source\PSoC5/ADC_SAR_1_IRQ.c ****     *ADC_SAR_1_IRQ_INTC_SET_EN = ADC_SAR_1_IRQ__INTC_MASK;
 338              		.loc 1 267 0
 339 0004 034B     		ldr	r3, .L24
 340 0006 0222     		movs	r2, #2
 341 0008 1A60     		str	r2, [r3]
 268:.\Generated_Source\PSoC5/ADC_SAR_1_IRQ.c **** }
 342              		.loc 1 268 0
 343 000a BD46     		mov	sp, r7
 344              		@ sp needed
 345 000c 5DF8047B 		ldr	r7, [sp], #4
 346 0010 7047     		bx	lr
 347              	.L25:
 348 0012 00BF     		.align	2
 349              	.L24:
 350 0014 00E100E0 		.word	-536813312
 351              		.cfi_endproc
 352              	.LFE8:
 353              		.size	ADC_SAR_1_IRQ_Enable, .-ADC_SAR_1_IRQ_Enable
 354              		.section	.text.ADC_SAR_1_IRQ_GetState,"ax",%progbits
 355              		.align	2
 356              		.global	ADC_SAR_1_IRQ_GetState
 357              		.thumb
 358              		.thumb_func
 359              		.type	ADC_SAR_1_IRQ_GetState, %function
ARM GAS  C:\Users\BRANKO~1\AppData\Local\Temp\ccRURHso.s 			page 12


 360              	ADC_SAR_1_IRQ_GetState:
 361              	.LFB9:
 269:.\Generated_Source\PSoC5/ADC_SAR_1_IRQ.c **** 
 270:.\Generated_Source\PSoC5/ADC_SAR_1_IRQ.c **** 
 271:.\Generated_Source\PSoC5/ADC_SAR_1_IRQ.c **** /*******************************************************************************
 272:.\Generated_Source\PSoC5/ADC_SAR_1_IRQ.c **** * Function Name: ADC_SAR_1_IRQ_GetState
 273:.\Generated_Source\PSoC5/ADC_SAR_1_IRQ.c **** ********************************************************************************
 274:.\Generated_Source\PSoC5/ADC_SAR_1_IRQ.c **** *
 275:.\Generated_Source\PSoC5/ADC_SAR_1_IRQ.c **** * Summary:
 276:.\Generated_Source\PSoC5/ADC_SAR_1_IRQ.c **** *   Gets the state (enabled, disabled) of the Interrupt.
 277:.\Generated_Source\PSoC5/ADC_SAR_1_IRQ.c **** *
 278:.\Generated_Source\PSoC5/ADC_SAR_1_IRQ.c **** * Parameters:
 279:.\Generated_Source\PSoC5/ADC_SAR_1_IRQ.c **** *   None
 280:.\Generated_Source\PSoC5/ADC_SAR_1_IRQ.c **** *
 281:.\Generated_Source\PSoC5/ADC_SAR_1_IRQ.c **** * Return:
 282:.\Generated_Source\PSoC5/ADC_SAR_1_IRQ.c **** *   1 if enabled, 0 if disabled.
 283:.\Generated_Source\PSoC5/ADC_SAR_1_IRQ.c **** *
 284:.\Generated_Source\PSoC5/ADC_SAR_1_IRQ.c **** *******************************************************************************/
 285:.\Generated_Source\PSoC5/ADC_SAR_1_IRQ.c **** uint8 ADC_SAR_1_IRQ_GetState(void)
 286:.\Generated_Source\PSoC5/ADC_SAR_1_IRQ.c **** {
 362              		.loc 1 286 0
 363              		.cfi_startproc
 364              		@ args = 0, pretend = 0, frame = 0
 365              		@ frame_needed = 1, uses_anonymous_args = 0
 366              		@ link register save eliminated.
 367 0000 80B4     		push	{r7}
 368              		.cfi_def_cfa_offset 4
 369              		.cfi_offset 7, -4
 370 0002 00AF     		add	r7, sp, #0
 371              		.cfi_def_cfa_register 7
 287:.\Generated_Source\PSoC5/ADC_SAR_1_IRQ.c ****     /* Get the state of the general interrupt. */
 288:.\Generated_Source\PSoC5/ADC_SAR_1_IRQ.c ****     return ((*ADC_SAR_1_IRQ_INTC_SET_EN & (uint32)ADC_SAR_1_IRQ__INTC_MASK) != 0u) ? 1u:0u;
 372              		.loc 1 288 0
 373 0004 064B     		ldr	r3, .L30
 374 0006 1B68     		ldr	r3, [r3]
 375 0008 03F00203 		and	r3, r3, #2
 376 000c 002B     		cmp	r3, #0
 377 000e 01D0     		beq	.L27
 378              		.loc 1 288 0 is_stmt 0 discriminator 1
 379 0010 0123     		movs	r3, #1
 380 0012 00E0     		b	.L28
 381              	.L27:
 382              		.loc 1 288 0 discriminator 2
 383 0014 0023     		movs	r3, #0
 384              	.L28:
 289:.\Generated_Source\PSoC5/ADC_SAR_1_IRQ.c **** }
 385              		.loc 1 289 0 is_stmt 1 discriminator 3
 386 0016 1846     		mov	r0, r3
 387 0018 BD46     		mov	sp, r7
 388              		@ sp needed
 389 001a 5DF8047B 		ldr	r7, [sp], #4
 390 001e 7047     		bx	lr
 391              	.L31:
 392              		.align	2
 393              	.L30:
 394 0020 00E100E0 		.word	-536813312
 395              		.cfi_endproc
ARM GAS  C:\Users\BRANKO~1\AppData\Local\Temp\ccRURHso.s 			page 13


 396              	.LFE9:
 397              		.size	ADC_SAR_1_IRQ_GetState, .-ADC_SAR_1_IRQ_GetState
 398              		.section	.text.ADC_SAR_1_IRQ_Disable,"ax",%progbits
 399              		.align	2
 400              		.global	ADC_SAR_1_IRQ_Disable
 401              		.thumb
 402              		.thumb_func
 403              		.type	ADC_SAR_1_IRQ_Disable, %function
 404              	ADC_SAR_1_IRQ_Disable:
 405              	.LFB10:
 290:.\Generated_Source\PSoC5/ADC_SAR_1_IRQ.c **** 
 291:.\Generated_Source\PSoC5/ADC_SAR_1_IRQ.c **** 
 292:.\Generated_Source\PSoC5/ADC_SAR_1_IRQ.c **** /*******************************************************************************
 293:.\Generated_Source\PSoC5/ADC_SAR_1_IRQ.c **** * Function Name: ADC_SAR_1_IRQ_Disable
 294:.\Generated_Source\PSoC5/ADC_SAR_1_IRQ.c **** ********************************************************************************
 295:.\Generated_Source\PSoC5/ADC_SAR_1_IRQ.c **** *
 296:.\Generated_Source\PSoC5/ADC_SAR_1_IRQ.c **** * Summary:
 297:.\Generated_Source\PSoC5/ADC_SAR_1_IRQ.c **** *   Disables the Interrupt.
 298:.\Generated_Source\PSoC5/ADC_SAR_1_IRQ.c **** *
 299:.\Generated_Source\PSoC5/ADC_SAR_1_IRQ.c **** * Parameters:
 300:.\Generated_Source\PSoC5/ADC_SAR_1_IRQ.c **** *   None
 301:.\Generated_Source\PSoC5/ADC_SAR_1_IRQ.c **** *
 302:.\Generated_Source\PSoC5/ADC_SAR_1_IRQ.c **** * Return:
 303:.\Generated_Source\PSoC5/ADC_SAR_1_IRQ.c **** *   None
 304:.\Generated_Source\PSoC5/ADC_SAR_1_IRQ.c **** *
 305:.\Generated_Source\PSoC5/ADC_SAR_1_IRQ.c **** *******************************************************************************/
 306:.\Generated_Source\PSoC5/ADC_SAR_1_IRQ.c **** void ADC_SAR_1_IRQ_Disable(void)
 307:.\Generated_Source\PSoC5/ADC_SAR_1_IRQ.c **** {
 406              		.loc 1 307 0
 407              		.cfi_startproc
 408              		@ args = 0, pretend = 0, frame = 0
 409              		@ frame_needed = 1, uses_anonymous_args = 0
 410              		@ link register save eliminated.
 411 0000 80B4     		push	{r7}
 412              		.cfi_def_cfa_offset 4
 413              		.cfi_offset 7, -4
 414 0002 00AF     		add	r7, sp, #0
 415              		.cfi_def_cfa_register 7
 308:.\Generated_Source\PSoC5/ADC_SAR_1_IRQ.c ****     /* Disable the general interrupt. */
 309:.\Generated_Source\PSoC5/ADC_SAR_1_IRQ.c ****     *ADC_SAR_1_IRQ_INTC_CLR_EN = ADC_SAR_1_IRQ__INTC_MASK;
 416              		.loc 1 309 0
 417 0004 034B     		ldr	r3, .L33
 418 0006 0222     		movs	r2, #2
 419 0008 1A60     		str	r2, [r3]
 310:.\Generated_Source\PSoC5/ADC_SAR_1_IRQ.c **** }
 420              		.loc 1 310 0
 421 000a BD46     		mov	sp, r7
 422              		@ sp needed
 423 000c 5DF8047B 		ldr	r7, [sp], #4
 424 0010 7047     		bx	lr
 425              	.L34:
 426 0012 00BF     		.align	2
 427              	.L33:
 428 0014 80E100E0 		.word	-536813184
 429              		.cfi_endproc
 430              	.LFE10:
 431              		.size	ADC_SAR_1_IRQ_Disable, .-ADC_SAR_1_IRQ_Disable
ARM GAS  C:\Users\BRANKO~1\AppData\Local\Temp\ccRURHso.s 			page 14


 432              		.section	.text.ADC_SAR_1_IRQ_SetPending,"ax",%progbits
 433              		.align	2
 434              		.global	ADC_SAR_1_IRQ_SetPending
 435              		.thumb
 436              		.thumb_func
 437              		.type	ADC_SAR_1_IRQ_SetPending, %function
 438              	ADC_SAR_1_IRQ_SetPending:
 439              	.LFB11:
 311:.\Generated_Source\PSoC5/ADC_SAR_1_IRQ.c **** 
 312:.\Generated_Source\PSoC5/ADC_SAR_1_IRQ.c **** 
 313:.\Generated_Source\PSoC5/ADC_SAR_1_IRQ.c **** /*******************************************************************************
 314:.\Generated_Source\PSoC5/ADC_SAR_1_IRQ.c **** * Function Name: ADC_SAR_1_IRQ_SetPending
 315:.\Generated_Source\PSoC5/ADC_SAR_1_IRQ.c **** ********************************************************************************
 316:.\Generated_Source\PSoC5/ADC_SAR_1_IRQ.c **** *
 317:.\Generated_Source\PSoC5/ADC_SAR_1_IRQ.c **** * Summary:
 318:.\Generated_Source\PSoC5/ADC_SAR_1_IRQ.c **** *   Causes the Interrupt to enter the pending state, a software method of
 319:.\Generated_Source\PSoC5/ADC_SAR_1_IRQ.c **** *   generating the interrupt.
 320:.\Generated_Source\PSoC5/ADC_SAR_1_IRQ.c **** *
 321:.\Generated_Source\PSoC5/ADC_SAR_1_IRQ.c **** * Parameters:
 322:.\Generated_Source\PSoC5/ADC_SAR_1_IRQ.c **** *   None
 323:.\Generated_Source\PSoC5/ADC_SAR_1_IRQ.c **** *
 324:.\Generated_Source\PSoC5/ADC_SAR_1_IRQ.c **** * Return:
 325:.\Generated_Source\PSoC5/ADC_SAR_1_IRQ.c **** *   None
 326:.\Generated_Source\PSoC5/ADC_SAR_1_IRQ.c **** *
 327:.\Generated_Source\PSoC5/ADC_SAR_1_IRQ.c **** *******************************************************************************/
 328:.\Generated_Source\PSoC5/ADC_SAR_1_IRQ.c **** void ADC_SAR_1_IRQ_SetPending(void)
 329:.\Generated_Source\PSoC5/ADC_SAR_1_IRQ.c **** {
 440              		.loc 1 329 0
 441              		.cfi_startproc
 442              		@ args = 0, pretend = 0, frame = 0
 443              		@ frame_needed = 1, uses_anonymous_args = 0
 444              		@ link register save eliminated.
 445 0000 80B4     		push	{r7}
 446              		.cfi_def_cfa_offset 4
 447              		.cfi_offset 7, -4
 448 0002 00AF     		add	r7, sp, #0
 449              		.cfi_def_cfa_register 7
 330:.\Generated_Source\PSoC5/ADC_SAR_1_IRQ.c ****     *ADC_SAR_1_IRQ_INTC_SET_PD = ADC_SAR_1_IRQ__INTC_MASK;
 450              		.loc 1 330 0
 451 0004 034B     		ldr	r3, .L36
 452 0006 0222     		movs	r2, #2
 453 0008 1A60     		str	r2, [r3]
 331:.\Generated_Source\PSoC5/ADC_SAR_1_IRQ.c **** }
 454              		.loc 1 331 0
 455 000a BD46     		mov	sp, r7
 456              		@ sp needed
 457 000c 5DF8047B 		ldr	r7, [sp], #4
 458 0010 7047     		bx	lr
 459              	.L37:
 460 0012 00BF     		.align	2
 461              	.L36:
 462 0014 00E200E0 		.word	-536813056
 463              		.cfi_endproc
 464              	.LFE11:
 465              		.size	ADC_SAR_1_IRQ_SetPending, .-ADC_SAR_1_IRQ_SetPending
 466              		.section	.text.ADC_SAR_1_IRQ_ClearPending,"ax",%progbits
 467              		.align	2
ARM GAS  C:\Users\BRANKO~1\AppData\Local\Temp\ccRURHso.s 			page 15


 468              		.global	ADC_SAR_1_IRQ_ClearPending
 469              		.thumb
 470              		.thumb_func
 471              		.type	ADC_SAR_1_IRQ_ClearPending, %function
 472              	ADC_SAR_1_IRQ_ClearPending:
 473              	.LFB12:
 332:.\Generated_Source\PSoC5/ADC_SAR_1_IRQ.c **** 
 333:.\Generated_Source\PSoC5/ADC_SAR_1_IRQ.c **** 
 334:.\Generated_Source\PSoC5/ADC_SAR_1_IRQ.c **** /*******************************************************************************
 335:.\Generated_Source\PSoC5/ADC_SAR_1_IRQ.c **** * Function Name: ADC_SAR_1_IRQ_ClearPending
 336:.\Generated_Source\PSoC5/ADC_SAR_1_IRQ.c **** ********************************************************************************
 337:.\Generated_Source\PSoC5/ADC_SAR_1_IRQ.c **** *
 338:.\Generated_Source\PSoC5/ADC_SAR_1_IRQ.c **** * Summary:
 339:.\Generated_Source\PSoC5/ADC_SAR_1_IRQ.c **** *   Clears a pending interrupt.
 340:.\Generated_Source\PSoC5/ADC_SAR_1_IRQ.c **** *
 341:.\Generated_Source\PSoC5/ADC_SAR_1_IRQ.c **** * Parameters:
 342:.\Generated_Source\PSoC5/ADC_SAR_1_IRQ.c **** *   None
 343:.\Generated_Source\PSoC5/ADC_SAR_1_IRQ.c **** *
 344:.\Generated_Source\PSoC5/ADC_SAR_1_IRQ.c **** * Return:
 345:.\Generated_Source\PSoC5/ADC_SAR_1_IRQ.c **** *   None
 346:.\Generated_Source\PSoC5/ADC_SAR_1_IRQ.c **** *
 347:.\Generated_Source\PSoC5/ADC_SAR_1_IRQ.c **** *******************************************************************************/
 348:.\Generated_Source\PSoC5/ADC_SAR_1_IRQ.c **** void ADC_SAR_1_IRQ_ClearPending(void)
 349:.\Generated_Source\PSoC5/ADC_SAR_1_IRQ.c **** {
 474              		.loc 1 349 0
 475              		.cfi_startproc
 476              		@ args = 0, pretend = 0, frame = 0
 477              		@ frame_needed = 1, uses_anonymous_args = 0
 478              		@ link register save eliminated.
 479 0000 80B4     		push	{r7}
 480              		.cfi_def_cfa_offset 4
 481              		.cfi_offset 7, -4
 482 0002 00AF     		add	r7, sp, #0
 483              		.cfi_def_cfa_register 7
 350:.\Generated_Source\PSoC5/ADC_SAR_1_IRQ.c ****     *ADC_SAR_1_IRQ_INTC_CLR_PD = ADC_SAR_1_IRQ__INTC_MASK;
 484              		.loc 1 350 0
 485 0004 034B     		ldr	r3, .L39
 486 0006 0222     		movs	r2, #2
 487 0008 1A60     		str	r2, [r3]
 351:.\Generated_Source\PSoC5/ADC_SAR_1_IRQ.c **** }
 488              		.loc 1 351 0
 489 000a BD46     		mov	sp, r7
 490              		@ sp needed
 491 000c 5DF8047B 		ldr	r7, [sp], #4
 492 0010 7047     		bx	lr
 493              	.L40:
 494 0012 00BF     		.align	2
 495              	.L39:
 496 0014 80E200E0 		.word	-536812928
 497              		.cfi_endproc
 498              	.LFE12:
 499              		.size	ADC_SAR_1_IRQ_ClearPending, .-ADC_SAR_1_IRQ_ClearPending
 500              		.text
 501              	.Letext0:
 502              		.file 2 ".\\Generated_Source\\PSoC5/cytypes.h"