ARM GAS  C:\Users\karunmj\AppData\Local\Temp\ccxxkT5V.s 			page 1


   1              		.syntax unified
   2              		.cpu cortex-m3
   3              		.fpu softvfp
   4              		.eabi_attribute 20, 1
   5              		.eabi_attribute 21, 1
   6              		.eabi_attribute 23, 3
   7              		.eabi_attribute 24, 1
   8              		.eabi_attribute 25, 1
   9              		.eabi_attribute 26, 1
  10              		.eabi_attribute 30, 6
  11              		.eabi_attribute 34, 1
  12              		.eabi_attribute 18, 4
  13              		.thumb
  14              		.file	"modem_v2.c"
  15              		.text
  16              	.Ltext0:
  17              		.cfi_sections	.debug_frame
  18              		.comm	modem_state,1,1
  19              		.global	lock_acquired
  20              		.bss
  21              		.type	lock_acquired, %object
  22              		.size	lock_acquired, 1
  23              	lock_acquired:
  24 0000 00       		.space	1
  25              		.global	uart_string_index
  26 0001 00       		.align	1
  27              		.type	uart_string_index, %object
  28              		.size	uart_string_index, 2
  29              	uart_string_index:
  30 0002 0000     		.space	2
  31              		.comm	feed_id,4,4
  32              		.global	uart_received_string
  33              		.align	2
  34              		.type	uart_received_string, %object
  35              		.size	uart_received_string, 700
  36              	uart_received_string:
  37 0004 00000000 		.space	700
  37      00000000 
  37      00000000 
  37      00000000 
  37      00000000 
  38              		.comm	api_key,4,4
  39              		.section	.text.modem_set_api_feed,"ax",%progbits
  40              		.align	2
  41              		.global	modem_set_api_feed
  42              		.thumb
  43              		.thumb_func
  44              		.type	modem_set_api_feed, %function
  45              	modem_set_api_feed:
  46              	.LFB56:
  47              		.file 1 "..\\..\\..\\..\\..\\Documents\\GitHub\\m2m\\hardware\\psoc5\\psoc_datalogger_sms.cydsn\\m
   1:..\..\..\..\..\Documents\GitHub\m2m\hardware\psoc5\psoc_datalogger_sms.cydsn/modem_v2.c **** ///* ========================================
   2:..\..\..\..\..\Documents\GitHub\m2m\hardware\psoc5\psoc_datalogger_sms.cydsn/modem_v2.c **** // *
   3:..\..\..\..\..\Documents\GitHub\m2m\hardware\psoc5\psoc_datalogger_sms.cydsn/modem_v2.c **** // * Copyright YOUR COMPANY, THE YEAR
   4:..\..\..\..\..\Documents\GitHub\m2m\hardware\psoc5\psoc_datalogger_sms.cydsn/modem_v2.c **** // * All Rights Reserved
   5:..\..\..\..\..\Documents\GitHub\m2m\hardware\psoc5\psoc_datalogger_sms.cydsn/modem_v2.c **** // * UNPUBLISHED, LICENSED SOFTWARE.
   6:..\..\..\..\..\Documents\GitHub\m2m\hardware\psoc5\psoc_datalogger_sms.cydsn/modem_v2.c **** // *
ARM GAS  C:\Users\karunmj\AppData\Local\Temp\ccxxkT5V.s 			page 2


   7:..\..\..\..\..\Documents\GitHub\m2m\hardware\psoc5\psoc_datalogger_sms.cydsn/modem_v2.c **** // * CONFIDENTIAL AND PROPRIETARY INFORMATION
   8:..\..\..\..\..\Documents\GitHub\m2m\hardware\psoc5\psoc_datalogger_sms.cydsn/modem_v2.c **** // * WHICH IS THE PROPERTY OF your company.
   9:..\..\..\..\..\Documents\GitHub\m2m\hardware\psoc5\psoc_datalogger_sms.cydsn/modem_v2.c **** // *
  10:..\..\..\..\..\Documents\GitHub\m2m\hardware\psoc5\psoc_datalogger_sms.cydsn/modem_v2.c **** // * ========================================
  11:..\..\..\..\..\Documents\GitHub\m2m\hardware\psoc5\psoc_datalogger_sms.cydsn/modem_v2.c **** //*/
  12:..\..\..\..\..\Documents\GitHub\m2m\hardware\psoc5\psoc_datalogger_sms.cydsn/modem_v2.c **** //
  13:..\..\..\..\..\Documents\GitHub\m2m\hardware\psoc5\psoc_datalogger_sms.cydsn/modem_v2.c **** 
  14:..\..\..\..\..\Documents\GitHub\m2m\hardware\psoc5\psoc_datalogger_sms.cydsn/modem_v2.c **** #include <device.h>
  15:..\..\..\..\..\Documents\GitHub\m2m\hardware\psoc5\psoc_datalogger_sms.cydsn/modem_v2.c **** #include <stdio.h>
  16:..\..\..\..\..\Documents\GitHub\m2m\hardware\psoc5\psoc_datalogger_sms.cydsn/modem_v2.c **** #include <string.h>
  17:..\..\..\..\..\Documents\GitHub\m2m\hardware\psoc5\psoc_datalogger_sms.cydsn/modem_v2.c **** #include "modem.h"
  18:..\..\..\..\..\Documents\GitHub\m2m\hardware\psoc5\psoc_datalogger_sms.cydsn/modem_v2.c **** #include "packet.h"
  19:..\..\..\..\..\Documents\GitHub\m2m\hardware\psoc5\psoc_datalogger_sms.cydsn/modem_v2.c **** //#include "debug.h" TODO: ACCOUNT FOR THIS
  20:..\..\..\..\..\Documents\GitHub\m2m\hardware\psoc5\psoc_datalogger_sms.cydsn/modem_v2.c **** 
  21:..\..\..\..\..\Documents\GitHub\m2m\hardware\psoc5\psoc_datalogger_sms.cydsn/modem_v2.c **** // declare varaiables
  22:..\..\..\..\..\Documents\GitHub\m2m\hardware\psoc5\psoc_datalogger_sms.cydsn/modem_v2.c **** uint8  modem_state, lock_acquired = 0u;
  23:..\..\..\..\..\Documents\GitHub\m2m\hardware\psoc5\psoc_datalogger_sms.cydsn/modem_v2.c **** uint16 uart_string_index = 0u;
  24:..\..\..\..\..\Documents\GitHub\m2m\hardware\psoc5\psoc_datalogger_sms.cydsn/modem_v2.c **** uint32 feed_id;
  25:..\..\..\..\..\Documents\GitHub\m2m\hardware\psoc5\psoc_datalogger_sms.cydsn/modem_v2.c **** char   uart_received_string[700] = {0}, *api_key;
  26:..\..\..\..\..\Documents\GitHub\m2m\hardware\psoc5\psoc_datalogger_sms.cydsn/modem_v2.c **** 
  27:..\..\..\..\..\Documents\GitHub\m2m\hardware\psoc5\psoc_datalogger_sms.cydsn/modem_v2.c **** 
  28:..\..\..\..\..\Documents\GitHub\m2m\hardware\psoc5\psoc_datalogger_sms.cydsn/modem_v2.c **** 
  29:..\..\..\..\..\Documents\GitHub\m2m\hardware\psoc5\psoc_datalogger_sms.cydsn/modem_v2.c **** // prototype modem interrupt
  30:..\..\..\..\..\Documents\GitHub\m2m\hardware\psoc5\psoc_datalogger_sms.cydsn/modem_v2.c **** CY_ISR_PROTO(Telit_isr_rx);
  31:..\..\..\..\..\Documents\GitHub\m2m\hardware\psoc5\psoc_datalogger_sms.cydsn/modem_v2.c **** void uart_string_reset();
  32:..\..\..\..\..\Documents\GitHub\m2m\hardware\psoc5\psoc_datalogger_sms.cydsn/modem_v2.c **** 
  33:..\..\..\..\..\Documents\GitHub\m2m\hardware\psoc5\psoc_datalogger_sms.cydsn/modem_v2.c **** uint8 modem_set_api_feed(uint32 id, char* key){
  48              		.loc 1 33 0
  49              		.cfi_startproc
  50              		@ args = 0, pretend = 0, frame = 8
  51              		@ frame_needed = 1, uses_anonymous_args = 0
  52              		@ link register save eliminated.
  53 0000 80B4     		push	{r7}
  54              		.cfi_def_cfa_offset 4
  55              		.cfi_offset 7, -4
  56 0002 83B0     		sub	sp, sp, #12
  57              		.cfi_def_cfa_offset 16
  58 0004 00AF     		add	r7, sp, #0
  59              		.cfi_def_cfa_register 7
  60 0006 7860     		str	r0, [r7, #4]
  61 0008 3960     		str	r1, [r7]
  34:..\..\..\..\..\Documents\GitHub\m2m\hardware\psoc5\psoc_datalogger_sms.cydsn/modem_v2.c ****     feed_id = id;
  62              		.loc 1 34 0
  63 000a 064B     		ldr	r3, .L3
  64 000c 7A68     		ldr	r2, [r7, #4]
  65 000e 1A60     		str	r2, [r3]
  35:..\..\..\..\..\Documents\GitHub\m2m\hardware\psoc5\psoc_datalogger_sms.cydsn/modem_v2.c ****     api_key = key;
  66              		.loc 1 35 0
  67 0010 054B     		ldr	r3, .L3+4
  68 0012 3A68     		ldr	r2, [r7]
  69 0014 1A60     		str	r2, [r3]
  36:..\..\..\..\..\Documents\GitHub\m2m\hardware\psoc5\psoc_datalogger_sms.cydsn/modem_v2.c ****     return 1u;
  70              		.loc 1 36 0
  71 0016 0123     		movs	r3, #1
  37:..\..\..\..\..\Documents\GitHub\m2m\hardware\psoc5\psoc_datalogger_sms.cydsn/modem_v2.c **** }
  72              		.loc 1 37 0
  73 0018 1846     		mov	r0, r3
ARM GAS  C:\Users\karunmj\AppData\Local\Temp\ccxxkT5V.s 			page 3


  74 001a 0C37     		adds	r7, r7, #12
  75 001c BD46     		mov	sp, r7
  76              		@ sp needed
  77 001e 5DF8047B 		ldr	r7, [sp], #4
  78 0022 7047     		bx	lr
  79              	.L4:
  80              		.align	2
  81              	.L3:
  82 0024 00000000 		.word	feed_id
  83 0028 00000000 		.word	api_key
  84              		.cfi_endproc
  85              	.LFE56:
  86              		.size	modem_set_api_feed, .-modem_set_api_feed
  87              		.section	.text.modem_start,"ax",%progbits
  88              		.align	2
  89              		.global	modem_start
  90              		.thumb
  91              		.thumb_func
  92              		.type	modem_start, %function
  93              	modem_start:
  94              	.LFB57:
  38:..\..\..\..\..\Documents\GitHub\m2m\hardware\psoc5\psoc_datalogger_sms.cydsn/modem_v2.c **** 
  39:..\..\..\..\..\Documents\GitHub\m2m\hardware\psoc5\psoc_datalogger_sms.cydsn/modem_v2.c **** // initialize modem
  40:..\..\..\..\..\Documents\GitHub\m2m\hardware\psoc5\psoc_datalogger_sms.cydsn/modem_v2.c **** void modem_start(){
  95              		.loc 1 40 0
  96              		.cfi_startproc
  97              		@ args = 0, pretend = 0, frame = 0
  98              		@ frame_needed = 1, uses_anonymous_args = 0
  99 0000 80B5     		push	{r7, lr}
 100              		.cfi_def_cfa_offset 8
 101              		.cfi_offset 7, -8
 102              		.cfi_offset 14, -4
 103 0002 00AF     		add	r7, sp, #0
 104              		.cfi_def_cfa_register 7
  41:..\..\..\..\..\Documents\GitHub\m2m\hardware\psoc5\psoc_datalogger_sms.cydsn/modem_v2.c ****     Telit_UART_Start();
 105              		.loc 1 41 0
 106 0004 FFF7FEFF 		bl	Telit_UART_Start
  42:..\..\..\..\..\Documents\GitHub\m2m\hardware\psoc5\psoc_datalogger_sms.cydsn/modem_v2.c ****     Telit_ControlReg_Write(0u);
 107              		.loc 1 42 0
 108 0008 0020     		movs	r0, #0
 109 000a FFF7FEFF 		bl	Telit_ControlReg_Write
  43:..\..\..\..\..\Documents\GitHub\m2m\hardware\psoc5\psoc_datalogger_sms.cydsn/modem_v2.c ****     Telit_PWR_Write(0u);        // 0u Enables power to cell module
 110              		.loc 1 43 0
 111 000e 0020     		movs	r0, #0
 112 0010 FFF7FEFF 		bl	Telit_PWR_Write
  44:..\..\..\..\..\Documents\GitHub\m2m\hardware\psoc5\psoc_datalogger_sms.cydsn/modem_v2.c ****     Telit_isr_rx_StartEx(Telit_isr_rx);
 113              		.loc 1 44 0
 114 0014 0348     		ldr	r0, .L6
 115 0016 FFF7FEFF 		bl	Telit_isr_rx_StartEx
  45:..\..\..\..\..\Documents\GitHub\m2m\hardware\psoc5\psoc_datalogger_sms.cydsn/modem_v2.c ****     modem_state = MODEM_STATE_OFF;
 116              		.loc 1 45 0
 117 001a 034B     		ldr	r3, .L6+4
 118 001c 0022     		movs	r2, #0
 119 001e 1A70     		strb	r2, [r3]
  46:..\..\..\..\..\Documents\GitHub\m2m\hardware\psoc5\psoc_datalogger_sms.cydsn/modem_v2.c **** }
 120              		.loc 1 46 0
 121 0020 80BD     		pop	{r7, pc}
ARM GAS  C:\Users\karunmj\AppData\Local\Temp\ccxxkT5V.s 			page 4


 122              	.L7:
 123 0022 00BF     		.align	2
 124              	.L6:
 125 0024 00000000 		.word	Telit_isr_rx
 126 0028 00000000 		.word	modem_state
 127              		.cfi_endproc
 128              	.LFE57:
 129              		.size	modem_start, .-modem_start
 130              		.section	.text.at_write_command,"ax",%progbits
 131              		.align	2
 132              		.global	at_write_command
 133              		.thumb
 134              		.thumb_func
 135              		.type	at_write_command, %function
 136              	at_write_command:
 137              	.LFB58:
  47:..\..\..\..\..\Documents\GitHub\m2m\hardware\psoc5\psoc_datalogger_sms.cydsn/modem_v2.c **** 
  48:..\..\..\..\..\Documents\GitHub\m2m\hardware\psoc5\psoc_datalogger_sms.cydsn/modem_v2.c **** // send at-command to modem
  49:..\..\..\..\..\Documents\GitHub\m2m\hardware\psoc5\psoc_datalogger_sms.cydsn/modem_v2.c **** uint8 at_write_command(char* uart_string, char* expected_response, uint32 uart_timeout){
 138              		.loc 1 49 0
 139              		.cfi_startproc
 140              		@ args = 0, pretend = 0, frame = 40
 141              		@ frame_needed = 1, uses_anonymous_args = 0
 142 0000 80B5     		push	{r7, lr}
 143              		.cfi_def_cfa_offset 8
 144              		.cfi_offset 7, -8
 145              		.cfi_offset 14, -4
 146 0002 8AB0     		sub	sp, sp, #40
 147              		.cfi_def_cfa_offset 48
 148 0004 00AF     		add	r7, sp, #0
 149              		.cfi_def_cfa_register 7
 150 0006 F860     		str	r0, [r7, #12]
 151 0008 B960     		str	r1, [r7, #8]
 152 000a 7A60     		str	r2, [r7, #4]
  50:..\..\..\..\..\Documents\GitHub\m2m\hardware\psoc5\psoc_datalogger_sms.cydsn/modem_v2.c ****     uint8 response = 0u;
 153              		.loc 1 50 0
 154 000c 0023     		movs	r3, #0
 155 000e 87F82730 		strb	r3, [r7, #39]
  51:..\..\..\..\..\Documents\GitHub\m2m\hardware\psoc5\psoc_datalogger_sms.cydsn/modem_v2.c ****     uint32 i = 0u, delay = 100u, interval = uart_timeout/delay;
 156              		.loc 1 51 0
 157 0012 0023     		movs	r3, #0
 158 0014 3B62     		str	r3, [r7, #32]
 159 0016 6423     		movs	r3, #100
 160 0018 FB61     		str	r3, [r7, #28]
 161 001a 7A68     		ldr	r2, [r7, #4]
 162 001c FB69     		ldr	r3, [r7, #28]
 163 001e B2FBF3F3 		udiv	r3, r2, r3
 164 0022 BB61     		str	r3, [r7, #24]
  52:..\..\..\..\..\Documents\GitHub\m2m\hardware\psoc5\psoc_datalogger_sms.cydsn/modem_v2.c ****     
  53:..\..\..\..\..\Documents\GitHub\m2m\hardware\psoc5\psoc_datalogger_sms.cydsn/modem_v2.c ****     uart_string_reset();
 165              		.loc 1 53 0
 166 0024 FFF7FEFF 		bl	uart_string_reset
  54:..\..\..\..\..\Documents\GitHub\m2m\hardware\psoc5\psoc_datalogger_sms.cydsn/modem_v2.c ****     Telit_UART_PutString(uart_string);//Telit_UART_PutString("AT\r");
 167              		.loc 1 54 0
 168 0028 F868     		ldr	r0, [r7, #12]
 169 002a FFF7FEFF 		bl	Telit_UART_PutString
  55:..\..\..\..\..\Documents\GitHub\m2m\hardware\psoc5\psoc_datalogger_sms.cydsn/modem_v2.c ****     
ARM GAS  C:\Users\karunmj\AppData\Local\Temp\ccxxkT5V.s 			page 5


  56:..\..\..\..\..\Documents\GitHub\m2m\hardware\psoc5\psoc_datalogger_sms.cydsn/modem_v2.c ****     if( strcmp(expected_response, "") != 0){
 170              		.loc 1 56 0
 171 002e BB68     		ldr	r3, [r7, #8]
 172 0030 1B78     		ldrb	r3, [r3]	@ zero_extendqisi2
 173 0032 002B     		cmp	r3, #0
 174 0034 18D0     		beq	.L9
  57:..\..\..\..\..\Documents\GitHub\m2m\hardware\psoc5\psoc_datalogger_sms.cydsn/modem_v2.c ****         for(i=0;i<interval;i++){
 175              		.loc 1 57 0
 176 0036 0023     		movs	r3, #0
 177 0038 3B62     		str	r3, [r7, #32]
 178 003a 11E0     		b	.L10
 179              	.L12:
 180              	.LBB2:
  58:..\..\..\..\..\Documents\GitHub\m2m\hardware\psoc5\psoc_datalogger_sms.cydsn/modem_v2.c ****             char* valid = strstr(uart_received_string, expected_response);
 181              		.loc 1 58 0
 182 003c 0D48     		ldr	r0, .L14
 183 003e B968     		ldr	r1, [r7, #8]
 184 0040 FFF7FEFF 		bl	strstr
 185 0044 7861     		str	r0, [r7, #20]
  59:..\..\..\..\..\Documents\GitHub\m2m\hardware\psoc5\psoc_datalogger_sms.cydsn/modem_v2.c ****             if(valid != NULL){
 186              		.loc 1 59 0
 187 0046 7B69     		ldr	r3, [r7, #20]
 188 0048 002B     		cmp	r3, #0
 189 004a 03D0     		beq	.L11
  60:..\..\..\..\..\Documents\GitHub\m2m\hardware\psoc5\psoc_datalogger_sms.cydsn/modem_v2.c ****                 response = 1u;
 190              		.loc 1 60 0
 191 004c 0123     		movs	r3, #1
 192 004e 87F82730 		strb	r3, [r7, #39]
  61:..\..\..\..\..\Documents\GitHub\m2m\hardware\psoc5\psoc_datalogger_sms.cydsn/modem_v2.c ****                 break;
 193              		.loc 1 61 0
 194 0052 09E0     		b	.L9
 195              	.L11:
  62:..\..\..\..\..\Documents\GitHub\m2m\hardware\psoc5\psoc_datalogger_sms.cydsn/modem_v2.c ****             }
  63:..\..\..\..\..\Documents\GitHub\m2m\hardware\psoc5\psoc_datalogger_sms.cydsn/modem_v2.c ****             CyDelay(delay);
 196              		.loc 1 63 0
 197 0054 F869     		ldr	r0, [r7, #28]
 198 0056 FFF7FEFF 		bl	CyDelay
 199              	.LBE2:
  57:..\..\..\..\..\Documents\GitHub\m2m\hardware\psoc5\psoc_datalogger_sms.cydsn/modem_v2.c ****         for(i=0;i<interval;i++){
 200              		.loc 1 57 0
 201 005a 3B6A     		ldr	r3, [r7, #32]
 202 005c 0133     		adds	r3, r3, #1
 203 005e 3B62     		str	r3, [r7, #32]
 204              	.L10:
  57:..\..\..\..\..\Documents\GitHub\m2m\hardware\psoc5\psoc_datalogger_sms.cydsn/modem_v2.c ****         for(i=0;i<interval;i++){
 205              		.loc 1 57 0 is_stmt 0 discriminator 1
 206 0060 3A6A     		ldr	r2, [r7, #32]
 207 0062 BB69     		ldr	r3, [r7, #24]
 208 0064 9A42     		cmp	r2, r3
 209 0066 E9D3     		bcc	.L12
 210              	.L9:
  64:..\..\..\..\..\Documents\GitHub\m2m\hardware\psoc5\psoc_datalogger_sms.cydsn/modem_v2.c ****         }
  65:..\..\..\..\..\Documents\GitHub\m2m\hardware\psoc5\psoc_datalogger_sms.cydsn/modem_v2.c ****     }
  66:..\..\..\..\..\Documents\GitHub\m2m\hardware\psoc5\psoc_datalogger_sms.cydsn/modem_v2.c ****     
  67:..\..\..\..\..\Documents\GitHub\m2m\hardware\psoc5\psoc_datalogger_sms.cydsn/modem_v2.c ****     return response;
 211              		.loc 1 67 0 is_stmt 1
 212 0068 97F82730 		ldrb	r3, [r7, #39]	@ zero_extendqisi2
ARM GAS  C:\Users\karunmj\AppData\Local\Temp\ccxxkT5V.s 			page 6


  68:..\..\..\..\..\Documents\GitHub\m2m\hardware\psoc5\psoc_datalogger_sms.cydsn/modem_v2.c **** }
 213              		.loc 1 68 0
 214 006c 1846     		mov	r0, r3
 215 006e 2837     		adds	r7, r7, #40
 216 0070 BD46     		mov	sp, r7
 217              		@ sp needed
 218 0072 80BD     		pop	{r7, pc}
 219              	.L15:
 220              		.align	2
 221              	.L14:
 222 0074 00000000 		.word	uart_received_string
 223              		.cfi_endproc
 224              	.LFE58:
 225              		.size	at_write_command, .-at_write_command
 226              		.section	.text.modem_power_on,"ax",%progbits
 227              		.align	2
 228              		.global	modem_power_on
 229              		.thumb
 230              		.thumb_func
 231              		.type	modem_power_on, %function
 232              	modem_power_on:
 233              	.LFB59:
  69:..\..\..\..\..\Documents\GitHub\m2m\hardware\psoc5\psoc_datalogger_sms.cydsn/modem_v2.c **** 
  70:..\..\..\..\..\Documents\GitHub\m2m\hardware\psoc5\psoc_datalogger_sms.cydsn/modem_v2.c **** uint8 modem_power_on(){
 234              		.loc 1 70 0
 235              		.cfi_startproc
 236              		@ args = 0, pretend = 0, frame = 0
 237              		@ frame_needed = 1, uses_anonymous_args = 0
 238 0000 80B5     		push	{r7, lr}
 239              		.cfi_def_cfa_offset 8
 240              		.cfi_offset 7, -8
 241              		.cfi_offset 14, -4
 242 0002 00AF     		add	r7, sp, #0
 243              		.cfi_def_cfa_register 7
  71:..\..\..\..\..\Documents\GitHub\m2m\hardware\psoc5\psoc_datalogger_sms.cydsn/modem_v2.c **** 
  72:..\..\..\..\..\Documents\GitHub\m2m\hardware\psoc5\psoc_datalogger_sms.cydsn/modem_v2.c ****     if (modem_state != MODEM_STATE_OFF) {
 244              		.loc 1 72 0
 245 0004 134B     		ldr	r3, .L19
 246 0006 1B78     		ldrb	r3, [r3]	@ zero_extendqisi2
 247 0008 002B     		cmp	r3, #0
 248 000a 01D0     		beq	.L17
  73:..\..\..\..\..\Documents\GitHub\m2m\hardware\psoc5\psoc_datalogger_sms.cydsn/modem_v2.c ****         // Modem is already on
  74:..\..\..\..\..\Documents\GitHub\m2m\hardware\psoc5\psoc_datalogger_sms.cydsn/modem_v2.c ****         return 1u;
 249              		.loc 1 74 0
 250 000c 0123     		movs	r3, #1
 251 000e 1EE0     		b	.L18
 252              	.L17:
  75:..\..\..\..\..\Documents\GitHub\m2m\hardware\psoc5\psoc_datalogger_sms.cydsn/modem_v2.c ****     }
  76:..\..\..\..\..\Documents\GitHub\m2m\hardware\psoc5\psoc_datalogger_sms.cydsn/modem_v2.c ****     
  77:..\..\..\..\..\Documents\GitHub\m2m\hardware\psoc5\psoc_datalogger_sms.cydsn/modem_v2.c ****     // Set ON, PWR pins low
  78:..\..\..\..\..\Documents\GitHub\m2m\hardware\psoc5\psoc_datalogger_sms.cydsn/modem_v2.c ****     Telit_ON_Write(0u); 
 253              		.loc 1 78 0
 254 0010 0020     		movs	r0, #0
 255 0012 FFF7FEFF 		bl	Telit_ON_Write
  79:..\..\..\..\..\Documents\GitHub\m2m\hardware\psoc5\psoc_datalogger_sms.cydsn/modem_v2.c ****     Telit_RST_Write(0u);
 256              		.loc 1 79 0
 257 0016 0020     		movs	r0, #0
ARM GAS  C:\Users\karunmj\AppData\Local\Temp\ccxxkT5V.s 			page 7


 258 0018 FFF7FEFF 		bl	Telit_RST_Write
  80:..\..\..\..\..\Documents\GitHub\m2m\hardware\psoc5\psoc_datalogger_sms.cydsn/modem_v2.c ****     
  81:..\..\..\..\..\Documents\GitHub\m2m\hardware\psoc5\psoc_datalogger_sms.cydsn/modem_v2.c ****     // Provide power to Telit module
  82:..\..\..\..\..\Documents\GitHub\m2m\hardware\psoc5\psoc_datalogger_sms.cydsn/modem_v2.c ****     Telit_PWR_Write(0u); //provide power to modem
 259              		.loc 1 82 0
 260 001c 0020     		movs	r0, #0
 261 001e FFF7FEFF 		bl	Telit_PWR_Write
  83:..\..\..\..\..\Documents\GitHub\m2m\hardware\psoc5\psoc_datalogger_sms.cydsn/modem_v2.c ****     Telit_ControlReg_Write(1u);
 262              		.loc 1 83 0
 263 0022 0120     		movs	r0, #1
 264 0024 FFF7FEFF 		bl	Telit_ControlReg_Write
  84:..\..\..\..\..\Documents\GitHub\m2m\hardware\psoc5\psoc_datalogger_sms.cydsn/modem_v2.c ****     
  85:..\..\..\..\..\Documents\GitHub\m2m\hardware\psoc5\psoc_datalogger_sms.cydsn/modem_v2.c ****     // "Push" the ON button for 2 seconds
  86:..\..\..\..\..\Documents\GitHub\m2m\hardware\psoc5\psoc_datalogger_sms.cydsn/modem_v2.c ****     Telit_ON_Write(1u); 
 265              		.loc 1 86 0
 266 0028 0120     		movs	r0, #1
 267 002a FFF7FEFF 		bl	Telit_ON_Write
  87:..\..\..\..\..\Documents\GitHub\m2m\hardware\psoc5\psoc_datalogger_sms.cydsn/modem_v2.c ****     CyDelay(1500u);     // the pad ON# must be tied low for at least 1 second and then released.
 268              		.loc 1 87 0
 269 002e 40F2DC50 		movw	r0, #1500
 270 0032 FFF7FEFF 		bl	CyDelay
  88:..\..\..\..\..\Documents\GitHub\m2m\hardware\psoc5\psoc_datalogger_sms.cydsn/modem_v2.c ****     //CyDelay(1500u);     // At least 3 seconds if VBAT < 3.4 for GC 864
  89:..\..\..\..\..\Documents\GitHub\m2m\hardware\psoc5\psoc_datalogger_sms.cydsn/modem_v2.c ****     Telit_ON_Write(0u); 
 271              		.loc 1 89 0
 272 0036 0020     		movs	r0, #0
 273 0038 FFF7FEFF 		bl	Telit_ON_Write
  90:..\..\..\..\..\Documents\GitHub\m2m\hardware\psoc5\psoc_datalogger_sms.cydsn/modem_v2.c ****     
  91:..\..\..\..\..\Documents\GitHub\m2m\hardware\psoc5\psoc_datalogger_sms.cydsn/modem_v2.c ****     CyDelay(10000u);  
 274              		.loc 1 91 0
 275 003c 42F21070 		movw	r0, #10000
 276 0040 FFF7FEFF 		bl	CyDelay
  92:..\..\..\..\..\Documents\GitHub\m2m\hardware\psoc5\psoc_datalogger_sms.cydsn/modem_v2.c ****     /* changed from CyDelay(5000u);?
  93:..\..\..\..\..\Documents\GitHub\m2m\hardware\psoc5\psoc_datalogger_sms.cydsn/modem_v2.c ****         "To get the desirable stability, 
  94:..\..\..\..\..\Documents\GitHub\m2m\hardware\psoc5\psoc_datalogger_sms.cydsn/modem_v2.c ****         CC864-DUAL needs at least 10 seconds 
  95:..\..\..\..\..\Documents\GitHub\m2m\hardware\psoc5\psoc_datalogger_sms.cydsn/modem_v2.c ****         after the PWRMON goes HIGH.*/
  96:..\..\..\..\..\Documents\GitHub\m2m\hardware\psoc5\psoc_datalogger_sms.cydsn/modem_v2.c ****     modem_state = MODEM_STATE_IDLE;
 277              		.loc 1 96 0
 278 0044 034B     		ldr	r3, .L19
 279 0046 0122     		movs	r2, #1
 280 0048 1A70     		strb	r2, [r3]
  97:..\..\..\..\..\Documents\GitHub\m2m\hardware\psoc5\psoc_datalogger_sms.cydsn/modem_v2.c ****     return modem_state;
 281              		.loc 1 97 0
 282 004a 024B     		ldr	r3, .L19
 283 004c 1B78     		ldrb	r3, [r3]	@ zero_extendqisi2
 284              	.L18:
  98:..\..\..\..\..\Documents\GitHub\m2m\hardware\psoc5\psoc_datalogger_sms.cydsn/modem_v2.c **** }
 285              		.loc 1 98 0
 286 004e 1846     		mov	r0, r3
 287 0050 80BD     		pop	{r7, pc}
 288              	.L20:
 289 0052 00BF     		.align	2
 290              	.L19:
 291 0054 00000000 		.word	modem_state
 292              		.cfi_endproc
 293              	.LFE59:
 294              		.size	modem_power_on, .-modem_power_on
 295              		.section	.text.modem_power_off,"ax",%progbits
ARM GAS  C:\Users\karunmj\AppData\Local\Temp\ccxxkT5V.s 			page 8


 296              		.align	2
 297              		.global	modem_power_off
 298              		.thumb
 299              		.thumb_func
 300              		.type	modem_power_off, %function
 301              	modem_power_off:
 302              	.LFB60:
  99:..\..\..\..\..\Documents\GitHub\m2m\hardware\psoc5\psoc_datalogger_sms.cydsn/modem_v2.c **** 
 100:..\..\..\..\..\Documents\GitHub\m2m\hardware\psoc5\psoc_datalogger_sms.cydsn/modem_v2.c **** uint8 modem_power_off(){
 303              		.loc 1 100 0
 304              		.cfi_startproc
 305              		@ args = 0, pretend = 0, frame = 0
 306              		@ frame_needed = 1, uses_anonymous_args = 0
 307 0000 80B5     		push	{r7, lr}
 308              		.cfi_def_cfa_offset 8
 309              		.cfi_offset 7, -8
 310              		.cfi_offset 14, -4
 311 0002 00AF     		add	r7, sp, #0
 312              		.cfi_def_cfa_register 7
 101:..\..\..\..\..\Documents\GitHub\m2m\hardware\psoc5\psoc_datalogger_sms.cydsn/modem_v2.c **** 
 102:..\..\..\..\..\Documents\GitHub\m2m\hardware\psoc5\psoc_datalogger_sms.cydsn/modem_v2.c ****     if (modem_state == MODEM_STATE_OFF) {
 313              		.loc 1 102 0
 314 0004 124B     		ldr	r3, .L24
 315 0006 1B78     		ldrb	r3, [r3]	@ zero_extendqisi2
 316 0008 002B     		cmp	r3, #0
 317 000a 01D1     		bne	.L22
 103:..\..\..\..\..\Documents\GitHub\m2m\hardware\psoc5\psoc_datalogger_sms.cydsn/modem_v2.c ****         // Modem is already off
 104:..\..\..\..\..\Documents\GitHub\m2m\hardware\psoc5\psoc_datalogger_sms.cydsn/modem_v2.c ****         return 1u;
 318              		.loc 1 104 0
 319 000c 0123     		movs	r3, #1
 320 000e 1DE0     		b	.L23
 321              	.L22:
 105:..\..\..\..\..\Documents\GitHub\m2m\hardware\psoc5\psoc_datalogger_sms.cydsn/modem_v2.c ****     }
 106:..\..\..\..\..\Documents\GitHub\m2m\hardware\psoc5\psoc_datalogger_sms.cydsn/modem_v2.c **** 
 107:..\..\..\..\..\Documents\GitHub\m2m\hardware\psoc5\psoc_datalogger_sms.cydsn/modem_v2.c ****     // Try to disconnect the modem.  
 108:..\..\..\..\..\Documents\GitHub\m2m\hardware\psoc5\psoc_datalogger_sms.cydsn/modem_v2.c ****     // Continue whether or not disconnect is successful
 109:..\..\..\..\..\Documents\GitHub\m2m\hardware\psoc5\psoc_datalogger_sms.cydsn/modem_v2.c ****     modem_disconnect();
 322              		.loc 1 109 0
 323 0010 FFF7FEFF 		bl	modem_disconnect
 110:..\..\..\..\..\Documents\GitHub\m2m\hardware\psoc5\psoc_datalogger_sms.cydsn/modem_v2.c ****     
 111:..\..\..\..\..\Documents\GitHub\m2m\hardware\psoc5\psoc_datalogger_sms.cydsn/modem_v2.c ****     // "Push" the ON button for 
 112:..\..\..\..\..\Documents\GitHub\m2m\hardware\psoc5\psoc_datalogger_sms.cydsn/modem_v2.c ****     Telit_ON_Write(1u);
 324              		.loc 1 112 0
 325 0014 0120     		movs	r0, #1
 326 0016 FFF7FEFF 		bl	Telit_ON_Write
 113:..\..\..\..\..\Documents\GitHub\m2m\hardware\psoc5\psoc_datalogger_sms.cydsn/modem_v2.c ****     CyDelay(2500u);  // To turn the CC864-DUAL off, the ON/OFF Pin must be tied low for 2 second an
 327              		.loc 1 113 0
 328 001a 40F6C410 		movw	r0, #2500
 329 001e FFF7FEFF 		bl	CyDelay
 114:..\..\..\..\..\Documents\GitHub\m2m\hardware\psoc5\psoc_datalogger_sms.cydsn/modem_v2.c ****     Telit_ON_Write(0u);
 330              		.loc 1 114 0
 331 0022 0020     		movs	r0, #0
 332 0024 FFF7FEFF 		bl	Telit_ON_Write
 115:..\..\..\..\..\Documents\GitHub\m2m\hardware\psoc5\psoc_datalogger_sms.cydsn/modem_v2.c ****     
 116:..\..\..\..\..\Documents\GitHub\m2m\hardware\psoc5\psoc_datalogger_sms.cydsn/modem_v2.c ****     CyDelay(5000u); 
 333              		.loc 1 116 0
 334 0028 41F28830 		movw	r0, #5000
ARM GAS  C:\Users\karunmj\AppData\Local\Temp\ccxxkT5V.s 			page 9


 335 002c FFF7FEFF 		bl	CyDelay
 117:..\..\..\..\..\Documents\GitHub\m2m\hardware\psoc5\psoc_datalogger_sms.cydsn/modem_v2.c ****     /* CyDelay(5000u); // wait for module to turn off
 118:..\..\..\..\..\Documents\GitHub\m2m\hardware\psoc5\psoc_datalogger_sms.cydsn/modem_v2.c ****         "Normally it will be above 10 seconds later from releasing
 119:..\..\..\..\..\Documents\GitHub\m2m\hardware\psoc5\psoc_datalogger_sms.cydsn/modem_v2.c ****         ON/OFF# and DTE should monitor the status of PWRMON to see the
 120:..\..\..\..\..\Documents\GitHub\m2m\hardware\psoc5\psoc_datalogger_sms.cydsn/modem_v2.c ****         actual power off."  */
 121:..\..\..\..\..\Documents\GitHub\m2m\hardware\psoc5\psoc_datalogger_sms.cydsn/modem_v2.c ****     
 122:..\..\..\..\..\Documents\GitHub\m2m\hardware\psoc5\psoc_datalogger_sms.cydsn/modem_v2.c ****     // Book keeping
 123:..\..\..\..\..\Documents\GitHub\m2m\hardware\psoc5\psoc_datalogger_sms.cydsn/modem_v2.c ****     Telit_ControlReg_Write(0u);    
 336              		.loc 1 123 0
 337 0030 0020     		movs	r0, #0
 338 0032 FFF7FEFF 		bl	Telit_ControlReg_Write
 124:..\..\..\..\..\Documents\GitHub\m2m\hardware\psoc5\psoc_datalogger_sms.cydsn/modem_v2.c ****     Telit_PWR_Write(1u); // Cut power to modem; 1u Disables power to the modem
 339              		.loc 1 124 0
 340 0036 0120     		movs	r0, #1
 341 0038 FFF7FEFF 		bl	Telit_PWR_Write
 125:..\..\..\..\..\Documents\GitHub\m2m\hardware\psoc5\psoc_datalogger_sms.cydsn/modem_v2.c ****     Telit_RST_Write(0u); // Make sure the RESET "button" is not pressed
 342              		.loc 1 125 0
 343 003c 0020     		movs	r0, #0
 344 003e FFF7FEFF 		bl	Telit_RST_Write
 126:..\..\..\..\..\Documents\GitHub\m2m\hardware\psoc5\psoc_datalogger_sms.cydsn/modem_v2.c ****     
 127:..\..\..\..\..\Documents\GitHub\m2m\hardware\psoc5\psoc_datalogger_sms.cydsn/modem_v2.c ****     modem_state = MODEM_STATE_OFF;
 345              		.loc 1 127 0
 346 0042 034B     		ldr	r3, .L24
 347 0044 0022     		movs	r2, #0
 348 0046 1A70     		strb	r2, [r3]
 128:..\..\..\..\..\Documents\GitHub\m2m\hardware\psoc5\psoc_datalogger_sms.cydsn/modem_v2.c ****     return modem_state;
 349              		.loc 1 128 0
 350 0048 014B     		ldr	r3, .L24
 351 004a 1B78     		ldrb	r3, [r3]	@ zero_extendqisi2
 352              	.L23:
 129:..\..\..\..\..\Documents\GitHub\m2m\hardware\psoc5\psoc_datalogger_sms.cydsn/modem_v2.c **** }
 353              		.loc 1 129 0
 354 004c 1846     		mov	r0, r3
 355 004e 80BD     		pop	{r7, pc}
 356              	.L25:
 357              		.align	2
 358              	.L24:
 359 0050 00000000 		.word	modem_state
 360              		.cfi_endproc
 361              	.LFE60:
 362              		.size	modem_power_off, .-modem_power_off
 363              		.section	.text.modem_reset,"ax",%progbits
 364              		.align	2
 365              		.global	modem_reset
 366              		.thumb
 367              		.thumb_func
 368              		.type	modem_reset, %function
 369              	modem_reset:
 370              	.LFB61:
 130:..\..\..\..\..\Documents\GitHub\m2m\hardware\psoc5\psoc_datalogger_sms.cydsn/modem_v2.c **** 
 131:..\..\..\..\..\Documents\GitHub\m2m\hardware\psoc5\psoc_datalogger_sms.cydsn/modem_v2.c **** uint8 modem_reset(){
 371              		.loc 1 131 0
 372              		.cfi_startproc
 373              		@ args = 0, pretend = 0, frame = 0
 374              		@ frame_needed = 1, uses_anonymous_args = 0
 375 0000 80B5     		push	{r7, lr}
 376              		.cfi_def_cfa_offset 8
ARM GAS  C:\Users\karunmj\AppData\Local\Temp\ccxxkT5V.s 			page 10


 377              		.cfi_offset 7, -8
 378              		.cfi_offset 14, -4
 379 0002 00AF     		add	r7, sp, #0
 380              		.cfi_def_cfa_register 7
 132:..\..\..\..\..\Documents\GitHub\m2m\hardware\psoc5\psoc_datalogger_sms.cydsn/modem_v2.c ****     if (modem_state != MODEM_STATE_OFF) { // The modem is idle/ready (powered on)
 381              		.loc 1 132 0
 382 0004 0C4B     		ldr	r3, .L29
 383 0006 1B78     		ldrb	r3, [r3]	@ zero_extendqisi2
 384 0008 002B     		cmp	r3, #0
 385 000a 10D0     		beq	.L27
 133:..\..\..\..\..\Documents\GitHub\m2m\hardware\psoc5\psoc_datalogger_sms.cydsn/modem_v2.c ****         
 134:..\..\..\..\..\Documents\GitHub\m2m\hardware\psoc5\psoc_datalogger_sms.cydsn/modem_v2.c ****         Telit_RST_Write(1u);
 386              		.loc 1 134 0
 387 000c 0120     		movs	r0, #1
 388 000e FFF7FEFF 		bl	Telit_RST_Write
 135:..\..\..\..\..\Documents\GitHub\m2m\hardware\psoc5\psoc_datalogger_sms.cydsn/modem_v2.c ****         CyDelay(500u);  //   To reset and to reboot the module, 
 389              		.loc 1 135 0
 390 0012 4FF4FA70 		mov	r0, #500
 391 0016 FFF7FEFF 		bl	CyDelay
 136:..\..\..\..\..\Documents\GitHub\m2m\hardware\psoc5\psoc_datalogger_sms.cydsn/modem_v2.c ****                         // the RESET pin must be tied low for at least 200 milliseconds and then re
 137:..\..\..\..\..\Documents\GitHub\m2m\hardware\psoc5\psoc_datalogger_sms.cydsn/modem_v2.c ****         Telit_RST_Write(0u);
 392              		.loc 1 137 0
 393 001a 0020     		movs	r0, #0
 394 001c FFF7FEFF 		bl	Telit_RST_Write
 138:..\..\..\..\..\Documents\GitHub\m2m\hardware\psoc5\psoc_datalogger_sms.cydsn/modem_v2.c ****         
 139:..\..\..\..\..\Documents\GitHub\m2m\hardware\psoc5\psoc_datalogger_sms.cydsn/modem_v2.c ****         CyDelay(10000u); //CyDelay(5000u);
 395              		.loc 1 139 0
 396 0020 42F21070 		movw	r0, #10000
 397 0024 FFF7FEFF 		bl	CyDelay
 140:..\..\..\..\..\Documents\GitHub\m2m\hardware\psoc5\psoc_datalogger_sms.cydsn/modem_v2.c ****         modem_state = MODEM_STATE_IDLE;
 398              		.loc 1 140 0
 399 0028 034B     		ldr	r3, .L29
 400 002a 0122     		movs	r2, #1
 401 002c 1A70     		strb	r2, [r3]
 402              	.L27:
 141:..\..\..\..\..\Documents\GitHub\m2m\hardware\psoc5\psoc_datalogger_sms.cydsn/modem_v2.c ****     }
 142:..\..\..\..\..\Documents\GitHub\m2m\hardware\psoc5\psoc_datalogger_sms.cydsn/modem_v2.c ****     return modem_state;
 403              		.loc 1 142 0
 404 002e 024B     		ldr	r3, .L29
 405 0030 1B78     		ldrb	r3, [r3]	@ zero_extendqisi2
 143:..\..\..\..\..\Documents\GitHub\m2m\hardware\psoc5\psoc_datalogger_sms.cydsn/modem_v2.c **** }
 406              		.loc 1 143 0
 407 0032 1846     		mov	r0, r3
 408 0034 80BD     		pop	{r7, pc}
 409              	.L30:
 410 0036 00BF     		.align	2
 411              	.L29:
 412 0038 00000000 		.word	modem_state
 413              		.cfi_endproc
 414              	.LFE61:
 415              		.size	modem_reset, .-modem_reset
 416              		.section	.rodata
 417              		.align	2
 418              	.LC0:
 419 0000 41542353 		.ascii	"AT#SGACT=1,1\015\000"
 419      47414354 
 419      3D312C31 
ARM GAS  C:\Users\karunmj\AppData\Local\Temp\ccxxkT5V.s 			page 11


 419      0D00
 420 000e 0000     		.align	2
 421              	.LC1:
 422 0010 4F4B00   		.ascii	"OK\000"
 423              		.section	.text.modem_connect,"ax",%progbits
 424              		.align	2
 425              		.global	modem_connect
 426              		.thumb
 427              		.thumb_func
 428              		.type	modem_connect, %function
 429              	modem_connect:
 430              	.LFB62:
 144:..\..\..\..\..\Documents\GitHub\m2m\hardware\psoc5\psoc_datalogger_sms.cydsn/modem_v2.c **** 
 145:..\..\..\..\..\Documents\GitHub\m2m\hardware\psoc5\psoc_datalogger_sms.cydsn/modem_v2.c **** uint8 modem_connect(){
 431              		.loc 1 145 0
 432              		.cfi_startproc
 433              		@ args = 0, pretend = 0, frame = 0
 434              		@ frame_needed = 1, uses_anonymous_args = 0
 435 0000 80B5     		push	{r7, lr}
 436              		.cfi_def_cfa_offset 8
 437              		.cfi_offset 7, -8
 438              		.cfi_offset 14, -4
 439 0002 00AF     		add	r7, sp, #0
 440              		.cfi_def_cfa_register 7
 146:..\..\..\..\..\Documents\GitHub\m2m\hardware\psoc5\psoc_datalogger_sms.cydsn/modem_v2.c ****     if(at_write_command("AT#SGACT=1,1\r","OK",15000u) == 1){
 441              		.loc 1 146 0
 442 0004 0748     		ldr	r0, .L34
 443 0006 0849     		ldr	r1, .L34+4
 444 0008 43F69822 		movw	r2, #15000
 445 000c FFF7FEFF 		bl	at_write_command
 446 0010 0346     		mov	r3, r0
 447 0012 012B     		cmp	r3, #1
 448 0014 02D1     		bne	.L32
 147:..\..\..\..\..\Documents\GitHub\m2m\hardware\psoc5\psoc_datalogger_sms.cydsn/modem_v2.c ****     //if(at_write_command("AT","OK",15000u) == 1){        
 148:..\..\..\..\..\Documents\GitHub\m2m\hardware\psoc5\psoc_datalogger_sms.cydsn/modem_v2.c ****         modem_state = MODEM_STATE_READY;
 449              		.loc 1 148 0
 450 0016 054B     		ldr	r3, .L34+8
 451 0018 0322     		movs	r2, #3
 452 001a 1A70     		strb	r2, [r3]
 453              	.L32:
 149:..\..\..\..\..\Documents\GitHub\m2m\hardware\psoc5\psoc_datalogger_sms.cydsn/modem_v2.c ****         //return 1u; // connected to network
 150:..\..\..\..\..\Documents\GitHub\m2m\hardware\psoc5\psoc_datalogger_sms.cydsn/modem_v2.c ****     }
 151:..\..\..\..\..\Documents\GitHub\m2m\hardware\psoc5\psoc_datalogger_sms.cydsn/modem_v2.c ****     /* Write to SD Card debugger
 152:..\..\..\..\..\Documents\GitHub\m2m\hardware\psoc5\psoc_datalogger_sms.cydsn/modem_v2.c ****     else debug_write("(AT#SGACT=1,1) No IP Address Assigned.");
 153:..\..\..\..\..\Documents\GitHub\m2m\hardware\psoc5\psoc_datalogger_sms.cydsn/modem_v2.c ****     */
 154:..\..\..\..\..\Documents\GitHub\m2m\hardware\psoc5\psoc_datalogger_sms.cydsn/modem_v2.c **** 
 155:..\..\..\..\..\Documents\GitHub\m2m\hardware\psoc5\psoc_datalogger_sms.cydsn/modem_v2.c ****     return modem_state;
 454              		.loc 1 155 0
 455 001c 034B     		ldr	r3, .L34+8
 456 001e 1B78     		ldrb	r3, [r3]	@ zero_extendqisi2
 156:..\..\..\..\..\Documents\GitHub\m2m\hardware\psoc5\psoc_datalogger_sms.cydsn/modem_v2.c ****     
 157:..\..\..\..\..\Documents\GitHub\m2m\hardware\psoc5\psoc_datalogger_sms.cydsn/modem_v2.c **** /*
 158:..\..\..\..\..\Documents\GitHub\m2m\hardware\psoc5\psoc_datalogger_sms.cydsn/modem_v2.c ****     if(at_write_command("AT+CREG=1\r","OK",5000u)){
 159:..\..\..\..\..\Documents\GitHub\m2m\hardware\psoc5\psoc_datalogger_sms.cydsn/modem_v2.c ****         if(at_write_command("AT+CREG?\r","OK",5000u)){
 160:..\..\..\..\..\Documents\GitHub\m2m\hardware\psoc5\psoc_datalogger_sms.cydsn/modem_v2.c ****         //if(!at_write_command("AT#CGPADDR=1\r","\"",5000u)){
 161:..\..\..\..\..\Documents\GitHub\m2m\hardware\psoc5\psoc_datalogger_sms.cydsn/modem_v2.c ****             if(at_write_command("AT#SGACT=1,1\r","OK",30000u)){
 162:..\..\..\..\..\Documents\GitHub\m2m\hardware\psoc5\psoc_datalogger_sms.cydsn/modem_v2.c ****                 modem_state = MODEM_STATE_READY;
ARM GAS  C:\Users\karunmj\AppData\Local\Temp\ccxxkT5V.s 			page 12


 163:..\..\..\..\..\Documents\GitHub\m2m\hardware\psoc5\psoc_datalogger_sms.cydsn/modem_v2.c ****                 //return 1u; // connected to network
 164:..\..\..\..\..\Documents\GitHub\m2m\hardware\psoc5\psoc_datalogger_sms.cydsn/modem_v2.c ****             }
 165:..\..\..\..\..\Documents\GitHub\m2m\hardware\psoc5\psoc_datalogger_sms.cydsn/modem_v2.c ****             else debug_write("(AT#SGACT=1,1) No IP Address Assigned.");
 166:..\..\..\..\..\Documents\GitHub\m2m\hardware\psoc5\psoc_datalogger_sms.cydsn/modem_v2.c ****         }
 167:..\..\..\..\..\Documents\GitHub\m2m\hardware\psoc5\psoc_datalogger_sms.cydsn/modem_v2.c ****        else debug_write("(AT#CGPADDR=1) No IP Address Exists.");   Returns IP address.. should be c
 168:..\..\..\..\..\Documents\GitHub\m2m\hardware\psoc5\psoc_datalogger_sms.cydsn/modem_v2.c ****     }
 169:..\..\..\..\..\Documents\GitHub\m2m\hardware\psoc5\psoc_datalogger_sms.cydsn/modem_v2.c ****     else debug_write("(AT+CREG=1) Could not register to network."); CREG reports registration statu
 170:..\..\..\..\..\Documents\GitHub\m2m\hardware\psoc5\psoc_datalogger_sms.cydsn/modem_v2.c ****     
 171:..\..\..\..\..\Documents\GitHub\m2m\hardware\psoc5\psoc_datalogger_sms.cydsn/modem_v2.c ****     return 0u;
 172:..\..\..\..\..\Documents\GitHub\m2m\hardware\psoc5\psoc_datalogger_sms.cydsn/modem_v2.c **** */
 173:..\..\..\..\..\Documents\GitHub\m2m\hardware\psoc5\psoc_datalogger_sms.cydsn/modem_v2.c **** /*
 174:..\..\..\..\..\Documents\GitHub\m2m\hardware\psoc5\psoc_datalogger_sms.cydsn/modem_v2.c ****     at_write_command("AT+CSQ\r","OK",5000u); // get signal strength
 175:..\..\..\..\..\Documents\GitHub\m2m\hardware\psoc5\psoc_datalogger_sms.cydsn/modem_v2.c ****     
 176:..\..\..\..\..\Documents\GitHub\m2m\hardware\psoc5\psoc_datalogger_sms.cydsn/modem_v2.c ****     if (!at_write_command("AT+CREG=1\r","OK",5000u)) { // look for network
 177:..\..\..\..\..\Documents\GitHub\m2m\hardware\psoc5\psoc_datalogger_sms.cydsn/modem_v2.c ****         debug_write("(AT+CREG=1) Could not register to network.");
 178:..\..\..\..\..\Documents\GitHub\m2m\hardware\psoc5\psoc_datalogger_sms.cydsn/modem_v2.c ****     }
 179:..\..\..\..\..\Documents\GitHub\m2m\hardware\psoc5\psoc_datalogger_sms.cydsn/modem_v2.c ****     
 180:..\..\..\..\..\Documents\GitHub\m2m\hardware\psoc5\psoc_datalogger_sms.cydsn/modem_v2.c ****     at_write_command("AT#SCFG=1,1,0,0,1200,0\r","OK",5000u); // config parameter
 181:..\..\..\..\..\Documents\GitHub\m2m\hardware\psoc5\psoc_datalogger_sms.cydsn/modem_v2.c ****     
 182:..\..\..\..\..\Documents\GitHub\m2m\hardware\psoc5\psoc_datalogger_sms.cydsn/modem_v2.c ****     if (at_write_command("AT#CGPADDR=1\r","OK",5000u)) {// check if ip address exists
 183:..\..\..\..\..\Documents\GitHub\m2m\hardware\psoc5\psoc_datalogger_sms.cydsn/modem_v2.c ****         debug_write("(AT#CGPADDR=1) No IP Address Exists.");    
 184:..\..\..\..\..\Documents\GitHub\m2m\hardware\psoc5\psoc_datalogger_sms.cydsn/modem_v2.c ****     }
 185:..\..\..\..\..\Documents\GitHub\m2m\hardware\psoc5\psoc_datalogger_sms.cydsn/modem_v2.c ****     
 186:..\..\..\..\..\Documents\GitHub\m2m\hardware\psoc5\psoc_datalogger_sms.cydsn/modem_v2.c ****     at_write_command("AT#SGACT?","OK",30000u);
 187:..\..\..\..\..\Documents\GitHub\m2m\hardware\psoc5\psoc_datalogger_sms.cydsn/modem_v2.c ****     
 188:..\..\..\..\..\Documents\GitHub\m2m\hardware\psoc5\psoc_datalogger_sms.cydsn/modem_v2.c ****     uint8 success  = at_write_command("AT#SGACT=1,1\r","OK",30000u); // This command should return 
 189:..\..\..\..\..\Documents\GitHub\m2m\hardware\psoc5\psoc_datalogger_sms.cydsn/modem_v2.c ****     //success = at_write_command("AT#SD=1,0,50000,\"141.212.136.222\",0,0,1\r","OK",5000u); // conn
 190:..\..\..\..\..\Documents\GitHub\m2m\hardware\psoc5\psoc_datalogger_sms.cydsn/modem_v2.c ****     
 191:..\..\..\..\..\Documents\GitHub\m2m\hardware\psoc5\psoc_datalogger_sms.cydsn/modem_v2.c ****     if (!success) {
 192:..\..\..\..\..\Documents\GitHub\m2m\hardware\psoc5\psoc_datalogger_sms.cydsn/modem_v2.c ****         debug_write("(AT#SGACT=1,1) No IP Address Assigned.");
 193:..\..\..\..\..\Documents\GitHub\m2m\hardware\psoc5\psoc_datalogger_sms.cydsn/modem_v2.c ****     }
 194:..\..\..\..\..\Documents\GitHub\m2m\hardware\psoc5\psoc_datalogger_sms.cydsn/modem_v2.c ****     
 195:..\..\..\..\..\Documents\GitHub\m2m\hardware\psoc5\psoc_datalogger_sms.cydsn/modem_v2.c ****     return success;
 196:..\..\..\..\..\Documents\GitHub\m2m\hardware\psoc5\psoc_datalogger_sms.cydsn/modem_v2.c ****     */
 197:..\..\..\..\..\Documents\GitHub\m2m\hardware\psoc5\psoc_datalogger_sms.cydsn/modem_v2.c ****     
 198:..\..\..\..\..\Documents\GitHub\m2m\hardware\psoc5\psoc_datalogger_sms.cydsn/modem_v2.c **** }
 457              		.loc 1 198 0
 458 0020 1846     		mov	r0, r3
 459 0022 80BD     		pop	{r7, pc}
 460              	.L35:
 461              		.align	2
 462              	.L34:
 463 0024 00000000 		.word	.LC0
 464 0028 10000000 		.word	.LC1
 465 002c 00000000 		.word	modem_state
 466              		.cfi_endproc
 467              	.LFE62:
 468              		.size	modem_connect, .-modem_connect
 469              		.section	.rodata
 470 0013 00       		.align	2
 471              	.LC2:
 472 0014 41542353 		.ascii	"AT#SH=1\000"
 472      483D3100 
 473              		.align	2
 474              	.LC3:
 475 001c 41542353 		.ascii	"AT#SGACT=1,0\000"
 475      47414354 
ARM GAS  C:\Users\karunmj\AppData\Local\Temp\ccxxkT5V.s 			page 13


 475      3D312C30 
 475      00
 476              		.section	.text.modem_disconnect,"ax",%progbits
 477              		.align	2
 478              		.global	modem_disconnect
 479              		.thumb
 480              		.thumb_func
 481              		.type	modem_disconnect, %function
 482              	modem_disconnect:
 483              	.LFB63:
 199:..\..\..\..\..\Documents\GitHub\m2m\hardware\psoc5\psoc_datalogger_sms.cydsn/modem_v2.c **** 
 200:..\..\..\..\..\Documents\GitHub\m2m\hardware\psoc5\psoc_datalogger_sms.cydsn/modem_v2.c **** uint8 modem_disconnect(){
 484              		.loc 1 200 0
 485              		.cfi_startproc
 486              		@ args = 0, pretend = 0, frame = 0
 487              		@ frame_needed = 1, uses_anonymous_args = 0
 488 0000 80B5     		push	{r7, lr}
 489              		.cfi_def_cfa_offset 8
 490              		.cfi_offset 7, -8
 491              		.cfi_offset 14, -4
 492 0002 00AF     		add	r7, sp, #0
 493              		.cfi_def_cfa_register 7
 201:..\..\..\..\..\Documents\GitHub\m2m\hardware\psoc5\psoc_datalogger_sms.cydsn/modem_v2.c ****     // Proceed if modem is not connected to network.  Otherwise, try to disconnect from the network
 202:..\..\..\..\..\Documents\GitHub\m2m\hardware\psoc5\psoc_datalogger_sms.cydsn/modem_v2.c ****     if(modem_state != MODEM_STATE_READY) {
 494              		.loc 1 202 0
 495 0004 0E4B     		ldr	r3, .L39
 496 0006 1B78     		ldrb	r3, [r3]	@ zero_extendqisi2
 497 0008 032B     		cmp	r3, #3
 498 000a 16D0     		beq	.L37
 203:..\..\..\..\..\Documents\GitHub\m2m\hardware\psoc5\psoc_datalogger_sms.cydsn/modem_v2.c ****         if(at_write_command("AT#SH=1","OK",10000u) == 1){
 499              		.loc 1 203 0
 500 000c 0D48     		ldr	r0, .L39+4
 501 000e 0E49     		ldr	r1, .L39+8
 502 0010 42F21072 		movw	r2, #10000
 503 0014 FFF7FEFF 		bl	at_write_command
 504 0018 0346     		mov	r3, r0
 505 001a 012B     		cmp	r3, #1
 506 001c 0DD1     		bne	.L37
 204:..\..\..\..\..\Documents\GitHub\m2m\hardware\psoc5\psoc_datalogger_sms.cydsn/modem_v2.c ****             if(at_write_command("AT#SGACT=1,0","OK",10000u) == 1){
 507              		.loc 1 204 0
 508 001e 0B48     		ldr	r0, .L39+12
 509 0020 0949     		ldr	r1, .L39+8
 510 0022 42F21072 		movw	r2, #10000
 511 0026 FFF7FEFF 		bl	at_write_command
 512 002a 0346     		mov	r3, r0
 513 002c 012B     		cmp	r3, #1
 514 002e 04D1     		bne	.L37
 205:..\..\..\..\..\Documents\GitHub\m2m\hardware\psoc5\psoc_datalogger_sms.cydsn/modem_v2.c ****                 modem_state = MODEM_STATE_IDLE;
 515              		.loc 1 205 0
 516 0030 034B     		ldr	r3, .L39
 517 0032 0122     		movs	r2, #1
 518 0034 1A70     		strb	r2, [r3]
 206:..\..\..\..\..\Documents\GitHub\m2m\hardware\psoc5\psoc_datalogger_sms.cydsn/modem_v2.c ****                 return 1u;
 519              		.loc 1 206 0
 520 0036 0123     		movs	r3, #1
 521 0038 00E0     		b	.L38
 522              	.L37:
ARM GAS  C:\Users\karunmj\AppData\Local\Temp\ccxxkT5V.s 			page 14


 207:..\..\..\..\..\Documents\GitHub\m2m\hardware\psoc5\psoc_datalogger_sms.cydsn/modem_v2.c ****             }
 208:..\..\..\..\..\Documents\GitHub\m2m\hardware\psoc5\psoc_datalogger_sms.cydsn/modem_v2.c ****             /* Write to SD Card debugger
 209:..\..\..\..\..\Documents\GitHub\m2m\hardware\psoc5\psoc_datalogger_sms.cydsn/modem_v2.c ****             else {
 210:..\..\..\..\..\Documents\GitHub\m2m\hardware\psoc5\psoc_datalogger_sms.cydsn/modem_v2.c ****                 debug_write("(AT#SGACT=1,0) Could not disconnect.");
 211:..\..\..\..\..\Documents\GitHub\m2m\hardware\psoc5\psoc_datalogger_sms.cydsn/modem_v2.c ****             }
 212:..\..\..\..\..\Documents\GitHub\m2m\hardware\psoc5\psoc_datalogger_sms.cydsn/modem_v2.c ****             */
 213:..\..\..\..\..\Documents\GitHub\m2m\hardware\psoc5\psoc_datalogger_sms.cydsn/modem_v2.c ****         }
 214:..\..\..\..\..\Documents\GitHub\m2m\hardware\psoc5\psoc_datalogger_sms.cydsn/modem_v2.c ****         /* Write to SD Card debugger
 215:..\..\..\..\..\Documents\GitHub\m2m\hardware\psoc5\psoc_datalogger_sms.cydsn/modem_v2.c ****         else {
 216:..\..\..\..\..\Documents\GitHub\m2m\hardware\psoc5\psoc_datalogger_sms.cydsn/modem_v2.c ****             debug_write("(AT#SH=1) Could not close socket.");
 217:..\..\..\..\..\Documents\GitHub\m2m\hardware\psoc5\psoc_datalogger_sms.cydsn/modem_v2.c ****         }
 218:..\..\..\..\..\Documents\GitHub\m2m\hardware\psoc5\psoc_datalogger_sms.cydsn/modem_v2.c ****         */
 219:..\..\..\..\..\Documents\GitHub\m2m\hardware\psoc5\psoc_datalogger_sms.cydsn/modem_v2.c ****     }
 220:..\..\..\..\..\Documents\GitHub\m2m\hardware\psoc5\psoc_datalogger_sms.cydsn/modem_v2.c ****     /* Write to SD Card debugger
 221:..\..\..\..\..\Documents\GitHub\m2m\hardware\psoc5\psoc_datalogger_sms.cydsn/modem_v2.c ****     else {
 222:..\..\..\..\..\Documents\GitHub\m2m\hardware\psoc5\psoc_datalogger_sms.cydsn/modem_v2.c ****         if (modem_state == MODEM_STATE_OFF) {
 223:..\..\..\..\..\Documents\GitHub\m2m\hardware\psoc5\psoc_datalogger_sms.cydsn/modem_v2.c ****             debug_write( "(modem_state != MODEM_STATE_READY) modem_state = MODEM_STATE_OFF" );
 224:..\..\..\..\..\Documents\GitHub\m2m\hardware\psoc5\psoc_datalogger_sms.cydsn/modem_v2.c ****         }
 225:..\..\..\..\..\Documents\GitHub\m2m\hardware\psoc5\psoc_datalogger_sms.cydsn/modem_v2.c ****         else if (modem_state == MODEM_STATE_IDLE) {
 226:..\..\..\..\..\Documents\GitHub\m2m\hardware\psoc5\psoc_datalogger_sms.cydsn/modem_v2.c ****             debug_write( "(modem_state != MODEM_STATE_READY) modem_state = MODEM_STATE_IDLE" );
 227:..\..\..\..\..\Documents\GitHub\m2m\hardware\psoc5\psoc_datalogger_sms.cydsn/modem_v2.c ****         }
 228:..\..\..\..\..\Documents\GitHub\m2m\hardware\psoc5\psoc_datalogger_sms.cydsn/modem_v2.c ****     }
 229:..\..\..\..\..\Documents\GitHub\m2m\hardware\psoc5\psoc_datalogger_sms.cydsn/modem_v2.c ****     */
 230:..\..\..\..\..\Documents\GitHub\m2m\hardware\psoc5\psoc_datalogger_sms.cydsn/modem_v2.c ****     return 0u; // failed to disconnect
 523              		.loc 1 230 0
 524 003a 0023     		movs	r3, #0
 525              	.L38:
 231:..\..\..\..\..\Documents\GitHub\m2m\hardware\psoc5\psoc_datalogger_sms.cydsn/modem_v2.c **** }
 526              		.loc 1 231 0
 527 003c 1846     		mov	r0, r3
 528 003e 80BD     		pop	{r7, pc}
 529              	.L40:
 530              		.align	2
 531              	.L39:
 532 0040 00000000 		.word	modem_state
 533 0044 14000000 		.word	.LC2
 534 0048 10000000 		.word	.LC1
 535 004c 1C000000 		.word	.LC3
 536              		.cfi_endproc
 537              	.LFE63:
 538              		.size	modem_disconnect, .-modem_disconnect
 539              		.section	.rodata
 540 0029 000000   		.align	2
 541              	.LC4:
 542 002c 41542B43 		.ascii	"AT+CCLK?\015\000"
 542      434C4B3F 
 542      0D00
 543              		.section	.text.modem_get_time,"ax",%progbits
 544              		.align	2
 545              		.global	modem_get_time
 546              		.thumb
 547              		.thumb_func
 548              		.type	modem_get_time, %function
 549              	modem_get_time:
 550              	.LFB64:
 232:..\..\..\..\..\Documents\GitHub\m2m\hardware\psoc5\psoc_datalogger_sms.cydsn/modem_v2.c **** 
 233:..\..\..\..\..\Documents\GitHub\m2m\hardware\psoc5\psoc_datalogger_sms.cydsn/modem_v2.c **** uint8 modem_get_time(){
ARM GAS  C:\Users\karunmj\AppData\Local\Temp\ccxxkT5V.s 			page 15


 551              		.loc 1 233 0
 552              		.cfi_startproc
 553              		@ args = 0, pretend = 0, frame = 0
 554              		@ frame_needed = 1, uses_anonymous_args = 0
 555 0000 80B5     		push	{r7, lr}
 556              		.cfi_def_cfa_offset 8
 557              		.cfi_offset 7, -8
 558              		.cfi_offset 14, -4
 559 0002 00AF     		add	r7, sp, #0
 560              		.cfi_def_cfa_register 7
 234:..\..\..\..\..\Documents\GitHub\m2m\hardware\psoc5\psoc_datalogger_sms.cydsn/modem_v2.c ****     if(at_write_command("AT+CCLK?\r","OK",15000u) == 1){      
 561              		.loc 1 234 0
 562 0004 0648     		ldr	r0, .L44
 563 0006 0749     		ldr	r1, .L44+4
 564 0008 43F69822 		movw	r2, #15000
 565 000c FFF7FEFF 		bl	at_write_command
 566 0010 0346     		mov	r3, r0
 567 0012 012B     		cmp	r3, #1
 568 0014 01D1     		bne	.L42
 235:..\..\..\..\..\Documents\GitHub\m2m\hardware\psoc5\psoc_datalogger_sms.cydsn/modem_v2.c ****         return 1u;
 569              		.loc 1 235 0
 570 0016 0123     		movs	r3, #1
 571 0018 00E0     		b	.L43
 572              	.L42:
 236:..\..\..\..\..\Documents\GitHub\m2m\hardware\psoc5\psoc_datalogger_sms.cydsn/modem_v2.c ****     }
 237:..\..\..\..\..\Documents\GitHub\m2m\hardware\psoc5\psoc_datalogger_sms.cydsn/modem_v2.c ****     /* Write to SD Card debugger
 238:..\..\..\..\..\Documents\GitHub\m2m\hardware\psoc5\psoc_datalogger_sms.cydsn/modem_v2.c ****     else debug_write("(AT#SGACT=1,1) No IP Address Assigned.");
 239:..\..\..\..\..\Documents\GitHub\m2m\hardware\psoc5\psoc_datalogger_sms.cydsn/modem_v2.c ****     */
 240:..\..\..\..\..\Documents\GitHub\m2m\hardware\psoc5\psoc_datalogger_sms.cydsn/modem_v2.c ****     
 241:..\..\..\..\..\Documents\GitHub\m2m\hardware\psoc5\psoc_datalogger_sms.cydsn/modem_v2.c ****     /* Parse Time from data packet */
 242:..\..\..\..\..\Documents\GitHub\m2m\hardware\psoc5\psoc_datalogger_sms.cydsn/modem_v2.c **** 
 243:..\..\..\..\..\Documents\GitHub\m2m\hardware\psoc5\psoc_datalogger_sms.cydsn/modem_v2.c ****     return 0u;  
 573              		.loc 1 243 0
 574 001a 0023     		movs	r3, #0
 575              	.L43:
 244:..\..\..\..\..\Documents\GitHub\m2m\hardware\psoc5\psoc_datalogger_sms.cydsn/modem_v2.c **** }
 576              		.loc 1 244 0
 577 001c 1846     		mov	r0, r3
 578 001e 80BD     		pop	{r7, pc}
 579              	.L45:
 580              		.align	2
 581              	.L44:
 582 0020 2C000000 		.word	.LC4
 583 0024 10000000 		.word	.LC1
 584              		.cfi_endproc
 585              	.LFE64:
 586              		.size	modem_get_time, .-modem_get_time
 587              		.section	.rodata
 588 0036 0000     		.align	2
 589              	.LC5:
 590 0038 41542B43 		.ascii	"AT+CREG?\015\000"
 590      5245473F 
 590      0D00
 591              		.section	.text.modem_check_network,"ax",%progbits
 592              		.align	2
 593              		.global	modem_check_network
 594              		.thumb
ARM GAS  C:\Users\karunmj\AppData\Local\Temp\ccxxkT5V.s 			page 16


 595              		.thumb_func
 596              		.type	modem_check_network, %function
 597              	modem_check_network:
 598              	.LFB65:
 245:..\..\..\..\..\Documents\GitHub\m2m\hardware\psoc5\psoc_datalogger_sms.cydsn/modem_v2.c **** 
 246:..\..\..\..\..\Documents\GitHub\m2m\hardware\psoc5\psoc_datalogger_sms.cydsn/modem_v2.c **** uint8 modem_check_network() {
 599              		.loc 1 246 0
 600              		.cfi_startproc
 601              		@ args = 0, pretend = 0, frame = 0
 602              		@ frame_needed = 1, uses_anonymous_args = 0
 603 0000 80B5     		push	{r7, lr}
 604              		.cfi_def_cfa_offset 8
 605              		.cfi_offset 7, -8
 606              		.cfi_offset 14, -4
 607 0002 00AF     		add	r7, sp, #0
 608              		.cfi_def_cfa_register 7
 247:..\..\..\..\..\Documents\GitHub\m2m\hardware\psoc5\psoc_datalogger_sms.cydsn/modem_v2.c **** 
 248:..\..\..\..\..\Documents\GitHub\m2m\hardware\psoc5\psoc_datalogger_sms.cydsn/modem_v2.c ****     if(at_write_command("AT+CREG?\r","OK",15000u) == 1){      
 609              		.loc 1 248 0
 610 0004 0648     		ldr	r0, .L49
 611 0006 0749     		ldr	r1, .L49+4
 612 0008 43F69822 		movw	r2, #15000
 613 000c FFF7FEFF 		bl	at_write_command
 614 0010 0346     		mov	r3, r0
 615 0012 012B     		cmp	r3, #1
 616 0014 01D1     		bne	.L47
 249:..\..\..\..\..\Documents\GitHub\m2m\hardware\psoc5\psoc_datalogger_sms.cydsn/modem_v2.c ****         return 1u;
 617              		.loc 1 249 0
 618 0016 0123     		movs	r3, #1
 619 0018 00E0     		b	.L48
 620              	.L47:
 250:..\..\..\..\..\Documents\GitHub\m2m\hardware\psoc5\psoc_datalogger_sms.cydsn/modem_v2.c ****     }
 251:..\..\..\..\..\Documents\GitHub\m2m\hardware\psoc5\psoc_datalogger_sms.cydsn/modem_v2.c ****     /* Write to SD Card debugger
 252:..\..\..\..\..\Documents\GitHub\m2m\hardware\psoc5\psoc_datalogger_sms.cydsn/modem_v2.c ****     else debug_write("(AT#SGACT=1,1) No IP Address Assigned.");
 253:..\..\..\..\..\Documents\GitHub\m2m\hardware\psoc5\psoc_datalogger_sms.cydsn/modem_v2.c ****     */
 254:..\..\..\..\..\Documents\GitHub\m2m\hardware\psoc5\psoc_datalogger_sms.cydsn/modem_v2.c ****     
 255:..\..\..\..\..\Documents\GitHub\m2m\hardware\psoc5\psoc_datalogger_sms.cydsn/modem_v2.c ****     /* Parse Time from data packet */
 256:..\..\..\..\..\Documents\GitHub\m2m\hardware\psoc5\psoc_datalogger_sms.cydsn/modem_v2.c **** 
 257:..\..\..\..\..\Documents\GitHub\m2m\hardware\psoc5\psoc_datalogger_sms.cydsn/modem_v2.c ****     return 0u;      
 621              		.loc 1 257 0
 622 001a 0023     		movs	r3, #0
 623              	.L48:
 258:..\..\..\..\..\Documents\GitHub\m2m\hardware\psoc5\psoc_datalogger_sms.cydsn/modem_v2.c **** }
 624              		.loc 1 258 0
 625 001c 1846     		mov	r0, r3
 626 001e 80BD     		pop	{r7, pc}
 627              	.L50:
 628              		.align	2
 629              	.L49:
 630 0020 38000000 		.word	.LC5
 631 0024 10000000 		.word	.LC1
 632              		.cfi_endproc
 633              	.LFE65:
 634              		.size	modem_check_network, .-modem_check_network
 635              		.section	.rodata
 636 0042 0000     		.align	2
 637              	.LC6:
ARM GAS  C:\Users\karunmj\AppData\Local\Temp\ccxxkT5V.s 			page 17


 638 0044 41542B43 		.ascii	"AT+CSQ\015\000"
 638      53510D00 
 639              		.section	.text.modem_get_signal_quality,"ax",%progbits
 640              		.align	2
 641              		.global	modem_get_signal_quality
 642              		.thumb
 643              		.thumb_func
 644              		.type	modem_get_signal_quality, %function
 645              	modem_get_signal_quality:
 646              	.LFB66:
 259:..\..\..\..\..\Documents\GitHub\m2m\hardware\psoc5\psoc_datalogger_sms.cydsn/modem_v2.c **** 
 260:..\..\..\..\..\Documents\GitHub\m2m\hardware\psoc5\psoc_datalogger_sms.cydsn/modem_v2.c **** uint8 modem_get_signal_quality(){
 647              		.loc 1 260 0
 648              		.cfi_startproc
 649              		@ args = 0, pretend = 0, frame = 0
 650              		@ frame_needed = 1, uses_anonymous_args = 0
 651 0000 80B5     		push	{r7, lr}
 652              		.cfi_def_cfa_offset 8
 653              		.cfi_offset 7, -8
 654              		.cfi_offset 14, -4
 655 0002 00AF     		add	r7, sp, #0
 656              		.cfi_def_cfa_register 7
 261:..\..\..\..\..\Documents\GitHub\m2m\hardware\psoc5\psoc_datalogger_sms.cydsn/modem_v2.c ****     if(at_write_command("AT+CSQ\r","OK",15000u) == 1){      
 657              		.loc 1 261 0
 658 0004 0648     		ldr	r0, .L54
 659 0006 0749     		ldr	r1, .L54+4
 660 0008 43F69822 		movw	r2, #15000
 661 000c FFF7FEFF 		bl	at_write_command
 662 0010 0346     		mov	r3, r0
 663 0012 012B     		cmp	r3, #1
 664 0014 01D1     		bne	.L52
 262:..\..\..\..\..\Documents\GitHub\m2m\hardware\psoc5\psoc_datalogger_sms.cydsn/modem_v2.c ****         return 1u;
 665              		.loc 1 262 0
 666 0016 0123     		movs	r3, #1
 667 0018 00E0     		b	.L53
 668              	.L52:
 263:..\..\..\..\..\Documents\GitHub\m2m\hardware\psoc5\psoc_datalogger_sms.cydsn/modem_v2.c ****     }
 264:..\..\..\..\..\Documents\GitHub\m2m\hardware\psoc5\psoc_datalogger_sms.cydsn/modem_v2.c ****     /* Write to SD Card debugger
 265:..\..\..\..\..\Documents\GitHub\m2m\hardware\psoc5\psoc_datalogger_sms.cydsn/modem_v2.c ****     else debug_write("(AT#SGACT=1,1) No IP Address Assigned.");
 266:..\..\..\..\..\Documents\GitHub\m2m\hardware\psoc5\psoc_datalogger_sms.cydsn/modem_v2.c ****     */
 267:..\..\..\..\..\Documents\GitHub\m2m\hardware\psoc5\psoc_datalogger_sms.cydsn/modem_v2.c ****     
 268:..\..\..\..\..\Documents\GitHub\m2m\hardware\psoc5\psoc_datalogger_sms.cydsn/modem_v2.c ****     /* Parse Time from data packet */
 269:..\..\..\..\..\Documents\GitHub\m2m\hardware\psoc5\psoc_datalogger_sms.cydsn/modem_v2.c **** 
 270:..\..\..\..\..\Documents\GitHub\m2m\hardware\psoc5\psoc_datalogger_sms.cydsn/modem_v2.c ****     return 0u;  
 669              		.loc 1 270 0
 670 001a 0023     		movs	r3, #0
 671              	.L53:
 271:..\..\..\..\..\Documents\GitHub\m2m\hardware\psoc5\psoc_datalogger_sms.cydsn/modem_v2.c **** }
 672              		.loc 1 271 0
 673 001c 1846     		mov	r0, r3
 674 001e 80BD     		pop	{r7, pc}
 675              	.L55:
 676              		.align	2
 677              	.L54:
 678 0020 44000000 		.word	.LC6
 679 0024 10000000 		.word	.LC1
 680              		.cfi_endproc
ARM GAS  C:\Users\karunmj\AppData\Local\Temp\ccxxkT5V.s 			page 18


 681              	.LFE66:
 682              		.size	modem_get_signal_quality, .-modem_get_signal_quality
 683              		.section	.rodata
 684              		.align	2
 685              	.LC7:
 686 004c 41542B43 		.ascii	"AT+CGSN\015\000"
 686      47534E0D 
 686      00
 687              		.section	.text.modem_get_serial_number,"ax",%progbits
 688              		.align	2
 689              		.global	modem_get_serial_number
 690              		.thumb
 691              		.thumb_func
 692              		.type	modem_get_serial_number, %function
 693              	modem_get_serial_number:
 694              	.LFB67:
 272:..\..\..\..\..\Documents\GitHub\m2m\hardware\psoc5\psoc_datalogger_sms.cydsn/modem_v2.c **** 
 273:..\..\..\..\..\Documents\GitHub\m2m\hardware\psoc5\psoc_datalogger_sms.cydsn/modem_v2.c **** uint8 modem_get_serial_number(){
 695              		.loc 1 273 0
 696              		.cfi_startproc
 697              		@ args = 0, pretend = 0, frame = 0
 698              		@ frame_needed = 1, uses_anonymous_args = 0
 699 0000 80B5     		push	{r7, lr}
 700              		.cfi_def_cfa_offset 8
 701              		.cfi_offset 7, -8
 702              		.cfi_offset 14, -4
 703 0002 00AF     		add	r7, sp, #0
 704              		.cfi_def_cfa_register 7
 274:..\..\..\..\..\Documents\GitHub\m2m\hardware\psoc5\psoc_datalogger_sms.cydsn/modem_v2.c ****     if(at_write_command("AT+CGSN\r","OK",15000u) == 1){      
 705              		.loc 1 274 0
 706 0004 0648     		ldr	r0, .L59
 707 0006 0749     		ldr	r1, .L59+4
 708 0008 43F69822 		movw	r2, #15000
 709 000c FFF7FEFF 		bl	at_write_command
 710 0010 0346     		mov	r3, r0
 711 0012 012B     		cmp	r3, #1
 712 0014 01D1     		bne	.L57
 275:..\..\..\..\..\Documents\GitHub\m2m\hardware\psoc5\psoc_datalogger_sms.cydsn/modem_v2.c ****         return 1u;
 713              		.loc 1 275 0
 714 0016 0123     		movs	r3, #1
 715 0018 00E0     		b	.L58
 716              	.L57:
 276:..\..\..\..\..\Documents\GitHub\m2m\hardware\psoc5\psoc_datalogger_sms.cydsn/modem_v2.c ****     }
 277:..\..\..\..\..\Documents\GitHub\m2m\hardware\psoc5\psoc_datalogger_sms.cydsn/modem_v2.c ****     /* Write to SD Card debugger
 278:..\..\..\..\..\Documents\GitHub\m2m\hardware\psoc5\psoc_datalogger_sms.cydsn/modem_v2.c ****     else debug_write("(AT#SGACT=1,1) No IP Address Assigned.");
 279:..\..\..\..\..\Documents\GitHub\m2m\hardware\psoc5\psoc_datalogger_sms.cydsn/modem_v2.c ****     */
 280:..\..\..\..\..\Documents\GitHub\m2m\hardware\psoc5\psoc_datalogger_sms.cydsn/modem_v2.c ****     
 281:..\..\..\..\..\Documents\GitHub\m2m\hardware\psoc5\psoc_datalogger_sms.cydsn/modem_v2.c ****     /* Parse Time from data packet */
 282:..\..\..\..\..\Documents\GitHub\m2m\hardware\psoc5\psoc_datalogger_sms.cydsn/modem_v2.c **** 
 283:..\..\..\..\..\Documents\GitHub\m2m\hardware\psoc5\psoc_datalogger_sms.cydsn/modem_v2.c ****     return 0u;  
 717              		.loc 1 283 0
 718 001a 0023     		movs	r3, #0
 719              	.L58:
 284:..\..\..\..\..\Documents\GitHub\m2m\hardware\psoc5\psoc_datalogger_sms.cydsn/modem_v2.c **** }
 720              		.loc 1 284 0
 721 001c 1846     		mov	r0, r3
 722 001e 80BD     		pop	{r7, pc}
ARM GAS  C:\Users\karunmj\AppData\Local\Temp\ccxxkT5V.s 			page 19


 723              	.L60:
 724              		.align	2
 725              	.L59:
 726 0020 4C000000 		.word	.LC7
 727 0024 10000000 		.word	.LC1
 728              		.cfi_endproc
 729              	.LFE67:
 730              		.size	modem_get_serial_number, .-modem_get_serial_number
 731              		.section	.rodata
 732 0055 000000   		.align	2
 733              	.LC8:
 734 0058 41542656 		.ascii	"AT&V\015\012\000"
 734      0D0A00
 735              		.section	.text.modem_get_profile,"ax",%progbits
 736              		.align	2
 737              		.global	modem_get_profile
 738              		.thumb
 739              		.thumb_func
 740              		.type	modem_get_profile, %function
 741              	modem_get_profile:
 742              	.LFB68:
 285:..\..\..\..\..\Documents\GitHub\m2m\hardware\psoc5\psoc_datalogger_sms.cydsn/modem_v2.c **** 
 286:..\..\..\..\..\Documents\GitHub\m2m\hardware\psoc5\psoc_datalogger_sms.cydsn/modem_v2.c **** uint8 modem_get_profile() {
 743              		.loc 1 286 0
 744              		.cfi_startproc
 745              		@ args = 0, pretend = 0, frame = 104
 746              		@ frame_needed = 1, uses_anonymous_args = 0
 747 0000 80B5     		push	{r7, lr}
 748              		.cfi_def_cfa_offset 8
 749              		.cfi_offset 7, -8
 750              		.cfi_offset 14, -4
 751 0002 9AB0     		sub	sp, sp, #104
 752              		.cfi_def_cfa_offset 112
 753 0004 00AF     		add	r7, sp, #0
 754              		.cfi_def_cfa_register 7
 287:..\..\..\..\..\Documents\GitHub\m2m\hardware\psoc5\psoc_datalogger_sms.cydsn/modem_v2.c ****     
 288:..\..\..\..\..\Documents\GitHub\m2m\hardware\psoc5\psoc_datalogger_sms.cydsn/modem_v2.c ****     char cmd_str[100];
 289:..\..\..\..\..\Documents\GitHub\m2m\hardware\psoc5\psoc_datalogger_sms.cydsn/modem_v2.c ****     sprintf(cmd_str,"AT&V\r\n");    
 755              		.loc 1 289 0
 756 0006 3B1D     		adds	r3, r7, #4
 757 0008 0C4A     		ldr	r2, .L65
 758 000a 92E80300 		ldmia	r2, {r0, r1}
 759 000e 1860     		str	r0, [r3]
 760 0010 0433     		adds	r3, r3, #4
 761 0012 1980     		strh	r1, [r3]	@ movhi
 762 0014 0233     		adds	r3, r3, #2
 763 0016 0A0C     		lsrs	r2, r1, #16
 764 0018 1A70     		strb	r2, [r3]
 290:..\..\..\..\..\Documents\GitHub\m2m\hardware\psoc5\psoc_datalogger_sms.cydsn/modem_v2.c ****     
 291:..\..\..\..\..\Documents\GitHub\m2m\hardware\psoc5\psoc_datalogger_sms.cydsn/modem_v2.c ****     if(at_write_command("AT&V\r\n","OK",15000u) == 1){      
 765              		.loc 1 291 0
 766 001a 0848     		ldr	r0, .L65
 767 001c 0849     		ldr	r1, .L65+4
 768 001e 43F69822 		movw	r2, #15000
 769 0022 FFF7FEFF 		bl	at_write_command
 770 0026 0346     		mov	r3, r0
 771 0028 012B     		cmp	r3, #1
ARM GAS  C:\Users\karunmj\AppData\Local\Temp\ccxxkT5V.s 			page 20


 772 002a 01D1     		bne	.L62
 292:..\..\..\..\..\Documents\GitHub\m2m\hardware\psoc5\psoc_datalogger_sms.cydsn/modem_v2.c ****         return 1u;
 773              		.loc 1 292 0
 774 002c 0123     		movs	r3, #1
 775 002e 00E0     		b	.L64
 776              	.L62:
 293:..\..\..\..\..\Documents\GitHub\m2m\hardware\psoc5\psoc_datalogger_sms.cydsn/modem_v2.c ****     }
 294:..\..\..\..\..\Documents\GitHub\m2m\hardware\psoc5\psoc_datalogger_sms.cydsn/modem_v2.c ****     /* Write to SD Card debugger
 295:..\..\..\..\..\Documents\GitHub\m2m\hardware\psoc5\psoc_datalogger_sms.cydsn/modem_v2.c ****     else debug_write("(AT#SGACT=1,1) No IP Address Assigned.");
 296:..\..\..\..\..\Documents\GitHub\m2m\hardware\psoc5\psoc_datalogger_sms.cydsn/modem_v2.c ****     */
 297:..\..\..\..\..\Documents\GitHub\m2m\hardware\psoc5\psoc_datalogger_sms.cydsn/modem_v2.c ****         
 298:..\..\..\..\..\Documents\GitHub\m2m\hardware\psoc5\psoc_datalogger_sms.cydsn/modem_v2.c ****     return 0u;
 777              		.loc 1 298 0
 778 0030 0023     		movs	r3, #0
 779              	.L64:
 299:..\..\..\..\..\Documents\GitHub\m2m\hardware\psoc5\psoc_datalogger_sms.cydsn/modem_v2.c **** }
 780              		.loc 1 299 0
 781 0032 1846     		mov	r0, r3
 782 0034 6837     		adds	r7, r7, #104
 783 0036 BD46     		mov	sp, r7
 784              		@ sp needed
 785 0038 80BD     		pop	{r7, pc}
 786              	.L66:
 787 003a 00BF     		.align	2
 788              	.L65:
 789 003c 58000000 		.word	.LC8
 790 0040 10000000 		.word	.LC1
 791              		.cfi_endproc
 792              	.LFE68:
 793              		.size	modem_get_profile, .-modem_get_profile
 794              		.section	.rodata
 795 005f 00       		.align	2
 796              	.LC9:
 797 0060 4154264B 		.ascii	"AT&K%d\015\012\000"
 797      25640D0A 
 797      00
 798              		.section	.text.modem_set_flow_control,"ax",%progbits
 799              		.align	2
 800              		.global	modem_set_flow_control
 801              		.thumb
 802              		.thumb_func
 803              		.type	modem_set_flow_control, %function
 804              	modem_set_flow_control:
 805              	.LFB69:
 300:..\..\..\..\..\Documents\GitHub\m2m\hardware\psoc5\psoc_datalogger_sms.cydsn/modem_v2.c **** 
 301:..\..\..\..\..\Documents\GitHub\m2m\hardware\psoc5\psoc_datalogger_sms.cydsn/modem_v2.c **** uint8 modem_set_flow_control(uint8 param) {
 806              		.loc 1 301 0
 807              		.cfi_startproc
 808              		@ args = 0, pretend = 0, frame = 112
 809              		@ frame_needed = 1, uses_anonymous_args = 0
 810 0000 80B5     		push	{r7, lr}
 811              		.cfi_def_cfa_offset 8
 812              		.cfi_offset 7, -8
 813              		.cfi_offset 14, -4
 814 0002 9CB0     		sub	sp, sp, #112
 815              		.cfi_def_cfa_offset 120
 816 0004 00AF     		add	r7, sp, #0
ARM GAS  C:\Users\karunmj\AppData\Local\Temp\ccxxkT5V.s 			page 21


 817              		.cfi_def_cfa_register 7
 818 0006 0346     		mov	r3, r0
 819 0008 FB71     		strb	r3, [r7, #7]
 302:..\..\..\..\..\Documents\GitHub\m2m\hardware\psoc5\psoc_datalogger_sms.cydsn/modem_v2.c ****     
 303:..\..\..\..\..\Documents\GitHub\m2m\hardware\psoc5\psoc_datalogger_sms.cydsn/modem_v2.c ****     char cmd_str[100];
 304:..\..\..\..\..\Documents\GitHub\m2m\hardware\psoc5\psoc_datalogger_sms.cydsn/modem_v2.c ****     sprintf(cmd_str,"AT&K%d\r\n", param);    
 820              		.loc 1 304 0
 821 000a FB79     		ldrb	r3, [r7, #7]	@ zero_extendqisi2
 822 000c 07F10C02 		add	r2, r7, #12
 823 0010 1046     		mov	r0, r2
 824 0012 0B49     		ldr	r1, .L71
 825 0014 1A46     		mov	r2, r3
 826 0016 FFF7FEFF 		bl	sprintf
 305:..\..\..\..\..\Documents\GitHub\m2m\hardware\psoc5\psoc_datalogger_sms.cydsn/modem_v2.c ****     
 306:..\..\..\..\..\Documents\GitHub\m2m\hardware\psoc5\psoc_datalogger_sms.cydsn/modem_v2.c ****     if(at_write_command(cmd_str,"OK",15000u) == 1){      
 827              		.loc 1 306 0
 828 001a 07F10C03 		add	r3, r7, #12
 829 001e 1846     		mov	r0, r3
 830 0020 0849     		ldr	r1, .L71+4
 831 0022 43F69822 		movw	r2, #15000
 832 0026 FFF7FEFF 		bl	at_write_command
 833 002a 0346     		mov	r3, r0
 834 002c 012B     		cmp	r3, #1
 835 002e 01D1     		bne	.L68
 307:..\..\..\..\..\Documents\GitHub\m2m\hardware\psoc5\psoc_datalogger_sms.cydsn/modem_v2.c ****         return 1u;
 836              		.loc 1 307 0
 837 0030 0123     		movs	r3, #1
 838 0032 00E0     		b	.L70
 839              	.L68:
 308:..\..\..\..\..\Documents\GitHub\m2m\hardware\psoc5\psoc_datalogger_sms.cydsn/modem_v2.c ****     }
 309:..\..\..\..\..\Documents\GitHub\m2m\hardware\psoc5\psoc_datalogger_sms.cydsn/modem_v2.c ****     /* Write to SD Card debugger
 310:..\..\..\..\..\Documents\GitHub\m2m\hardware\psoc5\psoc_datalogger_sms.cydsn/modem_v2.c ****     else debug_write("(AT#SGACT=1,1) No IP Address Assigned.");
 311:..\..\..\..\..\Documents\GitHub\m2m\hardware\psoc5\psoc_datalogger_sms.cydsn/modem_v2.c ****     */
 312:..\..\..\..\..\Documents\GitHub\m2m\hardware\psoc5\psoc_datalogger_sms.cydsn/modem_v2.c ****         
 313:..\..\..\..\..\Documents\GitHub\m2m\hardware\psoc5\psoc_datalogger_sms.cydsn/modem_v2.c ****     return 0u;
 840              		.loc 1 313 0
 841 0034 0023     		movs	r3, #0
 842              	.L70:
 314:..\..\..\..\..\Documents\GitHub\m2m\hardware\psoc5\psoc_datalogger_sms.cydsn/modem_v2.c **** }
 843              		.loc 1 314 0
 844 0036 1846     		mov	r0, r3
 845 0038 7037     		adds	r7, r7, #112
 846 003a BD46     		mov	sp, r7
 847              		@ sp needed
 848 003c 80BD     		pop	{r7, pc}
 849              	.L72:
 850 003e 00BF     		.align	2
 851              	.L71:
 852 0040 60000000 		.word	.LC9
 853 0044 10000000 		.word	.LC1
 854              		.cfi_endproc
 855              	.LFE69:
 856              		.size	modem_set_flow_control, .-modem_set_flow_control
 857              		.section	.rodata
 858 0069 000000   		.align	2
 859              	.LC10:
 860 006c 41542353 		.ascii	"AT#SD=3,0,80,\"www.telit.com\"\015\012\000"
ARM GAS  C:\Users\karunmj\AppData\Local\Temp\ccxxkT5V.s 			page 22


 860      443D332C 
 860      302C3830 
 860      2C227777 
 860      772E7465 
 861 008b 00       		.align	2
 862              	.LC11:
 863 008c 434F4E4E 		.ascii	"CONNECT\000"
 863      45435400 
 864              		.align	2
 865              	.LC12:
 866 0094 41542353 		.ascii	"AT#SSEND=1\015\000"
 866      53454E44 
 866      3D310D00 
 867              		.align	2
 868              	.LC13:
 869 00a0 3E00     		.ascii	">\000"
 870 00a2 0000     		.align	2
 871              	.LC14:
 872 00a4 50555420 		.ascii	"PUT /v2/feeds/%lu.csv HTTP/1.0\015\012\000"
 872      2F76322F 
 872      66656564 
 872      732F256C 
 872      752E6373 
 873 00c5 000000   		.align	2
 874              	.LC15:
 875 00c8 582D4170 		.ascii	"X-ApiKey: %s\015\012\000"
 875      694B6579 
 875      3A202573 
 875      0D0A00
 876 00d7 00       		.align	2
 877              	.LC16:
 878 00d8 25732573 		.ascii	"%s%s%s%s%d%s%s%s\000"
 878      25732573 
 878      25642573 
 878      25732573 
 878      00
 879 00e9 000000   		.align	2
 880              	.LC17:
 881 00ec 486F7374 		.ascii	"Host: api.xively.com\015\012\000"
 881      3A206170 
 881      692E7869 
 881      76656C79 
 881      2E636F6D 
 882 0103 00       		.align	2
 883              	.LC18:
 884 0104 436F6E74 		.ascii	"Content-Length: \000"
 884      656E742D 
 884      4C656E67 
 884      74683A20 
 884      00
 885 0115 000000   		.align	2
 886              	.LC19:
 887 0118 0D0A0D0A 		.ascii	"\015\012\015\012\000"
 887      00
 888 011d 000000   		.align	2
 889              	.LC20:
 890 0120 1A0D00   		.ascii	"\032\015\000"
ARM GAS  C:\Users\karunmj\AppData\Local\Temp\ccxxkT5V.s 			page 23


 891              		.section	.text.modem_send_packet,"ax",%progbits
 892              		.align	2
 893              		.global	modem_send_packet
 894              		.thumb
 895              		.thumb_func
 896              		.type	modem_send_packet, %function
 897              	modem_send_packet:
 898              	.LFB70:
 315:..\..\..\..\..\Documents\GitHub\m2m\hardware\psoc5\psoc_datalogger_sms.cydsn/modem_v2.c **** 
 316:..\..\..\..\..\Documents\GitHub\m2m\hardware\psoc5\psoc_datalogger_sms.cydsn/modem_v2.c **** // send packet to Xively server
 317:..\..\..\..\..\Documents\GitHub\m2m\hardware\psoc5\psoc_datalogger_sms.cydsn/modem_v2.c **** uint8 modem_send_packet(char* body){
 899              		.loc 1 317 0
 900              		.cfi_startproc
 901              		@ args = 0, pretend = 0, frame = 1112
 902              		@ frame_needed = 1, uses_anonymous_args = 0
 903 0000 90B5     		push	{r4, r7, lr}
 904              		.cfi_def_cfa_offset 12
 905              		.cfi_offset 4, -12
 906              		.cfi_offset 7, -8
 907              		.cfi_offset 14, -4
 908 0002 ADF2744D 		subw	sp, sp, #1140
 909              		.cfi_def_cfa_offset 1152
 910 0006 06AF     		add	r7, sp, #24
 911              		.cfi_def_cfa 7, 1128
 912 0008 3B1D     		adds	r3, r7, #4
 913 000a 1860     		str	r0, [r3]
 318:..\..\..\..\..\Documents\GitHub\m2m\hardware\psoc5\psoc_datalogger_sms.cydsn/modem_v2.c **** 
 319:..\..\..\..\..\Documents\GitHub\m2m\hardware\psoc5\psoc_datalogger_sms.cydsn/modem_v2.c ****     
 320:..\..\..\..\..\Documents\GitHub\m2m\hardware\psoc5\psoc_datalogger_sms.cydsn/modem_v2.c ****     /*
 321:..\..\..\..\..\Documents\GitHub\m2m\hardware\psoc5\psoc_datalogger_sms.cydsn/modem_v2.c ****     // provide power to rx and tx pins
 322:..\..\..\..\..\Documents\GitHub\m2m\hardware\psoc5\psoc_datalogger_sms.cydsn/modem_v2.c ****     //uart_rx_voltage_pin_Write(0u);
 323:..\..\..\..\..\Documents\GitHub\m2m\hardware\psoc5\psoc_datalogger_sms.cydsn/modem_v2.c ****     //uart_tx_voltage_pin_Write(0u);
 324:..\..\..\..\..\Documents\GitHub\m2m\hardware\psoc5\psoc_datalogger_sms.cydsn/modem_v2.c ****     
 325:..\..\..\..\..\Documents\GitHub\m2m\hardware\psoc5\psoc_datalogger_sms.cydsn/modem_v2.c ****     // join network
 326:..\..\..\..\..\Documents\GitHub\m2m\hardware\psoc5\psoc_datalogger_sms.cydsn/modem_v2.c ****     uint8 connected = modem_connect();
 327:..\..\..\..\..\Documents\GitHub\m2m\hardware\psoc5\psoc_datalogger_sms.cydsn/modem_v2.c ****     */
 328:..\..\..\..\..\Documents\GitHub\m2m\hardware\psoc5\psoc_datalogger_sms.cydsn/modem_v2.c ****     uint8 attempts = 0;
 914              		.loc 1 328 0
 915 000c 0023     		movs	r3, #0
 916 000e 87F85734 		strb	r3, [r7, #1111]
 329:..\..\..\..\..\Documents\GitHub\m2m\hardware\psoc5\psoc_datalogger_sms.cydsn/modem_v2.c ****     //char put_str[MAX_PACKET_LENGTH] = {0}, key_str[100]={0};
 330:..\..\..\..\..\Documents\GitHub\m2m\hardware\psoc5\psoc_datalogger_sms.cydsn/modem_v2.c ****     
 331:..\..\..\..\..\Documents\GitHub\m2m\hardware\psoc5\psoc_datalogger_sms.cydsn/modem_v2.c ****     for(attempts = 0; attempts < MAX_SEND_ATTEMPTS; attempts++) {
 917              		.loc 1 331 0
 918 0012 0023     		movs	r3, #0
 919 0014 87F85734 		strb	r3, [r7, #1111]
 920 0018 65E0     		b	.L74
 921              	.L80:
 332:..\..\..\..\..\Documents\GitHub\m2m\hardware\psoc5\psoc_datalogger_sms.cydsn/modem_v2.c ****         
 333:..\..\..\..\..\Documents\GitHub\m2m\hardware\psoc5\psoc_datalogger_sms.cydsn/modem_v2.c ****         // Proceed if modem is already connected.  Otherwise, try to join the network and proceed
 334:..\..\..\..\..\Documents\GitHub\m2m\hardware\psoc5\psoc_datalogger_sms.cydsn/modem_v2.c ****         if( modem_state == MODEM_STATE_READY || modem_connect() != 0){ 
 922              		.loc 1 334 0
 923 001a 394B     		ldr	r3, .L81
 924 001c 1B78     		ldrb	r3, [r3]	@ zero_extendqisi2
 925 001e 032B     		cmp	r3, #3
 926 0020 04D0     		beq	.L75
 927              		.loc 1 334 0 is_stmt 0 discriminator 1
ARM GAS  C:\Users\karunmj\AppData\Local\Temp\ccxxkT5V.s 			page 24


 928 0022 FFF7FEFF 		bl	modem_connect
 929 0026 0346     		mov	r3, r0
 930 0028 002B     		cmp	r3, #0
 931 002a 51D0     		beq	.L76
 932              	.L75:
 335:..\..\..\..\..\Documents\GitHub\m2m\hardware\psoc5\psoc_datalogger_sms.cydsn/modem_v2.c ****             // write to AWS server  - 184.72.228.61\",0,0,1
 336:..\..\..\..\..\Documents\GitHub\m2m\hardware\psoc5\psoc_datalogger_sms.cydsn/modem_v2.c ****             //if(at_write_command("AT#SD=1,0,50030,\"184.72.228.61\",0,0,1\r","OK",5000u) != 0){
 337:..\..\..\..\..\Documents\GitHub\m2m\hardware\psoc5\psoc_datalogger_sms.cydsn/modem_v2.c ****             if(at_write_command("AT#SD=3,0,80,\"www.telit.com\"\r\n","CONNECT",10000u) != 0){
 933              		.loc 1 337 0 is_stmt 1
 934 002c 3548     		ldr	r0, .L81+4
 935 002e 3649     		ldr	r1, .L81+8
 936 0030 42F21072 		movw	r2, #10000
 937 0034 FFF7FEFF 		bl	at_write_command
 938 0038 0346     		mov	r3, r0
 939 003a 002B     		cmp	r3, #0
 940 003c 48D0     		beq	.L76
 338:..\..\..\..\..\Documents\GitHub\m2m\hardware\psoc5\psoc_datalogger_sms.cydsn/modem_v2.c ****             //if(at_write_command("AT#SKTD=1,80,\"api.xively.com\"\r","CONNECT",10000u) != 0){
 339:..\..\..\..\..\Documents\GitHub\m2m\hardware\psoc5\psoc_datalogger_sms.cydsn/modem_v2.c ****                 if(at_write_command("AT#SSEND=1\r",">",10000u) != 0){
 941              		.loc 1 339 0
 942 003e 3348     		ldr	r0, .L81+12
 943 0040 3349     		ldr	r1, .L81+16
 944 0042 42F21072 		movw	r2, #10000
 945 0046 FFF7FEFF 		bl	at_write_command
 946 004a 0346     		mov	r3, r0
 947 004c 002B     		cmp	r3, #0
 948 004e 3FD0     		beq	.L76
 949              	.LBB3:
 340:..\..\..\..\..\Documents\GitHub\m2m\hardware\psoc5\psoc_datalogger_sms.cydsn/modem_v2.c ****                     //if(at_write_command(packet,"OK",20000u) != 0){
 341:..\..\..\..\..\Documents\GitHub\m2m\hardware\psoc5\psoc_datalogger_sms.cydsn/modem_v2.c ****                     //char sendBuffer[MAX_PACKET_LENGTH];
 342:..\..\..\..\..\Documents\GitHub\m2m\hardware\psoc5\psoc_datalogger_sms.cydsn/modem_v2.c ****                     char put_str[MAX_PACKET_LENGTH], key_str[100];
 343:..\..\..\..\..\Documents\GitHub\m2m\hardware\psoc5\psoc_datalogger_sms.cydsn/modem_v2.c ****                     
 344:..\..\..\..\..\Documents\GitHub\m2m\hardware\psoc5\psoc_datalogger_sms.cydsn/modem_v2.c ****                     sprintf(put_str,"PUT /v2/feeds/%lu.csv HTTP/1.0\r\n", feed_id);
 950              		.loc 1 344 0
 951 0050 304B     		ldr	r3, .L81+20
 952 0052 1B68     		ldr	r3, [r3]
 953 0054 07F16C02 		add	r2, r7, #108
 954 0058 1046     		mov	r0, r2
 955 005a 2F49     		ldr	r1, .L81+24
 956 005c 1A46     		mov	r2, r3
 957 005e FFF7FEFF 		bl	sprintf
 345:..\..\..\..\..\Documents\GitHub\m2m\hardware\psoc5\psoc_datalogger_sms.cydsn/modem_v2.c ****                     sprintf(key_str,"X-ApiKey: %s\r\n", api_key);
 958              		.loc 1 345 0
 959 0062 2E4B     		ldr	r3, .L81+28
 960 0064 1B68     		ldr	r3, [r3]
 961 0066 07F10802 		add	r2, r7, #8
 962 006a 1046     		mov	r0, r2
 963 006c 2C49     		ldr	r1, .L81+32
 964 006e 1A46     		mov	r2, r3
 965 0070 FFF7FEFF 		bl	sprintf
 346:..\..\..\..\..\Documents\GitHub\m2m\hardware\psoc5\psoc_datalogger_sms.cydsn/modem_v2.c ****                     sprintf(put_str,"%s%s%s%s%d%s%s%s",
 966              		.loc 1 346 0
 967 0074 3B1D     		adds	r3, r7, #4
 968 0076 1868     		ldr	r0, [r3]
 969 0078 FFF7FEFF 		bl	strlen
 970 007c 07F16C01 		add	r1, r7, #108
 971 0080 07F16C02 		add	r2, r7, #108
 972 0084 07F10803 		add	r3, r7, #8
ARM GAS  C:\Users\karunmj\AppData\Local\Temp\ccxxkT5V.s 			page 25


 973 0088 264C     		ldr	r4, .L81+36
 974 008a 0094     		str	r4, [sp]
 975 008c 264C     		ldr	r4, .L81+40
 976 008e 0194     		str	r4, [sp, #4]
 977 0090 0290     		str	r0, [sp, #8]
 978 0092 2648     		ldr	r0, .L81+44
 979 0094 0390     		str	r0, [sp, #12]
 980 0096 381D     		adds	r0, r7, #4
 981 0098 0068     		ldr	r0, [r0]
 982 009a 0490     		str	r0, [sp, #16]
 983 009c 2448     		ldr	r0, .L81+48
 984 009e 0590     		str	r0, [sp, #20]
 985 00a0 0846     		mov	r0, r1
 986 00a2 2449     		ldr	r1, .L81+52
 987 00a4 FFF7FEFF 		bl	sprintf
 347:..\..\..\..\..\Documents\GitHub\m2m\hardware\psoc5\psoc_datalogger_sms.cydsn/modem_v2.c ****                         put_str,
 348:..\..\..\..\..\Documents\GitHub\m2m\hardware\psoc5\psoc_datalogger_sms.cydsn/modem_v2.c ****                         key_str,
 349:..\..\..\..\..\Documents\GitHub\m2m\hardware\psoc5\psoc_datalogger_sms.cydsn/modem_v2.c ****                         "Host: api.xively.com\r\n",
 350:..\..\..\..\..\Documents\GitHub\m2m\hardware\psoc5\psoc_datalogger_sms.cydsn/modem_v2.c ****                         "Content-Length: ", strlen(body),
 351:..\..\..\..\..\Documents\GitHub\m2m\hardware\psoc5\psoc_datalogger_sms.cydsn/modem_v2.c ****                         "\r\n\r\n", body, "\032\r");
 352:..\..\..\..\..\Documents\GitHub\m2m\hardware\psoc5\psoc_datalogger_sms.cydsn/modem_v2.c ****                         
 353:..\..\..\..\..\Documents\GitHub\m2m\hardware\psoc5\psoc_datalogger_sms.cydsn/modem_v2.c ****                     //sprintf(sendBuffer, "%s\032", packet);
 354:..\..\..\..\..\Documents\GitHub\m2m\hardware\psoc5\psoc_datalogger_sms.cydsn/modem_v2.c ****                     if(at_write_command(put_str,"OK",15000u) != 0){
 988              		.loc 1 354 0
 989 00a8 07F16C03 		add	r3, r7, #108
 990 00ac 1846     		mov	r0, r3
 991 00ae 2249     		ldr	r1, .L81+56
 992 00b0 43F69822 		movw	r2, #15000
 993 00b4 FFF7FEFF 		bl	at_write_command
 994 00b8 0346     		mov	r3, r0
 995 00ba 002B     		cmp	r3, #0
 996 00bc 08D0     		beq	.L76
 355:..\..\..\..\..\Documents\GitHub\m2m\hardware\psoc5\psoc_datalogger_sms.cydsn/modem_v2.c ****                         modem_state = MODEM_STATE_IDLE;
 997              		.loc 1 355 0
 998 00be 104B     		ldr	r3, .L81
 999 00c0 0122     		movs	r2, #1
 1000 00c2 1A70     		strb	r2, [r3]
 356:..\..\..\..\..\Documents\GitHub\m2m\hardware\psoc5\psoc_datalogger_sms.cydsn/modem_v2.c ****                         CyDelay(1000u); //debug_write("Packet sent successfully.");
 1001              		.loc 1 356 0
 1002 00c4 4FF47A70 		mov	r0, #1000
 1003 00c8 FFF7FEFF 		bl	CyDelay
 357:..\..\..\..\..\Documents\GitHub\m2m\hardware\psoc5\psoc_datalogger_sms.cydsn/modem_v2.c ****                         return 1u;   // return 1 if succesfully sent sms
 1004              		.loc 1 357 0
 1005 00cc 0123     		movs	r3, #1
 1006 00ce 11E0     		b	.L78
 1007              	.L76:
 1008              	.LBE3:
 358:..\..\..\..\..\Documents\GitHub\m2m\hardware\psoc5\psoc_datalogger_sms.cydsn/modem_v2.c ****                     }
 359:..\..\..\..\..\Documents\GitHub\m2m\hardware\psoc5\psoc_datalogger_sms.cydsn/modem_v2.c ****                     /* Write to SD Card debugger
 360:..\..\..\..\..\Documents\GitHub\m2m\hardware\psoc5\psoc_datalogger_sms.cydsn/modem_v2.c ****                     else {
 361:..\..\..\..\..\Documents\GitHub\m2m\hardware\psoc5\psoc_datalogger_sms.cydsn/modem_v2.c ****                         debug_write("(at_write_command(sendBuffer,\"OK\"...) Data sent unsuccessful
 362:..\..\..\..\..\Documents\GitHub\m2m\hardware\psoc5\psoc_datalogger_sms.cydsn/modem_v2.c ****                     }
 363:..\..\..\..\..\Documents\GitHub\m2m\hardware\psoc5\psoc_datalogger_sms.cydsn/modem_v2.c ****                     */
 364:..\..\..\..\..\Documents\GitHub\m2m\hardware\psoc5\psoc_datalogger_sms.cydsn/modem_v2.c ****                 }
 365:..\..\..\..\..\Documents\GitHub\m2m\hardware\psoc5\psoc_datalogger_sms.cydsn/modem_v2.c ****                 /* Write to SD Card debugger
 366:..\..\..\..\..\Documents\GitHub\m2m\hardware\psoc5\psoc_datalogger_sms.cydsn/modem_v2.c ****                 else {
 367:..\..\..\..\..\Documents\GitHub\m2m\hardware\psoc5\psoc_datalogger_sms.cydsn/modem_v2.c ****                     debug_write("(AT#SSEND=1) Could not send data through connected socket.");
ARM GAS  C:\Users\karunmj\AppData\Local\Temp\ccxxkT5V.s 			page 26


 368:..\..\..\..\..\Documents\GitHub\m2m\hardware\psoc5\psoc_datalogger_sms.cydsn/modem_v2.c ****                 }
 369:..\..\..\..\..\Documents\GitHub\m2m\hardware\psoc5\psoc_datalogger_sms.cydsn/modem_v2.c ****                 */
 370:..\..\..\..\..\Documents\GitHub\m2m\hardware\psoc5\psoc_datalogger_sms.cydsn/modem_v2.c ****             }
 371:..\..\..\..\..\Documents\GitHub\m2m\hardware\psoc5\psoc_datalogger_sms.cydsn/modem_v2.c ****             /* Write to SD Card debugger
 372:..\..\..\..\..\Documents\GitHub\m2m\hardware\psoc5\psoc_datalogger_sms.cydsn/modem_v2.c ****             else {
 373:..\..\..\..\..\Documents\GitHub\m2m\hardware\psoc5\psoc_datalogger_sms.cydsn/modem_v2.c ****                 debug_write("(AT#SD=1,0,8081,\"api.xively.com\",0,0,1\r) Could not connect to serve
 374:..\..\..\..\..\Documents\GitHub\m2m\hardware\psoc5\psoc_datalogger_sms.cydsn/modem_v2.c ****             }
 375:..\..\..\..\..\Documents\GitHub\m2m\hardware\psoc5\psoc_datalogger_sms.cydsn/modem_v2.c ****             */
 376:..\..\..\..\..\Documents\GitHub\m2m\hardware\psoc5\psoc_datalogger_sms.cydsn/modem_v2.c ****         }
 377:..\..\..\..\..\Documents\GitHub\m2m\hardware\psoc5\psoc_datalogger_sms.cydsn/modem_v2.c ****     
 378:..\..\..\..\..\Documents\GitHub\m2m\hardware\psoc5\psoc_datalogger_sms.cydsn/modem_v2.c ****         if (attempts < MAX_SEND_ATTEMPTS-1) { // Don't reset the modem on the last attempt since it
 1009              		.loc 1 378 0
 1010 00d0 97F85734 		ldrb	r3, [r7, #1111]	@ zero_extendqisi2
 1011 00d4 002B     		cmp	r3, #0
 1012 00d6 01D1     		bne	.L79
 379:..\..\..\..\..\Documents\GitHub\m2m\hardware\psoc5\psoc_datalogger_sms.cydsn/modem_v2.c ****             modem_reset();
 1013              		.loc 1 379 0
 1014 00d8 FFF7FEFF 		bl	modem_reset
 1015              	.L79:
 331:..\..\..\..\..\Documents\GitHub\m2m\hardware\psoc5\psoc_datalogger_sms.cydsn/modem_v2.c ****     for(attempts = 0; attempts < MAX_SEND_ATTEMPTS; attempts++) {
 1016              		.loc 1 331 0
 1017 00dc 97F85734 		ldrb	r3, [r7, #1111]	@ zero_extendqisi2
 1018 00e0 0133     		adds	r3, r3, #1
 1019 00e2 87F85734 		strb	r3, [r7, #1111]
 1020              	.L74:
 331:..\..\..\..\..\Documents\GitHub\m2m\hardware\psoc5\psoc_datalogger_sms.cydsn/modem_v2.c ****     for(attempts = 0; attempts < MAX_SEND_ATTEMPTS; attempts++) {
 1021              		.loc 1 331 0 is_stmt 0 discriminator 1
 1022 00e6 97F85734 		ldrb	r3, [r7, #1111]	@ zero_extendqisi2
 1023 00ea 012B     		cmp	r3, #1
 1024 00ec 95D9     		bls	.L80
 380:..\..\..\..\..\Documents\GitHub\m2m\hardware\psoc5\psoc_datalogger_sms.cydsn/modem_v2.c ****         }
 381:..\..\..\..\..\Documents\GitHub\m2m\hardware\psoc5\psoc_datalogger_sms.cydsn/modem_v2.c ****         
 382:..\..\..\..\..\Documents\GitHub\m2m\hardware\psoc5\psoc_datalogger_sms.cydsn/modem_v2.c ****     }    
 383:..\..\..\..\..\Documents\GitHub\m2m\hardware\psoc5\psoc_datalogger_sms.cydsn/modem_v2.c ****     
 384:..\..\..\..\..\Documents\GitHub\m2m\hardware\psoc5\psoc_datalogger_sms.cydsn/modem_v2.c ****     // cut power to rx and tx pins
 385:..\..\..\..\..\Documents\GitHub\m2m\hardware\psoc5\psoc_datalogger_sms.cydsn/modem_v2.c ****     //uart_rx_voltage_pin_Write(1u);
 386:..\..\..\..\..\Documents\GitHub\m2m\hardware\psoc5\psoc_datalogger_sms.cydsn/modem_v2.c ****     //uart_rx_voltage_pin_Write(1u);
 387:..\..\..\..\..\Documents\GitHub\m2m\hardware\psoc5\psoc_datalogger_sms.cydsn/modem_v2.c ****     
 388:..\..\..\..\..\Documents\GitHub\m2m\hardware\psoc5\psoc_datalogger_sms.cydsn/modem_v2.c ****     //debug_write("MAX_SEND_ATTEMPTS Exceeded.");
 389:..\..\..\..\..\Documents\GitHub\m2m\hardware\psoc5\psoc_datalogger_sms.cydsn/modem_v2.c ****     modem_disconnect();
 1025              		.loc 1 389 0 is_stmt 1
 1026 00ee FFF7FEFF 		bl	modem_disconnect
 390:..\..\..\..\..\Documents\GitHub\m2m\hardware\psoc5\psoc_datalogger_sms.cydsn/modem_v2.c ****     return 0u;   // return 0 if failure to send sms
 1027              		.loc 1 390 0
 1028 00f2 0023     		movs	r3, #0
 1029              	.L78:
 391:..\..\..\..\..\Documents\GitHub\m2m\hardware\psoc5\psoc_datalogger_sms.cydsn/modem_v2.c **** }
 1030              		.loc 1 391 0
 1031 00f4 1846     		mov	r0, r3
 1032 00f6 07F25C47 		addw	r7, r7, #1116
 1033 00fa BD46     		mov	sp, r7
 1034              		@ sp needed
 1035 00fc 90BD     		pop	{r4, r7, pc}
 1036              	.L82:
 1037 00fe 00BF     		.align	2
 1038              	.L81:
 1039 0100 00000000 		.word	modem_state
ARM GAS  C:\Users\karunmj\AppData\Local\Temp\ccxxkT5V.s 			page 27


 1040 0104 6C000000 		.word	.LC10
 1041 0108 8C000000 		.word	.LC11
 1042 010c 94000000 		.word	.LC12
 1043 0110 A0000000 		.word	.LC13
 1044 0114 00000000 		.word	feed_id
 1045 0118 A4000000 		.word	.LC14
 1046 011c 00000000 		.word	api_key
 1047 0120 C8000000 		.word	.LC15
 1048 0124 EC000000 		.word	.LC17
 1049 0128 04010000 		.word	.LC18
 1050 012c 18010000 		.word	.LC19
 1051 0130 20010000 		.word	.LC20
 1052 0134 D8000000 		.word	.LC16
 1053 0138 10000000 		.word	.LC1
 1054              		.cfi_endproc
 1055              	.LFE70:
 1056              		.size	modem_send_packet, .-modem_send_packet
 1057              		.section	.rodata
 1058 0123 00       		.align	2
 1059              	.LC21:
 1060 0124 41542353 		.ascii	"AT#SKTD=1,80,\"www.google.com\"\015\000"
 1060      4B54443D 
 1060      312C3830 
 1060      2C227777 
 1060      772E676F 
 1061 0143 00       		.align	2
 1062              	.LC22:
 1063 0144 47455420 		.ascii	"GET /\015\012\000"
 1063      2F0D0A00 
 1064              		.align	2
 1065              	.LC23:
 1066 014c 00       		.ascii	"\000"
 1067              		.section	.text.modem_get_google,"ax",%progbits
 1068              		.align	2
 1069              		.global	modem_get_google
 1070              		.thumb
 1071              		.thumb_func
 1072              		.type	modem_get_google, %function
 1073              	modem_get_google:
 1074              	.LFB71:
 392:..\..\..\..\..\Documents\GitHub\m2m\hardware\psoc5\psoc_datalogger_sms.cydsn/modem_v2.c **** 
 393:..\..\..\..\..\Documents\GitHub\m2m\hardware\psoc5\psoc_datalogger_sms.cydsn/modem_v2.c **** uint8 modem_get_google() {
 1075              		.loc 1 393 0
 1076              		.cfi_startproc
 1077              		@ args = 0, pretend = 0, frame = 1008
 1078              		@ frame_needed = 1, uses_anonymous_args = 0
 1079 0000 80B5     		push	{r7, lr}
 1080              		.cfi_def_cfa_offset 8
 1081              		.cfi_offset 7, -8
 1082              		.cfi_offset 14, -4
 1083 0002 ADF57C7D 		sub	sp, sp, #1008
 1084              		.cfi_def_cfa_offset 1016
 1085 0006 00AF     		add	r7, sp, #0
 1086              		.cfi_def_cfa_register 7
 394:..\..\..\..\..\Documents\GitHub\m2m\hardware\psoc5\psoc_datalogger_sms.cydsn/modem_v2.c ****     
 395:..\..\..\..\..\Documents\GitHub\m2m\hardware\psoc5\psoc_datalogger_sms.cydsn/modem_v2.c ****     uint8 attempts = 0;
 1087              		.loc 1 395 0
ARM GAS  C:\Users\karunmj\AppData\Local\Temp\ccxxkT5V.s 			page 28


 1088 0008 0023     		movs	r3, #0
 1089 000a 87F8EF33 		strb	r3, [r7, #1007]
 396:..\..\..\..\..\Documents\GitHub\m2m\hardware\psoc5\psoc_datalogger_sms.cydsn/modem_v2.c ****             
 397:..\..\..\..\..\Documents\GitHub\m2m\hardware\psoc5\psoc_datalogger_sms.cydsn/modem_v2.c ****     for(attempts = 0; attempts < MAX_GET_ATTEMPTS; attempts++) {
 1090              		.loc 1 397 0
 1091 000e 0023     		movs	r3, #0
 1092 0010 87F8EF33 		strb	r3, [r7, #1007]
 1093 0014 33E0     		b	.L84
 1094              	.L89:
 398:..\..\..\..\..\Documents\GitHub\m2m\hardware\psoc5\psoc_datalogger_sms.cydsn/modem_v2.c ****         
 399:..\..\..\..\..\Documents\GitHub\m2m\hardware\psoc5\psoc_datalogger_sms.cydsn/modem_v2.c ****         // Proceed if modem is already connected.  Otherwise, try to join the network and proceed
 400:..\..\..\..\..\Documents\GitHub\m2m\hardware\psoc5\psoc_datalogger_sms.cydsn/modem_v2.c ****         if( modem_state == MODEM_STATE_READY || modem_connect() != 0 ){ 
 1095              		.loc 1 400 0
 1096 0016 204B     		ldr	r3, .L90
 1097 0018 1B78     		ldrb	r3, [r3]	@ zero_extendqisi2
 1098 001a 032B     		cmp	r3, #3
 1099 001c 04D0     		beq	.L85
 1100              		.loc 1 400 0 is_stmt 0 discriminator 1
 1101 001e FFF7FEFF 		bl	modem_connect
 1102 0022 0346     		mov	r3, r0
 1103 0024 002B     		cmp	r3, #0
 1104 0026 1FD0     		beq	.L86
 1105              	.L85:
 401:..\..\..\..\..\Documents\GitHub\m2m\hardware\psoc5\psoc_datalogger_sms.cydsn/modem_v2.c ****             
 402:..\..\..\..\..\Documents\GitHub\m2m\hardware\psoc5\psoc_datalogger_sms.cydsn/modem_v2.c ****             if(at_write_command("AT#SKTD=1,80,\"www.google.com\"\r","CONNECT",10000u) != 0){
 1106              		.loc 1 402 0 is_stmt 1
 1107 0028 1C48     		ldr	r0, .L90+4
 1108 002a 1D49     		ldr	r1, .L90+8
 1109 002c 42F21072 		movw	r2, #10000
 1110 0030 FFF7FEFF 		bl	at_write_command
 1111 0034 0346     		mov	r3, r0
 1112 0036 002B     		cmp	r3, #0
 1113 0038 16D0     		beq	.L86
 1114              	.LBB4:
 403:..\..\..\..\..\Documents\GitHub\m2m\hardware\psoc5\psoc_datalogger_sms.cydsn/modem_v2.c ****                 char get_str[MAX_PACKET_LENGTH], key_str[100];
 404:..\..\..\..\..\Documents\GitHub\m2m\hardware\psoc5\psoc_datalogger_sms.cydsn/modem_v2.c ****                 /*
 405:..\..\..\..\..\Documents\GitHub\m2m\hardware\psoc5\psoc_datalogger_sms.cydsn/modem_v2.c ****                 sprintf(get_str,"GET / HTTP/1.1\r\n");
 406:..\..\..\..\..\Documents\GitHub\m2m\hardware\psoc5\psoc_datalogger_sms.cydsn/modem_v2.c ****                 sprintf(get_str,"%sHost: www.google.com\r\n",get_str);
 407:..\..\..\..\..\Documents\GitHub\m2m\hardware\psoc5\psoc_datalogger_sms.cydsn/modem_v2.c ****                 sprintf(get_str,"%sConnection: keep-alive\r\n",get_str);
 408:..\..\..\..\..\Documents\GitHub\m2m\hardware\psoc5\psoc_datalogger_sms.cydsn/modem_v2.c ****                 sprintf(get_str,"%s\r\n",get_str);
 409:..\..\..\..\..\Documents\GitHub\m2m\hardware\psoc5\psoc_datalogger_sms.cydsn/modem_v2.c ****                 */
 410:..\..\..\..\..\Documents\GitHub\m2m\hardware\psoc5\psoc_datalogger_sms.cydsn/modem_v2.c ****                 uart_string_reset();   
 1115              		.loc 1 410 0
 1116 003a FFF7FEFF 		bl	uart_string_reset
 411:..\..\..\..\..\Documents\GitHub\m2m\hardware\psoc5\psoc_datalogger_sms.cydsn/modem_v2.c ****                 
 412:..\..\..\..\..\Documents\GitHub\m2m\hardware\psoc5\psoc_datalogger_sms.cydsn/modem_v2.c ****                 at_write_command("GET /\r\n", "", 1000u);//at_write_command("GET / HTTP/1.1\r\n", "
 1117              		.loc 1 412 0
 1118 003e 1948     		ldr	r0, .L90+12
 1119 0040 1949     		ldr	r1, .L90+16
 1120 0042 4FF47A72 		mov	r2, #1000
 1121 0046 FFF7FEFF 		bl	at_write_command
 413:..\..\..\..\..\Documents\GitHub\m2m\hardware\psoc5\psoc_datalogger_sms.cydsn/modem_v2.c ****                 CyDelay(100u);
 1122              		.loc 1 413 0
 1123 004a 6420     		movs	r0, #100
 1124 004c FFF7FEFF 		bl	CyDelay
 414:..\..\..\..\..\Documents\GitHub\m2m\hardware\psoc5\psoc_datalogger_sms.cydsn/modem_v2.c ****                 //at_write_command("Host: www.google.com\r\n", "", 1000u);
 415:..\..\..\..\..\Documents\GitHub\m2m\hardware\psoc5\psoc_datalogger_sms.cydsn/modem_v2.c ****                 //CyDelay(100u);
ARM GAS  C:\Users\karunmj\AppData\Local\Temp\ccxxkT5V.s 			page 29


 416:..\..\..\..\..\Documents\GitHub\m2m\hardware\psoc5\psoc_datalogger_sms.cydsn/modem_v2.c ****                 //at_write_command("Connection: keep-alive\r\n", "", 1000u);
 417:..\..\..\..\..\Documents\GitHub\m2m\hardware\psoc5\psoc_datalogger_sms.cydsn/modem_v2.c ****                 //CyDelay(100u);
 418:..\..\..\..\..\Documents\GitHub\m2m\hardware\psoc5\psoc_datalogger_sms.cydsn/modem_v2.c ****                 at_write_command("\r\n\r\n", "", 1000u);
 1125              		.loc 1 418 0
 1126 0050 1648     		ldr	r0, .L90+20
 1127 0052 1549     		ldr	r1, .L90+16
 1128 0054 4FF47A72 		mov	r2, #1000
 1129 0058 FFF7FEFF 		bl	at_write_command
 419:..\..\..\..\..\Documents\GitHub\m2m\hardware\psoc5\psoc_datalogger_sms.cydsn/modem_v2.c ****                 CyDelay(15000u);
 1130              		.loc 1 419 0
 1131 005c 43F69820 		movw	r0, #15000
 1132 0060 FFF7FEFF 		bl	CyDelay
 420:..\..\..\..\..\Documents\GitHub\m2m\hardware\psoc5\psoc_datalogger_sms.cydsn/modem_v2.c ****                                     
 421:..\..\..\..\..\Documents\GitHub\m2m\hardware\psoc5\psoc_datalogger_sms.cydsn/modem_v2.c **** 
 422:..\..\..\..\..\Documents\GitHub\m2m\hardware\psoc5\psoc_datalogger_sms.cydsn/modem_v2.c ****                 
 423:..\..\..\..\..\Documents\GitHub\m2m\hardware\psoc5\psoc_datalogger_sms.cydsn/modem_v2.c ****                 //at_write_command(get_str,"",1000u); 
 424:..\..\..\..\..\Documents\GitHub\m2m\hardware\psoc5\psoc_datalogger_sms.cydsn/modem_v2.c ****                                     
 425:..\..\..\..\..\Documents\GitHub\m2m\hardware\psoc5\psoc_datalogger_sms.cydsn/modem_v2.c ****                 return 1u;
 1133              		.loc 1 425 0
 1134 0064 0123     		movs	r3, #1
 1135 0066 11E0     		b	.L87
 1136              	.L86:
 1137              	.LBE4:
 426:..\..\..\..\..\Documents\GitHub\m2m\hardware\psoc5\psoc_datalogger_sms.cydsn/modem_v2.c ****                          
 427:..\..\..\..\..\Documents\GitHub\m2m\hardware\psoc5\psoc_datalogger_sms.cydsn/modem_v2.c ****             }
 428:..\..\..\..\..\Documents\GitHub\m2m\hardware\psoc5\psoc_datalogger_sms.cydsn/modem_v2.c ****         }
 429:..\..\..\..\..\Documents\GitHub\m2m\hardware\psoc5\psoc_datalogger_sms.cydsn/modem_v2.c ****         
 430:..\..\..\..\..\Documents\GitHub\m2m\hardware\psoc5\psoc_datalogger_sms.cydsn/modem_v2.c ****         if (attempts < MAX_GET_ATTEMPTS-1) { // Don't reset the modem on the last attempt since it 
 1138              		.loc 1 430 0
 1139 0068 97F8EF33 		ldrb	r3, [r7, #1007]	@ zero_extendqisi2
 1140 006c 002B     		cmp	r3, #0
 1141 006e 01D1     		bne	.L88
 431:..\..\..\..\..\Documents\GitHub\m2m\hardware\psoc5\psoc_datalogger_sms.cydsn/modem_v2.c ****             modem_reset();
 1142              		.loc 1 431 0
 1143 0070 FFF7FEFF 		bl	modem_reset
 1144              	.L88:
 397:..\..\..\..\..\Documents\GitHub\m2m\hardware\psoc5\psoc_datalogger_sms.cydsn/modem_v2.c ****     for(attempts = 0; attempts < MAX_GET_ATTEMPTS; attempts++) {
 1145              		.loc 1 397 0
 1146 0074 97F8EF33 		ldrb	r3, [r7, #1007]	@ zero_extendqisi2
 1147 0078 0133     		adds	r3, r3, #1
 1148 007a 87F8EF33 		strb	r3, [r7, #1007]
 1149              	.L84:
 397:..\..\..\..\..\Documents\GitHub\m2m\hardware\psoc5\psoc_datalogger_sms.cydsn/modem_v2.c ****     for(attempts = 0; attempts < MAX_GET_ATTEMPTS; attempts++) {
 1150              		.loc 1 397 0 is_stmt 0 discriminator 1
 1151 007e 97F8EF33 		ldrb	r3, [r7, #1007]	@ zero_extendqisi2
 1152 0082 012B     		cmp	r3, #1
 1153 0084 C7D9     		bls	.L89
 432:..\..\..\..\..\Documents\GitHub\m2m\hardware\psoc5\psoc_datalogger_sms.cydsn/modem_v2.c ****         }
 433:..\..\..\..\..\Documents\GitHub\m2m\hardware\psoc5\psoc_datalogger_sms.cydsn/modem_v2.c ****     }
 434:..\..\..\..\..\Documents\GitHub\m2m\hardware\psoc5\psoc_datalogger_sms.cydsn/modem_v2.c ****     
 435:..\..\..\..\..\Documents\GitHub\m2m\hardware\psoc5\psoc_datalogger_sms.cydsn/modem_v2.c ****     modem_disconnect();
 1154              		.loc 1 435 0 is_stmt 1
 1155 0086 FFF7FEFF 		bl	modem_disconnect
 436:..\..\..\..\..\Documents\GitHub\m2m\hardware\psoc5\psoc_datalogger_sms.cydsn/modem_v2.c ****     return 0u;   // return 0 if failure to send sms      
 1156              		.loc 1 436 0
 1157 008a 0023     		movs	r3, #0
 1158              	.L87:
ARM GAS  C:\Users\karunmj\AppData\Local\Temp\ccxxkT5V.s 			page 30


 437:..\..\..\..\..\Documents\GitHub\m2m\hardware\psoc5\psoc_datalogger_sms.cydsn/modem_v2.c **** }
 1159              		.loc 1 437 0
 1160 008c 1846     		mov	r0, r3
 1161 008e 07F57C77 		add	r7, r7, #1008
 1162 0092 BD46     		mov	sp, r7
 1163              		@ sp needed
 1164 0094 80BD     		pop	{r7, pc}
 1165              	.L91:
 1166 0096 00BF     		.align	2
 1167              	.L90:
 1168 0098 00000000 		.word	modem_state
 1169 009c 24010000 		.word	.LC21
 1170 00a0 8C000000 		.word	.LC11
 1171 00a4 44010000 		.word	.LC22
 1172 00a8 4C010000 		.word	.LC23
 1173 00ac 18010000 		.word	.LC19
 1174              		.cfi_endproc
 1175              	.LFE71:
 1176              		.size	modem_get_google, .-modem_get_google
 1177              		.section	.rodata
 1178 014d 000000   		.align	2
 1179              	.LC24:
 1180 0150 41542353 		.ascii	"AT#SD=1,0,80,\"api.xively.com\",0,0,1\015\000"
 1180      443D312C 
 1180      302C3830 
 1180      2C226170 
 1180      692E7869 
 1181 0175 000000   		.align	2
 1182              	.LC25:
 1183 0178 47455420 		.ascii	"GET /v2/feeds/%lu.csv?datastreams=%s HTTP/1.0\015\012"
 1183      2F76322F 
 1183      66656564 
 1183      732F256C 
 1183      752E6373 
 1184 01a7 00       		.ascii	"\000"
 1185              		.align	2
 1186              	.LC26:
 1187 01a8 25732573 		.ascii	"%s%s%s%s%s\000"
 1187      25732573 
 1187      257300
 1188 01b3 00       		.align	2
 1189              	.LC27:
 1190 01b4 41636365 		.ascii	"Accept: text/csv\015\012\000"
 1190      70743A20 
 1190      74657874 
 1190      2F637376 
 1190      0D0A00
 1191 01c7 00       		.align	2
 1192              	.LC28:
 1193 01c8 0D0A1A0D 		.ascii	"\015\012\032\015\000"
 1193      00
 1194 01cd 000000   		.align	2
 1195              	.LC29:
 1196 01d0 5352494E 		.ascii	"SRING: 1\000"
 1196      473A2031 
 1196      00
 1197 01d9 000000   		.align	2
ARM GAS  C:\Users\karunmj\AppData\Local\Temp\ccxxkT5V.s 			page 31


 1198              	.LC30:
 1199 01dc 41542353 		.ascii	"AT#SRECV=1,700\015\000"
 1199      52454356 
 1199      3D312C37 
 1199      30300D00 
 1200              		.section	.text.modem_get_packet,"ax",%progbits
 1201              		.align	2
 1202              		.global	modem_get_packet
 1203              		.thumb
 1204              		.thumb_func
 1205              		.type	modem_get_packet, %function
 1206              	modem_get_packet:
 1207              	.LFB72:
 438:..\..\..\..\..\Documents\GitHub\m2m\hardware\psoc5\psoc_datalogger_sms.cydsn/modem_v2.c **** 
 439:..\..\..\..\..\Documents\GitHub\m2m\hardware\psoc5\psoc_datalogger_sms.cydsn/modem_v2.c **** 
 440:..\..\..\..\..\Documents\GitHub\m2m\hardware\psoc5\psoc_datalogger_sms.cydsn/modem_v2.c **** // read packet from Xively server
 441:..\..\..\..\..\Documents\GitHub\m2m\hardware\psoc5\psoc_datalogger_sms.cydsn/modem_v2.c **** uint8 modem_get_packet(char* packet, char* csv){
 1208              		.loc 1 441 0
 1209              		.cfi_startproc
 1210              		@ args = 0, pretend = 0, frame = 1112
 1211              		@ frame_needed = 1, uses_anonymous_args = 0
 1212 0000 80B5     		push	{r7, lr}
 1213              		.cfi_def_cfa_offset 8
 1214              		.cfi_offset 7, -8
 1215              		.cfi_offset 14, -4
 1216 0002 ADF58D6D 		sub	sp, sp, #1128
 1217              		.cfi_def_cfa_offset 1136
 1218 0006 04AF     		add	r7, sp, #16
 1219              		.cfi_def_cfa 7, 1120
 1220 0008 3B1D     		adds	r3, r7, #4
 1221 000a 1860     		str	r0, [r3]
 1222 000c 3B46     		mov	r3, r7
 1223 000e 1960     		str	r1, [r3]
 442:..\..\..\..\..\Documents\GitHub\m2m\hardware\psoc5\psoc_datalogger_sms.cydsn/modem_v2.c ****     
 443:..\..\..\..\..\Documents\GitHub\m2m\hardware\psoc5\psoc_datalogger_sms.cydsn/modem_v2.c ****     /*
 444:..\..\..\..\..\Documents\GitHub\m2m\hardware\psoc5\psoc_datalogger_sms.cydsn/modem_v2.c ****     // provide power to rx and tx pins
 445:..\..\..\..\..\Documents\GitHub\m2m\hardware\psoc5\psoc_datalogger_sms.cydsn/modem_v2.c ****     //uart_rx_voltage_pin_Write(0u);
 446:..\..\..\..\..\Documents\GitHub\m2m\hardware\psoc5\psoc_datalogger_sms.cydsn/modem_v2.c ****     //uart_tx_voltage_pin_Write(0u);    
 447:..\..\..\..\..\Documents\GitHub\m2m\hardware\psoc5\psoc_datalogger_sms.cydsn/modem_v2.c ****     
 448:..\..\..\..\..\Documents\GitHub\m2m\hardware\psoc5\psoc_datalogger_sms.cydsn/modem_v2.c ****     // join network
 449:..\..\..\..\..\Documents\GitHub\m2m\hardware\psoc5\psoc_datalogger_sms.cydsn/modem_v2.c ****     uint8 connected = modem_connect();
 450:..\..\..\..\..\Documents\GitHub\m2m\hardware\psoc5\psoc_datalogger_sms.cydsn/modem_v2.c ****     */
 451:..\..\..\..\..\Documents\GitHub\m2m\hardware\psoc5\psoc_datalogger_sms.cydsn/modem_v2.c ****     //char get_str[MAX_PACKET_LENGTH]={0}, key_str[100]={0};
 452:..\..\..\..\..\Documents\GitHub\m2m\hardware\psoc5\psoc_datalogger_sms.cydsn/modem_v2.c ****     uint8 attempts = 0;
 1224              		.loc 1 452 0
 1225 0010 0023     		movs	r3, #0
 1226 0012 87F85734 		strb	r3, [r7, #1111]
 453:..\..\..\..\..\Documents\GitHub\m2m\hardware\psoc5\psoc_datalogger_sms.cydsn/modem_v2.c ****     
 454:..\..\..\..\..\Documents\GitHub\m2m\hardware\psoc5\psoc_datalogger_sms.cydsn/modem_v2.c ****     if (strlen(csv) > 125) {
 1227              		.loc 1 454 0
 1228 0016 3B46     		mov	r3, r7
 1229 0018 1868     		ldr	r0, [r3]
 1230 001a FFF7FEFF 		bl	strlen
 1231 001e 0346     		mov	r3, r0
 1232 0020 7D2B     		cmp	r3, #125
 1233 0022 01D9     		bls	.L93
 455:..\..\..\..\..\Documents\GitHub\m2m\hardware\psoc5\psoc_datalogger_sms.cydsn/modem_v2.c ****         /* Write to SD Card debugger
ARM GAS  C:\Users\karunmj\AppData\Local\Temp\ccxxkT5V.s 			page 32


 456:..\..\..\..\..\Documents\GitHub\m2m\hardware\psoc5\psoc_datalogger_sms.cydsn/modem_v2.c ****         debug_write("modem_get_packet(): csv length > 100");
 457:..\..\..\..\..\Documents\GitHub\m2m\hardware\psoc5\psoc_datalogger_sms.cydsn/modem_v2.c ****         */
 458:..\..\..\..\..\Documents\GitHub\m2m\hardware\psoc5\psoc_datalogger_sms.cydsn/modem_v2.c ****         return 0u;
 1234              		.loc 1 458 0
 1235 0024 0023     		movs	r3, #0
 1236 0026 79E0     		b	.L94
 1237              	.L93:
 459:..\..\..\..\..\Documents\GitHub\m2m\hardware\psoc5\psoc_datalogger_sms.cydsn/modem_v2.c ****     }
 460:..\..\..\..\..\Documents\GitHub\m2m\hardware\psoc5\psoc_datalogger_sms.cydsn/modem_v2.c ****             
 461:..\..\..\..\..\Documents\GitHub\m2m\hardware\psoc5\psoc_datalogger_sms.cydsn/modem_v2.c ****     for(attempts = 0; attempts < MAX_GET_ATTEMPTS; attempts++) {
 1238              		.loc 1 461 0
 1239 0028 0023     		movs	r3, #0
 1240 002a 87F85734 		strb	r3, [r7, #1111]
 1241 002e 6EE0     		b	.L95
 1242              	.L100:
 462:..\..\..\..\..\Documents\GitHub\m2m\hardware\psoc5\psoc_datalogger_sms.cydsn/modem_v2.c ****         // Proceed if modem is already connected.  Otherwise, try to join the network and proceed
 463:..\..\..\..\..\Documents\GitHub\m2m\hardware\psoc5\psoc_datalogger_sms.cydsn/modem_v2.c ****         if( modem_state == MODEM_STATE_READY || modem_connect() != 0 ){ 
 1243              		.loc 1 463 0
 1244 0030 3D4B     		ldr	r3, .L101
 1245 0032 1B78     		ldrb	r3, [r3]	@ zero_extendqisi2
 1246 0034 032B     		cmp	r3, #3
 1247 0036 04D0     		beq	.L96
 1248              		.loc 1 463 0 is_stmt 0 discriminator 1
 1249 0038 FFF7FEFF 		bl	modem_connect
 1250 003c 0346     		mov	r3, r0
 1251 003e 002B     		cmp	r3, #0
 1252 0040 5AD0     		beq	.L97
 1253              	.L96:
 464:..\..\..\..\..\Documents\GitHub\m2m\hardware\psoc5\psoc_datalogger_sms.cydsn/modem_v2.c ****             // write to AWS server  - 184.72.228.61\",0,0,1
 465:..\..\..\..\..\Documents\GitHub\m2m\hardware\psoc5\psoc_datalogger_sms.cydsn/modem_v2.c ****             //if(at_write_command("AT#SD=1,0,50030,\"184.72.228.61\",0,0,1\r","OK",5000u) != 0){
 466:..\..\..\..\..\Documents\GitHub\m2m\hardware\psoc5\psoc_datalogger_sms.cydsn/modem_v2.c ****             if(at_write_command("AT#SD=1,0,80,\"api.xively.com\",0,0,1\r","OK",10000u) != 0){
 1254              		.loc 1 466 0 is_stmt 1
 1255 0042 3A48     		ldr	r0, .L101+4
 1256 0044 3A49     		ldr	r1, .L101+8
 1257 0046 42F21072 		movw	r2, #10000
 1258 004a FFF7FEFF 		bl	at_write_command
 1259 004e 0346     		mov	r3, r0
 1260 0050 002B     		cmp	r3, #0
 1261 0052 51D0     		beq	.L97
 467:..\..\..\..\..\Documents\GitHub\m2m\hardware\psoc5\psoc_datalogger_sms.cydsn/modem_v2.c ****                 if(at_write_command("AT#SSEND=1\r",">",10000u) != 0){
 1262              		.loc 1 467 0
 1263 0054 3748     		ldr	r0, .L101+12
 1264 0056 3849     		ldr	r1, .L101+16
 1265 0058 42F21072 		movw	r2, #10000
 1266 005c FFF7FEFF 		bl	at_write_command
 1267 0060 0346     		mov	r3, r0
 1268 0062 002B     		cmp	r3, #0
 1269 0064 48D0     		beq	.L97
 1270              	.LBB5:
 468:..\..\..\..\..\Documents\GitHub\m2m\hardware\psoc5\psoc_datalogger_sms.cydsn/modem_v2.c ****                     char get_str[MAX_PACKET_LENGTH], key_str[100];
 469:..\..\..\..\..\Documents\GitHub\m2m\hardware\psoc5\psoc_datalogger_sms.cydsn/modem_v2.c ****                     sprintf(get_str,"GET /v2/feeds/%lu.csv?datastreams=%s HTTP/1.0\r\n", feed_id, c
 1271              		.loc 1 469 0
 1272 0066 354B     		ldr	r3, .L101+20
 1273 0068 1A68     		ldr	r2, [r3]
 1274 006a 07F16C01 		add	r1, r7, #108
 1275 006e 3B46     		mov	r3, r7
 1276 0070 0846     		mov	r0, r1
ARM GAS  C:\Users\karunmj\AppData\Local\Temp\ccxxkT5V.s 			page 33


 1277 0072 3349     		ldr	r1, .L101+24
 1278 0074 1B68     		ldr	r3, [r3]
 1279 0076 FFF7FEFF 		bl	sprintf
 470:..\..\..\..\..\Documents\GitHub\m2m\hardware\psoc5\psoc_datalogger_sms.cydsn/modem_v2.c ****                     sprintf(key_str,"X-ApiKey: %s\r\n", api_key);
 1280              		.loc 1 470 0
 1281 007a 324B     		ldr	r3, .L101+28
 1282 007c 1B68     		ldr	r3, [r3]
 1283 007e 07F10802 		add	r2, r7, #8
 1284 0082 1046     		mov	r0, r2
 1285 0084 3049     		ldr	r1, .L101+32
 1286 0086 1A46     		mov	r2, r3
 1287 0088 FFF7FEFF 		bl	sprintf
 471:..\..\..\..\..\Documents\GitHub\m2m\hardware\psoc5\psoc_datalogger_sms.cydsn/modem_v2.c ****                     sprintf(get_str,"%s%s%s%s%s",
 1288              		.loc 1 471 0
 1289 008c 07F16C01 		add	r1, r7, #108
 1290 0090 07F16C02 		add	r2, r7, #108
 1291 0094 07F10803 		add	r3, r7, #8
 1292 0098 2C48     		ldr	r0, .L101+36
 1293 009a 0090     		str	r0, [sp]
 1294 009c 2C48     		ldr	r0, .L101+40
 1295 009e 0190     		str	r0, [sp, #4]
 1296 00a0 2C48     		ldr	r0, .L101+44
 1297 00a2 0290     		str	r0, [sp, #8]
 1298 00a4 0846     		mov	r0, r1
 1299 00a6 2C49     		ldr	r1, .L101+48
 1300 00a8 FFF7FEFF 		bl	sprintf
 472:..\..\..\..\..\Documents\GitHub\m2m\hardware\psoc5\psoc_datalogger_sms.cydsn/modem_v2.c ****                         get_str,
 473:..\..\..\..\..\Documents\GitHub\m2m\hardware\psoc5\psoc_datalogger_sms.cydsn/modem_v2.c ****                         key_str,
 474:..\..\..\..\..\Documents\GitHub\m2m\hardware\psoc5\psoc_datalogger_sms.cydsn/modem_v2.c ****                         "Host: api.xively.com\r\n",
 475:..\..\..\..\..\Documents\GitHub\m2m\hardware\psoc5\psoc_datalogger_sms.cydsn/modem_v2.c ****                         "Accept: text/csv\r\n",
 476:..\..\..\..\..\Documents\GitHub\m2m\hardware\psoc5\psoc_datalogger_sms.cydsn/modem_v2.c ****                         "\r\n\032\r");
 477:..\..\..\..\..\Documents\GitHub\m2m\hardware\psoc5\psoc_datalogger_sms.cydsn/modem_v2.c ****                     //at_write_command(get_str,">",10000u);// CyDelay(500u);
 478:..\..\..\..\..\Documents\GitHub\m2m\hardware\psoc5\psoc_datalogger_sms.cydsn/modem_v2.c ****                     
 479:..\..\..\..\..\Documents\GitHub\m2m\hardware\psoc5\psoc_datalogger_sms.cydsn/modem_v2.c ****                     uart_string_reset();
 1301              		.loc 1 479 0
 1302 00ac FFF7FEFF 		bl	uart_string_reset
 480:..\..\..\..\..\Documents\GitHub\m2m\hardware\psoc5\psoc_datalogger_sms.cydsn/modem_v2.c ****                     
 481:..\..\..\..\..\Documents\GitHub\m2m\hardware\psoc5\psoc_datalogger_sms.cydsn/modem_v2.c ****                     /*
 482:..\..\..\..\..\Documents\GitHub\m2m\hardware\psoc5\psoc_datalogger_sms.cydsn/modem_v2.c ****                     at_write_command(get_str,">",10000u);// CyDelay(500u);
 483:..\..\..\..\..\Documents\GitHub\m2m\hardware\psoc5\psoc_datalogger_sms.cydsn/modem_v2.c ****                     at_write_command("Host: api.xively.com\r\n",">",10000u);// CyDelay(500u);
 484:..\..\..\..\..\Documents\GitHub\m2m\hardware\psoc5\psoc_datalogger_sms.cydsn/modem_v2.c ****                     at_write_command("Accept: text/csv\r\n",">",10000u);// CyDelay(500u);
 485:..\..\..\..\..\Documents\GitHub\m2m\hardware\psoc5\psoc_datalogger_sms.cydsn/modem_v2.c ****                     at_write_command(key_str,">",10000u);// CyDelay(500u);
 486:..\..\..\..\..\Documents\GitHub\m2m\hardware\psoc5\psoc_datalogger_sms.cydsn/modem_v2.c ****                     */
 487:..\..\..\..\..\Documents\GitHub\m2m\hardware\psoc5\psoc_datalogger_sms.cydsn/modem_v2.c ****                     // Successfully Sent AT-Commands for GET Request
 488:..\..\..\..\..\Documents\GitHub\m2m\hardware\psoc5\psoc_datalogger_sms.cydsn/modem_v2.c ****                     //if(at_write_command("\032\r","OK",15000u) != 0){
 489:..\..\..\..\..\Documents\GitHub\m2m\hardware\psoc5\psoc_datalogger_sms.cydsn/modem_v2.c ****                     
 490:..\..\..\..\..\Documents\GitHub\m2m\hardware\psoc5\psoc_datalogger_sms.cydsn/modem_v2.c ****                     if(at_write_command(get_str,"SRING: 1",15000u) != 0){
 1303              		.loc 1 490 0
 1304 00b0 07F16C03 		add	r3, r7, #108
 1305 00b4 1846     		mov	r0, r3
 1306 00b6 2949     		ldr	r1, .L101+52
 1307 00b8 43F69822 		movw	r2, #15000
 1308 00bc FFF7FEFF 		bl	at_write_command
 1309 00c0 0346     		mov	r3, r0
 1310 00c2 002B     		cmp	r3, #0
 1311 00c4 18D0     		beq	.L97
 491:..\..\..\..\..\Documents\GitHub\m2m\hardware\psoc5\psoc_datalogger_sms.cydsn/modem_v2.c ****                         // Read GET response from the buffer
ARM GAS  C:\Users\karunmj\AppData\Local\Temp\ccxxkT5V.s 			page 34


 492:..\..\..\..\..\Documents\GitHub\m2m\hardware\psoc5\psoc_datalogger_sms.cydsn/modem_v2.c ****                         uart_string_reset();
 1312              		.loc 1 492 0
 1313 00c6 FFF7FEFF 		bl	uart_string_reset
 493:..\..\..\..\..\Documents\GitHub\m2m\hardware\psoc5\psoc_datalogger_sms.cydsn/modem_v2.c ****                         //CyDelay(5000u);
 494:..\..\..\..\..\Documents\GitHub\m2m\hardware\psoc5\psoc_datalogger_sms.cydsn/modem_v2.c ****                         at_write_command("AT#SRECV=1,700\r","OK",15000u);
 1314              		.loc 1 494 0
 1315 00ca 2548     		ldr	r0, .L101+56
 1316 00cc 1849     		ldr	r1, .L101+8
 1317 00ce 43F69822 		movw	r2, #15000
 1318 00d2 FFF7FEFF 		bl	at_write_command
 495:..\..\..\..\..\Documents\GitHub\m2m\hardware\psoc5\psoc_datalogger_sms.cydsn/modem_v2.c ****                         //strcpy(packet, uart_received_string);
 496:..\..\..\..\..\Documents\GitHub\m2m\hardware\psoc5\psoc_datalogger_sms.cydsn/modem_v2.c ****                         strcpy(packet, strstr(uart_received_string, "\r\n\r\n")+strlen("\r\n\r\n"))
 1319              		.loc 1 496 0
 1320 00d6 2348     		ldr	r0, .L101+60
 1321 00d8 2349     		ldr	r1, .L101+64
 1322 00da FFF7FEFF 		bl	strstr
 1323 00de 0346     		mov	r3, r0
 1324 00e0 0433     		adds	r3, r3, #4
 1325 00e2 3A1D     		adds	r2, r7, #4
 1326 00e4 1068     		ldr	r0, [r2]
 1327 00e6 1946     		mov	r1, r3
 1328 00e8 FFF7FEFF 		bl	strcpy
 497:..\..\..\..\..\Documents\GitHub\m2m\hardware\psoc5\psoc_datalogger_sms.cydsn/modem_v2.c ****                         
 498:..\..\..\..\..\Documents\GitHub\m2m\hardware\psoc5\psoc_datalogger_sms.cydsn/modem_v2.c ****                         CyDelay(1000u); //debug_write("Packet received successfully.");
 1329              		.loc 1 498 0
 1330 00ec 4FF47A70 		mov	r0, #1000
 1331 00f0 FFF7FEFF 		bl	CyDelay
 499:..\..\..\..\..\Documents\GitHub\m2m\hardware\psoc5\psoc_datalogger_sms.cydsn/modem_v2.c ****                         return 1u;   // return 1 if succesfully sent sms
 1332              		.loc 1 499 0
 1333 00f4 0123     		movs	r3, #1
 1334 00f6 11E0     		b	.L94
 1335              	.L97:
 1336              	.LBE5:
 500:..\..\..\..\..\Documents\GitHub\m2m\hardware\psoc5\psoc_datalogger_sms.cydsn/modem_v2.c **** 
 501:..\..\..\..\..\Documents\GitHub\m2m\hardware\psoc5\psoc_datalogger_sms.cydsn/modem_v2.c ****                     }
 502:..\..\..\..\..\Documents\GitHub\m2m\hardware\psoc5\psoc_datalogger_sms.cydsn/modem_v2.c ****                     /* Write to SD Card debugger
 503:..\..\..\..\..\Documents\GitHub\m2m\hardware\psoc5\psoc_datalogger_sms.cydsn/modem_v2.c ****                     else {
 504:..\..\..\..\..\Documents\GitHub\m2m\hardware\psoc5\psoc_datalogger_sms.cydsn/modem_v2.c ****                         debug_write("(at_write_command(sendBuffer,\"OK\"...) Data sent unsuccessful
 505:..\..\..\..\..\Documents\GitHub\m2m\hardware\psoc5\psoc_datalogger_sms.cydsn/modem_v2.c ****                     }
 506:..\..\..\..\..\Documents\GitHub\m2m\hardware\psoc5\psoc_datalogger_sms.cydsn/modem_v2.c ****                     */
 507:..\..\..\..\..\Documents\GitHub\m2m\hardware\psoc5\psoc_datalogger_sms.cydsn/modem_v2.c ****                 }
 508:..\..\..\..\..\Documents\GitHub\m2m\hardware\psoc5\psoc_datalogger_sms.cydsn/modem_v2.c ****                 /* Write to SD Card debugger
 509:..\..\..\..\..\Documents\GitHub\m2m\hardware\psoc5\psoc_datalogger_sms.cydsn/modem_v2.c ****                 else {
 510:..\..\..\..\..\Documents\GitHub\m2m\hardware\psoc5\psoc_datalogger_sms.cydsn/modem_v2.c ****                     debug_write("(AT#SSEND=1) Could not send data through connected socket.");
 511:..\..\..\..\..\Documents\GitHub\m2m\hardware\psoc5\psoc_datalogger_sms.cydsn/modem_v2.c ****                 }
 512:..\..\..\..\..\Documents\GitHub\m2m\hardware\psoc5\psoc_datalogger_sms.cydsn/modem_v2.c ****                 */
 513:..\..\..\..\..\Documents\GitHub\m2m\hardware\psoc5\psoc_datalogger_sms.cydsn/modem_v2.c ****                 //uint8 disconnected = modem_disconnect();
 514:..\..\..\..\..\Documents\GitHub\m2m\hardware\psoc5\psoc_datalogger_sms.cydsn/modem_v2.c ****             }
 515:..\..\..\..\..\Documents\GitHub\m2m\hardware\psoc5\psoc_datalogger_sms.cydsn/modem_v2.c ****             /* Write to SD Card debugger
 516:..\..\..\..\..\Documents\GitHub\m2m\hardware\psoc5\psoc_datalogger_sms.cydsn/modem_v2.c ****             else {
 517:..\..\..\..\..\Documents\GitHub\m2m\hardware\psoc5\psoc_datalogger_sms.cydsn/modem_v2.c ****                 debug_write("(AT#SD=1,0,80,\"api.xively.com\",0,0,1) Could not connect to server.")
 518:..\..\..\..\..\Documents\GitHub\m2m\hardware\psoc5\psoc_datalogger_sms.cydsn/modem_v2.c ****             }
 519:..\..\..\..\..\Documents\GitHub\m2m\hardware\psoc5\psoc_datalogger_sms.cydsn/modem_v2.c ****             */
 520:..\..\..\..\..\Documents\GitHub\m2m\hardware\psoc5\psoc_datalogger_sms.cydsn/modem_v2.c ****         }
 521:..\..\..\..\..\Documents\GitHub\m2m\hardware\psoc5\psoc_datalogger_sms.cydsn/modem_v2.c ****         
 522:..\..\..\..\..\Documents\GitHub\m2m\hardware\psoc5\psoc_datalogger_sms.cydsn/modem_v2.c ****         if (attempts < MAX_GET_ATTEMPTS-1) { // Don't reset the modem on the last attempt since it 
 1337              		.loc 1 522 0
ARM GAS  C:\Users\karunmj\AppData\Local\Temp\ccxxkT5V.s 			page 35


 1338 00f8 97F85734 		ldrb	r3, [r7, #1111]	@ zero_extendqisi2
 1339 00fc 002B     		cmp	r3, #0
 1340 00fe 01D1     		bne	.L99
 523:..\..\..\..\..\Documents\GitHub\m2m\hardware\psoc5\psoc_datalogger_sms.cydsn/modem_v2.c ****             modem_reset();
 1341              		.loc 1 523 0
 1342 0100 FFF7FEFF 		bl	modem_reset
 1343              	.L99:
 461:..\..\..\..\..\Documents\GitHub\m2m\hardware\psoc5\psoc_datalogger_sms.cydsn/modem_v2.c ****     for(attempts = 0; attempts < MAX_GET_ATTEMPTS; attempts++) {
 1344              		.loc 1 461 0
 1345 0104 97F85734 		ldrb	r3, [r7, #1111]	@ zero_extendqisi2
 1346 0108 0133     		adds	r3, r3, #1
 1347 010a 87F85734 		strb	r3, [r7, #1111]
 1348              	.L95:
 461:..\..\..\..\..\Documents\GitHub\m2m\hardware\psoc5\psoc_datalogger_sms.cydsn/modem_v2.c ****     for(attempts = 0; attempts < MAX_GET_ATTEMPTS; attempts++) {
 1349              		.loc 1 461 0 is_stmt 0 discriminator 1
 1350 010e 97F85734 		ldrb	r3, [r7, #1111]	@ zero_extendqisi2
 1351 0112 012B     		cmp	r3, #1
 1352 0114 8CD9     		bls	.L100
 524:..\..\..\..\..\Documents\GitHub\m2m\hardware\psoc5\psoc_datalogger_sms.cydsn/modem_v2.c ****         }
 525:..\..\..\..\..\Documents\GitHub\m2m\hardware\psoc5\psoc_datalogger_sms.cydsn/modem_v2.c ****         
 526:..\..\..\..\..\Documents\GitHub\m2m\hardware\psoc5\psoc_datalogger_sms.cydsn/modem_v2.c ****     }
 527:..\..\..\..\..\Documents\GitHub\m2m\hardware\psoc5\psoc_datalogger_sms.cydsn/modem_v2.c ****     // cut power to rx and tx pins
 528:..\..\..\..\..\Documents\GitHub\m2m\hardware\psoc5\psoc_datalogger_sms.cydsn/modem_v2.c ****     //uart_rx_voltage_pin_Write(1u);
 529:..\..\..\..\..\Documents\GitHub\m2m\hardware\psoc5\psoc_datalogger_sms.cydsn/modem_v2.c ****     //uart_rx_voltage_pin_Write(1u);
 530:..\..\..\..\..\Documents\GitHub\m2m\hardware\psoc5\psoc_datalogger_sms.cydsn/modem_v2.c ****     
 531:..\..\..\..\..\Documents\GitHub\m2m\hardware\psoc5\psoc_datalogger_sms.cydsn/modem_v2.c ****     //debug_write("MAX_GET_ATTEMPTS Exceeded.");
 532:..\..\..\..\..\Documents\GitHub\m2m\hardware\psoc5\psoc_datalogger_sms.cydsn/modem_v2.c ****     modem_disconnect();
 1353              		.loc 1 532 0 is_stmt 1
 1354 0116 FFF7FEFF 		bl	modem_disconnect
 533:..\..\..\..\..\Documents\GitHub\m2m\hardware\psoc5\psoc_datalogger_sms.cydsn/modem_v2.c ****     return 0u;   // return 0 if failure to send sms
 1355              		.loc 1 533 0
 1356 011a 0023     		movs	r3, #0
 1357              	.L94:
 534:..\..\..\..\..\Documents\GitHub\m2m\hardware\psoc5\psoc_datalogger_sms.cydsn/modem_v2.c **** }
 1358              		.loc 1 534 0
 1359 011c 1846     		mov	r0, r3
 1360 011e 07F58B67 		add	r7, r7, #1112
 1361 0122 BD46     		mov	sp, r7
 1362              		@ sp needed
 1363 0124 80BD     		pop	{r7, pc}
 1364              	.L102:
 1365 0126 00BF     		.align	2
 1366              	.L101:
 1367 0128 00000000 		.word	modem_state
 1368 012c 50010000 		.word	.LC24
 1369 0130 10000000 		.word	.LC1
 1370 0134 94000000 		.word	.LC12
 1371 0138 A0000000 		.word	.LC13
 1372 013c 00000000 		.word	feed_id
 1373 0140 78010000 		.word	.LC25
 1374 0144 00000000 		.word	api_key
 1375 0148 C8000000 		.word	.LC15
 1376 014c EC000000 		.word	.LC17
 1377 0150 B4010000 		.word	.LC27
 1378 0154 C8010000 		.word	.LC28
 1379 0158 A8010000 		.word	.LC26
 1380 015c D0010000 		.word	.LC29
ARM GAS  C:\Users\karunmj\AppData\Local\Temp\ccxxkT5V.s 			page 36


 1381 0160 DC010000 		.word	.LC30
 1382 0164 00000000 		.word	uart_received_string
 1383 0168 18010000 		.word	.LC19
 1384              		.cfi_endproc
 1385              	.LFE72:
 1386              		.size	modem_get_packet, .-modem_get_packet
 1387              		.section	.rodata
 1388              		.align	2
 1389              	.LC31:
 1390 01ec 6C6F636B 		.ascii	"lock\000"
 1390      00
 1391 01f1 000000   		.align	2
 1392              	.LC32:
 1393 01f4 7B226D65 		.ascii	"{\"method\":\"put\",\"resource\":\"/feeds/%lu\",\"h"
 1393      74686F64 
 1393      223A2270 
 1393      7574222C 
 1393      22726573 
 1394 021e 65616465 		.ascii	"eaders\":{\"X-ApiKey\":\"%s\"},\"body\":{\"version\""
 1394      7273223A 
 1394      7B22582D 
 1394      4170694B 
 1394      6579223A 
 1395 0249 3A22312E 		.ascii	":\"1.0.0\",\"datastreams\":[{ \"id\" : \"lock\", \""
 1395      302E3022 
 1395      2C226461 
 1395      74617374 
 1395      7265616D 
 1396 0273 63757272 		.ascii	"current_value\" : \"%u\"}]}}\000"
 1396      656E745F 
 1396      76616C75 
 1396      6522203A 
 1396      20222575 
 1397 028d 000000   		.section	.text.modem_acquire_lock,"ax",%progbits
 1398              		.align	2
 1399              		.global	modem_acquire_lock
 1400              		.thumb
 1401              		.thumb_func
 1402              		.type	modem_acquire_lock, %function
 1403              	modem_acquire_lock:
 1404              	.LFB73:
 535:..\..\..\..\..\Documents\GitHub\m2m\hardware\psoc5\psoc_datalogger_sms.cydsn/modem_v2.c **** 
 536:..\..\..\..\..\Documents\GitHub\m2m\hardware\psoc5\psoc_datalogger_sms.cydsn/modem_v2.c **** uint8 modem_acquire_lock(){
 1405              		.loc 1 536 0
 1406              		.cfi_startproc
 1407              		@ args = 0, pretend = 0, frame = 320
 1408              		@ frame_needed = 1, uses_anonymous_args = 0
 1409 0000 80B5     		push	{r7, lr}
 1410              		.cfi_def_cfa_offset 8
 1411              		.cfi_offset 7, -8
 1412              		.cfi_offset 14, -4
 1413 0002 D2B0     		sub	sp, sp, #328
 1414              		.cfi_def_cfa_offset 336
 1415 0004 02AF     		add	r7, sp, #8
 1416              		.cfi_def_cfa 7, 328
 537:..\..\..\..\..\Documents\GitHub\m2m\hardware\psoc5\psoc_datalogger_sms.cydsn/modem_v2.c ****     
 538:..\..\..\..\..\Documents\GitHub\m2m\hardware\psoc5\psoc_datalogger_sms.cydsn/modem_v2.c ****     /*
ARM GAS  C:\Users\karunmj\AppData\Local\Temp\ccxxkT5V.s 			page 37


 539:..\..\..\..\..\Documents\GitHub\m2m\hardware\psoc5\psoc_datalogger_sms.cydsn/modem_v2.c ****     if (lock_acquired == 1u) {
 540:..\..\..\..\..\Documents\GitHub\m2m\hardware\psoc5\psoc_datalogger_sms.cydsn/modem_v2.c ****         return 1u;
 541:..\..\..\..\..\Documents\GitHub\m2m\hardware\psoc5\psoc_datalogger_sms.cydsn/modem_v2.c ****     }
 542:..\..\..\..\..\Documents\GitHub\m2m\hardware\psoc5\psoc_datalogger_sms.cydsn/modem_v2.c ****     */
 543:..\..\..\..\..\Documents\GitHub\m2m\hardware\psoc5\psoc_datalogger_sms.cydsn/modem_v2.c ****     
 544:..\..\..\..\..\Documents\GitHub\m2m\hardware\psoc5\psoc_datalogger_sms.cydsn/modem_v2.c ****     uint8 lock = 0u;
 1417              		.loc 1 544 0
 1418 0006 0023     		movs	r3, #0
 1419 0008 87F83331 		strb	r3, [r7, #307]
 545:..\..\..\..\..\Documents\GitHub\m2m\hardware\psoc5\psoc_datalogger_sms.cydsn/modem_v2.c ****     uint32 i = 0u, delay = 100u, lock_attempts = 2u;    
 1420              		.loc 1 545 0
 1421 000c 0023     		movs	r3, #0
 1422 000e C7F83C31 		str	r3, [r7, #316]
 1423 0012 6423     		movs	r3, #100
 1424 0014 C7F83831 		str	r3, [r7, #312]
 1425 0018 0223     		movs	r3, #2
 1426 001a C7F83431 		str	r3, [r7, #308]
 546:..\..\..\..\..\Documents\GitHub\m2m\hardware\psoc5\psoc_datalogger_sms.cydsn/modem_v2.c ****     char data_packet[300] = {0};
 1427              		.loc 1 546 0
 1428 001e 3B1D     		adds	r3, r7, #4
 1429 0020 1A46     		mov	r2, r3
 1430 0022 4FF49673 		mov	r3, #300
 1431 0026 1046     		mov	r0, r2
 1432 0028 0021     		movs	r1, #0
 1433 002a 1A46     		mov	r2, r3
 1434 002c FFF7FEFF 		bl	memset
 547:..\..\..\..\..\Documents\GitHub\m2m\hardware\psoc5\psoc_datalogger_sms.cydsn/modem_v2.c ****             
 548:..\..\..\..\..\Documents\GitHub\m2m\hardware\psoc5\psoc_datalogger_sms.cydsn/modem_v2.c ****     for(i=0u; i < lock_attempts; i++) {
 1435              		.loc 1 548 0
 1436 0030 0023     		movs	r3, #0
 1437 0032 C7F83C31 		str	r3, [r7, #316]
 1438 0036 3DE0     		b	.L104
 1439              	.L107:
 549:..\..\..\..\..\Documents\GitHub\m2m\hardware\psoc5\psoc_datalogger_sms.cydsn/modem_v2.c ****         if(modem_get_packet(data_packet,"lock")){
 1440              		.loc 1 549 0
 1441 0038 3B1D     		adds	r3, r7, #4
 1442 003a 1846     		mov	r0, r3
 1443 003c 2349     		ldr	r1, .L109
 1444 003e FFF7FEFF 		bl	modem_get_packet
 1445 0042 0346     		mov	r3, r0
 1446 0044 002B     		cmp	r3, #0
 1447 0046 2CD0     		beq	.L105
 550:..\..\..\..\..\Documents\GitHub\m2m\hardware\psoc5\psoc_datalogger_sms.cydsn/modem_v2.c ****             if(packet_get_uint8(data_packet, "lock", &lock) && lock == 0u){
 1448              		.loc 1 550 0
 1449 0048 3A1D     		adds	r2, r7, #4
 1450 004a 07F23313 		addw	r3, r7, #307
 1451 004e 1046     		mov	r0, r2
 1452 0050 1E49     		ldr	r1, .L109
 1453 0052 1A46     		mov	r2, r3
 1454 0054 FFF7FEFF 		bl	packet_get_uint8
 1455 0058 0346     		mov	r3, r0
 1456 005a 002B     		cmp	r3, #0
 1457 005c 21D0     		beq	.L105
 1458              		.loc 1 550 0 is_stmt 0 discriminator 1
 1459 005e 97F83331 		ldrb	r3, [r7, #307]	@ zero_extendqisi2
 1460 0062 002B     		cmp	r3, #0
 1461 0064 1DD1     		bne	.L105
ARM GAS  C:\Users\karunmj\AppData\Local\Temp\ccxxkT5V.s 			page 38


 551:..\..\..\..\..\Documents\GitHub\m2m\hardware\psoc5\psoc_datalogger_sms.cydsn/modem_v2.c ****             
 552:..\..\..\..\..\Documents\GitHub\m2m\hardware\psoc5\psoc_datalogger_sms.cydsn/modem_v2.c ****                 memset(&data_packet[0],0,sizeof(data_packet));
 1462              		.loc 1 552 0 is_stmt 1
 1463 0066 3B1D     		adds	r3, r7, #4
 1464 0068 1846     		mov	r0, r3
 1465 006a 0021     		movs	r1, #0
 1466 006c 4FF49672 		mov	r2, #300
 1467 0070 FFF7FEFF 		bl	memset
 553:..\..\..\..\..\Documents\GitHub\m2m\hardware\psoc5\psoc_datalogger_sms.cydsn/modem_v2.c ****                 sprintf(data_packet, "{"
 1468              		.loc 1 553 0
 1469 0074 164B     		ldr	r3, .L109+4
 1470 0076 1A68     		ldr	r2, [r3]
 1471 0078 164B     		ldr	r3, .L109+8
 1472 007a 1B68     		ldr	r3, [r3]
 1473 007c 391D     		adds	r1, r7, #4
 1474 007e 0120     		movs	r0, #1
 1475 0080 0090     		str	r0, [sp]
 1476 0082 0846     		mov	r0, r1
 1477 0084 1449     		ldr	r1, .L109+12
 1478 0086 FFF7FEFF 		bl	sprintf
 554:..\..\..\..\..\Documents\GitHub\m2m\hardware\psoc5\psoc_datalogger_sms.cydsn/modem_v2.c ****                       "\"method\":\"put\","
 555:..\..\..\..\..\Documents\GitHub\m2m\hardware\psoc5\psoc_datalogger_sms.cydsn/modem_v2.c ****                       "\"resource\":\"/feeds/%lu\","
 556:..\..\..\..\..\Documents\GitHub\m2m\hardware\psoc5\psoc_datalogger_sms.cydsn/modem_v2.c ****                       "\"headers\":{\"X-ApiKey\":\"%s\"},"
 557:..\..\..\..\..\Documents\GitHub\m2m\hardware\psoc5\psoc_datalogger_sms.cydsn/modem_v2.c ****                       "\"body\":{\"version\":\"1.0.0\",\"datastreams\":["
 558:..\..\..\..\..\Documents\GitHub\m2m\hardware\psoc5\psoc_datalogger_sms.cydsn/modem_v2.c ****                             "{ \"id\" : \"lock\", \"current_value\" : \"%u\"}"
 559:..\..\..\..\..\Documents\GitHub\m2m\hardware\psoc5\psoc_datalogger_sms.cydsn/modem_v2.c ****                       "]}}",
 560:..\..\..\..\..\Documents\GitHub\m2m\hardware\psoc5\psoc_datalogger_sms.cydsn/modem_v2.c ****                       feed_id,api_key,1u);
 561:..\..\..\..\..\Documents\GitHub\m2m\hardware\psoc5\psoc_datalogger_sms.cydsn/modem_v2.c ****                       
 562:..\..\..\..\..\Documents\GitHub\m2m\hardware\psoc5\psoc_datalogger_sms.cydsn/modem_v2.c ****                 if(modem_send_packet(data_packet)) {
 1479              		.loc 1 562 0
 1480 008a 3B1D     		adds	r3, r7, #4
 1481 008c 1846     		mov	r0, r3
 1482 008e FFF7FEFF 		bl	modem_send_packet
 1483 0092 0346     		mov	r3, r0
 1484 0094 002B     		cmp	r3, #0
 1485 0096 04D0     		beq	.L105
 563:..\..\..\..\..\Documents\GitHub\m2m\hardware\psoc5\psoc_datalogger_sms.cydsn/modem_v2.c ****                     lock_acquired = 1u;
 1486              		.loc 1 563 0
 1487 0098 104B     		ldr	r3, .L109+16
 1488 009a 0122     		movs	r2, #1
 1489 009c 1A70     		strb	r2, [r3]
 564:..\..\..\..\..\Documents\GitHub\m2m\hardware\psoc5\psoc_datalogger_sms.cydsn/modem_v2.c ****                     return 1u;
 1490              		.loc 1 564 0
 1491 009e 0123     		movs	r3, #1
 1492 00a0 0FE0     		b	.L108
 1493              	.L105:
 565:..\..\..\..\..\Documents\GitHub\m2m\hardware\psoc5\psoc_datalogger_sms.cydsn/modem_v2.c ****                 }
 566:..\..\..\..\..\Documents\GitHub\m2m\hardware\psoc5\psoc_datalogger_sms.cydsn/modem_v2.c ****             }  
 567:..\..\..\..\..\Documents\GitHub\m2m\hardware\psoc5\psoc_datalogger_sms.cydsn/modem_v2.c ****         }
 568:..\..\..\..\..\Documents\GitHub\m2m\hardware\psoc5\psoc_datalogger_sms.cydsn/modem_v2.c ****         CyDelay(delay);
 1494              		.loc 1 568 0
 1495 00a2 D7F83801 		ldr	r0, [r7, #312]
 1496 00a6 FFF7FEFF 		bl	CyDelay
 548:..\..\..\..\..\Documents\GitHub\m2m\hardware\psoc5\psoc_datalogger_sms.cydsn/modem_v2.c ****     for(i=0u; i < lock_attempts; i++) {
 1497              		.loc 1 548 0
 1498 00aa D7F83C31 		ldr	r3, [r7, #316]
 1499 00ae 0133     		adds	r3, r3, #1
ARM GAS  C:\Users\karunmj\AppData\Local\Temp\ccxxkT5V.s 			page 39


 1500 00b0 C7F83C31 		str	r3, [r7, #316]
 1501              	.L104:
 548:..\..\..\..\..\Documents\GitHub\m2m\hardware\psoc5\psoc_datalogger_sms.cydsn/modem_v2.c ****     for(i=0u; i < lock_attempts; i++) {
 1502              		.loc 1 548 0 is_stmt 0 discriminator 1
 1503 00b4 D7F83C21 		ldr	r2, [r7, #316]
 1504 00b8 D7F83431 		ldr	r3, [r7, #308]
 1505 00bc 9A42     		cmp	r2, r3
 1506 00be BBD3     		bcc	.L107
 569:..\..\..\..\..\Documents\GitHub\m2m\hardware\psoc5\psoc_datalogger_sms.cydsn/modem_v2.c ****     }
 570:..\..\..\..\..\Documents\GitHub\m2m\hardware\psoc5\psoc_datalogger_sms.cydsn/modem_v2.c ****          
 571:..\..\..\..\..\Documents\GitHub\m2m\hardware\psoc5\psoc_datalogger_sms.cydsn/modem_v2.c ****     return 0u;
 1507              		.loc 1 571 0 is_stmt 1
 1508 00c0 0023     		movs	r3, #0
 1509              	.L108:
 572:..\..\..\..\..\Documents\GitHub\m2m\hardware\psoc5\psoc_datalogger_sms.cydsn/modem_v2.c **** }
 1510              		.loc 1 572 0
 1511 00c2 1846     		mov	r0, r3
 1512 00c4 07F5A077 		add	r7, r7, #320
 1513 00c8 BD46     		mov	sp, r7
 1514              		@ sp needed
 1515 00ca 80BD     		pop	{r7, pc}
 1516              	.L110:
 1517              		.align	2
 1518              	.L109:
 1519 00cc EC010000 		.word	.LC31
 1520 00d0 00000000 		.word	feed_id
 1521 00d4 00000000 		.word	api_key
 1522 00d8 F4010000 		.word	.LC32
 1523 00dc 00000000 		.word	lock_acquired
 1524              		.cfi_endproc
 1525              	.LFE73:
 1526              		.size	modem_acquire_lock, .-modem_acquire_lock
 1527              		.section	.text.modem_release_lock,"ax",%progbits
 1528              		.align	2
 1529              		.global	modem_release_lock
 1530              		.thumb
 1531              		.thumb_func
 1532              		.type	modem_release_lock, %function
 1533              	modem_release_lock:
 1534              	.LFB74:
 573:..\..\..\..\..\Documents\GitHub\m2m\hardware\psoc5\psoc_datalogger_sms.cydsn/modem_v2.c **** 
 574:..\..\..\..\..\Documents\GitHub\m2m\hardware\psoc5\psoc_datalogger_sms.cydsn/modem_v2.c **** uint8 modem_release_lock(){
 1535              		.loc 1 574 0
 1536              		.cfi_startproc
 1537              		@ args = 0, pretend = 0, frame = 312
 1538              		@ frame_needed = 1, uses_anonymous_args = 0
 1539 0000 80B5     		push	{r7, lr}
 1540              		.cfi_def_cfa_offset 8
 1541              		.cfi_offset 7, -8
 1542              		.cfi_offset 14, -4
 1543 0002 D0B0     		sub	sp, sp, #320
 1544              		.cfi_def_cfa_offset 328
 1545 0004 02AF     		add	r7, sp, #8
 1546              		.cfi_def_cfa 7, 320
 575:..\..\..\..\..\Documents\GitHub\m2m\hardware\psoc5\psoc_datalogger_sms.cydsn/modem_v2.c ****     /*
 576:..\..\..\..\..\Documents\GitHub\m2m\hardware\psoc5\psoc_datalogger_sms.cydsn/modem_v2.c ****     if (lock_acquired == 0u) {
 577:..\..\..\..\..\Documents\GitHub\m2m\hardware\psoc5\psoc_datalogger_sms.cydsn/modem_v2.c ****         return 1u;
ARM GAS  C:\Users\karunmj\AppData\Local\Temp\ccxxkT5V.s 			page 40


 578:..\..\..\..\..\Documents\GitHub\m2m\hardware\psoc5\psoc_datalogger_sms.cydsn/modem_v2.c ****     }
 579:..\..\..\..\..\Documents\GitHub\m2m\hardware\psoc5\psoc_datalogger_sms.cydsn/modem_v2.c ****     */
 580:..\..\..\..\..\Documents\GitHub\m2m\hardware\psoc5\psoc_datalogger_sms.cydsn/modem_v2.c ****     
 581:..\..\..\..\..\Documents\GitHub\m2m\hardware\psoc5\psoc_datalogger_sms.cydsn/modem_v2.c ****     uint32 i = 0u, delay = 100u, lock_attempts = 2u;    
 1547              		.loc 1 581 0
 1548 0006 0023     		movs	r3, #0
 1549 0008 C7F83431 		str	r3, [r7, #308]
 1550 000c 6423     		movs	r3, #100
 1551 000e C7F83031 		str	r3, [r7, #304]
 1552 0012 0223     		movs	r3, #2
 1553 0014 C7F82C31 		str	r3, [r7, #300]
 582:..\..\..\..\..\Documents\GitHub\m2m\hardware\psoc5\psoc_datalogger_sms.cydsn/modem_v2.c ****     char data_packet[300] = {0};
 1554              		.loc 1 582 0
 1555 0018 3B46     		mov	r3, r7
 1556 001a 1A46     		mov	r2, r3
 1557 001c 4FF49673 		mov	r3, #300
 1558 0020 1046     		mov	r0, r2
 1559 0022 0021     		movs	r1, #0
 1560 0024 1A46     		mov	r2, r3
 1561 0026 FFF7FEFF 		bl	memset
 583:..\..\..\..\..\Documents\GitHub\m2m\hardware\psoc5\psoc_datalogger_sms.cydsn/modem_v2.c ****     
 584:..\..\..\..\..\Documents\GitHub\m2m\hardware\psoc5\psoc_datalogger_sms.cydsn/modem_v2.c ****     sprintf(data_packet, "{"
 1562              		.loc 1 584 0
 1563 002a 184B     		ldr	r3, .L117
 1564 002c 1A68     		ldr	r2, [r3]
 1565 002e 184B     		ldr	r3, .L117+4
 1566 0030 1B68     		ldr	r3, [r3]
 1567 0032 3946     		mov	r1, r7
 1568 0034 0020     		movs	r0, #0
 1569 0036 0090     		str	r0, [sp]
 1570 0038 0846     		mov	r0, r1
 1571 003a 1649     		ldr	r1, .L117+8
 1572 003c FFF7FEFF 		bl	sprintf
 585:..\..\..\..\..\Documents\GitHub\m2m\hardware\psoc5\psoc_datalogger_sms.cydsn/modem_v2.c ****           "\"method\":\"put\","
 586:..\..\..\..\..\Documents\GitHub\m2m\hardware\psoc5\psoc_datalogger_sms.cydsn/modem_v2.c ****           "\"resource\":\"/feeds/%lu\","
 587:..\..\..\..\..\Documents\GitHub\m2m\hardware\psoc5\psoc_datalogger_sms.cydsn/modem_v2.c ****           "\"headers\":{\"X-ApiKey\":\"%s\"},"
 588:..\..\..\..\..\Documents\GitHub\m2m\hardware\psoc5\psoc_datalogger_sms.cydsn/modem_v2.c ****           "\"body\":{\"version\":\"1.0.0\",\"datastreams\":["
 589:..\..\..\..\..\Documents\GitHub\m2m\hardware\psoc5\psoc_datalogger_sms.cydsn/modem_v2.c ****                 "{ \"id\" : \"lock\", \"current_value\" : \"%u\"}"
 590:..\..\..\..\..\Documents\GitHub\m2m\hardware\psoc5\psoc_datalogger_sms.cydsn/modem_v2.c ****           "]}}",
 591:..\..\..\..\..\Documents\GitHub\m2m\hardware\psoc5\psoc_datalogger_sms.cydsn/modem_v2.c ****           feed_id, api_key, 0u);
 592:..\..\..\..\..\Documents\GitHub\m2m\hardware\psoc5\psoc_datalogger_sms.cydsn/modem_v2.c ****         
 593:..\..\..\..\..\Documents\GitHub\m2m\hardware\psoc5\psoc_datalogger_sms.cydsn/modem_v2.c ****     for(i=0u; i < lock_attempts; i++) {
 1573              		.loc 1 593 0
 1574 0040 0023     		movs	r3, #0
 1575 0042 C7F83431 		str	r3, [r7, #308]
 1576 0046 14E0     		b	.L112
 1577              	.L115:
 594:..\..\..\..\..\Documents\GitHub\m2m\hardware\psoc5\psoc_datalogger_sms.cydsn/modem_v2.c **** 
 595:..\..\..\..\..\Documents\GitHub\m2m\hardware\psoc5\psoc_datalogger_sms.cydsn/modem_v2.c ****         if(modem_send_packet(data_packet)) {
 1578              		.loc 1 595 0
 1579 0048 3B46     		mov	r3, r7
 1580 004a 1846     		mov	r0, r3
 1581 004c FFF7FEFF 		bl	modem_send_packet
 1582 0050 0346     		mov	r3, r0
 1583 0052 002B     		cmp	r3, #0
 1584 0054 04D0     		beq	.L113
 596:..\..\..\..\..\Documents\GitHub\m2m\hardware\psoc5\psoc_datalogger_sms.cydsn/modem_v2.c ****             lock_acquired = 0u;
ARM GAS  C:\Users\karunmj\AppData\Local\Temp\ccxxkT5V.s 			page 41


 1585              		.loc 1 596 0
 1586 0056 104B     		ldr	r3, .L117+12
 1587 0058 0022     		movs	r2, #0
 1588 005a 1A70     		strb	r2, [r3]
 597:..\..\..\..\..\Documents\GitHub\m2m\hardware\psoc5\psoc_datalogger_sms.cydsn/modem_v2.c ****             return 1u;
 1589              		.loc 1 597 0
 1590 005c 0123     		movs	r3, #1
 1591 005e 0FE0     		b	.L116
 1592              	.L113:
 598:..\..\..\..\..\Documents\GitHub\m2m\hardware\psoc5\psoc_datalogger_sms.cydsn/modem_v2.c ****         }
 599:..\..\..\..\..\Documents\GitHub\m2m\hardware\psoc5\psoc_datalogger_sms.cydsn/modem_v2.c ****         
 600:..\..\..\..\..\Documents\GitHub\m2m\hardware\psoc5\psoc_datalogger_sms.cydsn/modem_v2.c ****         CyDelay(delay);
 1593              		.loc 1 600 0
 1594 0060 D7F83001 		ldr	r0, [r7, #304]
 1595 0064 FFF7FEFF 		bl	CyDelay
 593:..\..\..\..\..\Documents\GitHub\m2m\hardware\psoc5\psoc_datalogger_sms.cydsn/modem_v2.c ****     for(i=0u; i < lock_attempts; i++) {
 1596              		.loc 1 593 0
 1597 0068 D7F83431 		ldr	r3, [r7, #308]
 1598 006c 0133     		adds	r3, r3, #1
 1599 006e C7F83431 		str	r3, [r7, #308]
 1600              	.L112:
 593:..\..\..\..\..\Documents\GitHub\m2m\hardware\psoc5\psoc_datalogger_sms.cydsn/modem_v2.c ****     for(i=0u; i < lock_attempts; i++) {
 1601              		.loc 1 593 0 is_stmt 0 discriminator 1
 1602 0072 D7F83421 		ldr	r2, [r7, #308]
 1603 0076 D7F82C31 		ldr	r3, [r7, #300]
 1604 007a 9A42     		cmp	r2, r3
 1605 007c E4D3     		bcc	.L115
 601:..\..\..\..\..\Documents\GitHub\m2m\hardware\psoc5\psoc_datalogger_sms.cydsn/modem_v2.c ****     }
 602:..\..\..\..\..\Documents\GitHub\m2m\hardware\psoc5\psoc_datalogger_sms.cydsn/modem_v2.c ****          
 603:..\..\..\..\..\Documents\GitHub\m2m\hardware\psoc5\psoc_datalogger_sms.cydsn/modem_v2.c ****     return 0u;
 1606              		.loc 1 603 0 is_stmt 1
 1607 007e 0023     		movs	r3, #0
 1608              	.L116:
 604:..\..\..\..\..\Documents\GitHub\m2m\hardware\psoc5\psoc_datalogger_sms.cydsn/modem_v2.c **** }
 1609              		.loc 1 604 0
 1610 0080 1846     		mov	r0, r3
 1611 0082 07F59C77 		add	r7, r7, #312
 1612 0086 BD46     		mov	sp, r7
 1613              		@ sp needed
 1614 0088 80BD     		pop	{r7, pc}
 1615              	.L118:
 1616 008a 00BF     		.align	2
 1617              	.L117:
 1618 008c 00000000 		.word	feed_id
 1619 0090 00000000 		.word	api_key
 1620 0094 F4010000 		.word	.LC32
 1621 0098 00000000 		.word	lock_acquired
 1622              		.cfi_endproc
 1623              	.LFE74:
 1624              		.size	modem_release_lock, .-modem_release_lock
 1625              		.section	.text.uart_string_reset,"ax",%progbits
 1626              		.align	2
 1627              		.global	uart_string_reset
 1628              		.thumb
 1629              		.thumb_func
 1630              		.type	uart_string_reset, %function
 1631              	uart_string_reset:
ARM GAS  C:\Users\karunmj\AppData\Local\Temp\ccxxkT5V.s 			page 42


 1632              	.LFB75:
 605:..\..\..\..\..\Documents\GitHub\m2m\hardware\psoc5\psoc_datalogger_sms.cydsn/modem_v2.c **** 
 606:..\..\..\..\..\Documents\GitHub\m2m\hardware\psoc5\psoc_datalogger_sms.cydsn/modem_v2.c **** void uart_string_reset(){
 1633              		.loc 1 606 0
 1634              		.cfi_startproc
 1635              		@ args = 0, pretend = 0, frame = 0
 1636              		@ frame_needed = 1, uses_anonymous_args = 0
 1637 0000 80B5     		push	{r7, lr}
 1638              		.cfi_def_cfa_offset 8
 1639              		.cfi_offset 7, -8
 1640              		.cfi_offset 14, -4
 1641 0002 00AF     		add	r7, sp, #0
 1642              		.cfi_def_cfa_register 7
 607:..\..\..\..\..\Documents\GitHub\m2m\hardware\psoc5\psoc_datalogger_sms.cydsn/modem_v2.c ****     // reset uart_received_string to zero
 608:..\..\..\..\..\Documents\GitHub\m2m\hardware\psoc5\psoc_datalogger_sms.cydsn/modem_v2.c ****     /*
 609:..\..\..\..\..\Documents\GitHub\m2m\hardware\psoc5\psoc_datalogger_sms.cydsn/modem_v2.c ****     uint16 i = 0;
 610:..\..\..\..\..\Documents\GitHub\m2m\hardware\psoc5\psoc_datalogger_sms.cydsn/modem_v2.c ****     
 611:..\..\..\..\..\Documents\GitHub\m2m\hardware\psoc5\psoc_datalogger_sms.cydsn/modem_v2.c ****     for(i = 0; i < 700; i++){
 612:..\..\..\..\..\Documents\GitHub\m2m\hardware\psoc5\psoc_datalogger_sms.cydsn/modem_v2.c ****         uart_received_string[i] = 0;
 613:..\..\..\..\..\Documents\GitHub\m2m\hardware\psoc5\psoc_datalogger_sms.cydsn/modem_v2.c ****     }
 614:..\..\..\..\..\Documents\GitHub\m2m\hardware\psoc5\psoc_datalogger_sms.cydsn/modem_v2.c ****     */
 615:..\..\..\..\..\Documents\GitHub\m2m\hardware\psoc5\psoc_datalogger_sms.cydsn/modem_v2.c ****     memset(&uart_received_string[0],0,sizeof(uart_received_string));
 1643              		.loc 1 615 0
 1644 0004 0548     		ldr	r0, .L120
 1645 0006 0021     		movs	r1, #0
 1646 0008 4FF42F72 		mov	r2, #700
 1647 000c FFF7FEFF 		bl	memset
 616:..\..\..\..\..\Documents\GitHub\m2m\hardware\psoc5\psoc_datalogger_sms.cydsn/modem_v2.c ****     uart_string_index = 0;
 1648              		.loc 1 616 0
 1649 0010 034B     		ldr	r3, .L120+4
 1650 0012 0022     		movs	r2, #0
 1651 0014 1A80     		strh	r2, [r3]	@ movhi
 617:..\..\..\..\..\Documents\GitHub\m2m\hardware\psoc5\psoc_datalogger_sms.cydsn/modem_v2.c ****     Telit_UART_ClearRxBuffer();
 1652              		.loc 1 617 0
 1653 0016 FFF7FEFF 		bl	Telit_UART_ClearRxBuffer
 618:..\..\..\..\..\Documents\GitHub\m2m\hardware\psoc5\psoc_datalogger_sms.cydsn/modem_v2.c **** //    uart_ClearTxBuffer();
 619:..\..\..\..\..\Documents\GitHub\m2m\hardware\psoc5\psoc_datalogger_sms.cydsn/modem_v2.c **** }
 1654              		.loc 1 619 0
 1655 001a 80BD     		pop	{r7, pc}
 1656              	.L121:
 1657              		.align	2
 1658              	.L120:
 1659 001c 00000000 		.word	uart_received_string
 1660 0020 00000000 		.word	uart_string_index
 1661              		.cfi_endproc
 1662              	.LFE75:
 1663              		.size	uart_string_reset, .-uart_string_reset
 1664              		.section	.text.Telit_isr_rx,"ax",%progbits
 1665              		.align	2
 1666              		.global	Telit_isr_rx
 1667              		.thumb
 1668              		.thumb_func
 1669              		.type	Telit_isr_rx, %function
 1670              	Telit_isr_rx:
 1671              	.LFB76:
 620:..\..\..\..\..\Documents\GitHub\m2m\hardware\psoc5\psoc_datalogger_sms.cydsn/modem_v2.c **** 
 621:..\..\..\..\..\Documents\GitHub\m2m\hardware\psoc5\psoc_datalogger_sms.cydsn/modem_v2.c **** // this function fires when uart rx receives bytes (when modem is sending bytes)
ARM GAS  C:\Users\karunmj\AppData\Local\Temp\ccxxkT5V.s 			page 43


 622:..\..\..\..\..\Documents\GitHub\m2m\hardware\psoc5\psoc_datalogger_sms.cydsn/modem_v2.c **** CY_ISR(Telit_isr_rx){
 1672              		.loc 1 622 0
 1673              		.cfi_startproc
 1674              		@ args = 0, pretend = 0, frame = 8
 1675              		@ frame_needed = 1, uses_anonymous_args = 0
 1676 0000 80B5     		push	{r7, lr}
 1677              		.cfi_def_cfa_offset 8
 1678              		.cfi_offset 7, -8
 1679              		.cfi_offset 14, -4
 1680 0002 82B0     		sub	sp, sp, #8
 1681              		.cfi_def_cfa_offset 16
 1682 0004 00AF     		add	r7, sp, #0
 1683              		.cfi_def_cfa_register 7
 623:..\..\..\..\..\Documents\GitHub\m2m\hardware\psoc5\psoc_datalogger_sms.cydsn/modem_v2.c ****     while (Telit_UART_GetRxBufferSize()){
 1684              		.loc 1 623 0
 1685 0006 11E0     		b	.L123
 1686              	.L124:
 1687              	.LBB6:
 624:..\..\..\..\..\Documents\GitHub\m2m\hardware\psoc5\psoc_datalogger_sms.cydsn/modem_v2.c ****         // hold the next char in the rx register as a temporary variable
 625:..\..\..\..\..\Documents\GitHub\m2m\hardware\psoc5\psoc_datalogger_sms.cydsn/modem_v2.c ****         char rx_char_hold = Telit_UART_GetChar();
 1688              		.loc 1 625 0
 1689 0008 FFF7FEFF 		bl	Telit_UART_GetChar
 1690 000c 0346     		mov	r3, r0
 1691 000e FB71     		strb	r3, [r7, #7]
 626:..\..\..\..\..\Documents\GitHub\m2m\hardware\psoc5\psoc_datalogger_sms.cydsn/modem_v2.c ****         
 627:..\..\..\..\..\Documents\GitHub\m2m\hardware\psoc5\psoc_datalogger_sms.cydsn/modem_v2.c ****         // store the char in uart_received_string
 628:..\..\..\..\..\Documents\GitHub\m2m\hardware\psoc5\psoc_datalogger_sms.cydsn/modem_v2.c ****         if(rx_char_hold){
 1692              		.loc 1 628 0
 1693 0010 FB79     		ldrb	r3, [r7, #7]	@ zero_extendqisi2
 1694 0012 002B     		cmp	r3, #0
 1695 0014 0AD0     		beq	.L123
 629:..\..\..\..\..\Documents\GitHub\m2m\hardware\psoc5\psoc_datalogger_sms.cydsn/modem_v2.c ****             uart_received_string[uart_string_index] = rx_char_hold;
 1696              		.loc 1 629 0
 1697 0016 094B     		ldr	r3, .L125
 1698 0018 1B88     		ldrh	r3, [r3]
 1699 001a 094A     		ldr	r2, .L125+4
 1700 001c F979     		ldrb	r1, [r7, #7]
 1701 001e D154     		strb	r1, [r2, r3]
 630:..\..\..\..\..\Documents\GitHub\m2m\hardware\psoc5\psoc_datalogger_sms.cydsn/modem_v2.c ****             uart_string_index++;
 1702              		.loc 1 630 0
 1703 0020 064B     		ldr	r3, .L125
 1704 0022 1B88     		ldrh	r3, [r3]
 1705 0024 0133     		adds	r3, r3, #1
 1706 0026 9AB2     		uxth	r2, r3
 1707 0028 044B     		ldr	r3, .L125
 1708 002a 1A80     		strh	r2, [r3]	@ movhi
 1709              	.L123:
 1710              	.LBE6:
 623:..\..\..\..\..\Documents\GitHub\m2m\hardware\psoc5\psoc_datalogger_sms.cydsn/modem_v2.c ****     while (Telit_UART_GetRxBufferSize()){
 1711              		.loc 1 623 0 discriminator 1
 1712 002c FFF7FEFF 		bl	Telit_UART_GetRxBufferSize
 1713 0030 0346     		mov	r3, r0
 1714 0032 002B     		cmp	r3, #0
 1715 0034 E8D1     		bne	.L124
 631:..\..\..\..\..\Documents\GitHub\m2m\hardware\psoc5\psoc_datalogger_sms.cydsn/modem_v2.c ****         }
 632:..\..\..\..\..\Documents\GitHub\m2m\hardware\psoc5\psoc_datalogger_sms.cydsn/modem_v2.c ****     }
 633:..\..\..\..\..\Documents\GitHub\m2m\hardware\psoc5\psoc_datalogger_sms.cydsn/modem_v2.c **** }
ARM GAS  C:\Users\karunmj\AppData\Local\Temp\ccxxkT5V.s 			page 44


 1716              		.loc 1 633 0
 1717 0036 0837     		adds	r7, r7, #8
 1718 0038 BD46     		mov	sp, r7
 1719              		@ sp needed
 1720 003a 80BD     		pop	{r7, pc}
 1721              	.L126:
 1722              		.align	2
 1723              	.L125:
 1724 003c 00000000 		.word	uart_string_index
 1725 0040 00000000 		.word	uart_received_string
 1726              		.cfi_endproc
 1727              	.LFE76:
 1728              		.size	Telit_isr_rx, .-Telit_isr_rx
 1729              		.text
 1730              	.Letext0:
 1731              		.file 2 "c:\\program files (x86)\\cypress\\psoc creator\\3.1\\psoc creator\\import\\gnu_cs\\arm\\4
 1732              		.file 3 "c:\\program files (x86)\\cypress\\psoc creator\\3.1\\psoc creator\\import\\gnu_cs\\arm\\4
 1733              		.file 4 ".\\Generated_Source\\PSoC5/cytypes.h"
 1734              		.file 5 ".\\Generated_Source\\PSoC5/core_cm3.h"