ARM GAS  C:\Users\BRANKO~1\AppData\Local\Temp\ccDiXIUD.s 			page 1


   1              		.syntax unified
   2              		.cpu cortex-m3
   3              		.fpu softvfp
   4              		.eabi_attribute 20, 1
   5              		.eabi_attribute 21, 1
   6              		.eabi_attribute 23, 3
   7              		.eabi_attribute 24, 1
   8              		.eabi_attribute 25, 1
   9              		.eabi_attribute 26, 1
  10              		.eabi_attribute 30, 6
  11              		.eabi_attribute 34, 1
  12              		.eabi_attribute 18, 4
  13              		.thumb
  14              		.file	"Pin34.c"
  15              		.text
  16              	.Ltext0:
  17              		.cfi_sections	.debug_frame
  18              		.section	.text.Pin34_Write,"ax",%progbits
  19              		.align	2
  20              		.global	Pin34_Write
  21              		.thumb
  22              		.thumb_func
  23              		.type	Pin34_Write, %function
  24              	Pin34_Write:
  25              	.LFB0:
  26              		.file 1 ".\\Generated_Source\\PSoC5\\Pin34.c"
   1:.\Generated_Source\PSoC5/Pin34.c **** /*******************************************************************************
   2:.\Generated_Source\PSoC5/Pin34.c **** * File Name: Pin34.c  
   3:.\Generated_Source\PSoC5/Pin34.c **** * Version 2.10
   4:.\Generated_Source\PSoC5/Pin34.c **** *
   5:.\Generated_Source\PSoC5/Pin34.c **** * Description:
   6:.\Generated_Source\PSoC5/Pin34.c **** *  This file contains API to enable firmware control of a Pins component.
   7:.\Generated_Source\PSoC5/Pin34.c **** *
   8:.\Generated_Source\PSoC5/Pin34.c **** * Note:
   9:.\Generated_Source\PSoC5/Pin34.c **** *
  10:.\Generated_Source\PSoC5/Pin34.c **** ********************************************************************************
  11:.\Generated_Source\PSoC5/Pin34.c **** * Copyright 2008-2014, Cypress Semiconductor Corporation.  All rights reserved.
  12:.\Generated_Source\PSoC5/Pin34.c **** * You may use this file only in accordance with the license, terms, conditions, 
  13:.\Generated_Source\PSoC5/Pin34.c **** * disclaimers, and limitations in the end user license agreement accompanying 
  14:.\Generated_Source\PSoC5/Pin34.c **** * the software package with which this file was provided.
  15:.\Generated_Source\PSoC5/Pin34.c **** *******************************************************************************/
  16:.\Generated_Source\PSoC5/Pin34.c **** 
  17:.\Generated_Source\PSoC5/Pin34.c **** #include "cytypes.h"
  18:.\Generated_Source\PSoC5/Pin34.c **** #include "Pin34.h"
  19:.\Generated_Source\PSoC5/Pin34.c **** 
  20:.\Generated_Source\PSoC5/Pin34.c **** /* APIs are not generated for P15[7:6] on PSoC 5 */
  21:.\Generated_Source\PSoC5/Pin34.c **** #if !(CY_PSOC5A &&\
  22:.\Generated_Source\PSoC5/Pin34.c **** 	 Pin34__PORT == 15 && ((Pin34__MASK & 0xC0) != 0))
  23:.\Generated_Source\PSoC5/Pin34.c **** 
  24:.\Generated_Source\PSoC5/Pin34.c **** 
  25:.\Generated_Source\PSoC5/Pin34.c **** /*******************************************************************************
  26:.\Generated_Source\PSoC5/Pin34.c **** * Function Name: Pin34_Write
  27:.\Generated_Source\PSoC5/Pin34.c **** ********************************************************************************
  28:.\Generated_Source\PSoC5/Pin34.c **** *
  29:.\Generated_Source\PSoC5/Pin34.c **** * Summary:
  30:.\Generated_Source\PSoC5/Pin34.c **** *  Assign a new value to the digital port's data output register.  
  31:.\Generated_Source\PSoC5/Pin34.c **** *
ARM GAS  C:\Users\BRANKO~1\AppData\Local\Temp\ccDiXIUD.s 			page 2


  32:.\Generated_Source\PSoC5/Pin34.c **** * Parameters:  
  33:.\Generated_Source\PSoC5/Pin34.c **** *  prtValue:  The value to be assigned to the Digital Port. 
  34:.\Generated_Source\PSoC5/Pin34.c **** *
  35:.\Generated_Source\PSoC5/Pin34.c **** * Return: 
  36:.\Generated_Source\PSoC5/Pin34.c **** *  None
  37:.\Generated_Source\PSoC5/Pin34.c **** *  
  38:.\Generated_Source\PSoC5/Pin34.c **** *******************************************************************************/
  39:.\Generated_Source\PSoC5/Pin34.c **** void Pin34_Write(uint8 value) 
  40:.\Generated_Source\PSoC5/Pin34.c **** {
  27              		.loc 1 40 0
  28              		.cfi_startproc
  29              		@ args = 0, pretend = 0, frame = 16
  30              		@ frame_needed = 1, uses_anonymous_args = 0
  31              		@ link register save eliminated.
  32 0000 80B4     		push	{r7}
  33              		.cfi_def_cfa_offset 4
  34              		.cfi_offset 7, -4
  35 0002 85B0     		sub	sp, sp, #20
  36              		.cfi_def_cfa_offset 24
  37 0004 00AF     		add	r7, sp, #0
  38              		.cfi_def_cfa_register 7
  39 0006 0346     		mov	r3, r0
  40 0008 FB71     		strb	r3, [r7, #7]
  41:.\Generated_Source\PSoC5/Pin34.c ****     uint8 staticBits = (Pin34_DR & (uint8)(~Pin34_MASK));
  41              		.loc 1 41 0
  42 000a 0B4B     		ldr	r3, .L2
  43 000c 1B78     		ldrb	r3, [r3]
  44 000e DBB2     		uxtb	r3, r3
  45 0010 23F02003 		bic	r3, r3, #32
  46 0014 FB73     		strb	r3, [r7, #15]
  42:.\Generated_Source\PSoC5/Pin34.c ****     Pin34_DR = staticBits | ((uint8)(value << Pin34_SHIFT) & Pin34_MASK);
  47              		.loc 1 42 0
  48 0016 084B     		ldr	r3, .L2
  49 0018 FA79     		ldrb	r2, [r7, #7]
  50 001a 5201     		lsls	r2, r2, #5
  51 001c D2B2     		uxtb	r2, r2
  52 001e 02F02002 		and	r2, r2, #32
  53 0022 D1B2     		uxtb	r1, r2
  54 0024 FA7B     		ldrb	r2, [r7, #15]
  55 0026 0A43     		orrs	r2, r2, r1
  56 0028 D2B2     		uxtb	r2, r2
  57 002a 1A70     		strb	r2, [r3]
  43:.\Generated_Source\PSoC5/Pin34.c **** }
  58              		.loc 1 43 0
  59 002c 1437     		adds	r7, r7, #20
  60 002e BD46     		mov	sp, r7
  61              		@ sp needed
  62 0030 5DF8047B 		ldr	r7, [sp], #4
  63 0034 7047     		bx	lr
  64              	.L3:
  65 0036 00BF     		.align	2
  66              	.L2:
  67 0038 20510040 		.word	1073762592
  68              		.cfi_endproc
  69              	.LFE0:
  70              		.size	Pin34_Write, .-Pin34_Write
  71              		.section	.text.Pin34_SetDriveMode,"ax",%progbits
ARM GAS  C:\Users\BRANKO~1\AppData\Local\Temp\ccDiXIUD.s 			page 3


  72              		.align	2
  73              		.global	Pin34_SetDriveMode
  74              		.thumb
  75              		.thumb_func
  76              		.type	Pin34_SetDriveMode, %function
  77              	Pin34_SetDriveMode:
  78              	.LFB1:
  44:.\Generated_Source\PSoC5/Pin34.c **** 
  45:.\Generated_Source\PSoC5/Pin34.c **** 
  46:.\Generated_Source\PSoC5/Pin34.c **** /*******************************************************************************
  47:.\Generated_Source\PSoC5/Pin34.c **** * Function Name: Pin34_SetDriveMode
  48:.\Generated_Source\PSoC5/Pin34.c **** ********************************************************************************
  49:.\Generated_Source\PSoC5/Pin34.c **** *
  50:.\Generated_Source\PSoC5/Pin34.c **** * Summary:
  51:.\Generated_Source\PSoC5/Pin34.c **** *  Change the drive mode on the pins of the port.
  52:.\Generated_Source\PSoC5/Pin34.c **** * 
  53:.\Generated_Source\PSoC5/Pin34.c **** * Parameters:  
  54:.\Generated_Source\PSoC5/Pin34.c **** *  mode:  Change the pins to one of the following drive modes.
  55:.\Generated_Source\PSoC5/Pin34.c **** *
  56:.\Generated_Source\PSoC5/Pin34.c **** *  Pin34_DM_STRONG     Strong Drive 
  57:.\Generated_Source\PSoC5/Pin34.c **** *  Pin34_DM_OD_HI      Open Drain, Drives High 
  58:.\Generated_Source\PSoC5/Pin34.c **** *  Pin34_DM_OD_LO      Open Drain, Drives Low 
  59:.\Generated_Source\PSoC5/Pin34.c **** *  Pin34_DM_RES_UP     Resistive Pull Up 
  60:.\Generated_Source\PSoC5/Pin34.c **** *  Pin34_DM_RES_DWN    Resistive Pull Down 
  61:.\Generated_Source\PSoC5/Pin34.c **** *  Pin34_DM_RES_UPDWN  Resistive Pull Up/Down 
  62:.\Generated_Source\PSoC5/Pin34.c **** *  Pin34_DM_DIG_HIZ    High Impedance Digital 
  63:.\Generated_Source\PSoC5/Pin34.c **** *  Pin34_DM_ALG_HIZ    High Impedance Analog 
  64:.\Generated_Source\PSoC5/Pin34.c **** *
  65:.\Generated_Source\PSoC5/Pin34.c **** * Return: 
  66:.\Generated_Source\PSoC5/Pin34.c **** *  None
  67:.\Generated_Source\PSoC5/Pin34.c **** *
  68:.\Generated_Source\PSoC5/Pin34.c **** *******************************************************************************/
  69:.\Generated_Source\PSoC5/Pin34.c **** void Pin34_SetDriveMode(uint8 mode) 
  70:.\Generated_Source\PSoC5/Pin34.c **** {
  79              		.loc 1 70 0
  80              		.cfi_startproc
  81              		@ args = 0, pretend = 0, frame = 8
  82              		@ frame_needed = 1, uses_anonymous_args = 0
  83              		@ link register save eliminated.
  84 0000 80B4     		push	{r7}
  85              		.cfi_def_cfa_offset 4
  86              		.cfi_offset 7, -4
  87 0002 83B0     		sub	sp, sp, #12
  88              		.cfi_def_cfa_offset 16
  89 0004 00AF     		add	r7, sp, #0
  90              		.cfi_def_cfa_register 7
  91 0006 0346     		mov	r3, r0
  92 0008 FB71     		strb	r3, [r7, #7]
  71:.\Generated_Source\PSoC5/Pin34.c **** 	CyPins_SetPinDriveMode(Pin34_0, mode);
  93              		.loc 1 71 0
  94 000a 0A4B     		ldr	r3, .L5
  95 000c 094A     		ldr	r2, .L5
  96 000e 1278     		ldrb	r2, [r2]
  97 0010 D2B2     		uxtb	r2, r2
  98 0012 D2B2     		uxtb	r2, r2
  99 0014 22F00E02 		bic	r2, r2, #14
 100 0018 D1B2     		uxtb	r1, r2
ARM GAS  C:\Users\BRANKO~1\AppData\Local\Temp\ccDiXIUD.s 			page 4


 101 001a FA79     		ldrb	r2, [r7, #7]	@ zero_extendqisi2
 102 001c 02F00E02 		and	r2, r2, #14
 103 0020 D2B2     		uxtb	r2, r2
 104 0022 0A43     		orrs	r2, r2, r1
 105 0024 D2B2     		uxtb	r2, r2
 106 0026 D2B2     		uxtb	r2, r2
 107 0028 1A70     		strb	r2, [r3]
  72:.\Generated_Source\PSoC5/Pin34.c **** }
 108              		.loc 1 72 0
 109 002a 0C37     		adds	r7, r7, #12
 110 002c BD46     		mov	sp, r7
 111              		@ sp needed
 112 002e 5DF8047B 		ldr	r7, [sp], #4
 113 0032 7047     		bx	lr
 114              	.L6:
 115              		.align	2
 116              	.L5:
 117 0034 15500040 		.word	1073762325
 118              		.cfi_endproc
 119              	.LFE1:
 120              		.size	Pin34_SetDriveMode, .-Pin34_SetDriveMode
 121              		.section	.text.Pin34_Read,"ax",%progbits
 122              		.align	2
 123              		.global	Pin34_Read
 124              		.thumb
 125              		.thumb_func
 126              		.type	Pin34_Read, %function
 127              	Pin34_Read:
 128              	.LFB2:
  73:.\Generated_Source\PSoC5/Pin34.c **** 
  74:.\Generated_Source\PSoC5/Pin34.c **** 
  75:.\Generated_Source\PSoC5/Pin34.c **** /*******************************************************************************
  76:.\Generated_Source\PSoC5/Pin34.c **** * Function Name: Pin34_Read
  77:.\Generated_Source\PSoC5/Pin34.c **** ********************************************************************************
  78:.\Generated_Source\PSoC5/Pin34.c **** *
  79:.\Generated_Source\PSoC5/Pin34.c **** * Summary:
  80:.\Generated_Source\PSoC5/Pin34.c **** *  Read the current value on the pins of the Digital Port in right justified 
  81:.\Generated_Source\PSoC5/Pin34.c **** *  form.
  82:.\Generated_Source\PSoC5/Pin34.c **** *
  83:.\Generated_Source\PSoC5/Pin34.c **** * Parameters:  
  84:.\Generated_Source\PSoC5/Pin34.c **** *  None
  85:.\Generated_Source\PSoC5/Pin34.c **** *
  86:.\Generated_Source\PSoC5/Pin34.c **** * Return: 
  87:.\Generated_Source\PSoC5/Pin34.c **** *  Returns the current value of the Digital Port as a right justified number
  88:.\Generated_Source\PSoC5/Pin34.c **** *  
  89:.\Generated_Source\PSoC5/Pin34.c **** * Note:
  90:.\Generated_Source\PSoC5/Pin34.c **** *  Macro Pin34_ReadPS calls this function. 
  91:.\Generated_Source\PSoC5/Pin34.c **** *  
  92:.\Generated_Source\PSoC5/Pin34.c **** *******************************************************************************/
  93:.\Generated_Source\PSoC5/Pin34.c **** uint8 Pin34_Read(void) 
  94:.\Generated_Source\PSoC5/Pin34.c **** {
 129              		.loc 1 94 0
 130              		.cfi_startproc
 131              		@ args = 0, pretend = 0, frame = 0
 132              		@ frame_needed = 1, uses_anonymous_args = 0
 133              		@ link register save eliminated.
 134 0000 80B4     		push	{r7}
ARM GAS  C:\Users\BRANKO~1\AppData\Local\Temp\ccDiXIUD.s 			page 5


 135              		.cfi_def_cfa_offset 4
 136              		.cfi_offset 7, -4
 137 0002 00AF     		add	r7, sp, #0
 138              		.cfi_def_cfa_register 7
  95:.\Generated_Source\PSoC5/Pin34.c ****     return (Pin34_PS & Pin34_MASK) >> Pin34_SHIFT;
 139              		.loc 1 95 0
 140 0004 054B     		ldr	r3, .L9
 141 0006 1B78     		ldrb	r3, [r3]
 142 0008 DBB2     		uxtb	r3, r3
 143 000a 03F02003 		and	r3, r3, #32
 144 000e 5B09     		lsrs	r3, r3, #5
 145 0010 DBB2     		uxtb	r3, r3
  96:.\Generated_Source\PSoC5/Pin34.c **** }
 146              		.loc 1 96 0
 147 0012 1846     		mov	r0, r3
 148 0014 BD46     		mov	sp, r7
 149              		@ sp needed
 150 0016 5DF8047B 		ldr	r7, [sp], #4
 151 001a 7047     		bx	lr
 152              	.L10:
 153              		.align	2
 154              	.L9:
 155 001c 21510040 		.word	1073762593
 156              		.cfi_endproc
 157              	.LFE2:
 158              		.size	Pin34_Read, .-Pin34_Read
 159              		.section	.text.Pin34_ReadDataReg,"ax",%progbits
 160              		.align	2
 161              		.global	Pin34_ReadDataReg
 162              		.thumb
 163              		.thumb_func
 164              		.type	Pin34_ReadDataReg, %function
 165              	Pin34_ReadDataReg:
 166              	.LFB3:
  97:.\Generated_Source\PSoC5/Pin34.c **** 
  98:.\Generated_Source\PSoC5/Pin34.c **** 
  99:.\Generated_Source\PSoC5/Pin34.c **** /*******************************************************************************
 100:.\Generated_Source\PSoC5/Pin34.c **** * Function Name: Pin34_ReadDataReg
 101:.\Generated_Source\PSoC5/Pin34.c **** ********************************************************************************
 102:.\Generated_Source\PSoC5/Pin34.c **** *
 103:.\Generated_Source\PSoC5/Pin34.c **** * Summary:
 104:.\Generated_Source\PSoC5/Pin34.c **** *  Read the current value assigned to a Digital Port's data output register
 105:.\Generated_Source\PSoC5/Pin34.c **** *
 106:.\Generated_Source\PSoC5/Pin34.c **** * Parameters:  
 107:.\Generated_Source\PSoC5/Pin34.c **** *  None 
 108:.\Generated_Source\PSoC5/Pin34.c **** *
 109:.\Generated_Source\PSoC5/Pin34.c **** * Return: 
 110:.\Generated_Source\PSoC5/Pin34.c **** *  Returns the current value assigned to the Digital Port's data output register
 111:.\Generated_Source\PSoC5/Pin34.c **** *  
 112:.\Generated_Source\PSoC5/Pin34.c **** *******************************************************************************/
 113:.\Generated_Source\PSoC5/Pin34.c **** uint8 Pin34_ReadDataReg(void) 
 114:.\Generated_Source\PSoC5/Pin34.c **** {
 167              		.loc 1 114 0
 168              		.cfi_startproc
 169              		@ args = 0, pretend = 0, frame = 0
 170              		@ frame_needed = 1, uses_anonymous_args = 0
 171              		@ link register save eliminated.
ARM GAS  C:\Users\BRANKO~1\AppData\Local\Temp\ccDiXIUD.s 			page 6


 172 0000 80B4     		push	{r7}
 173              		.cfi_def_cfa_offset 4
 174              		.cfi_offset 7, -4
 175 0002 00AF     		add	r7, sp, #0
 176              		.cfi_def_cfa_register 7
 115:.\Generated_Source\PSoC5/Pin34.c ****     return (Pin34_DR & Pin34_MASK) >> Pin34_SHIFT;
 177              		.loc 1 115 0
 178 0004 054B     		ldr	r3, .L13
 179 0006 1B78     		ldrb	r3, [r3]
 180 0008 DBB2     		uxtb	r3, r3
 181 000a 03F02003 		and	r3, r3, #32
 182 000e 5B09     		lsrs	r3, r3, #5
 183 0010 DBB2     		uxtb	r3, r3
 116:.\Generated_Source\PSoC5/Pin34.c **** }
 184              		.loc 1 116 0
 185 0012 1846     		mov	r0, r3
 186 0014 BD46     		mov	sp, r7
 187              		@ sp needed
 188 0016 5DF8047B 		ldr	r7, [sp], #4
 189 001a 7047     		bx	lr
 190              	.L14:
 191              		.align	2
 192              	.L13:
 193 001c 20510040 		.word	1073762592
 194              		.cfi_endproc
 195              	.LFE3:
 196              		.size	Pin34_ReadDataReg, .-Pin34_ReadDataReg
 197              		.text
 198              	.Letext0:
 199              		.file 2 ".\\Generated_Source\\PSoC5\\cytypes.h"