ARM GAS  C:\Users\BRANKO~1\AppData\Local\Temp\ccnZ0QEj.s 			page 1


   1              		.syntax unified
   2              		.cpu cortex-m3
   3              		.fpu softvfp
   4              		.eabi_attribute 20, 1
   5              		.eabi_attribute 21, 1
   6              		.eabi_attribute 23, 3
   7              		.eabi_attribute 24, 1
   8              		.eabi_attribute 25, 1
   9              		.eabi_attribute 26, 1
  10              		.eabi_attribute 30, 6
  11              		.eabi_attribute 34, 1
  12              		.eabi_attribute 18, 4
  13              		.thumb
  14              		.file	"uart_ultrasonic_PM.c"
  15              		.text
  16              	.Ltext0:
  17              		.cfi_sections	.debug_frame
  18              		.bss
  19              		.align	2
  20              	uart_ultrasonic_backup:
  21 0000 0000     		.space	2
  22 0002 0000     		.section	.text.uart_ultrasonic_SaveConfig,"ax",%progbits
  23              		.align	2
  24              		.global	uart_ultrasonic_SaveConfig
  25              		.thumb
  26              		.thumb_func
  27              		.type	uart_ultrasonic_SaveConfig, %function
  28              	uart_ultrasonic_SaveConfig:
  29              	.LFB0:
  30              		.file 1 ".\\Generated_Source\\PSoC5\\uart_ultrasonic_PM.c"
   1:.\Generated_Source\PSoC5/uart_ultrasonic_PM.c **** /*******************************************************************************
   2:.\Generated_Source\PSoC5/uart_ultrasonic_PM.c **** * File Name: uart_ultrasonic_PM.c
   3:.\Generated_Source\PSoC5/uart_ultrasonic_PM.c **** * Version 2.30
   4:.\Generated_Source\PSoC5/uart_ultrasonic_PM.c **** *
   5:.\Generated_Source\PSoC5/uart_ultrasonic_PM.c **** * Description:
   6:.\Generated_Source\PSoC5/uart_ultrasonic_PM.c **** *  This file provides Sleep/WakeUp APIs functionality.
   7:.\Generated_Source\PSoC5/uart_ultrasonic_PM.c **** *
   8:.\Generated_Source\PSoC5/uart_ultrasonic_PM.c **** * Note:
   9:.\Generated_Source\PSoC5/uart_ultrasonic_PM.c **** *
  10:.\Generated_Source\PSoC5/uart_ultrasonic_PM.c **** ********************************************************************************
  11:.\Generated_Source\PSoC5/uart_ultrasonic_PM.c **** * Copyright 2008-2012, Cypress Semiconductor Corporation.  All rights reserved.
  12:.\Generated_Source\PSoC5/uart_ultrasonic_PM.c **** * You may use this file only in accordance with the license, terms, conditions,
  13:.\Generated_Source\PSoC5/uart_ultrasonic_PM.c **** * disclaimers, and limitations in the end user license agreement accompanying
  14:.\Generated_Source\PSoC5/uart_ultrasonic_PM.c **** * the software package with which this file was provided.
  15:.\Generated_Source\PSoC5/uart_ultrasonic_PM.c **** *******************************************************************************/
  16:.\Generated_Source\PSoC5/uart_ultrasonic_PM.c **** 
  17:.\Generated_Source\PSoC5/uart_ultrasonic_PM.c **** #include "uart_ultrasonic.h"
  18:.\Generated_Source\PSoC5/uart_ultrasonic_PM.c **** 
  19:.\Generated_Source\PSoC5/uart_ultrasonic_PM.c **** 
  20:.\Generated_Source\PSoC5/uart_ultrasonic_PM.c **** /***************************************
  21:.\Generated_Source\PSoC5/uart_ultrasonic_PM.c **** * Local data allocation
  22:.\Generated_Source\PSoC5/uart_ultrasonic_PM.c **** ***************************************/
  23:.\Generated_Source\PSoC5/uart_ultrasonic_PM.c **** 
  24:.\Generated_Source\PSoC5/uart_ultrasonic_PM.c **** static uart_ultrasonic_BACKUP_STRUCT  uart_ultrasonic_backup =
  25:.\Generated_Source\PSoC5/uart_ultrasonic_PM.c **** {
  26:.\Generated_Source\PSoC5/uart_ultrasonic_PM.c ****     /* enableState - disabled */
  27:.\Generated_Source\PSoC5/uart_ultrasonic_PM.c ****     0u,
ARM GAS  C:\Users\BRANKO~1\AppData\Local\Temp\ccnZ0QEj.s 			page 2


  28:.\Generated_Source\PSoC5/uart_ultrasonic_PM.c **** };
  29:.\Generated_Source\PSoC5/uart_ultrasonic_PM.c **** 
  30:.\Generated_Source\PSoC5/uart_ultrasonic_PM.c **** 
  31:.\Generated_Source\PSoC5/uart_ultrasonic_PM.c **** 
  32:.\Generated_Source\PSoC5/uart_ultrasonic_PM.c **** /*******************************************************************************
  33:.\Generated_Source\PSoC5/uart_ultrasonic_PM.c **** * Function Name: uart_ultrasonic_SaveConfig
  34:.\Generated_Source\PSoC5/uart_ultrasonic_PM.c **** ********************************************************************************
  35:.\Generated_Source\PSoC5/uart_ultrasonic_PM.c **** *
  36:.\Generated_Source\PSoC5/uart_ultrasonic_PM.c **** * Summary:
  37:.\Generated_Source\PSoC5/uart_ultrasonic_PM.c **** *  Saves the current user configuration.
  38:.\Generated_Source\PSoC5/uart_ultrasonic_PM.c **** *
  39:.\Generated_Source\PSoC5/uart_ultrasonic_PM.c **** * Parameters:
  40:.\Generated_Source\PSoC5/uart_ultrasonic_PM.c **** *  None.
  41:.\Generated_Source\PSoC5/uart_ultrasonic_PM.c **** *
  42:.\Generated_Source\PSoC5/uart_ultrasonic_PM.c **** * Return:
  43:.\Generated_Source\PSoC5/uart_ultrasonic_PM.c **** *  None.
  44:.\Generated_Source\PSoC5/uart_ultrasonic_PM.c **** *
  45:.\Generated_Source\PSoC5/uart_ultrasonic_PM.c **** * Global Variables:
  46:.\Generated_Source\PSoC5/uart_ultrasonic_PM.c **** *  uart_ultrasonic_backup - modified when non-retention registers are saved.
  47:.\Generated_Source\PSoC5/uart_ultrasonic_PM.c **** *
  48:.\Generated_Source\PSoC5/uart_ultrasonic_PM.c **** * Reentrant:
  49:.\Generated_Source\PSoC5/uart_ultrasonic_PM.c **** *  No.
  50:.\Generated_Source\PSoC5/uart_ultrasonic_PM.c **** *
  51:.\Generated_Source\PSoC5/uart_ultrasonic_PM.c **** *******************************************************************************/
  52:.\Generated_Source\PSoC5/uart_ultrasonic_PM.c **** void uart_ultrasonic_SaveConfig(void)
  53:.\Generated_Source\PSoC5/uart_ultrasonic_PM.c **** {
  31              		.loc 1 53 0
  32              		.cfi_startproc
  33              		@ args = 0, pretend = 0, frame = 0
  34              		@ frame_needed = 1, uses_anonymous_args = 0
  35              		@ link register save eliminated.
  36 0000 80B4     		push	{r7}
  37              		.cfi_def_cfa_offset 4
  38              		.cfi_offset 7, -4
  39 0002 00AF     		add	r7, sp, #0
  40              		.cfi_def_cfa_register 7
  54:.\Generated_Source\PSoC5/uart_ultrasonic_PM.c ****     #if (CY_UDB_V0)
  55:.\Generated_Source\PSoC5/uart_ultrasonic_PM.c **** 
  56:.\Generated_Source\PSoC5/uart_ultrasonic_PM.c ****         #if(uart_ultrasonic_CONTROL_REG_REMOVED == 0u)
  57:.\Generated_Source\PSoC5/uart_ultrasonic_PM.c ****             uart_ultrasonic_backup.cr = uart_ultrasonic_CONTROL_REG;
  58:.\Generated_Source\PSoC5/uart_ultrasonic_PM.c ****         #endif /* End uart_ultrasonic_CONTROL_REG_REMOVED */
  59:.\Generated_Source\PSoC5/uart_ultrasonic_PM.c **** 
  60:.\Generated_Source\PSoC5/uart_ultrasonic_PM.c ****         #if( (uart_ultrasonic_RX_ENABLED) || (uart_ultrasonic_HD_ENABLED) )
  61:.\Generated_Source\PSoC5/uart_ultrasonic_PM.c ****             uart_ultrasonic_backup.rx_period = uart_ultrasonic_RXBITCTR_PERIOD_REG;
  62:.\Generated_Source\PSoC5/uart_ultrasonic_PM.c ****             uart_ultrasonic_backup.rx_mask = uart_ultrasonic_RXSTATUS_MASK_REG;
  63:.\Generated_Source\PSoC5/uart_ultrasonic_PM.c ****             #if (uart_ultrasonic_RXHW_ADDRESS_ENABLED)
  64:.\Generated_Source\PSoC5/uart_ultrasonic_PM.c ****                 uart_ultrasonic_backup.rx_addr1 = uart_ultrasonic_RXADDRESS1_REG;
  65:.\Generated_Source\PSoC5/uart_ultrasonic_PM.c ****                 uart_ultrasonic_backup.rx_addr2 = uart_ultrasonic_RXADDRESS2_REG;
  66:.\Generated_Source\PSoC5/uart_ultrasonic_PM.c ****             #endif /* End uart_ultrasonic_RXHW_ADDRESS_ENABLED */
  67:.\Generated_Source\PSoC5/uart_ultrasonic_PM.c ****         #endif /* End uart_ultrasonic_RX_ENABLED | uart_ultrasonic_HD_ENABLED*/
  68:.\Generated_Source\PSoC5/uart_ultrasonic_PM.c **** 
  69:.\Generated_Source\PSoC5/uart_ultrasonic_PM.c ****         #if(uart_ultrasonic_TX_ENABLED)
  70:.\Generated_Source\PSoC5/uart_ultrasonic_PM.c ****             #if(uart_ultrasonic_TXCLKGEN_DP)
  71:.\Generated_Source\PSoC5/uart_ultrasonic_PM.c ****                 uart_ultrasonic_backup.tx_clk_ctr = uart_ultrasonic_TXBITCLKGEN_CTR_REG;
  72:.\Generated_Source\PSoC5/uart_ultrasonic_PM.c ****                 uart_ultrasonic_backup.tx_clk_compl = uart_ultrasonic_TXBITCLKTX_COMPLETE_REG;
  73:.\Generated_Source\PSoC5/uart_ultrasonic_PM.c ****             #else
  74:.\Generated_Source\PSoC5/uart_ultrasonic_PM.c ****                 uart_ultrasonic_backup.tx_period = uart_ultrasonic_TXBITCTR_PERIOD_REG;
ARM GAS  C:\Users\BRANKO~1\AppData\Local\Temp\ccnZ0QEj.s 			page 3


  75:.\Generated_Source\PSoC5/uart_ultrasonic_PM.c ****             #endif /*End uart_ultrasonic_TXCLKGEN_DP */
  76:.\Generated_Source\PSoC5/uart_ultrasonic_PM.c ****             uart_ultrasonic_backup.tx_mask = uart_ultrasonic_TXSTATUS_MASK_REG;
  77:.\Generated_Source\PSoC5/uart_ultrasonic_PM.c ****         #endif /*End uart_ultrasonic_TX_ENABLED */
  78:.\Generated_Source\PSoC5/uart_ultrasonic_PM.c **** 
  79:.\Generated_Source\PSoC5/uart_ultrasonic_PM.c **** 
  80:.\Generated_Source\PSoC5/uart_ultrasonic_PM.c ****     #else /* CY_UDB_V1 */
  81:.\Generated_Source\PSoC5/uart_ultrasonic_PM.c **** 
  82:.\Generated_Source\PSoC5/uart_ultrasonic_PM.c ****         #if(uart_ultrasonic_CONTROL_REG_REMOVED == 0u)
  83:.\Generated_Source\PSoC5/uart_ultrasonic_PM.c ****             uart_ultrasonic_backup.cr = uart_ultrasonic_CONTROL_REG;
  84:.\Generated_Source\PSoC5/uart_ultrasonic_PM.c ****         #endif /* End uart_ultrasonic_CONTROL_REG_REMOVED */
  85:.\Generated_Source\PSoC5/uart_ultrasonic_PM.c **** 
  86:.\Generated_Source\PSoC5/uart_ultrasonic_PM.c ****     #endif  /* End CY_UDB_V0 */
  87:.\Generated_Source\PSoC5/uart_ultrasonic_PM.c **** }
  41              		.loc 1 87 0
  42 0004 BD46     		mov	sp, r7
  43              		@ sp needed
  44 0006 5DF8047B 		ldr	r7, [sp], #4
  45 000a 7047     		bx	lr
  46              		.cfi_endproc
  47              	.LFE0:
  48              		.size	uart_ultrasonic_SaveConfig, .-uart_ultrasonic_SaveConfig
  49              		.section	.text.uart_ultrasonic_RestoreConfig,"ax",%progbits
  50              		.align	2
  51              		.global	uart_ultrasonic_RestoreConfig
  52              		.thumb
  53              		.thumb_func
  54              		.type	uart_ultrasonic_RestoreConfig, %function
  55              	uart_ultrasonic_RestoreConfig:
  56              	.LFB1:
  88:.\Generated_Source\PSoC5/uart_ultrasonic_PM.c **** 
  89:.\Generated_Source\PSoC5/uart_ultrasonic_PM.c **** 
  90:.\Generated_Source\PSoC5/uart_ultrasonic_PM.c **** /*******************************************************************************
  91:.\Generated_Source\PSoC5/uart_ultrasonic_PM.c **** * Function Name: uart_ultrasonic_RestoreConfig
  92:.\Generated_Source\PSoC5/uart_ultrasonic_PM.c **** ********************************************************************************
  93:.\Generated_Source\PSoC5/uart_ultrasonic_PM.c **** *
  94:.\Generated_Source\PSoC5/uart_ultrasonic_PM.c **** * Summary:
  95:.\Generated_Source\PSoC5/uart_ultrasonic_PM.c **** *  Restores the current user configuration.
  96:.\Generated_Source\PSoC5/uart_ultrasonic_PM.c **** *
  97:.\Generated_Source\PSoC5/uart_ultrasonic_PM.c **** * Parameters:
  98:.\Generated_Source\PSoC5/uart_ultrasonic_PM.c **** *  None.
  99:.\Generated_Source\PSoC5/uart_ultrasonic_PM.c **** *
 100:.\Generated_Source\PSoC5/uart_ultrasonic_PM.c **** * Return:
 101:.\Generated_Source\PSoC5/uart_ultrasonic_PM.c **** *  None.
 102:.\Generated_Source\PSoC5/uart_ultrasonic_PM.c **** *
 103:.\Generated_Source\PSoC5/uart_ultrasonic_PM.c **** * Global Variables:
 104:.\Generated_Source\PSoC5/uart_ultrasonic_PM.c **** *  uart_ultrasonic_backup - used when non-retention registers are restored.
 105:.\Generated_Source\PSoC5/uart_ultrasonic_PM.c **** *
 106:.\Generated_Source\PSoC5/uart_ultrasonic_PM.c **** * Reentrant:
 107:.\Generated_Source\PSoC5/uart_ultrasonic_PM.c **** *  No.
 108:.\Generated_Source\PSoC5/uart_ultrasonic_PM.c **** *
 109:.\Generated_Source\PSoC5/uart_ultrasonic_PM.c **** *******************************************************************************/
 110:.\Generated_Source\PSoC5/uart_ultrasonic_PM.c **** void uart_ultrasonic_RestoreConfig(void)
 111:.\Generated_Source\PSoC5/uart_ultrasonic_PM.c **** {
  57              		.loc 1 111 0
  58              		.cfi_startproc
  59              		@ args = 0, pretend = 0, frame = 0
  60              		@ frame_needed = 1, uses_anonymous_args = 0
ARM GAS  C:\Users\BRANKO~1\AppData\Local\Temp\ccnZ0QEj.s 			page 4


  61              		@ link register save eliminated.
  62 0000 80B4     		push	{r7}
  63              		.cfi_def_cfa_offset 4
  64              		.cfi_offset 7, -4
  65 0002 00AF     		add	r7, sp, #0
  66              		.cfi_def_cfa_register 7
 112:.\Generated_Source\PSoC5/uart_ultrasonic_PM.c **** 
 113:.\Generated_Source\PSoC5/uart_ultrasonic_PM.c ****     #if (CY_UDB_V0)
 114:.\Generated_Source\PSoC5/uart_ultrasonic_PM.c **** 
 115:.\Generated_Source\PSoC5/uart_ultrasonic_PM.c ****         #if(uart_ultrasonic_CONTROL_REG_REMOVED == 0u)
 116:.\Generated_Source\PSoC5/uart_ultrasonic_PM.c ****             uart_ultrasonic_CONTROL_REG = uart_ultrasonic_backup.cr;
 117:.\Generated_Source\PSoC5/uart_ultrasonic_PM.c ****         #endif /* End uart_ultrasonic_CONTROL_REG_REMOVED */
 118:.\Generated_Source\PSoC5/uart_ultrasonic_PM.c **** 
 119:.\Generated_Source\PSoC5/uart_ultrasonic_PM.c ****         #if( (uart_ultrasonic_RX_ENABLED) || (uart_ultrasonic_HD_ENABLED) )
 120:.\Generated_Source\PSoC5/uart_ultrasonic_PM.c ****             uart_ultrasonic_RXBITCTR_PERIOD_REG = uart_ultrasonic_backup.rx_period;
 121:.\Generated_Source\PSoC5/uart_ultrasonic_PM.c ****             uart_ultrasonic_RXSTATUS_MASK_REG = uart_ultrasonic_backup.rx_mask;
 122:.\Generated_Source\PSoC5/uart_ultrasonic_PM.c ****             #if (uart_ultrasonic_RXHW_ADDRESS_ENABLED)
 123:.\Generated_Source\PSoC5/uart_ultrasonic_PM.c ****                 uart_ultrasonic_RXADDRESS1_REG = uart_ultrasonic_backup.rx_addr1;
 124:.\Generated_Source\PSoC5/uart_ultrasonic_PM.c ****                 uart_ultrasonic_RXADDRESS2_REG = uart_ultrasonic_backup.rx_addr2;
 125:.\Generated_Source\PSoC5/uart_ultrasonic_PM.c ****             #endif /* End uart_ultrasonic_RXHW_ADDRESS_ENABLED */
 126:.\Generated_Source\PSoC5/uart_ultrasonic_PM.c ****         #endif  /* End (uart_ultrasonic_RX_ENABLED) || (uart_ultrasonic_HD_ENABLED) */
 127:.\Generated_Source\PSoC5/uart_ultrasonic_PM.c **** 
 128:.\Generated_Source\PSoC5/uart_ultrasonic_PM.c ****         #if(uart_ultrasonic_TX_ENABLED)
 129:.\Generated_Source\PSoC5/uart_ultrasonic_PM.c ****             #if(uart_ultrasonic_TXCLKGEN_DP)
 130:.\Generated_Source\PSoC5/uart_ultrasonic_PM.c ****                 uart_ultrasonic_TXBITCLKGEN_CTR_REG = uart_ultrasonic_backup.tx_clk_ctr;
 131:.\Generated_Source\PSoC5/uart_ultrasonic_PM.c ****                 uart_ultrasonic_TXBITCLKTX_COMPLETE_REG = uart_ultrasonic_backup.tx_clk_compl;
 132:.\Generated_Source\PSoC5/uart_ultrasonic_PM.c ****             #else
 133:.\Generated_Source\PSoC5/uart_ultrasonic_PM.c ****                 uart_ultrasonic_TXBITCTR_PERIOD_REG = uart_ultrasonic_backup.tx_period;
 134:.\Generated_Source\PSoC5/uart_ultrasonic_PM.c ****             #endif /*End uart_ultrasonic_TXCLKGEN_DP */
 135:.\Generated_Source\PSoC5/uart_ultrasonic_PM.c ****             uart_ultrasonic_TXSTATUS_MASK_REG = uart_ultrasonic_backup.tx_mask;
 136:.\Generated_Source\PSoC5/uart_ultrasonic_PM.c ****         #endif /*End uart_ultrasonic_TX_ENABLED */
 137:.\Generated_Source\PSoC5/uart_ultrasonic_PM.c **** 
 138:.\Generated_Source\PSoC5/uart_ultrasonic_PM.c ****     #else /* CY_UDB_V1 */
 139:.\Generated_Source\PSoC5/uart_ultrasonic_PM.c **** 
 140:.\Generated_Source\PSoC5/uart_ultrasonic_PM.c ****         #if(uart_ultrasonic_CONTROL_REG_REMOVED == 0u)
 141:.\Generated_Source\PSoC5/uart_ultrasonic_PM.c ****             uart_ultrasonic_CONTROL_REG = uart_ultrasonic_backup.cr;
 142:.\Generated_Source\PSoC5/uart_ultrasonic_PM.c ****         #endif /* End uart_ultrasonic_CONTROL_REG_REMOVED */
 143:.\Generated_Source\PSoC5/uart_ultrasonic_PM.c **** 
 144:.\Generated_Source\PSoC5/uart_ultrasonic_PM.c ****     #endif  /* End CY_UDB_V0 */
 145:.\Generated_Source\PSoC5/uart_ultrasonic_PM.c **** }
  67              		.loc 1 145 0
  68 0004 BD46     		mov	sp, r7
  69              		@ sp needed
  70 0006 5DF8047B 		ldr	r7, [sp], #4
  71 000a 7047     		bx	lr
  72              		.cfi_endproc
  73              	.LFE1:
  74              		.size	uart_ultrasonic_RestoreConfig, .-uart_ultrasonic_RestoreConfig
  75              		.section	.text.uart_ultrasonic_Sleep,"ax",%progbits
  76              		.align	2
  77              		.global	uart_ultrasonic_Sleep
  78              		.thumb
  79              		.thumb_func
  80              		.type	uart_ultrasonic_Sleep, %function
  81              	uart_ultrasonic_Sleep:
  82              	.LFB2:
 146:.\Generated_Source\PSoC5/uart_ultrasonic_PM.c **** 
ARM GAS  C:\Users\BRANKO~1\AppData\Local\Temp\ccnZ0QEj.s 			page 5


 147:.\Generated_Source\PSoC5/uart_ultrasonic_PM.c **** 
 148:.\Generated_Source\PSoC5/uart_ultrasonic_PM.c **** /*******************************************************************************
 149:.\Generated_Source\PSoC5/uart_ultrasonic_PM.c **** * Function Name: uart_ultrasonic_Sleep
 150:.\Generated_Source\PSoC5/uart_ultrasonic_PM.c **** ********************************************************************************
 151:.\Generated_Source\PSoC5/uart_ultrasonic_PM.c **** *
 152:.\Generated_Source\PSoC5/uart_ultrasonic_PM.c **** * Summary:
 153:.\Generated_Source\PSoC5/uart_ultrasonic_PM.c **** *  Stops and saves the user configuration. Should be called
 154:.\Generated_Source\PSoC5/uart_ultrasonic_PM.c **** *  just prior to entering sleep.
 155:.\Generated_Source\PSoC5/uart_ultrasonic_PM.c **** *
 156:.\Generated_Source\PSoC5/uart_ultrasonic_PM.c **** *
 157:.\Generated_Source\PSoC5/uart_ultrasonic_PM.c **** * Parameters:
 158:.\Generated_Source\PSoC5/uart_ultrasonic_PM.c **** *  None.
 159:.\Generated_Source\PSoC5/uart_ultrasonic_PM.c **** *
 160:.\Generated_Source\PSoC5/uart_ultrasonic_PM.c **** * Return:
 161:.\Generated_Source\PSoC5/uart_ultrasonic_PM.c **** *  None.
 162:.\Generated_Source\PSoC5/uart_ultrasonic_PM.c **** *
 163:.\Generated_Source\PSoC5/uart_ultrasonic_PM.c **** * Global Variables:
 164:.\Generated_Source\PSoC5/uart_ultrasonic_PM.c **** *  uart_ultrasonic_backup - modified when non-retention registers are saved.
 165:.\Generated_Source\PSoC5/uart_ultrasonic_PM.c **** *
 166:.\Generated_Source\PSoC5/uart_ultrasonic_PM.c **** * Reentrant:
 167:.\Generated_Source\PSoC5/uart_ultrasonic_PM.c **** *  No.
 168:.\Generated_Source\PSoC5/uart_ultrasonic_PM.c **** *
 169:.\Generated_Source\PSoC5/uart_ultrasonic_PM.c **** *******************************************************************************/
 170:.\Generated_Source\PSoC5/uart_ultrasonic_PM.c **** void uart_ultrasonic_Sleep(void)
 171:.\Generated_Source\PSoC5/uart_ultrasonic_PM.c **** {
  83              		.loc 1 171 0
  84              		.cfi_startproc
  85              		@ args = 0, pretend = 0, frame = 0
  86              		@ frame_needed = 1, uses_anonymous_args = 0
  87 0000 80B5     		push	{r7, lr}
  88              		.cfi_def_cfa_offset 8
  89              		.cfi_offset 7, -8
  90              		.cfi_offset 14, -4
  91 0002 00AF     		add	r7, sp, #0
  92              		.cfi_def_cfa_register 7
 172:.\Generated_Source\PSoC5/uart_ultrasonic_PM.c **** 
 173:.\Generated_Source\PSoC5/uart_ultrasonic_PM.c ****     #if(uart_ultrasonic_RX_ENABLED || uart_ultrasonic_HD_ENABLED)
 174:.\Generated_Source\PSoC5/uart_ultrasonic_PM.c ****         if((uart_ultrasonic_RXSTATUS_ACTL_REG  & uart_ultrasonic_INT_ENABLE) != 0u)
  93              		.loc 1 174 0
  94 0004 094B     		ldr	r3, .L6
  95 0006 1B78     		ldrb	r3, [r3]
  96 0008 DBB2     		uxtb	r3, r3
  97 000a 03F01003 		and	r3, r3, #16
  98 000e 002B     		cmp	r3, #0
  99 0010 03D0     		beq	.L4
 175:.\Generated_Source\PSoC5/uart_ultrasonic_PM.c ****         {
 176:.\Generated_Source\PSoC5/uart_ultrasonic_PM.c ****             uart_ultrasonic_backup.enableState = 1u;
 100              		.loc 1 176 0
 101 0012 074B     		ldr	r3, .L6+4
 102 0014 0122     		movs	r2, #1
 103 0016 1A70     		strb	r2, [r3]
 104 0018 02E0     		b	.L5
 105              	.L4:
 177:.\Generated_Source\PSoC5/uart_ultrasonic_PM.c ****         }
 178:.\Generated_Source\PSoC5/uart_ultrasonic_PM.c ****         else
 179:.\Generated_Source\PSoC5/uart_ultrasonic_PM.c ****         {
 180:.\Generated_Source\PSoC5/uart_ultrasonic_PM.c ****             uart_ultrasonic_backup.enableState = 0u;
ARM GAS  C:\Users\BRANKO~1\AppData\Local\Temp\ccnZ0QEj.s 			page 6


 106              		.loc 1 180 0
 107 001a 054B     		ldr	r3, .L6+4
 108 001c 0022     		movs	r2, #0
 109 001e 1A70     		strb	r2, [r3]
 110              	.L5:
 181:.\Generated_Source\PSoC5/uart_ultrasonic_PM.c ****         }
 182:.\Generated_Source\PSoC5/uart_ultrasonic_PM.c ****     #else
 183:.\Generated_Source\PSoC5/uart_ultrasonic_PM.c ****         if((uart_ultrasonic_TXSTATUS_ACTL_REG  & uart_ultrasonic_INT_ENABLE) !=0u)
 184:.\Generated_Source\PSoC5/uart_ultrasonic_PM.c ****         {
 185:.\Generated_Source\PSoC5/uart_ultrasonic_PM.c ****             uart_ultrasonic_backup.enableState = 1u;
 186:.\Generated_Source\PSoC5/uart_ultrasonic_PM.c ****         }
 187:.\Generated_Source\PSoC5/uart_ultrasonic_PM.c ****         else
 188:.\Generated_Source\PSoC5/uart_ultrasonic_PM.c ****         {
 189:.\Generated_Source\PSoC5/uart_ultrasonic_PM.c ****             uart_ultrasonic_backup.enableState = 0u;
 190:.\Generated_Source\PSoC5/uart_ultrasonic_PM.c ****         }
 191:.\Generated_Source\PSoC5/uart_ultrasonic_PM.c ****     #endif /* End uart_ultrasonic_RX_ENABLED || uart_ultrasonic_HD_ENABLED*/
 192:.\Generated_Source\PSoC5/uart_ultrasonic_PM.c **** 
 193:.\Generated_Source\PSoC5/uart_ultrasonic_PM.c ****     uart_ultrasonic_Stop();
 111              		.loc 1 193 0
 112 0020 FFF7FEFF 		bl	uart_ultrasonic_Stop
 194:.\Generated_Source\PSoC5/uart_ultrasonic_PM.c ****     uart_ultrasonic_SaveConfig();
 113              		.loc 1 194 0
 114 0024 FFF7FEFF 		bl	uart_ultrasonic_SaveConfig
 195:.\Generated_Source\PSoC5/uart_ultrasonic_PM.c **** }
 115              		.loc 1 195 0
 116 0028 80BD     		pop	{r7, pc}
 117              	.L7:
 118 002a 00BF     		.align	2
 119              	.L6:
 120 002c 96640040 		.word	1073767574
 121 0030 00000000 		.word	uart_ultrasonic_backup
 122              		.cfi_endproc
 123              	.LFE2:
 124              		.size	uart_ultrasonic_Sleep, .-uart_ultrasonic_Sleep
 125              		.section	.text.uart_ultrasonic_Wakeup,"ax",%progbits
 126              		.align	2
 127              		.global	uart_ultrasonic_Wakeup
 128              		.thumb
 129              		.thumb_func
 130              		.type	uart_ultrasonic_Wakeup, %function
 131              	uart_ultrasonic_Wakeup:
 132              	.LFB3:
 196:.\Generated_Source\PSoC5/uart_ultrasonic_PM.c **** 
 197:.\Generated_Source\PSoC5/uart_ultrasonic_PM.c **** 
 198:.\Generated_Source\PSoC5/uart_ultrasonic_PM.c **** /*******************************************************************************
 199:.\Generated_Source\PSoC5/uart_ultrasonic_PM.c **** * Function Name: uart_ultrasonic_Wakeup
 200:.\Generated_Source\PSoC5/uart_ultrasonic_PM.c **** ********************************************************************************
 201:.\Generated_Source\PSoC5/uart_ultrasonic_PM.c **** *
 202:.\Generated_Source\PSoC5/uart_ultrasonic_PM.c **** * Summary:
 203:.\Generated_Source\PSoC5/uart_ultrasonic_PM.c **** *  Restores and enables the user configuration. Should be called
 204:.\Generated_Source\PSoC5/uart_ultrasonic_PM.c **** *  just after awaking from sleep.
 205:.\Generated_Source\PSoC5/uart_ultrasonic_PM.c **** *
 206:.\Generated_Source\PSoC5/uart_ultrasonic_PM.c **** * Parameters:
 207:.\Generated_Source\PSoC5/uart_ultrasonic_PM.c **** *  None.
 208:.\Generated_Source\PSoC5/uart_ultrasonic_PM.c **** *
 209:.\Generated_Source\PSoC5/uart_ultrasonic_PM.c **** * Return:
 210:.\Generated_Source\PSoC5/uart_ultrasonic_PM.c **** *  None.
ARM GAS  C:\Users\BRANKO~1\AppData\Local\Temp\ccnZ0QEj.s 			page 7


 211:.\Generated_Source\PSoC5/uart_ultrasonic_PM.c **** *
 212:.\Generated_Source\PSoC5/uart_ultrasonic_PM.c **** * Global Variables:
 213:.\Generated_Source\PSoC5/uart_ultrasonic_PM.c **** *  uart_ultrasonic_backup - used when non-retention registers are restored.
 214:.\Generated_Source\PSoC5/uart_ultrasonic_PM.c **** *
 215:.\Generated_Source\PSoC5/uart_ultrasonic_PM.c **** * Reentrant:
 216:.\Generated_Source\PSoC5/uart_ultrasonic_PM.c **** *  No.
 217:.\Generated_Source\PSoC5/uart_ultrasonic_PM.c **** *
 218:.\Generated_Source\PSoC5/uart_ultrasonic_PM.c **** *******************************************************************************/
 219:.\Generated_Source\PSoC5/uart_ultrasonic_PM.c **** void uart_ultrasonic_Wakeup(void)
 220:.\Generated_Source\PSoC5/uart_ultrasonic_PM.c **** {
 133              		.loc 1 220 0
 134              		.cfi_startproc
 135              		@ args = 0, pretend = 0, frame = 0
 136              		@ frame_needed = 1, uses_anonymous_args = 0
 137 0000 80B5     		push	{r7, lr}
 138              		.cfi_def_cfa_offset 8
 139              		.cfi_offset 7, -8
 140              		.cfi_offset 14, -4
 141 0002 00AF     		add	r7, sp, #0
 142              		.cfi_def_cfa_register 7
 221:.\Generated_Source\PSoC5/uart_ultrasonic_PM.c ****     uart_ultrasonic_RestoreConfig();
 143              		.loc 1 221 0
 144 0004 FFF7FEFF 		bl	uart_ultrasonic_RestoreConfig
 222:.\Generated_Source\PSoC5/uart_ultrasonic_PM.c ****     #if( (uart_ultrasonic_RX_ENABLED) || (uart_ultrasonic_HD_ENABLED) )
 223:.\Generated_Source\PSoC5/uart_ultrasonic_PM.c ****         uart_ultrasonic_ClearRxBuffer();
 145              		.loc 1 223 0
 146 0008 FFF7FEFF 		bl	uart_ultrasonic_ClearRxBuffer
 224:.\Generated_Source\PSoC5/uart_ultrasonic_PM.c ****     #endif /* End (uart_ultrasonic_RX_ENABLED) || (uart_ultrasonic_HD_ENABLED) */
 225:.\Generated_Source\PSoC5/uart_ultrasonic_PM.c ****     #if(uart_ultrasonic_TX_ENABLED || uart_ultrasonic_HD_ENABLED)
 226:.\Generated_Source\PSoC5/uart_ultrasonic_PM.c ****         uart_ultrasonic_ClearTxBuffer();
 227:.\Generated_Source\PSoC5/uart_ultrasonic_PM.c ****     #endif /* End uart_ultrasonic_TX_ENABLED || uart_ultrasonic_HD_ENABLED */
 228:.\Generated_Source\PSoC5/uart_ultrasonic_PM.c **** 
 229:.\Generated_Source\PSoC5/uart_ultrasonic_PM.c ****     if(uart_ultrasonic_backup.enableState != 0u)
 147              		.loc 1 229 0
 148 000c 034B     		ldr	r3, .L10
 149 000e 1B78     		ldrb	r3, [r3]	@ zero_extendqisi2
 150 0010 002B     		cmp	r3, #0
 151 0012 01D0     		beq	.L8
 230:.\Generated_Source\PSoC5/uart_ultrasonic_PM.c ****     {
 231:.\Generated_Source\PSoC5/uart_ultrasonic_PM.c ****         uart_ultrasonic_Enable();
 152              		.loc 1 231 0
 153 0014 FFF7FEFF 		bl	uart_ultrasonic_Enable
 154              	.L8:
 232:.\Generated_Source\PSoC5/uart_ultrasonic_PM.c ****     }
 233:.\Generated_Source\PSoC5/uart_ultrasonic_PM.c **** }
 155              		.loc 1 233 0
 156 0018 80BD     		pop	{r7, pc}
 157              	.L11:
 158 001a 00BF     		.align	2
 159              	.L10:
 160 001c 00000000 		.word	uart_ultrasonic_backup
 161              		.cfi_endproc
 162              	.LFE3:
 163              		.size	uart_ultrasonic_Wakeup, .-uart_ultrasonic_Wakeup
 164              		.text
 165              	.Letext0:
 166              		.file 2 ".\\Generated_Source\\PSoC5\\cytypes.h"
ARM GAS  C:\Users\BRANKO~1\AppData\Local\Temp\ccnZ0QEj.s 			page 8


 167              		.file 3 ".\\Generated_Source\\PSoC5\\uart_ultrasonic.h"