ARM GAS  C:\Users\BRANKO~1\AppData\Local\Temp\ccNhQkWx.s 			page 1


   1              		.syntax unified
   2              		.cpu cortex-m3
   3              		.fpu softvfp
   4              		.eabi_attribute 20, 1
   5              		.eabi_attribute 21, 1
   6              		.eabi_attribute 23, 3
   7              		.eabi_attribute 24, 1
   8              		.eabi_attribute 25, 1
   9              		.eabi_attribute 26, 1
  10              		.eabi_attribute 30, 6
  11              		.eabi_attribute 34, 1
  12              		.eabi_attribute 18, 4
  13              		.thumb
  14              		.file	"WaveDAC8_1_Wave1_DMA_dma.c"
  15              		.text
  16              	.Ltext0:
  17              		.cfi_sections	.debug_frame
  18              		.global	WaveDAC8_1_Wave1_DMA_DmaHandle
  19              		.data
  20              		.type	WaveDAC8_1_Wave1_DMA_DmaHandle, %object
  21              		.size	WaveDAC8_1_Wave1_DMA_DmaHandle, 1
  22              	WaveDAC8_1_Wave1_DMA_DmaHandle:
  23 0000 FF       		.byte	-1
  24              		.section	.text.WaveDAC8_1_Wave1_DMA_DmaInitialize,"ax",%progbits
  25              		.align	2
  26              		.global	WaveDAC8_1_Wave1_DMA_DmaInitialize
  27              		.thumb
  28              		.thumb_func
  29              		.type	WaveDAC8_1_Wave1_DMA_DmaInitialize, %function
  30              	WaveDAC8_1_Wave1_DMA_DmaInitialize:
  31              	.LFB0:
  32              		.file 1 ".\\Generated_Source\\PSoC5\\WaveDAC8_1_Wave1_DMA_dma.c"
   1:.\Generated_Source\PSoC5/WaveDAC8_1_Wave1_DMA_dma.c **** /***************************************************************************
   2:.\Generated_Source\PSoC5/WaveDAC8_1_Wave1_DMA_dma.c **** * File Name: WaveDAC8_1_Wave1_DMA_dma.c  
   3:.\Generated_Source\PSoC5/WaveDAC8_1_Wave1_DMA_dma.c **** * Version 1.70
   4:.\Generated_Source\PSoC5/WaveDAC8_1_Wave1_DMA_dma.c **** *
   5:.\Generated_Source\PSoC5/WaveDAC8_1_Wave1_DMA_dma.c **** *  Description:
   6:.\Generated_Source\PSoC5/WaveDAC8_1_Wave1_DMA_dma.c **** *   Provides an API for the DMAC component. The API includes functions
   7:.\Generated_Source\PSoC5/WaveDAC8_1_Wave1_DMA_dma.c **** *   for the DMA controller, DMA channels and Transfer Descriptors.
   8:.\Generated_Source\PSoC5/WaveDAC8_1_Wave1_DMA_dma.c **** *
   9:.\Generated_Source\PSoC5/WaveDAC8_1_Wave1_DMA_dma.c **** *
  10:.\Generated_Source\PSoC5/WaveDAC8_1_Wave1_DMA_dma.c **** *   Note:
  11:.\Generated_Source\PSoC5/WaveDAC8_1_Wave1_DMA_dma.c **** *     This module requires the developer to finish or fill in the auto
  12:.\Generated_Source\PSoC5/WaveDAC8_1_Wave1_DMA_dma.c **** *     generated funcions and setup the dma channel and TD's.
  13:.\Generated_Source\PSoC5/WaveDAC8_1_Wave1_DMA_dma.c **** *
  14:.\Generated_Source\PSoC5/WaveDAC8_1_Wave1_DMA_dma.c **** ********************************************************************************
  15:.\Generated_Source\PSoC5/WaveDAC8_1_Wave1_DMA_dma.c **** * Copyright 2008-2010, Cypress Semiconductor Corporation.  All rights reserved.
  16:.\Generated_Source\PSoC5/WaveDAC8_1_Wave1_DMA_dma.c **** * You may use this file only in accordance with the license, terms, conditions, 
  17:.\Generated_Source\PSoC5/WaveDAC8_1_Wave1_DMA_dma.c **** * disclaimers, and limitations in the end user license agreement accompanying 
  18:.\Generated_Source\PSoC5/WaveDAC8_1_Wave1_DMA_dma.c **** * the software package with which this file was provided.
  19:.\Generated_Source\PSoC5/WaveDAC8_1_Wave1_DMA_dma.c **** ********************************************************************************/
  20:.\Generated_Source\PSoC5/WaveDAC8_1_Wave1_DMA_dma.c **** #include <CYLIB.H>
  21:.\Generated_Source\PSoC5/WaveDAC8_1_Wave1_DMA_dma.c **** #include <CYDMAC.H>
  22:.\Generated_Source\PSoC5/WaveDAC8_1_Wave1_DMA_dma.c **** #include <WaveDAC8_1_Wave1_DMA_dma.H>
  23:.\Generated_Source\PSoC5/WaveDAC8_1_Wave1_DMA_dma.c **** 
  24:.\Generated_Source\PSoC5/WaveDAC8_1_Wave1_DMA_dma.c **** 
  25:.\Generated_Source\PSoC5/WaveDAC8_1_Wave1_DMA_dma.c **** 
ARM GAS  C:\Users\BRANKO~1\AppData\Local\Temp\ccNhQkWx.s 			page 2


  26:.\Generated_Source\PSoC5/WaveDAC8_1_Wave1_DMA_dma.c **** /****************************************************************************
  27:.\Generated_Source\PSoC5/WaveDAC8_1_Wave1_DMA_dma.c **** * 
  28:.\Generated_Source\PSoC5/WaveDAC8_1_Wave1_DMA_dma.c **** * The following defines are available in Cyfitter.h
  29:.\Generated_Source\PSoC5/WaveDAC8_1_Wave1_DMA_dma.c **** * 
  30:.\Generated_Source\PSoC5/WaveDAC8_1_Wave1_DMA_dma.c **** * 
  31:.\Generated_Source\PSoC5/WaveDAC8_1_Wave1_DMA_dma.c **** * 
  32:.\Generated_Source\PSoC5/WaveDAC8_1_Wave1_DMA_dma.c **** * WaveDAC8_1_Wave1_DMA__DRQ_CTL_REG
  33:.\Generated_Source\PSoC5/WaveDAC8_1_Wave1_DMA_dma.c **** * 
  34:.\Generated_Source\PSoC5/WaveDAC8_1_Wave1_DMA_dma.c **** * 
  35:.\Generated_Source\PSoC5/WaveDAC8_1_Wave1_DMA_dma.c **** * WaveDAC8_1_Wave1_DMA__DRQ_NUMBER
  36:.\Generated_Source\PSoC5/WaveDAC8_1_Wave1_DMA_dma.c **** * 
  37:.\Generated_Source\PSoC5/WaveDAC8_1_Wave1_DMA_dma.c **** * Number of TD's used by this channel.
  38:.\Generated_Source\PSoC5/WaveDAC8_1_Wave1_DMA_dma.c **** * WaveDAC8_1_Wave1_DMA__NUMBEROF_TDS
  39:.\Generated_Source\PSoC5/WaveDAC8_1_Wave1_DMA_dma.c **** * 
  40:.\Generated_Source\PSoC5/WaveDAC8_1_Wave1_DMA_dma.c **** * Priority of this channel.
  41:.\Generated_Source\PSoC5/WaveDAC8_1_Wave1_DMA_dma.c **** * WaveDAC8_1_Wave1_DMA__PRIORITY
  42:.\Generated_Source\PSoC5/WaveDAC8_1_Wave1_DMA_dma.c **** * 
  43:.\Generated_Source\PSoC5/WaveDAC8_1_Wave1_DMA_dma.c **** * True if WaveDAC8_1_Wave1_DMA_TERMIN_SEL is used.
  44:.\Generated_Source\PSoC5/WaveDAC8_1_Wave1_DMA_dma.c **** * WaveDAC8_1_Wave1_DMA__TERMIN_EN
  45:.\Generated_Source\PSoC5/WaveDAC8_1_Wave1_DMA_dma.c **** * 
  46:.\Generated_Source\PSoC5/WaveDAC8_1_Wave1_DMA_dma.c **** * TERMIN interrupt line to signal terminate.
  47:.\Generated_Source\PSoC5/WaveDAC8_1_Wave1_DMA_dma.c **** * WaveDAC8_1_Wave1_DMA__TERMIN_SEL
  48:.\Generated_Source\PSoC5/WaveDAC8_1_Wave1_DMA_dma.c **** * 
  49:.\Generated_Source\PSoC5/WaveDAC8_1_Wave1_DMA_dma.c **** * 
  50:.\Generated_Source\PSoC5/WaveDAC8_1_Wave1_DMA_dma.c **** * True if WaveDAC8_1_Wave1_DMA_TERMOUT0_SEL is used.
  51:.\Generated_Source\PSoC5/WaveDAC8_1_Wave1_DMA_dma.c **** * WaveDAC8_1_Wave1_DMA__TERMOUT0_EN
  52:.\Generated_Source\PSoC5/WaveDAC8_1_Wave1_DMA_dma.c **** * 
  53:.\Generated_Source\PSoC5/WaveDAC8_1_Wave1_DMA_dma.c **** * 
  54:.\Generated_Source\PSoC5/WaveDAC8_1_Wave1_DMA_dma.c **** * TERMOUT0 interrupt line to signal completion.
  55:.\Generated_Source\PSoC5/WaveDAC8_1_Wave1_DMA_dma.c **** * WaveDAC8_1_Wave1_DMA__TERMOUT0_SEL
  56:.\Generated_Source\PSoC5/WaveDAC8_1_Wave1_DMA_dma.c **** * 
  57:.\Generated_Source\PSoC5/WaveDAC8_1_Wave1_DMA_dma.c **** * 
  58:.\Generated_Source\PSoC5/WaveDAC8_1_Wave1_DMA_dma.c **** * True if WaveDAC8_1_Wave1_DMA_TERMOUT1_SEL is used.
  59:.\Generated_Source\PSoC5/WaveDAC8_1_Wave1_DMA_dma.c **** * WaveDAC8_1_Wave1_DMA__TERMOUT1_EN
  60:.\Generated_Source\PSoC5/WaveDAC8_1_Wave1_DMA_dma.c **** * 
  61:.\Generated_Source\PSoC5/WaveDAC8_1_Wave1_DMA_dma.c **** * 
  62:.\Generated_Source\PSoC5/WaveDAC8_1_Wave1_DMA_dma.c **** * TERMOUT1 interrupt line to signal completion.
  63:.\Generated_Source\PSoC5/WaveDAC8_1_Wave1_DMA_dma.c **** * WaveDAC8_1_Wave1_DMA__TERMOUT1_SEL
  64:.\Generated_Source\PSoC5/WaveDAC8_1_Wave1_DMA_dma.c **** * 
  65:.\Generated_Source\PSoC5/WaveDAC8_1_Wave1_DMA_dma.c **** ****************************************************************************/
  66:.\Generated_Source\PSoC5/WaveDAC8_1_Wave1_DMA_dma.c **** 
  67:.\Generated_Source\PSoC5/WaveDAC8_1_Wave1_DMA_dma.c **** 
  68:.\Generated_Source\PSoC5/WaveDAC8_1_Wave1_DMA_dma.c **** /* Zero based index of WaveDAC8_1_Wave1_DMA dma channel */
  69:.\Generated_Source\PSoC5/WaveDAC8_1_Wave1_DMA_dma.c **** uint8 WaveDAC8_1_Wave1_DMA_DmaHandle = DMA_INVALID_CHANNEL;
  70:.\Generated_Source\PSoC5/WaveDAC8_1_Wave1_DMA_dma.c **** 
  71:.\Generated_Source\PSoC5/WaveDAC8_1_Wave1_DMA_dma.c **** /*********************************************************************
  72:.\Generated_Source\PSoC5/WaveDAC8_1_Wave1_DMA_dma.c **** * Function Name: uint8 WaveDAC8_1_Wave1_DMA_DmaInitalize
  73:.\Generated_Source\PSoC5/WaveDAC8_1_Wave1_DMA_dma.c **** **********************************************************************
  74:.\Generated_Source\PSoC5/WaveDAC8_1_Wave1_DMA_dma.c **** * Summary:
  75:.\Generated_Source\PSoC5/WaveDAC8_1_Wave1_DMA_dma.c **** *   Allocates and initialises a channel of the DMAC to be used by the
  76:.\Generated_Source\PSoC5/WaveDAC8_1_Wave1_DMA_dma.c **** *   caller.
  77:.\Generated_Source\PSoC5/WaveDAC8_1_Wave1_DMA_dma.c **** *
  78:.\Generated_Source\PSoC5/WaveDAC8_1_Wave1_DMA_dma.c **** * Parameters:
  79:.\Generated_Source\PSoC5/WaveDAC8_1_Wave1_DMA_dma.c **** *   BurstCount.
  80:.\Generated_Source\PSoC5/WaveDAC8_1_Wave1_DMA_dma.c **** *       
  81:.\Generated_Source\PSoC5/WaveDAC8_1_Wave1_DMA_dma.c **** *       
  82:.\Generated_Source\PSoC5/WaveDAC8_1_Wave1_DMA_dma.c **** *   ReqestPerBurst.
ARM GAS  C:\Users\BRANKO~1\AppData\Local\Temp\ccNhQkWx.s 			page 3


  83:.\Generated_Source\PSoC5/WaveDAC8_1_Wave1_DMA_dma.c **** *       
  84:.\Generated_Source\PSoC5/WaveDAC8_1_Wave1_DMA_dma.c **** *       
  85:.\Generated_Source\PSoC5/WaveDAC8_1_Wave1_DMA_dma.c **** *   UpperSrcAddress.
  86:.\Generated_Source\PSoC5/WaveDAC8_1_Wave1_DMA_dma.c **** *       
  87:.\Generated_Source\PSoC5/WaveDAC8_1_Wave1_DMA_dma.c **** *       
  88:.\Generated_Source\PSoC5/WaveDAC8_1_Wave1_DMA_dma.c **** *   UpperDestAddress.
  89:.\Generated_Source\PSoC5/WaveDAC8_1_Wave1_DMA_dma.c **** *       
  90:.\Generated_Source\PSoC5/WaveDAC8_1_Wave1_DMA_dma.c **** *
  91:.\Generated_Source\PSoC5/WaveDAC8_1_Wave1_DMA_dma.c **** * Return:
  92:.\Generated_Source\PSoC5/WaveDAC8_1_Wave1_DMA_dma.c **** *   The channel that can be used by the caller for DMA activity.
  93:.\Generated_Source\PSoC5/WaveDAC8_1_Wave1_DMA_dma.c **** *   DMA_INVALID_CHANNEL (0xFF) if there are no channels left. 
  94:.\Generated_Source\PSoC5/WaveDAC8_1_Wave1_DMA_dma.c **** *
  95:.\Generated_Source\PSoC5/WaveDAC8_1_Wave1_DMA_dma.c **** *
  96:.\Generated_Source\PSoC5/WaveDAC8_1_Wave1_DMA_dma.c **** *******************************************************************/
  97:.\Generated_Source\PSoC5/WaveDAC8_1_Wave1_DMA_dma.c **** uint8 WaveDAC8_1_Wave1_DMA_DmaInitialize(uint8 BurstCount, uint8 ReqestPerBurst, uint16 UpperSrcAdd
  98:.\Generated_Source\PSoC5/WaveDAC8_1_Wave1_DMA_dma.c **** {
  33              		.loc 1 98 0
  34              		.cfi_startproc
  35              		@ args = 0, pretend = 0, frame = 8
  36              		@ frame_needed = 1, uses_anonymous_args = 0
  37 0000 80B5     		push	{r7, lr}
  38              		.cfi_def_cfa_offset 8
  39              		.cfi_offset 7, -8
  40              		.cfi_offset 14, -4
  41 0002 84B0     		sub	sp, sp, #16
  42              		.cfi_def_cfa_offset 24
  43 0004 02AF     		add	r7, sp, #8
  44              		.cfi_def_cfa 7, 16
  45 0006 F871     		strb	r0, [r7, #7]
  46 0008 B971     		strb	r1, [r7, #6]
  47 000a BA80     		strh	r2, [r7, #4]	@ movhi
  48 000c 7B80     		strh	r3, [r7, #2]	@ movhi
  99:.\Generated_Source\PSoC5/WaveDAC8_1_Wave1_DMA_dma.c **** 
 100:.\Generated_Source\PSoC5/WaveDAC8_1_Wave1_DMA_dma.c ****     /* Allocate a DMA channel. */
 101:.\Generated_Source\PSoC5/WaveDAC8_1_Wave1_DMA_dma.c ****     WaveDAC8_1_Wave1_DMA_DmaHandle = (uint8)WaveDAC8_1_Wave1_DMA__DRQ_NUMBER;
  49              		.loc 1 101 0
  50 000e 134B     		ldr	r3, .L3
  51 0010 0022     		movs	r2, #0
  52 0012 1A70     		strb	r2, [r3]
 102:.\Generated_Source\PSoC5/WaveDAC8_1_Wave1_DMA_dma.c **** 
 103:.\Generated_Source\PSoC5/WaveDAC8_1_Wave1_DMA_dma.c ****     /* Configure the channel. */
 104:.\Generated_Source\PSoC5/WaveDAC8_1_Wave1_DMA_dma.c ****     (void)CyDmaChSetConfiguration(WaveDAC8_1_Wave1_DMA_DmaHandle,
  53              		.loc 1 104 0
  54 0014 114B     		ldr	r3, .L3
  55 0016 1978     		ldrb	r1, [r3]	@ zero_extendqisi2
  56 0018 FA79     		ldrb	r2, [r7, #7]	@ zero_extendqisi2
  57 001a BB79     		ldrb	r3, [r7, #6]	@ zero_extendqisi2
  58 001c 0020     		movs	r0, #0
  59 001e 0090     		str	r0, [sp]
  60 0020 0020     		movs	r0, #0
  61 0022 0190     		str	r0, [sp, #4]
  62 0024 0846     		mov	r0, r1
  63 0026 1146     		mov	r1, r2
  64 0028 1A46     		mov	r2, r3
  65 002a 0023     		movs	r3, #0
  66 002c FFF7FEFF 		bl	CyDmaChSetConfiguration
 105:.\Generated_Source\PSoC5/WaveDAC8_1_Wave1_DMA_dma.c ****                                   BurstCount,
ARM GAS  C:\Users\BRANKO~1\AppData\Local\Temp\ccNhQkWx.s 			page 4


 106:.\Generated_Source\PSoC5/WaveDAC8_1_Wave1_DMA_dma.c ****                                   ReqestPerBurst,
 107:.\Generated_Source\PSoC5/WaveDAC8_1_Wave1_DMA_dma.c ****                                   (uint8)WaveDAC8_1_Wave1_DMA__TERMOUT0_SEL,
 108:.\Generated_Source\PSoC5/WaveDAC8_1_Wave1_DMA_dma.c ****                                   (uint8)WaveDAC8_1_Wave1_DMA__TERMOUT1_SEL,
 109:.\Generated_Source\PSoC5/WaveDAC8_1_Wave1_DMA_dma.c ****                                   (uint8)WaveDAC8_1_Wave1_DMA__TERMIN_SEL);
 110:.\Generated_Source\PSoC5/WaveDAC8_1_Wave1_DMA_dma.c **** 
 111:.\Generated_Source\PSoC5/WaveDAC8_1_Wave1_DMA_dma.c ****     /* Set the extended address for the transfers */
 112:.\Generated_Source\PSoC5/WaveDAC8_1_Wave1_DMA_dma.c ****     (void)CyDmaChSetExtendedAddress(WaveDAC8_1_Wave1_DMA_DmaHandle, UpperSrcAddress, UpperDestAddre
  67              		.loc 1 112 0
  68 0030 0A4B     		ldr	r3, .L3
  69 0032 1978     		ldrb	r1, [r3]	@ zero_extendqisi2
  70 0034 BA88     		ldrh	r2, [r7, #4]
  71 0036 7B88     		ldrh	r3, [r7, #2]
  72 0038 0846     		mov	r0, r1
  73 003a 1146     		mov	r1, r2
  74 003c 1A46     		mov	r2, r3
  75 003e FFF7FEFF 		bl	CyDmaChSetExtendedAddress
 113:.\Generated_Source\PSoC5/WaveDAC8_1_Wave1_DMA_dma.c **** 
 114:.\Generated_Source\PSoC5/WaveDAC8_1_Wave1_DMA_dma.c ****     /* Set the priority for this channel */
 115:.\Generated_Source\PSoC5/WaveDAC8_1_Wave1_DMA_dma.c ****     (void)CyDmaChPriority(WaveDAC8_1_Wave1_DMA_DmaHandle, (uint8)WaveDAC8_1_Wave1_DMA__PRIORITY);
  76              		.loc 1 115 0
  77 0042 064B     		ldr	r3, .L3
  78 0044 1B78     		ldrb	r3, [r3]	@ zero_extendqisi2
  79 0046 1846     		mov	r0, r3
  80 0048 0221     		movs	r1, #2
  81 004a FFF7FEFF 		bl	CyDmaChPriority
 116:.\Generated_Source\PSoC5/WaveDAC8_1_Wave1_DMA_dma.c ****     
 117:.\Generated_Source\PSoC5/WaveDAC8_1_Wave1_DMA_dma.c ****     return WaveDAC8_1_Wave1_DMA_DmaHandle;
  82              		.loc 1 117 0
  83 004e 034B     		ldr	r3, .L3
  84 0050 1B78     		ldrb	r3, [r3]	@ zero_extendqisi2
 118:.\Generated_Source\PSoC5/WaveDAC8_1_Wave1_DMA_dma.c **** }
  85              		.loc 1 118 0
  86 0052 1846     		mov	r0, r3
  87 0054 0837     		adds	r7, r7, #8
  88 0056 BD46     		mov	sp, r7
  89              		@ sp needed
  90 0058 80BD     		pop	{r7, pc}
  91              	.L4:
  92 005a 00BF     		.align	2
  93              	.L3:
  94 005c 00000000 		.word	WaveDAC8_1_Wave1_DMA_DmaHandle
  95              		.cfi_endproc
  96              	.LFE0:
  97              		.size	WaveDAC8_1_Wave1_DMA_DmaInitialize, .-WaveDAC8_1_Wave1_DMA_DmaInitialize
  98              		.section	.text.WaveDAC8_1_Wave1_DMA_DmaRelease,"ax",%progbits
  99              		.align	2
 100              		.global	WaveDAC8_1_Wave1_DMA_DmaRelease
 101              		.thumb
 102              		.thumb_func
 103              		.type	WaveDAC8_1_Wave1_DMA_DmaRelease, %function
 104              	WaveDAC8_1_Wave1_DMA_DmaRelease:
 105              	.LFB1:
 119:.\Generated_Source\PSoC5/WaveDAC8_1_Wave1_DMA_dma.c **** 
 120:.\Generated_Source\PSoC5/WaveDAC8_1_Wave1_DMA_dma.c **** /*********************************************************************
 121:.\Generated_Source\PSoC5/WaveDAC8_1_Wave1_DMA_dma.c **** * Function Name: void WaveDAC8_1_Wave1_DMA_DmaRelease
 122:.\Generated_Source\PSoC5/WaveDAC8_1_Wave1_DMA_dma.c **** **********************************************************************
 123:.\Generated_Source\PSoC5/WaveDAC8_1_Wave1_DMA_dma.c **** * Summary:
ARM GAS  C:\Users\BRANKO~1\AppData\Local\Temp\ccNhQkWx.s 			page 5


 124:.\Generated_Source\PSoC5/WaveDAC8_1_Wave1_DMA_dma.c **** *   Frees the channel associated with WaveDAC8_1_Wave1_DMA.
 125:.\Generated_Source\PSoC5/WaveDAC8_1_Wave1_DMA_dma.c **** *
 126:.\Generated_Source\PSoC5/WaveDAC8_1_Wave1_DMA_dma.c **** *
 127:.\Generated_Source\PSoC5/WaveDAC8_1_Wave1_DMA_dma.c **** * Parameters:
 128:.\Generated_Source\PSoC5/WaveDAC8_1_Wave1_DMA_dma.c **** *   void.
 129:.\Generated_Source\PSoC5/WaveDAC8_1_Wave1_DMA_dma.c **** *
 130:.\Generated_Source\PSoC5/WaveDAC8_1_Wave1_DMA_dma.c **** *
 131:.\Generated_Source\PSoC5/WaveDAC8_1_Wave1_DMA_dma.c **** *
 132:.\Generated_Source\PSoC5/WaveDAC8_1_Wave1_DMA_dma.c **** * Return:
 133:.\Generated_Source\PSoC5/WaveDAC8_1_Wave1_DMA_dma.c **** *   void.
 134:.\Generated_Source\PSoC5/WaveDAC8_1_Wave1_DMA_dma.c **** *
 135:.\Generated_Source\PSoC5/WaveDAC8_1_Wave1_DMA_dma.c **** *******************************************************************/
 136:.\Generated_Source\PSoC5/WaveDAC8_1_Wave1_DMA_dma.c **** void WaveDAC8_1_Wave1_DMA_DmaRelease(void) 
 137:.\Generated_Source\PSoC5/WaveDAC8_1_Wave1_DMA_dma.c **** {
 106              		.loc 1 137 0
 107              		.cfi_startproc
 108              		@ args = 0, pretend = 0, frame = 0
 109              		@ frame_needed = 1, uses_anonymous_args = 0
 110 0000 80B5     		push	{r7, lr}
 111              		.cfi_def_cfa_offset 8
 112              		.cfi_offset 7, -8
 113              		.cfi_offset 14, -4
 114 0002 00AF     		add	r7, sp, #0
 115              		.cfi_def_cfa_register 7
 138:.\Generated_Source\PSoC5/WaveDAC8_1_Wave1_DMA_dma.c ****     /* Disable the channel */
 139:.\Generated_Source\PSoC5/WaveDAC8_1_Wave1_DMA_dma.c ****     (void)CyDmaChDisable(WaveDAC8_1_Wave1_DMA_DmaHandle);
 116              		.loc 1 139 0
 117 0004 024B     		ldr	r3, .L6
 118 0006 1B78     		ldrb	r3, [r3]	@ zero_extendqisi2
 119 0008 1846     		mov	r0, r3
 120 000a FFF7FEFF 		bl	CyDmaChDisable
 140:.\Generated_Source\PSoC5/WaveDAC8_1_Wave1_DMA_dma.c **** }
 121              		.loc 1 140 0
 122 000e 80BD     		pop	{r7, pc}
 123              	.L7:
 124              		.align	2
 125              	.L6:
 126 0010 00000000 		.word	WaveDAC8_1_Wave1_DMA_DmaHandle
 127              		.cfi_endproc
 128              	.LFE1:
 129              		.size	WaveDAC8_1_Wave1_DMA_DmaRelease, .-WaveDAC8_1_Wave1_DMA_DmaRelease
 130              		.text
 131              	.Letext0:
 132              		.file 2 ".\\Generated_Source\\PSoC5/cytypes.h"