ARM GAS  C:\Users\BRANKO~1\AppData\Local\Temp\ccUODvbu.s 			page 1


   1              		.syntax unified
   2              		.cpu cortex-m3
   3              		.fpu softvfp
   4              		.eabi_attribute 20, 1
   5              		.eabi_attribute 21, 1
   6              		.eabi_attribute 23, 3
   7              		.eabi_attribute 24, 1
   8              		.eabi_attribute 25, 1
   9              		.eabi_attribute 26, 1
  10              		.eabi_attribute 30, 6
  11              		.eabi_attribute 34, 1
  12              		.eabi_attribute 18, 4
  13              		.thumb
  14              		.file	"WaveDAC8_1_VDAC8_PM.c"
  15              		.text
  16              	.Ltext0:
  17              		.cfi_sections	.debug_frame
  18              		.bss
  19              		.align	2
  20              	WaveDAC8_1_VDAC8_backup:
  21 0000 0000     		.space	2
  22 0002 0000     		.section	.text.WaveDAC8_1_VDAC8_SaveConfig,"ax",%progbits
  23              		.align	2
  24              		.global	WaveDAC8_1_VDAC8_SaveConfig
  25              		.thumb
  26              		.thumb_func
  27              		.type	WaveDAC8_1_VDAC8_SaveConfig, %function
  28              	WaveDAC8_1_VDAC8_SaveConfig:
  29              	.LFB0:
  30              		.file 1 ".\\Generated_Source\\PSoC5\\WaveDAC8_1_VDAC8_PM.c"
   1:.\Generated_Source\PSoC5/WaveDAC8_1_VDAC8_PM.c **** /*******************************************************************************
   2:.\Generated_Source\PSoC5/WaveDAC8_1_VDAC8_PM.c **** * File Name: WaveDAC8_1_VDAC8_PM.c  
   3:.\Generated_Source\PSoC5/WaveDAC8_1_VDAC8_PM.c **** * Version 1.90
   4:.\Generated_Source\PSoC5/WaveDAC8_1_VDAC8_PM.c **** *
   5:.\Generated_Source\PSoC5/WaveDAC8_1_VDAC8_PM.c **** * Description:
   6:.\Generated_Source\PSoC5/WaveDAC8_1_VDAC8_PM.c **** *  This file provides the power management source code to API for the
   7:.\Generated_Source\PSoC5/WaveDAC8_1_VDAC8_PM.c **** *  VDAC8.  
   8:.\Generated_Source\PSoC5/WaveDAC8_1_VDAC8_PM.c **** *
   9:.\Generated_Source\PSoC5/WaveDAC8_1_VDAC8_PM.c **** * Note:
  10:.\Generated_Source\PSoC5/WaveDAC8_1_VDAC8_PM.c **** *  None
  11:.\Generated_Source\PSoC5/WaveDAC8_1_VDAC8_PM.c **** *
  12:.\Generated_Source\PSoC5/WaveDAC8_1_VDAC8_PM.c **** ********************************************************************************
  13:.\Generated_Source\PSoC5/WaveDAC8_1_VDAC8_PM.c **** * Copyright 2008-2012, Cypress Semiconductor Corporation.  All rights reserved.
  14:.\Generated_Source\PSoC5/WaveDAC8_1_VDAC8_PM.c **** * You may use this file only in accordance with the license, terms, conditions, 
  15:.\Generated_Source\PSoC5/WaveDAC8_1_VDAC8_PM.c **** * disclaimers, and limitations in the end user license agreement accompanying 
  16:.\Generated_Source\PSoC5/WaveDAC8_1_VDAC8_PM.c **** * the software package with which this file was provided.
  17:.\Generated_Source\PSoC5/WaveDAC8_1_VDAC8_PM.c **** *******************************************************************************/
  18:.\Generated_Source\PSoC5/WaveDAC8_1_VDAC8_PM.c **** 
  19:.\Generated_Source\PSoC5/WaveDAC8_1_VDAC8_PM.c **** #include "WaveDAC8_1_VDAC8.h"
  20:.\Generated_Source\PSoC5/WaveDAC8_1_VDAC8_PM.c **** 
  21:.\Generated_Source\PSoC5/WaveDAC8_1_VDAC8_PM.c **** static WaveDAC8_1_VDAC8_backupStruct WaveDAC8_1_VDAC8_backup;
  22:.\Generated_Source\PSoC5/WaveDAC8_1_VDAC8_PM.c **** 
  23:.\Generated_Source\PSoC5/WaveDAC8_1_VDAC8_PM.c **** 
  24:.\Generated_Source\PSoC5/WaveDAC8_1_VDAC8_PM.c **** /*******************************************************************************
  25:.\Generated_Source\PSoC5/WaveDAC8_1_VDAC8_PM.c **** * Function Name: WaveDAC8_1_VDAC8_SaveConfig
  26:.\Generated_Source\PSoC5/WaveDAC8_1_VDAC8_PM.c **** ********************************************************************************
  27:.\Generated_Source\PSoC5/WaveDAC8_1_VDAC8_PM.c **** * Summary:
ARM GAS  C:\Users\BRANKO~1\AppData\Local\Temp\ccUODvbu.s 			page 2


  28:.\Generated_Source\PSoC5/WaveDAC8_1_VDAC8_PM.c **** *  Save the current user configuration
  29:.\Generated_Source\PSoC5/WaveDAC8_1_VDAC8_PM.c **** *
  30:.\Generated_Source\PSoC5/WaveDAC8_1_VDAC8_PM.c **** * Parameters:  
  31:.\Generated_Source\PSoC5/WaveDAC8_1_VDAC8_PM.c **** *  void  
  32:.\Generated_Source\PSoC5/WaveDAC8_1_VDAC8_PM.c **** *
  33:.\Generated_Source\PSoC5/WaveDAC8_1_VDAC8_PM.c **** * Return: 
  34:.\Generated_Source\PSoC5/WaveDAC8_1_VDAC8_PM.c **** *  void
  35:.\Generated_Source\PSoC5/WaveDAC8_1_VDAC8_PM.c **** *
  36:.\Generated_Source\PSoC5/WaveDAC8_1_VDAC8_PM.c **** *******************************************************************************/
  37:.\Generated_Source\PSoC5/WaveDAC8_1_VDAC8_PM.c **** void WaveDAC8_1_VDAC8_SaveConfig(void) 
  38:.\Generated_Source\PSoC5/WaveDAC8_1_VDAC8_PM.c **** {
  31              		.loc 1 38 0
  32              		.cfi_startproc
  33              		@ args = 0, pretend = 0, frame = 0
  34              		@ frame_needed = 1, uses_anonymous_args = 0
  35              		@ link register save eliminated.
  36 0000 80B4     		push	{r7}
  37              		.cfi_def_cfa_offset 4
  38              		.cfi_offset 7, -4
  39 0002 00AF     		add	r7, sp, #0
  40              		.cfi_def_cfa_register 7
  39:.\Generated_Source\PSoC5/WaveDAC8_1_VDAC8_PM.c ****     if (!((WaveDAC8_1_VDAC8_CR1 & WaveDAC8_1_VDAC8_SRC_MASK) == WaveDAC8_1_VDAC8_SRC_UDB))
  41              		.loc 1 39 0
  42 0004 074B     		ldr	r3, .L3
  43 0006 1B78     		ldrb	r3, [r3]
  44 0008 DBB2     		uxtb	r3, r3
  45 000a 03F02003 		and	r3, r3, #32
  46 000e 002B     		cmp	r3, #0
  47 0010 04D1     		bne	.L1
  40:.\Generated_Source\PSoC5/WaveDAC8_1_VDAC8_PM.c ****     {
  41:.\Generated_Source\PSoC5/WaveDAC8_1_VDAC8_PM.c ****         WaveDAC8_1_VDAC8_backup.data_value = WaveDAC8_1_VDAC8_Data;
  48              		.loc 1 41 0
  49 0012 054B     		ldr	r3, .L3+4
  50 0014 1B78     		ldrb	r3, [r3]
  51 0016 DAB2     		uxtb	r2, r3
  52 0018 044B     		ldr	r3, .L3+8
  53 001a 5A70     		strb	r2, [r3, #1]
  54              	.L1:
  42:.\Generated_Source\PSoC5/WaveDAC8_1_VDAC8_PM.c ****     }
  43:.\Generated_Source\PSoC5/WaveDAC8_1_VDAC8_PM.c **** }
  55              		.loc 1 43 0
  56 001c BD46     		mov	sp, r7
  57              		@ sp needed
  58 001e 5DF8047B 		ldr	r7, [sp], #4
  59 0022 7047     		bx	lr
  60              	.L4:
  61              		.align	2
  62              	.L3:
  63 0024 21580040 		.word	1073764385
  64 0028 805B0040 		.word	1073765248
  65 002c 00000000 		.word	WaveDAC8_1_VDAC8_backup
  66              		.cfi_endproc
  67              	.LFE0:
  68              		.size	WaveDAC8_1_VDAC8_SaveConfig, .-WaveDAC8_1_VDAC8_SaveConfig
  69              		.section	.text.WaveDAC8_1_VDAC8_RestoreConfig,"ax",%progbits
  70              		.align	2
  71              		.global	WaveDAC8_1_VDAC8_RestoreConfig
ARM GAS  C:\Users\BRANKO~1\AppData\Local\Temp\ccUODvbu.s 			page 3


  72              		.thumb
  73              		.thumb_func
  74              		.type	WaveDAC8_1_VDAC8_RestoreConfig, %function
  75              	WaveDAC8_1_VDAC8_RestoreConfig:
  76              	.LFB1:
  44:.\Generated_Source\PSoC5/WaveDAC8_1_VDAC8_PM.c **** 
  45:.\Generated_Source\PSoC5/WaveDAC8_1_VDAC8_PM.c **** 
  46:.\Generated_Source\PSoC5/WaveDAC8_1_VDAC8_PM.c **** /*******************************************************************************
  47:.\Generated_Source\PSoC5/WaveDAC8_1_VDAC8_PM.c **** * Function Name: WaveDAC8_1_VDAC8_RestoreConfig
  48:.\Generated_Source\PSoC5/WaveDAC8_1_VDAC8_PM.c **** ********************************************************************************
  49:.\Generated_Source\PSoC5/WaveDAC8_1_VDAC8_PM.c **** *
  50:.\Generated_Source\PSoC5/WaveDAC8_1_VDAC8_PM.c **** * Summary:
  51:.\Generated_Source\PSoC5/WaveDAC8_1_VDAC8_PM.c **** *  Restores the current user configuration.
  52:.\Generated_Source\PSoC5/WaveDAC8_1_VDAC8_PM.c **** *
  53:.\Generated_Source\PSoC5/WaveDAC8_1_VDAC8_PM.c **** * Parameters:  
  54:.\Generated_Source\PSoC5/WaveDAC8_1_VDAC8_PM.c **** *  void
  55:.\Generated_Source\PSoC5/WaveDAC8_1_VDAC8_PM.c **** *
  56:.\Generated_Source\PSoC5/WaveDAC8_1_VDAC8_PM.c **** * Return: 
  57:.\Generated_Source\PSoC5/WaveDAC8_1_VDAC8_PM.c **** *  void
  58:.\Generated_Source\PSoC5/WaveDAC8_1_VDAC8_PM.c **** *
  59:.\Generated_Source\PSoC5/WaveDAC8_1_VDAC8_PM.c **** *******************************************************************************/
  60:.\Generated_Source\PSoC5/WaveDAC8_1_VDAC8_PM.c **** void WaveDAC8_1_VDAC8_RestoreConfig(void) 
  61:.\Generated_Source\PSoC5/WaveDAC8_1_VDAC8_PM.c **** {
  77              		.loc 1 61 0
  78              		.cfi_startproc
  79              		@ args = 0, pretend = 0, frame = 0
  80              		@ frame_needed = 1, uses_anonymous_args = 0
  81              		@ link register save eliminated.
  82 0000 80B4     		push	{r7}
  83              		.cfi_def_cfa_offset 4
  84              		.cfi_offset 7, -4
  85 0002 00AF     		add	r7, sp, #0
  86              		.cfi_def_cfa_register 7
  62:.\Generated_Source\PSoC5/WaveDAC8_1_VDAC8_PM.c ****     if (!((WaveDAC8_1_VDAC8_CR1 & WaveDAC8_1_VDAC8_SRC_MASK) == WaveDAC8_1_VDAC8_SRC_UDB))
  87              		.loc 1 62 0
  88 0004 154B     		ldr	r3, .L8
  89 0006 1B78     		ldrb	r3, [r3]
  90 0008 DBB2     		uxtb	r3, r3
  91 000a 03F02003 		and	r3, r3, #32
  92 000e 002B     		cmp	r3, #0
  93 0010 1FD1     		bne	.L5
  63:.\Generated_Source\PSoC5/WaveDAC8_1_VDAC8_PM.c ****     {
  64:.\Generated_Source\PSoC5/WaveDAC8_1_VDAC8_PM.c ****         if((WaveDAC8_1_VDAC8_Strobe & WaveDAC8_1_VDAC8_STRB_MASK) == WaveDAC8_1_VDAC8_STRB_EN)
  94              		.loc 1 64 0
  95 0012 134B     		ldr	r3, .L8+4
  96 0014 1B78     		ldrb	r3, [r3]
  97 0016 DBB2     		uxtb	r3, r3
  98 0018 03F00803 		and	r3, r3, #8
  99 001c 002B     		cmp	r3, #0
 100 001e 14D0     		beq	.L7
  65:.\Generated_Source\PSoC5/WaveDAC8_1_VDAC8_PM.c ****         {
  66:.\Generated_Source\PSoC5/WaveDAC8_1_VDAC8_PM.c ****             WaveDAC8_1_VDAC8_Strobe &= (uint8)(~WaveDAC8_1_VDAC8_STRB_MASK);
 101              		.loc 1 66 0
 102 0020 0F4B     		ldr	r3, .L8+4
 103 0022 0F4A     		ldr	r2, .L8+4
 104 0024 1278     		ldrb	r2, [r2]
 105 0026 D2B2     		uxtb	r2, r2
ARM GAS  C:\Users\BRANKO~1\AppData\Local\Temp\ccUODvbu.s 			page 4


 106 0028 22F00802 		bic	r2, r2, #8
 107 002c D2B2     		uxtb	r2, r2
 108 002e 1A70     		strb	r2, [r3]
  67:.\Generated_Source\PSoC5/WaveDAC8_1_VDAC8_PM.c ****             WaveDAC8_1_VDAC8_Data = WaveDAC8_1_VDAC8_backup.data_value;
 109              		.loc 1 67 0
 110 0030 0C4B     		ldr	r3, .L8+8
 111 0032 0D4A     		ldr	r2, .L8+12
 112 0034 5278     		ldrb	r2, [r2, #1]	@ zero_extendqisi2
 113 0036 1A70     		strb	r2, [r3]
  68:.\Generated_Source\PSoC5/WaveDAC8_1_VDAC8_PM.c ****             WaveDAC8_1_VDAC8_Strobe |= WaveDAC8_1_VDAC8_STRB_EN;
 114              		.loc 1 68 0
 115 0038 094B     		ldr	r3, .L8+4
 116 003a 094A     		ldr	r2, .L8+4
 117 003c 1278     		ldrb	r2, [r2]
 118 003e D2B2     		uxtb	r2, r2
 119 0040 42F00802 		orr	r2, r2, #8
 120 0044 D2B2     		uxtb	r2, r2
 121 0046 1A70     		strb	r2, [r3]
 122 0048 03E0     		b	.L5
 123              	.L7:
  69:.\Generated_Source\PSoC5/WaveDAC8_1_VDAC8_PM.c ****         }
  70:.\Generated_Source\PSoC5/WaveDAC8_1_VDAC8_PM.c ****         else
  71:.\Generated_Source\PSoC5/WaveDAC8_1_VDAC8_PM.c ****         {
  72:.\Generated_Source\PSoC5/WaveDAC8_1_VDAC8_PM.c ****             WaveDAC8_1_VDAC8_Data = WaveDAC8_1_VDAC8_backup.data_value;
 124              		.loc 1 72 0
 125 004a 064B     		ldr	r3, .L8+8
 126 004c 064A     		ldr	r2, .L8+12
 127 004e 5278     		ldrb	r2, [r2, #1]	@ zero_extendqisi2
 128 0050 1A70     		strb	r2, [r3]
 129              	.L5:
  73:.\Generated_Source\PSoC5/WaveDAC8_1_VDAC8_PM.c ****         }
  74:.\Generated_Source\PSoC5/WaveDAC8_1_VDAC8_PM.c ****     }
  75:.\Generated_Source\PSoC5/WaveDAC8_1_VDAC8_PM.c **** }
 130              		.loc 1 75 0
 131 0052 BD46     		mov	sp, r7
 132              		@ sp needed
 133 0054 5DF8047B 		ldr	r7, [sp], #4
 134 0058 7047     		bx	lr
 135              	.L9:
 136 005a 00BF     		.align	2
 137              	.L8:
 138 005c 21580040 		.word	1073764385
 139 0060 875A0040 		.word	1073764999
 140 0064 805B0040 		.word	1073765248
 141 0068 00000000 		.word	WaveDAC8_1_VDAC8_backup
 142              		.cfi_endproc
 143              	.LFE1:
 144              		.size	WaveDAC8_1_VDAC8_RestoreConfig, .-WaveDAC8_1_VDAC8_RestoreConfig
 145              		.section	.text.WaveDAC8_1_VDAC8_Sleep,"ax",%progbits
 146              		.align	2
 147              		.global	WaveDAC8_1_VDAC8_Sleep
 148              		.thumb
 149              		.thumb_func
 150              		.type	WaveDAC8_1_VDAC8_Sleep, %function
 151              	WaveDAC8_1_VDAC8_Sleep:
 152              	.LFB2:
  76:.\Generated_Source\PSoC5/WaveDAC8_1_VDAC8_PM.c **** 
ARM GAS  C:\Users\BRANKO~1\AppData\Local\Temp\ccUODvbu.s 			page 5


  77:.\Generated_Source\PSoC5/WaveDAC8_1_VDAC8_PM.c **** 
  78:.\Generated_Source\PSoC5/WaveDAC8_1_VDAC8_PM.c **** /*******************************************************************************
  79:.\Generated_Source\PSoC5/WaveDAC8_1_VDAC8_PM.c **** * Function Name: WaveDAC8_1_VDAC8_Sleep
  80:.\Generated_Source\PSoC5/WaveDAC8_1_VDAC8_PM.c **** ********************************************************************************
  81:.\Generated_Source\PSoC5/WaveDAC8_1_VDAC8_PM.c **** * Summary:
  82:.\Generated_Source\PSoC5/WaveDAC8_1_VDAC8_PM.c **** *  Stop and Save the user configuration
  83:.\Generated_Source\PSoC5/WaveDAC8_1_VDAC8_PM.c **** *
  84:.\Generated_Source\PSoC5/WaveDAC8_1_VDAC8_PM.c **** * Parameters:  
  85:.\Generated_Source\PSoC5/WaveDAC8_1_VDAC8_PM.c **** *  void:  
  86:.\Generated_Source\PSoC5/WaveDAC8_1_VDAC8_PM.c **** *
  87:.\Generated_Source\PSoC5/WaveDAC8_1_VDAC8_PM.c **** * Return: 
  88:.\Generated_Source\PSoC5/WaveDAC8_1_VDAC8_PM.c **** *  void
  89:.\Generated_Source\PSoC5/WaveDAC8_1_VDAC8_PM.c **** *
  90:.\Generated_Source\PSoC5/WaveDAC8_1_VDAC8_PM.c **** * Global variables:
  91:.\Generated_Source\PSoC5/WaveDAC8_1_VDAC8_PM.c **** *  WaveDAC8_1_VDAC8_backup.enableState:  Is modified depending on the enable 
  92:.\Generated_Source\PSoC5/WaveDAC8_1_VDAC8_PM.c **** *  state  of the block before entering sleep mode.
  93:.\Generated_Source\PSoC5/WaveDAC8_1_VDAC8_PM.c **** *
  94:.\Generated_Source\PSoC5/WaveDAC8_1_VDAC8_PM.c **** *******************************************************************************/
  95:.\Generated_Source\PSoC5/WaveDAC8_1_VDAC8_PM.c **** void WaveDAC8_1_VDAC8_Sleep(void) 
  96:.\Generated_Source\PSoC5/WaveDAC8_1_VDAC8_PM.c **** {
 153              		.loc 1 96 0
 154              		.cfi_startproc
 155              		@ args = 0, pretend = 0, frame = 0
 156              		@ frame_needed = 1, uses_anonymous_args = 0
 157 0000 80B5     		push	{r7, lr}
 158              		.cfi_def_cfa_offset 8
 159              		.cfi_offset 7, -8
 160              		.cfi_offset 14, -4
 161 0002 00AF     		add	r7, sp, #0
 162              		.cfi_def_cfa_register 7
  97:.\Generated_Source\PSoC5/WaveDAC8_1_VDAC8_PM.c ****     /* Save VDAC8's enable state */    
  98:.\Generated_Source\PSoC5/WaveDAC8_1_VDAC8_PM.c ****     if(WaveDAC8_1_VDAC8_ACT_PWR_EN == (WaveDAC8_1_VDAC8_PWRMGR & WaveDAC8_1_VDAC8_ACT_PWR_EN))
 163              		.loc 1 98 0
 164 0004 094B     		ldr	r3, .L13
 165 0006 1B78     		ldrb	r3, [r3]
 166 0008 DBB2     		uxtb	r3, r3
 167 000a 03F00103 		and	r3, r3, #1
 168 000e 002B     		cmp	r3, #0
 169 0010 03D0     		beq	.L11
  99:.\Generated_Source\PSoC5/WaveDAC8_1_VDAC8_PM.c ****     {
 100:.\Generated_Source\PSoC5/WaveDAC8_1_VDAC8_PM.c ****         /* VDAC8 is enabled */
 101:.\Generated_Source\PSoC5/WaveDAC8_1_VDAC8_PM.c ****         WaveDAC8_1_VDAC8_backup.enableState = 1u;
 170              		.loc 1 101 0
 171 0012 074B     		ldr	r3, .L13+4
 172 0014 0122     		movs	r2, #1
 173 0016 1A70     		strb	r2, [r3]
 174 0018 02E0     		b	.L12
 175              	.L11:
 102:.\Generated_Source\PSoC5/WaveDAC8_1_VDAC8_PM.c ****     }
 103:.\Generated_Source\PSoC5/WaveDAC8_1_VDAC8_PM.c ****     else
 104:.\Generated_Source\PSoC5/WaveDAC8_1_VDAC8_PM.c ****     {
 105:.\Generated_Source\PSoC5/WaveDAC8_1_VDAC8_PM.c ****         /* VDAC8 is disabled */
 106:.\Generated_Source\PSoC5/WaveDAC8_1_VDAC8_PM.c ****         WaveDAC8_1_VDAC8_backup.enableState = 0u;
 176              		.loc 1 106 0
 177 001a 054B     		ldr	r3, .L13+4
 178 001c 0022     		movs	r2, #0
 179 001e 1A70     		strb	r2, [r3]
ARM GAS  C:\Users\BRANKO~1\AppData\Local\Temp\ccUODvbu.s 			page 6


 180              	.L12:
 107:.\Generated_Source\PSoC5/WaveDAC8_1_VDAC8_PM.c ****     }
 108:.\Generated_Source\PSoC5/WaveDAC8_1_VDAC8_PM.c ****     
 109:.\Generated_Source\PSoC5/WaveDAC8_1_VDAC8_PM.c ****     WaveDAC8_1_VDAC8_Stop();
 181              		.loc 1 109 0
 182 0020 FFF7FEFF 		bl	WaveDAC8_1_VDAC8_Stop
 110:.\Generated_Source\PSoC5/WaveDAC8_1_VDAC8_PM.c ****     WaveDAC8_1_VDAC8_SaveConfig();
 183              		.loc 1 110 0
 184 0024 FFF7FEFF 		bl	WaveDAC8_1_VDAC8_SaveConfig
 111:.\Generated_Source\PSoC5/WaveDAC8_1_VDAC8_PM.c **** }
 185              		.loc 1 111 0
 186 0028 80BD     		pop	{r7, pc}
 187              	.L14:
 188 002a 00BF     		.align	2
 189              	.L13:
 190 002c A8430040 		.word	1073759144
 191 0030 00000000 		.word	WaveDAC8_1_VDAC8_backup
 192              		.cfi_endproc
 193              	.LFE2:
 194              		.size	WaveDAC8_1_VDAC8_Sleep, .-WaveDAC8_1_VDAC8_Sleep
 195              		.section	.text.WaveDAC8_1_VDAC8_Wakeup,"ax",%progbits
 196              		.align	2
 197              		.global	WaveDAC8_1_VDAC8_Wakeup
 198              		.thumb
 199              		.thumb_func
 200              		.type	WaveDAC8_1_VDAC8_Wakeup, %function
 201              	WaveDAC8_1_VDAC8_Wakeup:
 202              	.LFB3:
 112:.\Generated_Source\PSoC5/WaveDAC8_1_VDAC8_PM.c **** 
 113:.\Generated_Source\PSoC5/WaveDAC8_1_VDAC8_PM.c **** 
 114:.\Generated_Source\PSoC5/WaveDAC8_1_VDAC8_PM.c **** /*******************************************************************************
 115:.\Generated_Source\PSoC5/WaveDAC8_1_VDAC8_PM.c **** * Function Name: WaveDAC8_1_VDAC8_Wakeup
 116:.\Generated_Source\PSoC5/WaveDAC8_1_VDAC8_PM.c **** ********************************************************************************
 117:.\Generated_Source\PSoC5/WaveDAC8_1_VDAC8_PM.c **** *
 118:.\Generated_Source\PSoC5/WaveDAC8_1_VDAC8_PM.c **** * Summary:
 119:.\Generated_Source\PSoC5/WaveDAC8_1_VDAC8_PM.c **** *  Restores and enables the user configuration
 120:.\Generated_Source\PSoC5/WaveDAC8_1_VDAC8_PM.c **** *  
 121:.\Generated_Source\PSoC5/WaveDAC8_1_VDAC8_PM.c **** * Parameters:  
 122:.\Generated_Source\PSoC5/WaveDAC8_1_VDAC8_PM.c **** *  void
 123:.\Generated_Source\PSoC5/WaveDAC8_1_VDAC8_PM.c **** *
 124:.\Generated_Source\PSoC5/WaveDAC8_1_VDAC8_PM.c **** * Return: 
 125:.\Generated_Source\PSoC5/WaveDAC8_1_VDAC8_PM.c **** *  void
 126:.\Generated_Source\PSoC5/WaveDAC8_1_VDAC8_PM.c **** *
 127:.\Generated_Source\PSoC5/WaveDAC8_1_VDAC8_PM.c **** * Global variables:
 128:.\Generated_Source\PSoC5/WaveDAC8_1_VDAC8_PM.c **** *  WaveDAC8_1_VDAC8_backup.enableState:  Is used to restore the enable state of 
 129:.\Generated_Source\PSoC5/WaveDAC8_1_VDAC8_PM.c **** *  block on wakeup from sleep mode.
 130:.\Generated_Source\PSoC5/WaveDAC8_1_VDAC8_PM.c **** *
 131:.\Generated_Source\PSoC5/WaveDAC8_1_VDAC8_PM.c **** *******************************************************************************/
 132:.\Generated_Source\PSoC5/WaveDAC8_1_VDAC8_PM.c **** void WaveDAC8_1_VDAC8_Wakeup(void) 
 133:.\Generated_Source\PSoC5/WaveDAC8_1_VDAC8_PM.c **** {
 203              		.loc 1 133 0
 204              		.cfi_startproc
 205              		@ args = 0, pretend = 0, frame = 0
 206              		@ frame_needed = 1, uses_anonymous_args = 0
 207 0000 80B5     		push	{r7, lr}
 208              		.cfi_def_cfa_offset 8
 209              		.cfi_offset 7, -8
ARM GAS  C:\Users\BRANKO~1\AppData\Local\Temp\ccUODvbu.s 			page 7


 210              		.cfi_offset 14, -4
 211 0002 00AF     		add	r7, sp, #0
 212              		.cfi_def_cfa_register 7
 134:.\Generated_Source\PSoC5/WaveDAC8_1_VDAC8_PM.c ****     WaveDAC8_1_VDAC8_RestoreConfig();
 213              		.loc 1 134 0
 214 0004 FFF7FEFF 		bl	WaveDAC8_1_VDAC8_RestoreConfig
 135:.\Generated_Source\PSoC5/WaveDAC8_1_VDAC8_PM.c ****     
 136:.\Generated_Source\PSoC5/WaveDAC8_1_VDAC8_PM.c ****     if(WaveDAC8_1_VDAC8_backup.enableState == 1u)
 215              		.loc 1 136 0
 216 0008 064B     		ldr	r3, .L17
 217 000a 1B78     		ldrb	r3, [r3]	@ zero_extendqisi2
 218 000c 012B     		cmp	r3, #1
 219 000e 07D1     		bne	.L15
 137:.\Generated_Source\PSoC5/WaveDAC8_1_VDAC8_PM.c ****     {
 138:.\Generated_Source\PSoC5/WaveDAC8_1_VDAC8_PM.c ****         /* Enable VDAC8's operation */
 139:.\Generated_Source\PSoC5/WaveDAC8_1_VDAC8_PM.c ****         WaveDAC8_1_VDAC8_Enable();
 220              		.loc 1 139 0
 221 0010 FFF7FEFF 		bl	WaveDAC8_1_VDAC8_Enable
 140:.\Generated_Source\PSoC5/WaveDAC8_1_VDAC8_PM.c **** 
 141:.\Generated_Source\PSoC5/WaveDAC8_1_VDAC8_PM.c ****         /* Restore the data register */
 142:.\Generated_Source\PSoC5/WaveDAC8_1_VDAC8_PM.c ****         WaveDAC8_1_VDAC8_SetValue(WaveDAC8_1_VDAC8_Data);
 222              		.loc 1 142 0
 223 0014 044B     		ldr	r3, .L17+4
 224 0016 1B78     		ldrb	r3, [r3]
 225 0018 DBB2     		uxtb	r3, r3
 226 001a 1846     		mov	r0, r3
 227 001c FFF7FEFF 		bl	WaveDAC8_1_VDAC8_SetValue
 228              	.L15:
 143:.\Generated_Source\PSoC5/WaveDAC8_1_VDAC8_PM.c ****     } /* Do nothing if VDAC8 was disabled before */    
 144:.\Generated_Source\PSoC5/WaveDAC8_1_VDAC8_PM.c **** }
 229              		.loc 1 144 0
 230 0020 80BD     		pop	{r7, pc}
 231              	.L18:
 232 0022 00BF     		.align	2
 233              	.L17:
 234 0024 00000000 		.word	WaveDAC8_1_VDAC8_backup
 235 0028 805B0040 		.word	1073765248
 236              		.cfi_endproc
 237              	.LFE3:
 238              		.size	WaveDAC8_1_VDAC8_Wakeup, .-WaveDAC8_1_VDAC8_Wakeup
 239              		.text
 240              	.Letext0:
 241              		.file 2 ".\\Generated_Source\\PSoC5\\cytypes.h"
 242              		.file 3 ".\\Generated_Source\\PSoC5\\WaveDAC8_1_VDAC8.h"