ARM GAS  C:\Users\karunmj\AppData\Local\Temp\ccm1hGxm.s 			page 1


   1              		.syntax unified
   2              		.cpu cortex-m3
   3              		.fpu softvfp
   4              		.eabi_attribute 20, 1
   5              		.eabi_attribute 21, 1
   6              		.eabi_attribute 23, 3
   7              		.eabi_attribute 24, 1
   8              		.eabi_attribute 25, 1
   9              		.eabi_attribute 26, 1
  10              		.eabi_attribute 30, 6
  11              		.eabi_attribute 18, 4
  12              		.thumb
  13              		.file	"Comp_3.c"
  20 0000 7D010000 		.text
  20      02005F00 
  20      00000201 
  20      FB0E0D00 
  20      01010101 
  21              	.Ltext0:
  22              		.cfi_sections	.debug_frame
  23              		.global	Comp_3_initVar
  24              		.bss
  25              		.type	Comp_3_initVar, %object
  26              		.size	Comp_3_initVar, 1
  27              	Comp_3_initVar:
  28 0000 00       		.space	1
  29              		.section	.text.Comp_3_Init,"ax",%progbits
  30              		.align	2
  31              		.global	Comp_3_Init
  32              		.thumb
  33              		.thumb_func
  34              		.type	Comp_3_Init, %function
  35              	Comp_3_Init:
  36              	.LFB0:
  37              		.file 1 ".\\Generated_Source\\PSoC5\\Comp_3.c"
   1:.\Generated_Source\PSoC5/Comp_3.c **** /*******************************************************************************
   2:.\Generated_Source\PSoC5/Comp_3.c **** * File Name: Comp_3.c
   3:.\Generated_Source\PSoC5/Comp_3.c **** * Version 2.0
   4:.\Generated_Source\PSoC5/Comp_3.c **** *
   5:.\Generated_Source\PSoC5/Comp_3.c **** * Description:
   6:.\Generated_Source\PSoC5/Comp_3.c **** *  This file provides the source code to the API for the Comparator component
   7:.\Generated_Source\PSoC5/Comp_3.c **** *
   8:.\Generated_Source\PSoC5/Comp_3.c **** * Note:
   9:.\Generated_Source\PSoC5/Comp_3.c **** *  None
  10:.\Generated_Source\PSoC5/Comp_3.c **** *
  11:.\Generated_Source\PSoC5/Comp_3.c **** ********************************************************************************
  12:.\Generated_Source\PSoC5/Comp_3.c **** * Copyright 2008-2012, Cypress Semiconductor Corporation.  All rights reserved.
  13:.\Generated_Source\PSoC5/Comp_3.c **** * You may use this file only in accordance with the license, terms, conditions, 
  14:.\Generated_Source\PSoC5/Comp_3.c **** * disclaimers, and limitations in the end user license agreement accompanying 
  15:.\Generated_Source\PSoC5/Comp_3.c **** * the software package with which this file was provided.
  16:.\Generated_Source\PSoC5/Comp_3.c **** *******************************************************************************/
ARM GAS  C:\Users\karunmj\AppData\Local\Temp\ccm1hGxm.s 			page 2


  17:.\Generated_Source\PSoC5/Comp_3.c **** 
  18:.\Generated_Source\PSoC5/Comp_3.c **** #include "Comp_3.h"
  19:.\Generated_Source\PSoC5/Comp_3.c **** 
  20:.\Generated_Source\PSoC5/Comp_3.c **** uint8 Comp_3_initVar = 0u;
  21:.\Generated_Source\PSoC5/Comp_3.c **** 
  22:.\Generated_Source\PSoC5/Comp_3.c **** /* Internal functions definitoin */
  23:.\Generated_Source\PSoC5/Comp_3.c **** static void Comp_3_trimAdjust(uint8 nibble) ;
  24:.\Generated_Source\PSoC5/Comp_3.c **** 
  25:.\Generated_Source\PSoC5/Comp_3.c **** /* static Comp_3_backupStruct  Comp_3_backup; */
  26:.\Generated_Source\PSoC5/Comp_3.c **** #if (CY_PSOC5A)
  27:.\Generated_Source\PSoC5/Comp_3.c ****     static Comp_3_LOWPOWER_BACKUP_STRUCT  Comp_3_lowPowerBackup;
  28:.\Generated_Source\PSoC5/Comp_3.c **** #endif /* CY_PSOC5A */
  29:.\Generated_Source\PSoC5/Comp_3.c **** 
  30:.\Generated_Source\PSoC5/Comp_3.c **** /* variable to decide whether or not to restore the control register in 
  31:.\Generated_Source\PSoC5/Comp_3.c ****    Enable() API for PSoC5A only */
  32:.\Generated_Source\PSoC5/Comp_3.c **** #if (CY_PSOC5A)
  33:.\Generated_Source\PSoC5/Comp_3.c ****     static uint8 Comp_3_restoreReg = 0u;
  34:.\Generated_Source\PSoC5/Comp_3.c **** #endif /* CY_PSOC5A */
  35:.\Generated_Source\PSoC5/Comp_3.c **** 
  36:.\Generated_Source\PSoC5/Comp_3.c **** 
  37:.\Generated_Source\PSoC5/Comp_3.c **** /*******************************************************************************
  38:.\Generated_Source\PSoC5/Comp_3.c **** * Function Name: Comp_3_Init
  39:.\Generated_Source\PSoC5/Comp_3.c **** ********************************************************************************
  40:.\Generated_Source\PSoC5/Comp_3.c **** *
  41:.\Generated_Source\PSoC5/Comp_3.c **** * Summary:
  42:.\Generated_Source\PSoC5/Comp_3.c **** *  Initialize to the schematic state
  43:.\Generated_Source\PSoC5/Comp_3.c **** * 
  44:.\Generated_Source\PSoC5/Comp_3.c **** * Parameters:
  45:.\Generated_Source\PSoC5/Comp_3.c **** *  void
  46:.\Generated_Source\PSoC5/Comp_3.c **** *
  47:.\Generated_Source\PSoC5/Comp_3.c **** * Return:
  48:.\Generated_Source\PSoC5/Comp_3.c **** *  void
  49:.\Generated_Source\PSoC5/Comp_3.c **** *
  50:.\Generated_Source\PSoC5/Comp_3.c **** *******************************************************************************/
  51:.\Generated_Source\PSoC5/Comp_3.c **** void Comp_3_Init(void) 
  52:.\Generated_Source\PSoC5/Comp_3.c **** {
  38              		.loc 1 52 0
  39              		.cfi_startproc
  40              		@ args = 0, pretend = 0, frame = 0
  41              		@ frame_needed = 1, uses_anonymous_args = 0
  42 0000 80B5     		push	{r7, lr}
  43              	.LCFI0:
  44              		.cfi_def_cfa_offset 8
  45 0002 00AF     		add	r7, sp, #0
  46              		.cfi_offset 14, -4
  47              		.cfi_offset 7, -8
  48              	.LCFI1:
  49              		.cfi_def_cfa_register 7
  53:.\Generated_Source\PSoC5/Comp_3.c ****     /* Set default speed/power */
  54:.\Generated_Source\PSoC5/Comp_3.c ****     Comp_3_SetSpeed(Comp_3_DEFAULT_SPEED);
  50              		.loc 1 54 0
  51 0004 4FF00000 		mov	r0, #0
  52 0008 FFF7FEFF 		bl	Comp_3_SetSpeed
  55:.\Generated_Source\PSoC5/Comp_3.c **** 
  56:.\Generated_Source\PSoC5/Comp_3.c ****     /* Set default Hysteresis */
  57:.\Generated_Source\PSoC5/Comp_3.c ****     #if ( Comp_3_DEFAULT_HYSTERESIS == 0u )
  58:.\Generated_Source\PSoC5/Comp_3.c ****         Comp_3_CR |= Comp_3_HYST_OFF;
ARM GAS  C:\Users\karunmj\AppData\Local\Temp\ccm1hGxm.s 			page 3


  53              		.loc 1 58 0
  54 000c 45F64103 		movw	r3, #:lower16:1073764417
  55 0010 C4F20003 		movt	r3, #:upper16:1073764417
  56 0014 45F64102 		movw	r2, #:lower16:1073764417
  57 0018 C4F20002 		movt	r2, #:upper16:1073764417
  58 001c 1278     		ldrb	r2, [r2, #0]
  59 001e D2B2     		uxtb	r2, r2
  60 0020 42F02002 		orr	r2, r2, #32
  61 0024 D2B2     		uxtb	r2, r2
  62 0026 1A70     		strb	r2, [r3, #0]
  59:.\Generated_Source\PSoC5/Comp_3.c ****     #else
  60:.\Generated_Source\PSoC5/Comp_3.c ****         Comp_3_CR &= (uint8)(~Comp_3_HYST_OFF);
  61:.\Generated_Source\PSoC5/Comp_3.c ****     #endif /* Comp_3_DEFAULT_HYSTERESIS == 0u */
  62:.\Generated_Source\PSoC5/Comp_3.c ****     /* Power down override feature is not supported for PSoC5A. */
  63:.\Generated_Source\PSoC5/Comp_3.c ****     #if (CY_PSOC3 || CY_PSOC5LP)
  64:.\Generated_Source\PSoC5/Comp_3.c ****         /* Set default Power Down Override */
  65:.\Generated_Source\PSoC5/Comp_3.c ****         #if ( Comp_3_DEFAULT_PWRDWN_OVRD == 0u )
  66:.\Generated_Source\PSoC5/Comp_3.c ****             Comp_3_CR &= (uint8)(~Comp_3_PWRDWN_OVRD);
  63              		.loc 1 66 0
  64 0028 45F64103 		movw	r3, #:lower16:1073764417
  65 002c C4F20003 		movt	r3, #:upper16:1073764417
  66 0030 45F64102 		movw	r2, #:lower16:1073764417
  67 0034 C4F20002 		movt	r2, #:upper16:1073764417
  68 0038 1278     		ldrb	r2, [r2, #0]
  69 003a D2B2     		uxtb	r2, r2
  70 003c 02F0FB02 		and	r2, r2, #251
  71 0040 1A70     		strb	r2, [r3, #0]
  67:.\Generated_Source\PSoC5/Comp_3.c ****         #else 
  68:.\Generated_Source\PSoC5/Comp_3.c ****             Comp_3_CR |= Comp_3_PWRDWN_OVRD;
  69:.\Generated_Source\PSoC5/Comp_3.c ****         #endif /* Comp_3_DEFAULT_PWRDWN_OVRD == 0u */
  70:.\Generated_Source\PSoC5/Comp_3.c ****     #endif /* CY_PSOC3 || CY_PSOC5LP */
  71:.\Generated_Source\PSoC5/Comp_3.c ****     
  72:.\Generated_Source\PSoC5/Comp_3.c ****     /* Set mux always on logic */
  73:.\Generated_Source\PSoC5/Comp_3.c ****     Comp_3_CR |= Comp_3_MX_AO;
  72              		.loc 1 73 0
  73 0042 45F64103 		movw	r3, #:lower16:1073764417
  74 0046 C4F20003 		movt	r3, #:upper16:1073764417
  75 004a 45F64102 		movw	r2, #:lower16:1073764417
  76 004e C4F20002 		movt	r2, #:upper16:1073764417
  77 0052 1278     		ldrb	r2, [r2, #0]
  78 0054 D2B2     		uxtb	r2, r2
  79 0056 42F00802 		orr	r2, r2, #8
  80 005a D2B2     		uxtb	r2, r2
  81 005c 1A70     		strb	r2, [r3, #0]
  74:.\Generated_Source\PSoC5/Comp_3.c **** 
  75:.\Generated_Source\PSoC5/Comp_3.c ****     /* Set default sync */
  76:.\Generated_Source\PSoC5/Comp_3.c ****     Comp_3_CLK &= (uint8)(~Comp_3_SYNCCLK_MASK);
  82              		.loc 1 76 0
  83 005e 45F6CF23 		movw	r3, #:lower16:1073765071
  84 0062 C4F20003 		movt	r3, #:upper16:1073765071
  85 0066 45F6CF22 		movw	r2, #:lower16:1073765071
  86 006a C4F20002 		movt	r2, #:upper16:1073765071
  87 006e 1278     		ldrb	r2, [r2, #0]
  88 0070 D2B2     		uxtb	r2, r2
  89 0072 02F0E702 		and	r2, r2, #231
  90 0076 1A70     		strb	r2, [r3, #0]
  77:.\Generated_Source\PSoC5/Comp_3.c ****     #if ( Comp_3_DEFAULT_BYPASS_SYNC == 0u )
ARM GAS  C:\Users\karunmj\AppData\Local\Temp\ccm1hGxm.s 			page 4


  78:.\Generated_Source\PSoC5/Comp_3.c ****         Comp_3_CLK |= Comp_3_SYNC_CLK_EN;
  91              		.loc 1 78 0
  92 0078 45F6CF23 		movw	r3, #:lower16:1073765071
  93 007c C4F20003 		movt	r3, #:upper16:1073765071
  94 0080 45F6CF22 		movw	r2, #:lower16:1073765071
  95 0084 C4F20002 		movt	r2, #:upper16:1073765071
  96 0088 1278     		ldrb	r2, [r2, #0]
  97 008a D2B2     		uxtb	r2, r2
  98 008c 42F00802 		orr	r2, r2, #8
  99 0090 D2B2     		uxtb	r2, r2
 100 0092 1A70     		strb	r2, [r3, #0]
  79:.\Generated_Source\PSoC5/Comp_3.c ****     #else
  80:.\Generated_Source\PSoC5/Comp_3.c ****         Comp_3_CLK |= Comp_3_BYPASS_SYNC;
  81:.\Generated_Source\PSoC5/Comp_3.c ****     #endif /* Comp_3_DEFAULT_BYPASS_SYNC == 0u */
  82:.\Generated_Source\PSoC5/Comp_3.c **** }
 101              		.loc 1 82 0
 102 0094 80BD     		pop	{r7, pc}
 103              		.cfi_endproc
 104              	.LFE0:
 105              		.size	Comp_3_Init, .-Comp_3_Init
 106 0096 00BF     		.section	.text.Comp_3_Enable,"ax",%progbits
 107              		.align	2
 108              		.global	Comp_3_Enable
 109              		.thumb
 110              		.thumb_func
 111              		.type	Comp_3_Enable, %function
 112              	Comp_3_Enable:
 113              	.LFB1:
  83:.\Generated_Source\PSoC5/Comp_3.c **** 
  84:.\Generated_Source\PSoC5/Comp_3.c **** 
  85:.\Generated_Source\PSoC5/Comp_3.c **** /*******************************************************************************
  86:.\Generated_Source\PSoC5/Comp_3.c **** * Function Name: Comp_3_Enable
  87:.\Generated_Source\PSoC5/Comp_3.c **** ********************************************************************************
  88:.\Generated_Source\PSoC5/Comp_3.c **** *
  89:.\Generated_Source\PSoC5/Comp_3.c **** * Summary:
  90:.\Generated_Source\PSoC5/Comp_3.c **** *  Enable the Comparator
  91:.\Generated_Source\PSoC5/Comp_3.c **** * 
  92:.\Generated_Source\PSoC5/Comp_3.c **** * Parameters:
  93:.\Generated_Source\PSoC5/Comp_3.c **** *  void
  94:.\Generated_Source\PSoC5/Comp_3.c **** *
  95:.\Generated_Source\PSoC5/Comp_3.c **** * Return:
  96:.\Generated_Source\PSoC5/Comp_3.c **** *  void
  97:.\Generated_Source\PSoC5/Comp_3.c **** *
  98:.\Generated_Source\PSoC5/Comp_3.c **** *******************************************************************************/
  99:.\Generated_Source\PSoC5/Comp_3.c **** void Comp_3_Enable(void) 
 100:.\Generated_Source\PSoC5/Comp_3.c **** {
 114              		.loc 1 100 0
 115              		.cfi_startproc
 116              		@ args = 0, pretend = 0, frame = 0
 117              		@ frame_needed = 1, uses_anonymous_args = 0
 118              		@ link register save eliminated.
 119 0000 80B4     		push	{r7}
 120              	.LCFI2:
 121              		.cfi_def_cfa_offset 4
 122 0002 00AF     		add	r7, sp, #0
 123              		.cfi_offset 7, -4
 124              	.LCFI3:
ARM GAS  C:\Users\karunmj\AppData\Local\Temp\ccm1hGxm.s 			page 5


 125              		.cfi_def_cfa_register 7
 101:.\Generated_Source\PSoC5/Comp_3.c ****     Comp_3_PWRMGR |= Comp_3_ACT_PWR_EN;
 126              		.loc 1 101 0
 127 0004 44F2A733 		movw	r3, #:lower16:1073759143
 128 0008 C4F20003 		movt	r3, #:upper16:1073759143
 129 000c 44F2A732 		movw	r2, #:lower16:1073759143
 130 0010 C4F20002 		movt	r2, #:upper16:1073759143
 131 0014 1278     		ldrb	r2, [r2, #0]
 132 0016 D2B2     		uxtb	r2, r2
 133 0018 42F00202 		orr	r2, r2, #2
 134 001c D2B2     		uxtb	r2, r2
 135 001e 1A70     		strb	r2, [r3, #0]
 102:.\Generated_Source\PSoC5/Comp_3.c ****     Comp_3_STBY_PWRMGR |= Comp_3_STBY_PWR_EN;
 136              		.loc 1 102 0
 137 0020 44F2B733 		movw	r3, #:lower16:1073759159
 138 0024 C4F20003 		movt	r3, #:upper16:1073759159
 139 0028 44F2B732 		movw	r2, #:lower16:1073759159
 140 002c C4F20002 		movt	r2, #:upper16:1073759159
 141 0030 1278     		ldrb	r2, [r2, #0]
 142 0032 D2B2     		uxtb	r2, r2
 143 0034 42F00202 		orr	r2, r2, #2
 144 0038 D2B2     		uxtb	r2, r2
 145 003a 1A70     		strb	r2, [r3, #0]
 103:.\Generated_Source\PSoC5/Comp_3.c ****      
 104:.\Generated_Source\PSoC5/Comp_3.c ****      /* This is to restore the value of register CR which is saved 
 105:.\Generated_Source\PSoC5/Comp_3.c ****     in prior to the modification in stop() API */
 106:.\Generated_Source\PSoC5/Comp_3.c ****     #if (CY_PSOC5A)
 107:.\Generated_Source\PSoC5/Comp_3.c ****         if(Comp_3_restoreReg == 1u)
 108:.\Generated_Source\PSoC5/Comp_3.c ****         {
 109:.\Generated_Source\PSoC5/Comp_3.c ****             Comp_3_CR = Comp_3_lowPowerBackup.compCRReg;
 110:.\Generated_Source\PSoC5/Comp_3.c **** 
 111:.\Generated_Source\PSoC5/Comp_3.c ****             /* Clear the flag */
 112:.\Generated_Source\PSoC5/Comp_3.c ****             Comp_3_restoreReg = 0u;
 113:.\Generated_Source\PSoC5/Comp_3.c ****         }
 114:.\Generated_Source\PSoC5/Comp_3.c ****     #endif /* CY_PSOC5A */
 115:.\Generated_Source\PSoC5/Comp_3.c **** }
 146              		.loc 1 115 0
 147 003c BD46     		mov	sp, r7
 148 003e 80BC     		pop	{r7}
 149 0040 7047     		bx	lr
 150              		.cfi_endproc
 151              	.LFE1:
 152              		.size	Comp_3_Enable, .-Comp_3_Enable
 153 0042 00BF     		.section	.text.Comp_3_Start,"ax",%progbits
 154              		.align	2
 155              		.global	Comp_3_Start
 156              		.thumb
 157              		.thumb_func
 158              		.type	Comp_3_Start, %function
 159              	Comp_3_Start:
 160              	.LFB2:
 116:.\Generated_Source\PSoC5/Comp_3.c **** 
 117:.\Generated_Source\PSoC5/Comp_3.c **** 
 118:.\Generated_Source\PSoC5/Comp_3.c **** /*******************************************************************************
 119:.\Generated_Source\PSoC5/Comp_3.c **** * Function Name: Comp_3_Start
 120:.\Generated_Source\PSoC5/Comp_3.c **** ********************************************************************************
 121:.\Generated_Source\PSoC5/Comp_3.c **** *
ARM GAS  C:\Users\karunmj\AppData\Local\Temp\ccm1hGxm.s 			page 6


 122:.\Generated_Source\PSoC5/Comp_3.c **** * Summary:
 123:.\Generated_Source\PSoC5/Comp_3.c **** *  The start function initializes the Analog Comparator with the default values.
 124:.\Generated_Source\PSoC5/Comp_3.c **** *
 125:.\Generated_Source\PSoC5/Comp_3.c **** * Parameters:
 126:.\Generated_Source\PSoC5/Comp_3.c **** *  void
 127:.\Generated_Source\PSoC5/Comp_3.c **** *
 128:.\Generated_Source\PSoC5/Comp_3.c **** * Return:
 129:.\Generated_Source\PSoC5/Comp_3.c **** *  void 
 130:.\Generated_Source\PSoC5/Comp_3.c **** *
 131:.\Generated_Source\PSoC5/Comp_3.c **** * Global variables:
 132:.\Generated_Source\PSoC5/Comp_3.c **** *  Comp_3_initVar: Is modified when this function is called for the 
 133:.\Generated_Source\PSoC5/Comp_3.c **** *   first time. Is used to ensure that initialization happens only once.
 134:.\Generated_Source\PSoC5/Comp_3.c **** *  
 135:.\Generated_Source\PSoC5/Comp_3.c **** *******************************************************************************/
 136:.\Generated_Source\PSoC5/Comp_3.c **** void Comp_3_Start(void) 
 137:.\Generated_Source\PSoC5/Comp_3.c **** {
 161              		.loc 1 137 0
 162              		.cfi_startproc
 163              		@ args = 0, pretend = 0, frame = 0
 164              		@ frame_needed = 1, uses_anonymous_args = 0
 165 0000 80B5     		push	{r7, lr}
 166              	.LCFI4:
 167              		.cfi_def_cfa_offset 8
 168 0002 00AF     		add	r7, sp, #0
 169              		.cfi_offset 14, -4
 170              		.cfi_offset 7, -8
 171              	.LCFI5:
 172              		.cfi_def_cfa_register 7
 138:.\Generated_Source\PSoC5/Comp_3.c **** 
 139:.\Generated_Source\PSoC5/Comp_3.c ****     if ( Comp_3_initVar == 0u )
 173              		.loc 1 139 0
 174 0004 40F20003 		movw	r3, #:lower16:Comp_3_initVar
 175 0008 C0F20003 		movt	r3, #:upper16:Comp_3_initVar
 176 000c 1B78     		ldrb	r3, [r3, #0]	@ zero_extendqisi2
 177 000e 002B     		cmp	r3, #0
 178 0010 08D1     		bne	.L6
 140:.\Generated_Source\PSoC5/Comp_3.c ****     {
 141:.\Generated_Source\PSoC5/Comp_3.c ****         Comp_3_Init();
 179              		.loc 1 141 0
 180 0012 FFF7FEFF 		bl	Comp_3_Init
 142:.\Generated_Source\PSoC5/Comp_3.c ****         
 143:.\Generated_Source\PSoC5/Comp_3.c ****         Comp_3_initVar = 1u;
 181              		.loc 1 143 0
 182 0016 40F20003 		movw	r3, #:lower16:Comp_3_initVar
 183 001a C0F20003 		movt	r3, #:upper16:Comp_3_initVar
 184 001e 4FF00102 		mov	r2, #1
 185 0022 1A70     		strb	r2, [r3, #0]
 186              	.L6:
 144:.\Generated_Source\PSoC5/Comp_3.c ****     }   
 145:.\Generated_Source\PSoC5/Comp_3.c **** 
 146:.\Generated_Source\PSoC5/Comp_3.c ****     /* Enable power to comparator */
 147:.\Generated_Source\PSoC5/Comp_3.c ****     Comp_3_Enable();    
 187              		.loc 1 147 0
 188 0024 FFF7FEFF 		bl	Comp_3_Enable
 148:.\Generated_Source\PSoC5/Comp_3.c **** }
 189              		.loc 1 148 0
 190 0028 80BD     		pop	{r7, pc}
ARM GAS  C:\Users\karunmj\AppData\Local\Temp\ccm1hGxm.s 			page 7


 191              		.cfi_endproc
 192              	.LFE2:
 193              		.size	Comp_3_Start, .-Comp_3_Start
 194 002a 00BF     		.section	.text.Comp_3_Stop,"ax",%progbits
 195              		.align	2
 196              		.global	Comp_3_Stop
 197              		.thumb
 198              		.thumb_func
 199              		.type	Comp_3_Stop, %function
 200              	Comp_3_Stop:
 201              	.LFB3:
 149:.\Generated_Source\PSoC5/Comp_3.c **** 
 150:.\Generated_Source\PSoC5/Comp_3.c **** 
 151:.\Generated_Source\PSoC5/Comp_3.c **** /*******************************************************************************
 152:.\Generated_Source\PSoC5/Comp_3.c **** * Function Name: Comp_3_Stop
 153:.\Generated_Source\PSoC5/Comp_3.c **** ********************************************************************************
 154:.\Generated_Source\PSoC5/Comp_3.c **** *
 155:.\Generated_Source\PSoC5/Comp_3.c **** * Summary:
 156:.\Generated_Source\PSoC5/Comp_3.c **** *  Powers down amplifier to lowest power state.
 157:.\Generated_Source\PSoC5/Comp_3.c **** *
 158:.\Generated_Source\PSoC5/Comp_3.c **** * Parameters:
 159:.\Generated_Source\PSoC5/Comp_3.c **** *  void
 160:.\Generated_Source\PSoC5/Comp_3.c **** *
 161:.\Generated_Source\PSoC5/Comp_3.c **** * Return:
 162:.\Generated_Source\PSoC5/Comp_3.c **** *  void
 163:.\Generated_Source\PSoC5/Comp_3.c **** *
 164:.\Generated_Source\PSoC5/Comp_3.c **** *******************************************************************************/
 165:.\Generated_Source\PSoC5/Comp_3.c **** void Comp_3_Stop(void) 
 166:.\Generated_Source\PSoC5/Comp_3.c **** {
 202              		.loc 1 166 0
 203              		.cfi_startproc
 204              		@ args = 0, pretend = 0, frame = 0
 205              		@ frame_needed = 1, uses_anonymous_args = 0
 206              		@ link register save eliminated.
 207 0000 80B4     		push	{r7}
 208              	.LCFI6:
 209              		.cfi_def_cfa_offset 4
 210 0002 00AF     		add	r7, sp, #0
 211              		.cfi_offset 7, -4
 212              	.LCFI7:
 213              		.cfi_def_cfa_register 7
 167:.\Generated_Source\PSoC5/Comp_3.c ****     /* Disable power to comparator */
 168:.\Generated_Source\PSoC5/Comp_3.c ****     Comp_3_PWRMGR &= (uint8)(~Comp_3_ACT_PWR_EN);
 214              		.loc 1 168 0
 215 0004 44F2A733 		movw	r3, #:lower16:1073759143
 216 0008 C4F20003 		movt	r3, #:upper16:1073759143
 217 000c 44F2A732 		movw	r2, #:lower16:1073759143
 218 0010 C4F20002 		movt	r2, #:upper16:1073759143
 219 0014 1278     		ldrb	r2, [r2, #0]
 220 0016 D2B2     		uxtb	r2, r2
 221 0018 02F0FD02 		and	r2, r2, #253
 222 001c 1A70     		strb	r2, [r3, #0]
 169:.\Generated_Source\PSoC5/Comp_3.c ****     Comp_3_STBY_PWRMGR &= (uint8)(~Comp_3_STBY_PWR_EN);
 223              		.loc 1 169 0
 224 001e 44F2B733 		movw	r3, #:lower16:1073759159
 225 0022 C4F20003 		movt	r3, #:upper16:1073759159
 226 0026 44F2B732 		movw	r2, #:lower16:1073759159
ARM GAS  C:\Users\karunmj\AppData\Local\Temp\ccm1hGxm.s 			page 8


 227 002a C4F20002 		movt	r2, #:upper16:1073759159
 228 002e 1278     		ldrb	r2, [r2, #0]
 229 0030 D2B2     		uxtb	r2, r2
 230 0032 02F0FD02 		and	r2, r2, #253
 231 0036 1A70     		strb	r2, [r3, #0]
 170:.\Generated_Source\PSoC5/Comp_3.c ****     
 171:.\Generated_Source\PSoC5/Comp_3.c ****     #if (CY_PSOC5A)
 172:.\Generated_Source\PSoC5/Comp_3.c ****         /* Enable the variable */
 173:.\Generated_Source\PSoC5/Comp_3.c ****         Comp_3_restoreReg = 1u;
 174:.\Generated_Source\PSoC5/Comp_3.c **** 
 175:.\Generated_Source\PSoC5/Comp_3.c ****         /* Save the control register before clearing it */
 176:.\Generated_Source\PSoC5/Comp_3.c ****         Comp_3_lowPowerBackup.compCRReg = Comp_3_CR;
 177:.\Generated_Source\PSoC5/Comp_3.c ****         Comp_3_CR = Comp_3_COMP_REG_CLR;
 178:.\Generated_Source\PSoC5/Comp_3.c ****     #endif /* CY_PSOC5A */
 179:.\Generated_Source\PSoC5/Comp_3.c **** }
 232              		.loc 1 179 0
 233 0038 BD46     		mov	sp, r7
 234 003a 80BC     		pop	{r7}
 235 003c 7047     		bx	lr
 236              		.cfi_endproc
 237              	.LFE3:
 238              		.size	Comp_3_Stop, .-Comp_3_Stop
 239 003e 00BF     		.section	.text.Comp_3_SetSpeed,"ax",%progbits
 240              		.align	2
 241              		.global	Comp_3_SetSpeed
 242              		.thumb
 243              		.thumb_func
 244              		.type	Comp_3_SetSpeed, %function
 245              	Comp_3_SetSpeed:
 246              	.LFB4:
 180:.\Generated_Source\PSoC5/Comp_3.c **** 
 181:.\Generated_Source\PSoC5/Comp_3.c **** 
 182:.\Generated_Source\PSoC5/Comp_3.c **** /*******************************************************************************
 183:.\Generated_Source\PSoC5/Comp_3.c **** * Function Name: Comp_3_SetSpeed
 184:.\Generated_Source\PSoC5/Comp_3.c **** ********************************************************************************
 185:.\Generated_Source\PSoC5/Comp_3.c **** *
 186:.\Generated_Source\PSoC5/Comp_3.c **** * Summary:
 187:.\Generated_Source\PSoC5/Comp_3.c **** *  This function sets the speed of the Analog Comparator. The faster the speed
 188:.\Generated_Source\PSoC5/Comp_3.c **** *  the more power that is used.
 189:.\Generated_Source\PSoC5/Comp_3.c **** *
 190:.\Generated_Source\PSoC5/Comp_3.c **** * Parameters:
 191:.\Generated_Source\PSoC5/Comp_3.c **** *  speed: (uint8) Sets operation mode of Comparator
 192:.\Generated_Source\PSoC5/Comp_3.c **** *
 193:.\Generated_Source\PSoC5/Comp_3.c **** * Return:
 194:.\Generated_Source\PSoC5/Comp_3.c **** *  void
 195:.\Generated_Source\PSoC5/Comp_3.c **** *
 196:.\Generated_Source\PSoC5/Comp_3.c **** *******************************************************************************/
 197:.\Generated_Source\PSoC5/Comp_3.c **** void Comp_3_SetSpeed(uint8 speed) 
 198:.\Generated_Source\PSoC5/Comp_3.c **** {
 247              		.loc 1 198 0
 248              		.cfi_startproc
 249              		@ args = 0, pretend = 0, frame = 8
 250              		@ frame_needed = 1, uses_anonymous_args = 0
 251              		@ link register save eliminated.
 252 0000 80B4     		push	{r7}
 253              	.LCFI8:
 254              		.cfi_def_cfa_offset 4
ARM GAS  C:\Users\karunmj\AppData\Local\Temp\ccm1hGxm.s 			page 9


 255 0002 83B0     		sub	sp, sp, #12
 256              	.LCFI9:
 257              		.cfi_def_cfa_offset 16
 258 0004 00AF     		add	r7, sp, #0
 259              		.cfi_offset 7, -4
 260              	.LCFI10:
 261              		.cfi_def_cfa_register 7
 262 0006 0346     		mov	r3, r0
 263 0008 FB71     		strb	r3, [r7, #7]
 199:.\Generated_Source\PSoC5/Comp_3.c ****     /* Clear and Set power level */    
 200:.\Generated_Source\PSoC5/Comp_3.c ****     Comp_3_CR = (Comp_3_CR & (uint8)(~Comp_3_PWR_MODE_MASK)) |
 264              		.loc 1 200 0
 265 000a 45F64103 		movw	r3, #:lower16:1073764417
 266 000e C4F20003 		movt	r3, #:upper16:1073764417
 267 0012 45F64102 		movw	r2, #:lower16:1073764417
 268 0016 C4F20002 		movt	r2, #:upper16:1073764417
 269 001a 1278     		ldrb	r2, [r2, #0]
 270 001c D2B2     		uxtb	r2, r2
 271 001e D1B2     		uxtb	r1, r2
 272 0020 01F0FC01 		and	r1, r1, #252
 273 0024 FA79     		ldrb	r2, [r7, #7]	@ zero_extendqisi2
 274 0026 D2B2     		uxtb	r2, r2
 275 0028 02F00302 		and	r2, r2, #3
 276 002c 41EA0202 		orr	r2, r1, r2
 277 0030 D2B2     		uxtb	r2, r2
 278 0032 D2B2     		uxtb	r2, r2
 279 0034 1A70     		strb	r2, [r3, #0]
 201:.\Generated_Source\PSoC5/Comp_3.c ****                            (speed & Comp_3_PWR_MODE_MASK);
 202:.\Generated_Source\PSoC5/Comp_3.c **** 
 203:.\Generated_Source\PSoC5/Comp_3.c ****     /* Set trim value for high speed comparator */
 204:.\Generated_Source\PSoC5/Comp_3.c ****     if(speed == Comp_3_HIGHSPEED)
 280              		.loc 1 204 0
 281 0036 FB79     		ldrb	r3, [r7, #7]	@ zero_extendqisi2
 282 0038 012B     		cmp	r3, #1
 283 003a 16D1     		bne	.L11
 205:.\Generated_Source\PSoC5/Comp_3.c ****     {
 206:.\Generated_Source\PSoC5/Comp_3.c ****         /* PSoC5A */
 207:.\Generated_Source\PSoC5/Comp_3.c ****         #if (CY_PSOC5A)
 208:.\Generated_Source\PSoC5/Comp_3.c ****             Comp_3_TR = Comp_3_HS_TRIM_TR0;
 209:.\Generated_Source\PSoC5/Comp_3.c ****         #endif /* CY_PSOC5A */
 210:.\Generated_Source\PSoC5/Comp_3.c ****         
 211:.\Generated_Source\PSoC5/Comp_3.c ****         /* PSoC3, PSoC5LP or later */
 212:.\Generated_Source\PSoC5/Comp_3.c ****         #if (CY_PSOC3 || CY_PSOC5LP) 
 213:.\Generated_Source\PSoC5/Comp_3.c ****             Comp_3_TR0 = Comp_3_HS_TRIM_TR0;
 284              		.loc 1 213 0
 285 003c 44F23263 		movw	r3, #:lower16:1073759794
 286 0040 C4F20003 		movt	r3, #:upper16:1073759794
 287 0044 40F21112 		movw	r2, #:lower16:1224737041
 288 0048 C4F60012 		movt	r2, #:upper16:1224737041
 289 004c 1278     		ldrb	r2, [r2, #0]
 290 004e D2B2     		uxtb	r2, r2
 291 0050 1A70     		strb	r2, [r3, #0]
 214:.\Generated_Source\PSoC5/Comp_3.c ****             Comp_3_TR1 = Comp_3_HS_TRIM_TR1;
 292              		.loc 1 214 0
 293 0052 44F23363 		movw	r3, #:lower16:1073759795
 294 0056 C4F20003 		movt	r3, #:upper16:1073759795
 295 005a 40F21512 		movw	r2, #:lower16:1224737045
ARM GAS  C:\Users\karunmj\AppData\Local\Temp\ccm1hGxm.s 			page 10


 296 005e C4F60012 		movt	r2, #:upper16:1224737045
 297 0062 1278     		ldrb	r2, [r2, #0]
 298 0064 D2B2     		uxtb	r2, r2
 299 0066 1A70     		strb	r2, [r3, #0]
 300 0068 15E0     		b	.L13
 301              	.L11:
 215:.\Generated_Source\PSoC5/Comp_3.c ****         #endif /* CY_PSOC3 || CY_PSOC5LP */
 216:.\Generated_Source\PSoC5/Comp_3.c ****     }
 217:.\Generated_Source\PSoC5/Comp_3.c ****     else
 218:.\Generated_Source\PSoC5/Comp_3.c ****     {
 219:.\Generated_Source\PSoC5/Comp_3.c ****     /* PSoC5A */
 220:.\Generated_Source\PSoC5/Comp_3.c ****         #if (CY_PSOC5A)
 221:.\Generated_Source\PSoC5/Comp_3.c ****             Comp_3_TR = Comp_3_LS_TRIM_TR0;
 222:.\Generated_Source\PSoC5/Comp_3.c ****         #endif /* CY_PSOC5A */
 223:.\Generated_Source\PSoC5/Comp_3.c ****         
 224:.\Generated_Source\PSoC5/Comp_3.c ****         /* PSoC3, PSoC5LP or later */
 225:.\Generated_Source\PSoC5/Comp_3.c ****         #if (CY_PSOC3 || CY_PSOC5LP) 
 226:.\Generated_Source\PSoC5/Comp_3.c ****             Comp_3_TR0 = Comp_3_LS_TRIM_TR0;
 302              		.loc 1 226 0
 303 006a 44F23263 		movw	r3, #:lower16:1073759794
 304 006e C4F20003 		movt	r3, #:upper16:1073759794
 305 0072 40F2AF12 		movw	r2, #:lower16:1224737199
 306 0076 C4F60012 		movt	r2, #:upper16:1224737199
 307 007a 1278     		ldrb	r2, [r2, #0]
 308 007c D2B2     		uxtb	r2, r2
 309 007e 1A70     		strb	r2, [r3, #0]
 227:.\Generated_Source\PSoC5/Comp_3.c ****             Comp_3_TR1 = Comp_3_LS_TRIM_TR1;
 310              		.loc 1 227 0
 311 0080 44F23363 		movw	r3, #:lower16:1073759795
 312 0084 C4F20003 		movt	r3, #:upper16:1073759795
 313 0088 40F2B712 		movw	r2, #:lower16:1224737207
 314 008c C4F60012 		movt	r2, #:upper16:1224737207
 315 0090 1278     		ldrb	r2, [r2, #0]
 316 0092 D2B2     		uxtb	r2, r2
 317 0094 1A70     		strb	r2, [r3, #0]
 318              	.L13:
 228:.\Generated_Source\PSoC5/Comp_3.c ****         #endif /* CY_PSOC3 || CY_PSOC5LP */
 229:.\Generated_Source\PSoC5/Comp_3.c ****     }
 230:.\Generated_Source\PSoC5/Comp_3.c **** 
 231:.\Generated_Source\PSoC5/Comp_3.c **** }
 319              		.loc 1 231 0
 320 0096 07F10C07 		add	r7, r7, #12
 321 009a BD46     		mov	sp, r7
 322 009c 80BC     		pop	{r7}
 323 009e 7047     		bx	lr
 324              		.cfi_endproc
 325              	.LFE4:
 326              		.size	Comp_3_SetSpeed, .-Comp_3_SetSpeed
 327              		.section	.text.Comp_3_GetCompare,"ax",%progbits
 328              		.align	2
 329              		.global	Comp_3_GetCompare
 330              		.thumb
 331              		.thumb_func
 332              		.type	Comp_3_GetCompare, %function
 333              	Comp_3_GetCompare:
 334              	.LFB5:
 232:.\Generated_Source\PSoC5/Comp_3.c **** 
ARM GAS  C:\Users\karunmj\AppData\Local\Temp\ccm1hGxm.s 			page 11


 233:.\Generated_Source\PSoC5/Comp_3.c **** 
 234:.\Generated_Source\PSoC5/Comp_3.c **** /*******************************************************************************
 235:.\Generated_Source\PSoC5/Comp_3.c **** * Function Name: Comp_3_GetCompare
 236:.\Generated_Source\PSoC5/Comp_3.c **** ********************************************************************************
 237:.\Generated_Source\PSoC5/Comp_3.c **** *
 238:.\Generated_Source\PSoC5/Comp_3.c **** * Summary:
 239:.\Generated_Source\PSoC5/Comp_3.c **** *  This function returns the comparator output value.
 240:.\Generated_Source\PSoC5/Comp_3.c **** *  This value is not affected by the Polarity parameter.
 241:.\Generated_Source\PSoC5/Comp_3.c **** *  This valuea lways reflects a noninverted state.
 242:.\Generated_Source\PSoC5/Comp_3.c **** *
 243:.\Generated_Source\PSoC5/Comp_3.c **** * Parameters:
 244:.\Generated_Source\PSoC5/Comp_3.c **** *   None
 245:.\Generated_Source\PSoC5/Comp_3.c **** *
 246:.\Generated_Source\PSoC5/Comp_3.c **** * Return:
 247:.\Generated_Source\PSoC5/Comp_3.c **** *  (uint8)  0     - if Pos_Input less than Neg_input
 248:.\Generated_Source\PSoC5/Comp_3.c **** *           non 0 - if Pos_Input greater than Neg_input.
 249:.\Generated_Source\PSoC5/Comp_3.c **** *
 250:.\Generated_Source\PSoC5/Comp_3.c **** *******************************************************************************/
 251:.\Generated_Source\PSoC5/Comp_3.c **** uint8 Comp_3_GetCompare(void) 
 252:.\Generated_Source\PSoC5/Comp_3.c **** {
 335              		.loc 1 252 0
 336              		.cfi_startproc
 337              		@ args = 0, pretend = 0, frame = 0
 338              		@ frame_needed = 1, uses_anonymous_args = 0
 339              		@ link register save eliminated.
 340 0000 80B4     		push	{r7}
 341              	.LCFI11:
 342              		.cfi_def_cfa_offset 4
 343 0002 00AF     		add	r7, sp, #0
 344              		.cfi_offset 7, -4
 345              	.LCFI12:
 346              		.cfi_def_cfa_register 7
 253:.\Generated_Source\PSoC5/Comp_3.c ****     return( Comp_3_WRK & Comp_3_CMP_OUT_MASK);
 347              		.loc 1 253 0
 348 0004 45F69633 		movw	r3, #:lower16:1073765270
 349 0008 C4F20003 		movt	r3, #:upper16:1073765270
 350 000c 1B78     		ldrb	r3, [r3, #0]
 351 000e DBB2     		uxtb	r3, r3
 352 0010 03F00203 		and	r3, r3, #2
 254:.\Generated_Source\PSoC5/Comp_3.c **** }
 353              		.loc 1 254 0
 354 0014 1846     		mov	r0, r3
 355 0016 BD46     		mov	sp, r7
 356 0018 80BC     		pop	{r7}
 357 001a 7047     		bx	lr
 358              		.cfi_endproc
 359              	.LFE5:
 360              		.size	Comp_3_GetCompare, .-Comp_3_GetCompare
 361              		.section	.text.Comp_3_trimAdjust,"ax",%progbits
 362              		.align	2
 363              		.thumb
 364              		.thumb_func
 365              		.type	Comp_3_trimAdjust, %function
 366              	Comp_3_trimAdjust:
 367              	.LFB6:
 255:.\Generated_Source\PSoC5/Comp_3.c **** 
 256:.\Generated_Source\PSoC5/Comp_3.c **** 
ARM GAS  C:\Users\karunmj\AppData\Local\Temp\ccm1hGxm.s 			page 12


 257:.\Generated_Source\PSoC5/Comp_3.c **** /*******************************************************************************
 258:.\Generated_Source\PSoC5/Comp_3.c **** * Function Name: Comp_3_trimAdjust
 259:.\Generated_Source\PSoC5/Comp_3.c **** ********************************************************************************
 260:.\Generated_Source\PSoC5/Comp_3.c **** *
 261:.\Generated_Source\PSoC5/Comp_3.c **** * Summary:
 262:.\Generated_Source\PSoC5/Comp_3.c **** *  This function adjusts the value in the low nibble/high nibble of the Analog 
 263:.\Generated_Source\PSoC5/Comp_3.c **** *  Comparator trim register
 264:.\Generated_Source\PSoC5/Comp_3.c **** *
 265:.\Generated_Source\PSoC5/Comp_3.c **** * Parameters:  
 266:.\Generated_Source\PSoC5/Comp_3.c **** *  nibble:
 267:.\Generated_Source\PSoC5/Comp_3.c **** *      0 -- adjusts the value in the low nibble
 268:.\Generated_Source\PSoC5/Comp_3.c **** *      1 -- adjusts the value in the high nibble
 269:.\Generated_Source\PSoC5/Comp_3.c **** *
 270:.\Generated_Source\PSoC5/Comp_3.c **** * Return:
 271:.\Generated_Source\PSoC5/Comp_3.c **** *  None
 272:.\Generated_Source\PSoC5/Comp_3.c **** *
 273:.\Generated_Source\PSoC5/Comp_3.c **** * Theory: 
 274:.\Generated_Source\PSoC5/Comp_3.c **** *  Function assumes comparator block is setup for trim adjust.
 275:.\Generated_Source\PSoC5/Comp_3.c **** *  Intended to be called from Comp_ZeroCal()
 276:.\Generated_Source\PSoC5/Comp_3.c **** * 
 277:.\Generated_Source\PSoC5/Comp_3.c **** * Side Effects:
 278:.\Generated_Source\PSoC5/Comp_3.c **** *  Routine uses a course 1ms delay following each trim adjustment to allow 
 279:.\Generated_Source\PSoC5/Comp_3.c **** *  the comparator output to respond.
 280:.\Generated_Source\PSoC5/Comp_3.c **** *
 281:.\Generated_Source\PSoC5/Comp_3.c **** *******************************************************************************/
 282:.\Generated_Source\PSoC5/Comp_3.c **** static void Comp_3_trimAdjust(uint8 nibble) 
 283:.\Generated_Source\PSoC5/Comp_3.c **** {
 368              		.loc 1 283 0
 369              		.cfi_startproc
 370              		@ args = 0, pretend = 0, frame = 16
 371              		@ frame_needed = 1, uses_anonymous_args = 0
 372 0000 80B5     		push	{r7, lr}
 373              	.LCFI13:
 374              		.cfi_def_cfa_offset 8
 375 0002 84B0     		sub	sp, sp, #16
 376              	.LCFI14:
 377              		.cfi_def_cfa_offset 24
 378 0004 00AF     		add	r7, sp, #0
 379              		.cfi_offset 14, -4
 380              		.cfi_offset 7, -8
 381              	.LCFI15:
 382              		.cfi_def_cfa_register 7
 383 0006 0346     		mov	r3, r0
 384 0008 FB71     		strb	r3, [r7, #7]
 284:.\Generated_Source\PSoC5/Comp_3.c ****     uint8 trimCnt, trimCntMax;
 285:.\Generated_Source\PSoC5/Comp_3.c ****     uint8 cmpState;   
 286:.\Generated_Source\PSoC5/Comp_3.c **** 
 287:.\Generated_Source\PSoC5/Comp_3.c ****     /* get current state of comparator output */
 288:.\Generated_Source\PSoC5/Comp_3.c ****     cmpState = Comp_3_WRK & Comp_3_CMP_OUT_MASK;
 385              		.loc 1 288 0
 386 000a 45F69633 		movw	r3, #:lower16:1073765270
 387 000e C4F20003 		movt	r3, #:upper16:1073765270
 388 0012 1B78     		ldrb	r3, [r3, #0]
 389 0014 DBB2     		uxtb	r3, r3
 390 0016 03F00203 		and	r3, r3, #2
 391 001a FB73     		strb	r3, [r7, #15]
 289:.\Generated_Source\PSoC5/Comp_3.c ****     
ARM GAS  C:\Users\karunmj\AppData\Local\Temp\ccm1hGxm.s 			page 13


 290:.\Generated_Source\PSoC5/Comp_3.c ****     if (nibble == 0u)
 392              		.loc 1 290 0
 393 001c FB79     		ldrb	r3, [r7, #7]	@ zero_extendqisi2
 394 001e 002B     		cmp	r3, #0
 395 0020 11D1     		bne	.L17
 291:.\Generated_Source\PSoC5/Comp_3.c ****     {    
 292:.\Generated_Source\PSoC5/Comp_3.c ****         /* if comparator output is high, negative offset adjust is required */
 293:.\Generated_Source\PSoC5/Comp_3.c ****         if ( cmpState != 0u )
 396              		.loc 1 293 0
 397 0022 FB7B     		ldrb	r3, [r7, #15]	@ zero_extendqisi2
 398 0024 002B     		cmp	r3, #0
 399 0026 20D0     		beq	.L29
 294:.\Generated_Source\PSoC5/Comp_3.c ****         {
 295:.\Generated_Source\PSoC5/Comp_3.c ****             /* PSoC5A */
 296:.\Generated_Source\PSoC5/Comp_3.c ****             #if (CY_PSOC5A)
 297:.\Generated_Source\PSoC5/Comp_3.c ****                 Comp_3_TR |= Comp_3_CMP_TRIM1_DIR;
 298:.\Generated_Source\PSoC5/Comp_3.c ****             #endif /* CY_PSOC5A */
 299:.\Generated_Source\PSoC5/Comp_3.c ****             
 300:.\Generated_Source\PSoC5/Comp_3.c ****             /* PSoC3, PSoC5LP or later */
 301:.\Generated_Source\PSoC5/Comp_3.c ****             #if (CY_PSOC3 || CY_PSOC5LP)
 302:.\Generated_Source\PSoC5/Comp_3.c ****                 Comp_3_TR0 |= Comp_3_CMP_TR0_DIR;
 400              		.loc 1 302 0
 401 0028 44F23263 		movw	r3, #:lower16:1073759794
 402 002c C4F20003 		movt	r3, #:upper16:1073759794
 403 0030 44F23262 		movw	r2, #:lower16:1073759794
 404 0034 C4F20002 		movt	r2, #:upper16:1073759794
 405 0038 1278     		ldrb	r2, [r2, #0]
 406 003a D2B2     		uxtb	r2, r2
 407 003c 42F01002 		orr	r2, r2, #16
 408 0040 D2B2     		uxtb	r2, r2
 409 0042 1A70     		strb	r2, [r3, #0]
 410 0044 12E0     		b	.L19
 411              	.L17:
 303:.\Generated_Source\PSoC5/Comp_3.c ****             #endif /* CY_PSOC3 || CY_PSOC5LP */
 304:.\Generated_Source\PSoC5/Comp_3.c ****         }
 305:.\Generated_Source\PSoC5/Comp_3.c ****     }
 306:.\Generated_Source\PSoC5/Comp_3.c ****     else
 307:.\Generated_Source\PSoC5/Comp_3.c ****     {
 308:.\Generated_Source\PSoC5/Comp_3.c ****         /* if comparator output is low, positive offset adjust is required */
 309:.\Generated_Source\PSoC5/Comp_3.c ****         if ( cmpState == 0u )
 412              		.loc 1 309 0
 413 0046 FB7B     		ldrb	r3, [r7, #15]	@ zero_extendqisi2
 414 0048 002B     		cmp	r3, #0
 415 004a 0FD1     		bne	.L19
 310:.\Generated_Source\PSoC5/Comp_3.c ****         {
 311:.\Generated_Source\PSoC5/Comp_3.c ****             /* PSoC5A */
 312:.\Generated_Source\PSoC5/Comp_3.c ****             #if (CY_PSOC5A)
 313:.\Generated_Source\PSoC5/Comp_3.c ****                 Comp_3_TR |= Comp_3_CMP_TRIM2_DIR; 
 314:.\Generated_Source\PSoC5/Comp_3.c ****             #endif /* CY_PSOC5A */
 315:.\Generated_Source\PSoC5/Comp_3.c ****             
 316:.\Generated_Source\PSoC5/Comp_3.c ****             /* PSoC3, PSoC5LP or later */
 317:.\Generated_Source\PSoC5/Comp_3.c ****             #if (CY_PSOC3 || CY_PSOC5LP)
 318:.\Generated_Source\PSoC5/Comp_3.c ****                 Comp_3_TR1 |= Comp_3_CMP_TR1_DIR;
 416              		.loc 1 318 0
 417 004c 44F23363 		movw	r3, #:lower16:1073759795
 418 0050 C4F20003 		movt	r3, #:upper16:1073759795
 419 0054 44F23362 		movw	r2, #:lower16:1073759795
ARM GAS  C:\Users\karunmj\AppData\Local\Temp\ccm1hGxm.s 			page 14


 420 0058 C4F20002 		movt	r2, #:upper16:1073759795
 421 005c 1278     		ldrb	r2, [r2, #0]
 422 005e D2B2     		uxtb	r2, r2
 423 0060 42F01002 		orr	r2, r2, #16
 424 0064 D2B2     		uxtb	r2, r2
 425 0066 1A70     		strb	r2, [r3, #0]
 426 0068 00E0     		b	.L19
 427              	.L29:
 428              		.loc 1 302 0
 429 006a 00BF     		nop
 430              	.L19:
 319:.\Generated_Source\PSoC5/Comp_3.c ****             #endif /* CY_PSOC3 || CY_PSOC5LP */
 320:.\Generated_Source\PSoC5/Comp_3.c ****         }
 321:.\Generated_Source\PSoC5/Comp_3.c ****     }
 322:.\Generated_Source\PSoC5/Comp_3.c **** 
 323:.\Generated_Source\PSoC5/Comp_3.c ****     /* Increment trim value until compare output changes state */
 324:.\Generated_Source\PSoC5/Comp_3.c **** 	
 325:.\Generated_Source\PSoC5/Comp_3.c ****     /* PSoC5A */
 326:.\Generated_Source\PSoC5/Comp_3.c **** 	#if (CY_PSOC5A)
 327:.\Generated_Source\PSoC5/Comp_3.c **** 	    trimCntMax = 7u;
 328:.\Generated_Source\PSoC5/Comp_3.c ****     #endif
 329:.\Generated_Source\PSoC5/Comp_3.c **** 	
 330:.\Generated_Source\PSoC5/Comp_3.c **** 	/* PSoC3, PSoC5LP or later */
 331:.\Generated_Source\PSoC5/Comp_3.c **** 	#if (CY_PSOC3 || CY_PSOC5LP)
 332:.\Generated_Source\PSoC5/Comp_3.c ****     	if(nibble == 0u)
 431              		.loc 1 332 0
 432 006c FB79     		ldrb	r3, [r7, #7]	@ zero_extendqisi2
 433 006e 002B     		cmp	r3, #0
 434 0070 03D1     		bne	.L20
 333:.\Generated_Source\PSoC5/Comp_3.c ****     	{
 334:.\Generated_Source\PSoC5/Comp_3.c ****     		trimCntMax = 15u;
 435              		.loc 1 334 0
 436 0072 4FF00F03 		mov	r3, #15
 437 0076 BB73     		strb	r3, [r7, #14]
 438 0078 02E0     		b	.L21
 439              	.L20:
 335:.\Generated_Source\PSoC5/Comp_3.c ****     	}
 336:.\Generated_Source\PSoC5/Comp_3.c ****     	else
 337:.\Generated_Source\PSoC5/Comp_3.c ****     	{
 338:.\Generated_Source\PSoC5/Comp_3.c ****     		trimCntMax = 7u;
 440              		.loc 1 338 0
 441 007a 4FF00703 		mov	r3, #7
 442 007e BB73     		strb	r3, [r7, #14]
 443              	.L21:
 339:.\Generated_Source\PSoC5/Comp_3.c ****     	}
 340:.\Generated_Source\PSoC5/Comp_3.c **** 	#endif
 341:.\Generated_Source\PSoC5/Comp_3.c **** 	
 342:.\Generated_Source\PSoC5/Comp_3.c ****     for ( trimCnt = 0u; trimCnt < trimCntMax; trimCnt++ )
 444              		.loc 1 342 0
 445 0080 4FF00003 		mov	r3, #0
 446 0084 7B73     		strb	r3, [r7, #13]
 447 0086 32E0     		b	.L22
 448              	.L27:
 343:.\Generated_Source\PSoC5/Comp_3.c **** 	{
 344:.\Generated_Source\PSoC5/Comp_3.c ****         if (nibble == 0u)
 449              		.loc 1 344 0
 450 0088 FB79     		ldrb	r3, [r7, #7]	@ zero_extendqisi2
ARM GAS  C:\Users\karunmj\AppData\Local\Temp\ccm1hGxm.s 			page 15


 451 008a 002B     		cmp	r3, #0
 452 008c 0ED1     		bne	.L23
 345:.\Generated_Source\PSoC5/Comp_3.c ****         {
 346:.\Generated_Source\PSoC5/Comp_3.c ****             /* PSoC5A */
 347:.\Generated_Source\PSoC5/Comp_3.c ****             #if (CY_PSOC5A)
 348:.\Generated_Source\PSoC5/Comp_3.c ****                 Comp_3_TR += 1u;
 349:.\Generated_Source\PSoC5/Comp_3.c ****             #endif /* CY_PSOC5A */
 350:.\Generated_Source\PSoC5/Comp_3.c ****             
 351:.\Generated_Source\PSoC5/Comp_3.c ****             /* PSoC3, PSoC5LP or later */
 352:.\Generated_Source\PSoC5/Comp_3.c ****             #if (CY_PSOC3 || CY_PSOC5LP)
 353:.\Generated_Source\PSoC5/Comp_3.c ****                 Comp_3_TR0 += 1u;
 453              		.loc 1 353 0
 454 008e 44F23263 		movw	r3, #:lower16:1073759794
 455 0092 C4F20003 		movt	r3, #:upper16:1073759794
 456 0096 44F23262 		movw	r2, #:lower16:1073759794
 457 009a C4F20002 		movt	r2, #:upper16:1073759794
 458 009e 1278     		ldrb	r2, [r2, #0]
 459 00a0 D2B2     		uxtb	r2, r2
 460 00a2 02F10102 		add	r2, r2, #1
 461 00a6 D2B2     		uxtb	r2, r2
 462 00a8 1A70     		strb	r2, [r3, #0]
 463 00aa 0DE0     		b	.L24
 464              	.L23:
 354:.\Generated_Source\PSoC5/Comp_3.c ****             #endif /* CY_PSOC3 || CY_PSOC5LP */
 355:.\Generated_Source\PSoC5/Comp_3.c ****         }
 356:.\Generated_Source\PSoC5/Comp_3.c ****         else
 357:.\Generated_Source\PSoC5/Comp_3.c ****         {
 358:.\Generated_Source\PSoC5/Comp_3.c ****             /* PSoC5A */
 359:.\Generated_Source\PSoC5/Comp_3.c ****             #if (CY_PSOC5A)
 360:.\Generated_Source\PSoC5/Comp_3.c ****                 Comp_3_TR += 0x10u;
 361:.\Generated_Source\PSoC5/Comp_3.c ****             #endif /* CY_PSOC5A */
 362:.\Generated_Source\PSoC5/Comp_3.c ****             
 363:.\Generated_Source\PSoC5/Comp_3.c ****             /* PSoC3, PSoC5LP or later */
 364:.\Generated_Source\PSoC5/Comp_3.c ****             #if (CY_PSOC3 || CY_PSOC5LP)
 365:.\Generated_Source\PSoC5/Comp_3.c ****                 Comp_3_TR1 += 1u;
 465              		.loc 1 365 0
 466 00ac 44F23363 		movw	r3, #:lower16:1073759795
 467 00b0 C4F20003 		movt	r3, #:upper16:1073759795
 468 00b4 44F23362 		movw	r2, #:lower16:1073759795
 469 00b8 C4F20002 		movt	r2, #:upper16:1073759795
 470 00bc 1278     		ldrb	r2, [r2, #0]
 471 00be D2B2     		uxtb	r2, r2
 472 00c0 02F10102 		add	r2, r2, #1
 473 00c4 D2B2     		uxtb	r2, r2
 474 00c6 1A70     		strb	r2, [r3, #0]
 475              	.L24:
 366:.\Generated_Source\PSoC5/Comp_3.c ****             #endif /* CY_PSOC3 || CY_PSOC5LP */
 367:.\Generated_Source\PSoC5/Comp_3.c ****         }
 368:.\Generated_Source\PSoC5/Comp_3.c ****         
 369:.\Generated_Source\PSoC5/Comp_3.c ****         CyDelayUs(10u);
 476              		.loc 1 369 0
 477 00c8 4FF00A00 		mov	r0, #10
 478 00cc FFF7FEFF 		bl	CyDelayUs
 370:.\Generated_Source\PSoC5/Comp_3.c ****         
 371:.\Generated_Source\PSoC5/Comp_3.c ****         /* Check for change in comparator output */
 372:.\Generated_Source\PSoC5/Comp_3.c ****         if ((Comp_3_WRK & Comp_3_CMP_OUT_MASK) != cmpState)
 479              		.loc 1 372 0
ARM GAS  C:\Users\karunmj\AppData\Local\Temp\ccm1hGxm.s 			page 16


 480 00d0 45F69633 		movw	r3, #:lower16:1073765270
 481 00d4 C4F20003 		movt	r3, #:upper16:1073765270
 482 00d8 1B78     		ldrb	r3, [r3, #0]
 483 00da DBB2     		uxtb	r3, r3
 484 00dc 03F00202 		and	r2, r3, #2
 485 00e0 FB7B     		ldrb	r3, [r7, #15]	@ zero_extendqisi2
 486 00e2 9A42     		cmp	r2, r3
 487 00e4 08D1     		bne	.L30
 488              	.L25:
 489              		.loc 1 342 0
 490 00e6 7B7B     		ldrb	r3, [r7, #13]
 491 00e8 03F10103 		add	r3, r3, #1
 492 00ec 7B73     		strb	r3, [r7, #13]
 493              	.L22:
 494 00ee 7A7B     		ldrb	r2, [r7, #13]	@ zero_extendqisi2
 495 00f0 BB7B     		ldrb	r3, [r7, #14]	@ zero_extendqisi2
 496 00f2 9A42     		cmp	r2, r3
 497 00f4 C8D3     		bcc	.L27
 498 00f6 00E0     		b	.L28
 499              	.L30:
 373:.\Generated_Source\PSoC5/Comp_3.c ****         {
 374:.\Generated_Source\PSoC5/Comp_3.c ****             break;      /* output changed state, trim phase is complete */
 500              		.loc 1 374 0
 501 00f8 00BF     		nop
 502              	.L28:
 375:.\Generated_Source\PSoC5/Comp_3.c ****         }        
 376:.\Generated_Source\PSoC5/Comp_3.c ****     }    
 377:.\Generated_Source\PSoC5/Comp_3.c **** }
 503              		.loc 1 377 0
 504 00fa 07F11007 		add	r7, r7, #16
 505 00fe BD46     		mov	sp, r7
 506 0100 80BD     		pop	{r7, pc}
 507              		.cfi_endproc
 508              	.LFE6:
 509              		.size	Comp_3_trimAdjust, .-Comp_3_trimAdjust
 510 0102 00BF     		.section	.text.Comp_3_ZeroCal,"ax",%progbits
 511              		.align	2
 512              		.global	Comp_3_ZeroCal
 513              		.thumb
 514              		.thumb_func
 515              		.type	Comp_3_ZeroCal, %function
 516              	Comp_3_ZeroCal:
 517              	.LFB7:
 378:.\Generated_Source\PSoC5/Comp_3.c **** 
 379:.\Generated_Source\PSoC5/Comp_3.c **** 
 380:.\Generated_Source\PSoC5/Comp_3.c **** /*******************************************************************************
 381:.\Generated_Source\PSoC5/Comp_3.c **** * Function Name: Comp_3_ZeroCal
 382:.\Generated_Source\PSoC5/Comp_3.c **** ********************************************************************************
 383:.\Generated_Source\PSoC5/Comp_3.c **** *
 384:.\Generated_Source\PSoC5/Comp_3.c **** * Summary:
 385:.\Generated_Source\PSoC5/Comp_3.c **** *  This function calibrates the offset of the Analog Comparator.
 386:.\Generated_Source\PSoC5/Comp_3.c **** *
 387:.\Generated_Source\PSoC5/Comp_3.c **** * Parameters:
 388:.\Generated_Source\PSoC5/Comp_3.c **** *  None
 389:.\Generated_Source\PSoC5/Comp_3.c **** *
 390:.\Generated_Source\PSoC5/Comp_3.c **** * Return:
 391:.\Generated_Source\PSoC5/Comp_3.c **** *  (uint16)  value written in trim register when calibration complete.
ARM GAS  C:\Users\karunmj\AppData\Local\Temp\ccm1hGxm.s 			page 17


 392:.\Generated_Source\PSoC5/Comp_3.c **** *
 393:.\Generated_Source\PSoC5/Comp_3.c **** * Theory: 
 394:.\Generated_Source\PSoC5/Comp_3.c **** *  This function is used to optimize the calibration for user specific voltage
 395:.\Generated_Source\PSoC5/Comp_3.c **** *  range.  The comparator trim is adjusted to counter transistor offsets
 396:.\Generated_Source\PSoC5/Comp_3.c **** *   - offset is defined as positive if the output transitions to high before inP
 397:.\Generated_Source\PSoC5/Comp_3.c **** *     is greater than inN
 398:.\Generated_Source\PSoC5/Comp_3.c **** *   - offset is defined as negative if the output transitions to high after inP
 399:.\Generated_Source\PSoC5/Comp_3.c **** *     is greater than inP
 400:.\Generated_Source\PSoC5/Comp_3.c **** *
 401:.\Generated_Source\PSoC5/Comp_3.c **** *  PSoC5A
 402:.\Generated_Source\PSoC5/Comp_3.c **** *  The Analog Comparator provides 1 byte for offset trim.  The byte contains two
 403:.\Generated_Source\PSoC5/Comp_3.c **** *  4 bit trim fields - one is a course trim and the other allows smaller
 404:.\Generated_Source\PSoC5/Comp_3.c **** *  offset adjustments only for slow modes.
 405:.\Generated_Source\PSoC5/Comp_3.c **** *  - low nibble - fine trim
 406:.\Generated_Source\PSoC5/Comp_3.c **** *  - high nibble - course trim
 407:.\Generated_Source\PSoC5/Comp_3.c **** *  PSoC3, PSoC5LP or later
 408:.\Generated_Source\PSoC5/Comp_3.c **** *  The Analog Comparator provides 2 bytes for offset trim.  The bytes contain two
 409:.\Generated_Source\PSoC5/Comp_3.c **** *  5 bit trim fields - one is a course trim and the other allows smaller
 410:.\Generated_Source\PSoC5/Comp_3.c **** *  offset adjustments only for slow modes.
 411:.\Generated_Source\PSoC5/Comp_3.c **** *  - TR0 - fine trim
 412:.\Generated_Source\PSoC5/Comp_3.c **** *  - TR1 - course trim
 413:.\Generated_Source\PSoC5/Comp_3.c **** *
 414:.\Generated_Source\PSoC5/Comp_3.c **** *  Trim algorithm is a two phase process
 415:.\Generated_Source\PSoC5/Comp_3.c **** *  The first phase performs course offset adjustment
 416:.\Generated_Source\PSoC5/Comp_3.c **** *  The second phase serves one of two purposes depending on the outcome of the
 417:.\Generated_Source\PSoC5/Comp_3.c **** *  first phase
 418:.\Generated_Source\PSoC5/Comp_3.c **** *  - if the first trim value was maxed out without a comparator output 
 419:.\Generated_Source\PSoC5/Comp_3.c **** *    transition, more offset will be added by adjusting the second trim value.
 420:.\Generated_Source\PSoC5/Comp_3.c **** *  - if the first trim phase resulted in a comparator output transition, the
 421:.\Generated_Source\PSoC5/Comp_3.c **** *    second trim value will serve as fine trim (in the opposite direction)to
 422:.\Generated_Source\PSoC5/Comp_3.c **** *    ensure the offset is < 1 mV.
 423:.\Generated_Source\PSoC5/Comp_3.c **** *
 424:.\Generated_Source\PSoC5/Comp_3.c **** * Trim Process:   
 425:.\Generated_Source\PSoC5/Comp_3.c **** *  1) User applies a voltage to the negative input.  Voltage should be in the
 426:.\Generated_Source\PSoC5/Comp_3.c **** *     comparator operating range or an average of the operating voltage range.
 427:.\Generated_Source\PSoC5/Comp_3.c **** *  2) Clear registers associated with analog routing to the positive input.
 428:.\Generated_Source\PSoC5/Comp_3.c **** *  3) Disable Hysteresis
 429:.\Generated_Source\PSoC5/Comp_3.c **** *  4) Set the calibration bit to short the negative and positive inputs to
 430:.\Generated_Source\PSoC5/Comp_3.c **** *     the users calibration voltage.
 431:.\Generated_Source\PSoC5/Comp_3.c **** *  5) Clear the TR register  ( TR = 0x00 )
 432:.\Generated_Source\PSoC5/Comp_3.c **** *  ** LOW MODES
 433:.\Generated_Source\PSoC5/Comp_3.c **** *  6) Check if compare output is high, if so, set the MSb of course trim field 
 434:.\Generated_Source\PSoC5/Comp_3.c **** *     to a 1.
 435:.\Generated_Source\PSoC5/Comp_3.c **** *  7) Increment the course trim field until the compare output changes
 436:.\Generated_Source\PSoC5/Comp_3.c **** *  8) Check if compare output is low, if so, set the MSb of fine trim field
 437:.\Generated_Source\PSoC5/Comp_3.c **** *     to a 1.
 438:.\Generated_Source\PSoC5/Comp_3.c **** *  9) Increment the fine trim field until the compare output changes
 439:.\Generated_Source\PSoC5/Comp_3.c **** *  ** FAST MODE - skip the steps 8,9
 440:.\Generated_Source\PSoC5/Comp_3.c **** *
 441:.\Generated_Source\PSoC5/Comp_3.c **** * Side Effects:
 442:.\Generated_Source\PSoC5/Comp_3.c **** *  Routine clears analog routing associated with the comparator positive input.  
 443:.\Generated_Source\PSoC5/Comp_3.c **** *  This may affect routing of signals from other components that are connected
 444:.\Generated_Source\PSoC5/Comp_3.c **** *  to the positive input of the comparator.
 445:.\Generated_Source\PSoC5/Comp_3.c **** *
 446:.\Generated_Source\PSoC5/Comp_3.c **** *******************************************************************************/
 447:.\Generated_Source\PSoC5/Comp_3.c **** uint16 Comp_3_ZeroCal(void) 
 448:.\Generated_Source\PSoC5/Comp_3.c **** {
ARM GAS  C:\Users\karunmj\AppData\Local\Temp\ccm1hGxm.s 			page 18


 518              		.loc 1 448 0
 519              		.cfi_startproc
 520              		@ args = 0, pretend = 0, frame = 8
 521              		@ frame_needed = 1, uses_anonymous_args = 0
 522 0000 80B5     		push	{r7, lr}
 523              	.LCFI16:
 524              		.cfi_def_cfa_offset 8
 525 0002 82B0     		sub	sp, sp, #8
 526              	.LCFI17:
 527              		.cfi_def_cfa_offset 16
 528 0004 00AF     		add	r7, sp, #0
 529              		.cfi_offset 14, -4
 530              		.cfi_offset 7, -8
 531              	.LCFI18:
 532              		.cfi_def_cfa_register 7
 449:.\Generated_Source\PSoC5/Comp_3.c ****     uint8 tmpSW0;
 450:.\Generated_Source\PSoC5/Comp_3.c ****     uint8 tmpSW2;
 451:.\Generated_Source\PSoC5/Comp_3.c ****     uint8 tmpSW3;
 452:.\Generated_Source\PSoC5/Comp_3.c ****     uint8 tmpCR;
 453:.\Generated_Source\PSoC5/Comp_3.c **** 
 454:.\Generated_Source\PSoC5/Comp_3.c ****     /* Save a copy of routing registers associated with inP */
 455:.\Generated_Source\PSoC5/Comp_3.c ****     tmpSW0 = Comp_3_SW0;
 533              		.loc 1 455 0
 534 0006 45F6C823 		movw	r3, #:lower16:1073765064
 535 000a C4F20003 		movt	r3, #:upper16:1073765064
 536 000e 1B78     		ldrb	r3, [r3, #0]
 537 0010 3B71     		strb	r3, [r7, #4]
 456:.\Generated_Source\PSoC5/Comp_3.c ****     tmpSW2 = Comp_3_SW2;
 538              		.loc 1 456 0
 539 0012 45F6CA23 		movw	r3, #:lower16:1073765066
 540 0016 C4F20003 		movt	r3, #:upper16:1073765066
 541 001a 1B78     		ldrb	r3, [r3, #0]
 542 001c 7B71     		strb	r3, [r7, #5]
 457:.\Generated_Source\PSoC5/Comp_3.c ****     tmpSW3 = Comp_3_SW3;
 543              		.loc 1 457 0
 544 001e 45F6CB23 		movw	r3, #:lower16:1073765067
 545 0022 C4F20003 		movt	r3, #:upper16:1073765067
 546 0026 1B78     		ldrb	r3, [r3, #0]
 547 0028 BB71     		strb	r3, [r7, #6]
 458:.\Generated_Source\PSoC5/Comp_3.c **** 
 459:.\Generated_Source\PSoC5/Comp_3.c ****      /* Clear routing for inP, retain routing for inN */
 460:.\Generated_Source\PSoC5/Comp_3.c ****     Comp_3_SW0 = 0x00u;
 548              		.loc 1 460 0
 549 002a 45F6C823 		movw	r3, #:lower16:1073765064
 550 002e C4F20003 		movt	r3, #:upper16:1073765064
 551 0032 4FF00002 		mov	r2, #0
 552 0036 1A70     		strb	r2, [r3, #0]
 461:.\Generated_Source\PSoC5/Comp_3.c ****     Comp_3_SW2 = 0x00u;
 553              		.loc 1 461 0
 554 0038 45F6CA23 		movw	r3, #:lower16:1073765066
 555 003c C4F20003 		movt	r3, #:upper16:1073765066
 556 0040 4FF00002 		mov	r2, #0
 557 0044 1A70     		strb	r2, [r3, #0]
 462:.\Generated_Source\PSoC5/Comp_3.c ****     Comp_3_SW3 = tmpSW3 & (uint8)(~Comp_3_CMP_SW3_INPCTL_MASK);
 558              		.loc 1 462 0
 559 0046 45F6CB23 		movw	r3, #:lower16:1073765067
 560 004a C4F20003 		movt	r3, #:upper16:1073765067
ARM GAS  C:\Users\karunmj\AppData\Local\Temp\ccm1hGxm.s 			page 19


 561 004e BA79     		ldrb	r2, [r7, #6]	@ zero_extendqisi2
 562 0050 02F0F602 		and	r2, r2, #246
 563 0054 1A70     		strb	r2, [r3, #0]
 463:.\Generated_Source\PSoC5/Comp_3.c **** 
 464:.\Generated_Source\PSoC5/Comp_3.c ****     /* Preserve original configuration
 465:.\Generated_Source\PSoC5/Comp_3.c ****      * - turn off Hysteresis
 466:.\Generated_Source\PSoC5/Comp_3.c ****      * - set calibration bit - shorts inN to inP
 467:.\Generated_Source\PSoC5/Comp_3.c ****     */
 468:.\Generated_Source\PSoC5/Comp_3.c ****     tmpCR = Comp_3_CR;
 564              		.loc 1 468 0
 565 0056 45F64103 		movw	r3, #:lower16:1073764417
 566 005a C4F20003 		movt	r3, #:upper16:1073764417
 567 005e 1B78     		ldrb	r3, [r3, #0]
 568 0060 FB71     		strb	r3, [r7, #7]
 469:.\Generated_Source\PSoC5/Comp_3.c ****     Comp_3_CR |= (Comp_3_CAL_ON | Comp_3_HYST_OFF);
 569              		.loc 1 469 0
 570 0062 45F64103 		movw	r3, #:lower16:1073764417
 571 0066 C4F20003 		movt	r3, #:upper16:1073764417
 572 006a 45F64102 		movw	r2, #:lower16:1073764417
 573 006e C4F20002 		movt	r2, #:upper16:1073764417
 574 0072 1278     		ldrb	r2, [r2, #0]
 575 0074 D2B2     		uxtb	r2, r2
 576 0076 42F03002 		orr	r2, r2, #48
 577 007a D2B2     		uxtb	r2, r2
 578 007c 1A70     		strb	r2, [r3, #0]
 470:.\Generated_Source\PSoC5/Comp_3.c ****     
 471:.\Generated_Source\PSoC5/Comp_3.c ****     /* Write default low values to trim register - no offset adjust */
 472:.\Generated_Source\PSoC5/Comp_3.c ****     /* PSoC5A */
 473:.\Generated_Source\PSoC5/Comp_3.c ****     #if (CY_PSOC5A)
 474:.\Generated_Source\PSoC5/Comp_3.c ****         Comp_3_TR = Comp_3_DEFAULT_CMP_TRIM;
 475:.\Generated_Source\PSoC5/Comp_3.c ****     #endif /* CY_PSOC5A */
 476:.\Generated_Source\PSoC5/Comp_3.c ****     
 477:.\Generated_Source\PSoC5/Comp_3.c ****     /* PSoC3, PSoC5LP or later */
 478:.\Generated_Source\PSoC5/Comp_3.c ****     #if (CY_PSOC3 || CY_PSOC5LP)
 479:.\Generated_Source\PSoC5/Comp_3.c ****         Comp_3_TR0 = Comp_3_DEFAULT_CMP_TRIM;
 579              		.loc 1 479 0
 580 007e 44F23263 		movw	r3, #:lower16:1073759794
 581 0082 C4F20003 		movt	r3, #:upper16:1073759794
 582 0086 4FF00002 		mov	r2, #0
 583 008a 1A70     		strb	r2, [r3, #0]
 480:.\Generated_Source\PSoC5/Comp_3.c ****         Comp_3_TR1 = Comp_3_DEFAULT_CMP_TRIM;
 584              		.loc 1 480 0
 585 008c 44F23363 		movw	r3, #:lower16:1073759795
 586 0090 C4F20003 		movt	r3, #:upper16:1073759795
 587 0094 4FF00002 		mov	r2, #0
 588 0098 1A70     		strb	r2, [r3, #0]
 481:.\Generated_Source\PSoC5/Comp_3.c ****     #endif /* CY_PSOC3 || CY_PSOC5LP */
 482:.\Generated_Source\PSoC5/Comp_3.c **** 	
 483:.\Generated_Source\PSoC5/Comp_3.c **** 	/* Two phase trim - slow modes, one phase trim - for fast */ 
 484:.\Generated_Source\PSoC5/Comp_3.c ****     if ( (Comp_3_CR & Comp_3_PWR_MODE_MASK) == Comp_3_PWR_MODE_FAST)
 589              		.loc 1 484 0
 590 009a 45F64103 		movw	r3, #:lower16:1073764417
 591 009e C4F20003 		movt	r3, #:upper16:1073764417
 592 00a2 1B78     		ldrb	r3, [r3, #0]
 593 00a4 DBB2     		uxtb	r3, r3
 594 00a6 03F00303 		and	r3, r3, #3
 595 00aa 012B     		cmp	r3, #1
ARM GAS  C:\Users\karunmj\AppData\Local\Temp\ccm1hGxm.s 			page 20


 596 00ac 04D1     		bne	.L32
 485:.\Generated_Source\PSoC5/Comp_3.c ****     {
 486:.\Generated_Source\PSoC5/Comp_3.c ****         Comp_3_trimAdjust(0u);
 597              		.loc 1 486 0
 598 00ae 4FF00000 		mov	r0, #0
 599 00b2 FFF7FEFF 		bl	Comp_3_trimAdjust
 600 00b6 07E0     		b	.L33
 601              	.L32:
 487:.\Generated_Source\PSoC5/Comp_3.c ****     }
 488:.\Generated_Source\PSoC5/Comp_3.c ****     else /* default to trim for fast modes */
 489:.\Generated_Source\PSoC5/Comp_3.c ****     {
 490:.\Generated_Source\PSoC5/Comp_3.c ****         Comp_3_trimAdjust(1u);
 602              		.loc 1 490 0
 603 00b8 4FF00100 		mov	r0, #1
 604 00bc FFF7FEFF 		bl	Comp_3_trimAdjust
 491:.\Generated_Source\PSoC5/Comp_3.c **** 		Comp_3_trimAdjust(0u);
 605              		.loc 1 491 0
 606 00c0 4FF00000 		mov	r0, #0
 607 00c4 FFF7FEFF 		bl	Comp_3_trimAdjust
 608              	.L33:
 492:.\Generated_Source\PSoC5/Comp_3.c ****     }
 493:.\Generated_Source\PSoC5/Comp_3.c ****    
 494:.\Generated_Source\PSoC5/Comp_3.c ****     /* Restore Config Register */
 495:.\Generated_Source\PSoC5/Comp_3.c ****     Comp_3_CR = tmpCR;
 609              		.loc 1 495 0
 610 00c8 45F64103 		movw	r3, #:lower16:1073764417
 611 00cc C4F20003 		movt	r3, #:upper16:1073764417
 612 00d0 FA79     		ldrb	r2, [r7, #7]
 613 00d2 1A70     		strb	r2, [r3, #0]
 496:.\Generated_Source\PSoC5/Comp_3.c ****     
 497:.\Generated_Source\PSoC5/Comp_3.c ****     /* Restore routing registers for inP */
 498:.\Generated_Source\PSoC5/Comp_3.c ****     Comp_3_SW0 = tmpSW0;
 614              		.loc 1 498 0
 615 00d4 45F6C823 		movw	r3, #:lower16:1073765064
 616 00d8 C4F20003 		movt	r3, #:upper16:1073765064
 617 00dc 3A79     		ldrb	r2, [r7, #4]
 618 00de 1A70     		strb	r2, [r3, #0]
 499:.\Generated_Source\PSoC5/Comp_3.c ****     Comp_3_SW2 = tmpSW2;
 619              		.loc 1 499 0
 620 00e0 45F6CA23 		movw	r3, #:lower16:1073765066
 621 00e4 C4F20003 		movt	r3, #:upper16:1073765066
 622 00e8 7A79     		ldrb	r2, [r7, #5]
 623 00ea 1A70     		strb	r2, [r3, #0]
 500:.\Generated_Source\PSoC5/Comp_3.c ****     Comp_3_SW3 = tmpSW3;
 624              		.loc 1 500 0
 625 00ec 45F6CB23 		movw	r3, #:lower16:1073765067
 626 00f0 C4F20003 		movt	r3, #:upper16:1073765067
 627 00f4 BA79     		ldrb	r2, [r7, #6]
 628 00f6 1A70     		strb	r2, [r3, #0]
 501:.\Generated_Source\PSoC5/Comp_3.c ****     
 502:.\Generated_Source\PSoC5/Comp_3.c ****     /* PSoC5A */
 503:.\Generated_Source\PSoC5/Comp_3.c ****     #if (CY_PSOC5A)
 504:.\Generated_Source\PSoC5/Comp_3.c ****         return (uint16) Comp_3_TR;
 505:.\Generated_Source\PSoC5/Comp_3.c ****     #endif /* CY_PSOC5A */
 506:.\Generated_Source\PSoC5/Comp_3.c ****     
 507:.\Generated_Source\PSoC5/Comp_3.c ****     /* PSoC3, PSoC5LP or later */
 508:.\Generated_Source\PSoC5/Comp_3.c ****     #if (CY_PSOC3 || CY_PSOC5LP)
ARM GAS  C:\Users\karunmj\AppData\Local\Temp\ccm1hGxm.s 			page 21


 509:.\Generated_Source\PSoC5/Comp_3.c ****         return ((uint16)((uint16)Comp_3_TR1 << 8u) | (Comp_3_TR0));        
 629              		.loc 1 509 0
 630 00f8 44F23363 		movw	r3, #:lower16:1073759795
 631 00fc C4F20003 		movt	r3, #:upper16:1073759795
 632 0100 1B78     		ldrb	r3, [r3, #0]
 633 0102 DBB2     		uxtb	r3, r3
 634 0104 4FEA0323 		lsl	r3, r3, #8
 635 0108 9AB2     		uxth	r2, r3
 636 010a 44F23263 		movw	r3, #:lower16:1073759794
 637 010e C4F20003 		movt	r3, #:upper16:1073759794
 638 0112 1B78     		ldrb	r3, [r3, #0]
 639 0114 DBB2     		uxtb	r3, r3
 640 0116 42EA0303 		orr	r3, r2, r3
 641 011a 9BB2     		uxth	r3, r3
 510:.\Generated_Source\PSoC5/Comp_3.c ****     #endif /* CY_PSOC3 || CY_PSOC5LP */
 511:.\Generated_Source\PSoC5/Comp_3.c **** }
 642              		.loc 1 511 0
 643 011c 1846     		mov	r0, r3
 644 011e 07F10807 		add	r7, r7, #8
 645 0122 BD46     		mov	sp, r7
 646 0124 80BD     		pop	{r7, pc}
 647              		.cfi_endproc
 648              	.LFE7:
 649              		.size	Comp_3_ZeroCal, .-Comp_3_ZeroCal
 650 0126 00BF     		.section	.text.Comp_3_LoadTrim,"ax",%progbits
 651              		.align	2
 652              		.global	Comp_3_LoadTrim
 653              		.thumb
 654              		.thumb_func
 655              		.type	Comp_3_LoadTrim, %function
 656              	Comp_3_LoadTrim:
 657              	.LFB8:
 512:.\Generated_Source\PSoC5/Comp_3.c **** 
 513:.\Generated_Source\PSoC5/Comp_3.c **** 
 514:.\Generated_Source\PSoC5/Comp_3.c **** /*******************************************************************************
 515:.\Generated_Source\PSoC5/Comp_3.c **** * Function Name: Comp_3_LoadTrim
 516:.\Generated_Source\PSoC5/Comp_3.c **** ********************************************************************************
 517:.\Generated_Source\PSoC5/Comp_3.c **** *
 518:.\Generated_Source\PSoC5/Comp_3.c **** * Summary:
 519:.\Generated_Source\PSoC5/Comp_3.c **** *  This function stores a value in the Analog Comparator trim register.
 520:.\Generated_Source\PSoC5/Comp_3.c **** *
 521:.\Generated_Source\PSoC5/Comp_3.c **** * Parameters:  
 522:.\Generated_Source\PSoC5/Comp_3.c **** *  uint8 trimVal - trim value.  This value is the same format as the value 
 523:.\Generated_Source\PSoC5/Comp_3.c **** *  returned by the _ZeroCal routine.
 524:.\Generated_Source\PSoC5/Comp_3.c **** *
 525:.\Generated_Source\PSoC5/Comp_3.c **** * Return:
 526:.\Generated_Source\PSoC5/Comp_3.c **** *  None
 527:.\Generated_Source\PSoC5/Comp_3.c **** *
 528:.\Generated_Source\PSoC5/Comp_3.c **** *******************************************************************************/
 529:.\Generated_Source\PSoC5/Comp_3.c **** void Comp_3_LoadTrim(uint16 trimVal) 
 530:.\Generated_Source\PSoC5/Comp_3.c **** {
 658              		.loc 1 530 0
 659              		.cfi_startproc
 660              		@ args = 0, pretend = 0, frame = 8
 661              		@ frame_needed = 1, uses_anonymous_args = 0
 662              		@ link register save eliminated.
 663 0000 80B4     		push	{r7}
ARM GAS  C:\Users\karunmj\AppData\Local\Temp\ccm1hGxm.s 			page 22


 664              	.LCFI19:
 665              		.cfi_def_cfa_offset 4
 666 0002 83B0     		sub	sp, sp, #12
 667              	.LCFI20:
 668              		.cfi_def_cfa_offset 16
 669 0004 00AF     		add	r7, sp, #0
 670              		.cfi_offset 7, -4
 671              	.LCFI21:
 672              		.cfi_def_cfa_register 7
 673 0006 0346     		mov	r3, r0
 674 0008 FB80     		strh	r3, [r7, #6]	@ movhi
 531:.\Generated_Source\PSoC5/Comp_3.c ****     /* Stores value in the Analog Comparator trim register */
 532:.\Generated_Source\PSoC5/Comp_3.c ****     /* PSoC5A */
 533:.\Generated_Source\PSoC5/Comp_3.c ****     #if (CY_PSOC5A)
 534:.\Generated_Source\PSoC5/Comp_3.c ****         Comp_3_TR = (uint8) trimVal;
 535:.\Generated_Source\PSoC5/Comp_3.c ****     #endif /* CY_PSOC5A */
 536:.\Generated_Source\PSoC5/Comp_3.c ****     
 537:.\Generated_Source\PSoC5/Comp_3.c ****     /* PSoC3, PSoC5LP or later */
 538:.\Generated_Source\PSoC5/Comp_3.c ****     #if (CY_PSOC3 || CY_PSOC5LP)
 539:.\Generated_Source\PSoC5/Comp_3.c ****         /* Stores value in the Analog Comparator trim register for P-type load */
 540:.\Generated_Source\PSoC5/Comp_3.c ****         Comp_3_TR0 = (uint8) trimVal;
 675              		.loc 1 540 0
 676 000a 44F23263 		movw	r3, #:lower16:1073759794
 677 000e C4F20003 		movt	r3, #:upper16:1073759794
 678 0012 FA88     		ldrh	r2, [r7, #6]	@ movhi
 679 0014 D2B2     		uxtb	r2, r2
 680 0016 1A70     		strb	r2, [r3, #0]
 541:.\Generated_Source\PSoC5/Comp_3.c ****         
 542:.\Generated_Source\PSoC5/Comp_3.c ****         /* Stores value in the Analog Comparator trim register for N-type load */
 543:.\Generated_Source\PSoC5/Comp_3.c ****         Comp_3_TR1 = (uint8) (trimVal >> 8); 
 681              		.loc 1 543 0
 682 0018 44F23363 		movw	r3, #:lower16:1073759795
 683 001c C4F20003 		movt	r3, #:upper16:1073759795
 684 0020 FA88     		ldrh	r2, [r7, #6]
 685 0022 4FEA1222 		lsr	r2, r2, #8
 686 0026 92B2     		uxth	r2, r2
 687 0028 D2B2     		uxtb	r2, r2
 688 002a 1A70     		strb	r2, [r3, #0]
 544:.\Generated_Source\PSoC5/Comp_3.c ****     #endif /* CY_PSOC3 || CY_PSOC5LP */
 545:.\Generated_Source\PSoC5/Comp_3.c **** }
 689              		.loc 1 545 0
 690 002c 07F10C07 		add	r7, r7, #12
 691 0030 BD46     		mov	sp, r7
 692 0032 80BC     		pop	{r7}
 693 0034 7047     		bx	lr
 694              		.cfi_endproc
 695              	.LFE8:
 696              		.size	Comp_3_LoadTrim, .-Comp_3_LoadTrim
 697 0036 00BF     		.section	.text.Comp_3_PwrDwnOverrideEnable,"ax",%progbits
 698              		.align	2
 699              		.global	Comp_3_PwrDwnOverrideEnable
 700              		.thumb
 701              		.thumb_func
 702              		.type	Comp_3_PwrDwnOverrideEnable, %function
 703              	Comp_3_PwrDwnOverrideEnable:
 704              	.LFB9:
 546:.\Generated_Source\PSoC5/Comp_3.c **** 
ARM GAS  C:\Users\karunmj\AppData\Local\Temp\ccm1hGxm.s 			page 23


 547:.\Generated_Source\PSoC5/Comp_3.c **** 
 548:.\Generated_Source\PSoC5/Comp_3.c **** #if (CY_PSOC3 || CY_PSOC5LP)
 549:.\Generated_Source\PSoC5/Comp_3.c **** 
 550:.\Generated_Source\PSoC5/Comp_3.c ****     /*******************************************************************************
 551:.\Generated_Source\PSoC5/Comp_3.c ****     * Function Name: Comp_3_PwrDwnOverrideEnable
 552:.\Generated_Source\PSoC5/Comp_3.c ****     ********************************************************************************
 553:.\Generated_Source\PSoC5/Comp_3.c ****     *
 554:.\Generated_Source\PSoC5/Comp_3.c ****     * Summary:
 555:.\Generated_Source\PSoC5/Comp_3.c ****     *  This is the power down over-ride feature. This function ignores sleep 
 556:.\Generated_Source\PSoC5/Comp_3.c ****     *  parameter and allows the component to stay active during sleep mode.
 557:.\Generated_Source\PSoC5/Comp_3.c ****     *
 558:.\Generated_Source\PSoC5/Comp_3.c ****     * Parameters:
 559:.\Generated_Source\PSoC5/Comp_3.c ****     *  None
 560:.\Generated_Source\PSoC5/Comp_3.c ****     *
 561:.\Generated_Source\PSoC5/Comp_3.c ****     * Return:
 562:.\Generated_Source\PSoC5/Comp_3.c ****     *  None
 563:.\Generated_Source\PSoC5/Comp_3.c ****     *
 564:.\Generated_Source\PSoC5/Comp_3.c ****     *******************************************************************************/
 565:.\Generated_Source\PSoC5/Comp_3.c ****     void Comp_3_PwrDwnOverrideEnable(void) 
 566:.\Generated_Source\PSoC5/Comp_3.c ****     {
 705              		.loc 1 566 0
 706              		.cfi_startproc
 707              		@ args = 0, pretend = 0, frame = 0
 708              		@ frame_needed = 1, uses_anonymous_args = 0
 709              		@ link register save eliminated.
 710 0000 80B4     		push	{r7}
 711              	.LCFI22:
 712              		.cfi_def_cfa_offset 4
 713 0002 00AF     		add	r7, sp, #0
 714              		.cfi_offset 7, -4
 715              	.LCFI23:
 716              		.cfi_def_cfa_register 7
 567:.\Generated_Source\PSoC5/Comp_3.c ****         /* Set the pd_override bit in CMP_CR register */
 568:.\Generated_Source\PSoC5/Comp_3.c ****         Comp_3_CR |= Comp_3_PWRDWN_OVRD;
 717              		.loc 1 568 0
 718 0004 45F64103 		movw	r3, #:lower16:1073764417
 719 0008 C4F20003 		movt	r3, #:upper16:1073764417
 720 000c 45F64102 		movw	r2, #:lower16:1073764417
 721 0010 C4F20002 		movt	r2, #:upper16:1073764417
 722 0014 1278     		ldrb	r2, [r2, #0]
 723 0016 D2B2     		uxtb	r2, r2
 724 0018 42F00402 		orr	r2, r2, #4
 725 001c D2B2     		uxtb	r2, r2
 726 001e 1A70     		strb	r2, [r3, #0]
 569:.\Generated_Source\PSoC5/Comp_3.c ****     }
 727              		.loc 1 569 0
 728 0020 BD46     		mov	sp, r7
 729 0022 80BC     		pop	{r7}
 730 0024 7047     		bx	lr
 731              		.cfi_endproc
 732              	.LFE9:
 733              		.size	Comp_3_PwrDwnOverrideEnable, .-Comp_3_PwrDwnOverrideEnable
 734 0026 00BF     		.section	.text.Comp_3_PwrDwnOverrideDisable,"ax",%progbits
 735              		.align	2
 736              		.global	Comp_3_PwrDwnOverrideDisable
 737              		.thumb
 738              		.thumb_func
ARM GAS  C:\Users\karunmj\AppData\Local\Temp\ccm1hGxm.s 			page 24


 739              		.type	Comp_3_PwrDwnOverrideDisable, %function
 740              	Comp_3_PwrDwnOverrideDisable:
 741              	.LFB10:
 570:.\Generated_Source\PSoC5/Comp_3.c **** 
 571:.\Generated_Source\PSoC5/Comp_3.c **** 
 572:.\Generated_Source\PSoC5/Comp_3.c ****     /*******************************************************************************
 573:.\Generated_Source\PSoC5/Comp_3.c ****     * Function Name: Comp_3_PwrDwnOverrideDisable
 574:.\Generated_Source\PSoC5/Comp_3.c ****     ********************************************************************************
 575:.\Generated_Source\PSoC5/Comp_3.c ****     *
 576:.\Generated_Source\PSoC5/Comp_3.c ****     * Summary:
 577:.\Generated_Source\PSoC5/Comp_3.c ****     *  This is the power down over-ride feature. This allows the component to stay
 578:.\Generated_Source\PSoC5/Comp_3.c ****     *  inactive during sleep.
 579:.\Generated_Source\PSoC5/Comp_3.c ****     *
 580:.\Generated_Source\PSoC5/Comp_3.c ****     * Parameters:
 581:.\Generated_Source\PSoC5/Comp_3.c ****     *  None
 582:.\Generated_Source\PSoC5/Comp_3.c ****     *
 583:.\Generated_Source\PSoC5/Comp_3.c ****     * Return:
 584:.\Generated_Source\PSoC5/Comp_3.c ****     *  None
 585:.\Generated_Source\PSoC5/Comp_3.c ****     *
 586:.\Generated_Source\PSoC5/Comp_3.c ****     *******************************************************************************/
 587:.\Generated_Source\PSoC5/Comp_3.c ****     void Comp_3_PwrDwnOverrideDisable(void) 
 588:.\Generated_Source\PSoC5/Comp_3.c ****     {
 742              		.loc 1 588 0
 743              		.cfi_startproc
 744              		@ args = 0, pretend = 0, frame = 0
 745              		@ frame_needed = 1, uses_anonymous_args = 0
 746              		@ link register save eliminated.
 747 0000 80B4     		push	{r7}
 748              	.LCFI24:
 749              		.cfi_def_cfa_offset 4
 750 0002 00AF     		add	r7, sp, #0
 751              		.cfi_offset 7, -4
 752              	.LCFI25:
 753              		.cfi_def_cfa_register 7
 589:.\Generated_Source\PSoC5/Comp_3.c ****         /* Reset the pd_override bit in CMP_CR register */
 590:.\Generated_Source\PSoC5/Comp_3.c ****         Comp_3_CR &= (uint8)(~Comp_3_PWRDWN_OVRD);
 754              		.loc 1 590 0
 755 0004 45F64103 		movw	r3, #:lower16:1073764417
 756 0008 C4F20003 		movt	r3, #:upper16:1073764417
 757 000c 45F64102 		movw	r2, #:lower16:1073764417
 758 0010 C4F20002 		movt	r2, #:upper16:1073764417
 759 0014 1278     		ldrb	r2, [r2, #0]
 760 0016 D2B2     		uxtb	r2, r2
 761 0018 02F0FB02 		and	r2, r2, #251
 762 001c 1A70     		strb	r2, [r3, #0]
 591:.\Generated_Source\PSoC5/Comp_3.c ****     }
 763              		.loc 1 591 0
 764 001e BD46     		mov	sp, r7
 765 0020 80BC     		pop	{r7}
 766 0022 7047     		bx	lr
 767              		.cfi_endproc
 768              	.LFE10:
 769              		.size	Comp_3_PwrDwnOverrideDisable, .-Comp_3_PwrDwnOverrideDisable
 770              		.text
 771              	.Letext0: