ARM GAS  C:\Users\karunmj\AppData\Local\Temp\ccDWCT6d.s 			page 1


   1              		.syntax unified
   2              		.cpu cortex-m3
   3              		.fpu softvfp
   4              		.eabi_attribute 20, 1
   5              		.eabi_attribute 21, 1
   6              		.eabi_attribute 23, 3
   7              		.eabi_attribute 24, 1
   8              		.eabi_attribute 25, 1
   9              		.eabi_attribute 26, 1
  10              		.eabi_attribute 30, 6
  11              		.eabi_attribute 18, 4
  12              		.thumb
  13              		.file	"Sample_Hold_2.c"
  20 0000 DA000000 		.text
  20      02006600 
  20      00000201 
  20      FB0E0D00 
  20      01010101 
  21              	.Ltext0:
  22              		.cfi_sections	.debug_frame
  23              		.global	Sample_Hold_2_initVar
  24              		.bss
  25              		.type	Sample_Hold_2_initVar, %object
  26              		.size	Sample_Hold_2_initVar, 1
  27              	Sample_Hold_2_initVar:
  28 0000 00       		.space	1
  29              		.section	.text.Sample_Hold_2_Init,"ax",%progbits
  30              		.align	2
  31              		.global	Sample_Hold_2_Init
  32              		.thumb
  33              		.thumb_func
  34              		.type	Sample_Hold_2_Init, %function
  35              	Sample_Hold_2_Init:
  36              	.LFB0:
  37              		.file 1 ".\\Generated_Source\\PSoC5\\Sample_Hold_2.c"
   1:.\Generated_Source\PSoC5/Sample_Hold_2.c **** /*******************************************************************************
   2:.\Generated_Source\PSoC5/Sample_Hold_2.c **** * File Name: Sample_Hold_2.c
   3:.\Generated_Source\PSoC5/Sample_Hold_2.c **** * Version 1.40
   4:.\Generated_Source\PSoC5/Sample_Hold_2.c **** *
   5:.\Generated_Source\PSoC5/Sample_Hold_2.c **** * Description:
   6:.\Generated_Source\PSoC5/Sample_Hold_2.c **** *  This file provides the source code to the API for the SAMPLE/TRACK AND HOLD 
   7:.\Generated_Source\PSoC5/Sample_Hold_2.c **** *  component.
   8:.\Generated_Source\PSoC5/Sample_Hold_2.c **** *
   9:.\Generated_Source\PSoC5/Sample_Hold_2.c **** * Note:
  10:.\Generated_Source\PSoC5/Sample_Hold_2.c **** *  None
  11:.\Generated_Source\PSoC5/Sample_Hold_2.c **** *
  12:.\Generated_Source\PSoC5/Sample_Hold_2.c **** ********************************************************************************
  13:.\Generated_Source\PSoC5/Sample_Hold_2.c **** * Copyright 2008-2012, Cypress Semiconductor Corporation.  All rights reserved.
  14:.\Generated_Source\PSoC5/Sample_Hold_2.c **** * You may use this file only in accordance with the license, terms, conditions, 
  15:.\Generated_Source\PSoC5/Sample_Hold_2.c **** * disclaimers, and limitations in the end user license agreement accompanying 
  16:.\Generated_Source\PSoC5/Sample_Hold_2.c **** * the software package with which this file was provided.
ARM GAS  C:\Users\karunmj\AppData\Local\Temp\ccDWCT6d.s 			page 2


  17:.\Generated_Source\PSoC5/Sample_Hold_2.c **** *******************************************************************************/
  18:.\Generated_Source\PSoC5/Sample_Hold_2.c **** 
  19:.\Generated_Source\PSoC5/Sample_Hold_2.c **** #include "Sample_Hold_2.h"
  20:.\Generated_Source\PSoC5/Sample_Hold_2.c **** 
  21:.\Generated_Source\PSoC5/Sample_Hold_2.c **** #if (!CY_PSOC5A)
  22:.\Generated_Source\PSoC5/Sample_Hold_2.c ****     #if (CYDEV_VARIABLE_VDDA == 1u)
  23:.\Generated_Source\PSoC5/Sample_Hold_2.c ****         #include "CyScBoostClk.h"
  24:.\Generated_Source\PSoC5/Sample_Hold_2.c ****     #endif /* (CYDEV_VARIABLE_VDDA == 1u) */
  25:.\Generated_Source\PSoC5/Sample_Hold_2.c **** #endif /* (!CY_PSOC5A) */
  26:.\Generated_Source\PSoC5/Sample_Hold_2.c **** 
  27:.\Generated_Source\PSoC5/Sample_Hold_2.c **** uint8 Sample_Hold_2_initVar = 0u;
  28:.\Generated_Source\PSoC5/Sample_Hold_2.c **** 
  29:.\Generated_Source\PSoC5/Sample_Hold_2.c **** /* static Sample_Hold_2_backupStruct  Sample_Hold_2_backup; */
  30:.\Generated_Source\PSoC5/Sample_Hold_2.c **** #if (CY_PSOC5A)
  31:.\Generated_Source\PSoC5/Sample_Hold_2.c ****     static Sample_Hold_2_backupStruct  Sample_Hold_2_P5backup;
  32:.\Generated_Source\PSoC5/Sample_Hold_2.c **** #endif /* CY_PSOC5A */
  33:.\Generated_Source\PSoC5/Sample_Hold_2.c **** 
  34:.\Generated_Source\PSoC5/Sample_Hold_2.c **** 
  35:.\Generated_Source\PSoC5/Sample_Hold_2.c **** 
  36:.\Generated_Source\PSoC5/Sample_Hold_2.c **** /*******************************************************************************   
  37:.\Generated_Source\PSoC5/Sample_Hold_2.c **** * Function Name: Sample_Hold_2_Init
  38:.\Generated_Source\PSoC5/Sample_Hold_2.c **** ********************************************************************************
  39:.\Generated_Source\PSoC5/Sample_Hold_2.c **** *
  40:.\Generated_Source\PSoC5/Sample_Hold_2.c **** * Summary:
  41:.\Generated_Source\PSoC5/Sample_Hold_2.c **** *  Initialize component's parameters to the parameters set by user in the 
  42:.\Generated_Source\PSoC5/Sample_Hold_2.c **** *  customizer of the component placed onto schematic. Usually called in 
  43:.\Generated_Source\PSoC5/Sample_Hold_2.c **** *  Sample_Hold_2_Start().
  44:.\Generated_Source\PSoC5/Sample_Hold_2.c **** *
  45:.\Generated_Source\PSoC5/Sample_Hold_2.c **** * Parameters:
  46:.\Generated_Source\PSoC5/Sample_Hold_2.c **** *  void
  47:.\Generated_Source\PSoC5/Sample_Hold_2.c **** *
  48:.\Generated_Source\PSoC5/Sample_Hold_2.c **** * Return:
  49:.\Generated_Source\PSoC5/Sample_Hold_2.c **** *  void
  50:.\Generated_Source\PSoC5/Sample_Hold_2.c **** *
  51:.\Generated_Source\PSoC5/Sample_Hold_2.c **** *******************************************************************************/
  52:.\Generated_Source\PSoC5/Sample_Hold_2.c **** void Sample_Hold_2_Init(void) 
  53:.\Generated_Source\PSoC5/Sample_Hold_2.c **** {   
  38              		.loc 1 53 0
  39              		.cfi_startproc
  40              		@ args = 0, pretend = 0, frame = 0
  41              		@ frame_needed = 1, uses_anonymous_args = 0
  42 0000 80B5     		push	{r7, lr}
  43              	.LCFI0:
  44              		.cfi_def_cfa_offset 8
  45 0002 00AF     		add	r7, sp, #0
  46              		.cfi_offset 14, -4
  47              		.cfi_offset 7, -8
  48              	.LCFI1:
  49              		.cfi_def_cfa_register 7
  54:.\Generated_Source\PSoC5/Sample_Hold_2.c ****     /* Configure SC Block based on selected Sample/Track type */
  55:.\Generated_Source\PSoC5/Sample_Hold_2.c ****     #if (Sample_Hold_2_SAMPLE_TRACK_MODE == Sample_Hold_2_SAMPLEANDHOLD) /* Sample and hold mode */
  56:.\Generated_Source\PSoC5/Sample_Hold_2.c ****         /* SC Block mode -  - SCxx_CR0[3:1] */
  57:.\Generated_Source\PSoC5/Sample_Hold_2.c ****         Sample_Hold_2_CR0_REG = Sample_Hold_2_MODE_SAMPLEANDHOLD;
  50              		.loc 1 57 0
  51 0004 45F60803 		movw	r3, #:lower16:1073764360
  52 0008 C4F20003 		movt	r3, #:upper16:1073764360
  53 000c 4FF00602 		mov	r2, #6
ARM GAS  C:\Users\karunmj\AppData\Local\Temp\ccDWCT6d.s 			page 3


  54 0010 1A70     		strb	r2, [r3, #0]
  58:.\Generated_Source\PSoC5/Sample_Hold_2.c ****         
  59:.\Generated_Source\PSoC5/Sample_Hold_2.c ****         /* SC Block CR1 */ 
  60:.\Generated_Source\PSoC5/Sample_Hold_2.c ****         Sample_Hold_2_CR1_REG = (Sample_Hold_2_COMP_4P35PF  |
  55              		.loc 1 60 0
  56 0012 45F60903 		movw	r3, #:lower16:1073764361
  57 0016 C4F20003 		movt	r3, #:upper16:1073764361
  58 001a 4FF00802 		mov	r2, #8
  59 001e 1A70     		strb	r2, [r3, #0]
  61:.\Generated_Source\PSoC5/Sample_Hold_2.c ****                                 Sample_Hold_2_GAIN_0DB);
  62:.\Generated_Source\PSoC5/Sample_Hold_2.c ****         #if(Sample_Hold_2_SAMPLE_CLOCK_EDGE == Sample_Hold_2_EDGE_POSITIVENEGATIVE)
  63:.\Generated_Source\PSoC5/Sample_Hold_2.c ****             Sample_Hold_2_CR1_REG =  Sample_Hold_2_CR1_REG  | Sample_Hold_2_DIV2_DISABLE ;
  64:.\Generated_Source\PSoC5/Sample_Hold_2.c ****         #else
  65:.\Generated_Source\PSoC5/Sample_Hold_2.c ****             Sample_Hold_2_CR1_REG =  Sample_Hold_2_CR1_REG  | Sample_Hold_2_DIV2_ENABLE ;
  60              		.loc 1 65 0
  61 0020 45F60903 		movw	r3, #:lower16:1073764361
  62 0024 C4F20003 		movt	r3, #:upper16:1073764361
  63 0028 45F60902 		movw	r2, #:lower16:1073764361
  64 002c C4F20002 		movt	r2, #:upper16:1073764361
  65 0030 1278     		ldrb	r2, [r2, #0]
  66 0032 D2B2     		uxtb	r2, r2
  67 0034 42F01002 		orr	r2, r2, #16
  68 0038 D2B2     		uxtb	r2, r2
  69 003a 1A70     		strb	r2, [r3, #0]
  66:.\Generated_Source\PSoC5/Sample_Hold_2.c ****         #endif
  67:.\Generated_Source\PSoC5/Sample_Hold_2.c ****          
  68:.\Generated_Source\PSoC5/Sample_Hold_2.c ****         #if(Sample_Hold_2_VREF_TYPE == Sample_Hold_2_EXTERNAL)
  69:.\Generated_Source\PSoC5/Sample_Hold_2.c ****             Sample_Hold_2_CR2_REG = Sample_Hold_2_BIAS_LOW |
  70              		.loc 1 69 0
  71 003c 45F60A03 		movw	r3, #:lower16:1073764362
  72 0040 C4F20003 		movt	r3, #:upper16:1073764362
  73 0044 4FF00102 		mov	r2, #1
  74 0048 1A70     		strb	r2, [r3, #0]
  70:.\Generated_Source\PSoC5/Sample_Hold_2.c ****                                        Sample_Hold_2_REDC_00 | 
  71:.\Generated_Source\PSoC5/Sample_Hold_2.c ****                                        Sample_Hold_2_GNDVREF_DI;
  72:.\Generated_Source\PSoC5/Sample_Hold_2.c ****         #else
  73:.\Generated_Source\PSoC5/Sample_Hold_2.c ****             Sample_Hold_2_CR2_REG = Sample_Hold_2_BIAS_LOW |
  74:.\Generated_Source\PSoC5/Sample_Hold_2.c ****                                        Sample_Hold_2_REDC_00 | 
  75:.\Generated_Source\PSoC5/Sample_Hold_2.c ****                                        Sample_Hold_2_GNDVREF_E;
  76:.\Generated_Source\PSoC5/Sample_Hold_2.c ****         #endif
  77:.\Generated_Source\PSoC5/Sample_Hold_2.c ****     #else
  78:.\Generated_Source\PSoC5/Sample_Hold_2.c ****         /* Track and Hold Mode */
  79:.\Generated_Source\PSoC5/Sample_Hold_2.c ****         /* SC Block mode -  - SCxx_CR0[3:1] */
  80:.\Generated_Source\PSoC5/Sample_Hold_2.c ****         Sample_Hold_2_CR0_REG = Sample_Hold_2_MODE_TRACKANDHOLD; 
  81:.\Generated_Source\PSoC5/Sample_Hold_2.c ****         
  82:.\Generated_Source\PSoC5/Sample_Hold_2.c ****         /* SC Block CR1 */ 
  83:.\Generated_Source\PSoC5/Sample_Hold_2.c ****         Sample_Hold_2_CR1_REG = Sample_Hold_2_COMP_4P35PF  |
  84:.\Generated_Source\PSoC5/Sample_Hold_2.c ****                                    Sample_Hold_2_DIV2_ENABLE |
  85:.\Generated_Source\PSoC5/Sample_Hold_2.c ****                                    Sample_Hold_2_GAIN_0DB;
  86:.\Generated_Source\PSoC5/Sample_Hold_2.c ****                                 
  87:.\Generated_Source\PSoC5/Sample_Hold_2.c ****         /* SC Block CR2 */
  88:.\Generated_Source\PSoC5/Sample_Hold_2.c ****         Sample_Hold_2_CR2_REG = Sample_Hold_2_BIAS_LOW |
  89:.\Generated_Source\PSoC5/Sample_Hold_2.c ****                                    Sample_Hold_2_REDC_00 |
  90:.\Generated_Source\PSoC5/Sample_Hold_2.c ****                                    Sample_Hold_2_GNDVREF_E;
  91:.\Generated_Source\PSoC5/Sample_Hold_2.c ****     #endif /* end if - Sample/Track Type */
  92:.\Generated_Source\PSoC5/Sample_Hold_2.c ****     
  93:.\Generated_Source\PSoC5/Sample_Hold_2.c ****     /* Enable SC Block clocking */
ARM GAS  C:\Users\karunmj\AppData\Local\Temp\ccDWCT6d.s 			page 4


  94:.\Generated_Source\PSoC5/Sample_Hold_2.c ****     Sample_Hold_2_CLK_REG |= Sample_Hold_2_CLK_EN;
  75              		.loc 1 94 0
  76 004a 45F62B23 		movw	r3, #:lower16:1073764907
  77 004e C4F20003 		movt	r3, #:upper16:1073764907
  78 0052 45F62B22 		movw	r2, #:lower16:1073764907
  79 0056 C4F20002 		movt	r2, #:upper16:1073764907
  80 005a 1278     		ldrb	r2, [r2, #0]
  81 005c D2B2     		uxtb	r2, r2
  82 005e 42F00802 		orr	r2, r2, #8
  83 0062 D2B2     		uxtb	r2, r2
  84 0064 1A70     		strb	r2, [r3, #0]
  95:.\Generated_Source\PSoC5/Sample_Hold_2.c ****     
  96:.\Generated_Source\PSoC5/Sample_Hold_2.c ****     /* Set default power */
  97:.\Generated_Source\PSoC5/Sample_Hold_2.c ****     Sample_Hold_2_SetPower(Sample_Hold_2_INIT_POWER);
  85              		.loc 1 97 0
  86 0066 4FF00300 		mov	r0, #3
  87 006a FFF7FEFF 		bl	Sample_Hold_2_SetPower
  98:.\Generated_Source\PSoC5/Sample_Hold_2.c **** }
  88              		.loc 1 98 0
  89 006e 80BD     		pop	{r7, pc}
  90              		.cfi_endproc
  91              	.LFE0:
  92              		.size	Sample_Hold_2_Init, .-Sample_Hold_2_Init
  93              		.section	.text.Sample_Hold_2_Enable,"ax",%progbits
  94              		.align	2
  95              		.global	Sample_Hold_2_Enable
  96              		.thumb
  97              		.thumb_func
  98              		.type	Sample_Hold_2_Enable, %function
  99              	Sample_Hold_2_Enable:
 100              	.LFB1:
  99:.\Generated_Source\PSoC5/Sample_Hold_2.c **** 
 100:.\Generated_Source\PSoC5/Sample_Hold_2.c **** 
 101:.\Generated_Source\PSoC5/Sample_Hold_2.c **** /*******************************************************************************   
 102:.\Generated_Source\PSoC5/Sample_Hold_2.c **** * Function Name: Sample_Hold_2_Enable
 103:.\Generated_Source\PSoC5/Sample_Hold_2.c **** ********************************************************************************
 104:.\Generated_Source\PSoC5/Sample_Hold_2.c **** *
 105:.\Generated_Source\PSoC5/Sample_Hold_2.c **** * Summary:
 106:.\Generated_Source\PSoC5/Sample_Hold_2.c **** *  Enables the Sample/Track and Hold block operation
 107:.\Generated_Source\PSoC5/Sample_Hold_2.c **** *
 108:.\Generated_Source\PSoC5/Sample_Hold_2.c **** * Parameters:
 109:.\Generated_Source\PSoC5/Sample_Hold_2.c **** *  void
 110:.\Generated_Source\PSoC5/Sample_Hold_2.c **** *
 111:.\Generated_Source\PSoC5/Sample_Hold_2.c **** * Return:
 112:.\Generated_Source\PSoC5/Sample_Hold_2.c **** *  void
 113:.\Generated_Source\PSoC5/Sample_Hold_2.c **** *
 114:.\Generated_Source\PSoC5/Sample_Hold_2.c **** *******************************************************************************/
 115:.\Generated_Source\PSoC5/Sample_Hold_2.c **** void Sample_Hold_2_Enable(void) 
 116:.\Generated_Source\PSoC5/Sample_Hold_2.c **** {
 101              		.loc 1 116 0
 102              		.cfi_startproc
 103              		@ args = 0, pretend = 0, frame = 0
 104              		@ frame_needed = 1, uses_anonymous_args = 0
 105              		@ link register save eliminated.
 106 0000 80B4     		push	{r7}
 107              	.LCFI2:
 108              		.cfi_def_cfa_offset 4
ARM GAS  C:\Users\karunmj\AppData\Local\Temp\ccDWCT6d.s 			page 5


 109 0002 00AF     		add	r7, sp, #0
 110              		.cfi_offset 7, -4
 111              	.LCFI3:
 112              		.cfi_def_cfa_register 7
 117:.\Generated_Source\PSoC5/Sample_Hold_2.c ****     /* This is to restore the value of register CR1 and CR2 which is saved 
 118:.\Generated_Source\PSoC5/Sample_Hold_2.c ****       in prior to the modifications in stop() API */
 119:.\Generated_Source\PSoC5/Sample_Hold_2.c ****     #if (CY_PSOC5A)
 120:.\Generated_Source\PSoC5/Sample_Hold_2.c ****         if(Sample_Hold_2_P5backup.enableState == 1u)
 121:.\Generated_Source\PSoC5/Sample_Hold_2.c ****         {
 122:.\Generated_Source\PSoC5/Sample_Hold_2.c ****             Sample_Hold_2_CR1_REG = Sample_Hold_2_P5backup.scCR1Reg;
 123:.\Generated_Source\PSoC5/Sample_Hold_2.c ****             Sample_Hold_2_CR2_REG = Sample_Hold_2_P5backup.scCR2Reg;
 124:.\Generated_Source\PSoC5/Sample_Hold_2.c ****             Sample_Hold_2_P5backup.enableState = 0u;
 125:.\Generated_Source\PSoC5/Sample_Hold_2.c ****         }
 126:.\Generated_Source\PSoC5/Sample_Hold_2.c ****     #endif /* CY_PSOC5A */
 127:.\Generated_Source\PSoC5/Sample_Hold_2.c ****     
 128:.\Generated_Source\PSoC5/Sample_Hold_2.c ****     /* Enable power to SC block in active mode */
 129:.\Generated_Source\PSoC5/Sample_Hold_2.c ****     Sample_Hold_2_PM_ACT_CFG_REG |= Sample_Hold_2_ACT_PWR_EN;
 113              		.loc 1 129 0
 114 0004 44F2A933 		movw	r3, #:lower16:1073759145
 115 0008 C4F20003 		movt	r3, #:upper16:1073759145
 116 000c 44F2A932 		movw	r2, #:lower16:1073759145
 117 0010 C4F20002 		movt	r2, #:upper16:1073759145
 118 0014 1278     		ldrb	r2, [r2, #0]
 119 0016 D2B2     		uxtb	r2, r2
 120 0018 42F00402 		orr	r2, r2, #4
 121 001c D2B2     		uxtb	r2, r2
 122 001e 1A70     		strb	r2, [r3, #0]
 130:.\Generated_Source\PSoC5/Sample_Hold_2.c ****     
 131:.\Generated_Source\PSoC5/Sample_Hold_2.c ****     /* Enable power to SC block in Alternative active mode */
 132:.\Generated_Source\PSoC5/Sample_Hold_2.c ****     Sample_Hold_2_PM_STBY_CFG_REG |= Sample_Hold_2_STBY_PWR_EN;
 123              		.loc 1 132 0
 124 0020 44F2B933 		movw	r3, #:lower16:1073759161
 125 0024 C4F20003 		movt	r3, #:upper16:1073759161
 126 0028 44F2B932 		movw	r2, #:lower16:1073759161
 127 002c C4F20002 		movt	r2, #:upper16:1073759161
 128 0030 1278     		ldrb	r2, [r2, #0]
 129 0032 D2B2     		uxtb	r2, r2
 130 0034 42F00402 		orr	r2, r2, #4
 131 0038 D2B2     		uxtb	r2, r2
 132 003a 1A70     		strb	r2, [r3, #0]
 133:.\Generated_Source\PSoC5/Sample_Hold_2.c **** 
 134:.\Generated_Source\PSoC5/Sample_Hold_2.c ****     Sample_Hold_2_PUMP_CR1_REG |= Sample_Hold_2_PUMP_CR1_SC_CLKSEL;
 133              		.loc 1 134 0
 134 003c 45F67703 		movw	r3, #:lower16:1073764471
 135 0040 C4F20003 		movt	r3, #:upper16:1073764471
 136 0044 45F67702 		movw	r2, #:lower16:1073764471
 137 0048 C4F20002 		movt	r2, #:upper16:1073764471
 138 004c 1278     		ldrb	r2, [r2, #0]
 139 004e D2B2     		uxtb	r2, r2
 140 0050 6FEA4262 		mvn	r2, r2, lsl #25
 141 0054 6FEA5262 		mvn	r2, r2, lsr #25
 142 0058 D2B2     		uxtb	r2, r2
 143 005a 1A70     		strb	r2, [r3, #0]
 135:.\Generated_Source\PSoC5/Sample_Hold_2.c ****     
 136:.\Generated_Source\PSoC5/Sample_Hold_2.c ****     #if (!CY_PSOC5A)
 137:.\Generated_Source\PSoC5/Sample_Hold_2.c ****         #if (CYDEV_VARIABLE_VDDA == 1u)
 138:.\Generated_Source\PSoC5/Sample_Hold_2.c ****             if(CyScPumpEnabled == 1u)
ARM GAS  C:\Users\karunmj\AppData\Local\Temp\ccDWCT6d.s 			page 6


 139:.\Generated_Source\PSoC5/Sample_Hold_2.c ****             {
 140:.\Generated_Source\PSoC5/Sample_Hold_2.c ****                 Sample_Hold_2_BSTCLK_REG &= (uint8)(~Sample_Hold_2_BST_CLK_INDEX_MASK);
 141:.\Generated_Source\PSoC5/Sample_Hold_2.c ****                 Sample_Hold_2_BSTCLK_REG |= Sample_Hold_2_BST_CLK_EN | CyScBoostClk__INDEX;
 142:.\Generated_Source\PSoC5/Sample_Hold_2.c ****                 Sample_Hold_2_SC_MISC_REG |= Sample_Hold_2_PUMP_FORCE;
 143:.\Generated_Source\PSoC5/Sample_Hold_2.c ****                 CyScBoostClk_Start();
 144:.\Generated_Source\PSoC5/Sample_Hold_2.c ****             }
 145:.\Generated_Source\PSoC5/Sample_Hold_2.c ****             else
 146:.\Generated_Source\PSoC5/Sample_Hold_2.c ****             {
 147:.\Generated_Source\PSoC5/Sample_Hold_2.c ****                 Sample_Hold_2_BSTCLK_REG &= (uint8)(~Sample_Hold_2_BST_CLK_EN);
 148:.\Generated_Source\PSoC5/Sample_Hold_2.c ****                 Sample_Hold_2_SC_MISC_REG &= (uint8)(~Sample_Hold_2_PUMP_FORCE);
 149:.\Generated_Source\PSoC5/Sample_Hold_2.c ****             }
 150:.\Generated_Source\PSoC5/Sample_Hold_2.c ****         #endif /* (CYDEV_VARIABLE_VDDA == 1u) */
 151:.\Generated_Source\PSoC5/Sample_Hold_2.c ****     #endif /* (!CY_PSOC5A) */
 152:.\Generated_Source\PSoC5/Sample_Hold_2.c **** }
 144              		.loc 1 152 0
 145 005c BD46     		mov	sp, r7
 146 005e 80BC     		pop	{r7}
 147 0060 7047     		bx	lr
 148              		.cfi_endproc
 149              	.LFE1:
 150              		.size	Sample_Hold_2_Enable, .-Sample_Hold_2_Enable
 151 0062 00BF     		.section	.text.Sample_Hold_2_Start,"ax",%progbits
 152              		.align	2
 153              		.global	Sample_Hold_2_Start
 154              		.thumb
 155              		.thumb_func
 156              		.type	Sample_Hold_2_Start, %function
 157              	Sample_Hold_2_Start:
 158              	.LFB2:
 153:.\Generated_Source\PSoC5/Sample_Hold_2.c **** 
 154:.\Generated_Source\PSoC5/Sample_Hold_2.c **** 
 155:.\Generated_Source\PSoC5/Sample_Hold_2.c **** /*******************************************************************************
 156:.\Generated_Source\PSoC5/Sample_Hold_2.c **** * Function Name: Sample_Hold_2_Start
 157:.\Generated_Source\PSoC5/Sample_Hold_2.c **** ********************************************************************************
 158:.\Generated_Source\PSoC5/Sample_Hold_2.c **** *
 159:.\Generated_Source\PSoC5/Sample_Hold_2.c **** * Summary:
 160:.\Generated_Source\PSoC5/Sample_Hold_2.c **** *  The start function initializes the Sample and Hold with the default values, 
 161:.\Generated_Source\PSoC5/Sample_Hold_2.c **** *  and sets the power to the given level.  A power level of 0, is the same as 
 162:.\Generated_Source\PSoC5/Sample_Hold_2.c **** *  executing the stop function.
 163:.\Generated_Source\PSoC5/Sample_Hold_2.c **** *
 164:.\Generated_Source\PSoC5/Sample_Hold_2.c **** * Parameters:
 165:.\Generated_Source\PSoC5/Sample_Hold_2.c **** *  void
 166:.\Generated_Source\PSoC5/Sample_Hold_2.c **** *
 167:.\Generated_Source\PSoC5/Sample_Hold_2.c **** * Return:
 168:.\Generated_Source\PSoC5/Sample_Hold_2.c **** *  void
 169:.\Generated_Source\PSoC5/Sample_Hold_2.c **** *
 170:.\Generated_Source\PSoC5/Sample_Hold_2.c **** *******************************************************************************/
 171:.\Generated_Source\PSoC5/Sample_Hold_2.c **** void Sample_Hold_2_Start(void) 
 172:.\Generated_Source\PSoC5/Sample_Hold_2.c **** {
 159              		.loc 1 172 0
 160              		.cfi_startproc
 161              		@ args = 0, pretend = 0, frame = 0
 162              		@ frame_needed = 1, uses_anonymous_args = 0
 163 0000 80B5     		push	{r7, lr}
 164              	.LCFI4:
 165              		.cfi_def_cfa_offset 8
 166 0002 00AF     		add	r7, sp, #0
ARM GAS  C:\Users\karunmj\AppData\Local\Temp\ccDWCT6d.s 			page 7


 167              		.cfi_offset 14, -4
 168              		.cfi_offset 7, -8
 169              	.LCFI5:
 170              		.cfi_def_cfa_register 7
 173:.\Generated_Source\PSoC5/Sample_Hold_2.c ****     /* If not Initialized then initialize all required hardware and software */
 174:.\Generated_Source\PSoC5/Sample_Hold_2.c ****     if(Sample_Hold_2_initVar == 0u)
 171              		.loc 1 174 0
 172 0004 40F20003 		movw	r3, #:lower16:Sample_Hold_2_initVar
 173 0008 C0F20003 		movt	r3, #:upper16:Sample_Hold_2_initVar
 174 000c 1B78     		ldrb	r3, [r3, #0]	@ zero_extendqisi2
 175 000e 002B     		cmp	r3, #0
 176 0010 08D1     		bne	.L6
 175:.\Generated_Source\PSoC5/Sample_Hold_2.c ****     {
 176:.\Generated_Source\PSoC5/Sample_Hold_2.c ****         Sample_Hold_2_Init();
 177              		.loc 1 176 0
 178 0012 FFF7FEFF 		bl	Sample_Hold_2_Init
 177:.\Generated_Source\PSoC5/Sample_Hold_2.c ****         Sample_Hold_2_initVar = 1u;
 179              		.loc 1 177 0
 180 0016 40F20003 		movw	r3, #:lower16:Sample_Hold_2_initVar
 181 001a C0F20003 		movt	r3, #:upper16:Sample_Hold_2_initVar
 182 001e 4FF00102 		mov	r2, #1
 183 0022 1A70     		strb	r2, [r3, #0]
 184              	.L6:
 178:.\Generated_Source\PSoC5/Sample_Hold_2.c ****     }
 179:.\Generated_Source\PSoC5/Sample_Hold_2.c ****     Sample_Hold_2_Enable();
 185              		.loc 1 179 0
 186 0024 FFF7FEFF 		bl	Sample_Hold_2_Enable
 180:.\Generated_Source\PSoC5/Sample_Hold_2.c **** }
 187              		.loc 1 180 0
 188 0028 80BD     		pop	{r7, pc}
 189              		.cfi_endproc
 190              	.LFE2:
 191              		.size	Sample_Hold_2_Start, .-Sample_Hold_2_Start
 192 002a 00BF     		.section	.text.Sample_Hold_2_Stop,"ax",%progbits
 193              		.align	2
 194              		.global	Sample_Hold_2_Stop
 195              		.thumb
 196              		.thumb_func
 197              		.type	Sample_Hold_2_Stop, %function
 198              	Sample_Hold_2_Stop:
 199              	.LFB3:
 181:.\Generated_Source\PSoC5/Sample_Hold_2.c **** 
 182:.\Generated_Source\PSoC5/Sample_Hold_2.c **** 
 183:.\Generated_Source\PSoC5/Sample_Hold_2.c **** /*******************************************************************************
 184:.\Generated_Source\PSoC5/Sample_Hold_2.c **** * Function Name: Sample_Hold_2_Stop
 185:.\Generated_Source\PSoC5/Sample_Hold_2.c **** ********************************************************************************
 186:.\Generated_Source\PSoC5/Sample_Hold_2.c **** *
 187:.\Generated_Source\PSoC5/Sample_Hold_2.c **** * Summary:
 188:.\Generated_Source\PSoC5/Sample_Hold_2.c **** *  Powers down amplifier to lowest power state.
 189:.\Generated_Source\PSoC5/Sample_Hold_2.c **** *
 190:.\Generated_Source\PSoC5/Sample_Hold_2.c **** * Parameters:
 191:.\Generated_Source\PSoC5/Sample_Hold_2.c **** *  void
 192:.\Generated_Source\PSoC5/Sample_Hold_2.c **** *
 193:.\Generated_Source\PSoC5/Sample_Hold_2.c **** * Return:
 194:.\Generated_Source\PSoC5/Sample_Hold_2.c **** *  void
 195:.\Generated_Source\PSoC5/Sample_Hold_2.c **** *
 196:.\Generated_Source\PSoC5/Sample_Hold_2.c **** *******************************************************************************/
ARM GAS  C:\Users\karunmj\AppData\Local\Temp\ccDWCT6d.s 			page 8


 197:.\Generated_Source\PSoC5/Sample_Hold_2.c **** void Sample_Hold_2_Stop(void) 
 198:.\Generated_Source\PSoC5/Sample_Hold_2.c **** {   
 200              		.loc 1 198 0
 201              		.cfi_startproc
 202              		@ args = 0, pretend = 0, frame = 0
 203              		@ frame_needed = 1, uses_anonymous_args = 0
 204              		@ link register save eliminated.
 205 0000 80B4     		push	{r7}
 206              	.LCFI6:
 207              		.cfi_def_cfa_offset 4
 208 0002 00AF     		add	r7, sp, #0
 209              		.cfi_offset 7, -4
 210              	.LCFI7:
 211              		.cfi_def_cfa_register 7
 199:.\Generated_Source\PSoC5/Sample_Hold_2.c ****     /* Disble power to the Amp in Active mode template */
 200:.\Generated_Source\PSoC5/Sample_Hold_2.c ****     Sample_Hold_2_PM_ACT_CFG_REG &= (uint8)(~Sample_Hold_2_ACT_PWR_EN);
 212              		.loc 1 200 0
 213 0004 44F2A933 		movw	r3, #:lower16:1073759145
 214 0008 C4F20003 		movt	r3, #:upper16:1073759145
 215 000c 44F2A932 		movw	r2, #:lower16:1073759145
 216 0010 C4F20002 		movt	r2, #:upper16:1073759145
 217 0014 1278     		ldrb	r2, [r2, #0]
 218 0016 D2B2     		uxtb	r2, r2
 219 0018 02F0FB02 		and	r2, r2, #251
 220 001c 1A70     		strb	r2, [r3, #0]
 201:.\Generated_Source\PSoC5/Sample_Hold_2.c **** 
 202:.\Generated_Source\PSoC5/Sample_Hold_2.c ****     /* Disble power to the Amp in Alternative Active mode template */
 203:.\Generated_Source\PSoC5/Sample_Hold_2.c ****     Sample_Hold_2_PM_STBY_CFG_REG &= (uint8)(~Sample_Hold_2_STBY_PWR_EN);
 221              		.loc 1 203 0
 222 001e 44F2B933 		movw	r3, #:lower16:1073759161
 223 0022 C4F20003 		movt	r3, #:upper16:1073759161
 224 0026 44F2B932 		movw	r2, #:lower16:1073759161
 225 002a C4F20002 		movt	r2, #:upper16:1073759161
 226 002e 1278     		ldrb	r2, [r2, #0]
 227 0030 D2B2     		uxtb	r2, r2
 228 0032 02F0FB02 		and	r2, r2, #251
 229 0036 1A70     		strb	r2, [r3, #0]
 204:.\Generated_Source\PSoC5/Sample_Hold_2.c ****     
 205:.\Generated_Source\PSoC5/Sample_Hold_2.c ****     #if (!CY_PSOC5A)
 206:.\Generated_Source\PSoC5/Sample_Hold_2.c ****         #if (CYDEV_VARIABLE_VDDA == 1u)
 207:.\Generated_Source\PSoC5/Sample_Hold_2.c ****             Sample_Hold_2_BSTCLK_REG &= (uint8)(~Sample_Hold_2_BST_CLK_EN);
 208:.\Generated_Source\PSoC5/Sample_Hold_2.c ****             /* Disable pumps only if there aren't any SC block in use */
 209:.\Generated_Source\PSoC5/Sample_Hold_2.c ****             if ((Sample_Hold_2_PM_ACT_CFG_REG & Sample_Hold_2_PM_ACT_CFG_MASK) == 0u)
 210:.\Generated_Source\PSoC5/Sample_Hold_2.c ****             {
 211:.\Generated_Source\PSoC5/Sample_Hold_2.c ****                 Sample_Hold_2_SC_MISC_REG &= (uint8)(~Sample_Hold_2_PUMP_FORCE);
 212:.\Generated_Source\PSoC5/Sample_Hold_2.c ****                 Sample_Hold_2_PUMP_CR1_REG &= (uint8)(~Sample_Hold_2_PUMP_CR1_SC_CLKSEL);
 213:.\Generated_Source\PSoC5/Sample_Hold_2.c ****                 CyScBoostClk_Stop();
 214:.\Generated_Source\PSoC5/Sample_Hold_2.c ****             }
 215:.\Generated_Source\PSoC5/Sample_Hold_2.c ****         #endif /* CYDEV_VARIABLE_VDDA == 1u */
 216:.\Generated_Source\PSoC5/Sample_Hold_2.c ****     #endif /* (CY_PSOC3 || CY_PSOC5LP) */
 217:.\Generated_Source\PSoC5/Sample_Hold_2.c ****  
 218:.\Generated_Source\PSoC5/Sample_Hold_2.c ****     /* This sets Sample and hold in zero current mode and output routes are valid */
 219:.\Generated_Source\PSoC5/Sample_Hold_2.c ****     #if (CY_PSOC5A)
 220:.\Generated_Source\PSoC5/Sample_Hold_2.c ****         Sample_Hold_2_P5backup.scCR1Reg = Sample_Hold_2_CR1_REG;
 221:.\Generated_Source\PSoC5/Sample_Hold_2.c ****         Sample_Hold_2_P5backup.scCR2Reg = Sample_Hold_2_CR2_REG;
 222:.\Generated_Source\PSoC5/Sample_Hold_2.c ****         Sample_Hold_2_CR1_REG = 0x00u;
 223:.\Generated_Source\PSoC5/Sample_Hold_2.c ****         Sample_Hold_2_CR2_REG = 0x00u;
ARM GAS  C:\Users\karunmj\AppData\Local\Temp\ccDWCT6d.s 			page 9


 224:.\Generated_Source\PSoC5/Sample_Hold_2.c ****         Sample_Hold_2_P5backup.enableState = 1u;
 225:.\Generated_Source\PSoC5/Sample_Hold_2.c ****     #endif /* CY_PSOC5A */
 226:.\Generated_Source\PSoC5/Sample_Hold_2.c **** }
 230              		.loc 1 226 0
 231 0038 BD46     		mov	sp, r7
 232 003a 80BC     		pop	{r7}
 233 003c 7047     		bx	lr
 234              		.cfi_endproc
 235              	.LFE3:
 236              		.size	Sample_Hold_2_Stop, .-Sample_Hold_2_Stop
 237 003e 00BF     		.section	.text.Sample_Hold_2_SetPower,"ax",%progbits
 238              		.align	2
 239              		.global	Sample_Hold_2_SetPower
 240              		.thumb
 241              		.thumb_func
 242              		.type	Sample_Hold_2_SetPower, %function
 243              	Sample_Hold_2_SetPower:
 244              	.LFB4:
 227:.\Generated_Source\PSoC5/Sample_Hold_2.c **** 
 228:.\Generated_Source\PSoC5/Sample_Hold_2.c **** 
 229:.\Generated_Source\PSoC5/Sample_Hold_2.c **** /*******************************************************************************
 230:.\Generated_Source\PSoC5/Sample_Hold_2.c **** * Function Name: Sample_Hold_2_SetPower
 231:.\Generated_Source\PSoC5/Sample_Hold_2.c **** ********************************************************************************
 232:.\Generated_Source\PSoC5/Sample_Hold_2.c **** *
 233:.\Generated_Source\PSoC5/Sample_Hold_2.c **** * Summary:
 234:.\Generated_Source\PSoC5/Sample_Hold_2.c **** *  Set the power of the Sample/Track and Hold.
 235:.\Generated_Source\PSoC5/Sample_Hold_2.c **** *
 236:.\Generated_Source\PSoC5/Sample_Hold_2.c **** * Parameters:
 237:.\Generated_Source\PSoC5/Sample_Hold_2.c **** *  power: Sets power level between (0) and (3) high power
 238:.\Generated_Source\PSoC5/Sample_Hold_2.c **** *
 239:.\Generated_Source\PSoC5/Sample_Hold_2.c **** * Return:
 240:.\Generated_Source\PSoC5/Sample_Hold_2.c **** *  void
 241:.\Generated_Source\PSoC5/Sample_Hold_2.c **** *
 242:.\Generated_Source\PSoC5/Sample_Hold_2.c **** *******************************************************************************/
 243:.\Generated_Source\PSoC5/Sample_Hold_2.c **** void Sample_Hold_2_SetPower(uint8 power) 
 244:.\Generated_Source\PSoC5/Sample_Hold_2.c **** {
 245              		.loc 1 244 0
 246              		.cfi_startproc
 247              		@ args = 0, pretend = 0, frame = 16
 248              		@ frame_needed = 1, uses_anonymous_args = 0
 249              		@ link register save eliminated.
 250 0000 80B4     		push	{r7}
 251              	.LCFI8:
 252              		.cfi_def_cfa_offset 4
 253 0002 85B0     		sub	sp, sp, #20
 254              	.LCFI9:
 255              		.cfi_def_cfa_offset 24
 256 0004 00AF     		add	r7, sp, #0
 257              		.cfi_offset 7, -4
 258              	.LCFI10:
 259              		.cfi_def_cfa_register 7
 260 0006 0346     		mov	r3, r0
 261 0008 FB71     		strb	r3, [r7, #7]
 245:.\Generated_Source\PSoC5/Sample_Hold_2.c ****     uint8 tmpCR;
 246:.\Generated_Source\PSoC5/Sample_Hold_2.c **** 
 247:.\Generated_Source\PSoC5/Sample_Hold_2.c ****     /* Sets drive bits in SC Block Control Register 1:  SCxx_CR[1:0] */
 248:.\Generated_Source\PSoC5/Sample_Hold_2.c ****     tmpCR = Sample_Hold_2_CR1_REG & (uint8)(~Sample_Hold_2_DRIVE_MASK);
ARM GAS  C:\Users\karunmj\AppData\Local\Temp\ccDWCT6d.s 			page 10


 262              		.loc 1 248 0
 263 000a 45F60903 		movw	r3, #:lower16:1073764361
 264 000e C4F20003 		movt	r3, #:upper16:1073764361
 265 0012 1B78     		ldrb	r3, [r3, #0]
 266 0014 DBB2     		uxtb	r3, r3
 267 0016 23F00303 		bic	r3, r3, #3
 268 001a FB73     		strb	r3, [r7, #15]
 249:.\Generated_Source\PSoC5/Sample_Hold_2.c ****     tmpCR |= (power & Sample_Hold_2_DRIVE_MASK);
 269              		.loc 1 249 0
 270 001c FB79     		ldrb	r3, [r7, #7]	@ zero_extendqisi2
 271 001e 03F00303 		and	r3, r3, #3
 272 0022 FA7B     		ldrb	r2, [r7, #15]
 273 0024 43EA0203 		orr	r3, r3, r2
 274 0028 FB73     		strb	r3, [r7, #15]
 250:.\Generated_Source\PSoC5/Sample_Hold_2.c ****     Sample_Hold_2_CR1_REG = tmpCR;
 275              		.loc 1 250 0
 276 002a 45F60903 		movw	r3, #:lower16:1073764361
 277 002e C4F20003 		movt	r3, #:upper16:1073764361
 278 0032 FA7B     		ldrb	r2, [r7, #15]
 279 0034 1A70     		strb	r2, [r3, #0]
 251:.\Generated_Source\PSoC5/Sample_Hold_2.c **** }
 280              		.loc 1 251 0
 281 0036 07F11407 		add	r7, r7, #20
 282 003a BD46     		mov	sp, r7
 283 003c 80BC     		pop	{r7}
 284 003e 7047     		bx	lr
 285              		.cfi_endproc
 286              	.LFE4:
 287              		.size	Sample_Hold_2_SetPower, .-Sample_Hold_2_SetPower
 288              		.text
 289              	.Letext0: