ARM GAS  C:\Users\karunmj\AppData\Local\Temp\ccBu58lp.s 			page 1


   1              		.syntax unified
   2              		.cpu cortex-m3
   3              		.fpu softvfp
   4              		.eabi_attribute 20, 1
   5              		.eabi_attribute 21, 1
   6              		.eabi_attribute 23, 3
   7              		.eabi_attribute 24, 1
   8              		.eabi_attribute 25, 1
   9              		.eabi_attribute 26, 1
  10              		.eabi_attribute 30, 6
  11              		.eabi_attribute 18, 4
  12              		.thumb
  13              		.file	"main.c"
  20 0000 DB000000 		.text
  20      02006100 
  20      00000201 
  20      FB0E0D00 
  20      01010101 
  21              	.Ltext0:
  22              		.cfi_sections	.debug_frame
  23              		.comm	modem_state,1,1
  24              		.comm	packet_ready,1,1
  25              		.comm	data_packet,128,4
  26              		.comm	data_packet_size,1,1
  27              		.section	.text.main,"ax",%progbits
  28              		.align	2
  29              		.global	main
  30              		.thumb
  31              		.thumb_func
  32              		.type	main, %function
  33              	main:
  34              	.LFB29:
  35              		.file 1 ".\\main.c"
   1:.\main.c      **** /* ========================================
   2:.\main.c      ****  *
   3:.\main.c      ****  * Copyright YOUR COMPANY, THE YEAR
   4:.\main.c      ****  * All Rights Reserved
   5:.\main.c      ****  * UNPUBLISHED, LICENSED SOFTWARE.
   6:.\main.c      ****  *
   7:.\main.c      ****  * CONFIDENTIAL AND PROPRIETARY INFORMATION
   8:.\main.c      ****  * WHICH IS THE PROPERTY OF your company.
   9:.\main.c      ****  *
  10:.\main.c      ****  * ========================================
  11:.\main.c      **** */
  12:.\main.c      **** 
  13:.\main.c      **** #include <stdio.h>
  14:.\main.c      **** #include <string.h>
  15:.\main.c      **** #include <device.h>
  16:.\main.c      **** #include "slre.h"
  17:.\main.c      **** #include "modem.h"
  18:.\main.c      **** #include "ultrasonic.h"
ARM GAS  C:\Users\karunmj\AppData\Local\Temp\ccBu58lp.s 			page 2


  19:.\main.c      **** 
  20:.\main.c      **** // define global variables
  21:.\main.c      **** #define     MAX_PACKET_SIZE 128
  22:.\main.c      **** uint8       packet_ready;
  23:.\main.c      **** uint8       data_packet[MAX_PACKET_SIZE];
  24:.\main.c      **** uint8       data_packet_size;
  25:.\main.c      **** 
  26:.\main.c      **** // prototype functions
  27:.\main.c      **** void clear_packet();
  28:.\main.c      **** void write_packet(uint8* packet, uint8 size);
  29:.\main.c      **** 
  30:.\main.c      **** // prototype interrupt
  31:.\main.c      **** CY_ISR_PROTO(isr_timer);
  32:.\main.c      **** 
  33:.\main.c      **** void main(){
  36              		.loc 1 33 0
  37              		.cfi_startproc
  38              		@ args = 0, pretend = 0, frame = 0
  39              		@ frame_needed = 1, uses_anonymous_args = 0
  40 0000 80B5     		push	{r7, lr}
  41              	.LCFI0:
  42              		.cfi_def_cfa_offset 8
  43 0002 00AF     		add	r7, sp, #0
  44              		.cfi_offset 14, -4
  45              		.cfi_offset 7, -8
  46              	.LCFI1:
  47              		.cfi_def_cfa_register 7
  34:.\main.c      ****     // intialize modem
  35:.\main.c      ****     modem_start();
  48              		.loc 1 35 0
  49 0004 FFF7FEFF 		bl	modem_start
  36:.\main.c      ****     // intialize ultrasonic sensor
  37:.\main.c      ****     ultrasonic_start();
  50              		.loc 1 37 0
  51 0008 FFF7FEFF 		bl	ultrasonic_start
  38:.\main.c      ****     // intialize timer
  39:.\main.c      ****     timer_Start();
  52              		.loc 1 39 0
  53 000c FFF7FEFF 		bl	timer_Start
  40:.\main.c      ****     isr_timer_StartEx(isr_timer);
  54              		.loc 1 40 0
  55 0010 40F20000 		movw	r0, #:lower16:isr_timer
  56 0014 C0F20000 		movt	r0, #:upper16:isr_timer
  57 0018 FFF7FEFF 		bl	isr_timer_StartEx
  41:.\main.c      ****     clear_packet();
  58              		.loc 1 41 0
  59 001c FFF7FEFF 		bl	clear_packet
  42:.\main.c      ****     packet_ready = 1u;
  60              		.loc 1 42 0
  61 0020 40F20003 		movw	r3, #:lower16:packet_ready
  62 0024 C0F20003 		movt	r3, #:upper16:packet_ready
  63 0028 4FF00102 		mov	r2, #1
  64 002c 1A70     		strb	r2, [r3, #0]
  43:.\main.c      ****     // enable global interrupt
  44:.\main.c      ****     CyGlobalIntEnable;
  65              		.loc 1 44 0
  66              	@ 44 ".\main.c" 1
ARM GAS  C:\Users\karunmj\AppData\Local\Temp\ccBu58lp.s 			page 3


  67 002e 62B6     		CPSIE   i
  68              	@ 0 "" 2
  69              		.thumb
  70 0030 04E0     		b	.L7
  71              	.L9:
  45:.\main.c      ****     
  46:.\main.c      ****     // ====
  47:.\main.c      ****     //ultrasonic_read();
  48:.\main.c      ****     // ====
  49:.\main.c      ****     
  50:.\main.c      ****     for(;;){
  51:.\main.c      ****         if(packet_ready){
  52:.\main.c      ****             modem_state = modem_get_state();
  53:.\main.c      ****             if(modem_state == MODEM_STATE_OFF){
  54:.\main.c      ****                 modem_power_on();
  55:.\main.c      ****             }
  56:.\main.c      ****             else if(modem_state == MODEM_STATE_IDLE){
  57:.\main.c      ****                 if(!modem_join_network()){  // if modem failed to connect
  58:.\main.c      ****                     modem_reset();
  59:.\main.c      ****                     modem_power_off();
  60:.\main.c      ****                 }
  61:.\main.c      ****             }
  62:.\main.c      ****             else if(modem_state == MODEM_STATE_READY){
  63:.\main.c      ****                 if(!modem_send_packet(data_packet, data_packet_size)){  // if packet failed to send
  64:.\main.c      ****                     modem_reset();
  65:.\main.c      ****                     modem_power_off();
  66:.\main.c      ****                 }
  67:.\main.c      ****                 else{  // if packet successfully sent
  68:.\main.c      ****                     modem_power_off();
  69:.\main.c      ****                     clear_packet();
  70:.\main.c      ****                 }
  71:.\main.c      ****             }
  72:.\main.c      ****         }
  73:.\main.c      ****     }
  72              		.loc 1 73 0
  73 0032 00BF     		nop
  74 0034 02E0     		b	.L7
  75              	.L10:
  76 0036 00BF     		nop
  77 0038 00E0     		b	.L7
  78              	.L11:
  79 003a 00BF     		nop
  80              	.L7:
  81              		.loc 1 51 0
  82 003c 40F20003 		movw	r3, #:lower16:packet_ready
  83 0040 C0F20003 		movt	r3, #:upper16:packet_ready
  84 0044 1B78     		ldrb	r3, [r3, #0]	@ zero_extendqisi2
  85 0046 002B     		cmp	r3, #0
  86 0048 F3D0     		beq	.L9
  87              		.loc 1 52 0
  88 004a FFF7FEFF 		bl	modem_get_state
  89 004e 0346     		mov	r3, r0
  90 0050 1A46     		mov	r2, r3
  91 0052 40F20003 		movw	r3, #:lower16:modem_state
  92 0056 C0F20003 		movt	r3, #:upper16:modem_state
  93 005a 1A70     		strb	r2, [r3, #0]
  94              		.loc 1 53 0
ARM GAS  C:\Users\karunmj\AppData\Local\Temp\ccBu58lp.s 			page 4


  95 005c 40F20003 		movw	r3, #:lower16:modem_state
  96 0060 C0F20003 		movt	r3, #:upper16:modem_state
  97 0064 1B78     		ldrb	r3, [r3, #0]	@ zero_extendqisi2
  98 0066 002B     		cmp	r3, #0
  99 0068 02D1     		bne	.L3
 100              		.loc 1 54 0
 101 006a FFF7FEFF 		bl	modem_power_on
 102              		.loc 1 73 0
 103 006e E5E7     		b	.L7
 104              	.L3:
 105              		.loc 1 56 0
 106 0070 40F20003 		movw	r3, #:lower16:modem_state
 107 0074 C0F20003 		movt	r3, #:upper16:modem_state
 108 0078 1B78     		ldrb	r3, [r3, #0]	@ zero_extendqisi2
 109 007a 012B     		cmp	r3, #1
 110 007c 09D1     		bne	.L4
 111              		.loc 1 57 0
 112 007e FFF7FEFF 		bl	modem_join_network
 113 0082 0346     		mov	r3, r0
 114 0084 002B     		cmp	r3, #0
 115 0086 D6D1     		bne	.L10
 116              		.loc 1 58 0
 117 0088 FFF7FEFF 		bl	modem_reset
 118              		.loc 1 59 0
 119 008c FFF7FEFF 		bl	modem_power_off
 120              		.loc 1 73 0
 121 0090 D4E7     		b	.L7
 122              	.L4:
 123              		.loc 1 62 0
 124 0092 40F20003 		movw	r3, #:lower16:modem_state
 125 0096 C0F20003 		movt	r3, #:upper16:modem_state
 126 009a 1B78     		ldrb	r3, [r3, #0]	@ zero_extendqisi2
 127 009c 032B     		cmp	r3, #3
 128 009e CCD1     		bne	.L11
 129              		.loc 1 63 0
 130 00a0 40F20003 		movw	r3, #:lower16:data_packet_size
 131 00a4 C0F20003 		movt	r3, #:upper16:data_packet_size
 132 00a8 1B78     		ldrb	r3, [r3, #0]	@ zero_extendqisi2
 133 00aa 40F20000 		movw	r0, #:lower16:data_packet
 134 00ae C0F20000 		movt	r0, #:upper16:data_packet
 135 00b2 1946     		mov	r1, r3
 136 00b4 FFF7FEFF 		bl	modem_send_packet
 137 00b8 0346     		mov	r3, r0
 138 00ba 002B     		cmp	r3, #0
 139 00bc 04D1     		bne	.L6
 140              		.loc 1 64 0
 141 00be FFF7FEFF 		bl	modem_reset
 142              		.loc 1 65 0
 143 00c2 FFF7FEFF 		bl	modem_power_off
 144              		.loc 1 73 0
 145 00c6 B9E7     		b	.L7
 146              	.L6:
 147              		.loc 1 68 0
 148 00c8 FFF7FEFF 		bl	modem_power_off
 149              		.loc 1 69 0
 150 00cc FFF7FEFF 		bl	clear_packet
 151              		.loc 1 73 0
ARM GAS  C:\Users\karunmj\AppData\Local\Temp\ccBu58lp.s 			page 5


 152 00d0 B4E7     		b	.L7
 153              		.cfi_endproc
 154              	.LFE29:
 155              		.size	main, .-main
 156 00d2 00BF     		.section	.rodata
 157              		.align	2
 158              	.LC0:
 159 0000 50536F43 		.ascii	"PSoC\032\000"
 159      1A00
 160 0006 0000     		.section	.text.isr_timer,"ax",%progbits
 161              		.align	2
 162              		.global	isr_timer
 163              		.thumb
 164              		.thumb_func
 165              		.type	isr_timer, %function
 166              	isr_timer:
 167              	.LFB30:
  74:.\main.c      **** }
  75:.\main.c      **** 
  76:.\main.c      **** CY_ISR(isr_timer){
 168              		.loc 1 76 0
 169              		.cfi_startproc
 170              		@ args = 0, pretend = 0, frame = 0
 171              		@ frame_needed = 1, uses_anonymous_args = 0
 172 0000 80B5     		push	{r7, lr}
 173              	.LCFI2:
 174              		.cfi_def_cfa_offset 8
 175 0002 00AF     		add	r7, sp, #0
 176              		.cfi_offset 14, -4
 177              		.cfi_offset 7, -8
 178              	.LCFI3:
 179              		.cfi_def_cfa_register 7
  77:.\main.c      ****     write_packet("PSoC\032", 5u);
 180              		.loc 1 77 0
 181 0004 40F20000 		movw	r0, #:lower16:.LC0
 182 0008 C0F20000 		movt	r0, #:upper16:.LC0
 183 000c 4FF00501 		mov	r1, #5
 184 0010 FFF7FEFF 		bl	write_packet
  78:.\main.c      ****     timer_ReadStatusRegister();
 185              		.loc 1 78 0
 186 0014 FFF7FEFF 		bl	timer_ReadStatusRegister
  79:.\main.c      **** }
 187              		.loc 1 79 0
 188 0018 80BD     		pop	{r7, pc}
 189              		.cfi_endproc
 190              	.LFE30:
 191              		.size	isr_timer, .-isr_timer
 192 001a 00BF     		.section	.text.clear_packet,"ax",%progbits
 193              		.align	2
 194              		.global	clear_packet
 195              		.thumb
 196              		.thumb_func
 197              		.type	clear_packet, %function
 198              	clear_packet:
 199              	.LFB31:
  80:.\main.c      **** 
  81:.\main.c      **** void clear_packet(){
ARM GAS  C:\Users\karunmj\AppData\Local\Temp\ccBu58lp.s 			page 6


 200              		.loc 1 81 0
 201              		.cfi_startproc
 202              		@ args = 0, pretend = 0, frame = 8
 203              		@ frame_needed = 1, uses_anonymous_args = 0
 204              		@ link register save eliminated.
 205 0000 80B4     		push	{r7}
 206              	.LCFI4:
 207              		.cfi_def_cfa_offset 4
 208 0002 83B0     		sub	sp, sp, #12
 209              	.LCFI5:
 210              		.cfi_def_cfa_offset 16
 211 0004 00AF     		add	r7, sp, #0
 212              		.cfi_offset 7, -4
 213              	.LCFI6:
 214              		.cfi_def_cfa_register 7
  82:.\main.c      ****     uint8 i;
  83:.\main.c      ****     for(i = 0u; i < MAX_PACKET_SIZE; i++){
 215              		.loc 1 83 0
 216 0006 4FF00003 		mov	r3, #0
 217 000a FB71     		strb	r3, [r7, #7]
 218 000c 0BE0     		b	.L15
 219              	.L16:
  84:.\main.c      ****         data_packet[i] = 0;
 220              		.loc 1 84 0
 221 000e FA79     		ldrb	r2, [r7, #7]	@ zero_extendqisi2
 222 0010 40F20003 		movw	r3, #:lower16:data_packet
 223 0014 C0F20003 		movt	r3, #:upper16:data_packet
 224 0018 4FF00001 		mov	r1, #0
 225 001c 9954     		strb	r1, [r3, r2]
 226              		.loc 1 83 0
 227 001e FB79     		ldrb	r3, [r7, #7]
 228 0020 03F10103 		add	r3, r3, #1
 229 0024 FB71     		strb	r3, [r7, #7]
 230              	.L15:
 231 0026 FB79     		ldrb	r3, [r7, #7]	@ zero_extendqisi2
 232 0028 5BB2     		sxtb	r3, r3
 233 002a 002B     		cmp	r3, #0
 234 002c EFDA     		bge	.L16
  85:.\main.c      ****     }
  86:.\main.c      ****     packet_ready = 0u;
 235              		.loc 1 86 0
 236 002e 40F20003 		movw	r3, #:lower16:packet_ready
 237 0032 C0F20003 		movt	r3, #:upper16:packet_ready
 238 0036 4FF00002 		mov	r2, #0
 239 003a 1A70     		strb	r2, [r3, #0]
  87:.\main.c      ****     data_packet_size = 0u;
 240              		.loc 1 87 0
 241 003c 40F20003 		movw	r3, #:lower16:data_packet_size
 242 0040 C0F20003 		movt	r3, #:upper16:data_packet_size
 243 0044 4FF00002 		mov	r2, #0
 244 0048 1A70     		strb	r2, [r3, #0]
  88:.\main.c      **** }
 245              		.loc 1 88 0
 246 004a 07F10C07 		add	r7, r7, #12
 247 004e BD46     		mov	sp, r7
 248 0050 80BC     		pop	{r7}
 249 0052 7047     		bx	lr
ARM GAS  C:\Users\karunmj\AppData\Local\Temp\ccBu58lp.s 			page 7


 250              		.cfi_endproc
 251              	.LFE31:
 252              		.size	clear_packet, .-clear_packet
 253              		.section	.text.write_packet,"ax",%progbits
 254              		.align	2
 255              		.global	write_packet
 256              		.thumb
 257              		.thumb_func
 258              		.type	write_packet, %function
 259              	write_packet:
 260              	.LFB32:
  89:.\main.c      **** 
  90:.\main.c      **** void write_packet(uint8* packet, uint8 size){
 261              		.loc 1 90 0
 262              		.cfi_startproc
 263              		@ args = 0, pretend = 0, frame = 16
 264              		@ frame_needed = 1, uses_anonymous_args = 0
 265              		@ link register save eliminated.
 266 0000 80B4     		push	{r7}
 267              	.LCFI7:
 268              		.cfi_def_cfa_offset 4
 269 0002 85B0     		sub	sp, sp, #20
 270              	.LCFI8:
 271              		.cfi_def_cfa_offset 24
 272 0004 00AF     		add	r7, sp, #0
 273              		.cfi_offset 7, -4
 274              	.LCFI9:
 275              		.cfi_def_cfa_register 7
 276 0006 7860     		str	r0, [r7, #4]
 277 0008 0B46     		mov	r3, r1
 278 000a FB70     		strb	r3, [r7, #3]
  91:.\main.c      ****     uint8 i;
  92:.\main.c      ****     for(i = 0u; i < size; i++){
 279              		.loc 1 92 0
 280 000c 4FF00003 		mov	r3, #0
 281 0010 FB73     		strb	r3, [r7, #15]
 282 0012 0DE0     		b	.L19
 283              	.L20:
  93:.\main.c      ****         data_packet[i] = packet[i];
 284              		.loc 1 93 0
 285 0014 FA7B     		ldrb	r2, [r7, #15]	@ zero_extendqisi2
 286 0016 F97B     		ldrb	r1, [r7, #15]	@ zero_extendqisi2
 287 0018 7B68     		ldr	r3, [r7, #4]
 288 001a 0B44     		add	r3, r1, r3
 289 001c 1978     		ldrb	r1, [r3, #0]	@ zero_extendqisi2
 290 001e 40F20003 		movw	r3, #:lower16:data_packet
 291 0022 C0F20003 		movt	r3, #:upper16:data_packet
 292 0026 9954     		strb	r1, [r3, r2]
 293              		.loc 1 92 0
 294 0028 FB7B     		ldrb	r3, [r7, #15]
 295 002a 03F10103 		add	r3, r3, #1
 296 002e FB73     		strb	r3, [r7, #15]
 297              	.L19:
 298 0030 FA7B     		ldrb	r2, [r7, #15]	@ zero_extendqisi2
 299 0032 FB78     		ldrb	r3, [r7, #3]	@ zero_extendqisi2
 300 0034 9A42     		cmp	r2, r3
 301 0036 EDD3     		bcc	.L20
ARM GAS  C:\Users\karunmj\AppData\Local\Temp\ccBu58lp.s 			page 8


  94:.\main.c      ****     }
  95:.\main.c      ****     packet_ready = 1u; 
 302              		.loc 1 95 0
 303 0038 40F20003 		movw	r3, #:lower16:packet_ready
 304 003c C0F20003 		movt	r3, #:upper16:packet_ready
 305 0040 4FF00102 		mov	r2, #1
 306 0044 1A70     		strb	r2, [r3, #0]
  96:.\main.c      ****     data_packet_size = size;
 307              		.loc 1 96 0
 308 0046 40F20003 		movw	r3, #:lower16:data_packet_size
 309 004a C0F20003 		movt	r3, #:upper16:data_packet_size
 310 004e FA78     		ldrb	r2, [r7, #3]
 311 0050 1A70     		strb	r2, [r3, #0]
  97:.\main.c      **** }
 312              		.loc 1 97 0
 313 0052 07F11407 		add	r7, r7, #20
 314 0056 BD46     		mov	sp, r7
 315 0058 80BC     		pop	{r7}
 316 005a 7047     		bx	lr
 317              		.cfi_endproc
 318              	.LFE32:
 319              		.size	write_packet, .-write_packet
 320              		.text
 321              	.Letext0: